	.file	"CommandSet.cpp"
	.text
	.section	.text._ZN8opendnp314ICommandHeader19ApplySelectResponseERKNS_11ICollectionINS_7IndexedINS_23ControlRelayOutputBlockEEEEE,"axG",@progbits,_ZN8opendnp314ICommandHeader19ApplySelectResponseERKNS_11ICollectionINS_7IndexedINS_23ControlRelayOutputBlockEEEEE,comdat
	.align 2
	.p2align 4,,15
	.weak	_ZN8opendnp314ICommandHeader19ApplySelectResponseERKNS_11ICollectionINS_7IndexedINS_23ControlRelayOutputBlockEEEEE
	.type	_ZN8opendnp314ICommandHeader19ApplySelectResponseERKNS_11ICollectionINS_7IndexedINS_23ControlRelayOutputBlockEEEEE, @function
_ZN8opendnp314ICommandHeader19ApplySelectResponseERKNS_11ICollectionINS_7IndexedINS_23ControlRelayOutputBlockEEEEE:
.LFB869:
	.cfi_startproc
	rep ret
	.cfi_endproc
.LFE869:
	.size	_ZN8opendnp314ICommandHeader19ApplySelectResponseERKNS_11ICollectionINS_7IndexedINS_23ControlRelayOutputBlockEEEEE, .-_ZN8opendnp314ICommandHeader19ApplySelectResponseERKNS_11ICollectionINS_7IndexedINS_23ControlRelayOutputBlockEEEEE
	.section	.text._ZN8opendnp314ICommandHeader19ApplySelectResponseERKNS_11ICollectionINS_7IndexedINS_17AnalogOutputInt16EEEEE,"axG",@progbits,_ZN8opendnp314ICommandHeader19ApplySelectResponseERKNS_11ICollectionINS_7IndexedINS_17AnalogOutputInt16EEEEE,comdat
	.align 2
	.p2align 4,,15
	.weak	_ZN8opendnp314ICommandHeader19ApplySelectResponseERKNS_11ICollectionINS_7IndexedINS_17AnalogOutputInt16EEEEE
	.type	_ZN8opendnp314ICommandHeader19ApplySelectResponseERKNS_11ICollectionINS_7IndexedINS_17AnalogOutputInt16EEEEE, @function
_ZN8opendnp314ICommandHeader19ApplySelectResponseERKNS_11ICollectionINS_7IndexedINS_17AnalogOutputInt16EEEEE:
.LFB870:
	.cfi_startproc
	rep ret
	.cfi_endproc
.LFE870:
	.size	_ZN8opendnp314ICommandHeader19ApplySelectResponseERKNS_11ICollectionINS_7IndexedINS_17AnalogOutputInt16EEEEE, .-_ZN8opendnp314ICommandHeader19ApplySelectResponseERKNS_11ICollectionINS_7IndexedINS_17AnalogOutputInt16EEEEE
	.section	.text._ZN8opendnp314ICommandHeader19ApplySelectResponseERKNS_11ICollectionINS_7IndexedINS_17AnalogOutputInt32EEEEE,"axG",@progbits,_ZN8opendnp314ICommandHeader19ApplySelectResponseERKNS_11ICollectionINS_7IndexedINS_17AnalogOutputInt32EEEEE,comdat
	.align 2
	.p2align 4,,15
	.weak	_ZN8opendnp314ICommandHeader19ApplySelectResponseERKNS_11ICollectionINS_7IndexedINS_17AnalogOutputInt32EEEEE
	.type	_ZN8opendnp314ICommandHeader19ApplySelectResponseERKNS_11ICollectionINS_7IndexedINS_17AnalogOutputInt32EEEEE, @function
_ZN8opendnp314ICommandHeader19ApplySelectResponseERKNS_11ICollectionINS_7IndexedINS_17AnalogOutputInt32EEEEE:
.LFB871:
	.cfi_startproc
	rep ret
	.cfi_endproc
.LFE871:
	.size	_ZN8opendnp314ICommandHeader19ApplySelectResponseERKNS_11ICollectionINS_7IndexedINS_17AnalogOutputInt32EEEEE, .-_ZN8opendnp314ICommandHeader19ApplySelectResponseERKNS_11ICollectionINS_7IndexedINS_17AnalogOutputInt32EEEEE
	.section	.text._ZN8opendnp314ICommandHeader19ApplySelectResponseERKNS_11ICollectionINS_7IndexedINS_19AnalogOutputFloat32EEEEE,"axG",@progbits,_ZN8opendnp314ICommandHeader19ApplySelectResponseERKNS_11ICollectionINS_7IndexedINS_19AnalogOutputFloat32EEEEE,comdat
	.align 2
	.p2align 4,,15
	.weak	_ZN8opendnp314ICommandHeader19ApplySelectResponseERKNS_11ICollectionINS_7IndexedINS_19AnalogOutputFloat32EEEEE
	.type	_ZN8opendnp314ICommandHeader19ApplySelectResponseERKNS_11ICollectionINS_7IndexedINS_19AnalogOutputFloat32EEEEE, @function
_ZN8opendnp314ICommandHeader19ApplySelectResponseERKNS_11ICollectionINS_7IndexedINS_19AnalogOutputFloat32EEEEE:
.LFB872:
	.cfi_startproc
	rep ret
	.cfi_endproc
.LFE872:
	.size	_ZN8opendnp314ICommandHeader19ApplySelectResponseERKNS_11ICollectionINS_7IndexedINS_19AnalogOutputFloat32EEEEE, .-_ZN8opendnp314ICommandHeader19ApplySelectResponseERKNS_11ICollectionINS_7IndexedINS_19AnalogOutputFloat32EEEEE
	.section	.text._ZN8opendnp314ICommandHeader19ApplySelectResponseERKNS_11ICollectionINS_7IndexedINS_20AnalogOutputDouble64EEEEE,"axG",@progbits,_ZN8opendnp314ICommandHeader19ApplySelectResponseERKNS_11ICollectionINS_7IndexedINS_20AnalogOutputDouble64EEEEE,comdat
	.align 2
	.p2align 4,,15
	.weak	_ZN8opendnp314ICommandHeader19ApplySelectResponseERKNS_11ICollectionINS_7IndexedINS_20AnalogOutputDouble64EEEEE
	.type	_ZN8opendnp314ICommandHeader19ApplySelectResponseERKNS_11ICollectionINS_7IndexedINS_20AnalogOutputDouble64EEEEE, @function
_ZN8opendnp314ICommandHeader19ApplySelectResponseERKNS_11ICollectionINS_7IndexedINS_20AnalogOutputDouble64EEEEE:
.LFB873:
	.cfi_startproc
	rep ret
	.cfi_endproc
.LFE873:
	.size	_ZN8opendnp314ICommandHeader19ApplySelectResponseERKNS_11ICollectionINS_7IndexedINS_20AnalogOutputDouble64EEEEE, .-_ZN8opendnp314ICommandHeader19ApplySelectResponseERKNS_11ICollectionINS_7IndexedINS_20AnalogOutputDouble64EEEEE
	.section	.text._ZN8opendnp314ICommandHeader20ApplyOperateResponseERKNS_11ICollectionINS_7IndexedINS_23ControlRelayOutputBlockEEEEE,"axG",@progbits,_ZN8opendnp314ICommandHeader20ApplyOperateResponseERKNS_11ICollectionINS_7IndexedINS_23ControlRelayOutputBlockEEEEE,comdat
	.align 2
	.p2align 4,,15
	.weak	_ZN8opendnp314ICommandHeader20ApplyOperateResponseERKNS_11ICollectionINS_7IndexedINS_23ControlRelayOutputBlockEEEEE
	.type	_ZN8opendnp314ICommandHeader20ApplyOperateResponseERKNS_11ICollectionINS_7IndexedINS_23ControlRelayOutputBlockEEEEE, @function
_ZN8opendnp314ICommandHeader20ApplyOperateResponseERKNS_11ICollectionINS_7IndexedINS_23ControlRelayOutputBlockEEEEE:
.LFB874:
	.cfi_startproc
	rep ret
	.cfi_endproc
.LFE874:
	.size	_ZN8opendnp314ICommandHeader20ApplyOperateResponseERKNS_11ICollectionINS_7IndexedINS_23ControlRelayOutputBlockEEEEE, .-_ZN8opendnp314ICommandHeader20ApplyOperateResponseERKNS_11ICollectionINS_7IndexedINS_23ControlRelayOutputBlockEEEEE
	.section	.text._ZN8opendnp314ICommandHeader20ApplyOperateResponseERKNS_11ICollectionINS_7IndexedINS_17AnalogOutputInt16EEEEE,"axG",@progbits,_ZN8opendnp314ICommandHeader20ApplyOperateResponseERKNS_11ICollectionINS_7IndexedINS_17AnalogOutputInt16EEEEE,comdat
	.align 2
	.p2align 4,,15
	.weak	_ZN8opendnp314ICommandHeader20ApplyOperateResponseERKNS_11ICollectionINS_7IndexedINS_17AnalogOutputInt16EEEEE
	.type	_ZN8opendnp314ICommandHeader20ApplyOperateResponseERKNS_11ICollectionINS_7IndexedINS_17AnalogOutputInt16EEEEE, @function
_ZN8opendnp314ICommandHeader20ApplyOperateResponseERKNS_11ICollectionINS_7IndexedINS_17AnalogOutputInt16EEEEE:
.LFB875:
	.cfi_startproc
	rep ret
	.cfi_endproc
.LFE875:
	.size	_ZN8opendnp314ICommandHeader20ApplyOperateResponseERKNS_11ICollectionINS_7IndexedINS_17AnalogOutputInt16EEEEE, .-_ZN8opendnp314ICommandHeader20ApplyOperateResponseERKNS_11ICollectionINS_7IndexedINS_17AnalogOutputInt16EEEEE
	.section	.text._ZN8opendnp314ICommandHeader20ApplyOperateResponseERKNS_11ICollectionINS_7IndexedINS_17AnalogOutputInt32EEEEE,"axG",@progbits,_ZN8opendnp314ICommandHeader20ApplyOperateResponseERKNS_11ICollectionINS_7IndexedINS_17AnalogOutputInt32EEEEE,comdat
	.align 2
	.p2align 4,,15
	.weak	_ZN8opendnp314ICommandHeader20ApplyOperateResponseERKNS_11ICollectionINS_7IndexedINS_17AnalogOutputInt32EEEEE
	.type	_ZN8opendnp314ICommandHeader20ApplyOperateResponseERKNS_11ICollectionINS_7IndexedINS_17AnalogOutputInt32EEEEE, @function
_ZN8opendnp314ICommandHeader20ApplyOperateResponseERKNS_11ICollectionINS_7IndexedINS_17AnalogOutputInt32EEEEE:
.LFB876:
	.cfi_startproc
	rep ret
	.cfi_endproc
.LFE876:
	.size	_ZN8opendnp314ICommandHeader20ApplyOperateResponseERKNS_11ICollectionINS_7IndexedINS_17AnalogOutputInt32EEEEE, .-_ZN8opendnp314ICommandHeader20ApplyOperateResponseERKNS_11ICollectionINS_7IndexedINS_17AnalogOutputInt32EEEEE
	.section	.text._ZN8opendnp314ICommandHeader20ApplyOperateResponseERKNS_11ICollectionINS_7IndexedINS_19AnalogOutputFloat32EEEEE,"axG",@progbits,_ZN8opendnp314ICommandHeader20ApplyOperateResponseERKNS_11ICollectionINS_7IndexedINS_19AnalogOutputFloat32EEEEE,comdat
	.align 2
	.p2align 4,,15
	.weak	_ZN8opendnp314ICommandHeader20ApplyOperateResponseERKNS_11ICollectionINS_7IndexedINS_19AnalogOutputFloat32EEEEE
	.type	_ZN8opendnp314ICommandHeader20ApplyOperateResponseERKNS_11ICollectionINS_7IndexedINS_19AnalogOutputFloat32EEEEE, @function
_ZN8opendnp314ICommandHeader20ApplyOperateResponseERKNS_11ICollectionINS_7IndexedINS_19AnalogOutputFloat32EEEEE:
.LFB877:
	.cfi_startproc
	rep ret
	.cfi_endproc
.LFE877:
	.size	_ZN8opendnp314ICommandHeader20ApplyOperateResponseERKNS_11ICollectionINS_7IndexedINS_19AnalogOutputFloat32EEEEE, .-_ZN8opendnp314ICommandHeader20ApplyOperateResponseERKNS_11ICollectionINS_7IndexedINS_19AnalogOutputFloat32EEEEE
	.section	.text._ZN8opendnp314ICommandHeader20ApplyOperateResponseERKNS_11ICollectionINS_7IndexedINS_20AnalogOutputDouble64EEEEE,"axG",@progbits,_ZN8opendnp314ICommandHeader20ApplyOperateResponseERKNS_11ICollectionINS_7IndexedINS_20AnalogOutputDouble64EEEEE,comdat
	.align 2
	.p2align 4,,15
	.weak	_ZN8opendnp314ICommandHeader20ApplyOperateResponseERKNS_11ICollectionINS_7IndexedINS_20AnalogOutputDouble64EEEEE
	.type	_ZN8opendnp314ICommandHeader20ApplyOperateResponseERKNS_11ICollectionINS_7IndexedINS_20AnalogOutputDouble64EEEEE, @function
_ZN8opendnp314ICommandHeader20ApplyOperateResponseERKNS_11ICollectionINS_7IndexedINS_20AnalogOutputDouble64EEEEE:
.LFB878:
	.cfi_startproc
	rep ret
	.cfi_endproc
.LFE878:
	.size	_ZN8opendnp314ICommandHeader20ApplyOperateResponseERKNS_11ICollectionINS_7IndexedINS_20AnalogOutputDouble64EEEEE, .-_ZN8opendnp314ICommandHeader20ApplyOperateResponseERKNS_11ICollectionINS_7IndexedINS_20AnalogOutputDouble64EEEEE
	.section	.text._ZNK8opendnp318TypedCommandHeaderINS_20AnalogOutputDouble64EE5CountEv,"axG",@progbits,_ZNK8opendnp318TypedCommandHeaderINS_20AnalogOutputDouble64EE5CountEv,comdat
	.align 2
	.p2align 4,,15
	.weak	_ZNK8opendnp318TypedCommandHeaderINS_20AnalogOutputDouble64EE5CountEv
	.type	_ZNK8opendnp318TypedCommandHeaderINS_20AnalogOutputDouble64EE5CountEv, @function
_ZNK8opendnp318TypedCommandHeaderINS_20AnalogOutputDouble64EE5CountEv:
.LFB1958:
	.cfi_startproc
	movq	56(%rdi), %rax
	subq	48(%rdi), %rax
	movabsq	$-6148914691236517205, %rdx
	sarq	$3, %rax
	imulq	%rdx, %rax
	ret
	.cfi_endproc
.LFE1958:
	.size	_ZNK8opendnp318TypedCommandHeaderINS_20AnalogOutputDouble64EE5CountEv, .-_ZNK8opendnp318TypedCommandHeaderINS_20AnalogOutputDouble64EE5CountEv
	.section	.text._ZNK8opendnp318TypedCommandHeaderINS_20AnalogOutputDouble64EE7ForeachERNS_8IVisitorINS_12CommandStateEEE,"axG",@progbits,_ZNK8opendnp318TypedCommandHeaderINS_20AnalogOutputDouble64EE7ForeachERNS_8IVisitorINS_12CommandStateEEE,comdat
	.align 2
	.p2align 4,,15
	.weak	_ZNK8opendnp318TypedCommandHeaderINS_20AnalogOutputDouble64EE7ForeachERNS_8IVisitorINS_12CommandStateEEE
	.type	_ZNK8opendnp318TypedCommandHeaderINS_20AnalogOutputDouble64EE7ForeachERNS_8IVisitorINS_12CommandStateEEE, @function
_ZNK8opendnp318TypedCommandHeaderINS_20AnalogOutputDouble64EE7ForeachERNS_8IVisitorINS_12CommandStateEEE:
.LFB1959:
	.cfi_startproc
	pushq	%r12
	.cfi_def_cfa_offset 16
	.cfi_offset 12, -16
	pushq	%rbp
	.cfi_def_cfa_offset 24
	.cfi_offset 6, -24
	pushq	%rbx
	.cfi_def_cfa_offset 32
	.cfi_offset 3, -32
	movq	48(%rdi), %rbx
	movq	56(%rdi), %r12
	cmpq	%rbx, %r12
	je	.L13
	leaq	24(%rbx), %rax
	movq	%rsi, %rbp
	subq	%rax, %r12
	andq	$-8, %r12
	addq	%rax, %r12
	.p2align 4,,10
	.p2align 3
.L15:
	movq	0(%rbp), %rax
	movq	%rbx, %rsi
	addq	$24, %rbx
	movq	%rbp, %rdi
	call	*(%rax)
	cmpq	%r12, %rbx
	jne	.L15
.L13:
	popq	%rbx
	.cfi_def_cfa_offset 24
	popq	%rbp
	.cfi_def_cfa_offset 16
	popq	%r12
	.cfi_def_cfa_offset 8
	ret
	.cfi_endproc
.LFE1959:
	.size	_ZNK8opendnp318TypedCommandHeaderINS_20AnalogOutputDouble64EE7ForeachERNS_8IVisitorINS_12CommandStateEEE, .-_ZNK8opendnp318TypedCommandHeaderINS_20AnalogOutputDouble64EE7ForeachERNS_8IVisitorINS_12CommandStateEEE
	.section	.text._ZNK8opendnp318TypedCommandHeaderINS_19AnalogOutputFloat32EE5CountEv,"axG",@progbits,_ZNK8opendnp318TypedCommandHeaderINS_19AnalogOutputFloat32EE5CountEv,comdat
	.align 2
	.p2align 4,,15
	.weak	_ZNK8opendnp318TypedCommandHeaderINS_19AnalogOutputFloat32EE5CountEv
	.type	_ZNK8opendnp318TypedCommandHeaderINS_19AnalogOutputFloat32EE5CountEv, @function
_ZNK8opendnp318TypedCommandHeaderINS_19AnalogOutputFloat32EE5CountEv:
.LFB1970:
	.cfi_startproc
	movq	56(%rdi), %rax
	subq	48(%rdi), %rax
	movabsq	$-6148914691236517205, %rdx
	sarq	$2, %rax
	imulq	%rdx, %rax
	ret
	.cfi_endproc
.LFE1970:
	.size	_ZNK8opendnp318TypedCommandHeaderINS_19AnalogOutputFloat32EE5CountEv, .-_ZNK8opendnp318TypedCommandHeaderINS_19AnalogOutputFloat32EE5CountEv
	.section	.text._ZNK8opendnp318TypedCommandHeaderINS_19AnalogOutputFloat32EE7ForeachERNS_8IVisitorINS_12CommandStateEEE,"axG",@progbits,_ZNK8opendnp318TypedCommandHeaderINS_19AnalogOutputFloat32EE7ForeachERNS_8IVisitorINS_12CommandStateEEE,comdat
	.align 2
	.p2align 4,,15
	.weak	_ZNK8opendnp318TypedCommandHeaderINS_19AnalogOutputFloat32EE7ForeachERNS_8IVisitorINS_12CommandStateEEE
	.type	_ZNK8opendnp318TypedCommandHeaderINS_19AnalogOutputFloat32EE7ForeachERNS_8IVisitorINS_12CommandStateEEE, @function
_ZNK8opendnp318TypedCommandHeaderINS_19AnalogOutputFloat32EE7ForeachERNS_8IVisitorINS_12CommandStateEEE:
.LFB1971:
	.cfi_startproc
	pushq	%r12
	.cfi_def_cfa_offset 16
	.cfi_offset 12, -16
	pushq	%rbp
	.cfi_def_cfa_offset 24
	.cfi_offset 6, -24
	pushq	%rbx
	.cfi_def_cfa_offset 32
	.cfi_offset 3, -32
	movq	48(%rdi), %rbx
	movq	56(%rdi), %r12
	cmpq	%rbx, %r12
	je	.L19
	leaq	12(%rbx), %rax
	movq	%rsi, %rbp
	subq	%rax, %r12
	andq	$-4, %r12
	addq	%rax, %r12
	.p2align 4,,10
	.p2align 3
.L21:
	movq	0(%rbp), %rax
	movq	%rbx, %rsi
	addq	$12, %rbx
	movq	%rbp, %rdi
	call	*(%rax)
	cmpq	%r12, %rbx
	jne	.L21
.L19:
	popq	%rbx
	.cfi_def_cfa_offset 24
	popq	%rbp
	.cfi_def_cfa_offset 16
	popq	%r12
	.cfi_def_cfa_offset 8
	ret
	.cfi_endproc
.LFE1971:
	.size	_ZNK8opendnp318TypedCommandHeaderINS_19AnalogOutputFloat32EE7ForeachERNS_8IVisitorINS_12CommandStateEEE, .-_ZNK8opendnp318TypedCommandHeaderINS_19AnalogOutputFloat32EE7ForeachERNS_8IVisitorINS_12CommandStateEEE
	.section	.text._ZNK8opendnp318TypedCommandHeaderINS_17AnalogOutputInt16EE5CountEv,"axG",@progbits,_ZNK8opendnp318TypedCommandHeaderINS_17AnalogOutputInt16EE5CountEv,comdat
	.align 2
	.p2align 4,,15
	.weak	_ZNK8opendnp318TypedCommandHeaderINS_17AnalogOutputInt16EE5CountEv
	.type	_ZNK8opendnp318TypedCommandHeaderINS_17AnalogOutputInt16EE5CountEv, @function
_ZNK8opendnp318TypedCommandHeaderINS_17AnalogOutputInt16EE5CountEv:
.LFB1982:
	.cfi_startproc
	movq	56(%rdi), %rax
	subq	48(%rdi), %rax
	sarq	$3, %rax
	ret
	.cfi_endproc
.LFE1982:
	.size	_ZNK8opendnp318TypedCommandHeaderINS_17AnalogOutputInt16EE5CountEv, .-_ZNK8opendnp318TypedCommandHeaderINS_17AnalogOutputInt16EE5CountEv
	.section	.text._ZNK8opendnp318TypedCommandHeaderINS_17AnalogOutputInt16EE7ForeachERNS_8IVisitorINS_12CommandStateEEE,"axG",@progbits,_ZNK8opendnp318TypedCommandHeaderINS_17AnalogOutputInt16EE7ForeachERNS_8IVisitorINS_12CommandStateEEE,comdat
	.align 2
	.p2align 4,,15
	.weak	_ZNK8opendnp318TypedCommandHeaderINS_17AnalogOutputInt16EE7ForeachERNS_8IVisitorINS_12CommandStateEEE
	.type	_ZNK8opendnp318TypedCommandHeaderINS_17AnalogOutputInt16EE7ForeachERNS_8IVisitorINS_12CommandStateEEE, @function
_ZNK8opendnp318TypedCommandHeaderINS_17AnalogOutputInt16EE7ForeachERNS_8IVisitorINS_12CommandStateEEE:
.LFB1983:
	.cfi_startproc
	pushq	%r12
	.cfi_def_cfa_offset 16
	.cfi_offset 12, -16
	pushq	%rbp
	.cfi_def_cfa_offset 24
	.cfi_offset 6, -24
	pushq	%rbx
	.cfi_def_cfa_offset 32
	.cfi_offset 3, -32
	movq	48(%rdi), %rbx
	movq	56(%rdi), %r12
	cmpq	%rbx, %r12
	je	.L25
	movq	%rsi, %rbp
	.p2align 4,,10
	.p2align 3
.L27:
	movq	0(%rbp), %rax
	movq	%rbx, %rsi
	addq	$8, %rbx
	movq	%rbp, %rdi
	call	*(%rax)
	cmpq	%r12, %rbx
	jne	.L27
.L25:
	popq	%rbx
	.cfi_def_cfa_offset 24
	popq	%rbp
	.cfi_def_cfa_offset 16
	popq	%r12
	.cfi_def_cfa_offset 8
	ret
	.cfi_endproc
.LFE1983:
	.size	_ZNK8opendnp318TypedCommandHeaderINS_17AnalogOutputInt16EE7ForeachERNS_8IVisitorINS_12CommandStateEEE, .-_ZNK8opendnp318TypedCommandHeaderINS_17AnalogOutputInt16EE7ForeachERNS_8IVisitorINS_12CommandStateEEE
	.section	.text._ZNK8opendnp318TypedCommandHeaderINS_17AnalogOutputInt32EE5CountEv,"axG",@progbits,_ZNK8opendnp318TypedCommandHeaderINS_17AnalogOutputInt32EE5CountEv,comdat
	.align 2
	.p2align 4,,15
	.weak	_ZNK8opendnp318TypedCommandHeaderINS_17AnalogOutputInt32EE5CountEv
	.type	_ZNK8opendnp318TypedCommandHeaderINS_17AnalogOutputInt32EE5CountEv, @function
_ZNK8opendnp318TypedCommandHeaderINS_17AnalogOutputInt32EE5CountEv:
.LFB1994:
	.cfi_startproc
	movq	56(%rdi), %rax
	subq	48(%rdi), %rax
	movabsq	$-6148914691236517205, %rdx
	sarq	$2, %rax
	imulq	%rdx, %rax
	ret
	.cfi_endproc
.LFE1994:
	.size	_ZNK8opendnp318TypedCommandHeaderINS_17AnalogOutputInt32EE5CountEv, .-_ZNK8opendnp318TypedCommandHeaderINS_17AnalogOutputInt32EE5CountEv
	.section	.text._ZNK8opendnp318TypedCommandHeaderINS_17AnalogOutputInt32EE7ForeachERNS_8IVisitorINS_12CommandStateEEE,"axG",@progbits,_ZNK8opendnp318TypedCommandHeaderINS_17AnalogOutputInt32EE7ForeachERNS_8IVisitorINS_12CommandStateEEE,comdat
	.align 2
	.p2align 4,,15
	.weak	_ZNK8opendnp318TypedCommandHeaderINS_17AnalogOutputInt32EE7ForeachERNS_8IVisitorINS_12CommandStateEEE
	.type	_ZNK8opendnp318TypedCommandHeaderINS_17AnalogOutputInt32EE7ForeachERNS_8IVisitorINS_12CommandStateEEE, @function
_ZNK8opendnp318TypedCommandHeaderINS_17AnalogOutputInt32EE7ForeachERNS_8IVisitorINS_12CommandStateEEE:
.LFB1995:
	.cfi_startproc
	pushq	%r12
	.cfi_def_cfa_offset 16
	.cfi_offset 12, -16
	pushq	%rbp
	.cfi_def_cfa_offset 24
	.cfi_offset 6, -24
	pushq	%rbx
	.cfi_def_cfa_offset 32
	.cfi_offset 3, -32
	movq	48(%rdi), %rbx
	movq	56(%rdi), %r12
	cmpq	%rbx, %r12
	je	.L31
	leaq	12(%rbx), %rax
	movq	%rsi, %rbp
	subq	%rax, %r12
	andq	$-4, %r12
	addq	%rax, %r12
	.p2align 4,,10
	.p2align 3
.L33:
	movq	0(%rbp), %rax
	movq	%rbx, %rsi
	addq	$12, %rbx
	movq	%rbp, %rdi
	call	*(%rax)
	cmpq	%r12, %rbx
	jne	.L33
.L31:
	popq	%rbx
	.cfi_def_cfa_offset 24
	popq	%rbp
	.cfi_def_cfa_offset 16
	popq	%r12
	.cfi_def_cfa_offset 8
	ret
	.cfi_endproc
.LFE1995:
	.size	_ZNK8opendnp318TypedCommandHeaderINS_17AnalogOutputInt32EE7ForeachERNS_8IVisitorINS_12CommandStateEEE, .-_ZNK8opendnp318TypedCommandHeaderINS_17AnalogOutputInt32EE7ForeachERNS_8IVisitorINS_12CommandStateEEE
	.section	.text._ZNK8opendnp318TypedCommandHeaderINS_23ControlRelayOutputBlockEE5CountEv,"axG",@progbits,_ZNK8opendnp318TypedCommandHeaderINS_23ControlRelayOutputBlockEE5CountEv,comdat
	.align 2
	.p2align 4,,15
	.weak	_ZNK8opendnp318TypedCommandHeaderINS_23ControlRelayOutputBlockEE5CountEv
	.type	_ZNK8opendnp318TypedCommandHeaderINS_23ControlRelayOutputBlockEE5CountEv, @function
_ZNK8opendnp318TypedCommandHeaderINS_23ControlRelayOutputBlockEE5CountEv:
.LFB2006:
	.cfi_startproc
	movq	56(%rdi), %rax
	subq	48(%rdi), %rax
	movabsq	$-3689348814741910323, %rdx
	sarq	$2, %rax
	imulq	%rdx, %rax
	ret
	.cfi_endproc
.LFE2006:
	.size	_ZNK8opendnp318TypedCommandHeaderINS_23ControlRelayOutputBlockEE5CountEv, .-_ZNK8opendnp318TypedCommandHeaderINS_23ControlRelayOutputBlockEE5CountEv
	.section	.text._ZNK8opendnp318TypedCommandHeaderINS_23ControlRelayOutputBlockEE7ForeachERNS_8IVisitorINS_12CommandStateEEE,"axG",@progbits,_ZNK8opendnp318TypedCommandHeaderINS_23ControlRelayOutputBlockEE7ForeachERNS_8IVisitorINS_12CommandStateEEE,comdat
	.align 2
	.p2align 4,,15
	.weak	_ZNK8opendnp318TypedCommandHeaderINS_23ControlRelayOutputBlockEE7ForeachERNS_8IVisitorINS_12CommandStateEEE
	.type	_ZNK8opendnp318TypedCommandHeaderINS_23ControlRelayOutputBlockEE7ForeachERNS_8IVisitorINS_12CommandStateEEE, @function
_ZNK8opendnp318TypedCommandHeaderINS_23ControlRelayOutputBlockEE7ForeachERNS_8IVisitorINS_12CommandStateEEE:
.LFB2007:
	.cfi_startproc
	pushq	%r12
	.cfi_def_cfa_offset 16
	.cfi_offset 12, -16
	pushq	%rbp
	.cfi_def_cfa_offset 24
	.cfi_offset 6, -24
	pushq	%rbx
	.cfi_def_cfa_offset 32
	.cfi_offset 3, -32
	movq	48(%rdi), %rbx
	movq	56(%rdi), %r12
	cmpq	%rbx, %r12
	je	.L37
	leaq	20(%rbx), %rax
	movq	%rsi, %rbp
	subq	%rax, %r12
	andq	$-4, %r12
	addq	%rax, %r12
	.p2align 4,,10
	.p2align 3
.L39:
	movq	0(%rbp), %rax
	movq	%rbx, %rsi
	addq	$20, %rbx
	movq	%rbp, %rdi
	call	*(%rax)
	cmpq	%r12, %rbx
	jne	.L39
.L37:
	popq	%rbx
	.cfi_def_cfa_offset 24
	popq	%rbp
	.cfi_def_cfa_offset 16
	popq	%r12
	.cfi_def_cfa_offset 8
	ret
	.cfi_endproc
.LFE2007:
	.size	_ZNK8opendnp318TypedCommandHeaderINS_23ControlRelayOutputBlockEE7ForeachERNS_8IVisitorINS_12CommandStateEEE, .-_ZNK8opendnp318TypedCommandHeaderINS_23ControlRelayOutputBlockEE7ForeachERNS_8IVisitorINS_12CommandStateEEE
	.section	.text._ZN8opendnp314FunctorVisitorINS_7IndexedINS_23ControlRelayOutputBlockEEEZNS_18TypedCommandHeaderIS2_E20ApplyOperateResponseERKNS_11ICollectionIS3_EEEUlS3_E_E7OnValueERKS3_,"axG",@progbits,_ZN8opendnp314FunctorVisitorINS_7IndexedINS_23ControlRelayOutputBlockEEEZNS_18TypedCommandHeaderIS2_E20ApplyOperateResponseERKNS_11ICollectionIS3_EEEUlS3_E_E7OnValueERKS3_,comdat
	.align 2
	.p2align 4,,15
	.weak	_ZN8opendnp314FunctorVisitorINS_7IndexedINS_23ControlRelayOutputBlockEEEZNS_18TypedCommandHeaderIS2_E20ApplyOperateResponseERKNS_11ICollectionIS3_EEEUlS3_E_E7OnValueERKS3_
	.type	_ZN8opendnp314FunctorVisitorINS_7IndexedINS_23ControlRelayOutputBlockEEEZNS_18TypedCommandHeaderIS2_E20ApplyOperateResponseERKNS_11ICollectionIS3_EEEUlS3_E_E7OnValueERKS3_, @function
_ZN8opendnp314FunctorVisitorINS_7IndexedINS_23ControlRelayOutputBlockEEEZNS_18TypedCommandHeaderIS2_E20ApplyOperateResponseERKNS_11ICollectionIS3_EEEUlS3_E_E7OnValueERKS3_:
.LFB2550:
	.cfi_startproc
	movq	16(%rdi), %rdx
	movl	16(%rsi), %eax
	movq	8(%rdi), %r8
	movl	4(%rsi), %r9d
	movdqu	(%rsi), %xmm0
	movl	(%rdx), %ecx
	movl	%eax, -24(%rsp)
	movl	8(%rsi), %r10d
	movzbl	12(%rsi), %r11d
	movzwl	16(%rsi), %esi
	movups	%xmm0, -40(%rsp)
	movq	%rcx, %rax
	leaq	(%rcx,%rcx,4), %rdi
	movq	48(%r8), %rcx
	addl	$1, %eax
	leaq	(%rcx,%rdi,4), %rcx
	movl	%eax, (%rdx)
	cmpw	%si, 2(%rcx)
	je	.L45
	rep ret
	.p2align 4,,10
	.p2align 3
.L45:
	movl	-40(%rsp), %edx
	movl	4(%rcx), %eax
	andl	$16711935, %edx
	andl	$16711935, %eax
	cmpl	%eax, %edx
	je	.L46
.L44:
	movb	$4, (%rcx)
	ret
	.p2align 4,,10
	.p2align 3
.L46:
	cmpl	%r9d, 8(%rcx)
	jne	.L44
	cmpl	%r10d, 12(%rcx)
	jne	.L44
	movb	$5, (%rcx)
	movb	%r11b, 1(%rcx)
	ret
	.cfi_endproc
.LFE2550:
	.size	_ZN8opendnp314FunctorVisitorINS_7IndexedINS_23ControlRelayOutputBlockEEEZNS_18TypedCommandHeaderIS2_E20ApplyOperateResponseERKNS_11ICollectionIS3_EEEUlS3_E_E7OnValueERKS3_, .-_ZN8opendnp314FunctorVisitorINS_7IndexedINS_23ControlRelayOutputBlockEEEZNS_18TypedCommandHeaderIS2_E20ApplyOperateResponseERKNS_11ICollectionIS3_EEEUlS3_E_E7OnValueERKS3_
	.section	.text._ZN8opendnp314FunctorVisitorINS_7IndexedINS_23ControlRelayOutputBlockEEEZNS_18TypedCommandHeaderIS2_E19ApplySelectResponseERKNS_11ICollectionIS3_EEEUlS3_E_E7OnValueERKS3_,"axG",@progbits,_ZN8opendnp314FunctorVisitorINS_7IndexedINS_23ControlRelayOutputBlockEEEZNS_18TypedCommandHeaderIS2_E19ApplySelectResponseERKNS_11ICollectionIS3_EEEUlS3_E_E7OnValueERKS3_,comdat
	.align 2
	.p2align 4,,15
	.weak	_ZN8opendnp314FunctorVisitorINS_7IndexedINS_23ControlRelayOutputBlockEEEZNS_18TypedCommandHeaderIS2_E19ApplySelectResponseERKNS_11ICollectionIS3_EEEUlS3_E_E7OnValueERKS3_
	.type	_ZN8opendnp314FunctorVisitorINS_7IndexedINS_23ControlRelayOutputBlockEEEZNS_18TypedCommandHeaderIS2_E19ApplySelectResponseERKNS_11ICollectionIS3_EEEUlS3_E_E7OnValueERKS3_, @function
_ZN8opendnp314FunctorVisitorINS_7IndexedINS_23ControlRelayOutputBlockEEEZNS_18TypedCommandHeaderIS2_E19ApplySelectResponseERKNS_11ICollectionIS3_EEEUlS3_E_E7OnValueERKS3_:
.LFB2551:
	.cfi_startproc
	movq	16(%rdi), %rdx
	movl	16(%rsi), %eax
	movq	8(%rdi), %r8
	movl	4(%rsi), %r9d
	movdqu	(%rsi), %xmm0
	movl	(%rdx), %ecx
	movl	%eax, -24(%rsp)
	movl	8(%rsi), %r10d
	movzbl	12(%rsi), %r11d
	movzwl	16(%rsi), %esi
	movups	%xmm0, -40(%rsp)
	movq	%rcx, %rax
	leaq	(%rcx,%rcx,4), %rdi
	movq	48(%r8), %rcx
	addl	$1, %eax
	leaq	(%rcx,%rdi,4), %rcx
	movl	%eax, (%rdx)
	cmpw	%si, 2(%rcx)
	je	.L53
.L47:
	rep ret
	.p2align 4,,10
	.p2align 3
.L53:
	movl	-40(%rsp), %edx
	movl	4(%rcx), %eax
	andl	$16711935, %edx
	andl	$16711935, %eax
	cmpl	%eax, %edx
	je	.L54
.L49:
	movb	$2, (%rcx)
	ret
	.p2align 4,,10
	.p2align 3
.L54:
	cmpl	%r9d, 8(%rcx)
	jne	.L49
	cmpl	12(%rcx), %r10d
	jne	.L49
	testb	%r11b, %r11b
	jne	.L55
	cmpb	$0, (%rcx)
	jne	.L47
	movb	$1, (%rcx)
	ret
.L55:
	movb	$3, (%rcx)
	movb	%r11b, 1(%rcx)
	ret
	.cfi_endproc
.LFE2551:
	.size	_ZN8opendnp314FunctorVisitorINS_7IndexedINS_23ControlRelayOutputBlockEEEZNS_18TypedCommandHeaderIS2_E19ApplySelectResponseERKNS_11ICollectionIS3_EEEUlS3_E_E7OnValueERKS3_, .-_ZN8opendnp314FunctorVisitorINS_7IndexedINS_23ControlRelayOutputBlockEEEZNS_18TypedCommandHeaderIS2_E19ApplySelectResponseERKNS_11ICollectionIS3_EEEUlS3_E_E7OnValueERKS3_
	.section	.text._ZN8opendnp314FunctorVisitorINS_7IndexedINS_17AnalogOutputInt32EEEZNS_18TypedCommandHeaderIS2_E20ApplyOperateResponseERKNS_11ICollectionIS3_EEEUlS3_E_E7OnValueERKS3_,"axG",@progbits,_ZN8opendnp314FunctorVisitorINS_7IndexedINS_17AnalogOutputInt32EEEZNS_18TypedCommandHeaderIS2_E20ApplyOperateResponseERKNS_11ICollectionIS3_EEEUlS3_E_E7OnValueERKS3_,comdat
	.align 2
	.p2align 4,,15
	.weak	_ZN8opendnp314FunctorVisitorINS_7IndexedINS_17AnalogOutputInt32EEEZNS_18TypedCommandHeaderIS2_E20ApplyOperateResponseERKNS_11ICollectionIS3_EEEUlS3_E_E7OnValueERKS3_
	.type	_ZN8opendnp314FunctorVisitorINS_7IndexedINS_17AnalogOutputInt32EEEZNS_18TypedCommandHeaderIS2_E20ApplyOperateResponseERKNS_11ICollectionIS3_EEEUlS3_E_E7OnValueERKS3_, @function
_ZN8opendnp314FunctorVisitorINS_7IndexedINS_17AnalogOutputInt32EEEZNS_18TypedCommandHeaderIS2_E20ApplyOperateResponseERKNS_11ICollectionIS3_EEEUlS3_E_E7OnValueERKS3_:
.LFB2552:
	.cfi_startproc
	movq	16(%rdi), %rdx
	movq	8(%rdi), %r8
	movl	(%rsi), %r9d
	movzbl	4(%rsi), %r10d
	movzwl	8(%rsi), %esi
	movl	(%rdx), %ecx
	movq	%rcx, %rax
	leaq	(%rcx,%rcx,2), %rdi
	movq	48(%r8), %rcx
	addl	$1, %eax
	movl	%eax, (%rdx)
	leaq	(%rcx,%rdi,4), %rcx
	cmpw	2(%rcx), %si
	je	.L59
	rep ret
	.p2align 4,,10
	.p2align 3
.L59:
	cmpl	4(%rcx), %r9d
	je	.L58
	movb	$4, (%rcx)
	ret
	.p2align 4,,10
	.p2align 3
.L58:
	movb	$5, (%rcx)
	movb	%r10b, 1(%rcx)
	ret
	.cfi_endproc
.LFE2552:
	.size	_ZN8opendnp314FunctorVisitorINS_7IndexedINS_17AnalogOutputInt32EEEZNS_18TypedCommandHeaderIS2_E20ApplyOperateResponseERKNS_11ICollectionIS3_EEEUlS3_E_E7OnValueERKS3_, .-_ZN8opendnp314FunctorVisitorINS_7IndexedINS_17AnalogOutputInt32EEEZNS_18TypedCommandHeaderIS2_E20ApplyOperateResponseERKNS_11ICollectionIS3_EEEUlS3_E_E7OnValueERKS3_
	.section	.text._ZN8opendnp314FunctorVisitorINS_7IndexedINS_17AnalogOutputInt16EEEZNS_18TypedCommandHeaderIS2_E20ApplyOperateResponseERKNS_11ICollectionIS3_EEEUlS3_E_E7OnValueERKS3_,"axG",@progbits,_ZN8opendnp314FunctorVisitorINS_7IndexedINS_17AnalogOutputInt16EEEZNS_18TypedCommandHeaderIS2_E20ApplyOperateResponseERKNS_11ICollectionIS3_EEEUlS3_E_E7OnValueERKS3_,comdat
	.align 2
	.p2align 4,,15
	.weak	_ZN8opendnp314FunctorVisitorINS_7IndexedINS_17AnalogOutputInt16EEEZNS_18TypedCommandHeaderIS2_E20ApplyOperateResponseERKNS_11ICollectionIS3_EEEUlS3_E_E7OnValueERKS3_
	.type	_ZN8opendnp314FunctorVisitorINS_7IndexedINS_17AnalogOutputInt16EEEZNS_18TypedCommandHeaderIS2_E20ApplyOperateResponseERKNS_11ICollectionIS3_EEEUlS3_E_E7OnValueERKS3_, @function
_ZN8opendnp314FunctorVisitorINS_7IndexedINS_17AnalogOutputInt16EEEZNS_18TypedCommandHeaderIS2_E20ApplyOperateResponseERKNS_11ICollectionIS3_EEEUlS3_E_E7OnValueERKS3_:
.LFB2554:
	.cfi_startproc
	movq	16(%rdi), %rdx
	movq	8(%rdi), %rcx
	movzwl	(%rsi), %r8d
	movzbl	2(%rsi), %r9d
	movzwl	4(%rsi), %esi
	movl	(%rdx), %eax
	movq	48(%rcx), %rcx
	movl	%eax, %edi
	addl	$1, %eax
	leaq	(%rcx,%rdi,8), %rcx
	movl	%eax, (%rdx)
	cmpw	2(%rcx), %si
	je	.L63
	rep ret
	.p2align 4,,10
	.p2align 3
.L63:
	cmpw	4(%rcx), %r8w
	je	.L62
	movb	$4, (%rcx)
	ret
	.p2align 4,,10
	.p2align 3
.L62:
	movb	$5, (%rcx)
	movb	%r9b, 1(%rcx)
	ret
	.cfi_endproc
.LFE2554:
	.size	_ZN8opendnp314FunctorVisitorINS_7IndexedINS_17AnalogOutputInt16EEEZNS_18TypedCommandHeaderIS2_E20ApplyOperateResponseERKNS_11ICollectionIS3_EEEUlS3_E_E7OnValueERKS3_, .-_ZN8opendnp314FunctorVisitorINS_7IndexedINS_17AnalogOutputInt16EEEZNS_18TypedCommandHeaderIS2_E20ApplyOperateResponseERKNS_11ICollectionIS3_EEEUlS3_E_E7OnValueERKS3_
	.section	.text._ZN8opendnp314FunctorVisitorINS_7IndexedINS_19AnalogOutputFloat32EEEZNS_18TypedCommandHeaderIS2_E20ApplyOperateResponseERKNS_11ICollectionIS3_EEEUlS3_E_E7OnValueERKS3_,"axG",@progbits,_ZN8opendnp314FunctorVisitorINS_7IndexedINS_19AnalogOutputFloat32EEEZNS_18TypedCommandHeaderIS2_E20ApplyOperateResponseERKNS_11ICollectionIS3_EEEUlS3_E_E7OnValueERKS3_,comdat
	.align 2
	.p2align 4,,15
	.weak	_ZN8opendnp314FunctorVisitorINS_7IndexedINS_19AnalogOutputFloat32EEEZNS_18TypedCommandHeaderIS2_E20ApplyOperateResponseERKNS_11ICollectionIS3_EEEUlS3_E_E7OnValueERKS3_
	.type	_ZN8opendnp314FunctorVisitorINS_7IndexedINS_19AnalogOutputFloat32EEEZNS_18TypedCommandHeaderIS2_E20ApplyOperateResponseERKNS_11ICollectionIS3_EEEUlS3_E_E7OnValueERKS3_, @function
_ZN8opendnp314FunctorVisitorINS_7IndexedINS_19AnalogOutputFloat32EEEZNS_18TypedCommandHeaderIS2_E20ApplyOperateResponseERKNS_11ICollectionIS3_EEEUlS3_E_E7OnValueERKS3_:
.LFB2556:
	.cfi_startproc
	movq	16(%rdi), %rdx
	movq	8(%rdi), %r8
	movss	(%rsi), %xmm0
	movzbl	4(%rsi), %r9d
	movzwl	8(%rsi), %esi
	movl	(%rdx), %ecx
	movq	%rcx, %rax
	leaq	(%rcx,%rcx,2), %rdi
	movq	48(%r8), %rcx
	addl	$1, %eax
	movl	%eax, (%rdx)
	leaq	(%rcx,%rdi,4), %rcx
	cmpw	2(%rcx), %si
	je	.L70
	rep ret
	.p2align 4,,10
	.p2align 3
.L70:
	ucomiss	4(%rcx), %xmm0
	jp	.L68
	jne	.L68
	movb	$5, (%rcx)
	movb	%r9b, 1(%rcx)
	ret
	.p2align 4,,10
	.p2align 3
.L68:
	movb	$4, (%rcx)
	ret
	.cfi_endproc
.LFE2556:
	.size	_ZN8opendnp314FunctorVisitorINS_7IndexedINS_19AnalogOutputFloat32EEEZNS_18TypedCommandHeaderIS2_E20ApplyOperateResponseERKNS_11ICollectionIS3_EEEUlS3_E_E7OnValueERKS3_, .-_ZN8opendnp314FunctorVisitorINS_7IndexedINS_19AnalogOutputFloat32EEEZNS_18TypedCommandHeaderIS2_E20ApplyOperateResponseERKNS_11ICollectionIS3_EEEUlS3_E_E7OnValueERKS3_
	.section	.text._ZN8opendnp314FunctorVisitorINS_7IndexedINS_20AnalogOutputDouble64EEEZNS_18TypedCommandHeaderIS2_E20ApplyOperateResponseERKNS_11ICollectionIS3_EEEUlS3_E_E7OnValueERKS3_,"axG",@progbits,_ZN8opendnp314FunctorVisitorINS_7IndexedINS_20AnalogOutputDouble64EEEZNS_18TypedCommandHeaderIS2_E20ApplyOperateResponseERKNS_11ICollectionIS3_EEEUlS3_E_E7OnValueERKS3_,comdat
	.align 2
	.p2align 4,,15
	.weak	_ZN8opendnp314FunctorVisitorINS_7IndexedINS_20AnalogOutputDouble64EEEZNS_18TypedCommandHeaderIS2_E20ApplyOperateResponseERKNS_11ICollectionIS3_EEEUlS3_E_E7OnValueERKS3_
	.type	_ZN8opendnp314FunctorVisitorINS_7IndexedINS_20AnalogOutputDouble64EEEZNS_18TypedCommandHeaderIS2_E20ApplyOperateResponseERKNS_11ICollectionIS3_EEEUlS3_E_E7OnValueERKS3_, @function
_ZN8opendnp314FunctorVisitorINS_7IndexedINS_20AnalogOutputDouble64EEEZNS_18TypedCommandHeaderIS2_E20ApplyOperateResponseERKNS_11ICollectionIS3_EEEUlS3_E_E7OnValueERKS3_:
.LFB2558:
	.cfi_startproc
	movq	16(%rdi), %rdx
	movq	8(%rdi), %r8
	movsd	(%rsi), %xmm0
	movzbl	8(%rsi), %r9d
	movzwl	16(%rsi), %esi
	movl	(%rdx), %ecx
	movq	%rcx, %rax
	leaq	(%rcx,%rcx,2), %rdi
	movq	48(%r8), %rcx
	addl	$1, %eax
	movl	%eax, (%rdx)
	leaq	(%rcx,%rdi,8), %rcx
	cmpw	2(%rcx), %si
	je	.L77
	rep ret
	.p2align 4,,10
	.p2align 3
.L77:
	ucomisd	8(%rcx), %xmm0
	jp	.L75
	jne	.L75
	movb	$5, (%rcx)
	movb	%r9b, 1(%rcx)
	ret
	.p2align 4,,10
	.p2align 3
.L75:
	movb	$4, (%rcx)
	ret
	.cfi_endproc
.LFE2558:
	.size	_ZN8opendnp314FunctorVisitorINS_7IndexedINS_20AnalogOutputDouble64EEEZNS_18TypedCommandHeaderIS2_E20ApplyOperateResponseERKNS_11ICollectionIS3_EEEUlS3_E_E7OnValueERKS3_, .-_ZN8opendnp314FunctorVisitorINS_7IndexedINS_20AnalogOutputDouble64EEEZNS_18TypedCommandHeaderIS2_E20ApplyOperateResponseERKNS_11ICollectionIS3_EEEUlS3_E_E7OnValueERKS3_
	.section	.text._ZN8opendnp318TypedCommandHeaderINS_23ControlRelayOutputBlockEED2Ev,"axG",@progbits,_ZN8opendnp318TypedCommandHeaderINS_23ControlRelayOutputBlockEED5Ev,comdat
	.align 2
	.p2align 4,,15
	.weak	_ZN8opendnp318TypedCommandHeaderINS_23ControlRelayOutputBlockEED2Ev
	.type	_ZN8opendnp318TypedCommandHeaderINS_23ControlRelayOutputBlockEED2Ev, @function
_ZN8opendnp318TypedCommandHeaderINS_23ControlRelayOutputBlockEED2Ev:
.LFB1955:
	.cfi_startproc
	movq	_ZTVN8opendnp318TypedCommandHeaderINS_23ControlRelayOutputBlockEEE@GOTPCREL(%rip), %rax
	leaq	16(%rax), %rdx
	addq	$168, %rax
	movq	%rax, 8(%rdi)
	movq	%rdx, (%rdi)
	movq	48(%rdi), %rdi
	testq	%rdi, %rdi
	je	.L78
	jmp	_ZdlPv@PLT
	.p2align 4,,10
	.p2align 3
.L78:
	rep ret
	.cfi_endproc
.LFE1955:
	.size	_ZN8opendnp318TypedCommandHeaderINS_23ControlRelayOutputBlockEED2Ev, .-_ZN8opendnp318TypedCommandHeaderINS_23ControlRelayOutputBlockEED2Ev
	.weak	_ZN8opendnp318TypedCommandHeaderINS_23ControlRelayOutputBlockEED1Ev
	.set	_ZN8opendnp318TypedCommandHeaderINS_23ControlRelayOutputBlockEED1Ev,_ZN8opendnp318TypedCommandHeaderINS_23ControlRelayOutputBlockEED2Ev
	.section	.text._ZN8opendnp318TypedCommandHeaderINS_23ControlRelayOutputBlockEED0Ev,"axG",@progbits,_ZN8opendnp318TypedCommandHeaderINS_23ControlRelayOutputBlockEED5Ev,comdat
	.align 2
	.p2align 4,,15
	.weak	_ZN8opendnp318TypedCommandHeaderINS_23ControlRelayOutputBlockEED0Ev
	.type	_ZN8opendnp318TypedCommandHeaderINS_23ControlRelayOutputBlockEED0Ev, @function
_ZN8opendnp318TypedCommandHeaderINS_23ControlRelayOutputBlockEED0Ev:
.LFB1957:
	.cfi_startproc
	movq	_ZTVN8opendnp318TypedCommandHeaderINS_23ControlRelayOutputBlockEEE@GOTPCREL(%rip), %rax
	pushq	%rbx
	.cfi_def_cfa_offset 16
	.cfi_offset 3, -16
	movq	%rdi, %rbx
	leaq	16(%rax), %rdx
	addq	$168, %rax
	movq	%rax, 8(%rdi)
	movq	%rdx, (%rdi)
	movq	48(%rdi), %rdi
	testq	%rdi, %rdi
	je	.L81
	call	_ZdlPv@PLT
.L81:
	movq	%rbx, %rdi
	movl	$72, %esi
	popq	%rbx
	.cfi_def_cfa_offset 8
	jmp	_ZdlPvm@PLT
	.cfi_endproc
.LFE1957:
	.size	_ZN8opendnp318TypedCommandHeaderINS_23ControlRelayOutputBlockEED0Ev, .-_ZN8opendnp318TypedCommandHeaderINS_23ControlRelayOutputBlockEED0Ev
	.section	.text._ZN8opendnp318TypedCommandHeaderINS_17AnalogOutputInt32EED2Ev,"axG",@progbits,_ZN8opendnp318TypedCommandHeaderINS_17AnalogOutputInt32EED5Ev,comdat
	.align 2
	.p2align 4,,15
	.weak	_ZN8opendnp318TypedCommandHeaderINS_17AnalogOutputInt32EED2Ev
	.type	_ZN8opendnp318TypedCommandHeaderINS_17AnalogOutputInt32EED2Ev, @function
_ZN8opendnp318TypedCommandHeaderINS_17AnalogOutputInt32EED2Ev:
.LFB1951:
	.cfi_startproc
	movq	_ZTVN8opendnp318TypedCommandHeaderINS_17AnalogOutputInt32EEE@GOTPCREL(%rip), %rax
	leaq	16(%rax), %rdx
	addq	$168, %rax
	movq	%rax, 8(%rdi)
	movq	%rdx, (%rdi)
	movq	48(%rdi), %rdi
	testq	%rdi, %rdi
	je	.L86
	jmp	_ZdlPv@PLT
	.p2align 4,,10
	.p2align 3
.L86:
	rep ret
	.cfi_endproc
.LFE1951:
	.size	_ZN8opendnp318TypedCommandHeaderINS_17AnalogOutputInt32EED2Ev, .-_ZN8opendnp318TypedCommandHeaderINS_17AnalogOutputInt32EED2Ev
	.weak	_ZN8opendnp318TypedCommandHeaderINS_17AnalogOutputInt32EED1Ev
	.set	_ZN8opendnp318TypedCommandHeaderINS_17AnalogOutputInt32EED1Ev,_ZN8opendnp318TypedCommandHeaderINS_17AnalogOutputInt32EED2Ev
	.section	.text._ZN8opendnp318TypedCommandHeaderINS_17AnalogOutputInt32EED0Ev,"axG",@progbits,_ZN8opendnp318TypedCommandHeaderINS_17AnalogOutputInt32EED5Ev,comdat
	.align 2
	.p2align 4,,15
	.weak	_ZN8opendnp318TypedCommandHeaderINS_17AnalogOutputInt32EED0Ev
	.type	_ZN8opendnp318TypedCommandHeaderINS_17AnalogOutputInt32EED0Ev, @function
_ZN8opendnp318TypedCommandHeaderINS_17AnalogOutputInt32EED0Ev:
.LFB1953:
	.cfi_startproc
	movq	_ZTVN8opendnp318TypedCommandHeaderINS_17AnalogOutputInt32EEE@GOTPCREL(%rip), %rax
	pushq	%rbx
	.cfi_def_cfa_offset 16
	.cfi_offset 3, -16
	movq	%rdi, %rbx
	leaq	16(%rax), %rdx
	addq	$168, %rax
	movq	%rax, 8(%rdi)
	movq	%rdx, (%rdi)
	movq	48(%rdi), %rdi
	testq	%rdi, %rdi
	je	.L89
	call	_ZdlPv@PLT
.L89:
	movq	%rbx, %rdi
	movl	$72, %esi
	popq	%rbx
	.cfi_def_cfa_offset 8
	jmp	_ZdlPvm@PLT
	.cfi_endproc
.LFE1953:
	.size	_ZN8opendnp318TypedCommandHeaderINS_17AnalogOutputInt32EED0Ev, .-_ZN8opendnp318TypedCommandHeaderINS_17AnalogOutputInt32EED0Ev
	.section	.text._ZN8opendnp318TypedCommandHeaderINS_17AnalogOutputInt16EED2Ev,"axG",@progbits,_ZN8opendnp318TypedCommandHeaderINS_17AnalogOutputInt16EED5Ev,comdat
	.align 2
	.p2align 4,,15
	.weak	_ZN8opendnp318TypedCommandHeaderINS_17AnalogOutputInt16EED2Ev
	.type	_ZN8opendnp318TypedCommandHeaderINS_17AnalogOutputInt16EED2Ev, @function
_ZN8opendnp318TypedCommandHeaderINS_17AnalogOutputInt16EED2Ev:
.LFB1947:
	.cfi_startproc
	movq	_ZTVN8opendnp318TypedCommandHeaderINS_17AnalogOutputInt16EEE@GOTPCREL(%rip), %rax
	leaq	16(%rax), %rdx
	addq	$168, %rax
	movq	%rax, 8(%rdi)
	movq	%rdx, (%rdi)
	movq	48(%rdi), %rdi
	testq	%rdi, %rdi
	je	.L94
	jmp	_ZdlPv@PLT
	.p2align 4,,10
	.p2align 3
.L94:
	rep ret
	.cfi_endproc
.LFE1947:
	.size	_ZN8opendnp318TypedCommandHeaderINS_17AnalogOutputInt16EED2Ev, .-_ZN8opendnp318TypedCommandHeaderINS_17AnalogOutputInt16EED2Ev
	.weak	_ZN8opendnp318TypedCommandHeaderINS_17AnalogOutputInt16EED1Ev
	.set	_ZN8opendnp318TypedCommandHeaderINS_17AnalogOutputInt16EED1Ev,_ZN8opendnp318TypedCommandHeaderINS_17AnalogOutputInt16EED2Ev
	.section	.text._ZN8opendnp318TypedCommandHeaderINS_17AnalogOutputInt16EED0Ev,"axG",@progbits,_ZN8opendnp318TypedCommandHeaderINS_17AnalogOutputInt16EED5Ev,comdat
	.align 2
	.p2align 4,,15
	.weak	_ZN8opendnp318TypedCommandHeaderINS_17AnalogOutputInt16EED0Ev
	.type	_ZN8opendnp318TypedCommandHeaderINS_17AnalogOutputInt16EED0Ev, @function
_ZN8opendnp318TypedCommandHeaderINS_17AnalogOutputInt16EED0Ev:
.LFB1949:
	.cfi_startproc
	movq	_ZTVN8opendnp318TypedCommandHeaderINS_17AnalogOutputInt16EEE@GOTPCREL(%rip), %rax
	pushq	%rbx
	.cfi_def_cfa_offset 16
	.cfi_offset 3, -16
	movq	%rdi, %rbx
	leaq	16(%rax), %rdx
	addq	$168, %rax
	movq	%rax, 8(%rdi)
	movq	%rdx, (%rdi)
	movq	48(%rdi), %rdi
	testq	%rdi, %rdi
	je	.L97
	call	_ZdlPv@PLT
.L97:
	movq	%rbx, %rdi
	movl	$72, %esi
	popq	%rbx
	.cfi_def_cfa_offset 8
	jmp	_ZdlPvm@PLT
	.cfi_endproc
.LFE1949:
	.size	_ZN8opendnp318TypedCommandHeaderINS_17AnalogOutputInt16EED0Ev, .-_ZN8opendnp318TypedCommandHeaderINS_17AnalogOutputInt16EED0Ev
	.section	.text._ZN8opendnp318TypedCommandHeaderINS_19AnalogOutputFloat32EED2Ev,"axG",@progbits,_ZN8opendnp318TypedCommandHeaderINS_19AnalogOutputFloat32EED5Ev,comdat
	.align 2
	.p2align 4,,15
	.weak	_ZN8opendnp318TypedCommandHeaderINS_19AnalogOutputFloat32EED2Ev
	.type	_ZN8opendnp318TypedCommandHeaderINS_19AnalogOutputFloat32EED2Ev, @function
_ZN8opendnp318TypedCommandHeaderINS_19AnalogOutputFloat32EED2Ev:
.LFB1943:
	.cfi_startproc
	movq	_ZTVN8opendnp318TypedCommandHeaderINS_19AnalogOutputFloat32EEE@GOTPCREL(%rip), %rax
	leaq	16(%rax), %rdx
	addq	$168, %rax
	movq	%rax, 8(%rdi)
	movq	%rdx, (%rdi)
	movq	48(%rdi), %rdi
	testq	%rdi, %rdi
	je	.L102
	jmp	_ZdlPv@PLT
	.p2align 4,,10
	.p2align 3
.L102:
	rep ret
	.cfi_endproc
.LFE1943:
	.size	_ZN8opendnp318TypedCommandHeaderINS_19AnalogOutputFloat32EED2Ev, .-_ZN8opendnp318TypedCommandHeaderINS_19AnalogOutputFloat32EED2Ev
	.weak	_ZN8opendnp318TypedCommandHeaderINS_19AnalogOutputFloat32EED1Ev
	.set	_ZN8opendnp318TypedCommandHeaderINS_19AnalogOutputFloat32EED1Ev,_ZN8opendnp318TypedCommandHeaderINS_19AnalogOutputFloat32EED2Ev
	.section	.text._ZN8opendnp318TypedCommandHeaderINS_19AnalogOutputFloat32EED0Ev,"axG",@progbits,_ZN8opendnp318TypedCommandHeaderINS_19AnalogOutputFloat32EED5Ev,comdat
	.align 2
	.p2align 4,,15
	.weak	_ZN8opendnp318TypedCommandHeaderINS_19AnalogOutputFloat32EED0Ev
	.type	_ZN8opendnp318TypedCommandHeaderINS_19AnalogOutputFloat32EED0Ev, @function
_ZN8opendnp318TypedCommandHeaderINS_19AnalogOutputFloat32EED0Ev:
.LFB1945:
	.cfi_startproc
	movq	_ZTVN8opendnp318TypedCommandHeaderINS_19AnalogOutputFloat32EEE@GOTPCREL(%rip), %rax
	pushq	%rbx
	.cfi_def_cfa_offset 16
	.cfi_offset 3, -16
	movq	%rdi, %rbx
	leaq	16(%rax), %rdx
	addq	$168, %rax
	movq	%rax, 8(%rdi)
	movq	%rdx, (%rdi)
	movq	48(%rdi), %rdi
	testq	%rdi, %rdi
	je	.L105
	call	_ZdlPv@PLT
.L105:
	movq	%rbx, %rdi
	movl	$72, %esi
	popq	%rbx
	.cfi_def_cfa_offset 8
	jmp	_ZdlPvm@PLT
	.cfi_endproc
.LFE1945:
	.size	_ZN8opendnp318TypedCommandHeaderINS_19AnalogOutputFloat32EED0Ev, .-_ZN8opendnp318TypedCommandHeaderINS_19AnalogOutputFloat32EED0Ev
	.section	.text._ZN8opendnp318TypedCommandHeaderINS_20AnalogOutputDouble64EED2Ev,"axG",@progbits,_ZN8opendnp318TypedCommandHeaderINS_20AnalogOutputDouble64EED5Ev,comdat
	.align 2
	.p2align 4,,15
	.weak	_ZN8opendnp318TypedCommandHeaderINS_20AnalogOutputDouble64EED2Ev
	.type	_ZN8opendnp318TypedCommandHeaderINS_20AnalogOutputDouble64EED2Ev, @function
_ZN8opendnp318TypedCommandHeaderINS_20AnalogOutputDouble64EED2Ev:
.LFB1939:
	.cfi_startproc
	movq	_ZTVN8opendnp318TypedCommandHeaderINS_20AnalogOutputDouble64EEE@GOTPCREL(%rip), %rax
	leaq	16(%rax), %rdx
	addq	$168, %rax
	movq	%rax, 8(%rdi)
	movq	%rdx, (%rdi)
	movq	48(%rdi), %rdi
	testq	%rdi, %rdi
	je	.L110
	jmp	_ZdlPv@PLT
	.p2align 4,,10
	.p2align 3
.L110:
	rep ret
	.cfi_endproc
.LFE1939:
	.size	_ZN8opendnp318TypedCommandHeaderINS_20AnalogOutputDouble64EED2Ev, .-_ZN8opendnp318TypedCommandHeaderINS_20AnalogOutputDouble64EED2Ev
	.weak	_ZN8opendnp318TypedCommandHeaderINS_20AnalogOutputDouble64EED1Ev
	.set	_ZN8opendnp318TypedCommandHeaderINS_20AnalogOutputDouble64EED1Ev,_ZN8opendnp318TypedCommandHeaderINS_20AnalogOutputDouble64EED2Ev
	.section	.text._ZN8opendnp318TypedCommandHeaderINS_20AnalogOutputDouble64EED0Ev,"axG",@progbits,_ZN8opendnp318TypedCommandHeaderINS_20AnalogOutputDouble64EED5Ev,comdat
	.align 2
	.p2align 4,,15
	.weak	_ZN8opendnp318TypedCommandHeaderINS_20AnalogOutputDouble64EED0Ev
	.type	_ZN8opendnp318TypedCommandHeaderINS_20AnalogOutputDouble64EED0Ev, @function
_ZN8opendnp318TypedCommandHeaderINS_20AnalogOutputDouble64EED0Ev:
.LFB1941:
	.cfi_startproc
	movq	_ZTVN8opendnp318TypedCommandHeaderINS_20AnalogOutputDouble64EEE@GOTPCREL(%rip), %rax
	pushq	%rbx
	.cfi_def_cfa_offset 16
	.cfi_offset 3, -16
	movq	%rdi, %rbx
	leaq	16(%rax), %rdx
	addq	$168, %rax
	movq	%rax, 8(%rdi)
	movq	%rdx, (%rdi)
	movq	48(%rdi), %rdi
	testq	%rdi, %rdi
	je	.L113
	call	_ZdlPv@PLT
.L113:
	movq	%rbx, %rdi
	movl	$72, %esi
	popq	%rbx
	.cfi_def_cfa_offset 8
	jmp	_ZdlPvm@PLT
	.cfi_endproc
.LFE1941:
	.size	_ZN8opendnp318TypedCommandHeaderINS_20AnalogOutputDouble64EED0Ev, .-_ZN8opendnp318TypedCommandHeaderINS_20AnalogOutputDouble64EED0Ev
	.section	.text._ZN8opendnp314FunctorVisitorINS_7IndexedINS_20AnalogOutputDouble64EEEZNS_18TypedCommandHeaderIS2_E19ApplySelectResponseERKNS_11ICollectionIS3_EEEUlS3_E_E7OnValueERKS3_,"axG",@progbits,_ZN8opendnp314FunctorVisitorINS_7IndexedINS_20AnalogOutputDouble64EEEZNS_18TypedCommandHeaderIS2_E19ApplySelectResponseERKNS_11ICollectionIS3_EEEUlS3_E_E7OnValueERKS3_,comdat
	.align 2
	.p2align 4,,15
	.weak	_ZN8opendnp314FunctorVisitorINS_7IndexedINS_20AnalogOutputDouble64EEEZNS_18TypedCommandHeaderIS2_E19ApplySelectResponseERKNS_11ICollectionIS3_EEEUlS3_E_E7OnValueERKS3_
	.type	_ZN8opendnp314FunctorVisitorINS_7IndexedINS_20AnalogOutputDouble64EEEZNS_18TypedCommandHeaderIS2_E19ApplySelectResponseERKNS_11ICollectionIS3_EEEUlS3_E_E7OnValueERKS3_, @function
_ZN8opendnp314FunctorVisitorINS_7IndexedINS_20AnalogOutputDouble64EEEZNS_18TypedCommandHeaderIS2_E19ApplySelectResponseERKNS_11ICollectionIS3_EEEUlS3_E_E7OnValueERKS3_:
.LFB2559:
	.cfi_startproc
	movq	16(%rdi), %rdx
	movq	8(%rdi), %r8
	movsd	(%rsi), %xmm0
	movzbl	8(%rsi), %r9d
	movzwl	16(%rsi), %esi
	movl	(%rdx), %ecx
	movq	%rcx, %rax
	leaq	(%rcx,%rcx,2), %rdi
	movq	48(%r8), %rcx
	addl	$1, %eax
	movl	%eax, (%rdx)
	leaq	(%rcx,%rdi,8), %rcx
	cmpw	2(%rcx), %si
	je	.L125
.L118:
	rep ret
	.p2align 4,,10
	.p2align 3
.L125:
	ucomisd	8(%rcx), %xmm0
	jp	.L123
	jne	.L123
	testb	%r9b, %r9b
	jne	.L126
	cmpb	$0, (%rcx)
	jne	.L118
	movb	$1, (%rcx)
	ret
	.p2align 4,,10
	.p2align 3
.L126:
	movb	$3, (%rcx)
	movb	%r9b, 1(%rcx)
	ret
	.p2align 4,,10
	.p2align 3
.L123:
	movb	$2, (%rcx)
	ret
	.cfi_endproc
.LFE2559:
	.size	_ZN8opendnp314FunctorVisitorINS_7IndexedINS_20AnalogOutputDouble64EEEZNS_18TypedCommandHeaderIS2_E19ApplySelectResponseERKNS_11ICollectionIS3_EEEUlS3_E_E7OnValueERKS3_, .-_ZN8opendnp314FunctorVisitorINS_7IndexedINS_20AnalogOutputDouble64EEEZNS_18TypedCommandHeaderIS2_E19ApplySelectResponseERKNS_11ICollectionIS3_EEEUlS3_E_E7OnValueERKS3_
	.section	.text._ZN8opendnp314FunctorVisitorINS_7IndexedINS_19AnalogOutputFloat32EEEZNS_18TypedCommandHeaderIS2_E19ApplySelectResponseERKNS_11ICollectionIS3_EEEUlS3_E_E7OnValueERKS3_,"axG",@progbits,_ZN8opendnp314FunctorVisitorINS_7IndexedINS_19AnalogOutputFloat32EEEZNS_18TypedCommandHeaderIS2_E19ApplySelectResponseERKNS_11ICollectionIS3_EEEUlS3_E_E7OnValueERKS3_,comdat
	.align 2
	.p2align 4,,15
	.weak	_ZN8opendnp314FunctorVisitorINS_7IndexedINS_19AnalogOutputFloat32EEEZNS_18TypedCommandHeaderIS2_E19ApplySelectResponseERKNS_11ICollectionIS3_EEEUlS3_E_E7OnValueERKS3_
	.type	_ZN8opendnp314FunctorVisitorINS_7IndexedINS_19AnalogOutputFloat32EEEZNS_18TypedCommandHeaderIS2_E19ApplySelectResponseERKNS_11ICollectionIS3_EEEUlS3_E_E7OnValueERKS3_, @function
_ZN8opendnp314FunctorVisitorINS_7IndexedINS_19AnalogOutputFloat32EEEZNS_18TypedCommandHeaderIS2_E19ApplySelectResponseERKNS_11ICollectionIS3_EEEUlS3_E_E7OnValueERKS3_:
.LFB2557:
	.cfi_startproc
	movq	16(%rdi), %rdx
	movq	8(%rdi), %r8
	movss	(%rsi), %xmm0
	movzbl	4(%rsi), %r9d
	movzwl	8(%rsi), %esi
	movl	(%rdx), %ecx
	movq	%rcx, %rax
	leaq	(%rcx,%rcx,2), %rdi
	movq	48(%r8), %rcx
	addl	$1, %eax
	movl	%eax, (%rdx)
	leaq	(%rcx,%rdi,4), %rcx
	cmpw	2(%rcx), %si
	je	.L134
.L127:
	rep ret
	.p2align 4,,10
	.p2align 3
.L134:
	ucomiss	4(%rcx), %xmm0
	jp	.L132
	jne	.L132
	testb	%r9b, %r9b
	jne	.L135
	cmpb	$0, (%rcx)
	jne	.L127
	movb	$1, (%rcx)
	ret
	.p2align 4,,10
	.p2align 3
.L135:
	movb	$3, (%rcx)
	movb	%r9b, 1(%rcx)
	ret
	.p2align 4,,10
	.p2align 3
.L132:
	movb	$2, (%rcx)
	ret
	.cfi_endproc
.LFE2557:
	.size	_ZN8opendnp314FunctorVisitorINS_7IndexedINS_19AnalogOutputFloat32EEEZNS_18TypedCommandHeaderIS2_E19ApplySelectResponseERKNS_11ICollectionIS3_EEEUlS3_E_E7OnValueERKS3_, .-_ZN8opendnp314FunctorVisitorINS_7IndexedINS_19AnalogOutputFloat32EEEZNS_18TypedCommandHeaderIS2_E19ApplySelectResponseERKNS_11ICollectionIS3_EEEUlS3_E_E7OnValueERKS3_
	.section	.text._ZN8opendnp314FunctorVisitorINS_7IndexedINS_17AnalogOutputInt16EEEZNS_18TypedCommandHeaderIS2_E19ApplySelectResponseERKNS_11ICollectionIS3_EEEUlS3_E_E7OnValueERKS3_,"axG",@progbits,_ZN8opendnp314FunctorVisitorINS_7IndexedINS_17AnalogOutputInt16EEEZNS_18TypedCommandHeaderIS2_E19ApplySelectResponseERKNS_11ICollectionIS3_EEEUlS3_E_E7OnValueERKS3_,comdat
	.align 2
	.p2align 4,,15
	.weak	_ZN8opendnp314FunctorVisitorINS_7IndexedINS_17AnalogOutputInt16EEEZNS_18TypedCommandHeaderIS2_E19ApplySelectResponseERKNS_11ICollectionIS3_EEEUlS3_E_E7OnValueERKS3_
	.type	_ZN8opendnp314FunctorVisitorINS_7IndexedINS_17AnalogOutputInt16EEEZNS_18TypedCommandHeaderIS2_E19ApplySelectResponseERKNS_11ICollectionIS3_EEEUlS3_E_E7OnValueERKS3_, @function
_ZN8opendnp314FunctorVisitorINS_7IndexedINS_17AnalogOutputInt16EEEZNS_18TypedCommandHeaderIS2_E19ApplySelectResponseERKNS_11ICollectionIS3_EEEUlS3_E_E7OnValueERKS3_:
.LFB2555:
	.cfi_startproc
	movq	16(%rdi), %rdx
	movq	8(%rdi), %rcx
	movzwl	(%rsi), %r8d
	movzbl	2(%rsi), %r9d
	movzwl	4(%rsi), %esi
	movl	(%rdx), %eax
	movq	48(%rcx), %rcx
	movl	%eax, %edi
	addl	$1, %eax
	leaq	(%rcx,%rdi,8), %rcx
	movl	%eax, (%rdx)
	cmpw	2(%rcx), %si
	je	.L140
.L136:
	rep ret
	.p2align 4,,10
	.p2align 3
.L140:
	cmpw	4(%rcx), %r8w
	je	.L138
	movb	$2, (%rcx)
	ret
	.p2align 4,,10
	.p2align 3
.L138:
	testb	%r9b, %r9b
	jne	.L141
	cmpb	$0, (%rcx)
	jne	.L136
	movb	$1, (%rcx)
	ret
	.p2align 4,,10
	.p2align 3
.L141:
	movb	$3, (%rcx)
	movb	%r9b, 1(%rcx)
	ret
	.cfi_endproc
.LFE2555:
	.size	_ZN8opendnp314FunctorVisitorINS_7IndexedINS_17AnalogOutputInt16EEEZNS_18TypedCommandHeaderIS2_E19ApplySelectResponseERKNS_11ICollectionIS3_EEEUlS3_E_E7OnValueERKS3_, .-_ZN8opendnp314FunctorVisitorINS_7IndexedINS_17AnalogOutputInt16EEEZNS_18TypedCommandHeaderIS2_E19ApplySelectResponseERKNS_11ICollectionIS3_EEEUlS3_E_E7OnValueERKS3_
	.section	.text._ZN8opendnp314FunctorVisitorINS_7IndexedINS_17AnalogOutputInt32EEEZNS_18TypedCommandHeaderIS2_E19ApplySelectResponseERKNS_11ICollectionIS3_EEEUlS3_E_E7OnValueERKS3_,"axG",@progbits,_ZN8opendnp314FunctorVisitorINS_7IndexedINS_17AnalogOutputInt32EEEZNS_18TypedCommandHeaderIS2_E19ApplySelectResponseERKNS_11ICollectionIS3_EEEUlS3_E_E7OnValueERKS3_,comdat
	.align 2
	.p2align 4,,15
	.weak	_ZN8opendnp314FunctorVisitorINS_7IndexedINS_17AnalogOutputInt32EEEZNS_18TypedCommandHeaderIS2_E19ApplySelectResponseERKNS_11ICollectionIS3_EEEUlS3_E_E7OnValueERKS3_
	.type	_ZN8opendnp314FunctorVisitorINS_7IndexedINS_17AnalogOutputInt32EEEZNS_18TypedCommandHeaderIS2_E19ApplySelectResponseERKNS_11ICollectionIS3_EEEUlS3_E_E7OnValueERKS3_, @function
_ZN8opendnp314FunctorVisitorINS_7IndexedINS_17AnalogOutputInt32EEEZNS_18TypedCommandHeaderIS2_E19ApplySelectResponseERKNS_11ICollectionIS3_EEEUlS3_E_E7OnValueERKS3_:
.LFB2553:
	.cfi_startproc
	movq	16(%rdi), %rdx
	movq	8(%rdi), %r8
	movl	(%rsi), %r9d
	movzbl	4(%rsi), %r10d
	movzwl	8(%rsi), %esi
	movl	(%rdx), %ecx
	movq	%rcx, %rax
	leaq	(%rcx,%rcx,2), %rdi
	movq	48(%r8), %rcx
	addl	$1, %eax
	movl	%eax, (%rdx)
	leaq	(%rcx,%rdi,4), %rcx
	cmpw	2(%rcx), %si
	je	.L146
.L142:
	rep ret
	.p2align 4,,10
	.p2align 3
.L146:
	cmpl	4(%rcx), %r9d
	je	.L144
	movb	$2, (%rcx)
	ret
	.p2align 4,,10
	.p2align 3
.L144:
	testb	%r10b, %r10b
	jne	.L147
	cmpb	$0, (%rcx)
	jne	.L142
	movb	$1, (%rcx)
	ret
	.p2align 4,,10
	.p2align 3
.L147:
	movb	$3, (%rcx)
	movb	%r10b, 1(%rcx)
	ret
	.cfi_endproc
.LFE2553:
	.size	_ZN8opendnp314FunctorVisitorINS_7IndexedINS_17AnalogOutputInt32EEEZNS_18TypedCommandHeaderIS2_E19ApplySelectResponseERKNS_11ICollectionIS3_EEEUlS3_E_E7OnValueERKS3_, .-_ZN8opendnp314FunctorVisitorINS_7IndexedINS_17AnalogOutputInt32EEEZNS_18TypedCommandHeaderIS2_E19ApplySelectResponseERKNS_11ICollectionIS3_EEEUlS3_E_E7OnValueERKS3_
	.section	.text._ZNK8opendnp318TypedCommandHeaderINS_20AnalogOutputDouble64EE5WriteERNS_12HeaderWriterE,"axG",@progbits,_ZNK8opendnp318TypedCommandHeaderINS_20AnalogOutputDouble64EE5WriteERNS_12HeaderWriterE,comdat
	.align 2
	.p2align 4,,15
	.weak	_ZNK8opendnp318TypedCommandHeaderINS_20AnalogOutputDouble64EE5WriteERNS_12HeaderWriterE
	.type	_ZNK8opendnp318TypedCommandHeaderINS_20AnalogOutputDouble64EE5WriteERNS_12HeaderWriterE, @function
_ZNK8opendnp318TypedCommandHeaderINS_20AnalogOutputDouble64EE5WriteERNS_12HeaderWriterE:
.LFB1960:
	.cfi_startproc
	.cfi_personality 0x9b,DW.ref.__gxx_personality_v0
	.cfi_lsda 0x1b,.LLSDA1960
	pushq	%r12
	.cfi_def_cfa_offset 16
	.cfi_offset 12, -16
	pushq	%rbp
	.cfi_def_cfa_offset 24
	.cfi_offset 6, -24
	pushq	%rbx
	.cfi_def_cfa_offset 32
	.cfi_offset 3, -32
	subq	$64, %rsp
	.cfi_def_cfa_offset 96
	movq	%fs:40, %rax
	movq	%rax, 56(%rsp)
	xorl	%eax, %eax
	movq	48(%rdi), %rax
	cmpq	%rax, 56(%rdi)
	je	.L175
	movl	16(%rdi), %eax
	movzbl	41(%rdi), %edx
	movq	%rsi, %rbx
	movq	%rdi, %rbp
	leal	4(%rax), %ecx
	xorl	%eax, %eax
	movb	40(%rdi), %al
	movq	%rbx, %rdi
	movb	%dl, %ah
	movl	$40, %edx
	movl	%eax, %esi
.LEHB0:
	call	_ZN8opendnp312HeaderWriter22WriteHeaderWithReserveENS_16GroupVariationIDENS_13QualifierCodeEj@PLT
	testb	%al, %al
	jne	.L176
	leaq	32(%rsp), %rdi
	xorl	%eax, %eax
	movl	$0, (%rsp)
	movw	%ax, 28(%rsp)
	movq	$0, 8(%rsp)
	movq	$0, 16(%rsp)
	movl	$0, 24(%rsp)
	movb	$0, 30(%rsp)
	call	_ZN7openpal6WSliceC1Ev@PLT
.LEHE0:
	movzbl	30(%rsp), %eax
	movq	$0, 48(%rsp)
.L152:
	movq	48(%rbp), %rbx
	movq	56(%rbp), %r12
	cmpq	%rbx, %r12
	je	.L153
	testb	%al, %al
	je	.L175
	movq	48(%rsp), %rdi
	movzwl	28(%rsp), %edx
	movl	(%rdi), %eax
	cmpl	%eax, 24(%rsp)
	jbe	.L177
	.p2align 4,,10
	.p2align 3
.L157:
	xorl	%eax, %eax
.L162:
	movq	40(%rsp), %rcx
	movb	%dl, (%rcx)
	shrw	$8, %dx
	movb	%dl, 1(%rcx)
	jmp	.L148
	.p2align 4,,10
	.p2align 3
.L176:
	movdqu	16(%rbp), %xmm0
	movq	(%rbx), %rdi
	movq	32(%rbp), %rdx
	movd	%xmm0, %eax
	movaps	%xmm0, (%rsp)
	addl	$2, %eax
	movq	%rdx, 16(%rsp)
	xorl	%edx, %edx
	movl	%eax, 24(%rsp)
	movl	(%rdi), %eax
	movdqu	(%rdi), %xmm0
	movw	%dx, 28(%rsp)
	movq	%rdi, 48(%rsp)
	cmpl	$1, %eax
	seta	30(%rsp)
	movaps	%xmm0, 32(%rsp)
	ja	.L178
.L175:
	xorl	%eax, %eax
.L148:
	movq	56(%rsp), %rcx
	xorq	%fs:40, %rcx
	jne	.L179
	addq	$64, %rsp
	.cfi_remember_state
	.cfi_def_cfa_offset 32
	popq	%rbx
	.cfi_def_cfa_offset 24
	popq	%rbp
	.cfi_def_cfa_offset 16
	popq	%r12
	.cfi_def_cfa_offset 8
	ret
	.p2align 4,,10
	.p2align 3
.L177:
	.cfi_restore_state
	movzwl	2(%rbx), %eax
	leaq	8(%rbx), %rbp
	jmp	.L156
	.p2align 4,,10
	.p2align 3
.L180:
	movzwl	2(%rbx), %eax
.L156:
	movq	8(%rdi), %rdx
	movl	$2, %esi
	movb	%al, (%rdx)
	shrw	$8, %ax
	movb	%al, 1(%rdx)
.LEHB1:
	call	_ZN7openpal6WSlice7AdvanceEj@PLT
	movq	48(%rsp), %rsi
	movq	%rbp, %rdi
	call	*16(%rsp)
.LEHE1:
	movzwl	28(%rsp), %eax
	addq	$24, %rbx
	cmpq	%rbx, %r12
	leal	1(%rax), %edx
	movzbl	30(%rsp), %eax
	movw	%dx, 28(%rsp)
	je	.L153
	testb	%al, %al
	je	.L175
	movq	48(%rsp), %rdi
	addq	$24, %rbp
	movl	24(%rsp), %eax
	cmpl	%eax, (%rdi)
	jb	.L157
	jmp	.L180
	.p2align 4,,10
	.p2align 3
.L178:
	movl	$2, %esi
.LEHB2:
	call	_ZN7openpal6WSlice7AdvanceEj@PLT
	movzbl	30(%rsp), %eax
	jmp	.L152
	.p2align 4,,10
	.p2align 3
.L153:
	testb	%al, %al
	je	.L148
	movzwl	28(%rsp), %edx
	jmp	.L162
.L179:
	call	__stack_chk_fail@PLT
.L164:
	cmpb	$0, 30(%rsp)
	je	.L161
	movzwl	28(%rsp), %edx
	movq	40(%rsp), %rcx
	movb	%dl, (%rcx)
	shrw	$8, %dx
	movb	%dl, 1(%rcx)
.L161:
	movq	%rax, %rdi
	call	_Unwind_Resume@PLT
.LEHE2:
	.cfi_endproc
.LFE1960:
	.globl	__gxx_personality_v0
	.section	.gcc_except_table._ZNK8opendnp318TypedCommandHeaderINS_20AnalogOutputDouble64EE5WriteERNS_12HeaderWriterE,"aG",@progbits,_ZNK8opendnp318TypedCommandHeaderINS_20AnalogOutputDouble64EE5WriteERNS_12HeaderWriterE,comdat
.LLSDA1960:
	.byte	0xff
	.byte	0xff
	.byte	0x1
	.uleb128 .LLSDACSE1960-.LLSDACSB1960
.LLSDACSB1960:
	.uleb128 .LEHB0-.LFB1960
	.uleb128 .LEHE0-.LEHB0
	.uleb128 0
	.uleb128 0
	.uleb128 .LEHB1-.LFB1960
	.uleb128 .LEHE1-.LEHB1
	.uleb128 .L164-.LFB1960
	.uleb128 0
	.uleb128 .LEHB2-.LFB1960
	.uleb128 .LEHE2-.LEHB2
	.uleb128 0
	.uleb128 0
.LLSDACSE1960:
	.section	.text._ZNK8opendnp318TypedCommandHeaderINS_20AnalogOutputDouble64EE5WriteERNS_12HeaderWriterE,"axG",@progbits,_ZNK8opendnp318TypedCommandHeaderINS_20AnalogOutputDouble64EE5WriteERNS_12HeaderWriterE,comdat
	.size	_ZNK8opendnp318TypedCommandHeaderINS_20AnalogOutputDouble64EE5WriteERNS_12HeaderWriterE, .-_ZNK8opendnp318TypedCommandHeaderINS_20AnalogOutputDouble64EE5WriteERNS_12HeaderWriterE
	.section	.text._ZN8opendnp318TypedCommandHeaderINS_20AnalogOutputDouble64EE19ApplySelectResponseERKNS_11ICollectionINS_7IndexedIS1_EEEE,"axG",@progbits,_ZN8opendnp318TypedCommandHeaderINS_20AnalogOutputDouble64EE19ApplySelectResponseERKNS_11ICollectionINS_7IndexedIS1_EEEE,comdat
	.align 2
	.p2align 4,,15
	.weak	_ZN8opendnp318TypedCommandHeaderINS_20AnalogOutputDouble64EE19ApplySelectResponseERKNS_11ICollectionINS_7IndexedIS1_EEEE
	.type	_ZN8opendnp318TypedCommandHeaderINS_20AnalogOutputDouble64EE19ApplySelectResponseERKNS_11ICollectionINS_7IndexedIS1_EEEE, @function
_ZN8opendnp318TypedCommandHeaderINS_20AnalogOutputDouble64EE19ApplySelectResponseERKNS_11ICollectionINS_7IndexedIS1_EEEE:
.LFB1965:
	.cfi_startproc
	pushq	%rbp
	.cfi_def_cfa_offset 16
	.cfi_offset 6, -16
	pushq	%rbx
	.cfi_def_cfa_offset 24
	.cfi_offset 3, -24
	movq	%rdi, %rbp
	movq	%rsi, %rbx
	movq	%rsi, %rdi
	subq	$56, %rsp
	.cfi_def_cfa_offset 80
	movq	%fs:40, %rax
	movq	%rax, 40(%rsp)
	xorl	%eax, %eax
	movq	(%rsi), %rax
	call	*(%rax)
	movq	56(%rbp), %rdx
	subq	48(%rbp), %rdx
	movabsq	$-6148914691236517205, %rcx
	sarq	$3, %rdx
	imulq	%rcx, %rdx
	cmpq	%rdx, %rax
	ja	.L181
	movq	_ZTVN8opendnp314FunctorVisitorINS_7IndexedINS_20AnalogOutputDouble64EEEZNS_18TypedCommandHeaderIS2_E19ApplySelectResponseERKNS_11ICollectionIS3_EEEUlS3_E_EE@GOTPCREL(%rip), %rax
	movl	$0, 12(%rsp)
	leaq	16(%rsp), %rsi
	movq	%rbp, 24(%rsp)
	movq	%rbx, %rdi
	addq	$16, %rax
	movq	%rax, 16(%rsp)
	leaq	12(%rsp), %rax
	movq	%rax, 32(%rsp)
	movq	(%rbx), %rax
	call	*8(%rax)
.L181:
	movq	40(%rsp), %rax
	xorq	%fs:40, %rax
	jne	.L185
	addq	$56, %rsp
	.cfi_remember_state
	.cfi_def_cfa_offset 24
	popq	%rbx
	.cfi_def_cfa_offset 16
	popq	%rbp
	.cfi_def_cfa_offset 8
	ret
.L185:
	.cfi_restore_state
	call	__stack_chk_fail@PLT
	.cfi_endproc
.LFE1965:
	.size	_ZN8opendnp318TypedCommandHeaderINS_20AnalogOutputDouble64EE19ApplySelectResponseERKNS_11ICollectionINS_7IndexedIS1_EEEE, .-_ZN8opendnp318TypedCommandHeaderINS_20AnalogOutputDouble64EE19ApplySelectResponseERKNS_11ICollectionINS_7IndexedIS1_EEEE
	.section	.text._ZN8opendnp318TypedCommandHeaderINS_20AnalogOutputDouble64EE20ApplyOperateResponseERKNS_11ICollectionINS_7IndexedIS1_EEEE,"axG",@progbits,_ZN8opendnp318TypedCommandHeaderINS_20AnalogOutputDouble64EE20ApplyOperateResponseERKNS_11ICollectionINS_7IndexedIS1_EEEE,comdat
	.align 2
	.p2align 4,,15
	.weak	_ZN8opendnp318TypedCommandHeaderINS_20AnalogOutputDouble64EE20ApplyOperateResponseERKNS_11ICollectionINS_7IndexedIS1_EEEE
	.type	_ZN8opendnp318TypedCommandHeaderINS_20AnalogOutputDouble64EE20ApplyOperateResponseERKNS_11ICollectionINS_7IndexedIS1_EEEE, @function
_ZN8opendnp318TypedCommandHeaderINS_20AnalogOutputDouble64EE20ApplyOperateResponseERKNS_11ICollectionINS_7IndexedIS1_EEEE:
.LFB1967:
	.cfi_startproc
	pushq	%rbp
	.cfi_def_cfa_offset 16
	.cfi_offset 6, -16
	pushq	%rbx
	.cfi_def_cfa_offset 24
	.cfi_offset 3, -24
	movq	%rdi, %rbp
	movq	%rsi, %rbx
	movq	%rsi, %rdi
	subq	$56, %rsp
	.cfi_def_cfa_offset 80
	movq	%fs:40, %rax
	movq	%rax, 40(%rsp)
	xorl	%eax, %eax
	movq	(%rsi), %rax
	call	*(%rax)
	movq	56(%rbp), %rdx
	subq	48(%rbp), %rdx
	movabsq	$-6148914691236517205, %rcx
	sarq	$3, %rdx
	imulq	%rcx, %rdx
	cmpq	%rdx, %rax
	ja	.L186
	movq	_ZTVN8opendnp314FunctorVisitorINS_7IndexedINS_20AnalogOutputDouble64EEEZNS_18TypedCommandHeaderIS2_E20ApplyOperateResponseERKNS_11ICollectionIS3_EEEUlS3_E_EE@GOTPCREL(%rip), %rax
	movl	$0, 12(%rsp)
	leaq	16(%rsp), %rsi
	movq	%rbp, 24(%rsp)
	movq	%rbx, %rdi
	addq	$16, %rax
	movq	%rax, 16(%rsp)
	leaq	12(%rsp), %rax
	movq	%rax, 32(%rsp)
	movq	(%rbx), %rax
	call	*8(%rax)
.L186:
	movq	40(%rsp), %rax
	xorq	%fs:40, %rax
	jne	.L190
	addq	$56, %rsp
	.cfi_remember_state
	.cfi_def_cfa_offset 24
	popq	%rbx
	.cfi_def_cfa_offset 16
	popq	%rbp
	.cfi_def_cfa_offset 8
	ret
.L190:
	.cfi_restore_state
	call	__stack_chk_fail@PLT
	.cfi_endproc
.LFE1967:
	.size	_ZN8opendnp318TypedCommandHeaderINS_20AnalogOutputDouble64EE20ApplyOperateResponseERKNS_11ICollectionINS_7IndexedIS1_EEEE, .-_ZN8opendnp318TypedCommandHeaderINS_20AnalogOutputDouble64EE20ApplyOperateResponseERKNS_11ICollectionINS_7IndexedIS1_EEEE
	.section	.text._ZNK8opendnp318TypedCommandHeaderINS_19AnalogOutputFloat32EE5WriteERNS_12HeaderWriterE,"axG",@progbits,_ZNK8opendnp318TypedCommandHeaderINS_19AnalogOutputFloat32EE5WriteERNS_12HeaderWriterE,comdat
	.align 2
	.p2align 4,,15
	.weak	_ZNK8opendnp318TypedCommandHeaderINS_19AnalogOutputFloat32EE5WriteERNS_12HeaderWriterE
	.type	_ZNK8opendnp318TypedCommandHeaderINS_19AnalogOutputFloat32EE5WriteERNS_12HeaderWriterE, @function
_ZNK8opendnp318TypedCommandHeaderINS_19AnalogOutputFloat32EE5WriteERNS_12HeaderWriterE:
.LFB1972:
	.cfi_startproc
	.cfi_personality 0x9b,DW.ref.__gxx_personality_v0
	.cfi_lsda 0x1b,.LLSDA1972
	pushq	%r12
	.cfi_def_cfa_offset 16
	.cfi_offset 12, -16
	pushq	%rbp
	.cfi_def_cfa_offset 24
	.cfi_offset 6, -24
	pushq	%rbx
	.cfi_def_cfa_offset 32
	.cfi_offset 3, -32
	subq	$64, %rsp
	.cfi_def_cfa_offset 96
	movq	%fs:40, %rax
	movq	%rax, 56(%rsp)
	xorl	%eax, %eax
	movq	48(%rdi), %rax
	cmpq	%rax, 56(%rdi)
	je	.L218
	movl	16(%rdi), %eax
	movzbl	41(%rdi), %edx
	movq	%rsi, %rbx
	movq	%rdi, %rbp
	leal	4(%rax), %ecx
	xorl	%eax, %eax
	movb	40(%rdi), %al
	movq	%rbx, %rdi
	movb	%dl, %ah
	movl	$40, %edx
	movl	%eax, %esi
.LEHB3:
	call	_ZN8opendnp312HeaderWriter22WriteHeaderWithReserveENS_16GroupVariationIDENS_13QualifierCodeEj@PLT
	testb	%al, %al
	jne	.L219
	leaq	32(%rsp), %rdi
	xorl	%eax, %eax
	movl	$0, (%rsp)
	movw	%ax, 28(%rsp)
	movq	$0, 8(%rsp)
	movq	$0, 16(%rsp)
	movl	$0, 24(%rsp)
	movb	$0, 30(%rsp)
	call	_ZN7openpal6WSliceC1Ev@PLT
.LEHE3:
	movzbl	30(%rsp), %eax
	movq	$0, 48(%rsp)
.L195:
	movq	48(%rbp), %rbx
	movq	56(%rbp), %r12
	cmpq	%rbx, %r12
	je	.L196
	testb	%al, %al
	je	.L218
	movq	48(%rsp), %rdi
	movzwl	28(%rsp), %edx
	movl	(%rdi), %eax
	cmpl	%eax, 24(%rsp)
	jbe	.L220
	.p2align 4,,10
	.p2align 3
.L200:
	xorl	%eax, %eax
.L205:
	movq	40(%rsp), %rcx
	movb	%dl, (%rcx)
	shrw	$8, %dx
	movb	%dl, 1(%rcx)
	jmp	.L191
	.p2align 4,,10
	.p2align 3
.L219:
	movdqu	16(%rbp), %xmm0
	movq	(%rbx), %rdi
	movq	32(%rbp), %rdx
	movd	%xmm0, %eax
	movaps	%xmm0, (%rsp)
	addl	$2, %eax
	movq	%rdx, 16(%rsp)
	xorl	%edx, %edx
	movl	%eax, 24(%rsp)
	movl	(%rdi), %eax
	movdqu	(%rdi), %xmm0
	movw	%dx, 28(%rsp)
	movq	%rdi, 48(%rsp)
	cmpl	$1, %eax
	seta	30(%rsp)
	movaps	%xmm0, 32(%rsp)
	ja	.L221
.L218:
	xorl	%eax, %eax
.L191:
	movq	56(%rsp), %rcx
	xorq	%fs:40, %rcx
	jne	.L222
	addq	$64, %rsp
	.cfi_remember_state
	.cfi_def_cfa_offset 32
	popq	%rbx
	.cfi_def_cfa_offset 24
	popq	%rbp
	.cfi_def_cfa_offset 16
	popq	%r12
	.cfi_def_cfa_offset 8
	ret
	.p2align 4,,10
	.p2align 3
.L220:
	.cfi_restore_state
	movzwl	2(%rbx), %eax
	leaq	4(%rbx), %rbp
	jmp	.L199
	.p2align 4,,10
	.p2align 3
.L223:
	movzwl	2(%rbx), %eax
.L199:
	movq	8(%rdi), %rdx
	movl	$2, %esi
	movb	%al, (%rdx)
	shrw	$8, %ax
	movb	%al, 1(%rdx)
.LEHB4:
	call	_ZN7openpal6WSlice7AdvanceEj@PLT
	movq	48(%rsp), %rsi
	movq	%rbp, %rdi
	call	*16(%rsp)
.LEHE4:
	movzwl	28(%rsp), %eax
	addq	$12, %rbx
	cmpq	%rbx, %r12
	leal	1(%rax), %edx
	movzbl	30(%rsp), %eax
	movw	%dx, 28(%rsp)
	je	.L196
	testb	%al, %al
	je	.L218
	movq	48(%rsp), %rdi
	addq	$12, %rbp
	movl	24(%rsp), %eax
	cmpl	%eax, (%rdi)
	jb	.L200
	jmp	.L223
	.p2align 4,,10
	.p2align 3
.L221:
	movl	$2, %esi
.LEHB5:
	call	_ZN7openpal6WSlice7AdvanceEj@PLT
	movzbl	30(%rsp), %eax
	jmp	.L195
	.p2align 4,,10
	.p2align 3
.L196:
	testb	%al, %al
	je	.L191
	movzwl	28(%rsp), %edx
	jmp	.L205
.L222:
	call	__stack_chk_fail@PLT
.L207:
	cmpb	$0, 30(%rsp)
	je	.L204
	movzwl	28(%rsp), %edx
	movq	40(%rsp), %rcx
	movb	%dl, (%rcx)
	shrw	$8, %dx
	movb	%dl, 1(%rcx)
.L204:
	movq	%rax, %rdi
	call	_Unwind_Resume@PLT
.LEHE5:
	.cfi_endproc
.LFE1972:
	.section	.gcc_except_table._ZNK8opendnp318TypedCommandHeaderINS_19AnalogOutputFloat32EE5WriteERNS_12HeaderWriterE,"aG",@progbits,_ZNK8opendnp318TypedCommandHeaderINS_19AnalogOutputFloat32EE5WriteERNS_12HeaderWriterE,comdat
.LLSDA1972:
	.byte	0xff
	.byte	0xff
	.byte	0x1
	.uleb128 .LLSDACSE1972-.LLSDACSB1972
.LLSDACSB1972:
	.uleb128 .LEHB3-.LFB1972
	.uleb128 .LEHE3-.LEHB3
	.uleb128 0
	.uleb128 0
	.uleb128 .LEHB4-.LFB1972
	.uleb128 .LEHE4-.LEHB4
	.uleb128 .L207-.LFB1972
	.uleb128 0
	.uleb128 .LEHB5-.LFB1972
	.uleb128 .LEHE5-.LEHB5
	.uleb128 0
	.uleb128 0
.LLSDACSE1972:
	.section	.text._ZNK8opendnp318TypedCommandHeaderINS_19AnalogOutputFloat32EE5WriteERNS_12HeaderWriterE,"axG",@progbits,_ZNK8opendnp318TypedCommandHeaderINS_19AnalogOutputFloat32EE5WriteERNS_12HeaderWriterE,comdat
	.size	_ZNK8opendnp318TypedCommandHeaderINS_19AnalogOutputFloat32EE5WriteERNS_12HeaderWriterE, .-_ZNK8opendnp318TypedCommandHeaderINS_19AnalogOutputFloat32EE5WriteERNS_12HeaderWriterE
	.section	.text._ZN8opendnp318TypedCommandHeaderINS_19AnalogOutputFloat32EE19ApplySelectResponseERKNS_11ICollectionINS_7IndexedIS1_EEEE,"axG",@progbits,_ZN8opendnp318TypedCommandHeaderINS_19AnalogOutputFloat32EE19ApplySelectResponseERKNS_11ICollectionINS_7IndexedIS1_EEEE,comdat
	.align 2
	.p2align 4,,15
	.weak	_ZN8opendnp318TypedCommandHeaderINS_19AnalogOutputFloat32EE19ApplySelectResponseERKNS_11ICollectionINS_7IndexedIS1_EEEE
	.type	_ZN8opendnp318TypedCommandHeaderINS_19AnalogOutputFloat32EE19ApplySelectResponseERKNS_11ICollectionINS_7IndexedIS1_EEEE, @function
_ZN8opendnp318TypedCommandHeaderINS_19AnalogOutputFloat32EE19ApplySelectResponseERKNS_11ICollectionINS_7IndexedIS1_EEEE:
.LFB1977:
	.cfi_startproc
	pushq	%rbp
	.cfi_def_cfa_offset 16
	.cfi_offset 6, -16
	pushq	%rbx
	.cfi_def_cfa_offset 24
	.cfi_offset 3, -24
	movq	%rdi, %rbp
	movq	%rsi, %rbx
	movq	%rsi, %rdi
	subq	$56, %rsp
	.cfi_def_cfa_offset 80
	movq	%fs:40, %rax
	movq	%rax, 40(%rsp)
	xorl	%eax, %eax
	movq	(%rsi), %rax
	call	*(%rax)
	movq	56(%rbp), %rdx
	subq	48(%rbp), %rdx
	movabsq	$-6148914691236517205, %rcx
	sarq	$2, %rdx
	imulq	%rcx, %rdx
	cmpq	%rdx, %rax
	ja	.L224
	movq	_ZTVN8opendnp314FunctorVisitorINS_7IndexedINS_19AnalogOutputFloat32EEEZNS_18TypedCommandHeaderIS2_E19ApplySelectResponseERKNS_11ICollectionIS3_EEEUlS3_E_EE@GOTPCREL(%rip), %rax
	movl	$0, 12(%rsp)
	leaq	16(%rsp), %rsi
	movq	%rbp, 24(%rsp)
	movq	%rbx, %rdi
	addq	$16, %rax
	movq	%rax, 16(%rsp)
	leaq	12(%rsp), %rax
	movq	%rax, 32(%rsp)
	movq	(%rbx), %rax
	call	*8(%rax)
.L224:
	movq	40(%rsp), %rax
	xorq	%fs:40, %rax
	jne	.L228
	addq	$56, %rsp
	.cfi_remember_state
	.cfi_def_cfa_offset 24
	popq	%rbx
	.cfi_def_cfa_offset 16
	popq	%rbp
	.cfi_def_cfa_offset 8
	ret
.L228:
	.cfi_restore_state
	call	__stack_chk_fail@PLT
	.cfi_endproc
.LFE1977:
	.size	_ZN8opendnp318TypedCommandHeaderINS_19AnalogOutputFloat32EE19ApplySelectResponseERKNS_11ICollectionINS_7IndexedIS1_EEEE, .-_ZN8opendnp318TypedCommandHeaderINS_19AnalogOutputFloat32EE19ApplySelectResponseERKNS_11ICollectionINS_7IndexedIS1_EEEE
	.section	.text._ZN8opendnp318TypedCommandHeaderINS_19AnalogOutputFloat32EE20ApplyOperateResponseERKNS_11ICollectionINS_7IndexedIS1_EEEE,"axG",@progbits,_ZN8opendnp318TypedCommandHeaderINS_19AnalogOutputFloat32EE20ApplyOperateResponseERKNS_11ICollectionINS_7IndexedIS1_EEEE,comdat
	.align 2
	.p2align 4,,15
	.weak	_ZN8opendnp318TypedCommandHeaderINS_19AnalogOutputFloat32EE20ApplyOperateResponseERKNS_11ICollectionINS_7IndexedIS1_EEEE
	.type	_ZN8opendnp318TypedCommandHeaderINS_19AnalogOutputFloat32EE20ApplyOperateResponseERKNS_11ICollectionINS_7IndexedIS1_EEEE, @function
_ZN8opendnp318TypedCommandHeaderINS_19AnalogOutputFloat32EE20ApplyOperateResponseERKNS_11ICollectionINS_7IndexedIS1_EEEE:
.LFB1979:
	.cfi_startproc
	pushq	%rbp
	.cfi_def_cfa_offset 16
	.cfi_offset 6, -16
	pushq	%rbx
	.cfi_def_cfa_offset 24
	.cfi_offset 3, -24
	movq	%rdi, %rbp
	movq	%rsi, %rbx
	movq	%rsi, %rdi
	subq	$56, %rsp
	.cfi_def_cfa_offset 80
	movq	%fs:40, %rax
	movq	%rax, 40(%rsp)
	xorl	%eax, %eax
	movq	(%rsi), %rax
	call	*(%rax)
	movq	56(%rbp), %rdx
	subq	48(%rbp), %rdx
	movabsq	$-6148914691236517205, %rcx
	sarq	$2, %rdx
	imulq	%rcx, %rdx
	cmpq	%rdx, %rax
	ja	.L229
	movq	_ZTVN8opendnp314FunctorVisitorINS_7IndexedINS_19AnalogOutputFloat32EEEZNS_18TypedCommandHeaderIS2_E20ApplyOperateResponseERKNS_11ICollectionIS3_EEEUlS3_E_EE@GOTPCREL(%rip), %rax
	movl	$0, 12(%rsp)
	leaq	16(%rsp), %rsi
	movq	%rbp, 24(%rsp)
	movq	%rbx, %rdi
	addq	$16, %rax
	movq	%rax, 16(%rsp)
	leaq	12(%rsp), %rax
	movq	%rax, 32(%rsp)
	movq	(%rbx), %rax
	call	*8(%rax)
.L229:
	movq	40(%rsp), %rax
	xorq	%fs:40, %rax
	jne	.L233
	addq	$56, %rsp
	.cfi_remember_state
	.cfi_def_cfa_offset 24
	popq	%rbx
	.cfi_def_cfa_offset 16
	popq	%rbp
	.cfi_def_cfa_offset 8
	ret
.L233:
	.cfi_restore_state
	call	__stack_chk_fail@PLT
	.cfi_endproc
.LFE1979:
	.size	_ZN8opendnp318TypedCommandHeaderINS_19AnalogOutputFloat32EE20ApplyOperateResponseERKNS_11ICollectionINS_7IndexedIS1_EEEE, .-_ZN8opendnp318TypedCommandHeaderINS_19AnalogOutputFloat32EE20ApplyOperateResponseERKNS_11ICollectionINS_7IndexedIS1_EEEE
	.section	.text._ZNK8opendnp318TypedCommandHeaderINS_17AnalogOutputInt16EE5WriteERNS_12HeaderWriterE,"axG",@progbits,_ZNK8opendnp318TypedCommandHeaderINS_17AnalogOutputInt16EE5WriteERNS_12HeaderWriterE,comdat
	.align 2
	.p2align 4,,15
	.weak	_ZNK8opendnp318TypedCommandHeaderINS_17AnalogOutputInt16EE5WriteERNS_12HeaderWriterE
	.type	_ZNK8opendnp318TypedCommandHeaderINS_17AnalogOutputInt16EE5WriteERNS_12HeaderWriterE, @function
_ZNK8opendnp318TypedCommandHeaderINS_17AnalogOutputInt16EE5WriteERNS_12HeaderWriterE:
.LFB1984:
	.cfi_startproc
	.cfi_personality 0x9b,DW.ref.__gxx_personality_v0
	.cfi_lsda 0x1b,.LLSDA1984
	pushq	%r12
	.cfi_def_cfa_offset 16
	.cfi_offset 12, -16
	pushq	%rbp
	.cfi_def_cfa_offset 24
	.cfi_offset 6, -24
	pushq	%rbx
	.cfi_def_cfa_offset 32
	.cfi_offset 3, -32
	subq	$64, %rsp
	.cfi_def_cfa_offset 96
	movq	%fs:40, %rax
	movq	%rax, 56(%rsp)
	xorl	%eax, %eax
	movq	48(%rdi), %rax
	cmpq	%rax, 56(%rdi)
	je	.L261
	movl	16(%rdi), %eax
	movzbl	41(%rdi), %edx
	movq	%rsi, %rbx
	movq	%rdi, %rbp
	leal	4(%rax), %ecx
	xorl	%eax, %eax
	movb	40(%rdi), %al
	movq	%rbx, %rdi
	movb	%dl, %ah
	movl	$40, %edx
	movl	%eax, %esi
.LEHB6:
	call	_ZN8opendnp312HeaderWriter22WriteHeaderWithReserveENS_16GroupVariationIDENS_13QualifierCodeEj@PLT
	testb	%al, %al
	jne	.L262
	leaq	32(%rsp), %rdi
	xorl	%eax, %eax
	movl	$0, (%rsp)
	movw	%ax, 28(%rsp)
	movq	$0, 8(%rsp)
	movq	$0, 16(%rsp)
	movl	$0, 24(%rsp)
	movb	$0, 30(%rsp)
	call	_ZN7openpal6WSliceC1Ev@PLT
.LEHE6:
	movzbl	30(%rsp), %eax
	movq	$0, 48(%rsp)
.L238:
	movq	48(%rbp), %rbx
	movq	56(%rbp), %r12
	cmpq	%rbx, %r12
	je	.L239
	testb	%al, %al
	je	.L261
	movq	48(%rsp), %rdi
	movzwl	28(%rsp), %edx
	movl	(%rdi), %eax
	cmpl	%eax, 24(%rsp)
	jbe	.L263
	.p2align 4,,10
	.p2align 3
.L243:
	xorl	%eax, %eax
.L248:
	movq	40(%rsp), %rcx
	movb	%dl, (%rcx)
	shrw	$8, %dx
	movb	%dl, 1(%rcx)
	jmp	.L234
	.p2align 4,,10
	.p2align 3
.L262:
	movdqu	16(%rbp), %xmm0
	movq	(%rbx), %rdi
	movq	32(%rbp), %rdx
	movd	%xmm0, %eax
	movaps	%xmm0, (%rsp)
	addl	$2, %eax
	movq	%rdx, 16(%rsp)
	xorl	%edx, %edx
	movl	%eax, 24(%rsp)
	movl	(%rdi), %eax
	movdqu	(%rdi), %xmm0
	movw	%dx, 28(%rsp)
	movq	%rdi, 48(%rsp)
	cmpl	$1, %eax
	seta	30(%rsp)
	movaps	%xmm0, 32(%rsp)
	ja	.L264
.L261:
	xorl	%eax, %eax
.L234:
	movq	56(%rsp), %rcx
	xorq	%fs:40, %rcx
	jne	.L265
	addq	$64, %rsp
	.cfi_remember_state
	.cfi_def_cfa_offset 32
	popq	%rbx
	.cfi_def_cfa_offset 24
	popq	%rbp
	.cfi_def_cfa_offset 16
	popq	%r12
	.cfi_def_cfa_offset 8
	ret
	.p2align 4,,10
	.p2align 3
.L263:
	.cfi_restore_state
	movzwl	2(%rbx), %eax
	leaq	4(%rbx), %rbp
	jmp	.L242
	.p2align 4,,10
	.p2align 3
.L266:
	movzwl	2(%rbx), %eax
.L242:
	movq	8(%rdi), %rdx
	movl	$2, %esi
	movb	%al, (%rdx)
	shrw	$8, %ax
	movb	%al, 1(%rdx)
.LEHB7:
	call	_ZN7openpal6WSlice7AdvanceEj@PLT
	movq	48(%rsp), %rsi
	movq	%rbp, %rdi
	call	*16(%rsp)
.LEHE7:
	movzwl	28(%rsp), %eax
	addq	$8, %rbx
	cmpq	%rbx, %r12
	leal	1(%rax), %edx
	movzbl	30(%rsp), %eax
	movw	%dx, 28(%rsp)
	je	.L239
	testb	%al, %al
	je	.L261
	movq	48(%rsp), %rdi
	addq	$8, %rbp
	movl	24(%rsp), %eax
	cmpl	%eax, (%rdi)
	jb	.L243
	jmp	.L266
	.p2align 4,,10
	.p2align 3
.L264:
	movl	$2, %esi
.LEHB8:
	call	_ZN7openpal6WSlice7AdvanceEj@PLT
	movzbl	30(%rsp), %eax
	jmp	.L238
	.p2align 4,,10
	.p2align 3
.L239:
	testb	%al, %al
	je	.L234
	movzwl	28(%rsp), %edx
	jmp	.L248
.L265:
	call	__stack_chk_fail@PLT
.L250:
	cmpb	$0, 30(%rsp)
	je	.L247
	movzwl	28(%rsp), %edx
	movq	40(%rsp), %rcx
	movb	%dl, (%rcx)
	shrw	$8, %dx
	movb	%dl, 1(%rcx)
.L247:
	movq	%rax, %rdi
	call	_Unwind_Resume@PLT
.LEHE8:
	.cfi_endproc
.LFE1984:
	.section	.gcc_except_table._ZNK8opendnp318TypedCommandHeaderINS_17AnalogOutputInt16EE5WriteERNS_12HeaderWriterE,"aG",@progbits,_ZNK8opendnp318TypedCommandHeaderINS_17AnalogOutputInt16EE5WriteERNS_12HeaderWriterE,comdat
.LLSDA1984:
	.byte	0xff
	.byte	0xff
	.byte	0x1
	.uleb128 .LLSDACSE1984-.LLSDACSB1984
.LLSDACSB1984:
	.uleb128 .LEHB6-.LFB1984
	.uleb128 .LEHE6-.LEHB6
	.uleb128 0
	.uleb128 0
	.uleb128 .LEHB7-.LFB1984
	.uleb128 .LEHE7-.LEHB7
	.uleb128 .L250-.LFB1984
	.uleb128 0
	.uleb128 .LEHB8-.LFB1984
	.uleb128 .LEHE8-.LEHB8
	.uleb128 0
	.uleb128 0
.LLSDACSE1984:
	.section	.text._ZNK8opendnp318TypedCommandHeaderINS_17AnalogOutputInt16EE5WriteERNS_12HeaderWriterE,"axG",@progbits,_ZNK8opendnp318TypedCommandHeaderINS_17AnalogOutputInt16EE5WriteERNS_12HeaderWriterE,comdat
	.size	_ZNK8opendnp318TypedCommandHeaderINS_17AnalogOutputInt16EE5WriteERNS_12HeaderWriterE, .-_ZNK8opendnp318TypedCommandHeaderINS_17AnalogOutputInt16EE5WriteERNS_12HeaderWriterE
	.section	.text._ZN8opendnp318TypedCommandHeaderINS_17AnalogOutputInt16EE19ApplySelectResponseERKNS_11ICollectionINS_7IndexedIS1_EEEE,"axG",@progbits,_ZN8opendnp318TypedCommandHeaderINS_17AnalogOutputInt16EE19ApplySelectResponseERKNS_11ICollectionINS_7IndexedIS1_EEEE,comdat
	.align 2
	.p2align 4,,15
	.weak	_ZN8opendnp318TypedCommandHeaderINS_17AnalogOutputInt16EE19ApplySelectResponseERKNS_11ICollectionINS_7IndexedIS1_EEEE
	.type	_ZN8opendnp318TypedCommandHeaderINS_17AnalogOutputInt16EE19ApplySelectResponseERKNS_11ICollectionINS_7IndexedIS1_EEEE, @function
_ZN8opendnp318TypedCommandHeaderINS_17AnalogOutputInt16EE19ApplySelectResponseERKNS_11ICollectionINS_7IndexedIS1_EEEE:
.LFB1989:
	.cfi_startproc
	pushq	%rbp
	.cfi_def_cfa_offset 16
	.cfi_offset 6, -16
	pushq	%rbx
	.cfi_def_cfa_offset 24
	.cfi_offset 3, -24
	movq	%rdi, %rbp
	movq	%rsi, %rbx
	movq	%rsi, %rdi
	subq	$56, %rsp
	.cfi_def_cfa_offset 80
	movq	%fs:40, %rax
	movq	%rax, 40(%rsp)
	xorl	%eax, %eax
	movq	(%rsi), %rax
	call	*(%rax)
	movq	56(%rbp), %rdx
	subq	48(%rbp), %rdx
	sarq	$3, %rdx
	cmpq	%rdx, %rax
	ja	.L267
	movq	_ZTVN8opendnp314FunctorVisitorINS_7IndexedINS_17AnalogOutputInt16EEEZNS_18TypedCommandHeaderIS2_E19ApplySelectResponseERKNS_11ICollectionIS3_EEEUlS3_E_EE@GOTPCREL(%rip), %rax
	movl	$0, 12(%rsp)
	leaq	16(%rsp), %rsi
	movq	%rbp, 24(%rsp)
	movq	%rbx, %rdi
	addq	$16, %rax
	movq	%rax, 16(%rsp)
	leaq	12(%rsp), %rax
	movq	%rax, 32(%rsp)
	movq	(%rbx), %rax
	call	*8(%rax)
.L267:
	movq	40(%rsp), %rax
	xorq	%fs:40, %rax
	jne	.L271
	addq	$56, %rsp
	.cfi_remember_state
	.cfi_def_cfa_offset 24
	popq	%rbx
	.cfi_def_cfa_offset 16
	popq	%rbp
	.cfi_def_cfa_offset 8
	ret
.L271:
	.cfi_restore_state
	call	__stack_chk_fail@PLT
	.cfi_endproc
.LFE1989:
	.size	_ZN8opendnp318TypedCommandHeaderINS_17AnalogOutputInt16EE19ApplySelectResponseERKNS_11ICollectionINS_7IndexedIS1_EEEE, .-_ZN8opendnp318TypedCommandHeaderINS_17AnalogOutputInt16EE19ApplySelectResponseERKNS_11ICollectionINS_7IndexedIS1_EEEE
	.section	.text._ZN8opendnp318TypedCommandHeaderINS_17AnalogOutputInt16EE20ApplyOperateResponseERKNS_11ICollectionINS_7IndexedIS1_EEEE,"axG",@progbits,_ZN8opendnp318TypedCommandHeaderINS_17AnalogOutputInt16EE20ApplyOperateResponseERKNS_11ICollectionINS_7IndexedIS1_EEEE,comdat
	.align 2
	.p2align 4,,15
	.weak	_ZN8opendnp318TypedCommandHeaderINS_17AnalogOutputInt16EE20ApplyOperateResponseERKNS_11ICollectionINS_7IndexedIS1_EEEE
	.type	_ZN8opendnp318TypedCommandHeaderINS_17AnalogOutputInt16EE20ApplyOperateResponseERKNS_11ICollectionINS_7IndexedIS1_EEEE, @function
_ZN8opendnp318TypedCommandHeaderINS_17AnalogOutputInt16EE20ApplyOperateResponseERKNS_11ICollectionINS_7IndexedIS1_EEEE:
.LFB1991:
	.cfi_startproc
	pushq	%rbp
	.cfi_def_cfa_offset 16
	.cfi_offset 6, -16
	pushq	%rbx
	.cfi_def_cfa_offset 24
	.cfi_offset 3, -24
	movq	%rdi, %rbp
	movq	%rsi, %rbx
	movq	%rsi, %rdi
	subq	$56, %rsp
	.cfi_def_cfa_offset 80
	movq	%fs:40, %rax
	movq	%rax, 40(%rsp)
	xorl	%eax, %eax
	movq	(%rsi), %rax
	call	*(%rax)
	movq	56(%rbp), %rdx
	subq	48(%rbp), %rdx
	sarq	$3, %rdx
	cmpq	%rdx, %rax
	ja	.L272
	movq	_ZTVN8opendnp314FunctorVisitorINS_7IndexedINS_17AnalogOutputInt16EEEZNS_18TypedCommandHeaderIS2_E20ApplyOperateResponseERKNS_11ICollectionIS3_EEEUlS3_E_EE@GOTPCREL(%rip), %rax
	movl	$0, 12(%rsp)
	leaq	16(%rsp), %rsi
	movq	%rbp, 24(%rsp)
	movq	%rbx, %rdi
	addq	$16, %rax
	movq	%rax, 16(%rsp)
	leaq	12(%rsp), %rax
	movq	%rax, 32(%rsp)
	movq	(%rbx), %rax
	call	*8(%rax)
.L272:
	movq	40(%rsp), %rax
	xorq	%fs:40, %rax
	jne	.L276
	addq	$56, %rsp
	.cfi_remember_state
	.cfi_def_cfa_offset 24
	popq	%rbx
	.cfi_def_cfa_offset 16
	popq	%rbp
	.cfi_def_cfa_offset 8
	ret
.L276:
	.cfi_restore_state
	call	__stack_chk_fail@PLT
	.cfi_endproc
.LFE1991:
	.size	_ZN8opendnp318TypedCommandHeaderINS_17AnalogOutputInt16EE20ApplyOperateResponseERKNS_11ICollectionINS_7IndexedIS1_EEEE, .-_ZN8opendnp318TypedCommandHeaderINS_17AnalogOutputInt16EE20ApplyOperateResponseERKNS_11ICollectionINS_7IndexedIS1_EEEE
	.section	.text._ZNK8opendnp318TypedCommandHeaderINS_17AnalogOutputInt32EE5WriteERNS_12HeaderWriterE,"axG",@progbits,_ZNK8opendnp318TypedCommandHeaderINS_17AnalogOutputInt32EE5WriteERNS_12HeaderWriterE,comdat
	.align 2
	.p2align 4,,15
	.weak	_ZNK8opendnp318TypedCommandHeaderINS_17AnalogOutputInt32EE5WriteERNS_12HeaderWriterE
	.type	_ZNK8opendnp318TypedCommandHeaderINS_17AnalogOutputInt32EE5WriteERNS_12HeaderWriterE, @function
_ZNK8opendnp318TypedCommandHeaderINS_17AnalogOutputInt32EE5WriteERNS_12HeaderWriterE:
.LFB1996:
	.cfi_startproc
	.cfi_personality 0x9b,DW.ref.__gxx_personality_v0
	.cfi_lsda 0x1b,.LLSDA1996
	pushq	%r12
	.cfi_def_cfa_offset 16
	.cfi_offset 12, -16
	pushq	%rbp
	.cfi_def_cfa_offset 24
	.cfi_offset 6, -24
	pushq	%rbx
	.cfi_def_cfa_offset 32
	.cfi_offset 3, -32
	subq	$64, %rsp
	.cfi_def_cfa_offset 96
	movq	%fs:40, %rax
	movq	%rax, 56(%rsp)
	xorl	%eax, %eax
	movq	48(%rdi), %rax
	cmpq	%rax, 56(%rdi)
	je	.L304
	movl	16(%rdi), %eax
	movzbl	41(%rdi), %edx
	movq	%rsi, %rbx
	movq	%rdi, %rbp
	leal	4(%rax), %ecx
	xorl	%eax, %eax
	movb	40(%rdi), %al
	movq	%rbx, %rdi
	movb	%dl, %ah
	movl	$40, %edx
	movl	%eax, %esi
.LEHB9:
	call	_ZN8opendnp312HeaderWriter22WriteHeaderWithReserveENS_16GroupVariationIDENS_13QualifierCodeEj@PLT
	testb	%al, %al
	jne	.L305
	leaq	32(%rsp), %rdi
	xorl	%eax, %eax
	movl	$0, (%rsp)
	movw	%ax, 28(%rsp)
	movq	$0, 8(%rsp)
	movq	$0, 16(%rsp)
	movl	$0, 24(%rsp)
	movb	$0, 30(%rsp)
	call	_ZN7openpal6WSliceC1Ev@PLT
.LEHE9:
	movzbl	30(%rsp), %eax
	movq	$0, 48(%rsp)
.L281:
	movq	48(%rbp), %rbx
	movq	56(%rbp), %r12
	cmpq	%rbx, %r12
	je	.L282
	testb	%al, %al
	je	.L304
	movq	48(%rsp), %rdi
	movzwl	28(%rsp), %edx
	movl	(%rdi), %eax
	cmpl	%eax, 24(%rsp)
	jbe	.L306
	.p2align 4,,10
	.p2align 3
.L286:
	xorl	%eax, %eax
.L291:
	movq	40(%rsp), %rcx
	movb	%dl, (%rcx)
	shrw	$8, %dx
	movb	%dl, 1(%rcx)
	jmp	.L277
	.p2align 4,,10
	.p2align 3
.L305:
	movdqu	16(%rbp), %xmm0
	movq	(%rbx), %rdi
	movq	32(%rbp), %rdx
	movd	%xmm0, %eax
	movaps	%xmm0, (%rsp)
	addl	$2, %eax
	movq	%rdx, 16(%rsp)
	xorl	%edx, %edx
	movl	%eax, 24(%rsp)
	movl	(%rdi), %eax
	movdqu	(%rdi), %xmm0
	movw	%dx, 28(%rsp)
	movq	%rdi, 48(%rsp)
	cmpl	$1, %eax
	seta	30(%rsp)
	movaps	%xmm0, 32(%rsp)
	ja	.L307
.L304:
	xorl	%eax, %eax
.L277:
	movq	56(%rsp), %rcx
	xorq	%fs:40, %rcx
	jne	.L308
	addq	$64, %rsp
	.cfi_remember_state
	.cfi_def_cfa_offset 32
	popq	%rbx
	.cfi_def_cfa_offset 24
	popq	%rbp
	.cfi_def_cfa_offset 16
	popq	%r12
	.cfi_def_cfa_offset 8
	ret
	.p2align 4,,10
	.p2align 3
.L306:
	.cfi_restore_state
	movzwl	2(%rbx), %eax
	leaq	4(%rbx), %rbp
	jmp	.L285
	.p2align 4,,10
	.p2align 3
.L309:
	movzwl	2(%rbx), %eax
.L285:
	movq	8(%rdi), %rdx
	movl	$2, %esi
	movb	%al, (%rdx)
	shrw	$8, %ax
	movb	%al, 1(%rdx)
.LEHB10:
	call	_ZN7openpal6WSlice7AdvanceEj@PLT
	movq	48(%rsp), %rsi
	movq	%rbp, %rdi
	call	*16(%rsp)
.LEHE10:
	movzwl	28(%rsp), %eax
	addq	$12, %rbx
	cmpq	%rbx, %r12
	leal	1(%rax), %edx
	movzbl	30(%rsp), %eax
	movw	%dx, 28(%rsp)
	je	.L282
	testb	%al, %al
	je	.L304
	movq	48(%rsp), %rdi
	addq	$12, %rbp
	movl	24(%rsp), %eax
	cmpl	%eax, (%rdi)
	jb	.L286
	jmp	.L309
	.p2align 4,,10
	.p2align 3
.L307:
	movl	$2, %esi
.LEHB11:
	call	_ZN7openpal6WSlice7AdvanceEj@PLT
	movzbl	30(%rsp), %eax
	jmp	.L281
	.p2align 4,,10
	.p2align 3
.L282:
	testb	%al, %al
	je	.L277
	movzwl	28(%rsp), %edx
	jmp	.L291
.L308:
	call	__stack_chk_fail@PLT
.L293:
	cmpb	$0, 30(%rsp)
	je	.L290
	movzwl	28(%rsp), %edx
	movq	40(%rsp), %rcx
	movb	%dl, (%rcx)
	shrw	$8, %dx
	movb	%dl, 1(%rcx)
.L290:
	movq	%rax, %rdi
	call	_Unwind_Resume@PLT
.LEHE11:
	.cfi_endproc
.LFE1996:
	.section	.gcc_except_table._ZNK8opendnp318TypedCommandHeaderINS_17AnalogOutputInt32EE5WriteERNS_12HeaderWriterE,"aG",@progbits,_ZNK8opendnp318TypedCommandHeaderINS_17AnalogOutputInt32EE5WriteERNS_12HeaderWriterE,comdat
.LLSDA1996:
	.byte	0xff
	.byte	0xff
	.byte	0x1
	.uleb128 .LLSDACSE1996-.LLSDACSB1996
.LLSDACSB1996:
	.uleb128 .LEHB9-.LFB1996
	.uleb128 .LEHE9-.LEHB9
	.uleb128 0
	.uleb128 0
	.uleb128 .LEHB10-.LFB1996
	.uleb128 .LEHE10-.LEHB10
	.uleb128 .L293-.LFB1996
	.uleb128 0
	.uleb128 .LEHB11-.LFB1996
	.uleb128 .LEHE11-.LEHB11
	.uleb128 0
	.uleb128 0
.LLSDACSE1996:
	.section	.text._ZNK8opendnp318TypedCommandHeaderINS_17AnalogOutputInt32EE5WriteERNS_12HeaderWriterE,"axG",@progbits,_ZNK8opendnp318TypedCommandHeaderINS_17AnalogOutputInt32EE5WriteERNS_12HeaderWriterE,comdat
	.size	_ZNK8opendnp318TypedCommandHeaderINS_17AnalogOutputInt32EE5WriteERNS_12HeaderWriterE, .-_ZNK8opendnp318TypedCommandHeaderINS_17AnalogOutputInt32EE5WriteERNS_12HeaderWriterE
	.section	.text._ZN8opendnp318TypedCommandHeaderINS_17AnalogOutputInt32EE19ApplySelectResponseERKNS_11ICollectionINS_7IndexedIS1_EEEE,"axG",@progbits,_ZN8opendnp318TypedCommandHeaderINS_17AnalogOutputInt32EE19ApplySelectResponseERKNS_11ICollectionINS_7IndexedIS1_EEEE,comdat
	.align 2
	.p2align 4,,15
	.weak	_ZN8opendnp318TypedCommandHeaderINS_17AnalogOutputInt32EE19ApplySelectResponseERKNS_11ICollectionINS_7IndexedIS1_EEEE
	.type	_ZN8opendnp318TypedCommandHeaderINS_17AnalogOutputInt32EE19ApplySelectResponseERKNS_11ICollectionINS_7IndexedIS1_EEEE, @function
_ZN8opendnp318TypedCommandHeaderINS_17AnalogOutputInt32EE19ApplySelectResponseERKNS_11ICollectionINS_7IndexedIS1_EEEE:
.LFB2001:
	.cfi_startproc
	pushq	%rbp
	.cfi_def_cfa_offset 16
	.cfi_offset 6, -16
	pushq	%rbx
	.cfi_def_cfa_offset 24
	.cfi_offset 3, -24
	movq	%rdi, %rbp
	movq	%rsi, %rbx
	movq	%rsi, %rdi
	subq	$56, %rsp
	.cfi_def_cfa_offset 80
	movq	%fs:40, %rax
	movq	%rax, 40(%rsp)
	xorl	%eax, %eax
	movq	(%rsi), %rax
	call	*(%rax)
	movq	56(%rbp), %rdx
	subq	48(%rbp), %rdx
	movabsq	$-6148914691236517205, %rcx
	sarq	$2, %rdx
	imulq	%rcx, %rdx
	cmpq	%rdx, %rax
	ja	.L310
	movq	_ZTVN8opendnp314FunctorVisitorINS_7IndexedINS_17AnalogOutputInt32EEEZNS_18TypedCommandHeaderIS2_E19ApplySelectResponseERKNS_11ICollectionIS3_EEEUlS3_E_EE@GOTPCREL(%rip), %rax
	movl	$0, 12(%rsp)
	leaq	16(%rsp), %rsi
	movq	%rbp, 24(%rsp)
	movq	%rbx, %rdi
	addq	$16, %rax
	movq	%rax, 16(%rsp)
	leaq	12(%rsp), %rax
	movq	%rax, 32(%rsp)
	movq	(%rbx), %rax
	call	*8(%rax)
.L310:
	movq	40(%rsp), %rax
	xorq	%fs:40, %rax
	jne	.L314
	addq	$56, %rsp
	.cfi_remember_state
	.cfi_def_cfa_offset 24
	popq	%rbx
	.cfi_def_cfa_offset 16
	popq	%rbp
	.cfi_def_cfa_offset 8
	ret
.L314:
	.cfi_restore_state
	call	__stack_chk_fail@PLT
	.cfi_endproc
.LFE2001:
	.size	_ZN8opendnp318TypedCommandHeaderINS_17AnalogOutputInt32EE19ApplySelectResponseERKNS_11ICollectionINS_7IndexedIS1_EEEE, .-_ZN8opendnp318TypedCommandHeaderINS_17AnalogOutputInt32EE19ApplySelectResponseERKNS_11ICollectionINS_7IndexedIS1_EEEE
	.section	.text._ZN8opendnp318TypedCommandHeaderINS_17AnalogOutputInt32EE20ApplyOperateResponseERKNS_11ICollectionINS_7IndexedIS1_EEEE,"axG",@progbits,_ZN8opendnp318TypedCommandHeaderINS_17AnalogOutputInt32EE20ApplyOperateResponseERKNS_11ICollectionINS_7IndexedIS1_EEEE,comdat
	.align 2
	.p2align 4,,15
	.weak	_ZN8opendnp318TypedCommandHeaderINS_17AnalogOutputInt32EE20ApplyOperateResponseERKNS_11ICollectionINS_7IndexedIS1_EEEE
	.type	_ZN8opendnp318TypedCommandHeaderINS_17AnalogOutputInt32EE20ApplyOperateResponseERKNS_11ICollectionINS_7IndexedIS1_EEEE, @function
_ZN8opendnp318TypedCommandHeaderINS_17AnalogOutputInt32EE20ApplyOperateResponseERKNS_11ICollectionINS_7IndexedIS1_EEEE:
.LFB2003:
	.cfi_startproc
	pushq	%rbp
	.cfi_def_cfa_offset 16
	.cfi_offset 6, -16
	pushq	%rbx
	.cfi_def_cfa_offset 24
	.cfi_offset 3, -24
	movq	%rdi, %rbp
	movq	%rsi, %rbx
	movq	%rsi, %rdi
	subq	$56, %rsp
	.cfi_def_cfa_offset 80
	movq	%fs:40, %rax
	movq	%rax, 40(%rsp)
	xorl	%eax, %eax
	movq	(%rsi), %rax
	call	*(%rax)
	movq	56(%rbp), %rdx
	subq	48(%rbp), %rdx
	movabsq	$-6148914691236517205, %rcx
	sarq	$2, %rdx
	imulq	%rcx, %rdx
	cmpq	%rdx, %rax
	ja	.L315
	movq	_ZTVN8opendnp314FunctorVisitorINS_7IndexedINS_17AnalogOutputInt32EEEZNS_18TypedCommandHeaderIS2_E20ApplyOperateResponseERKNS_11ICollectionIS3_EEEUlS3_E_EE@GOTPCREL(%rip), %rax
	movl	$0, 12(%rsp)
	leaq	16(%rsp), %rsi
	movq	%rbp, 24(%rsp)
	movq	%rbx, %rdi
	addq	$16, %rax
	movq	%rax, 16(%rsp)
	leaq	12(%rsp), %rax
	movq	%rax, 32(%rsp)
	movq	(%rbx), %rax
	call	*8(%rax)
.L315:
	movq	40(%rsp), %rax
	xorq	%fs:40, %rax
	jne	.L319
	addq	$56, %rsp
	.cfi_remember_state
	.cfi_def_cfa_offset 24
	popq	%rbx
	.cfi_def_cfa_offset 16
	popq	%rbp
	.cfi_def_cfa_offset 8
	ret
.L319:
	.cfi_restore_state
	call	__stack_chk_fail@PLT
	.cfi_endproc
.LFE2003:
	.size	_ZN8opendnp318TypedCommandHeaderINS_17AnalogOutputInt32EE20ApplyOperateResponseERKNS_11ICollectionINS_7IndexedIS1_EEEE, .-_ZN8opendnp318TypedCommandHeaderINS_17AnalogOutputInt32EE20ApplyOperateResponseERKNS_11ICollectionINS_7IndexedIS1_EEEE
	.section	.text._ZNK8opendnp318TypedCommandHeaderINS_23ControlRelayOutputBlockEE5WriteERNS_12HeaderWriterE,"axG",@progbits,_ZNK8opendnp318TypedCommandHeaderINS_23ControlRelayOutputBlockEE5WriteERNS_12HeaderWriterE,comdat
	.align 2
	.p2align 4,,15
	.weak	_ZNK8opendnp318TypedCommandHeaderINS_23ControlRelayOutputBlockEE5WriteERNS_12HeaderWriterE
	.type	_ZNK8opendnp318TypedCommandHeaderINS_23ControlRelayOutputBlockEE5WriteERNS_12HeaderWriterE, @function
_ZNK8opendnp318TypedCommandHeaderINS_23ControlRelayOutputBlockEE5WriteERNS_12HeaderWriterE:
.LFB2008:
	.cfi_startproc
	.cfi_personality 0x9b,DW.ref.__gxx_personality_v0
	.cfi_lsda 0x1b,.LLSDA2008
	pushq	%r12
	.cfi_def_cfa_offset 16
	.cfi_offset 12, -16
	pushq	%rbp
	.cfi_def_cfa_offset 24
	.cfi_offset 6, -24
	pushq	%rbx
	.cfi_def_cfa_offset 32
	.cfi_offset 3, -32
	subq	$64, %rsp
	.cfi_def_cfa_offset 96
	movq	%fs:40, %rax
	movq	%rax, 56(%rsp)
	xorl	%eax, %eax
	movq	48(%rdi), %rax
	cmpq	%rax, 56(%rdi)
	je	.L347
	movl	16(%rdi), %eax
	movzbl	41(%rdi), %edx
	movq	%rsi, %rbx
	movq	%rdi, %rbp
	leal	4(%rax), %ecx
	xorl	%eax, %eax
	movb	40(%rdi), %al
	movq	%rbx, %rdi
	movb	%dl, %ah
	movl	$40, %edx
	movl	%eax, %esi
.LEHB12:
	call	_ZN8opendnp312HeaderWriter22WriteHeaderWithReserveENS_16GroupVariationIDENS_13QualifierCodeEj@PLT
	testb	%al, %al
	jne	.L348
	leaq	32(%rsp), %rdi
	xorl	%eax, %eax
	movl	$0, (%rsp)
	movw	%ax, 28(%rsp)
	movq	$0, 8(%rsp)
	movq	$0, 16(%rsp)
	movl	$0, 24(%rsp)
	movb	$0, 30(%rsp)
	call	_ZN7openpal6WSliceC1Ev@PLT
.LEHE12:
	movzbl	30(%rsp), %eax
	movq	$0, 48(%rsp)
.L324:
	movq	48(%rbp), %rbx
	movq	56(%rbp), %r12
	cmpq	%rbx, %r12
	je	.L325
	testb	%al, %al
	je	.L347
	movq	48(%rsp), %rdi
	movzwl	28(%rsp), %edx
	movl	(%rdi), %eax
	cmpl	%eax, 24(%rsp)
	jbe	.L349
	.p2align 4,,10
	.p2align 3
.L329:
	xorl	%eax, %eax
.L334:
	movq	40(%rsp), %rcx
	movb	%dl, (%rcx)
	shrw	$8, %dx
	movb	%dl, 1(%rcx)
	jmp	.L320
	.p2align 4,,10
	.p2align 3
.L348:
	movdqu	16(%rbp), %xmm0
	movq	(%rbx), %rdi
	movq	32(%rbp), %rdx
	movd	%xmm0, %eax
	movaps	%xmm0, (%rsp)
	addl	$2, %eax
	movq	%rdx, 16(%rsp)
	xorl	%edx, %edx
	movl	%eax, 24(%rsp)
	movl	(%rdi), %eax
	movdqu	(%rdi), %xmm0
	movw	%dx, 28(%rsp)
	movq	%rdi, 48(%rsp)
	cmpl	$1, %eax
	seta	30(%rsp)
	movaps	%xmm0, 32(%rsp)
	ja	.L350
.L347:
	xorl	%eax, %eax
.L320:
	movq	56(%rsp), %rcx
	xorq	%fs:40, %rcx
	jne	.L351
	addq	$64, %rsp
	.cfi_remember_state
	.cfi_def_cfa_offset 32
	popq	%rbx
	.cfi_def_cfa_offset 24
	popq	%rbp
	.cfi_def_cfa_offset 16
	popq	%r12
	.cfi_def_cfa_offset 8
	ret
	.p2align 4,,10
	.p2align 3
.L349:
	.cfi_restore_state
	movzwl	2(%rbx), %eax
	leaq	4(%rbx), %rbp
	jmp	.L328
	.p2align 4,,10
	.p2align 3
.L352:
	movzwl	2(%rbx), %eax
.L328:
	movq	8(%rdi), %rdx
	movl	$2, %esi
	movb	%al, (%rdx)
	shrw	$8, %ax
	movb	%al, 1(%rdx)
.LEHB13:
	call	_ZN7openpal6WSlice7AdvanceEj@PLT
	movq	48(%rsp), %rsi
	movq	%rbp, %rdi
	call	*16(%rsp)
.LEHE13:
	movzwl	28(%rsp), %eax
	addq	$20, %rbx
	cmpq	%rbx, %r12
	leal	1(%rax), %edx
	movzbl	30(%rsp), %eax
	movw	%dx, 28(%rsp)
	je	.L325
	testb	%al, %al
	je	.L347
	movq	48(%rsp), %rdi
	addq	$20, %rbp
	movl	24(%rsp), %eax
	cmpl	%eax, (%rdi)
	jb	.L329
	jmp	.L352
	.p2align 4,,10
	.p2align 3
.L350:
	movl	$2, %esi
.LEHB14:
	call	_ZN7openpal6WSlice7AdvanceEj@PLT
	movzbl	30(%rsp), %eax
	jmp	.L324
	.p2align 4,,10
	.p2align 3
.L325:
	testb	%al, %al
	je	.L320
	movzwl	28(%rsp), %edx
	jmp	.L334
.L351:
	call	__stack_chk_fail@PLT
.L336:
	cmpb	$0, 30(%rsp)
	je	.L333
	movzwl	28(%rsp), %edx
	movq	40(%rsp), %rcx
	movb	%dl, (%rcx)
	shrw	$8, %dx
	movb	%dl, 1(%rcx)
.L333:
	movq	%rax, %rdi
	call	_Unwind_Resume@PLT
.LEHE14:
	.cfi_endproc
.LFE2008:
	.section	.gcc_except_table._ZNK8opendnp318TypedCommandHeaderINS_23ControlRelayOutputBlockEE5WriteERNS_12HeaderWriterE,"aG",@progbits,_ZNK8opendnp318TypedCommandHeaderINS_23ControlRelayOutputBlockEE5WriteERNS_12HeaderWriterE,comdat
.LLSDA2008:
	.byte	0xff
	.byte	0xff
	.byte	0x1
	.uleb128 .LLSDACSE2008-.LLSDACSB2008
.LLSDACSB2008:
	.uleb128 .LEHB12-.LFB2008
	.uleb128 .LEHE12-.LEHB12
	.uleb128 0
	.uleb128 0
	.uleb128 .LEHB13-.LFB2008
	.uleb128 .LEHE13-.LEHB13
	.uleb128 .L336-.LFB2008
	.uleb128 0
	.uleb128 .LEHB14-.LFB2008
	.uleb128 .LEHE14-.LEHB14
	.uleb128 0
	.uleb128 0
.LLSDACSE2008:
	.section	.text._ZNK8opendnp318TypedCommandHeaderINS_23ControlRelayOutputBlockEE5WriteERNS_12HeaderWriterE,"axG",@progbits,_ZNK8opendnp318TypedCommandHeaderINS_23ControlRelayOutputBlockEE5WriteERNS_12HeaderWriterE,comdat
	.size	_ZNK8opendnp318TypedCommandHeaderINS_23ControlRelayOutputBlockEE5WriteERNS_12HeaderWriterE, .-_ZNK8opendnp318TypedCommandHeaderINS_23ControlRelayOutputBlockEE5WriteERNS_12HeaderWriterE
	.section	.text._ZN8opendnp318TypedCommandHeaderINS_23ControlRelayOutputBlockEE19ApplySelectResponseERKNS_11ICollectionINS_7IndexedIS1_EEEE,"axG",@progbits,_ZN8opendnp318TypedCommandHeaderINS_23ControlRelayOutputBlockEE19ApplySelectResponseERKNS_11ICollectionINS_7IndexedIS1_EEEE,comdat
	.align 2
	.p2align 4,,15
	.weak	_ZN8opendnp318TypedCommandHeaderINS_23ControlRelayOutputBlockEE19ApplySelectResponseERKNS_11ICollectionINS_7IndexedIS1_EEEE
	.type	_ZN8opendnp318TypedCommandHeaderINS_23ControlRelayOutputBlockEE19ApplySelectResponseERKNS_11ICollectionINS_7IndexedIS1_EEEE, @function
_ZN8opendnp318TypedCommandHeaderINS_23ControlRelayOutputBlockEE19ApplySelectResponseERKNS_11ICollectionINS_7IndexedIS1_EEEE:
.LFB2013:
	.cfi_startproc
	pushq	%rbp
	.cfi_def_cfa_offset 16
	.cfi_offset 6, -16
	pushq	%rbx
	.cfi_def_cfa_offset 24
	.cfi_offset 3, -24
	movq	%rdi, %rbp
	movq	%rsi, %rbx
	movq	%rsi, %rdi
	subq	$56, %rsp
	.cfi_def_cfa_offset 80
	movq	%fs:40, %rax
	movq	%rax, 40(%rsp)
	xorl	%eax, %eax
	movq	(%rsi), %rax
	call	*(%rax)
	movq	56(%rbp), %rdx
	subq	48(%rbp), %rdx
	movabsq	$-3689348814741910323, %rcx
	sarq	$2, %rdx
	imulq	%rcx, %rdx
	cmpq	%rdx, %rax
	ja	.L353
	movq	_ZTVN8opendnp314FunctorVisitorINS_7IndexedINS_23ControlRelayOutputBlockEEEZNS_18TypedCommandHeaderIS2_E19ApplySelectResponseERKNS_11ICollectionIS3_EEEUlS3_E_EE@GOTPCREL(%rip), %rax
	movl	$0, 12(%rsp)
	leaq	16(%rsp), %rsi
	movq	%rbp, 24(%rsp)
	movq	%rbx, %rdi
	addq	$16, %rax
	movq	%rax, 16(%rsp)
	leaq	12(%rsp), %rax
	movq	%rax, 32(%rsp)
	movq	(%rbx), %rax
	call	*8(%rax)
.L353:
	movq	40(%rsp), %rax
	xorq	%fs:40, %rax
	jne	.L357
	addq	$56, %rsp
	.cfi_remember_state
	.cfi_def_cfa_offset 24
	popq	%rbx
	.cfi_def_cfa_offset 16
	popq	%rbp
	.cfi_def_cfa_offset 8
	ret
.L357:
	.cfi_restore_state
	call	__stack_chk_fail@PLT
	.cfi_endproc
.LFE2013:
	.size	_ZN8opendnp318TypedCommandHeaderINS_23ControlRelayOutputBlockEE19ApplySelectResponseERKNS_11ICollectionINS_7IndexedIS1_EEEE, .-_ZN8opendnp318TypedCommandHeaderINS_23ControlRelayOutputBlockEE19ApplySelectResponseERKNS_11ICollectionINS_7IndexedIS1_EEEE
	.section	.text._ZN8opendnp318TypedCommandHeaderINS_23ControlRelayOutputBlockEE20ApplyOperateResponseERKNS_11ICollectionINS_7IndexedIS1_EEEE,"axG",@progbits,_ZN8opendnp318TypedCommandHeaderINS_23ControlRelayOutputBlockEE20ApplyOperateResponseERKNS_11ICollectionINS_7IndexedIS1_EEEE,comdat
	.align 2
	.p2align 4,,15
	.weak	_ZN8opendnp318TypedCommandHeaderINS_23ControlRelayOutputBlockEE20ApplyOperateResponseERKNS_11ICollectionINS_7IndexedIS1_EEEE
	.type	_ZN8opendnp318TypedCommandHeaderINS_23ControlRelayOutputBlockEE20ApplyOperateResponseERKNS_11ICollectionINS_7IndexedIS1_EEEE, @function
_ZN8opendnp318TypedCommandHeaderINS_23ControlRelayOutputBlockEE20ApplyOperateResponseERKNS_11ICollectionINS_7IndexedIS1_EEEE:
.LFB2015:
	.cfi_startproc
	pushq	%rbp
	.cfi_def_cfa_offset 16
	.cfi_offset 6, -16
	pushq	%rbx
	.cfi_def_cfa_offset 24
	.cfi_offset 3, -24
	movq	%rdi, %rbp
	movq	%rsi, %rbx
	movq	%rsi, %rdi
	subq	$56, %rsp
	.cfi_def_cfa_offset 80
	movq	%fs:40, %rax
	movq	%rax, 40(%rsp)
	xorl	%eax, %eax
	movq	(%rsi), %rax
	call	*(%rax)
	movq	56(%rbp), %rdx
	subq	48(%rbp), %rdx
	movabsq	$-3689348814741910323, %rcx
	sarq	$2, %rdx
	imulq	%rcx, %rdx
	cmpq	%rdx, %rax
	ja	.L358
	movq	_ZTVN8opendnp314FunctorVisitorINS_7IndexedINS_23ControlRelayOutputBlockEEEZNS_18TypedCommandHeaderIS2_E20ApplyOperateResponseERKNS_11ICollectionIS3_EEEUlS3_E_EE@GOTPCREL(%rip), %rax
	movl	$0, 12(%rsp)
	leaq	16(%rsp), %rsi
	movq	%rbp, 24(%rsp)
	movq	%rbx, %rdi
	addq	$16, %rax
	movq	%rax, 16(%rsp)
	leaq	12(%rsp), %rax
	movq	%rax, 32(%rsp)
	movq	(%rbx), %rax
	call	*8(%rax)
.L358:
	movq	40(%rsp), %rax
	xorq	%fs:40, %rax
	jne	.L362
	addq	$56, %rsp
	.cfi_remember_state
	.cfi_def_cfa_offset 24
	popq	%rbx
	.cfi_def_cfa_offset 16
	popq	%rbp
	.cfi_def_cfa_offset 8
	ret
.L362:
	.cfi_restore_state
	call	__stack_chk_fail@PLT
	.cfi_endproc
.LFE2015:
	.size	_ZN8opendnp318TypedCommandHeaderINS_23ControlRelayOutputBlockEE20ApplyOperateResponseERKNS_11ICollectionINS_7IndexedIS1_EEEE, .-_ZN8opendnp318TypedCommandHeaderINS_23ControlRelayOutputBlockEE20ApplyOperateResponseERKNS_11ICollectionINS_7IndexedIS1_EEEE
	.section	.text._ZNK8opendnp318TypedCommandHeaderINS_20AnalogOutputDouble64EE14AreAllSelectedEv,"axG",@progbits,_ZNK8opendnp318TypedCommandHeaderINS_20AnalogOutputDouble64EE14AreAllSelectedEv,comdat
	.align 2
	.p2align 4,,15
	.weak	_ZNK8opendnp318TypedCommandHeaderINS_20AnalogOutputDouble64EE14AreAllSelectedEv
	.type	_ZNK8opendnp318TypedCommandHeaderINS_20AnalogOutputDouble64EE14AreAllSelectedEv, @function
_ZNK8opendnp318TypedCommandHeaderINS_20AnalogOutputDouble64EE14AreAllSelectedEv:
.LFB1961:
	.cfi_startproc
	movq	56(%rdi), %rsi
	movq	48(%rdi), %rdx
	movabsq	$-6148914691236517205, %rcx
	movq	%rsi, %rax
	subq	%rdx, %rax
	sarq	$3, %rax
	imulq	%rcx, %rax
	movq	%rax, %rcx
	sarq	$2, %rcx
	testq	%rcx, %rcx
	jle	.L384
	cmpb	$1, (%rdx)
	jne	.L385
	cmpb	$1, 24(%rdx)
	jne	.L398
	cmpb	$1, 48(%rdx)
	jne	.L399
	cmpb	$1, 72(%rdx)
	jne	.L400
	leaq	(%rcx,%rcx,2), %rcx
	salq	$5, %rcx
	addq	%rdx, %rcx
	jmp	.L376
	.p2align 4,,10
	.p2align 3
.L378:
	cmpb	$1, 96(%rdx)
	jne	.L365
	cmpb	$1, 24(%rax)
	jne	.L401
	cmpb	$1, 48(%rax)
	jne	.L402
	cmpb	$1, 72(%rax)
	jne	.L403
	movq	%rax, %rdx
.L376:
	leaq	96(%rdx), %rax
	cmpq	%rax, %rcx
	jne	.L378
	movq	%rsi, %rax
	movabsq	$-6148914691236517205, %rdx
	subq	%rcx, %rax
	sarq	$3, %rax
	imulq	%rdx, %rax
.L364:
	cmpq	$2, %rax
	je	.L379
	cmpq	$3, %rax
	je	.L380
	cmpq	$1, %rax
	je	.L381
	movl	$1, %eax
.L363:
	rep ret
.L385:
	movq	%rdx, %rax
.L365:
	cmpq	%rax, %rsi
	sete	%al
	ret
	.p2align 4,,10
	.p2align 3
.L401:
	addq	$120, %rdx
.L377:
	cmpq	%rdx, %rsi
	sete	%al
	ret
	.p2align 4,,10
	.p2align 3
.L402:
	addq	$144, %rdx
	cmpq	%rdx, %rsi
	sete	%al
	ret
	.p2align 4,,10
	.p2align 3
.L403:
	addq	$168, %rdx
	cmpq	%rdx, %rsi
	sete	%al
	ret
.L380:
	cmpb	$1, (%rcx)
	jne	.L397
	addq	$24, %rcx
.L379:
	cmpb	$1, (%rcx)
	jne	.L397
	addq	$24, %rcx
.L381:
	cmpb	$1, (%rcx)
	movl	$1, %eax
	je	.L363
.L397:
	cmpq	%rcx, %rsi
	sete	%al
	ret
.L384:
	movq	%rdx, %rcx
	jmp	.L364
.L398:
	addq	$24, %rdx
	jmp	.L377
.L399:
	addq	$48, %rdx
	jmp	.L377
.L400:
	addq	$72, %rdx
	jmp	.L377
	.cfi_endproc
.LFE1961:
	.size	_ZNK8opendnp318TypedCommandHeaderINS_20AnalogOutputDouble64EE14AreAllSelectedEv, .-_ZNK8opendnp318TypedCommandHeaderINS_20AnalogOutputDouble64EE14AreAllSelectedEv
	.section	.text._ZNK8opendnp318TypedCommandHeaderINS_19AnalogOutputFloat32EE14AreAllSelectedEv,"axG",@progbits,_ZNK8opendnp318TypedCommandHeaderINS_19AnalogOutputFloat32EE14AreAllSelectedEv,comdat
	.align 2
	.p2align 4,,15
	.weak	_ZNK8opendnp318TypedCommandHeaderINS_19AnalogOutputFloat32EE14AreAllSelectedEv
	.type	_ZNK8opendnp318TypedCommandHeaderINS_19AnalogOutputFloat32EE14AreAllSelectedEv, @function
_ZNK8opendnp318TypedCommandHeaderINS_19AnalogOutputFloat32EE14AreAllSelectedEv:
.LFB1973:
	.cfi_startproc
	movq	56(%rdi), %rsi
	movq	48(%rdi), %rdx
	movabsq	$-6148914691236517205, %rcx
	movq	%rsi, %rax
	subq	%rdx, %rax
	sarq	$2, %rax
	imulq	%rcx, %rax
	movq	%rax, %rcx
	sarq	$2, %rcx
	testq	%rcx, %rcx
	jle	.L425
	cmpb	$1, (%rdx)
	jne	.L426
	cmpb	$1, 12(%rdx)
	jne	.L439
	cmpb	$1, 24(%rdx)
	jne	.L440
	cmpb	$1, 36(%rdx)
	jne	.L441
	leaq	(%rcx,%rcx,2), %rcx
	salq	$4, %rcx
	addq	%rdx, %rcx
	jmp	.L417
	.p2align 4,,10
	.p2align 3
.L419:
	cmpb	$1, 48(%rdx)
	jne	.L406
	cmpb	$1, 12(%rax)
	jne	.L442
	cmpb	$1, 24(%rax)
	jne	.L443
	cmpb	$1, 36(%rax)
	jne	.L444
	movq	%rax, %rdx
.L417:
	leaq	48(%rdx), %rax
	cmpq	%rax, %rcx
	jne	.L419
	movq	%rsi, %rax
	movabsq	$-6148914691236517205, %rdx
	subq	%rcx, %rax
	sarq	$2, %rax
	imulq	%rdx, %rax
.L405:
	cmpq	$2, %rax
	je	.L420
	cmpq	$3, %rax
	je	.L421
	cmpq	$1, %rax
	je	.L422
	movl	$1, %eax
.L404:
	rep ret
.L426:
	movq	%rdx, %rax
.L406:
	cmpq	%rax, %rsi
	sete	%al
	ret
	.p2align 4,,10
	.p2align 3
.L442:
	addq	$60, %rdx
.L418:
	cmpq	%rdx, %rsi
	sete	%al
	ret
	.p2align 4,,10
	.p2align 3
.L443:
	addq	$72, %rdx
	cmpq	%rdx, %rsi
	sete	%al
	ret
	.p2align 4,,10
	.p2align 3
.L444:
	addq	$84, %rdx
	cmpq	%rdx, %rsi
	sete	%al
	ret
.L421:
	cmpb	$1, (%rcx)
	jne	.L438
	addq	$12, %rcx
.L420:
	cmpb	$1, (%rcx)
	jne	.L438
	addq	$12, %rcx
.L422:
	cmpb	$1, (%rcx)
	movl	$1, %eax
	je	.L404
.L438:
	cmpq	%rcx, %rsi
	sete	%al
	ret
.L425:
	movq	%rdx, %rcx
	jmp	.L405
.L439:
	addq	$12, %rdx
	jmp	.L418
.L440:
	addq	$24, %rdx
	jmp	.L418
.L441:
	addq	$36, %rdx
	jmp	.L418
	.cfi_endproc
.LFE1973:
	.size	_ZNK8opendnp318TypedCommandHeaderINS_19AnalogOutputFloat32EE14AreAllSelectedEv, .-_ZNK8opendnp318TypedCommandHeaderINS_19AnalogOutputFloat32EE14AreAllSelectedEv
	.section	.text._ZNK8opendnp318TypedCommandHeaderINS_17AnalogOutputInt16EE14AreAllSelectedEv,"axG",@progbits,_ZNK8opendnp318TypedCommandHeaderINS_17AnalogOutputInt16EE14AreAllSelectedEv,comdat
	.align 2
	.p2align 4,,15
	.weak	_ZNK8opendnp318TypedCommandHeaderINS_17AnalogOutputInt16EE14AreAllSelectedEv
	.type	_ZNK8opendnp318TypedCommandHeaderINS_17AnalogOutputInt16EE14AreAllSelectedEv, @function
_ZNK8opendnp318TypedCommandHeaderINS_17AnalogOutputInt16EE14AreAllSelectedEv:
.LFB1985:
	.cfi_startproc
	movq	56(%rdi), %rsi
	movq	48(%rdi), %rdx
	movq	%rsi, %rcx
	subq	%rdx, %rcx
	movq	%rcx, %rax
	sarq	$5, %rcx
	sarq	$3, %rax
	testq	%rcx, %rcx
	jle	.L466
	cmpb	$1, (%rdx)
	jne	.L467
	cmpb	$1, 8(%rdx)
	jne	.L480
	cmpb	$1, 16(%rdx)
	jne	.L481
	salq	$5, %rcx
	addq	%rdx, %rcx
	cmpb	$1, 24(%rdx)
	je	.L458
	jmp	.L482
	.p2align 4,,10
	.p2align 3
.L460:
	cmpb	$1, 32(%rdx)
	jne	.L447
	cmpb	$1, 8(%rax)
	jne	.L483
	cmpb	$1, 16(%rax)
	jne	.L484
	cmpb	$1, 24(%rax)
	jne	.L485
	movq	%rax, %rdx
.L458:
	leaq	32(%rdx), %rax
	cmpq	%rax, %rcx
	jne	.L460
	movq	%rsi, %rax
	subq	%rcx, %rax
	sarq	$3, %rax
.L446:
	cmpq	$2, %rax
	je	.L461
	cmpq	$3, %rax
	je	.L462
	cmpq	$1, %rax
	je	.L463
	movl	$1, %eax
.L445:
	rep ret
.L467:
	movq	%rdx, %rax
.L447:
	cmpq	%rax, %rsi
	sete	%al
	ret
	.p2align 4,,10
	.p2align 3
.L483:
	addq	$40, %rdx
.L459:
	cmpq	%rdx, %rsi
	sete	%al
	ret
	.p2align 4,,10
	.p2align 3
.L484:
	addq	$48, %rdx
	cmpq	%rdx, %rsi
	sete	%al
	ret
	.p2align 4,,10
	.p2align 3
.L485:
	addq	$56, %rdx
	cmpq	%rdx, %rsi
	sete	%al
	ret
.L462:
	cmpb	$1, (%rcx)
	jne	.L479
	addq	$8, %rcx
.L461:
	cmpb	$1, (%rcx)
	jne	.L479
	addq	$8, %rcx
.L463:
	cmpb	$1, (%rcx)
	movl	$1, %eax
	je	.L445
.L479:
	cmpq	%rcx, %rsi
	sete	%al
	ret
.L466:
	movq	%rdx, %rcx
	jmp	.L446
.L480:
	addq	$8, %rdx
	jmp	.L459
.L481:
	addq	$16, %rdx
	jmp	.L459
.L482:
	addq	$24, %rdx
	jmp	.L459
	.cfi_endproc
.LFE1985:
	.size	_ZNK8opendnp318TypedCommandHeaderINS_17AnalogOutputInt16EE14AreAllSelectedEv, .-_ZNK8opendnp318TypedCommandHeaderINS_17AnalogOutputInt16EE14AreAllSelectedEv
	.section	.text._ZNK8opendnp318TypedCommandHeaderINS_17AnalogOutputInt32EE14AreAllSelectedEv,"axG",@progbits,_ZNK8opendnp318TypedCommandHeaderINS_17AnalogOutputInt32EE14AreAllSelectedEv,comdat
	.align 2
	.p2align 4,,15
	.weak	_ZNK8opendnp318TypedCommandHeaderINS_17AnalogOutputInt32EE14AreAllSelectedEv
	.type	_ZNK8opendnp318TypedCommandHeaderINS_17AnalogOutputInt32EE14AreAllSelectedEv, @function
_ZNK8opendnp318TypedCommandHeaderINS_17AnalogOutputInt32EE14AreAllSelectedEv:
.LFB1997:
	.cfi_startproc
	movq	56(%rdi), %rsi
	movq	48(%rdi), %rdx
	movabsq	$-6148914691236517205, %rcx
	movq	%rsi, %rax
	subq	%rdx, %rax
	sarq	$2, %rax
	imulq	%rcx, %rax
	movq	%rax, %rcx
	sarq	$2, %rcx
	testq	%rcx, %rcx
	jle	.L507
	cmpb	$1, (%rdx)
	jne	.L508
	cmpb	$1, 12(%rdx)
	jne	.L521
	cmpb	$1, 24(%rdx)
	jne	.L522
	cmpb	$1, 36(%rdx)
	jne	.L523
	leaq	(%rcx,%rcx,2), %rcx
	salq	$4, %rcx
	addq	%rdx, %rcx
	jmp	.L499
	.p2align 4,,10
	.p2align 3
.L501:
	cmpb	$1, 48(%rdx)
	jne	.L488
	cmpb	$1, 12(%rax)
	jne	.L524
	cmpb	$1, 24(%rax)
	jne	.L525
	cmpb	$1, 36(%rax)
	jne	.L526
	movq	%rax, %rdx
.L499:
	leaq	48(%rdx), %rax
	cmpq	%rax, %rcx
	jne	.L501
	movq	%rsi, %rax
	movabsq	$-6148914691236517205, %rdx
	subq	%rcx, %rax
	sarq	$2, %rax
	imulq	%rdx, %rax
.L487:
	cmpq	$2, %rax
	je	.L502
	cmpq	$3, %rax
	je	.L503
	cmpq	$1, %rax
	je	.L504
	movl	$1, %eax
.L486:
	rep ret
.L508:
	movq	%rdx, %rax
.L488:
	cmpq	%rax, %rsi
	sete	%al
	ret
	.p2align 4,,10
	.p2align 3
.L524:
	addq	$60, %rdx
.L500:
	cmpq	%rdx, %rsi
	sete	%al
	ret
	.p2align 4,,10
	.p2align 3
.L525:
	addq	$72, %rdx
	cmpq	%rdx, %rsi
	sete	%al
	ret
	.p2align 4,,10
	.p2align 3
.L526:
	addq	$84, %rdx
	cmpq	%rdx, %rsi
	sete	%al
	ret
.L503:
	cmpb	$1, (%rcx)
	jne	.L520
	addq	$12, %rcx
.L502:
	cmpb	$1, (%rcx)
	jne	.L520
	addq	$12, %rcx
.L504:
	cmpb	$1, (%rcx)
	movl	$1, %eax
	je	.L486
.L520:
	cmpq	%rcx, %rsi
	sete	%al
	ret
.L507:
	movq	%rdx, %rcx
	jmp	.L487
.L521:
	addq	$12, %rdx
	jmp	.L500
.L522:
	addq	$24, %rdx
	jmp	.L500
.L523:
	addq	$36, %rdx
	jmp	.L500
	.cfi_endproc
.LFE1997:
	.size	_ZNK8opendnp318TypedCommandHeaderINS_17AnalogOutputInt32EE14AreAllSelectedEv, .-_ZNK8opendnp318TypedCommandHeaderINS_17AnalogOutputInt32EE14AreAllSelectedEv
	.section	.text._ZNK8opendnp318TypedCommandHeaderINS_23ControlRelayOutputBlockEE14AreAllSelectedEv,"axG",@progbits,_ZNK8opendnp318TypedCommandHeaderINS_23ControlRelayOutputBlockEE14AreAllSelectedEv,comdat
	.align 2
	.p2align 4,,15
	.weak	_ZNK8opendnp318TypedCommandHeaderINS_23ControlRelayOutputBlockEE14AreAllSelectedEv
	.type	_ZNK8opendnp318TypedCommandHeaderINS_23ControlRelayOutputBlockEE14AreAllSelectedEv, @function
_ZNK8opendnp318TypedCommandHeaderINS_23ControlRelayOutputBlockEE14AreAllSelectedEv:
.LFB2009:
	.cfi_startproc
	movq	56(%rdi), %rsi
	movq	48(%rdi), %rdx
	movabsq	$-3689348814741910323, %rcx
	movq	%rsi, %rax
	subq	%rdx, %rax
	sarq	$2, %rax
	imulq	%rcx, %rax
	movq	%rax, %rcx
	sarq	$2, %rcx
	testq	%rcx, %rcx
	jle	.L548
	cmpb	$1, (%rdx)
	jne	.L549
	cmpb	$1, 20(%rdx)
	jne	.L562
	cmpb	$1, 40(%rdx)
	jne	.L563
	cmpb	$1, 60(%rdx)
	jne	.L564
	leaq	(%rcx,%rcx,4), %rcx
	salq	$4, %rcx
	addq	%rdx, %rcx
	jmp	.L540
	.p2align 4,,10
	.p2align 3
.L542:
	cmpb	$1, 80(%rdx)
	jne	.L529
	cmpb	$1, 20(%rax)
	jne	.L565
	cmpb	$1, 40(%rax)
	jne	.L566
	cmpb	$1, 60(%rax)
	jne	.L567
	movq	%rax, %rdx
.L540:
	leaq	80(%rdx), %rax
	cmpq	%rax, %rcx
	jne	.L542
	movq	%rsi, %rax
	movabsq	$-3689348814741910323, %rdx
	subq	%rcx, %rax
	sarq	$2, %rax
	imulq	%rdx, %rax
.L528:
	cmpq	$2, %rax
	je	.L543
	cmpq	$3, %rax
	je	.L544
	cmpq	$1, %rax
	je	.L545
	movl	$1, %eax
.L527:
	rep ret
.L549:
	movq	%rdx, %rax
.L529:
	cmpq	%rax, %rsi
	sete	%al
	ret
	.p2align 4,,10
	.p2align 3
.L565:
	addq	$100, %rdx
.L541:
	cmpq	%rdx, %rsi
	sete	%al
	ret
	.p2align 4,,10
	.p2align 3
.L566:
	addq	$120, %rdx
	cmpq	%rdx, %rsi
	sete	%al
	ret
	.p2align 4,,10
	.p2align 3
.L567:
	addq	$140, %rdx
	cmpq	%rdx, %rsi
	sete	%al
	ret
.L544:
	cmpb	$1, (%rcx)
	jne	.L561
	addq	$20, %rcx
.L543:
	cmpb	$1, (%rcx)
	jne	.L561
	addq	$20, %rcx
.L545:
	cmpb	$1, (%rcx)
	movl	$1, %eax
	je	.L527
.L561:
	cmpq	%rcx, %rsi
	sete	%al
	ret
.L548:
	movq	%rdx, %rcx
	jmp	.L528
.L562:
	addq	$20, %rdx
	jmp	.L541
.L563:
	addq	$40, %rdx
	jmp	.L541
.L564:
	addq	$60, %rdx
	jmp	.L541
	.cfi_endproc
.LFE2009:
	.size	_ZNK8opendnp318TypedCommandHeaderINS_23ControlRelayOutputBlockEE14AreAllSelectedEv, .-_ZNK8opendnp318TypedCommandHeaderINS_23ControlRelayOutputBlockEE14AreAllSelectedEv
	.text
	.align 2
	.p2align 4,,15
	.globl	_ZN8opendnp310CommandSetC2EOS0_
	.type	_ZN8opendnp310CommandSetC2EOS0_, @function
_ZN8opendnp310CommandSetC2EOS0_:
.LFB1534:
	.cfi_startproc
	movq	$0, 8(%rdi)
	movq	$0, 16(%rdi)
	movq	$0, (%rdi)
	movq	(%rsi), %rax
	movq	%rax, (%rdi)
	movq	$0, (%rsi)
	movq	8(%rsi), %rdx
	movq	8(%rdi), %rax
	movq	%rdx, 8(%rdi)
	movq	%rax, 8(%rsi)
	movq	16(%rsi), %rdx
	movq	16(%rdi), %rax
	movq	%rdx, 16(%rdi)
	movq	%rax, 16(%rsi)
	ret
	.cfi_endproc
.LFE1534:
	.size	_ZN8opendnp310CommandSetC2EOS0_, .-_ZN8opendnp310CommandSetC2EOS0_
	.globl	_ZN8opendnp310CommandSetC1EOS0_
	.set	_ZN8opendnp310CommandSetC1EOS0_,_ZN8opendnp310CommandSetC2EOS0_
	.align 2
	.p2align 4,,15
	.globl	_ZN8opendnp310CommandSetD2Ev
	.type	_ZN8opendnp310CommandSetD2Ev, @function
_ZN8opendnp310CommandSetD2Ev:
.LFB1537:
	.cfi_startproc
	pushq	%r12
	.cfi_def_cfa_offset 16
	.cfi_offset 12, -16
	pushq	%rbp
	.cfi_def_cfa_offset 24
	.cfi_offset 6, -24
	pushq	%rbx
	.cfi_def_cfa_offset 32
	.cfi_offset 3, -32
	movq	(%rdi), %rbx
	movq	8(%rdi), %rbp
	cmpq	%rbp, %rbx
	je	.L570
	movq	%rdi, %r12
	.p2align 4,,10
	.p2align 3
.L572:
	movq	(%rbx), %rdi
	testq	%rdi, %rdi
	je	.L571
	movq	(%rdi), %rax
	call	*24(%rax)
.L571:
	addq	$8, %rbx
	cmpq	%rbp, %rbx
	jne	.L572
	movq	(%r12), %rbp
.L570:
	testq	%rbp, %rbp
	je	.L569
	popq	%rbx
	.cfi_remember_state
	.cfi_def_cfa_offset 24
	movq	%rbp, %rdi
	popq	%rbp
	.cfi_def_cfa_offset 16
	popq	%r12
	.cfi_def_cfa_offset 8
	jmp	_ZdlPv@PLT
	.p2align 4,,10
	.p2align 3
.L569:
	.cfi_restore_state
	popq	%rbx
	.cfi_def_cfa_offset 24
	popq	%rbp
	.cfi_def_cfa_offset 16
	popq	%r12
	.cfi_def_cfa_offset 8
	ret
	.cfi_endproc
.LFE1537:
	.size	_ZN8opendnp310CommandSetD2Ev, .-_ZN8opendnp310CommandSetD2Ev
	.globl	_ZN8opendnp310CommandSetD1Ev
	.set	_ZN8opendnp310CommandSetD1Ev,_ZN8opendnp310CommandSetD2Ev
	.align 2
	.p2align 4,,15
	.globl	_ZN8opendnp310CommandSet15StartHeaderCROBEv
	.type	_ZN8opendnp310CommandSet15StartHeaderCROBEv, @function
_ZN8opendnp310CommandSet15StartHeaderCROBEv:
.LFB1554:
	.cfi_startproc
	pushq	%r15
	.cfi_def_cfa_offset 16
	.cfi_offset 15, -16
	pushq	%r14
	.cfi_def_cfa_offset 24
	.cfi_offset 14, -24
	pushq	%r13
	.cfi_def_cfa_offset 32
	.cfi_offset 13, -32
	pushq	%r12
	.cfi_def_cfa_offset 40
	.cfi_offset 12, -40
	movq	%rdi, %r12
	pushq	%rbp
	.cfi_def_cfa_offset 48
	.cfi_offset 6, -48
	pushq	%rbx
	.cfi_def_cfa_offset 56
	.cfi_offset 3, -56
	movl	$72, %edi
	subq	$24, %rsp
	.cfi_def_cfa_offset 80
	call	_Znwm@PLT
	movq	%rax, %rbx
	movq	_ZTVN8opendnp318TypedCommandHeaderINS_23ControlRelayOutputBlockEEE@GOTPCREL(%rip), %rax
	movq	8(%r12), %rbp
	movl	$11, 16(%rbx)
	movq	$0, 48(%rbx)
	movq	$0, 56(%rbx)
	movq	$0, 64(%rbx)
	leaq	16(%rax), %rdx
	addq	$168, %rax
	cmpq	16(%r12), %rbp
	movq	%rax, 8(%rbx)
	movq	_ZN8opendnp311Group12Var110ReadTargetERN7openpal6RSliceERNS_23ControlRelayOutputBlockE@GOTPCREL(%rip), %rax
	movq	%rdx, (%rbx)
	movq	%rax, 24(%rbx)
	movq	_ZN8opendnp311Group12Var111WriteTargetERKNS_23ControlRelayOutputBlockERN7openpal6WSliceE@GOTPCREL(%rip), %rax
	movq	%rax, 32(%rbx)
	movl	$268, %eax
	movw	%ax, 40(%rbx)
	je	.L580
	testq	%rbp, %rbp
	je	.L581
	movq	%rbx, 0(%rbp)
.L581:
	addq	$8, %rbp
	movq	%rbp, 8(%r12)
.L582:
	addq	$24, %rsp
	.cfi_remember_state
	.cfi_def_cfa_offset 56
	leaq	8(%rbx), %rax
	popq	%rbx
	.cfi_def_cfa_offset 48
	popq	%rbp
	.cfi_def_cfa_offset 40
	popq	%r12
	.cfi_def_cfa_offset 32
	popq	%r13
	.cfi_def_cfa_offset 24
	popq	%r14
	.cfi_def_cfa_offset 16
	popq	%r15
	.cfi_def_cfa_offset 8
	ret
	.p2align 4,,10
	.p2align 3
.L580:
	.cfi_restore_state
	movq	%rbp, %r14
	subq	(%r12), %r14
	movq	%r14, %rax
	sarq	$3, %rax
	testq	%rax, %rax
	je	.L589
	leaq	(%rax,%rax), %rdx
	movq	$-8, %r15
	cmpq	%rdx, %rax
	jbe	.L604
.L583:
	movq	%r15, %rdi
	call	_Znwm@PLT
	movq	%rax, %r13
.L584:
	addq	%r13, %r14
	je	.L585
	movq	%rbx, (%r14)
.L585:
	movq	(%r12), %r14
	movq	%rbp, %rcx
	subq	%r14, %rcx
	cmpq	%rbp, %r14
	je	.L586
	movq	%rcx, %rdx
	movq	%r14, %rsi
	movq	%r13, %rdi
	movq	%rcx, 8(%rsp)
	call	memmove@PLT
	movq	8(%rsp), %rcx
.L586:
	movq	8(%r12), %rax
	leaq	8(%r13,%rcx), %rcx
	movq	%rax, %r8
	subq	%rbp, %r8
	cmpq	%rbp, %rax
	je	.L587
	movq	%r8, %rdx
	movq	%rcx, %rdi
	movq	%rbp, %rsi
	movq	%r8, 8(%rsp)
	call	memmove@PLT
	movq	8(%rsp), %r8
	movq	%rax, %rcx
.L587:
	testq	%r14, %r14
	leaq	(%rcx,%r8), %rbp
	je	.L588
	movq	%r14, %rdi
	call	_ZdlPv@PLT
.L588:
	movq	%r13, (%r12)
	addq	%r15, %r13
	movq	%rbp, 8(%r12)
	movq	%r13, 16(%r12)
	jmp	.L582
	.p2align 4,,10
	.p2align 3
.L589:
	movl	$8, %r15d
	jmp	.L583
	.p2align 4,,10
	.p2align 3
.L604:
	movabsq	$2305843009213693951, %rcx
	cmpq	%rcx, %rdx
	ja	.L583
	xorl	%r15d, %r15d
	xorl	%r13d, %r13d
	testq	%rdx, %rdx
	je	.L584
	salq	$4, %rax
	movq	%rax, %r15
	jmp	.L583
	.cfi_endproc
.LFE1554:
	.size	_ZN8opendnp310CommandSet15StartHeaderCROBEv, .-_ZN8opendnp310CommandSet15StartHeaderCROBEv
	.align 2
	.p2align 4,,15
	.globl	_ZN8opendnp310CommandSetC2ESt16initializer_listINS_7IndexedINS_23ControlRelayOutputBlockEEEE
	.type	_ZN8opendnp310CommandSetC2ESt16initializer_listINS_7IndexedINS_23ControlRelayOutputBlockEEEE, @function
_ZN8opendnp310CommandSetC2ESt16initializer_listINS_7IndexedINS_23ControlRelayOutputBlockEEEE:
.LFB1540:
	.cfi_startproc
	.cfi_personality 0x9b,DW.ref.__gxx_personality_v0
	.cfi_lsda 0x1b,.LLSDA1540
	testq	%rdx, %rdx
	movq	$0, (%rdi)
	movq	$0, 8(%rdi)
	movq	$0, 16(%rdi)
	jne	.L622
	rep ret
	.p2align 4,,10
	.p2align 3
.L622:
	pushq	%r14
	.cfi_def_cfa_offset 16
	.cfi_offset 14, -16
	pushq	%r13
	.cfi_def_cfa_offset 24
	.cfi_offset 13, -24
	movq	%rsi, %r14
	pushq	%r12
	.cfi_def_cfa_offset 32
	.cfi_offset 12, -32
	pushq	%rbp
	.cfi_def_cfa_offset 40
	.cfi_offset 6, -40
	movq	%rdx, %r13
	pushq	%rbx
	.cfi_def_cfa_offset 48
	.cfi_offset 3, -48
	movq	%rdi, %rbp
	movq	%rsi, %rbx
.LEHB15:
	call	_ZN8opendnp310CommandSet15StartHeaderCROBEv@PLT
	movq	%rax, %r12
	leaq	0(%r13,%r13,4), %rax
	leaq	(%r14,%rax,4), %r13
	cmpq	%r14, %r13
	je	.L605
	.p2align 4,,10
	.p2align 3
.L607:
	movq	(%r12), %rax
	movzwl	16(%rbx), %edx
	movq	%rbx, %rsi
	movq	%r12, %rdi
	call	*(%rax)
.LEHE15:
	addq	$20, %rbx
	cmpq	%rbx, %r13
	jne	.L607
.L605:
	popq	%rbx
	.cfi_remember_state
	.cfi_def_cfa_offset 40
	popq	%rbp
	.cfi_def_cfa_offset 32
	popq	%r12
	.cfi_def_cfa_offset 24
	popq	%r13
	.cfi_def_cfa_offset 16
	popq	%r14
	.cfi_def_cfa_offset 8
	ret
.L610:
	.cfi_restore_state
	movq	0(%rbp), %rdi
	movq	%rax, %rbx
	testq	%rdi, %rdi
	je	.L609
	call	_ZdlPv@PLT
.L609:
	movq	%rbx, %rdi
.LEHB16:
	call	_Unwind_Resume@PLT
.LEHE16:
	.cfi_endproc
.LFE1540:
	.section	.gcc_except_table,"a",@progbits
.LLSDA1540:
	.byte	0xff
	.byte	0xff
	.byte	0x1
	.uleb128 .LLSDACSE1540-.LLSDACSB1540
.LLSDACSB1540:
	.uleb128 .LEHB15-.LFB1540
	.uleb128 .LEHE15-.LEHB15
	.uleb128 .L610-.LFB1540
	.uleb128 0
	.uleb128 .LEHB16-.LFB1540
	.uleb128 .LEHE16-.LEHB16
	.uleb128 0
	.uleb128 0
.LLSDACSE1540:
	.text
	.size	_ZN8opendnp310CommandSetC2ESt16initializer_listINS_7IndexedINS_23ControlRelayOutputBlockEEEE, .-_ZN8opendnp310CommandSetC2ESt16initializer_listINS_7IndexedINS_23ControlRelayOutputBlockEEEE
	.globl	_ZN8opendnp310CommandSetC1ESt16initializer_listINS_7IndexedINS_23ControlRelayOutputBlockEEEE
	.set	_ZN8opendnp310CommandSetC1ESt16initializer_listINS_7IndexedINS_23ControlRelayOutputBlockEEEE,_ZN8opendnp310CommandSetC2ESt16initializer_listINS_7IndexedINS_23ControlRelayOutputBlockEEEE
	.align 2
	.p2align 4,,15
	.globl	_ZN8opendnp310CommandSet18StartHeaderAOInt32Ev
	.type	_ZN8opendnp310CommandSet18StartHeaderAOInt32Ev, @function
_ZN8opendnp310CommandSet18StartHeaderAOInt32Ev:
.LFB1555:
	.cfi_startproc
	pushq	%r15
	.cfi_def_cfa_offset 16
	.cfi_offset 15, -16
	pushq	%r14
	.cfi_def_cfa_offset 24
	.cfi_offset 14, -24
	pushq	%r13
	.cfi_def_cfa_offset 32
	.cfi_offset 13, -32
	pushq	%r12
	.cfi_def_cfa_offset 40
	.cfi_offset 12, -40
	movq	%rdi, %r12
	pushq	%rbp
	.cfi_def_cfa_offset 48
	.cfi_offset 6, -48
	pushq	%rbx
	.cfi_def_cfa_offset 56
	.cfi_offset 3, -56
	movl	$72, %edi
	subq	$24, %rsp
	.cfi_def_cfa_offset 80
	call	_Znwm@PLT
	movq	%rax, %rbx
	movq	_ZTVN8opendnp318TypedCommandHeaderINS_17AnalogOutputInt32EEE@GOTPCREL(%rip), %rax
	movq	8(%r12), %rbp
	movl	$5, 16(%rbx)
	movq	$0, 48(%rbx)
	movq	$0, 56(%rbx)
	movq	$0, 64(%rbx)
	leaq	16(%rax), %rdx
	addq	$168, %rax
	cmpq	16(%r12), %rbp
	movq	%rax, 8(%rbx)
	movq	_ZN8opendnp311Group41Var110ReadTargetERN7openpal6RSliceERNS_17AnalogOutputInt32E@GOTPCREL(%rip), %rax
	movq	%rdx, (%rbx)
	movq	%rax, 24(%rbx)
	movq	_ZN8opendnp311Group41Var111WriteTargetERKNS_17AnalogOutputInt32ERN7openpal6WSliceE@GOTPCREL(%rip), %rax
	movq	%rax, 32(%rbx)
	movl	$297, %eax
	movw	%ax, 40(%rbx)
	je	.L624
	testq	%rbp, %rbp
	je	.L625
	movq	%rbx, 0(%rbp)
.L625:
	addq	$8, %rbp
	movq	%rbp, 8(%r12)
.L626:
	addq	$24, %rsp
	.cfi_remember_state
	.cfi_def_cfa_offset 56
	leaq	8(%rbx), %rax
	popq	%rbx
	.cfi_def_cfa_offset 48
	popq	%rbp
	.cfi_def_cfa_offset 40
	popq	%r12
	.cfi_def_cfa_offset 32
	popq	%r13
	.cfi_def_cfa_offset 24
	popq	%r14
	.cfi_def_cfa_offset 16
	popq	%r15
	.cfi_def_cfa_offset 8
	ret
	.p2align 4,,10
	.p2align 3
.L624:
	.cfi_restore_state
	movq	%rbp, %r14
	subq	(%r12), %r14
	movq	%r14, %rax
	sarq	$3, %rax
	testq	%rax, %rax
	je	.L633
	leaq	(%rax,%rax), %rdx
	movq	$-8, %r15
	cmpq	%rdx, %rax
	jbe	.L648
.L627:
	movq	%r15, %rdi
	call	_Znwm@PLT
	movq	%rax, %r13
.L628:
	addq	%r13, %r14
	je	.L629
	movq	%rbx, (%r14)
.L629:
	movq	(%r12), %r14
	movq	%rbp, %rcx
	subq	%r14, %rcx
	cmpq	%rbp, %r14
	je	.L630
	movq	%rcx, %rdx
	movq	%r14, %rsi
	movq	%r13, %rdi
	movq	%rcx, 8(%rsp)
	call	memmove@PLT
	movq	8(%rsp), %rcx
.L630:
	movq	8(%r12), %rax
	leaq	8(%r13,%rcx), %rcx
	movq	%rax, %r8
	subq	%rbp, %r8
	cmpq	%rbp, %rax
	je	.L631
	movq	%r8, %rdx
	movq	%rcx, %rdi
	movq	%rbp, %rsi
	movq	%r8, 8(%rsp)
	call	memmove@PLT
	movq	8(%rsp), %r8
	movq	%rax, %rcx
.L631:
	testq	%r14, %r14
	leaq	(%rcx,%r8), %rbp
	je	.L632
	movq	%r14, %rdi
	call	_ZdlPv@PLT
.L632:
	movq	%r13, (%r12)
	addq	%r15, %r13
	movq	%rbp, 8(%r12)
	movq	%r13, 16(%r12)
	jmp	.L626
	.p2align 4,,10
	.p2align 3
.L633:
	movl	$8, %r15d
	jmp	.L627
	.p2align 4,,10
	.p2align 3
.L648:
	movabsq	$2305843009213693951, %rcx
	cmpq	%rcx, %rdx
	ja	.L627
	xorl	%r15d, %r15d
	xorl	%r13d, %r13d
	testq	%rdx, %rdx
	je	.L628
	salq	$4, %rax
	movq	%rax, %r15
	jmp	.L627
	.cfi_endproc
.LFE1555:
	.size	_ZN8opendnp310CommandSet18StartHeaderAOInt32Ev, .-_ZN8opendnp310CommandSet18StartHeaderAOInt32Ev
	.align 2
	.p2align 4,,15
	.globl	_ZN8opendnp310CommandSetC2ESt16initializer_listINS_7IndexedINS_17AnalogOutputInt32EEEE
	.type	_ZN8opendnp310CommandSetC2ESt16initializer_listINS_7IndexedINS_17AnalogOutputInt32EEEE, @function
_ZN8opendnp310CommandSetC2ESt16initializer_listINS_7IndexedINS_17AnalogOutputInt32EEEE:
.LFB1546:
	.cfi_startproc
	.cfi_personality 0x9b,DW.ref.__gxx_personality_v0
	.cfi_lsda 0x1b,.LLSDA1546
	testq	%rdx, %rdx
	movq	$0, (%rdi)
	movq	$0, 8(%rdi)
	movq	$0, 16(%rdi)
	jne	.L666
	rep ret
	.p2align 4,,10
	.p2align 3
.L666:
	pushq	%r14
	.cfi_def_cfa_offset 16
	.cfi_offset 14, -16
	pushq	%r13
	.cfi_def_cfa_offset 24
	.cfi_offset 13, -24
	movq	%rsi, %r14
	pushq	%r12
	.cfi_def_cfa_offset 32
	.cfi_offset 12, -32
	pushq	%rbp
	.cfi_def_cfa_offset 40
	.cfi_offset 6, -40
	movq	%rdx, %r13
	pushq	%rbx
	.cfi_def_cfa_offset 48
	.cfi_offset 3, -48
	movq	%rdi, %rbp
	movq	%rsi, %rbx
.LEHB17:
	call	_ZN8opendnp310CommandSet18StartHeaderAOInt32Ev@PLT
	movq	%rax, %r12
	leaq	0(%r13,%r13,2), %rax
	leaq	(%r14,%rax,4), %r13
	cmpq	%r14, %r13
	je	.L649
	.p2align 4,,10
	.p2align 3
.L651:
	movq	(%r12), %rax
	movzwl	8(%rbx), %edx
	movq	%rbx, %rsi
	movq	%r12, %rdi
	call	*(%rax)
.LEHE17:
	addq	$12, %rbx
	cmpq	%rbx, %r13
	jne	.L651
.L649:
	popq	%rbx
	.cfi_remember_state
	.cfi_def_cfa_offset 40
	popq	%rbp
	.cfi_def_cfa_offset 32
	popq	%r12
	.cfi_def_cfa_offset 24
	popq	%r13
	.cfi_def_cfa_offset 16
	popq	%r14
	.cfi_def_cfa_offset 8
	ret
.L654:
	.cfi_restore_state
	movq	0(%rbp), %rdi
	movq	%rax, %rbx
	testq	%rdi, %rdi
	je	.L653
	call	_ZdlPv@PLT
.L653:
	movq	%rbx, %rdi
.LEHB18:
	call	_Unwind_Resume@PLT
.LEHE18:
	.cfi_endproc
.LFE1546:
	.section	.gcc_except_table
.LLSDA1546:
	.byte	0xff
	.byte	0xff
	.byte	0x1
	.uleb128 .LLSDACSE1546-.LLSDACSB1546
.LLSDACSB1546:
	.uleb128 .LEHB17-.LFB1546
	.uleb128 .LEHE17-.LEHB17
	.uleb128 .L654-.LFB1546
	.uleb128 0
	.uleb128 .LEHB18-.LFB1546
	.uleb128 .LEHE18-.LEHB18
	.uleb128 0
	.uleb128 0
.LLSDACSE1546:
	.text
	.size	_ZN8opendnp310CommandSetC2ESt16initializer_listINS_7IndexedINS_17AnalogOutputInt32EEEE, .-_ZN8opendnp310CommandSetC2ESt16initializer_listINS_7IndexedINS_17AnalogOutputInt32EEEE
	.globl	_ZN8opendnp310CommandSetC1ESt16initializer_listINS_7IndexedINS_17AnalogOutputInt32EEEE
	.set	_ZN8opendnp310CommandSetC1ESt16initializer_listINS_7IndexedINS_17AnalogOutputInt32EEEE,_ZN8opendnp310CommandSetC2ESt16initializer_listINS_7IndexedINS_17AnalogOutputInt32EEEE
	.align 2
	.p2align 4,,15
	.globl	_ZN8opendnp310CommandSet18StartHeaderAOInt16Ev
	.type	_ZN8opendnp310CommandSet18StartHeaderAOInt16Ev, @function
_ZN8opendnp310CommandSet18StartHeaderAOInt16Ev:
.LFB1556:
	.cfi_startproc
	pushq	%r15
	.cfi_def_cfa_offset 16
	.cfi_offset 15, -16
	pushq	%r14
	.cfi_def_cfa_offset 24
	.cfi_offset 14, -24
	pushq	%r13
	.cfi_def_cfa_offset 32
	.cfi_offset 13, -32
	pushq	%r12
	.cfi_def_cfa_offset 40
	.cfi_offset 12, -40
	movq	%rdi, %r12
	pushq	%rbp
	.cfi_def_cfa_offset 48
	.cfi_offset 6, -48
	pushq	%rbx
	.cfi_def_cfa_offset 56
	.cfi_offset 3, -56
	movl	$72, %edi
	subq	$24, %rsp
	.cfi_def_cfa_offset 80
	call	_Znwm@PLT
	movq	%rax, %rbx
	movq	_ZTVN8opendnp318TypedCommandHeaderINS_17AnalogOutputInt16EEE@GOTPCREL(%rip), %rax
	movq	8(%r12), %rbp
	movl	$3, 16(%rbx)
	movq	$0, 48(%rbx)
	movq	$0, 56(%rbx)
	movq	$0, 64(%rbx)
	leaq	16(%rax), %rdx
	addq	$168, %rax
	cmpq	16(%r12), %rbp
	movq	%rax, 8(%rbx)
	movq	_ZN8opendnp311Group41Var210ReadTargetERN7openpal6RSliceERNS_17AnalogOutputInt16E@GOTPCREL(%rip), %rax
	movq	%rdx, (%rbx)
	movq	%rax, 24(%rbx)
	movq	_ZN8opendnp311Group41Var211WriteTargetERKNS_17AnalogOutputInt16ERN7openpal6WSliceE@GOTPCREL(%rip), %rax
	movq	%rax, 32(%rbx)
	movl	$553, %eax
	movw	%ax, 40(%rbx)
	je	.L668
	testq	%rbp, %rbp
	je	.L669
	movq	%rbx, 0(%rbp)
.L669:
	addq	$8, %rbp
	movq	%rbp, 8(%r12)
.L670:
	addq	$24, %rsp
	.cfi_remember_state
	.cfi_def_cfa_offset 56
	leaq	8(%rbx), %rax
	popq	%rbx
	.cfi_def_cfa_offset 48
	popq	%rbp
	.cfi_def_cfa_offset 40
	popq	%r12
	.cfi_def_cfa_offset 32
	popq	%r13
	.cfi_def_cfa_offset 24
	popq	%r14
	.cfi_def_cfa_offset 16
	popq	%r15
	.cfi_def_cfa_offset 8
	ret
	.p2align 4,,10
	.p2align 3
.L668:
	.cfi_restore_state
	movq	%rbp, %r14
	subq	(%r12), %r14
	movq	%r14, %rax
	sarq	$3, %rax
	testq	%rax, %rax
	je	.L677
	leaq	(%rax,%rax), %rdx
	movq	$-8, %r15
	cmpq	%rdx, %rax
	jbe	.L692
.L671:
	movq	%r15, %rdi
	call	_Znwm@PLT
	movq	%rax, %r13
.L672:
	addq	%r13, %r14
	je	.L673
	movq	%rbx, (%r14)
.L673:
	movq	(%r12), %r14
	movq	%rbp, %rcx
	subq	%r14, %rcx
	cmpq	%rbp, %r14
	je	.L674
	movq	%rcx, %rdx
	movq	%r14, %rsi
	movq	%r13, %rdi
	movq	%rcx, 8(%rsp)
	call	memmove@PLT
	movq	8(%rsp), %rcx
.L674:
	movq	8(%r12), %rax
	leaq	8(%r13,%rcx), %rcx
	movq	%rax, %r8
	subq	%rbp, %r8
	cmpq	%rbp, %rax
	je	.L675
	movq	%r8, %rdx
	movq	%rcx, %rdi
	movq	%rbp, %rsi
	movq	%r8, 8(%rsp)
	call	memmove@PLT
	movq	8(%rsp), %r8
	movq	%rax, %rcx
.L675:
	testq	%r14, %r14
	leaq	(%rcx,%r8), %rbp
	je	.L676
	movq	%r14, %rdi
	call	_ZdlPv@PLT
.L676:
	movq	%r13, (%r12)
	addq	%r15, %r13
	movq	%rbp, 8(%r12)
	movq	%r13, 16(%r12)
	jmp	.L670
	.p2align 4,,10
	.p2align 3
.L677:
	movl	$8, %r15d
	jmp	.L671
	.p2align 4,,10
	.p2align 3
.L692:
	movabsq	$2305843009213693951, %rcx
	cmpq	%rcx, %rdx
	ja	.L671
	xorl	%r15d, %r15d
	xorl	%r13d, %r13d
	testq	%rdx, %rdx
	je	.L672
	salq	$4, %rax
	movq	%rax, %r15
	jmp	.L671
	.cfi_endproc
.LFE1556:
	.size	_ZN8opendnp310CommandSet18StartHeaderAOInt16Ev, .-_ZN8opendnp310CommandSet18StartHeaderAOInt16Ev
	.align 2
	.p2align 4,,15
	.globl	_ZN8opendnp310CommandSetC2ESt16initializer_listINS_7IndexedINS_17AnalogOutputInt16EEEE
	.type	_ZN8opendnp310CommandSetC2ESt16initializer_listINS_7IndexedINS_17AnalogOutputInt16EEEE, @function
_ZN8opendnp310CommandSetC2ESt16initializer_listINS_7IndexedINS_17AnalogOutputInt16EEEE:
.LFB1543:
	.cfi_startproc
	.cfi_personality 0x9b,DW.ref.__gxx_personality_v0
	.cfi_lsda 0x1b,.LLSDA1543
	testq	%rdx, %rdx
	movq	$0, (%rdi)
	movq	$0, 8(%rdi)
	movq	$0, 16(%rdi)
	jne	.L710
	rep ret
	.p2align 4,,10
	.p2align 3
.L710:
	pushq	%r14
	.cfi_def_cfa_offset 16
	.cfi_offset 14, -16
	pushq	%r13
	.cfi_def_cfa_offset 24
	.cfi_offset 13, -24
	movq	%rsi, %r14
	pushq	%r12
	.cfi_def_cfa_offset 32
	.cfi_offset 12, -32
	pushq	%rbp
	.cfi_def_cfa_offset 40
	.cfi_offset 6, -40
	movq	%rdx, %r13
	pushq	%rbx
	.cfi_def_cfa_offset 48
	.cfi_offset 3, -48
	movq	%rdi, %rbp
	movq	%rsi, %rbx
.LEHB19:
	call	_ZN8opendnp310CommandSet18StartHeaderAOInt16Ev@PLT
	movq	%rax, %r12
	leaq	0(%r13,%r13,2), %rax
	leaq	(%r14,%rax,2), %r13
	cmpq	%r14, %r13
	je	.L693
	.p2align 4,,10
	.p2align 3
.L695:
	movq	(%r12), %rax
	movzwl	4(%rbx), %edx
	movq	%rbx, %rsi
	movq	%r12, %rdi
	call	*(%rax)
.LEHE19:
	addq	$6, %rbx
	cmpq	%rbx, %r13
	jne	.L695
.L693:
	popq	%rbx
	.cfi_remember_state
	.cfi_def_cfa_offset 40
	popq	%rbp
	.cfi_def_cfa_offset 32
	popq	%r12
	.cfi_def_cfa_offset 24
	popq	%r13
	.cfi_def_cfa_offset 16
	popq	%r14
	.cfi_def_cfa_offset 8
	ret
.L698:
	.cfi_restore_state
	movq	0(%rbp), %rdi
	movq	%rax, %rbx
	testq	%rdi, %rdi
	je	.L697
	call	_ZdlPv@PLT
.L697:
	movq	%rbx, %rdi
.LEHB20:
	call	_Unwind_Resume@PLT
.LEHE20:
	.cfi_endproc
.LFE1543:
	.section	.gcc_except_table
.LLSDA1543:
	.byte	0xff
	.byte	0xff
	.byte	0x1
	.uleb128 .LLSDACSE1543-.LLSDACSB1543
.LLSDACSB1543:
	.uleb128 .LEHB19-.LFB1543
	.uleb128 .LEHE19-.LEHB19
	.uleb128 .L698-.LFB1543
	.uleb128 0
	.uleb128 .LEHB20-.LFB1543
	.uleb128 .LEHE20-.LEHB20
	.uleb128 0
	.uleb128 0
.LLSDACSE1543:
	.text
	.size	_ZN8opendnp310CommandSetC2ESt16initializer_listINS_7IndexedINS_17AnalogOutputInt16EEEE, .-_ZN8opendnp310CommandSetC2ESt16initializer_listINS_7IndexedINS_17AnalogOutputInt16EEEE
	.globl	_ZN8opendnp310CommandSetC1ESt16initializer_listINS_7IndexedINS_17AnalogOutputInt16EEEE
	.set	_ZN8opendnp310CommandSetC1ESt16initializer_listINS_7IndexedINS_17AnalogOutputInt16EEEE,_ZN8opendnp310CommandSetC2ESt16initializer_listINS_7IndexedINS_17AnalogOutputInt16EEEE
	.align 2
	.p2align 4,,15
	.globl	_ZN8opendnp310CommandSet20StartHeaderAOFloat32Ev
	.type	_ZN8opendnp310CommandSet20StartHeaderAOFloat32Ev, @function
_ZN8opendnp310CommandSet20StartHeaderAOFloat32Ev:
.LFB1557:
	.cfi_startproc
	pushq	%r15
	.cfi_def_cfa_offset 16
	.cfi_offset 15, -16
	pushq	%r14
	.cfi_def_cfa_offset 24
	.cfi_offset 14, -24
	pushq	%r13
	.cfi_def_cfa_offset 32
	.cfi_offset 13, -32
	pushq	%r12
	.cfi_def_cfa_offset 40
	.cfi_offset 12, -40
	movq	%rdi, %r12
	pushq	%rbp
	.cfi_def_cfa_offset 48
	.cfi_offset 6, -48
	pushq	%rbx
	.cfi_def_cfa_offset 56
	.cfi_offset 3, -56
	movl	$72, %edi
	subq	$24, %rsp
	.cfi_def_cfa_offset 80
	call	_Znwm@PLT
	movq	%rax, %rbx
	movq	_ZTVN8opendnp318TypedCommandHeaderINS_19AnalogOutputFloat32EEE@GOTPCREL(%rip), %rax
	movq	8(%r12), %rbp
	movl	$5, 16(%rbx)
	movq	$0, 48(%rbx)
	movq	$0, 56(%rbx)
	movq	$0, 64(%rbx)
	leaq	16(%rax), %rdx
	addq	$168, %rax
	cmpq	16(%r12), %rbp
	movq	%rax, 8(%rbx)
	movq	_ZN8opendnp311Group41Var310ReadTargetERN7openpal6RSliceERNS_19AnalogOutputFloat32E@GOTPCREL(%rip), %rax
	movq	%rdx, (%rbx)
	movq	%rax, 24(%rbx)
	movq	_ZN8opendnp311Group41Var311WriteTargetERKNS_19AnalogOutputFloat32ERN7openpal6WSliceE@GOTPCREL(%rip), %rax
	movq	%rax, 32(%rbx)
	movl	$809, %eax
	movw	%ax, 40(%rbx)
	je	.L712
	testq	%rbp, %rbp
	je	.L713
	movq	%rbx, 0(%rbp)
.L713:
	addq	$8, %rbp
	movq	%rbp, 8(%r12)
.L714:
	addq	$24, %rsp
	.cfi_remember_state
	.cfi_def_cfa_offset 56
	leaq	8(%rbx), %rax
	popq	%rbx
	.cfi_def_cfa_offset 48
	popq	%rbp
	.cfi_def_cfa_offset 40
	popq	%r12
	.cfi_def_cfa_offset 32
	popq	%r13
	.cfi_def_cfa_offset 24
	popq	%r14
	.cfi_def_cfa_offset 16
	popq	%r15
	.cfi_def_cfa_offset 8
	ret
	.p2align 4,,10
	.p2align 3
.L712:
	.cfi_restore_state
	movq	%rbp, %r14
	subq	(%r12), %r14
	movq	%r14, %rax
	sarq	$3, %rax
	testq	%rax, %rax
	je	.L721
	leaq	(%rax,%rax), %rdx
	movq	$-8, %r15
	cmpq	%rdx, %rax
	jbe	.L736
.L715:
	movq	%r15, %rdi
	call	_Znwm@PLT
	movq	%rax, %r13
.L716:
	addq	%r13, %r14
	je	.L717
	movq	%rbx, (%r14)
.L717:
	movq	(%r12), %r14
	movq	%rbp, %rcx
	subq	%r14, %rcx
	cmpq	%rbp, %r14
	je	.L718
	movq	%rcx, %rdx
	movq	%r14, %rsi
	movq	%r13, %rdi
	movq	%rcx, 8(%rsp)
	call	memmove@PLT
	movq	8(%rsp), %rcx
.L718:
	movq	8(%r12), %rax
	leaq	8(%r13,%rcx), %rcx
	movq	%rax, %r8
	subq	%rbp, %r8
	cmpq	%rbp, %rax
	je	.L719
	movq	%r8, %rdx
	movq	%rcx, %rdi
	movq	%rbp, %rsi
	movq	%r8, 8(%rsp)
	call	memmove@PLT
	movq	8(%rsp), %r8
	movq	%rax, %rcx
.L719:
	testq	%r14, %r14
	leaq	(%rcx,%r8), %rbp
	je	.L720
	movq	%r14, %rdi
	call	_ZdlPv@PLT
.L720:
	movq	%r13, (%r12)
	addq	%r15, %r13
	movq	%rbp, 8(%r12)
	movq	%r13, 16(%r12)
	jmp	.L714
	.p2align 4,,10
	.p2align 3
.L721:
	movl	$8, %r15d
	jmp	.L715
	.p2align 4,,10
	.p2align 3
.L736:
	movabsq	$2305843009213693951, %rcx
	cmpq	%rcx, %rdx
	ja	.L715
	xorl	%r15d, %r15d
	xorl	%r13d, %r13d
	testq	%rdx, %rdx
	je	.L716
	salq	$4, %rax
	movq	%rax, %r15
	jmp	.L715
	.cfi_endproc
.LFE1557:
	.size	_ZN8opendnp310CommandSet20StartHeaderAOFloat32Ev, .-_ZN8opendnp310CommandSet20StartHeaderAOFloat32Ev
	.align 2
	.p2align 4,,15
	.globl	_ZN8opendnp310CommandSetC2ESt16initializer_listINS_7IndexedINS_19AnalogOutputFloat32EEEE
	.type	_ZN8opendnp310CommandSetC2ESt16initializer_listINS_7IndexedINS_19AnalogOutputFloat32EEEE, @function
_ZN8opendnp310CommandSetC2ESt16initializer_listINS_7IndexedINS_19AnalogOutputFloat32EEEE:
.LFB1549:
	.cfi_startproc
	.cfi_personality 0x9b,DW.ref.__gxx_personality_v0
	.cfi_lsda 0x1b,.LLSDA1549
	testq	%rdx, %rdx
	movq	$0, (%rdi)
	movq	$0, 8(%rdi)
	movq	$0, 16(%rdi)
	jne	.L754
	rep ret
	.p2align 4,,10
	.p2align 3
.L754:
	pushq	%r14
	.cfi_def_cfa_offset 16
	.cfi_offset 14, -16
	pushq	%r13
	.cfi_def_cfa_offset 24
	.cfi_offset 13, -24
	movq	%rsi, %r14
	pushq	%r12
	.cfi_def_cfa_offset 32
	.cfi_offset 12, -32
	pushq	%rbp
	.cfi_def_cfa_offset 40
	.cfi_offset 6, -40
	movq	%rdx, %r13
	pushq	%rbx
	.cfi_def_cfa_offset 48
	.cfi_offset 3, -48
	movq	%rdi, %rbp
	movq	%rsi, %rbx
.LEHB21:
	call	_ZN8opendnp310CommandSet20StartHeaderAOFloat32Ev@PLT
	movq	%rax, %r12
	leaq	0(%r13,%r13,2), %rax
	leaq	(%r14,%rax,4), %r13
	cmpq	%r14, %r13
	je	.L737
	.p2align 4,,10
	.p2align 3
.L739:
	movq	(%r12), %rax
	movzwl	8(%rbx), %edx
	movq	%rbx, %rsi
	movq	%r12, %rdi
	call	*(%rax)
.LEHE21:
	addq	$12, %rbx
	cmpq	%rbx, %r13
	jne	.L739
.L737:
	popq	%rbx
	.cfi_remember_state
	.cfi_def_cfa_offset 40
	popq	%rbp
	.cfi_def_cfa_offset 32
	popq	%r12
	.cfi_def_cfa_offset 24
	popq	%r13
	.cfi_def_cfa_offset 16
	popq	%r14
	.cfi_def_cfa_offset 8
	ret
.L742:
	.cfi_restore_state
	movq	0(%rbp), %rdi
	movq	%rax, %rbx
	testq	%rdi, %rdi
	je	.L741
	call	_ZdlPv@PLT
.L741:
	movq	%rbx, %rdi
.LEHB22:
	call	_Unwind_Resume@PLT
.LEHE22:
	.cfi_endproc
.LFE1549:
	.section	.gcc_except_table
.LLSDA1549:
	.byte	0xff
	.byte	0xff
	.byte	0x1
	.uleb128 .LLSDACSE1549-.LLSDACSB1549
.LLSDACSB1549:
	.uleb128 .LEHB21-.LFB1549
	.uleb128 .LEHE21-.LEHB21
	.uleb128 .L742-.LFB1549
	.uleb128 0
	.uleb128 .LEHB22-.LFB1549
	.uleb128 .LEHE22-.LEHB22
	.uleb128 0
	.uleb128 0
.LLSDACSE1549:
	.text
	.size	_ZN8opendnp310CommandSetC2ESt16initializer_listINS_7IndexedINS_19AnalogOutputFloat32EEEE, .-_ZN8opendnp310CommandSetC2ESt16initializer_listINS_7IndexedINS_19AnalogOutputFloat32EEEE
	.globl	_ZN8opendnp310CommandSetC1ESt16initializer_listINS_7IndexedINS_19AnalogOutputFloat32EEEE
	.set	_ZN8opendnp310CommandSetC1ESt16initializer_listINS_7IndexedINS_19AnalogOutputFloat32EEEE,_ZN8opendnp310CommandSetC2ESt16initializer_listINS_7IndexedINS_19AnalogOutputFloat32EEEE
	.align 2
	.p2align 4,,15
	.globl	_ZN8opendnp310CommandSet21StartHeaderAODouble64Ev
	.type	_ZN8opendnp310CommandSet21StartHeaderAODouble64Ev, @function
_ZN8opendnp310CommandSet21StartHeaderAODouble64Ev:
.LFB1558:
	.cfi_startproc
	pushq	%r15
	.cfi_def_cfa_offset 16
	.cfi_offset 15, -16
	pushq	%r14
	.cfi_def_cfa_offset 24
	.cfi_offset 14, -24
	pushq	%r13
	.cfi_def_cfa_offset 32
	.cfi_offset 13, -32
	pushq	%r12
	.cfi_def_cfa_offset 40
	.cfi_offset 12, -40
	movq	%rdi, %r12
	pushq	%rbp
	.cfi_def_cfa_offset 48
	.cfi_offset 6, -48
	pushq	%rbx
	.cfi_def_cfa_offset 56
	.cfi_offset 3, -56
	movl	$72, %edi
	subq	$24, %rsp
	.cfi_def_cfa_offset 80
	call	_Znwm@PLT
	movq	%rax, %rbx
	movq	_ZTVN8opendnp318TypedCommandHeaderINS_20AnalogOutputDouble64EEE@GOTPCREL(%rip), %rax
	movq	8(%r12), %rbp
	movl	$9, 16(%rbx)
	movq	$0, 48(%rbx)
	movq	$0, 56(%rbx)
	movq	$0, 64(%rbx)
	leaq	16(%rax), %rdx
	addq	$168, %rax
	cmpq	16(%r12), %rbp
	movq	%rax, 8(%rbx)
	movq	_ZN8opendnp311Group41Var410ReadTargetERN7openpal6RSliceERNS_20AnalogOutputDouble64E@GOTPCREL(%rip), %rax
	movq	%rdx, (%rbx)
	movq	%rax, 24(%rbx)
	movq	_ZN8opendnp311Group41Var411WriteTargetERKNS_20AnalogOutputDouble64ERN7openpal6WSliceE@GOTPCREL(%rip), %rax
	movq	%rax, 32(%rbx)
	movl	$1065, %eax
	movw	%ax, 40(%rbx)
	je	.L756
	testq	%rbp, %rbp
	je	.L757
	movq	%rbx, 0(%rbp)
.L757:
	addq	$8, %rbp
	movq	%rbp, 8(%r12)
.L758:
	addq	$24, %rsp
	.cfi_remember_state
	.cfi_def_cfa_offset 56
	leaq	8(%rbx), %rax
	popq	%rbx
	.cfi_def_cfa_offset 48
	popq	%rbp
	.cfi_def_cfa_offset 40
	popq	%r12
	.cfi_def_cfa_offset 32
	popq	%r13
	.cfi_def_cfa_offset 24
	popq	%r14
	.cfi_def_cfa_offset 16
	popq	%r15
	.cfi_def_cfa_offset 8
	ret
	.p2align 4,,10
	.p2align 3
.L756:
	.cfi_restore_state
	movq	%rbp, %r14
	subq	(%r12), %r14
	movq	%r14, %rax
	sarq	$3, %rax
	testq	%rax, %rax
	je	.L765
	leaq	(%rax,%rax), %rdx
	movq	$-8, %r15
	cmpq	%rdx, %rax
	jbe	.L780
.L759:
	movq	%r15, %rdi
	call	_Znwm@PLT
	movq	%rax, %r13
.L760:
	addq	%r13, %r14
	je	.L761
	movq	%rbx, (%r14)
.L761:
	movq	(%r12), %r14
	movq	%rbp, %rcx
	subq	%r14, %rcx
	cmpq	%rbp, %r14
	je	.L762
	movq	%rcx, %rdx
	movq	%r14, %rsi
	movq	%r13, %rdi
	movq	%rcx, 8(%rsp)
	call	memmove@PLT
	movq	8(%rsp), %rcx
.L762:
	movq	8(%r12), %rax
	leaq	8(%r13,%rcx), %rcx
	movq	%rax, %r8
	subq	%rbp, %r8
	cmpq	%rbp, %rax
	je	.L763
	movq	%r8, %rdx
	movq	%rcx, %rdi
	movq	%rbp, %rsi
	movq	%r8, 8(%rsp)
	call	memmove@PLT
	movq	8(%rsp), %r8
	movq	%rax, %rcx
.L763:
	testq	%r14, %r14
	leaq	(%rcx,%r8), %rbp
	je	.L764
	movq	%r14, %rdi
	call	_ZdlPv@PLT
.L764:
	movq	%r13, (%r12)
	addq	%r15, %r13
	movq	%rbp, 8(%r12)
	movq	%r13, 16(%r12)
	jmp	.L758
	.p2align 4,,10
	.p2align 3
.L765:
	movl	$8, %r15d
	jmp	.L759
	.p2align 4,,10
	.p2align 3
.L780:
	movabsq	$2305843009213693951, %rcx
	cmpq	%rcx, %rdx
	ja	.L759
	xorl	%r15d, %r15d
	xorl	%r13d, %r13d
	testq	%rdx, %rdx
	je	.L760
	salq	$4, %rax
	movq	%rax, %r15
	jmp	.L759
	.cfi_endproc
.LFE1558:
	.size	_ZN8opendnp310CommandSet21StartHeaderAODouble64Ev, .-_ZN8opendnp310CommandSet21StartHeaderAODouble64Ev
	.align 2
	.p2align 4,,15
	.globl	_ZN8opendnp310CommandSetC2ESt16initializer_listINS_7IndexedINS_20AnalogOutputDouble64EEEE
	.type	_ZN8opendnp310CommandSetC2ESt16initializer_listINS_7IndexedINS_20AnalogOutputDouble64EEEE, @function
_ZN8opendnp310CommandSetC2ESt16initializer_listINS_7IndexedINS_20AnalogOutputDouble64EEEE:
.LFB1552:
	.cfi_startproc
	.cfi_personality 0x9b,DW.ref.__gxx_personality_v0
	.cfi_lsda 0x1b,.LLSDA1552
	testq	%rdx, %rdx
	movq	$0, (%rdi)
	movq	$0, 8(%rdi)
	movq	$0, 16(%rdi)
	jne	.L798
	rep ret
	.p2align 4,,10
	.p2align 3
.L798:
	pushq	%r14
	.cfi_def_cfa_offset 16
	.cfi_offset 14, -16
	pushq	%r13
	.cfi_def_cfa_offset 24
	.cfi_offset 13, -24
	movq	%rsi, %r14
	pushq	%r12
	.cfi_def_cfa_offset 32
	.cfi_offset 12, -32
	pushq	%rbp
	.cfi_def_cfa_offset 40
	.cfi_offset 6, -40
	movq	%rdx, %r13
	pushq	%rbx
	.cfi_def_cfa_offset 48
	.cfi_offset 3, -48
	movq	%rdi, %rbp
	movq	%rsi, %rbx
.LEHB23:
	call	_ZN8opendnp310CommandSet21StartHeaderAODouble64Ev@PLT
	movq	%rax, %r12
	leaq	0(%r13,%r13,2), %rax
	leaq	(%r14,%rax,8), %r13
	cmpq	%r14, %r13
	je	.L781
	.p2align 4,,10
	.p2align 3
.L783:
	movq	(%r12), %rax
	movzwl	16(%rbx), %edx
	movq	%rbx, %rsi
	movq	%r12, %rdi
	call	*(%rax)
.LEHE23:
	addq	$24, %rbx
	cmpq	%rbx, %r13
	jne	.L783
.L781:
	popq	%rbx
	.cfi_remember_state
	.cfi_def_cfa_offset 40
	popq	%rbp
	.cfi_def_cfa_offset 32
	popq	%r12
	.cfi_def_cfa_offset 24
	popq	%r13
	.cfi_def_cfa_offset 16
	popq	%r14
	.cfi_def_cfa_offset 8
	ret
.L786:
	.cfi_restore_state
	movq	0(%rbp), %rdi
	movq	%rax, %rbx
	testq	%rdi, %rdi
	je	.L785
	call	_ZdlPv@PLT
.L785:
	movq	%rbx, %rdi
.LEHB24:
	call	_Unwind_Resume@PLT
.LEHE24:
	.cfi_endproc
.LFE1552:
	.section	.gcc_except_table
.LLSDA1552:
	.byte	0xff
	.byte	0xff
	.byte	0x1
	.uleb128 .LLSDACSE1552-.LLSDACSB1552
.LLSDACSB1552:
	.uleb128 .LEHB23-.LFB1552
	.uleb128 .LEHE23-.LEHB23
	.uleb128 .L786-.LFB1552
	.uleb128 0
	.uleb128 .LEHB24-.LFB1552
	.uleb128 .LEHE24-.LEHB24
	.uleb128 0
	.uleb128 0
.LLSDACSE1552:
	.text
	.size	_ZN8opendnp310CommandSetC2ESt16initializer_listINS_7IndexedINS_20AnalogOutputDouble64EEEE, .-_ZN8opendnp310CommandSetC2ESt16initializer_listINS_7IndexedINS_20AnalogOutputDouble64EEEE
	.globl	_ZN8opendnp310CommandSetC1ESt16initializer_listINS_7IndexedINS_20AnalogOutputDouble64EEEE
	.set	_ZN8opendnp310CommandSetC1ESt16initializer_listINS_7IndexedINS_20AnalogOutputDouble64EEEE,_ZN8opendnp310CommandSetC2ESt16initializer_listINS_7IndexedINS_20AnalogOutputDouble64EEEE
	.section	.text._ZNSt6vectorIN8opendnp318TypedCommandHeaderINS0_20AnalogOutputDouble64EE6RecordESaIS4_EE17_M_realloc_insertIJS4_EEEvN9__gnu_cxx17__normal_iteratorIPS4_S6_EEDpOT_,"axG",@progbits,_ZNSt6vectorIN8opendnp318TypedCommandHeaderINS0_20AnalogOutputDouble64EE6RecordESaIS4_EE17_M_realloc_insertIJS4_EEEvN9__gnu_cxx17__normal_iteratorIPS4_S6_EEDpOT_,comdat
	.align 2
	.p2align 4,,15
	.weak	_ZNSt6vectorIN8opendnp318TypedCommandHeaderINS0_20AnalogOutputDouble64EE6RecordESaIS4_EE17_M_realloc_insertIJS4_EEEvN9__gnu_cxx17__normal_iteratorIPS4_S6_EEDpOT_
	.type	_ZNSt6vectorIN8opendnp318TypedCommandHeaderINS0_20AnalogOutputDouble64EE6RecordESaIS4_EE17_M_realloc_insertIJS4_EEEvN9__gnu_cxx17__normal_iteratorIPS4_S6_EEDpOT_, @function
_ZNSt6vectorIN8opendnp318TypedCommandHeaderINS0_20AnalogOutputDouble64EE6RecordESaIS4_EE17_M_realloc_insertIJS4_EEEvN9__gnu_cxx17__normal_iteratorIPS4_S6_EEDpOT_:
.LFB2284:
	.cfi_startproc
	pushq	%r15
	.cfi_def_cfa_offset 16
	.cfi_offset 15, -16
	pushq	%r14
	.cfi_def_cfa_offset 24
	.cfi_offset 14, -24
	movq	%rdx, %r15
	pushq	%r13
	.cfi_def_cfa_offset 32
	.cfi_offset 13, -32
	pushq	%r12
	.cfi_def_cfa_offset 40
	.cfi_offset 12, -40
	movabsq	$-6148914691236517205, %rdx
	pushq	%rbp
	.cfi_def_cfa_offset 48
	.cfi_offset 6, -48
	pushq	%rbx
	.cfi_def_cfa_offset 56
	.cfi_offset 3, -56
	movq	%rdi, %rbp
	movq	%rsi, %rbx
	movq	%rsi, %r14
	subq	$8, %rsp
	.cfi_def_cfa_offset 64
	movq	8(%rbp), %rax
	movq	(%rdi), %rdi
	movq	%rax, %rcx
	subq	%rdi, %rbx
	subq	%rdi, %rcx
	sarq	$3, %rcx
	imulq	%rdx, %rcx
	testq	%rcx, %rcx
	je	.L815
	leaq	(%rcx,%rcx), %rdx
	movq	$-16, %r13
	cmpq	%rdx, %rcx
	jbe	.L831
.L801:
	movq	%r13, %rdi
	call	_Znwm@PLT
	movq	0(%rbp), %rdi
	movq	%rax, %r12
	movq	8(%rbp), %rax
	leaq	24(%r12), %rcx
	addq	%r12, %r13
.L802:
	addq	%r12, %rbx
	je	.L803
	movdqu	(%r15), %xmm0
	movq	16(%r15), %rdx
	movups	%xmm0, (%rbx)
	movq	%rdx, 16(%rbx)
.L803:
	cmpq	%rdi, %r14
	je	.L804
	leaq	24(%rdi), %rdx
	movq	%r14, %rbx
	movq	%rdi, %r8
	subq	%rdx, %rbx
	movq	%rbx, %rdx
	shrq	$3, %rdx
	leaq	24(%r12,%rdx,8), %rcx
	movq	%r12, %rdx
	.p2align 4,,10
	.p2align 3
.L806:
	testq	%rdx, %rdx
	je	.L832
.L808:
	movdqu	(%r8), %xmm0
	addq	$24, %rdx
	addq	$24, %r8
	movups	%xmm0, -24(%rdx)
	movq	-8(%r8), %r9
	movq	%r9, -8(%rdx)
	cmpq	%rdx, %rcx
	jne	.L806
.L807:
	addq	$24, %rcx
.L804:
	cmpq	%rax, %r14
	je	.L820
	leaq	24(%r14), %rdx
	movq	%r14, %rsi
	subq	%rdx, %rax
	movq	%rax, %rdx
	shrq	$3, %rdx
	leaq	24(%rcx,%rdx,8), %rbx
	.p2align 4,,10
	.p2align 3
.L811:
	testq	%rcx, %rcx
	je	.L833
.L813:
	movq	16(%rsi), %rdx
	addq	$24, %rcx
	addq	$24, %rsi
	movdqu	-24(%rsi), %xmm0
	movq	%rdx, -8(%rcx)
	movups	%xmm0, -24(%rcx)
	cmpq	%rbx, %rcx
	jne	.L811
.L809:
	testq	%rdi, %rdi
	je	.L814
	call	_ZdlPv@PLT
.L814:
	movq	%r12, 0(%rbp)
	movq	%rbx, 8(%rbp)
	movq	%r13, 16(%rbp)
	addq	$8, %rsp
	.cfi_remember_state
	.cfi_def_cfa_offset 56
	popq	%rbx
	.cfi_def_cfa_offset 48
	popq	%rbp
	.cfi_def_cfa_offset 40
	popq	%r12
	.cfi_def_cfa_offset 32
	popq	%r13
	.cfi_def_cfa_offset 24
	popq	%r14
	.cfi_def_cfa_offset 16
	popq	%r15
	.cfi_def_cfa_offset 8
	ret
	.p2align 4,,10
	.p2align 3
.L815:
	.cfi_restore_state
	movl	$1, %edx
.L800:
	leaq	(%rdx,%rdx,2), %r13
	salq	$3, %r13
	jmp	.L801
	.p2align 4,,10
	.p2align 3
.L831:
	movabsq	$768614336404564650, %rcx
	cmpq	%rcx, %rdx
	ja	.L801
	testq	%rdx, %rdx
	jne	.L800
	movl	$24, %ecx
	xorl	%r13d, %r13d
	xorl	%r12d, %r12d
	jmp	.L802
	.p2align 4,,10
	.p2align 3
.L820:
	movq	%rcx, %rbx
	jmp	.L809
.L832:
	addq	$24, %r8
	cmpq	$24, %rcx
	je	.L807
	movl	$24, %edx
	jmp	.L808
.L833:
	addq	$24, %rsi
	cmpq	$24, %rbx
	je	.L809
	movl	$24, %ecx
	jmp	.L813
	.cfi_endproc
.LFE2284:
	.size	_ZNSt6vectorIN8opendnp318TypedCommandHeaderINS0_20AnalogOutputDouble64EE6RecordESaIS4_EE17_M_realloc_insertIJS4_EEEvN9__gnu_cxx17__normal_iteratorIPS4_S6_EEDpOT_, .-_ZNSt6vectorIN8opendnp318TypedCommandHeaderINS0_20AnalogOutputDouble64EE6RecordESaIS4_EE17_M_realloc_insertIJS4_EEEvN9__gnu_cxx17__normal_iteratorIPS4_S6_EEDpOT_
	.section	.text._ZN8opendnp318TypedCommandHeaderINS_20AnalogOutputDouble64EE3AddERKS1_t,"axG",@progbits,_ZN8opendnp318TypedCommandHeaderINS_20AnalogOutputDouble64EE3AddERKS1_t,comdat
	.align 2
	.p2align 4,,15
	.weak	_ZN8opendnp318TypedCommandHeaderINS_20AnalogOutputDouble64EE3AddERKS1_t
	.type	_ZN8opendnp318TypedCommandHeaderINS_20AnalogOutputDouble64EE3AddERKS1_t, @function
_ZN8opendnp318TypedCommandHeaderINS_20AnalogOutputDouble64EE3AddERKS1_t:
.LFB1969:
	.cfi_startproc
	pushq	%rbx
	.cfi_def_cfa_offset 16
	.cfi_offset 3, -16
	movq	%rdi, %rbx
	subq	$32, %rsp
	.cfi_def_cfa_offset 48
	movq	%fs:40, %rax
	movq	%rax, 24(%rsp)
	xorl	%eax, %eax
	movsd	(%rsi), %xmm0
	movzbl	8(%rsi), %eax
	movq	56(%rdi), %rsi
	cmpq	64(%rdi), %rsi
	movb	$0, (%rsp)
	movb	$127, 1(%rsp)
	movsd	%xmm0, 8(%rsp)
	movw	%dx, 2(%rsp)
	movb	%al, 16(%rsp)
	je	.L835
	testq	%rsi, %rsi
	je	.L836
	movdqa	(%rsp), %xmm0
	movups	%xmm0, (%rsi)
	movq	16(%rsp), %rax
	movq	%rax, 16(%rsi)
.L836:
	addq	$24, %rsi
	movq	%rsi, 56(%rbx)
.L837:
	movq	24(%rsp), %rcx
	xorq	%fs:40, %rcx
	leaq	8(%rbx), %rax
	jne	.L843
	addq	$32, %rsp
	.cfi_remember_state
	.cfi_def_cfa_offset 16
	popq	%rbx
	.cfi_def_cfa_offset 8
	ret
	.p2align 4,,10
	.p2align 3
.L835:
	.cfi_restore_state
	leaq	48(%rdi), %rdi
	movq	%rsp, %rdx
	call	_ZNSt6vectorIN8opendnp318TypedCommandHeaderINS0_20AnalogOutputDouble64EE6RecordESaIS4_EE17_M_realloc_insertIJS4_EEEvN9__gnu_cxx17__normal_iteratorIPS4_S6_EEDpOT_@PLT
	jmp	.L837
.L843:
	call	__stack_chk_fail@PLT
	.cfi_endproc
.LFE1969:
	.size	_ZN8opendnp318TypedCommandHeaderINS_20AnalogOutputDouble64EE3AddERKS1_t, .-_ZN8opendnp318TypedCommandHeaderINS_20AnalogOutputDouble64EE3AddERKS1_t
	.p2align 4,,15
	.weak	_ZThn8_N8opendnp318TypedCommandHeaderINS_20AnalogOutputDouble64EE3AddERKS1_t
	.type	_ZThn8_N8opendnp318TypedCommandHeaderINS_20AnalogOutputDouble64EE3AddERKS1_t, @function
_ZThn8_N8opendnp318TypedCommandHeaderINS_20AnalogOutputDouble64EE3AddERKS1_t:
.LFB2775:
	.cfi_startproc
	subq	$56, %rsp
	.cfi_def_cfa_offset 64
	movq	%rdi, %rax
	movzbl	8(%rsi), %ecx
	movsd	(%rsi), %xmm0
	movq	48(%rax), %rsi
	movq	%fs:40, %rdi
	movq	%rdi, 40(%rsp)
	xorl	%edi, %edi
	cmpq	56(%rax), %rsi
	movb	$0, 16(%rsp)
	movsd	%xmm0, 24(%rsp)
	movb	$127, 17(%rsp)
	movw	%dx, 18(%rsp)
	movb	%cl, 32(%rsp)
	je	.L845
	testq	%rsi, %rsi
	je	.L846
	movdqa	16(%rsp), %xmm0
	movups	%xmm0, (%rsi)
	movq	32(%rsp), %rdx
	movq	%rdx, 16(%rsi)
.L846:
	addq	$24, %rsi
	movq	%rsi, 48(%rax)
.L847:
	movq	40(%rsp), %rcx
	xorq	%fs:40, %rcx
	jne	.L853
	addq	$56, %rsp
	.cfi_remember_state
	.cfi_def_cfa_offset 8
	ret
	.p2align 4,,10
	.p2align 3
.L845:
	.cfi_restore_state
	leaq	40(%rax), %rdi
	leaq	16(%rsp), %rdx
	movq	%rax, 8(%rsp)
	call	_ZNSt6vectorIN8opendnp318TypedCommandHeaderINS0_20AnalogOutputDouble64EE6RecordESaIS4_EE17_M_realloc_insertIJS4_EEEvN9__gnu_cxx17__normal_iteratorIPS4_S6_EEDpOT_@PLT
	movq	8(%rsp), %rax
	jmp	.L847
.L853:
	call	__stack_chk_fail@PLT
	.cfi_endproc
.LFE2775:
	.size	_ZThn8_N8opendnp318TypedCommandHeaderINS_20AnalogOutputDouble64EE3AddERKS1_t, .-_ZThn8_N8opendnp318TypedCommandHeaderINS_20AnalogOutputDouble64EE3AddERKS1_t
	.section	.text._ZNSt6vectorIN8opendnp318TypedCommandHeaderINS0_19AnalogOutputFloat32EE6RecordESaIS4_EE17_M_realloc_insertIJS4_EEEvN9__gnu_cxx17__normal_iteratorIPS4_S6_EEDpOT_,"axG",@progbits,_ZNSt6vectorIN8opendnp318TypedCommandHeaderINS0_19AnalogOutputFloat32EE6RecordESaIS4_EE17_M_realloc_insertIJS4_EEEvN9__gnu_cxx17__normal_iteratorIPS4_S6_EEDpOT_,comdat
	.align 2
	.p2align 4,,15
	.weak	_ZNSt6vectorIN8opendnp318TypedCommandHeaderINS0_19AnalogOutputFloat32EE6RecordESaIS4_EE17_M_realloc_insertIJS4_EEEvN9__gnu_cxx17__normal_iteratorIPS4_S6_EEDpOT_
	.type	_ZNSt6vectorIN8opendnp318TypedCommandHeaderINS0_19AnalogOutputFloat32EE6RecordESaIS4_EE17_M_realloc_insertIJS4_EEEvN9__gnu_cxx17__normal_iteratorIPS4_S6_EEDpOT_, @function
_ZNSt6vectorIN8opendnp318TypedCommandHeaderINS0_19AnalogOutputFloat32EE6RecordESaIS4_EE17_M_realloc_insertIJS4_EEEvN9__gnu_cxx17__normal_iteratorIPS4_S6_EEDpOT_:
.LFB2294:
	.cfi_startproc
	pushq	%r15
	.cfi_def_cfa_offset 16
	.cfi_offset 15, -16
	pushq	%r14
	.cfi_def_cfa_offset 24
	.cfi_offset 14, -24
	movq	%rdx, %r15
	pushq	%r13
	.cfi_def_cfa_offset 32
	.cfi_offset 13, -32
	pushq	%r12
	.cfi_def_cfa_offset 40
	.cfi_offset 12, -40
	movabsq	$-6148914691236517205, %rdx
	pushq	%rbp
	.cfi_def_cfa_offset 48
	.cfi_offset 6, -48
	pushq	%rbx
	.cfi_def_cfa_offset 56
	.cfi_offset 3, -56
	movq	%rdi, %rbx
	movq	%rsi, %r13
	movq	%rsi, %r14
	subq	$8, %rsp
	.cfi_def_cfa_offset 64
	movq	8(%rbx), %rax
	movq	(%rdi), %rdi
	movq	%rax, %rcx
	subq	%rdi, %r13
	subq	%rdi, %rcx
	sarq	$2, %rcx
	imulq	%rdx, %rcx
	testq	%rcx, %rcx
	je	.L870
	leaq	(%rcx,%rcx), %rdx
	movq	$-4, %r12
	cmpq	%rdx, %rcx
	jbe	.L886
.L856:
	movq	%r12, %rdi
	call	_Znwm@PLT
	movq	(%rbx), %rdi
	movq	%rax, %rbp
	movq	8(%rbx), %rax
	leaq	12(%rbp), %rcx
	addq	%rbp, %r12
.L857:
	addq	%rbp, %r13
	je	.L858
	movq	(%r15), %rdx
	movq	%rdx, 0(%r13)
	movl	8(%r15), %edx
	movl	%edx, 8(%r13)
.L858:
	cmpq	%rdi, %r14
	je	.L859
	leaq	12(%rdi), %rdx
	movq	%r14, %rsi
	movq	%rdi, %r8
	subq	%rdx, %rsi
	movq	%rsi, %rdx
	shrq	$2, %rdx
	leaq	12(%rbp,%rdx,4), %rcx
	movq	%rbp, %rdx
	.p2align 4,,10
	.p2align 3
.L861:
	testq	%rdx, %rdx
	je	.L887
.L863:
	movq	(%r8), %r9
	addq	$12, %rdx
	addq	$12, %r8
	movq	%r9, -12(%rdx)
	movl	-4(%r8), %r9d
	movl	%r9d, -4(%rdx)
	cmpq	%rdx, %rcx
	jne	.L861
.L862:
	addq	$12, %rcx
.L859:
	cmpq	%rax, %r14
	je	.L875
	leaq	12(%r14), %rdx
	movq	%r14, %rsi
	subq	%rdx, %rax
	movq	%rax, %rdx
	shrq	$2, %rdx
	leaq	12(%rcx,%rdx,4), %r13
	.p2align 4,,10
	.p2align 3
.L866:
	testq	%rcx, %rcx
	je	.L888
.L868:
	movq	(%rsi), %rdx
	addq	$12, %rcx
	addq	$12, %rsi
	movq	%rdx, -12(%rcx)
	movl	-4(%rsi), %edx
	movl	%edx, -4(%rcx)
	cmpq	%r13, %rcx
	jne	.L866
.L864:
	testq	%rdi, %rdi
	je	.L869
	call	_ZdlPv@PLT
.L869:
	movq	%rbp, (%rbx)
	movq	%r13, 8(%rbx)
	movq	%r12, 16(%rbx)
	addq	$8, %rsp
	.cfi_remember_state
	.cfi_def_cfa_offset 56
	popq	%rbx
	.cfi_def_cfa_offset 48
	popq	%rbp
	.cfi_def_cfa_offset 40
	popq	%r12
	.cfi_def_cfa_offset 32
	popq	%r13
	.cfi_def_cfa_offset 24
	popq	%r14
	.cfi_def_cfa_offset 16
	popq	%r15
	.cfi_def_cfa_offset 8
	ret
	.p2align 4,,10
	.p2align 3
.L870:
	.cfi_restore_state
	movl	$1, %edx
.L855:
	leaq	(%rdx,%rdx,2), %r12
	salq	$2, %r12
	jmp	.L856
	.p2align 4,,10
	.p2align 3
.L886:
	movabsq	$1537228672809129301, %rcx
	cmpq	%rcx, %rdx
	ja	.L856
	testq	%rdx, %rdx
	jne	.L855
	movl	$12, %ecx
	xorl	%r12d, %r12d
	xorl	%ebp, %ebp
	jmp	.L857
	.p2align 4,,10
	.p2align 3
.L875:
	movq	%rcx, %r13
	jmp	.L864
.L887:
	addq	$12, %r8
	cmpq	$12, %rcx
	je	.L862
	movl	$12, %edx
	jmp	.L863
.L888:
	addq	$12, %rsi
	cmpq	$12, %r13
	je	.L864
	movl	$12, %ecx
	jmp	.L868
	.cfi_endproc
.LFE2294:
	.size	_ZNSt6vectorIN8opendnp318TypedCommandHeaderINS0_19AnalogOutputFloat32EE6RecordESaIS4_EE17_M_realloc_insertIJS4_EEEvN9__gnu_cxx17__normal_iteratorIPS4_S6_EEDpOT_, .-_ZNSt6vectorIN8opendnp318TypedCommandHeaderINS0_19AnalogOutputFloat32EE6RecordESaIS4_EE17_M_realloc_insertIJS4_EEEvN9__gnu_cxx17__normal_iteratorIPS4_S6_EEDpOT_
	.section	.text._ZN8opendnp318TypedCommandHeaderINS_19AnalogOutputFloat32EE3AddERKS1_t,"axG",@progbits,_ZN8opendnp318TypedCommandHeaderINS_19AnalogOutputFloat32EE3AddERKS1_t,comdat
	.align 2
	.p2align 4,,15
	.weak	_ZN8opendnp318TypedCommandHeaderINS_19AnalogOutputFloat32EE3AddERKS1_t
	.type	_ZN8opendnp318TypedCommandHeaderINS_19AnalogOutputFloat32EE3AddERKS1_t, @function
_ZN8opendnp318TypedCommandHeaderINS_19AnalogOutputFloat32EE3AddERKS1_t:
.LFB1981:
	.cfi_startproc
	pushq	%rbx
	.cfi_def_cfa_offset 16
	.cfi_offset 3, -16
	movq	%rdi, %rbx
	subq	$32, %rsp
	.cfi_def_cfa_offset 48
	movq	%fs:40, %rax
	movq	%rax, 24(%rsp)
	xorl	%eax, %eax
	movss	(%rsi), %xmm0
	movzbl	4(%rsi), %eax
	movq	56(%rdi), %rsi
	cmpq	64(%rdi), %rsi
	movss	%xmm0, 16(%rsp)
	movb	$0, 12(%rsp)
	movb	$127, 13(%rsp)
	movw	%dx, 14(%rsp)
	movb	%al, 20(%rsp)
	je	.L890
	testq	%rsi, %rsi
	je	.L891
	movq	12(%rsp), %rax
	movq	%rax, (%rsi)
	movl	20(%rsp), %eax
	movl	%eax, 8(%rsi)
.L891:
	addq	$12, %rsi
	movq	%rsi, 56(%rbx)
.L892:
	movq	24(%rsp), %rcx
	xorq	%fs:40, %rcx
	leaq	8(%rbx), %rax
	jne	.L898
	addq	$32, %rsp
	.cfi_remember_state
	.cfi_def_cfa_offset 16
	popq	%rbx
	.cfi_def_cfa_offset 8
	ret
	.p2align 4,,10
	.p2align 3
.L890:
	.cfi_restore_state
	leaq	12(%rsp), %rdx
	leaq	48(%rdi), %rdi
	call	_ZNSt6vectorIN8opendnp318TypedCommandHeaderINS0_19AnalogOutputFloat32EE6RecordESaIS4_EE17_M_realloc_insertIJS4_EEEvN9__gnu_cxx17__normal_iteratorIPS4_S6_EEDpOT_@PLT
	jmp	.L892
.L898:
	call	__stack_chk_fail@PLT
	.cfi_endproc
.LFE1981:
	.size	_ZN8opendnp318TypedCommandHeaderINS_19AnalogOutputFloat32EE3AddERKS1_t, .-_ZN8opendnp318TypedCommandHeaderINS_19AnalogOutputFloat32EE3AddERKS1_t
	.p2align 4,,15
	.weak	_ZThn8_N8opendnp318TypedCommandHeaderINS_19AnalogOutputFloat32EE3AddERKS1_t
	.type	_ZThn8_N8opendnp318TypedCommandHeaderINS_19AnalogOutputFloat32EE3AddERKS1_t, @function
_ZThn8_N8opendnp318TypedCommandHeaderINS_19AnalogOutputFloat32EE3AddERKS1_t:
.LFB2774:
	.cfi_startproc
	subq	$56, %rsp
	.cfi_def_cfa_offset 64
	movq	%rdi, %rax
	movzbl	4(%rsi), %ecx
	movss	(%rsi), %xmm0
	movq	48(%rax), %rsi
	movq	%fs:40, %rdi
	movq	%rdi, 40(%rsp)
	xorl	%edi, %edi
	cmpq	56(%rax), %rsi
	movb	$0, 28(%rsp)
	movss	%xmm0, 32(%rsp)
	movb	$127, 29(%rsp)
	movw	%dx, 30(%rsp)
	movb	%cl, 36(%rsp)
	je	.L900
	testq	%rsi, %rsi
	je	.L901
	movq	28(%rsp), %rdx
	movq	%rdx, (%rsi)
	movl	36(%rsp), %edx
	movl	%edx, 8(%rsi)
.L901:
	addq	$12, %rsi
	movq	%rsi, 48(%rax)
.L902:
	movq	40(%rsp), %rcx
	xorq	%fs:40, %rcx
	jne	.L908
	addq	$56, %rsp
	.cfi_remember_state
	.cfi_def_cfa_offset 8
	ret
	.p2align 4,,10
	.p2align 3
.L900:
	.cfi_restore_state
	leaq	40(%rax), %rdi
	leaq	28(%rsp), %rdx
	movq	%rax, 8(%rsp)
	call	_ZNSt6vectorIN8opendnp318TypedCommandHeaderINS0_19AnalogOutputFloat32EE6RecordESaIS4_EE17_M_realloc_insertIJS4_EEEvN9__gnu_cxx17__normal_iteratorIPS4_S6_EEDpOT_@PLT
	movq	8(%rsp), %rax
	jmp	.L902
.L908:
	call	__stack_chk_fail@PLT
	.cfi_endproc
.LFE2774:
	.size	_ZThn8_N8opendnp318TypedCommandHeaderINS_19AnalogOutputFloat32EE3AddERKS1_t, .-_ZThn8_N8opendnp318TypedCommandHeaderINS_19AnalogOutputFloat32EE3AddERKS1_t
	.section	.text._ZNSt6vectorIN8opendnp318TypedCommandHeaderINS0_17AnalogOutputInt16EE6RecordESaIS4_EE17_M_realloc_insertIJS4_EEEvN9__gnu_cxx17__normal_iteratorIPS4_S6_EEDpOT_,"axG",@progbits,_ZNSt6vectorIN8opendnp318TypedCommandHeaderINS0_17AnalogOutputInt16EE6RecordESaIS4_EE17_M_realloc_insertIJS4_EEEvN9__gnu_cxx17__normal_iteratorIPS4_S6_EEDpOT_,comdat
	.align 2
	.p2align 4,,15
	.weak	_ZNSt6vectorIN8opendnp318TypedCommandHeaderINS0_17AnalogOutputInt16EE6RecordESaIS4_EE17_M_realloc_insertIJS4_EEEvN9__gnu_cxx17__normal_iteratorIPS4_S6_EEDpOT_
	.type	_ZNSt6vectorIN8opendnp318TypedCommandHeaderINS0_17AnalogOutputInt16EE6RecordESaIS4_EE17_M_realloc_insertIJS4_EEEvN9__gnu_cxx17__normal_iteratorIPS4_S6_EEDpOT_, @function
_ZNSt6vectorIN8opendnp318TypedCommandHeaderINS0_17AnalogOutputInt16EE6RecordESaIS4_EE17_M_realloc_insertIJS4_EEEvN9__gnu_cxx17__normal_iteratorIPS4_S6_EEDpOT_:
.LFB2304:
	.cfi_startproc
	pushq	%r15
	.cfi_def_cfa_offset 16
	.cfi_offset 15, -16
	pushq	%r14
	.cfi_def_cfa_offset 24
	.cfi_offset 14, -24
	pushq	%r13
	.cfi_def_cfa_offset 32
	.cfi_offset 13, -32
	pushq	%r12
	.cfi_def_cfa_offset 40
	.cfi_offset 12, -40
	pushq	%rbp
	.cfi_def_cfa_offset 48
	.cfi_offset 6, -48
	pushq	%rbx
	.cfi_def_cfa_offset 56
	.cfi_offset 3, -56
	movq	%rdi, %rbp
	movq	%rsi, %rbx
	subq	$24, %rsp
	.cfi_def_cfa_offset 80
	movq	8(%rbp), %rsi
	movq	(%rdi), %rdi
	movq	%rbx, %r13
	movq	%rsi, %rax
	subq	%rdi, %r13
	subq	%rdi, %rax
	sarq	$3, %rax
	testq	%rax, %rax
	je	.L925
	leaq	(%rax,%rax), %rcx
	movq	$-8, %r14
	cmpq	%rcx, %rax
	jbe	.L940
.L911:
	movq	%r14, %rdi
	movq	%rdx, 8(%rsp)
	call	_Znwm@PLT
	movq	0(%rbp), %rdi
	movq	8(%rbp), %rsi
	leaq	8(%rax), %r15
	movq	8(%rsp), %rdx
	movq	%rax, %r12
	addq	%rax, %r14
.L912:
	addq	%r12, %r13
	je	.L913
	movq	(%rdx), %rax
	movq	%rax, 0(%r13)
.L913:
	cmpq	%rdi, %rbx
	je	.L914
	movq	%r12, %rcx
	movq	%rdi, %rdx
	.p2align 4,,10
	.p2align 3
.L916:
	testq	%rcx, %rcx
	je	.L941
.L918:
	movq	(%rdx), %rax
	addq	$8, %rdx
	addq	$8, %rcx
	movq	%rax, -8(%rcx)
	cmpq	%rdx, %rbx
	jne	.L916
.L917:
	leaq	8(%rdi), %rax
	movq	%rbx, %rcx
	subq	%rax, %rcx
	movq	%rcx, %rax
	shrq	$3, %rax
	leaq	16(%r12,%rax,8), %r15
.L914:
	cmpq	%rsi, %rbx
	je	.L919
	movq	%rbx, %rdx
	movq	%r15, %rcx
	.p2align 4,,10
	.p2align 3
.L921:
	testq	%rcx, %rcx
	je	.L942
.L923:
	movq	(%rdx), %r8
	addq	$8, %rdx
	addq	$8, %rcx
	movq	%r8, -8(%rcx)
	cmpq	%rsi, %rdx
	jne	.L921
.L922:
	addq	$8, %rbx
	subq	%rbx, %rsi
	shrq	$3, %rsi
	leaq	8(%r15,%rsi,8), %r15
.L919:
	testq	%rdi, %rdi
	je	.L924
	call	_ZdlPv@PLT
.L924:
	movq	%r12, 0(%rbp)
	movq	%r15, 8(%rbp)
	movq	%r14, 16(%rbp)
	addq	$24, %rsp
	.cfi_remember_state
	.cfi_def_cfa_offset 56
	popq	%rbx
	.cfi_def_cfa_offset 48
	popq	%rbp
	.cfi_def_cfa_offset 40
	popq	%r12
	.cfi_def_cfa_offset 32
	popq	%r13
	.cfi_def_cfa_offset 24
	popq	%r14
	.cfi_def_cfa_offset 16
	popq	%r15
	.cfi_def_cfa_offset 8
	ret
	.p2align 4,,10
	.p2align 3
.L925:
	.cfi_restore_state
	movl	$1, %ecx
.L910:
	leaq	0(,%rcx,8), %r14
	jmp	.L911
	.p2align 4,,10
	.p2align 3
.L940:
	movabsq	$2305843009213693951, %rax
	cmpq	%rax, %rcx
	ja	.L911
	testq	%rcx, %rcx
	jne	.L910
	movl	$8, %r15d
	xorl	%r14d, %r14d
	xorl	%r12d, %r12d
	jmp	.L912
	.p2align 4,,10
	.p2align 3
.L941:
	addq	$8, %rdx
	cmpq	%rdx, %rbx
	je	.L917
	movl	$8, %ecx
	jmp	.L918
.L942:
	addq	$8, %rdx
	cmpq	%rsi, %rdx
	je	.L922
	movl	$8, %ecx
	jmp	.L923
	.cfi_endproc
.LFE2304:
	.size	_ZNSt6vectorIN8opendnp318TypedCommandHeaderINS0_17AnalogOutputInt16EE6RecordESaIS4_EE17_M_realloc_insertIJS4_EEEvN9__gnu_cxx17__normal_iteratorIPS4_S6_EEDpOT_, .-_ZNSt6vectorIN8opendnp318TypedCommandHeaderINS0_17AnalogOutputInt16EE6RecordESaIS4_EE17_M_realloc_insertIJS4_EEEvN9__gnu_cxx17__normal_iteratorIPS4_S6_EEDpOT_
	.section	.text._ZN8opendnp318TypedCommandHeaderINS_17AnalogOutputInt16EE3AddERKS1_t,"axG",@progbits,_ZN8opendnp318TypedCommandHeaderINS_17AnalogOutputInt16EE3AddERKS1_t,comdat
	.align 2
	.p2align 4,,15
	.weak	_ZN8opendnp318TypedCommandHeaderINS_17AnalogOutputInt16EE3AddERKS1_t
	.type	_ZN8opendnp318TypedCommandHeaderINS_17AnalogOutputInt16EE3AddERKS1_t, @function
_ZN8opendnp318TypedCommandHeaderINS_17AnalogOutputInt16EE3AddERKS1_t:
.LFB1993:
	.cfi_startproc
	pushq	%rbx
	.cfi_def_cfa_offset 16
	.cfi_offset 3, -16
	movq	%rdi, %rbx
	subq	$16, %rsp
	.cfi_def_cfa_offset 32
	movzwl	(%rsi), %ecx
	movq	%fs:40, %rax
	movq	%rax, 8(%rsp)
	xorl	%eax, %eax
	movzbl	2(%rsi), %eax
	movq	56(%rdi), %rsi
	cmpq	64(%rdi), %rsi
	movb	$0, (%rsp)
	movb	$127, 1(%rsp)
	movw	%dx, 2(%rsp)
	movw	%cx, 4(%rsp)
	movb	%al, 6(%rsp)
	je	.L944
	testq	%rsi, %rsi
	je	.L945
	movq	(%rsp), %rax
	movq	%rax, (%rsi)
.L945:
	addq	$8, %rsi
	movq	%rsi, 56(%rbx)
.L946:
	movq	8(%rsp), %rdi
	xorq	%fs:40, %rdi
	leaq	8(%rbx), %rax
	jne	.L952
	addq	$16, %rsp
	.cfi_remember_state
	.cfi_def_cfa_offset 16
	popq	%rbx
	.cfi_def_cfa_offset 8
	ret
	.p2align 4,,10
	.p2align 3
.L944:
	.cfi_restore_state
	leaq	48(%rdi), %rdi
	movq	%rsp, %rdx
	call	_ZNSt6vectorIN8opendnp318TypedCommandHeaderINS0_17AnalogOutputInt16EE6RecordESaIS4_EE17_M_realloc_insertIJS4_EEEvN9__gnu_cxx17__normal_iteratorIPS4_S6_EEDpOT_@PLT
	jmp	.L946
.L952:
	call	__stack_chk_fail@PLT
	.cfi_endproc
.LFE1993:
	.size	_ZN8opendnp318TypedCommandHeaderINS_17AnalogOutputInt16EE3AddERKS1_t, .-_ZN8opendnp318TypedCommandHeaderINS_17AnalogOutputInt16EE3AddERKS1_t
	.p2align 4,,15
	.weak	_ZThn8_N8opendnp318TypedCommandHeaderINS_17AnalogOutputInt16EE3AddERKS1_t
	.type	_ZThn8_N8opendnp318TypedCommandHeaderINS_17AnalogOutputInt16EE3AddERKS1_t, @function
_ZThn8_N8opendnp318TypedCommandHeaderINS_17AnalogOutputInt16EE3AddERKS1_t:
.LFB2773:
	.cfi_startproc
	subq	$40, %rsp
	.cfi_def_cfa_offset 48
	movq	%rdi, %rax
	movzwl	(%rsi), %edi
	movq	%fs:40, %rcx
	movq	%rcx, 24(%rsp)
	xorl	%ecx, %ecx
	movzbl	2(%rsi), %ecx
	movq	48(%rax), %rsi
	cmpq	56(%rax), %rsi
	movb	$0, 16(%rsp)
	movb	$127, 17(%rsp)
	movw	%dx, 18(%rsp)
	movw	%di, 20(%rsp)
	movb	%cl, 22(%rsp)
	je	.L954
	testq	%rsi, %rsi
	je	.L955
	movq	16(%rsp), %rdx
	movq	%rdx, (%rsi)
.L955:
	addq	$8, %rsi
	movq	%rsi, 48(%rax)
.L956:
	movq	24(%rsp), %rcx
	xorq	%fs:40, %rcx
	jne	.L962
	addq	$40, %rsp
	.cfi_remember_state
	.cfi_def_cfa_offset 8
	ret
	.p2align 4,,10
	.p2align 3
.L954:
	.cfi_restore_state
	leaq	40(%rax), %rdi
	leaq	16(%rsp), %rdx
	movq	%rax, 8(%rsp)
	call	_ZNSt6vectorIN8opendnp318TypedCommandHeaderINS0_17AnalogOutputInt16EE6RecordESaIS4_EE17_M_realloc_insertIJS4_EEEvN9__gnu_cxx17__normal_iteratorIPS4_S6_EEDpOT_@PLT
	movq	8(%rsp), %rax
	jmp	.L956
.L962:
	call	__stack_chk_fail@PLT
	.cfi_endproc
.LFE2773:
	.size	_ZThn8_N8opendnp318TypedCommandHeaderINS_17AnalogOutputInt16EE3AddERKS1_t, .-_ZThn8_N8opendnp318TypedCommandHeaderINS_17AnalogOutputInt16EE3AddERKS1_t
	.section	.text._ZNSt6vectorIN8opendnp318TypedCommandHeaderINS0_17AnalogOutputInt32EE6RecordESaIS4_EE17_M_realloc_insertIJS4_EEEvN9__gnu_cxx17__normal_iteratorIPS4_S6_EEDpOT_,"axG",@progbits,_ZNSt6vectorIN8opendnp318TypedCommandHeaderINS0_17AnalogOutputInt32EE6RecordESaIS4_EE17_M_realloc_insertIJS4_EEEvN9__gnu_cxx17__normal_iteratorIPS4_S6_EEDpOT_,comdat
	.align 2
	.p2align 4,,15
	.weak	_ZNSt6vectorIN8opendnp318TypedCommandHeaderINS0_17AnalogOutputInt32EE6RecordESaIS4_EE17_M_realloc_insertIJS4_EEEvN9__gnu_cxx17__normal_iteratorIPS4_S6_EEDpOT_
	.type	_ZNSt6vectorIN8opendnp318TypedCommandHeaderINS0_17AnalogOutputInt32EE6RecordESaIS4_EE17_M_realloc_insertIJS4_EEEvN9__gnu_cxx17__normal_iteratorIPS4_S6_EEDpOT_, @function
_ZNSt6vectorIN8opendnp318TypedCommandHeaderINS0_17AnalogOutputInt32EE6RecordESaIS4_EE17_M_realloc_insertIJS4_EEEvN9__gnu_cxx17__normal_iteratorIPS4_S6_EEDpOT_:
.LFB2314:
	.cfi_startproc
	pushq	%r15
	.cfi_def_cfa_offset 16
	.cfi_offset 15, -16
	pushq	%r14
	.cfi_def_cfa_offset 24
	.cfi_offset 14, -24
	movq	%rdx, %r15
	pushq	%r13
	.cfi_def_cfa_offset 32
	.cfi_offset 13, -32
	pushq	%r12
	.cfi_def_cfa_offset 40
	.cfi_offset 12, -40
	movabsq	$-6148914691236517205, %rdx
	pushq	%rbp
	.cfi_def_cfa_offset 48
	.cfi_offset 6, -48
	pushq	%rbx
	.cfi_def_cfa_offset 56
	.cfi_offset 3, -56
	movq	%rdi, %rbx
	movq	%rsi, %r13
	movq	%rsi, %r14
	subq	$8, %rsp
	.cfi_def_cfa_offset 64
	movq	8(%rbx), %rax
	movq	(%rdi), %rdi
	movq	%rax, %rcx
	subq	%rdi, %r13
	subq	%rdi, %rcx
	sarq	$2, %rcx
	imulq	%rdx, %rcx
	testq	%rcx, %rcx
	je	.L979
	leaq	(%rcx,%rcx), %rdx
	movq	$-4, %r12
	cmpq	%rdx, %rcx
	jbe	.L995
.L965:
	movq	%r12, %rdi
	call	_Znwm@PLT
	movq	(%rbx), %rdi
	movq	%rax, %rbp
	movq	8(%rbx), %rax
	leaq	12(%rbp), %rcx
	addq	%rbp, %r12
.L966:
	addq	%rbp, %r13
	je	.L967
	movq	(%r15), %rdx
	movq	%rdx, 0(%r13)
	movl	8(%r15), %edx
	movl	%edx, 8(%r13)
.L967:
	cmpq	%rdi, %r14
	je	.L968
	leaq	12(%rdi), %rdx
	movq	%r14, %rsi
	movq	%rdi, %r8
	subq	%rdx, %rsi
	movq	%rsi, %rdx
	shrq	$2, %rdx
	leaq	12(%rbp,%rdx,4), %rcx
	movq	%rbp, %rdx
	.p2align 4,,10
	.p2align 3
.L970:
	testq	%rdx, %rdx
	je	.L996
.L972:
	movq	(%r8), %r9
	addq	$12, %rdx
	addq	$12, %r8
	movq	%r9, -12(%rdx)
	movl	-4(%r8), %r9d
	movl	%r9d, -4(%rdx)
	cmpq	%rdx, %rcx
	jne	.L970
.L971:
	addq	$12, %rcx
.L968:
	cmpq	%rax, %r14
	je	.L984
	leaq	12(%r14), %rdx
	movq	%r14, %rsi
	subq	%rdx, %rax
	movq	%rax, %rdx
	shrq	$2, %rdx
	leaq	12(%rcx,%rdx,4), %r13
	.p2align 4,,10
	.p2align 3
.L975:
	testq	%rcx, %rcx
	je	.L997
.L977:
	movq	(%rsi), %rdx
	addq	$12, %rcx
	addq	$12, %rsi
	movq	%rdx, -12(%rcx)
	movl	-4(%rsi), %edx
	movl	%edx, -4(%rcx)
	cmpq	%r13, %rcx
	jne	.L975
.L973:
	testq	%rdi, %rdi
	je	.L978
	call	_ZdlPv@PLT
.L978:
	movq	%rbp, (%rbx)
	movq	%r13, 8(%rbx)
	movq	%r12, 16(%rbx)
	addq	$8, %rsp
	.cfi_remember_state
	.cfi_def_cfa_offset 56
	popq	%rbx
	.cfi_def_cfa_offset 48
	popq	%rbp
	.cfi_def_cfa_offset 40
	popq	%r12
	.cfi_def_cfa_offset 32
	popq	%r13
	.cfi_def_cfa_offset 24
	popq	%r14
	.cfi_def_cfa_offset 16
	popq	%r15
	.cfi_def_cfa_offset 8
	ret
	.p2align 4,,10
	.p2align 3
.L979:
	.cfi_restore_state
	movl	$1, %edx
.L964:
	leaq	(%rdx,%rdx,2), %r12
	salq	$2, %r12
	jmp	.L965
	.p2align 4,,10
	.p2align 3
.L995:
	movabsq	$1537228672809129301, %rcx
	cmpq	%rcx, %rdx
	ja	.L965
	testq	%rdx, %rdx
	jne	.L964
	movl	$12, %ecx
	xorl	%r12d, %r12d
	xorl	%ebp, %ebp
	jmp	.L966
	.p2align 4,,10
	.p2align 3
.L984:
	movq	%rcx, %r13
	jmp	.L973
.L996:
	addq	$12, %r8
	cmpq	$12, %rcx
	je	.L971
	movl	$12, %edx
	jmp	.L972
.L997:
	addq	$12, %rsi
	cmpq	$12, %r13
	je	.L973
	movl	$12, %ecx
	jmp	.L977
	.cfi_endproc
.LFE2314:
	.size	_ZNSt6vectorIN8opendnp318TypedCommandHeaderINS0_17AnalogOutputInt32EE6RecordESaIS4_EE17_M_realloc_insertIJS4_EEEvN9__gnu_cxx17__normal_iteratorIPS4_S6_EEDpOT_, .-_ZNSt6vectorIN8opendnp318TypedCommandHeaderINS0_17AnalogOutputInt32EE6RecordESaIS4_EE17_M_realloc_insertIJS4_EEEvN9__gnu_cxx17__normal_iteratorIPS4_S6_EEDpOT_
	.section	.text._ZN8opendnp318TypedCommandHeaderINS_17AnalogOutputInt32EE3AddERKS1_t,"axG",@progbits,_ZN8opendnp318TypedCommandHeaderINS_17AnalogOutputInt32EE3AddERKS1_t,comdat
	.align 2
	.p2align 4,,15
	.weak	_ZN8opendnp318TypedCommandHeaderINS_17AnalogOutputInt32EE3AddERKS1_t
	.type	_ZN8opendnp318TypedCommandHeaderINS_17AnalogOutputInt32EE3AddERKS1_t, @function
_ZN8opendnp318TypedCommandHeaderINS_17AnalogOutputInt32EE3AddERKS1_t:
.LFB2005:
	.cfi_startproc
	pushq	%rbx
	.cfi_def_cfa_offset 16
	.cfi_offset 3, -16
	movq	%rdi, %rbx
	subq	$32, %rsp
	.cfi_def_cfa_offset 48
	movl	(%rsi), %ecx
	movq	%fs:40, %rax
	movq	%rax, 24(%rsp)
	xorl	%eax, %eax
	movzbl	4(%rsi), %eax
	movq	56(%rdi), %rsi
	cmpq	64(%rdi), %rsi
	movb	$0, 12(%rsp)
	movb	$127, 13(%rsp)
	movw	%dx, 14(%rsp)
	movl	%ecx, 16(%rsp)
	movb	%al, 20(%rsp)
	je	.L999
	testq	%rsi, %rsi
	je	.L1000
	movq	12(%rsp), %rax
	movq	%rax, (%rsi)
	movl	20(%rsp), %eax
	movl	%eax, 8(%rsi)
.L1000:
	addq	$12, %rsi
	movq	%rsi, 56(%rbx)
.L1001:
	movq	24(%rsp), %rdi
	xorq	%fs:40, %rdi
	leaq	8(%rbx), %rax
	jne	.L1007
	addq	$32, %rsp
	.cfi_remember_state
	.cfi_def_cfa_offset 16
	popq	%rbx
	.cfi_def_cfa_offset 8
	ret
	.p2align 4,,10
	.p2align 3
.L999:
	.cfi_restore_state
	leaq	12(%rsp), %rdx
	leaq	48(%rdi), %rdi
	call	_ZNSt6vectorIN8opendnp318TypedCommandHeaderINS0_17AnalogOutputInt32EE6RecordESaIS4_EE17_M_realloc_insertIJS4_EEEvN9__gnu_cxx17__normal_iteratorIPS4_S6_EEDpOT_@PLT
	jmp	.L1001
.L1007:
	call	__stack_chk_fail@PLT
	.cfi_endproc
.LFE2005:
	.size	_ZN8opendnp318TypedCommandHeaderINS_17AnalogOutputInt32EE3AddERKS1_t, .-_ZN8opendnp318TypedCommandHeaderINS_17AnalogOutputInt32EE3AddERKS1_t
	.p2align 4,,15
	.weak	_ZThn8_N8opendnp318TypedCommandHeaderINS_17AnalogOutputInt32EE3AddERKS1_t
	.type	_ZThn8_N8opendnp318TypedCommandHeaderINS_17AnalogOutputInt32EE3AddERKS1_t, @function
_ZThn8_N8opendnp318TypedCommandHeaderINS_17AnalogOutputInt32EE3AddERKS1_t:
.LFB2772:
	.cfi_startproc
	subq	$56, %rsp
	.cfi_def_cfa_offset 64
	movq	%rdi, %rax
	movl	(%rsi), %edi
	movq	%fs:40, %rcx
	movq	%rcx, 40(%rsp)
	xorl	%ecx, %ecx
	movzbl	4(%rsi), %ecx
	movq	48(%rax), %rsi
	cmpq	56(%rax), %rsi
	movb	$0, 28(%rsp)
	movb	$127, 29(%rsp)
	movw	%dx, 30(%rsp)
	movl	%edi, 32(%rsp)
	movb	%cl, 36(%rsp)
	je	.L1009
	testq	%rsi, %rsi
	je	.L1010
	movq	28(%rsp), %rdx
	movq	%rdx, (%rsi)
	movl	36(%rsp), %edx
	movl	%edx, 8(%rsi)
.L1010:
	addq	$12, %rsi
	movq	%rsi, 48(%rax)
.L1011:
	movq	40(%rsp), %rcx
	xorq	%fs:40, %rcx
	jne	.L1017
	addq	$56, %rsp
	.cfi_remember_state
	.cfi_def_cfa_offset 8
	ret
	.p2align 4,,10
	.p2align 3
.L1009:
	.cfi_restore_state
	leaq	40(%rax), %rdi
	leaq	28(%rsp), %rdx
	movq	%rax, 8(%rsp)
	call	_ZNSt6vectorIN8opendnp318TypedCommandHeaderINS0_17AnalogOutputInt32EE6RecordESaIS4_EE17_M_realloc_insertIJS4_EEEvN9__gnu_cxx17__normal_iteratorIPS4_S6_EEDpOT_@PLT
	movq	8(%rsp), %rax
	jmp	.L1011
.L1017:
	call	__stack_chk_fail@PLT
	.cfi_endproc
.LFE2772:
	.size	_ZThn8_N8opendnp318TypedCommandHeaderINS_17AnalogOutputInt32EE3AddERKS1_t, .-_ZThn8_N8opendnp318TypedCommandHeaderINS_17AnalogOutputInt32EE3AddERKS1_t
	.section	.text._ZNSt6vectorIN8opendnp318TypedCommandHeaderINS0_23ControlRelayOutputBlockEE6RecordESaIS4_EE17_M_realloc_insertIJS4_EEEvN9__gnu_cxx17__normal_iteratorIPS4_S6_EEDpOT_,"axG",@progbits,_ZNSt6vectorIN8opendnp318TypedCommandHeaderINS0_23ControlRelayOutputBlockEE6RecordESaIS4_EE17_M_realloc_insertIJS4_EEEvN9__gnu_cxx17__normal_iteratorIPS4_S6_EEDpOT_,comdat
	.align 2
	.p2align 4,,15
	.weak	_ZNSt6vectorIN8opendnp318TypedCommandHeaderINS0_23ControlRelayOutputBlockEE6RecordESaIS4_EE17_M_realloc_insertIJS4_EEEvN9__gnu_cxx17__normal_iteratorIPS4_S6_EEDpOT_
	.type	_ZNSt6vectorIN8opendnp318TypedCommandHeaderINS0_23ControlRelayOutputBlockEE6RecordESaIS4_EE17_M_realloc_insertIJS4_EEEvN9__gnu_cxx17__normal_iteratorIPS4_S6_EEDpOT_, @function
_ZNSt6vectorIN8opendnp318TypedCommandHeaderINS0_23ControlRelayOutputBlockEE6RecordESaIS4_EE17_M_realloc_insertIJS4_EEEvN9__gnu_cxx17__normal_iteratorIPS4_S6_EEDpOT_:
.LFB2324:
	.cfi_startproc
	pushq	%r15
	.cfi_def_cfa_offset 16
	.cfi_offset 15, -16
	pushq	%r14
	.cfi_def_cfa_offset 24
	.cfi_offset 14, -24
	movq	%rdx, %r15
	pushq	%r13
	.cfi_def_cfa_offset 32
	.cfi_offset 13, -32
	pushq	%r12
	.cfi_def_cfa_offset 40
	.cfi_offset 12, -40
	movabsq	$-3689348814741910323, %rdx
	pushq	%rbp
	.cfi_def_cfa_offset 48
	.cfi_offset 6, -48
	pushq	%rbx
	.cfi_def_cfa_offset 56
	.cfi_offset 3, -56
	movq	%rdi, %rbp
	movq	%rsi, %rbx
	movq	%rsi, %r14
	subq	$8, %rsp
	.cfi_def_cfa_offset 64
	movq	8(%rbp), %rax
	movq	(%rdi), %rdi
	movq	%rax, %rcx
	subq	%rdi, %rbx
	subq	%rdi, %rcx
	sarq	$2, %rcx
	imulq	%rdx, %rcx
	testq	%rcx, %rcx
	je	.L1034
	leaq	(%rcx,%rcx), %rdx
	movq	$-16, %r13
	cmpq	%rdx, %rcx
	jbe	.L1050
.L1020:
	movq	%r13, %rdi
	call	_Znwm@PLT
	movq	0(%rbp), %rdi
	movq	%rax, %r12
	movq	8(%rbp), %rax
	leaq	20(%r12), %rcx
	addq	%r12, %r13
.L1021:
	addq	%r12, %rbx
	je	.L1022
	movdqu	(%r15), %xmm0
	movl	16(%r15), %edx
	movups	%xmm0, (%rbx)
	movl	%edx, 16(%rbx)
.L1022:
	cmpq	%rdi, %r14
	je	.L1023
	leaq	20(%rdi), %rdx
	movq	%r14, %rbx
	movq	%rdi, %r8
	subq	%rdx, %rbx
	movq	%rbx, %rdx
	shrq	$2, %rdx
	leaq	20(%r12,%rdx,4), %rcx
	movq	%r12, %rdx
	.p2align 4,,10
	.p2align 3
.L1025:
	testq	%rdx, %rdx
	je	.L1051
.L1027:
	movdqu	(%r8), %xmm0
	addq	$20, %rdx
	addq	$20, %r8
	movups	%xmm0, -20(%rdx)
	movl	-4(%r8), %r9d
	movl	%r9d, -4(%rdx)
	cmpq	%rdx, %rcx
	jne	.L1025
.L1026:
	addq	$20, %rcx
.L1023:
	cmpq	%rax, %r14
	je	.L1039
	leaq	20(%r14), %rdx
	movq	%r14, %rsi
	subq	%rdx, %rax
	movq	%rax, %rdx
	shrq	$2, %rdx
	leaq	20(%rcx,%rdx,4), %rbx
	.p2align 4,,10
	.p2align 3
.L1030:
	testq	%rcx, %rcx
	je	.L1052
.L1032:
	movl	16(%rsi), %edx
	addq	$20, %rcx
	addq	$20, %rsi
	movdqu	-20(%rsi), %xmm0
	movl	%edx, -4(%rcx)
	movups	%xmm0, -20(%rcx)
	cmpq	%rbx, %rcx
	jne	.L1030
.L1028:
	testq	%rdi, %rdi
	je	.L1033
	call	_ZdlPv@PLT
.L1033:
	movq	%r12, 0(%rbp)
	movq	%rbx, 8(%rbp)
	movq	%r13, 16(%rbp)
	addq	$8, %rsp
	.cfi_remember_state
	.cfi_def_cfa_offset 56
	popq	%rbx
	.cfi_def_cfa_offset 48
	popq	%rbp
	.cfi_def_cfa_offset 40
	popq	%r12
	.cfi_def_cfa_offset 32
	popq	%r13
	.cfi_def_cfa_offset 24
	popq	%r14
	.cfi_def_cfa_offset 16
	popq	%r15
	.cfi_def_cfa_offset 8
	ret
	.p2align 4,,10
	.p2align 3
.L1034:
	.cfi_restore_state
	movl	$1, %edx
.L1019:
	leaq	(%rdx,%rdx,4), %r13
	salq	$2, %r13
	jmp	.L1020
	.p2align 4,,10
	.p2align 3
.L1050:
	movabsq	$922337203685477580, %rcx
	cmpq	%rcx, %rdx
	ja	.L1020
	testq	%rdx, %rdx
	jne	.L1019
	movl	$20, %ecx
	xorl	%r13d, %r13d
	xorl	%r12d, %r12d
	jmp	.L1021
	.p2align 4,,10
	.p2align 3
.L1039:
	movq	%rcx, %rbx
	jmp	.L1028
.L1051:
	addq	$20, %r8
	cmpq	$20, %rcx
	je	.L1026
	movl	$20, %edx
	jmp	.L1027
.L1052:
	addq	$20, %rsi
	cmpq	$20, %rbx
	je	.L1028
	movl	$20, %ecx
	jmp	.L1032
	.cfi_endproc
.LFE2324:
	.size	_ZNSt6vectorIN8opendnp318TypedCommandHeaderINS0_23ControlRelayOutputBlockEE6RecordESaIS4_EE17_M_realloc_insertIJS4_EEEvN9__gnu_cxx17__normal_iteratorIPS4_S6_EEDpOT_, .-_ZNSt6vectorIN8opendnp318TypedCommandHeaderINS0_23ControlRelayOutputBlockEE6RecordESaIS4_EE17_M_realloc_insertIJS4_EEEvN9__gnu_cxx17__normal_iteratorIPS4_S6_EEDpOT_
	.section	.text._ZN8opendnp318TypedCommandHeaderINS_23ControlRelayOutputBlockEE3AddERKS1_t,"axG",@progbits,_ZN8opendnp318TypedCommandHeaderINS_23ControlRelayOutputBlockEE3AddERKS1_t,comdat
	.align 2
	.p2align 4,,15
	.weak	_ZN8opendnp318TypedCommandHeaderINS_23ControlRelayOutputBlockEE3AddERKS1_t
	.type	_ZN8opendnp318TypedCommandHeaderINS_23ControlRelayOutputBlockEE3AddERKS1_t, @function
_ZN8opendnp318TypedCommandHeaderINS_23ControlRelayOutputBlockEE3AddERKS1_t:
.LFB2017:
	.cfi_startproc
	pushq	%rbx
	.cfi_def_cfa_offset 16
	.cfi_offset 3, -16
	movq	%rdi, %rbx
	subq	$32, %rsp
	.cfi_def_cfa_offset 48
	movzbl	(%rsi), %r10d
	movzbl	1(%rsi), %r9d
	movq	%fs:40, %rax
	movq	%rax, 24(%rsp)
	xorl	%eax, %eax
	movzbl	2(%rsi), %r8d
	movl	4(%rsi), %edi
	movl	8(%rsi), %ecx
	movzbl	12(%rsi), %eax
	movq	56(%rbx), %rsi
	cmpq	64(%rbx), %rsi
	movb	$0, (%rsp)
	movb	$127, 1(%rsp)
	movw	%dx, 2(%rsp)
	movb	%r10b, 4(%rsp)
	movb	%r9b, 5(%rsp)
	movb	%r8b, 6(%rsp)
	movl	%edi, 8(%rsp)
	movl	%ecx, 12(%rsp)
	movb	%al, 16(%rsp)
	je	.L1054
	testq	%rsi, %rsi
	je	.L1055
	movdqa	(%rsp), %xmm0
	movups	%xmm0, (%rsi)
	movl	16(%rsp), %eax
	movl	%eax, 16(%rsi)
.L1055:
	addq	$20, %rsi
	movq	%rsi, 56(%rbx)
.L1056:
	movq	24(%rsp), %rcx
	xorq	%fs:40, %rcx
	leaq	8(%rbx), %rax
	jne	.L1062
	addq	$32, %rsp
	.cfi_remember_state
	.cfi_def_cfa_offset 16
	popq	%rbx
	.cfi_def_cfa_offset 8
	ret
	.p2align 4,,10
	.p2align 3
.L1054:
	.cfi_restore_state
	leaq	48(%rbx), %rdi
	movq	%rsp, %rdx
	call	_ZNSt6vectorIN8opendnp318TypedCommandHeaderINS0_23ControlRelayOutputBlockEE6RecordESaIS4_EE17_M_realloc_insertIJS4_EEEvN9__gnu_cxx17__normal_iteratorIPS4_S6_EEDpOT_@PLT
	jmp	.L1056
.L1062:
	call	__stack_chk_fail@PLT
	.cfi_endproc
.LFE2017:
	.size	_ZN8opendnp318TypedCommandHeaderINS_23ControlRelayOutputBlockEE3AddERKS1_t, .-_ZN8opendnp318TypedCommandHeaderINS_23ControlRelayOutputBlockEE3AddERKS1_t
	.p2align 4,,15
	.weak	_ZThn8_N8opendnp318TypedCommandHeaderINS_23ControlRelayOutputBlockEE3AddERKS1_t
	.type	_ZThn8_N8opendnp318TypedCommandHeaderINS_23ControlRelayOutputBlockEE3AddERKS1_t, @function
_ZThn8_N8opendnp318TypedCommandHeaderINS_23ControlRelayOutputBlockEE3AddERKS1_t:
.LFB2776:
	.cfi_startproc
	subq	$56, %rsp
	.cfi_def_cfa_offset 64
	movq	%rdi, %rax
	movzbl	(%rsi), %r11d
	movq	%fs:40, %rcx
	movq	%rcx, 40(%rsp)
	xorl	%ecx, %ecx
	movzbl	1(%rsi), %r10d
	movzbl	2(%rsi), %r9d
	movl	4(%rsi), %r8d
	movl	8(%rsi), %edi
	movzbl	12(%rsi), %ecx
	movq	48(%rax), %rsi
	cmpq	56(%rax), %rsi
	movb	$0, 16(%rsp)
	movb	$127, 17(%rsp)
	movw	%dx, 18(%rsp)
	movb	%r11b, 20(%rsp)
	movb	%r10b, 21(%rsp)
	movb	%r9b, 22(%rsp)
	movl	%r8d, 24(%rsp)
	movl	%edi, 28(%rsp)
	movb	%cl, 32(%rsp)
	je	.L1064
	testq	%rsi, %rsi
	je	.L1065
	movdqa	16(%rsp), %xmm0
	movups	%xmm0, (%rsi)
	movl	32(%rsp), %edx
	movl	%edx, 16(%rsi)
.L1065:
	addq	$20, %rsi
	movq	%rsi, 48(%rax)
.L1066:
	movq	40(%rsp), %rcx
	xorq	%fs:40, %rcx
	jne	.L1072
	addq	$56, %rsp
	.cfi_remember_state
	.cfi_def_cfa_offset 8
	ret
	.p2align 4,,10
	.p2align 3
.L1064:
	.cfi_restore_state
	leaq	40(%rax), %rdi
	leaq	16(%rsp), %rdx
	movq	%rax, 8(%rsp)
	call	_ZNSt6vectorIN8opendnp318TypedCommandHeaderINS0_23ControlRelayOutputBlockEE6RecordESaIS4_EE17_M_realloc_insertIJS4_EEEvN9__gnu_cxx17__normal_iteratorIPS4_S6_EEDpOT_@PLT
	movq	8(%rsp), %rax
	jmp	.L1066
.L1072:
	call	__stack_chk_fail@PLT
	.cfi_endproc
.LFE2776:
	.size	_ZThn8_N8opendnp318TypedCommandHeaderINS_23ControlRelayOutputBlockEE3AddERKS1_t, .-_ZThn8_N8opendnp318TypedCommandHeaderINS_23ControlRelayOutputBlockEE3AddERKS1_t
	.weak	_ZTSN8opendnp38IVisitorINS_7IndexedINS_20AnalogOutputDouble64EEEEE
	.section	.rodata._ZTSN8opendnp38IVisitorINS_7IndexedINS_20AnalogOutputDouble64EEEEE,"aG",@progbits,_ZTSN8opendnp38IVisitorINS_7IndexedINS_20AnalogOutputDouble64EEEEE,comdat
	.align 32
	.type	_ZTSN8opendnp38IVisitorINS_7IndexedINS_20AnalogOutputDouble64EEEEE, @object
	.size	_ZTSN8opendnp38IVisitorINS_7IndexedINS_20AnalogOutputDouble64EEEEE, 63
_ZTSN8opendnp38IVisitorINS_7IndexedINS_20AnalogOutputDouble64EEEEE:
	.string	"N8opendnp38IVisitorINS_7IndexedINS_20AnalogOutputDouble64EEEEE"
	.weak	_ZTIN8opendnp38IVisitorINS_7IndexedINS_20AnalogOutputDouble64EEEEE
	.section	.data.rel.ro._ZTIN8opendnp38IVisitorINS_7IndexedINS_20AnalogOutputDouble64EEEEE,"awG",@progbits,_ZTIN8opendnp38IVisitorINS_7IndexedINS_20AnalogOutputDouble64EEEEE,comdat
	.align 8
	.type	_ZTIN8opendnp38IVisitorINS_7IndexedINS_20AnalogOutputDouble64EEEEE, @object
	.size	_ZTIN8opendnp38IVisitorINS_7IndexedINS_20AnalogOutputDouble64EEEEE, 16
_ZTIN8opendnp38IVisitorINS_7IndexedINS_20AnalogOutputDouble64EEEEE:
	.quad	_ZTVN10__cxxabiv117__class_type_infoE+16
	.quad	_ZTSN8opendnp38IVisitorINS_7IndexedINS_20AnalogOutputDouble64EEEEE
	.weak	_ZTSN8opendnp314FunctorVisitorINS_7IndexedINS_20AnalogOutputDouble64EEEZNS_18TypedCommandHeaderIS2_E19ApplySelectResponseERKNS_11ICollectionIS3_EEEUlS3_E_EE
	.section	.rodata._ZTSN8opendnp314FunctorVisitorINS_7IndexedINS_20AnalogOutputDouble64EEEZNS_18TypedCommandHeaderIS2_E19ApplySelectResponseERKNS_11ICollectionIS3_EEEUlS3_E_EE,"aG",@progbits,_ZTSN8opendnp314FunctorVisitorINS_7IndexedINS_20AnalogOutputDouble64EEEZNS_18TypedCommandHeaderIS2_E19ApplySelectResponseERKNS_11ICollectionIS3_EEEUlS3_E_EE,comdat
	.align 32
	.type	_ZTSN8opendnp314FunctorVisitorINS_7IndexedINS_20AnalogOutputDouble64EEEZNS_18TypedCommandHeaderIS2_E19ApplySelectResponseERKNS_11ICollectionIS3_EEEUlS3_E_EE, @object
	.size	_ZTSN8opendnp314FunctorVisitorINS_7IndexedINS_20AnalogOutputDouble64EEEZNS_18TypedCommandHeaderIS2_E19ApplySelectResponseERKNS_11ICollectionIS3_EEEUlS3_E_EE, 153
_ZTSN8opendnp314FunctorVisitorINS_7IndexedINS_20AnalogOutputDouble64EEEZNS_18TypedCommandHeaderIS2_E19ApplySelectResponseERKNS_11ICollectionIS3_EEEUlS3_E_EE:
	.string	"N8opendnp314FunctorVisitorINS_7IndexedINS_20AnalogOutputDouble64EEEZNS_18TypedCommandHeaderIS2_E19ApplySelectResponseERKNS_11ICollectionIS3_EEEUlS3_E_EE"
	.weak	_ZTIN8opendnp314FunctorVisitorINS_7IndexedINS_20AnalogOutputDouble64EEEZNS_18TypedCommandHeaderIS2_E19ApplySelectResponseERKNS_11ICollectionIS3_EEEUlS3_E_EE
	.section	.data.rel.ro._ZTIN8opendnp314FunctorVisitorINS_7IndexedINS_20AnalogOutputDouble64EEEZNS_18TypedCommandHeaderIS2_E19ApplySelectResponseERKNS_11ICollectionIS3_EEEUlS3_E_EE,"awG",@progbits,_ZTIN8opendnp314FunctorVisitorINS_7IndexedINS_20AnalogOutputDouble64EEEZNS_18TypedCommandHeaderIS2_E19ApplySelectResponseERKNS_11ICollectionIS3_EEEUlS3_E_EE,comdat
	.align 8
	.type	_ZTIN8opendnp314FunctorVisitorINS_7IndexedINS_20AnalogOutputDouble64EEEZNS_18TypedCommandHeaderIS2_E19ApplySelectResponseERKNS_11ICollectionIS3_EEEUlS3_E_EE, @object
	.size	_ZTIN8opendnp314FunctorVisitorINS_7IndexedINS_20AnalogOutputDouble64EEEZNS_18TypedCommandHeaderIS2_E19ApplySelectResponseERKNS_11ICollectionIS3_EEEUlS3_E_EE, 24
_ZTIN8opendnp314FunctorVisitorINS_7IndexedINS_20AnalogOutputDouble64EEEZNS_18TypedCommandHeaderIS2_E19ApplySelectResponseERKNS_11ICollectionIS3_EEEUlS3_E_EE:
	.quad	_ZTVN10__cxxabiv120__si_class_type_infoE+16
	.quad	_ZTSN8opendnp314FunctorVisitorINS_7IndexedINS_20AnalogOutputDouble64EEEZNS_18TypedCommandHeaderIS2_E19ApplySelectResponseERKNS_11ICollectionIS3_EEEUlS3_E_EE
	.quad	_ZTIN8opendnp38IVisitorINS_7IndexedINS_20AnalogOutputDouble64EEEEE
	.weak	_ZTSN8opendnp314FunctorVisitorINS_7IndexedINS_20AnalogOutputDouble64EEEZNS_18TypedCommandHeaderIS2_E20ApplyOperateResponseERKNS_11ICollectionIS3_EEEUlS3_E_EE
	.section	.rodata._ZTSN8opendnp314FunctorVisitorINS_7IndexedINS_20AnalogOutputDouble64EEEZNS_18TypedCommandHeaderIS2_E20ApplyOperateResponseERKNS_11ICollectionIS3_EEEUlS3_E_EE,"aG",@progbits,_ZTSN8opendnp314FunctorVisitorINS_7IndexedINS_20AnalogOutputDouble64EEEZNS_18TypedCommandHeaderIS2_E20ApplyOperateResponseERKNS_11ICollectionIS3_EEEUlS3_E_EE,comdat
	.align 32
	.type	_ZTSN8opendnp314FunctorVisitorINS_7IndexedINS_20AnalogOutputDouble64EEEZNS_18TypedCommandHeaderIS2_E20ApplyOperateResponseERKNS_11ICollectionIS3_EEEUlS3_E_EE, @object
	.size	_ZTSN8opendnp314FunctorVisitorINS_7IndexedINS_20AnalogOutputDouble64EEEZNS_18TypedCommandHeaderIS2_E20ApplyOperateResponseERKNS_11ICollectionIS3_EEEUlS3_E_EE, 154
_ZTSN8opendnp314FunctorVisitorINS_7IndexedINS_20AnalogOutputDouble64EEEZNS_18TypedCommandHeaderIS2_E20ApplyOperateResponseERKNS_11ICollectionIS3_EEEUlS3_E_EE:
	.string	"N8opendnp314FunctorVisitorINS_7IndexedINS_20AnalogOutputDouble64EEEZNS_18TypedCommandHeaderIS2_E20ApplyOperateResponseERKNS_11ICollectionIS3_EEEUlS3_E_EE"
	.weak	_ZTIN8opendnp314FunctorVisitorINS_7IndexedINS_20AnalogOutputDouble64EEEZNS_18TypedCommandHeaderIS2_E20ApplyOperateResponseERKNS_11ICollectionIS3_EEEUlS3_E_EE
	.section	.data.rel.ro._ZTIN8opendnp314FunctorVisitorINS_7IndexedINS_20AnalogOutputDouble64EEEZNS_18TypedCommandHeaderIS2_E20ApplyOperateResponseERKNS_11ICollectionIS3_EEEUlS3_E_EE,"awG",@progbits,_ZTIN8opendnp314FunctorVisitorINS_7IndexedINS_20AnalogOutputDouble64EEEZNS_18TypedCommandHeaderIS2_E20ApplyOperateResponseERKNS_11ICollectionIS3_EEEUlS3_E_EE,comdat
	.align 8
	.type	_ZTIN8opendnp314FunctorVisitorINS_7IndexedINS_20AnalogOutputDouble64EEEZNS_18TypedCommandHeaderIS2_E20ApplyOperateResponseERKNS_11ICollectionIS3_EEEUlS3_E_EE, @object
	.size	_ZTIN8opendnp314FunctorVisitorINS_7IndexedINS_20AnalogOutputDouble64EEEZNS_18TypedCommandHeaderIS2_E20ApplyOperateResponseERKNS_11ICollectionIS3_EEEUlS3_E_EE, 24
_ZTIN8opendnp314FunctorVisitorINS_7IndexedINS_20AnalogOutputDouble64EEEZNS_18TypedCommandHeaderIS2_E20ApplyOperateResponseERKNS_11ICollectionIS3_EEEUlS3_E_EE:
	.quad	_ZTVN10__cxxabiv120__si_class_type_infoE+16
	.quad	_ZTSN8opendnp314FunctorVisitorINS_7IndexedINS_20AnalogOutputDouble64EEEZNS_18TypedCommandHeaderIS2_E20ApplyOperateResponseERKNS_11ICollectionIS3_EEEUlS3_E_EE
	.quad	_ZTIN8opendnp38IVisitorINS_7IndexedINS_20AnalogOutputDouble64EEEEE
	.weak	_ZTSN8opendnp38IVisitorINS_7IndexedINS_19AnalogOutputFloat32EEEEE
	.section	.rodata._ZTSN8opendnp38IVisitorINS_7IndexedINS_19AnalogOutputFloat32EEEEE,"aG",@progbits,_ZTSN8opendnp38IVisitorINS_7IndexedINS_19AnalogOutputFloat32EEEEE,comdat
	.align 32
	.type	_ZTSN8opendnp38IVisitorINS_7IndexedINS_19AnalogOutputFloat32EEEEE, @object
	.size	_ZTSN8opendnp38IVisitorINS_7IndexedINS_19AnalogOutputFloat32EEEEE, 62
_ZTSN8opendnp38IVisitorINS_7IndexedINS_19AnalogOutputFloat32EEEEE:
	.string	"N8opendnp38IVisitorINS_7IndexedINS_19AnalogOutputFloat32EEEEE"
	.weak	_ZTIN8opendnp38IVisitorINS_7IndexedINS_19AnalogOutputFloat32EEEEE
	.section	.data.rel.ro._ZTIN8opendnp38IVisitorINS_7IndexedINS_19AnalogOutputFloat32EEEEE,"awG",@progbits,_ZTIN8opendnp38IVisitorINS_7IndexedINS_19AnalogOutputFloat32EEEEE,comdat
	.align 8
	.type	_ZTIN8opendnp38IVisitorINS_7IndexedINS_19AnalogOutputFloat32EEEEE, @object
	.size	_ZTIN8opendnp38IVisitorINS_7IndexedINS_19AnalogOutputFloat32EEEEE, 16
_ZTIN8opendnp38IVisitorINS_7IndexedINS_19AnalogOutputFloat32EEEEE:
	.quad	_ZTVN10__cxxabiv117__class_type_infoE+16
	.quad	_ZTSN8opendnp38IVisitorINS_7IndexedINS_19AnalogOutputFloat32EEEEE
	.weak	_ZTSN8opendnp314FunctorVisitorINS_7IndexedINS_19AnalogOutputFloat32EEEZNS_18TypedCommandHeaderIS2_E19ApplySelectResponseERKNS_11ICollectionIS3_EEEUlS3_E_EE
	.section	.rodata._ZTSN8opendnp314FunctorVisitorINS_7IndexedINS_19AnalogOutputFloat32EEEZNS_18TypedCommandHeaderIS2_E19ApplySelectResponseERKNS_11ICollectionIS3_EEEUlS3_E_EE,"aG",@progbits,_ZTSN8opendnp314FunctorVisitorINS_7IndexedINS_19AnalogOutputFloat32EEEZNS_18TypedCommandHeaderIS2_E19ApplySelectResponseERKNS_11ICollectionIS3_EEEUlS3_E_EE,comdat
	.align 32
	.type	_ZTSN8opendnp314FunctorVisitorINS_7IndexedINS_19AnalogOutputFloat32EEEZNS_18TypedCommandHeaderIS2_E19ApplySelectResponseERKNS_11ICollectionIS3_EEEUlS3_E_EE, @object
	.size	_ZTSN8opendnp314FunctorVisitorINS_7IndexedINS_19AnalogOutputFloat32EEEZNS_18TypedCommandHeaderIS2_E19ApplySelectResponseERKNS_11ICollectionIS3_EEEUlS3_E_EE, 152
_ZTSN8opendnp314FunctorVisitorINS_7IndexedINS_19AnalogOutputFloat32EEEZNS_18TypedCommandHeaderIS2_E19ApplySelectResponseERKNS_11ICollectionIS3_EEEUlS3_E_EE:
	.string	"N8opendnp314FunctorVisitorINS_7IndexedINS_19AnalogOutputFloat32EEEZNS_18TypedCommandHeaderIS2_E19ApplySelectResponseERKNS_11ICollectionIS3_EEEUlS3_E_EE"
	.weak	_ZTIN8opendnp314FunctorVisitorINS_7IndexedINS_19AnalogOutputFloat32EEEZNS_18TypedCommandHeaderIS2_E19ApplySelectResponseERKNS_11ICollectionIS3_EEEUlS3_E_EE
	.section	.data.rel.ro._ZTIN8opendnp314FunctorVisitorINS_7IndexedINS_19AnalogOutputFloat32EEEZNS_18TypedCommandHeaderIS2_E19ApplySelectResponseERKNS_11ICollectionIS3_EEEUlS3_E_EE,"awG",@progbits,_ZTIN8opendnp314FunctorVisitorINS_7IndexedINS_19AnalogOutputFloat32EEEZNS_18TypedCommandHeaderIS2_E19ApplySelectResponseERKNS_11ICollectionIS3_EEEUlS3_E_EE,comdat
	.align 8
	.type	_ZTIN8opendnp314FunctorVisitorINS_7IndexedINS_19AnalogOutputFloat32EEEZNS_18TypedCommandHeaderIS2_E19ApplySelectResponseERKNS_11ICollectionIS3_EEEUlS3_E_EE, @object
	.size	_ZTIN8opendnp314FunctorVisitorINS_7IndexedINS_19AnalogOutputFloat32EEEZNS_18TypedCommandHeaderIS2_E19ApplySelectResponseERKNS_11ICollectionIS3_EEEUlS3_E_EE, 24
_ZTIN8opendnp314FunctorVisitorINS_7IndexedINS_19AnalogOutputFloat32EEEZNS_18TypedCommandHeaderIS2_E19ApplySelectResponseERKNS_11ICollectionIS3_EEEUlS3_E_EE:
	.quad	_ZTVN10__cxxabiv120__si_class_type_infoE+16
	.quad	_ZTSN8opendnp314FunctorVisitorINS_7IndexedINS_19AnalogOutputFloat32EEEZNS_18TypedCommandHeaderIS2_E19ApplySelectResponseERKNS_11ICollectionIS3_EEEUlS3_E_EE
	.quad	_ZTIN8opendnp38IVisitorINS_7IndexedINS_19AnalogOutputFloat32EEEEE
	.weak	_ZTSN8opendnp314FunctorVisitorINS_7IndexedINS_19AnalogOutputFloat32EEEZNS_18TypedCommandHeaderIS2_E20ApplyOperateResponseERKNS_11ICollectionIS3_EEEUlS3_E_EE
	.section	.rodata._ZTSN8opendnp314FunctorVisitorINS_7IndexedINS_19AnalogOutputFloat32EEEZNS_18TypedCommandHeaderIS2_E20ApplyOperateResponseERKNS_11ICollectionIS3_EEEUlS3_E_EE,"aG",@progbits,_ZTSN8opendnp314FunctorVisitorINS_7IndexedINS_19AnalogOutputFloat32EEEZNS_18TypedCommandHeaderIS2_E20ApplyOperateResponseERKNS_11ICollectionIS3_EEEUlS3_E_EE,comdat
	.align 32
	.type	_ZTSN8opendnp314FunctorVisitorINS_7IndexedINS_19AnalogOutputFloat32EEEZNS_18TypedCommandHeaderIS2_E20ApplyOperateResponseERKNS_11ICollectionIS3_EEEUlS3_E_EE, @object
	.size	_ZTSN8opendnp314FunctorVisitorINS_7IndexedINS_19AnalogOutputFloat32EEEZNS_18TypedCommandHeaderIS2_E20ApplyOperateResponseERKNS_11ICollectionIS3_EEEUlS3_E_EE, 153
_ZTSN8opendnp314FunctorVisitorINS_7IndexedINS_19AnalogOutputFloat32EEEZNS_18TypedCommandHeaderIS2_E20ApplyOperateResponseERKNS_11ICollectionIS3_EEEUlS3_E_EE:
	.string	"N8opendnp314FunctorVisitorINS_7IndexedINS_19AnalogOutputFloat32EEEZNS_18TypedCommandHeaderIS2_E20ApplyOperateResponseERKNS_11ICollectionIS3_EEEUlS3_E_EE"
	.weak	_ZTIN8opendnp314FunctorVisitorINS_7IndexedINS_19AnalogOutputFloat32EEEZNS_18TypedCommandHeaderIS2_E20ApplyOperateResponseERKNS_11ICollectionIS3_EEEUlS3_E_EE
	.section	.data.rel.ro._ZTIN8opendnp314FunctorVisitorINS_7IndexedINS_19AnalogOutputFloat32EEEZNS_18TypedCommandHeaderIS2_E20ApplyOperateResponseERKNS_11ICollectionIS3_EEEUlS3_E_EE,"awG",@progbits,_ZTIN8opendnp314FunctorVisitorINS_7IndexedINS_19AnalogOutputFloat32EEEZNS_18TypedCommandHeaderIS2_E20ApplyOperateResponseERKNS_11ICollectionIS3_EEEUlS3_E_EE,comdat
	.align 8
	.type	_ZTIN8opendnp314FunctorVisitorINS_7IndexedINS_19AnalogOutputFloat32EEEZNS_18TypedCommandHeaderIS2_E20ApplyOperateResponseERKNS_11ICollectionIS3_EEEUlS3_E_EE, @object
	.size	_ZTIN8opendnp314FunctorVisitorINS_7IndexedINS_19AnalogOutputFloat32EEEZNS_18TypedCommandHeaderIS2_E20ApplyOperateResponseERKNS_11ICollectionIS3_EEEUlS3_E_EE, 24
_ZTIN8opendnp314FunctorVisitorINS_7IndexedINS_19AnalogOutputFloat32EEEZNS_18TypedCommandHeaderIS2_E20ApplyOperateResponseERKNS_11ICollectionIS3_EEEUlS3_E_EE:
	.quad	_ZTVN10__cxxabiv120__si_class_type_infoE+16
	.quad	_ZTSN8opendnp314FunctorVisitorINS_7IndexedINS_19AnalogOutputFloat32EEEZNS_18TypedCommandHeaderIS2_E20ApplyOperateResponseERKNS_11ICollectionIS3_EEEUlS3_E_EE
	.quad	_ZTIN8opendnp38IVisitorINS_7IndexedINS_19AnalogOutputFloat32EEEEE
	.weak	_ZTSN8opendnp38IVisitorINS_7IndexedINS_17AnalogOutputInt16EEEEE
	.section	.rodata._ZTSN8opendnp38IVisitorINS_7IndexedINS_17AnalogOutputInt16EEEEE,"aG",@progbits,_ZTSN8opendnp38IVisitorINS_7IndexedINS_17AnalogOutputInt16EEEEE,comdat
	.align 32
	.type	_ZTSN8opendnp38IVisitorINS_7IndexedINS_17AnalogOutputInt16EEEEE, @object
	.size	_ZTSN8opendnp38IVisitorINS_7IndexedINS_17AnalogOutputInt16EEEEE, 60
_ZTSN8opendnp38IVisitorINS_7IndexedINS_17AnalogOutputInt16EEEEE:
	.string	"N8opendnp38IVisitorINS_7IndexedINS_17AnalogOutputInt16EEEEE"
	.weak	_ZTIN8opendnp38IVisitorINS_7IndexedINS_17AnalogOutputInt16EEEEE
	.section	.data.rel.ro._ZTIN8opendnp38IVisitorINS_7IndexedINS_17AnalogOutputInt16EEEEE,"awG",@progbits,_ZTIN8opendnp38IVisitorINS_7IndexedINS_17AnalogOutputInt16EEEEE,comdat
	.align 8
	.type	_ZTIN8opendnp38IVisitorINS_7IndexedINS_17AnalogOutputInt16EEEEE, @object
	.size	_ZTIN8opendnp38IVisitorINS_7IndexedINS_17AnalogOutputInt16EEEEE, 16
_ZTIN8opendnp38IVisitorINS_7IndexedINS_17AnalogOutputInt16EEEEE:
	.quad	_ZTVN10__cxxabiv117__class_type_infoE+16
	.quad	_ZTSN8opendnp38IVisitorINS_7IndexedINS_17AnalogOutputInt16EEEEE
	.weak	_ZTSN8opendnp314FunctorVisitorINS_7IndexedINS_17AnalogOutputInt16EEEZNS_18TypedCommandHeaderIS2_E19ApplySelectResponseERKNS_11ICollectionIS3_EEEUlS3_E_EE
	.section	.rodata._ZTSN8opendnp314FunctorVisitorINS_7IndexedINS_17AnalogOutputInt16EEEZNS_18TypedCommandHeaderIS2_E19ApplySelectResponseERKNS_11ICollectionIS3_EEEUlS3_E_EE,"aG",@progbits,_ZTSN8opendnp314FunctorVisitorINS_7IndexedINS_17AnalogOutputInt16EEEZNS_18TypedCommandHeaderIS2_E19ApplySelectResponseERKNS_11ICollectionIS3_EEEUlS3_E_EE,comdat
	.align 32
	.type	_ZTSN8opendnp314FunctorVisitorINS_7IndexedINS_17AnalogOutputInt16EEEZNS_18TypedCommandHeaderIS2_E19ApplySelectResponseERKNS_11ICollectionIS3_EEEUlS3_E_EE, @object
	.size	_ZTSN8opendnp314FunctorVisitorINS_7IndexedINS_17AnalogOutputInt16EEEZNS_18TypedCommandHeaderIS2_E19ApplySelectResponseERKNS_11ICollectionIS3_EEEUlS3_E_EE, 150
_ZTSN8opendnp314FunctorVisitorINS_7IndexedINS_17AnalogOutputInt16EEEZNS_18TypedCommandHeaderIS2_E19ApplySelectResponseERKNS_11ICollectionIS3_EEEUlS3_E_EE:
	.string	"N8opendnp314FunctorVisitorINS_7IndexedINS_17AnalogOutputInt16EEEZNS_18TypedCommandHeaderIS2_E19ApplySelectResponseERKNS_11ICollectionIS3_EEEUlS3_E_EE"
	.weak	_ZTIN8opendnp314FunctorVisitorINS_7IndexedINS_17AnalogOutputInt16EEEZNS_18TypedCommandHeaderIS2_E19ApplySelectResponseERKNS_11ICollectionIS3_EEEUlS3_E_EE
	.section	.data.rel.ro._ZTIN8opendnp314FunctorVisitorINS_7IndexedINS_17AnalogOutputInt16EEEZNS_18TypedCommandHeaderIS2_E19ApplySelectResponseERKNS_11ICollectionIS3_EEEUlS3_E_EE,"awG",@progbits,_ZTIN8opendnp314FunctorVisitorINS_7IndexedINS_17AnalogOutputInt16EEEZNS_18TypedCommandHeaderIS2_E19ApplySelectResponseERKNS_11ICollectionIS3_EEEUlS3_E_EE,comdat
	.align 8
	.type	_ZTIN8opendnp314FunctorVisitorINS_7IndexedINS_17AnalogOutputInt16EEEZNS_18TypedCommandHeaderIS2_E19ApplySelectResponseERKNS_11ICollectionIS3_EEEUlS3_E_EE, @object
	.size	_ZTIN8opendnp314FunctorVisitorINS_7IndexedINS_17AnalogOutputInt16EEEZNS_18TypedCommandHeaderIS2_E19ApplySelectResponseERKNS_11ICollectionIS3_EEEUlS3_E_EE, 24
_ZTIN8opendnp314FunctorVisitorINS_7IndexedINS_17AnalogOutputInt16EEEZNS_18TypedCommandHeaderIS2_E19ApplySelectResponseERKNS_11ICollectionIS3_EEEUlS3_E_EE:
	.quad	_ZTVN10__cxxabiv120__si_class_type_infoE+16
	.quad	_ZTSN8opendnp314FunctorVisitorINS_7IndexedINS_17AnalogOutputInt16EEEZNS_18TypedCommandHeaderIS2_E19ApplySelectResponseERKNS_11ICollectionIS3_EEEUlS3_E_EE
	.quad	_ZTIN8opendnp38IVisitorINS_7IndexedINS_17AnalogOutputInt16EEEEE
	.weak	_ZTSN8opendnp314FunctorVisitorINS_7IndexedINS_17AnalogOutputInt16EEEZNS_18TypedCommandHeaderIS2_E20ApplyOperateResponseERKNS_11ICollectionIS3_EEEUlS3_E_EE
	.section	.rodata._ZTSN8opendnp314FunctorVisitorINS_7IndexedINS_17AnalogOutputInt16EEEZNS_18TypedCommandHeaderIS2_E20ApplyOperateResponseERKNS_11ICollectionIS3_EEEUlS3_E_EE,"aG",@progbits,_ZTSN8opendnp314FunctorVisitorINS_7IndexedINS_17AnalogOutputInt16EEEZNS_18TypedCommandHeaderIS2_E20ApplyOperateResponseERKNS_11ICollectionIS3_EEEUlS3_E_EE,comdat
	.align 32
	.type	_ZTSN8opendnp314FunctorVisitorINS_7IndexedINS_17AnalogOutputInt16EEEZNS_18TypedCommandHeaderIS2_E20ApplyOperateResponseERKNS_11ICollectionIS3_EEEUlS3_E_EE, @object
	.size	_ZTSN8opendnp314FunctorVisitorINS_7IndexedINS_17AnalogOutputInt16EEEZNS_18TypedCommandHeaderIS2_E20ApplyOperateResponseERKNS_11ICollectionIS3_EEEUlS3_E_EE, 151
_ZTSN8opendnp314FunctorVisitorINS_7IndexedINS_17AnalogOutputInt16EEEZNS_18TypedCommandHeaderIS2_E20ApplyOperateResponseERKNS_11ICollectionIS3_EEEUlS3_E_EE:
	.string	"N8opendnp314FunctorVisitorINS_7IndexedINS_17AnalogOutputInt16EEEZNS_18TypedCommandHeaderIS2_E20ApplyOperateResponseERKNS_11ICollectionIS3_EEEUlS3_E_EE"
	.weak	_ZTIN8opendnp314FunctorVisitorINS_7IndexedINS_17AnalogOutputInt16EEEZNS_18TypedCommandHeaderIS2_E20ApplyOperateResponseERKNS_11ICollectionIS3_EEEUlS3_E_EE
	.section	.data.rel.ro._ZTIN8opendnp314FunctorVisitorINS_7IndexedINS_17AnalogOutputInt16EEEZNS_18TypedCommandHeaderIS2_E20ApplyOperateResponseERKNS_11ICollectionIS3_EEEUlS3_E_EE,"awG",@progbits,_ZTIN8opendnp314FunctorVisitorINS_7IndexedINS_17AnalogOutputInt16EEEZNS_18TypedCommandHeaderIS2_E20ApplyOperateResponseERKNS_11ICollectionIS3_EEEUlS3_E_EE,comdat
	.align 8
	.type	_ZTIN8opendnp314FunctorVisitorINS_7IndexedINS_17AnalogOutputInt16EEEZNS_18TypedCommandHeaderIS2_E20ApplyOperateResponseERKNS_11ICollectionIS3_EEEUlS3_E_EE, @object
	.size	_ZTIN8opendnp314FunctorVisitorINS_7IndexedINS_17AnalogOutputInt16EEEZNS_18TypedCommandHeaderIS2_E20ApplyOperateResponseERKNS_11ICollectionIS3_EEEUlS3_E_EE, 24
_ZTIN8opendnp314FunctorVisitorINS_7IndexedINS_17AnalogOutputInt16EEEZNS_18TypedCommandHeaderIS2_E20ApplyOperateResponseERKNS_11ICollectionIS3_EEEUlS3_E_EE:
	.quad	_ZTVN10__cxxabiv120__si_class_type_infoE+16
	.quad	_ZTSN8opendnp314FunctorVisitorINS_7IndexedINS_17AnalogOutputInt16EEEZNS_18TypedCommandHeaderIS2_E20ApplyOperateResponseERKNS_11ICollectionIS3_EEEUlS3_E_EE
	.quad	_ZTIN8opendnp38IVisitorINS_7IndexedINS_17AnalogOutputInt16EEEEE
	.weak	_ZTSN8opendnp38IVisitorINS_7IndexedINS_17AnalogOutputInt32EEEEE
	.section	.rodata._ZTSN8opendnp38IVisitorINS_7IndexedINS_17AnalogOutputInt32EEEEE,"aG",@progbits,_ZTSN8opendnp38IVisitorINS_7IndexedINS_17AnalogOutputInt32EEEEE,comdat
	.align 32
	.type	_ZTSN8opendnp38IVisitorINS_7IndexedINS_17AnalogOutputInt32EEEEE, @object
	.size	_ZTSN8opendnp38IVisitorINS_7IndexedINS_17AnalogOutputInt32EEEEE, 60
_ZTSN8opendnp38IVisitorINS_7IndexedINS_17AnalogOutputInt32EEEEE:
	.string	"N8opendnp38IVisitorINS_7IndexedINS_17AnalogOutputInt32EEEEE"
	.weak	_ZTIN8opendnp38IVisitorINS_7IndexedINS_17AnalogOutputInt32EEEEE
	.section	.data.rel.ro._ZTIN8opendnp38IVisitorINS_7IndexedINS_17AnalogOutputInt32EEEEE,"awG",@progbits,_ZTIN8opendnp38IVisitorINS_7IndexedINS_17AnalogOutputInt32EEEEE,comdat
	.align 8
	.type	_ZTIN8opendnp38IVisitorINS_7IndexedINS_17AnalogOutputInt32EEEEE, @object
	.size	_ZTIN8opendnp38IVisitorINS_7IndexedINS_17AnalogOutputInt32EEEEE, 16
_ZTIN8opendnp38IVisitorINS_7IndexedINS_17AnalogOutputInt32EEEEE:
	.quad	_ZTVN10__cxxabiv117__class_type_infoE+16
	.quad	_ZTSN8opendnp38IVisitorINS_7IndexedINS_17AnalogOutputInt32EEEEE
	.weak	_ZTSN8opendnp314FunctorVisitorINS_7IndexedINS_17AnalogOutputInt32EEEZNS_18TypedCommandHeaderIS2_E19ApplySelectResponseERKNS_11ICollectionIS3_EEEUlS3_E_EE
	.section	.rodata._ZTSN8opendnp314FunctorVisitorINS_7IndexedINS_17AnalogOutputInt32EEEZNS_18TypedCommandHeaderIS2_E19ApplySelectResponseERKNS_11ICollectionIS3_EEEUlS3_E_EE,"aG",@progbits,_ZTSN8opendnp314FunctorVisitorINS_7IndexedINS_17AnalogOutputInt32EEEZNS_18TypedCommandHeaderIS2_E19ApplySelectResponseERKNS_11ICollectionIS3_EEEUlS3_E_EE,comdat
	.align 32
	.type	_ZTSN8opendnp314FunctorVisitorINS_7IndexedINS_17AnalogOutputInt32EEEZNS_18TypedCommandHeaderIS2_E19ApplySelectResponseERKNS_11ICollectionIS3_EEEUlS3_E_EE, @object
	.size	_ZTSN8opendnp314FunctorVisitorINS_7IndexedINS_17AnalogOutputInt32EEEZNS_18TypedCommandHeaderIS2_E19ApplySelectResponseERKNS_11ICollectionIS3_EEEUlS3_E_EE, 150
_ZTSN8opendnp314FunctorVisitorINS_7IndexedINS_17AnalogOutputInt32EEEZNS_18TypedCommandHeaderIS2_E19ApplySelectResponseERKNS_11ICollectionIS3_EEEUlS3_E_EE:
	.string	"N8opendnp314FunctorVisitorINS_7IndexedINS_17AnalogOutputInt32EEEZNS_18TypedCommandHeaderIS2_E19ApplySelectResponseERKNS_11ICollectionIS3_EEEUlS3_E_EE"
	.weak	_ZTIN8opendnp314FunctorVisitorINS_7IndexedINS_17AnalogOutputInt32EEEZNS_18TypedCommandHeaderIS2_E19ApplySelectResponseERKNS_11ICollectionIS3_EEEUlS3_E_EE
	.section	.data.rel.ro._ZTIN8opendnp314FunctorVisitorINS_7IndexedINS_17AnalogOutputInt32EEEZNS_18TypedCommandHeaderIS2_E19ApplySelectResponseERKNS_11ICollectionIS3_EEEUlS3_E_EE,"awG",@progbits,_ZTIN8opendnp314FunctorVisitorINS_7IndexedINS_17AnalogOutputInt32EEEZNS_18TypedCommandHeaderIS2_E19ApplySelectResponseERKNS_11ICollectionIS3_EEEUlS3_E_EE,comdat
	.align 8
	.type	_ZTIN8opendnp314FunctorVisitorINS_7IndexedINS_17AnalogOutputInt32EEEZNS_18TypedCommandHeaderIS2_E19ApplySelectResponseERKNS_11ICollectionIS3_EEEUlS3_E_EE, @object
	.size	_ZTIN8opendnp314FunctorVisitorINS_7IndexedINS_17AnalogOutputInt32EEEZNS_18TypedCommandHeaderIS2_E19ApplySelectResponseERKNS_11ICollectionIS3_EEEUlS3_E_EE, 24
_ZTIN8opendnp314FunctorVisitorINS_7IndexedINS_17AnalogOutputInt32EEEZNS_18TypedCommandHeaderIS2_E19ApplySelectResponseERKNS_11ICollectionIS3_EEEUlS3_E_EE:
	.quad	_ZTVN10__cxxabiv120__si_class_type_infoE+16
	.quad	_ZTSN8opendnp314FunctorVisitorINS_7IndexedINS_17AnalogOutputInt32EEEZNS_18TypedCommandHeaderIS2_E19ApplySelectResponseERKNS_11ICollectionIS3_EEEUlS3_E_EE
	.quad	_ZTIN8opendnp38IVisitorINS_7IndexedINS_17AnalogOutputInt32EEEEE
	.weak	_ZTSN8opendnp314FunctorVisitorINS_7IndexedINS_17AnalogOutputInt32EEEZNS_18TypedCommandHeaderIS2_E20ApplyOperateResponseERKNS_11ICollectionIS3_EEEUlS3_E_EE
	.section	.rodata._ZTSN8opendnp314FunctorVisitorINS_7IndexedINS_17AnalogOutputInt32EEEZNS_18TypedCommandHeaderIS2_E20ApplyOperateResponseERKNS_11ICollectionIS3_EEEUlS3_E_EE,"aG",@progbits,_ZTSN8opendnp314FunctorVisitorINS_7IndexedINS_17AnalogOutputInt32EEEZNS_18TypedCommandHeaderIS2_E20ApplyOperateResponseERKNS_11ICollectionIS3_EEEUlS3_E_EE,comdat
	.align 32
	.type	_ZTSN8opendnp314FunctorVisitorINS_7IndexedINS_17AnalogOutputInt32EEEZNS_18TypedCommandHeaderIS2_E20ApplyOperateResponseERKNS_11ICollectionIS3_EEEUlS3_E_EE, @object
	.size	_ZTSN8opendnp314FunctorVisitorINS_7IndexedINS_17AnalogOutputInt32EEEZNS_18TypedCommandHeaderIS2_E20ApplyOperateResponseERKNS_11ICollectionIS3_EEEUlS3_E_EE, 151
_ZTSN8opendnp314FunctorVisitorINS_7IndexedINS_17AnalogOutputInt32EEEZNS_18TypedCommandHeaderIS2_E20ApplyOperateResponseERKNS_11ICollectionIS3_EEEUlS3_E_EE:
	.string	"N8opendnp314FunctorVisitorINS_7IndexedINS_17AnalogOutputInt32EEEZNS_18TypedCommandHeaderIS2_E20ApplyOperateResponseERKNS_11ICollectionIS3_EEEUlS3_E_EE"
	.weak	_ZTIN8opendnp314FunctorVisitorINS_7IndexedINS_17AnalogOutputInt32EEEZNS_18TypedCommandHeaderIS2_E20ApplyOperateResponseERKNS_11ICollectionIS3_EEEUlS3_E_EE
	.section	.data.rel.ro._ZTIN8opendnp314FunctorVisitorINS_7IndexedINS_17AnalogOutputInt32EEEZNS_18TypedCommandHeaderIS2_E20ApplyOperateResponseERKNS_11ICollectionIS3_EEEUlS3_E_EE,"awG",@progbits,_ZTIN8opendnp314FunctorVisitorINS_7IndexedINS_17AnalogOutputInt32EEEZNS_18TypedCommandHeaderIS2_E20ApplyOperateResponseERKNS_11ICollectionIS3_EEEUlS3_E_EE,comdat
	.align 8
	.type	_ZTIN8opendnp314FunctorVisitorINS_7IndexedINS_17AnalogOutputInt32EEEZNS_18TypedCommandHeaderIS2_E20ApplyOperateResponseERKNS_11ICollectionIS3_EEEUlS3_E_EE, @object
	.size	_ZTIN8opendnp314FunctorVisitorINS_7IndexedINS_17AnalogOutputInt32EEEZNS_18TypedCommandHeaderIS2_E20ApplyOperateResponseERKNS_11ICollectionIS3_EEEUlS3_E_EE, 24
_ZTIN8opendnp314FunctorVisitorINS_7IndexedINS_17AnalogOutputInt32EEEZNS_18TypedCommandHeaderIS2_E20ApplyOperateResponseERKNS_11ICollectionIS3_EEEUlS3_E_EE:
	.quad	_ZTVN10__cxxabiv120__si_class_type_infoE+16
	.quad	_ZTSN8opendnp314FunctorVisitorINS_7IndexedINS_17AnalogOutputInt32EEEZNS_18TypedCommandHeaderIS2_E20ApplyOperateResponseERKNS_11ICollectionIS3_EEEUlS3_E_EE
	.quad	_ZTIN8opendnp38IVisitorINS_7IndexedINS_17AnalogOutputInt32EEEEE
	.weak	_ZTSN8opendnp38IVisitorINS_7IndexedINS_23ControlRelayOutputBlockEEEEE
	.section	.rodata._ZTSN8opendnp38IVisitorINS_7IndexedINS_23ControlRelayOutputBlockEEEEE,"aG",@progbits,_ZTSN8opendnp38IVisitorINS_7IndexedINS_23ControlRelayOutputBlockEEEEE,comdat
	.align 32
	.type	_ZTSN8opendnp38IVisitorINS_7IndexedINS_23ControlRelayOutputBlockEEEEE, @object
	.size	_ZTSN8opendnp38IVisitorINS_7IndexedINS_23ControlRelayOutputBlockEEEEE, 66
_ZTSN8opendnp38IVisitorINS_7IndexedINS_23ControlRelayOutputBlockEEEEE:
	.string	"N8opendnp38IVisitorINS_7IndexedINS_23ControlRelayOutputBlockEEEEE"
	.weak	_ZTIN8opendnp38IVisitorINS_7IndexedINS_23ControlRelayOutputBlockEEEEE
	.section	.data.rel.ro._ZTIN8opendnp38IVisitorINS_7IndexedINS_23ControlRelayOutputBlockEEEEE,"awG",@progbits,_ZTIN8opendnp38IVisitorINS_7IndexedINS_23ControlRelayOutputBlockEEEEE,comdat
	.align 8
	.type	_ZTIN8opendnp38IVisitorINS_7IndexedINS_23ControlRelayOutputBlockEEEEE, @object
	.size	_ZTIN8opendnp38IVisitorINS_7IndexedINS_23ControlRelayOutputBlockEEEEE, 16
_ZTIN8opendnp38IVisitorINS_7IndexedINS_23ControlRelayOutputBlockEEEEE:
	.quad	_ZTVN10__cxxabiv117__class_type_infoE+16
	.quad	_ZTSN8opendnp38IVisitorINS_7IndexedINS_23ControlRelayOutputBlockEEEEE
	.weak	_ZTSN8opendnp314FunctorVisitorINS_7IndexedINS_23ControlRelayOutputBlockEEEZNS_18TypedCommandHeaderIS2_E19ApplySelectResponseERKNS_11ICollectionIS3_EEEUlS3_E_EE
	.section	.rodata._ZTSN8opendnp314FunctorVisitorINS_7IndexedINS_23ControlRelayOutputBlockEEEZNS_18TypedCommandHeaderIS2_E19ApplySelectResponseERKNS_11ICollectionIS3_EEEUlS3_E_EE,"aG",@progbits,_ZTSN8opendnp314FunctorVisitorINS_7IndexedINS_23ControlRelayOutputBlockEEEZNS_18TypedCommandHeaderIS2_E19ApplySelectResponseERKNS_11ICollectionIS3_EEEUlS3_E_EE,comdat
	.align 32
	.type	_ZTSN8opendnp314FunctorVisitorINS_7IndexedINS_23ControlRelayOutputBlockEEEZNS_18TypedCommandHeaderIS2_E19ApplySelectResponseERKNS_11ICollectionIS3_EEEUlS3_E_EE, @object
	.size	_ZTSN8opendnp314FunctorVisitorINS_7IndexedINS_23ControlRelayOutputBlockEEEZNS_18TypedCommandHeaderIS2_E19ApplySelectResponseERKNS_11ICollectionIS3_EEEUlS3_E_EE, 156
_ZTSN8opendnp314FunctorVisitorINS_7IndexedINS_23ControlRelayOutputBlockEEEZNS_18TypedCommandHeaderIS2_E19ApplySelectResponseERKNS_11ICollectionIS3_EEEUlS3_E_EE:
	.string	"N8opendnp314FunctorVisitorINS_7IndexedINS_23ControlRelayOutputBlockEEEZNS_18TypedCommandHeaderIS2_E19ApplySelectResponseERKNS_11ICollectionIS3_EEEUlS3_E_EE"
	.weak	_ZTIN8opendnp314FunctorVisitorINS_7IndexedINS_23ControlRelayOutputBlockEEEZNS_18TypedCommandHeaderIS2_E19ApplySelectResponseERKNS_11ICollectionIS3_EEEUlS3_E_EE
	.section	.data.rel.ro._ZTIN8opendnp314FunctorVisitorINS_7IndexedINS_23ControlRelayOutputBlockEEEZNS_18TypedCommandHeaderIS2_E19ApplySelectResponseERKNS_11ICollectionIS3_EEEUlS3_E_EE,"awG",@progbits,_ZTIN8opendnp314FunctorVisitorINS_7IndexedINS_23ControlRelayOutputBlockEEEZNS_18TypedCommandHeaderIS2_E19ApplySelectResponseERKNS_11ICollectionIS3_EEEUlS3_E_EE,comdat
	.align 8
	.type	_ZTIN8opendnp314FunctorVisitorINS_7IndexedINS_23ControlRelayOutputBlockEEEZNS_18TypedCommandHeaderIS2_E19ApplySelectResponseERKNS_11ICollectionIS3_EEEUlS3_E_EE, @object
	.size	_ZTIN8opendnp314FunctorVisitorINS_7IndexedINS_23ControlRelayOutputBlockEEEZNS_18TypedCommandHeaderIS2_E19ApplySelectResponseERKNS_11ICollectionIS3_EEEUlS3_E_EE, 24
_ZTIN8opendnp314FunctorVisitorINS_7IndexedINS_23ControlRelayOutputBlockEEEZNS_18TypedCommandHeaderIS2_E19ApplySelectResponseERKNS_11ICollectionIS3_EEEUlS3_E_EE:
	.quad	_ZTVN10__cxxabiv120__si_class_type_infoE+16
	.quad	_ZTSN8opendnp314FunctorVisitorINS_7IndexedINS_23ControlRelayOutputBlockEEEZNS_18TypedCommandHeaderIS2_E19ApplySelectResponseERKNS_11ICollectionIS3_EEEUlS3_E_EE
	.quad	_ZTIN8opendnp38IVisitorINS_7IndexedINS_23ControlRelayOutputBlockEEEEE
	.weak	_ZTSN8opendnp314FunctorVisitorINS_7IndexedINS_23ControlRelayOutputBlockEEEZNS_18TypedCommandHeaderIS2_E20ApplyOperateResponseERKNS_11ICollectionIS3_EEEUlS3_E_EE
	.section	.rodata._ZTSN8opendnp314FunctorVisitorINS_7IndexedINS_23ControlRelayOutputBlockEEEZNS_18TypedCommandHeaderIS2_E20ApplyOperateResponseERKNS_11ICollectionIS3_EEEUlS3_E_EE,"aG",@progbits,_ZTSN8opendnp314FunctorVisitorINS_7IndexedINS_23ControlRelayOutputBlockEEEZNS_18TypedCommandHeaderIS2_E20ApplyOperateResponseERKNS_11ICollectionIS3_EEEUlS3_E_EE,comdat
	.align 32
	.type	_ZTSN8opendnp314FunctorVisitorINS_7IndexedINS_23ControlRelayOutputBlockEEEZNS_18TypedCommandHeaderIS2_E20ApplyOperateResponseERKNS_11ICollectionIS3_EEEUlS3_E_EE, @object
	.size	_ZTSN8opendnp314FunctorVisitorINS_7IndexedINS_23ControlRelayOutputBlockEEEZNS_18TypedCommandHeaderIS2_E20ApplyOperateResponseERKNS_11ICollectionIS3_EEEUlS3_E_EE, 157
_ZTSN8opendnp314FunctorVisitorINS_7IndexedINS_23ControlRelayOutputBlockEEEZNS_18TypedCommandHeaderIS2_E20ApplyOperateResponseERKNS_11ICollectionIS3_EEEUlS3_E_EE:
	.string	"N8opendnp314FunctorVisitorINS_7IndexedINS_23ControlRelayOutputBlockEEEZNS_18TypedCommandHeaderIS2_E20ApplyOperateResponseERKNS_11ICollectionIS3_EEEUlS3_E_EE"
	.weak	_ZTIN8opendnp314FunctorVisitorINS_7IndexedINS_23ControlRelayOutputBlockEEEZNS_18TypedCommandHeaderIS2_E20ApplyOperateResponseERKNS_11ICollectionIS3_EEEUlS3_E_EE
	.section	.data.rel.ro._ZTIN8opendnp314FunctorVisitorINS_7IndexedINS_23ControlRelayOutputBlockEEEZNS_18TypedCommandHeaderIS2_E20ApplyOperateResponseERKNS_11ICollectionIS3_EEEUlS3_E_EE,"awG",@progbits,_ZTIN8opendnp314FunctorVisitorINS_7IndexedINS_23ControlRelayOutputBlockEEEZNS_18TypedCommandHeaderIS2_E20ApplyOperateResponseERKNS_11ICollectionIS3_EEEUlS3_E_EE,comdat
	.align 8
	.type	_ZTIN8opendnp314FunctorVisitorINS_7IndexedINS_23ControlRelayOutputBlockEEEZNS_18TypedCommandHeaderIS2_E20ApplyOperateResponseERKNS_11ICollectionIS3_EEEUlS3_E_EE, @object
	.size	_ZTIN8opendnp314FunctorVisitorINS_7IndexedINS_23ControlRelayOutputBlockEEEZNS_18TypedCommandHeaderIS2_E20ApplyOperateResponseERKNS_11ICollectionIS3_EEEUlS3_E_EE, 24
_ZTIN8opendnp314FunctorVisitorINS_7IndexedINS_23ControlRelayOutputBlockEEEZNS_18TypedCommandHeaderIS2_E20ApplyOperateResponseERKNS_11ICollectionIS3_EEEUlS3_E_EE:
	.quad	_ZTVN10__cxxabiv120__si_class_type_infoE+16
	.quad	_ZTSN8opendnp314FunctorVisitorINS_7IndexedINS_23ControlRelayOutputBlockEEEZNS_18TypedCommandHeaderIS2_E20ApplyOperateResponseERKNS_11ICollectionIS3_EEEUlS3_E_EE
	.quad	_ZTIN8opendnp38IVisitorINS_7IndexedINS_23ControlRelayOutputBlockEEEEE
	.weak	_ZTVN8opendnp314FunctorVisitorINS_7IndexedINS_20AnalogOutputDouble64EEEZNS_18TypedCommandHeaderIS2_E19ApplySelectResponseERKNS_11ICollectionIS3_EEEUlS3_E_EE
	.section	.data.rel.ro._ZTVN8opendnp314FunctorVisitorINS_7IndexedINS_20AnalogOutputDouble64EEEZNS_18TypedCommandHeaderIS2_E19ApplySelectResponseERKNS_11ICollectionIS3_EEEUlS3_E_EE,"awG",@progbits,_ZTVN8opendnp314FunctorVisitorINS_7IndexedINS_20AnalogOutputDouble64EEEZNS_18TypedCommandHeaderIS2_E19ApplySelectResponseERKNS_11ICollectionIS3_EEEUlS3_E_EE,comdat
	.align 8
	.type	_ZTVN8opendnp314FunctorVisitorINS_7IndexedINS_20AnalogOutputDouble64EEEZNS_18TypedCommandHeaderIS2_E19ApplySelectResponseERKNS_11ICollectionIS3_EEEUlS3_E_EE, @object
	.size	_ZTVN8opendnp314FunctorVisitorINS_7IndexedINS_20AnalogOutputDouble64EEEZNS_18TypedCommandHeaderIS2_E19ApplySelectResponseERKNS_11ICollectionIS3_EEEUlS3_E_EE, 24
_ZTVN8opendnp314FunctorVisitorINS_7IndexedINS_20AnalogOutputDouble64EEEZNS_18TypedCommandHeaderIS2_E19ApplySelectResponseERKNS_11ICollectionIS3_EEEUlS3_E_EE:
	.quad	0
	.quad	_ZTIN8opendnp314FunctorVisitorINS_7IndexedINS_20AnalogOutputDouble64EEEZNS_18TypedCommandHeaderIS2_E19ApplySelectResponseERKNS_11ICollectionIS3_EEEUlS3_E_EE
	.quad	_ZN8opendnp314FunctorVisitorINS_7IndexedINS_20AnalogOutputDouble64EEEZNS_18TypedCommandHeaderIS2_E19ApplySelectResponseERKNS_11ICollectionIS3_EEEUlS3_E_E7OnValueERKS3_
	.weak	_ZTVN8opendnp314FunctorVisitorINS_7IndexedINS_20AnalogOutputDouble64EEEZNS_18TypedCommandHeaderIS2_E20ApplyOperateResponseERKNS_11ICollectionIS3_EEEUlS3_E_EE
	.section	.data.rel.ro._ZTVN8opendnp314FunctorVisitorINS_7IndexedINS_20AnalogOutputDouble64EEEZNS_18TypedCommandHeaderIS2_E20ApplyOperateResponseERKNS_11ICollectionIS3_EEEUlS3_E_EE,"awG",@progbits,_ZTVN8opendnp314FunctorVisitorINS_7IndexedINS_20AnalogOutputDouble64EEEZNS_18TypedCommandHeaderIS2_E20ApplyOperateResponseERKNS_11ICollectionIS3_EEEUlS3_E_EE,comdat
	.align 8
	.type	_ZTVN8opendnp314FunctorVisitorINS_7IndexedINS_20AnalogOutputDouble64EEEZNS_18TypedCommandHeaderIS2_E20ApplyOperateResponseERKNS_11ICollectionIS3_EEEUlS3_E_EE, @object
	.size	_ZTVN8opendnp314FunctorVisitorINS_7IndexedINS_20AnalogOutputDouble64EEEZNS_18TypedCommandHeaderIS2_E20ApplyOperateResponseERKNS_11ICollectionIS3_EEEUlS3_E_EE, 24
_ZTVN8opendnp314FunctorVisitorINS_7IndexedINS_20AnalogOutputDouble64EEEZNS_18TypedCommandHeaderIS2_E20ApplyOperateResponseERKNS_11ICollectionIS3_EEEUlS3_E_EE:
	.quad	0
	.quad	_ZTIN8opendnp314FunctorVisitorINS_7IndexedINS_20AnalogOutputDouble64EEEZNS_18TypedCommandHeaderIS2_E20ApplyOperateResponseERKNS_11ICollectionIS3_EEEUlS3_E_EE
	.quad	_ZN8opendnp314FunctorVisitorINS_7IndexedINS_20AnalogOutputDouble64EEEZNS_18TypedCommandHeaderIS2_E20ApplyOperateResponseERKNS_11ICollectionIS3_EEEUlS3_E_E7OnValueERKS3_
	.weak	_ZTVN8opendnp314FunctorVisitorINS_7IndexedINS_19AnalogOutputFloat32EEEZNS_18TypedCommandHeaderIS2_E19ApplySelectResponseERKNS_11ICollectionIS3_EEEUlS3_E_EE
	.section	.data.rel.ro._ZTVN8opendnp314FunctorVisitorINS_7IndexedINS_19AnalogOutputFloat32EEEZNS_18TypedCommandHeaderIS2_E19ApplySelectResponseERKNS_11ICollectionIS3_EEEUlS3_E_EE,"awG",@progbits,_ZTVN8opendnp314FunctorVisitorINS_7IndexedINS_19AnalogOutputFloat32EEEZNS_18TypedCommandHeaderIS2_E19ApplySelectResponseERKNS_11ICollectionIS3_EEEUlS3_E_EE,comdat
	.align 8
	.type	_ZTVN8opendnp314FunctorVisitorINS_7IndexedINS_19AnalogOutputFloat32EEEZNS_18TypedCommandHeaderIS2_E19ApplySelectResponseERKNS_11ICollectionIS3_EEEUlS3_E_EE, @object
	.size	_ZTVN8opendnp314FunctorVisitorINS_7IndexedINS_19AnalogOutputFloat32EEEZNS_18TypedCommandHeaderIS2_E19ApplySelectResponseERKNS_11ICollectionIS3_EEEUlS3_E_EE, 24
_ZTVN8opendnp314FunctorVisitorINS_7IndexedINS_19AnalogOutputFloat32EEEZNS_18TypedCommandHeaderIS2_E19ApplySelectResponseERKNS_11ICollectionIS3_EEEUlS3_E_EE:
	.quad	0
	.quad	_ZTIN8opendnp314FunctorVisitorINS_7IndexedINS_19AnalogOutputFloat32EEEZNS_18TypedCommandHeaderIS2_E19ApplySelectResponseERKNS_11ICollectionIS3_EEEUlS3_E_EE
	.quad	_ZN8opendnp314FunctorVisitorINS_7IndexedINS_19AnalogOutputFloat32EEEZNS_18TypedCommandHeaderIS2_E19ApplySelectResponseERKNS_11ICollectionIS3_EEEUlS3_E_E7OnValueERKS3_
	.weak	_ZTVN8opendnp314FunctorVisitorINS_7IndexedINS_19AnalogOutputFloat32EEEZNS_18TypedCommandHeaderIS2_E20ApplyOperateResponseERKNS_11ICollectionIS3_EEEUlS3_E_EE
	.section	.data.rel.ro._ZTVN8opendnp314FunctorVisitorINS_7IndexedINS_19AnalogOutputFloat32EEEZNS_18TypedCommandHeaderIS2_E20ApplyOperateResponseERKNS_11ICollectionIS3_EEEUlS3_E_EE,"awG",@progbits,_ZTVN8opendnp314FunctorVisitorINS_7IndexedINS_19AnalogOutputFloat32EEEZNS_18TypedCommandHeaderIS2_E20ApplyOperateResponseERKNS_11ICollectionIS3_EEEUlS3_E_EE,comdat
	.align 8
	.type	_ZTVN8opendnp314FunctorVisitorINS_7IndexedINS_19AnalogOutputFloat32EEEZNS_18TypedCommandHeaderIS2_E20ApplyOperateResponseERKNS_11ICollectionIS3_EEEUlS3_E_EE, @object
	.size	_ZTVN8opendnp314FunctorVisitorINS_7IndexedINS_19AnalogOutputFloat32EEEZNS_18TypedCommandHeaderIS2_E20ApplyOperateResponseERKNS_11ICollectionIS3_EEEUlS3_E_EE, 24
_ZTVN8opendnp314FunctorVisitorINS_7IndexedINS_19AnalogOutputFloat32EEEZNS_18TypedCommandHeaderIS2_E20ApplyOperateResponseERKNS_11ICollectionIS3_EEEUlS3_E_EE:
	.quad	0
	.quad	_ZTIN8opendnp314FunctorVisitorINS_7IndexedINS_19AnalogOutputFloat32EEEZNS_18TypedCommandHeaderIS2_E20ApplyOperateResponseERKNS_11ICollectionIS3_EEEUlS3_E_EE
	.quad	_ZN8opendnp314FunctorVisitorINS_7IndexedINS_19AnalogOutputFloat32EEEZNS_18TypedCommandHeaderIS2_E20ApplyOperateResponseERKNS_11ICollectionIS3_EEEUlS3_E_E7OnValueERKS3_
	.weak	_ZTVN8opendnp314FunctorVisitorINS_7IndexedINS_17AnalogOutputInt16EEEZNS_18TypedCommandHeaderIS2_E19ApplySelectResponseERKNS_11ICollectionIS3_EEEUlS3_E_EE
	.section	.data.rel.ro._ZTVN8opendnp314FunctorVisitorINS_7IndexedINS_17AnalogOutputInt16EEEZNS_18TypedCommandHeaderIS2_E19ApplySelectResponseERKNS_11ICollectionIS3_EEEUlS3_E_EE,"awG",@progbits,_ZTVN8opendnp314FunctorVisitorINS_7IndexedINS_17AnalogOutputInt16EEEZNS_18TypedCommandHeaderIS2_E19ApplySelectResponseERKNS_11ICollectionIS3_EEEUlS3_E_EE,comdat
	.align 8
	.type	_ZTVN8opendnp314FunctorVisitorINS_7IndexedINS_17AnalogOutputInt16EEEZNS_18TypedCommandHeaderIS2_E19ApplySelectResponseERKNS_11ICollectionIS3_EEEUlS3_E_EE, @object
	.size	_ZTVN8opendnp314FunctorVisitorINS_7IndexedINS_17AnalogOutputInt16EEEZNS_18TypedCommandHeaderIS2_E19ApplySelectResponseERKNS_11ICollectionIS3_EEEUlS3_E_EE, 24
_ZTVN8opendnp314FunctorVisitorINS_7IndexedINS_17AnalogOutputInt16EEEZNS_18TypedCommandHeaderIS2_E19ApplySelectResponseERKNS_11ICollectionIS3_EEEUlS3_E_EE:
	.quad	0
	.quad	_ZTIN8opendnp314FunctorVisitorINS_7IndexedINS_17AnalogOutputInt16EEEZNS_18TypedCommandHeaderIS2_E19ApplySelectResponseERKNS_11ICollectionIS3_EEEUlS3_E_EE
	.quad	_ZN8opendnp314FunctorVisitorINS_7IndexedINS_17AnalogOutputInt16EEEZNS_18TypedCommandHeaderIS2_E19ApplySelectResponseERKNS_11ICollectionIS3_EEEUlS3_E_E7OnValueERKS3_
	.weak	_ZTVN8opendnp314FunctorVisitorINS_7IndexedINS_17AnalogOutputInt16EEEZNS_18TypedCommandHeaderIS2_E20ApplyOperateResponseERKNS_11ICollectionIS3_EEEUlS3_E_EE
	.section	.data.rel.ro._ZTVN8opendnp314FunctorVisitorINS_7IndexedINS_17AnalogOutputInt16EEEZNS_18TypedCommandHeaderIS2_E20ApplyOperateResponseERKNS_11ICollectionIS3_EEEUlS3_E_EE,"awG",@progbits,_ZTVN8opendnp314FunctorVisitorINS_7IndexedINS_17AnalogOutputInt16EEEZNS_18TypedCommandHeaderIS2_E20ApplyOperateResponseERKNS_11ICollectionIS3_EEEUlS3_E_EE,comdat
	.align 8
	.type	_ZTVN8opendnp314FunctorVisitorINS_7IndexedINS_17AnalogOutputInt16EEEZNS_18TypedCommandHeaderIS2_E20ApplyOperateResponseERKNS_11ICollectionIS3_EEEUlS3_E_EE, @object
	.size	_ZTVN8opendnp314FunctorVisitorINS_7IndexedINS_17AnalogOutputInt16EEEZNS_18TypedCommandHeaderIS2_E20ApplyOperateResponseERKNS_11ICollectionIS3_EEEUlS3_E_EE, 24
_ZTVN8opendnp314FunctorVisitorINS_7IndexedINS_17AnalogOutputInt16EEEZNS_18TypedCommandHeaderIS2_E20ApplyOperateResponseERKNS_11ICollectionIS3_EEEUlS3_E_EE:
	.quad	0
	.quad	_ZTIN8opendnp314FunctorVisitorINS_7IndexedINS_17AnalogOutputInt16EEEZNS_18TypedCommandHeaderIS2_E20ApplyOperateResponseERKNS_11ICollectionIS3_EEEUlS3_E_EE
	.quad	_ZN8opendnp314FunctorVisitorINS_7IndexedINS_17AnalogOutputInt16EEEZNS_18TypedCommandHeaderIS2_E20ApplyOperateResponseERKNS_11ICollectionIS3_EEEUlS3_E_E7OnValueERKS3_
	.weak	_ZTVN8opendnp314FunctorVisitorINS_7IndexedINS_17AnalogOutputInt32EEEZNS_18TypedCommandHeaderIS2_E19ApplySelectResponseERKNS_11ICollectionIS3_EEEUlS3_E_EE
	.section	.data.rel.ro._ZTVN8opendnp314FunctorVisitorINS_7IndexedINS_17AnalogOutputInt32EEEZNS_18TypedCommandHeaderIS2_E19ApplySelectResponseERKNS_11ICollectionIS3_EEEUlS3_E_EE,"awG",@progbits,_ZTVN8opendnp314FunctorVisitorINS_7IndexedINS_17AnalogOutputInt32EEEZNS_18TypedCommandHeaderIS2_E19ApplySelectResponseERKNS_11ICollectionIS3_EEEUlS3_E_EE,comdat
	.align 8
	.type	_ZTVN8opendnp314FunctorVisitorINS_7IndexedINS_17AnalogOutputInt32EEEZNS_18TypedCommandHeaderIS2_E19ApplySelectResponseERKNS_11ICollectionIS3_EEEUlS3_E_EE, @object
	.size	_ZTVN8opendnp314FunctorVisitorINS_7IndexedINS_17AnalogOutputInt32EEEZNS_18TypedCommandHeaderIS2_E19ApplySelectResponseERKNS_11ICollectionIS3_EEEUlS3_E_EE, 24
_ZTVN8opendnp314FunctorVisitorINS_7IndexedINS_17AnalogOutputInt32EEEZNS_18TypedCommandHeaderIS2_E19ApplySelectResponseERKNS_11ICollectionIS3_EEEUlS3_E_EE:
	.quad	0
	.quad	_ZTIN8opendnp314FunctorVisitorINS_7IndexedINS_17AnalogOutputInt32EEEZNS_18TypedCommandHeaderIS2_E19ApplySelectResponseERKNS_11ICollectionIS3_EEEUlS3_E_EE
	.quad	_ZN8opendnp314FunctorVisitorINS_7IndexedINS_17AnalogOutputInt32EEEZNS_18TypedCommandHeaderIS2_E19ApplySelectResponseERKNS_11ICollectionIS3_EEEUlS3_E_E7OnValueERKS3_
	.weak	_ZTVN8opendnp314FunctorVisitorINS_7IndexedINS_17AnalogOutputInt32EEEZNS_18TypedCommandHeaderIS2_E20ApplyOperateResponseERKNS_11ICollectionIS3_EEEUlS3_E_EE
	.section	.data.rel.ro._ZTVN8opendnp314FunctorVisitorINS_7IndexedINS_17AnalogOutputInt32EEEZNS_18TypedCommandHeaderIS2_E20ApplyOperateResponseERKNS_11ICollectionIS3_EEEUlS3_E_EE,"awG",@progbits,_ZTVN8opendnp314FunctorVisitorINS_7IndexedINS_17AnalogOutputInt32EEEZNS_18TypedCommandHeaderIS2_E20ApplyOperateResponseERKNS_11ICollectionIS3_EEEUlS3_E_EE,comdat
	.align 8
	.type	_ZTVN8opendnp314FunctorVisitorINS_7IndexedINS_17AnalogOutputInt32EEEZNS_18TypedCommandHeaderIS2_E20ApplyOperateResponseERKNS_11ICollectionIS3_EEEUlS3_E_EE, @object
	.size	_ZTVN8opendnp314FunctorVisitorINS_7IndexedINS_17AnalogOutputInt32EEEZNS_18TypedCommandHeaderIS2_E20ApplyOperateResponseERKNS_11ICollectionIS3_EEEUlS3_E_EE, 24
_ZTVN8opendnp314FunctorVisitorINS_7IndexedINS_17AnalogOutputInt32EEEZNS_18TypedCommandHeaderIS2_E20ApplyOperateResponseERKNS_11ICollectionIS3_EEEUlS3_E_EE:
	.quad	0
	.quad	_ZTIN8opendnp314FunctorVisitorINS_7IndexedINS_17AnalogOutputInt32EEEZNS_18TypedCommandHeaderIS2_E20ApplyOperateResponseERKNS_11ICollectionIS3_EEEUlS3_E_EE
	.quad	_ZN8opendnp314FunctorVisitorINS_7IndexedINS_17AnalogOutputInt32EEEZNS_18TypedCommandHeaderIS2_E20ApplyOperateResponseERKNS_11ICollectionIS3_EEEUlS3_E_E7OnValueERKS3_
	.weak	_ZTVN8opendnp314FunctorVisitorINS_7IndexedINS_23ControlRelayOutputBlockEEEZNS_18TypedCommandHeaderIS2_E19ApplySelectResponseERKNS_11ICollectionIS3_EEEUlS3_E_EE
	.section	.data.rel.ro._ZTVN8opendnp314FunctorVisitorINS_7IndexedINS_23ControlRelayOutputBlockEEEZNS_18TypedCommandHeaderIS2_E19ApplySelectResponseERKNS_11ICollectionIS3_EEEUlS3_E_EE,"awG",@progbits,_ZTVN8opendnp314FunctorVisitorINS_7IndexedINS_23ControlRelayOutputBlockEEEZNS_18TypedCommandHeaderIS2_E19ApplySelectResponseERKNS_11ICollectionIS3_EEEUlS3_E_EE,comdat
	.align 8
	.type	_ZTVN8opendnp314FunctorVisitorINS_7IndexedINS_23ControlRelayOutputBlockEEEZNS_18TypedCommandHeaderIS2_E19ApplySelectResponseERKNS_11ICollectionIS3_EEEUlS3_E_EE, @object
	.size	_ZTVN8opendnp314FunctorVisitorINS_7IndexedINS_23ControlRelayOutputBlockEEEZNS_18TypedCommandHeaderIS2_E19ApplySelectResponseERKNS_11ICollectionIS3_EEEUlS3_E_EE, 24
_ZTVN8opendnp314FunctorVisitorINS_7IndexedINS_23ControlRelayOutputBlockEEEZNS_18TypedCommandHeaderIS2_E19ApplySelectResponseERKNS_11ICollectionIS3_EEEUlS3_E_EE:
	.quad	0
	.quad	_ZTIN8opendnp314FunctorVisitorINS_7IndexedINS_23ControlRelayOutputBlockEEEZNS_18TypedCommandHeaderIS2_E19ApplySelectResponseERKNS_11ICollectionIS3_EEEUlS3_E_EE
	.quad	_ZN8opendnp314FunctorVisitorINS_7IndexedINS_23ControlRelayOutputBlockEEEZNS_18TypedCommandHeaderIS2_E19ApplySelectResponseERKNS_11ICollectionIS3_EEEUlS3_E_E7OnValueERKS3_
	.weak	_ZTVN8opendnp314FunctorVisitorINS_7IndexedINS_23ControlRelayOutputBlockEEEZNS_18TypedCommandHeaderIS2_E20ApplyOperateResponseERKNS_11ICollectionIS3_EEEUlS3_E_EE
	.section	.data.rel.ro._ZTVN8opendnp314FunctorVisitorINS_7IndexedINS_23ControlRelayOutputBlockEEEZNS_18TypedCommandHeaderIS2_E20ApplyOperateResponseERKNS_11ICollectionIS3_EEEUlS3_E_EE,"awG",@progbits,_ZTVN8opendnp314FunctorVisitorINS_7IndexedINS_23ControlRelayOutputBlockEEEZNS_18TypedCommandHeaderIS2_E20ApplyOperateResponseERKNS_11ICollectionIS3_EEEUlS3_E_EE,comdat
	.align 8
	.type	_ZTVN8opendnp314FunctorVisitorINS_7IndexedINS_23ControlRelayOutputBlockEEEZNS_18TypedCommandHeaderIS2_E20ApplyOperateResponseERKNS_11ICollectionIS3_EEEUlS3_E_EE, @object
	.size	_ZTVN8opendnp314FunctorVisitorINS_7IndexedINS_23ControlRelayOutputBlockEEEZNS_18TypedCommandHeaderIS2_E20ApplyOperateResponseERKNS_11ICollectionIS3_EEEUlS3_E_EE, 24
_ZTVN8opendnp314FunctorVisitorINS_7IndexedINS_23ControlRelayOutputBlockEEEZNS_18TypedCommandHeaderIS2_E20ApplyOperateResponseERKNS_11ICollectionIS3_EEEUlS3_E_EE:
	.quad	0
	.quad	_ZTIN8opendnp314FunctorVisitorINS_7IndexedINS_23ControlRelayOutputBlockEEEZNS_18TypedCommandHeaderIS2_E20ApplyOperateResponseERKNS_11ICollectionIS3_EEEUlS3_E_EE
	.quad	_ZN8opendnp314FunctorVisitorINS_7IndexedINS_23ControlRelayOutputBlockEEEZNS_18TypedCommandHeaderIS2_E20ApplyOperateResponseERKNS_11ICollectionIS3_EEEUlS3_E_E7OnValueERKS3_
	.weak	_ZTSN8opendnp311ICollectionINS_12CommandStateEEE
	.section	.rodata._ZTSN8opendnp311ICollectionINS_12CommandStateEEE,"aG",@progbits,_ZTSN8opendnp311ICollectionINS_12CommandStateEEE,comdat
	.align 32
	.type	_ZTSN8opendnp311ICollectionINS_12CommandStateEEE, @object
	.size	_ZTSN8opendnp311ICollectionINS_12CommandStateEEE, 45
_ZTSN8opendnp311ICollectionINS_12CommandStateEEE:
	.string	"N8opendnp311ICollectionINS_12CommandStateEEE"
	.weak	_ZTIN8opendnp311ICollectionINS_12CommandStateEEE
	.section	.data.rel.ro._ZTIN8opendnp311ICollectionINS_12CommandStateEEE,"awG",@progbits,_ZTIN8opendnp311ICollectionINS_12CommandStateEEE,comdat
	.align 8
	.type	_ZTIN8opendnp311ICollectionINS_12CommandStateEEE, @object
	.size	_ZTIN8opendnp311ICollectionINS_12CommandStateEEE, 16
_ZTIN8opendnp311ICollectionINS_12CommandStateEEE:
	.quad	_ZTVN10__cxxabiv117__class_type_infoE+16
	.quad	_ZTSN8opendnp311ICollectionINS_12CommandStateEEE
	.weak	_ZTSN8opendnp314ICommandHeaderE
	.section	.rodata._ZTSN8opendnp314ICommandHeaderE,"aG",@progbits,_ZTSN8opendnp314ICommandHeaderE,comdat
	.align 16
	.type	_ZTSN8opendnp314ICommandHeaderE, @object
	.size	_ZTSN8opendnp314ICommandHeaderE, 28
_ZTSN8opendnp314ICommandHeaderE:
	.string	"N8opendnp314ICommandHeaderE"
	.weak	_ZTIN8opendnp314ICommandHeaderE
	.section	.data.rel.ro._ZTIN8opendnp314ICommandHeaderE,"awG",@progbits,_ZTIN8opendnp314ICommandHeaderE,comdat
	.align 8
	.type	_ZTIN8opendnp314ICommandHeaderE, @object
	.size	_ZTIN8opendnp314ICommandHeaderE, 24
_ZTIN8opendnp314ICommandHeaderE:
	.quad	_ZTVN10__cxxabiv120__si_class_type_infoE+16
	.quad	_ZTSN8opendnp314ICommandHeaderE
	.quad	_ZTIN8opendnp311ICollectionINS_12CommandStateEEE
	.weak	_ZTSN8opendnp318ICommandCollectionINS_23ControlRelayOutputBlockEEE
	.section	.rodata._ZTSN8opendnp318ICommandCollectionINS_23ControlRelayOutputBlockEEE,"aG",@progbits,_ZTSN8opendnp318ICommandCollectionINS_23ControlRelayOutputBlockEEE,comdat
	.align 32
	.type	_ZTSN8opendnp318ICommandCollectionINS_23ControlRelayOutputBlockEEE, @object
	.size	_ZTSN8opendnp318ICommandCollectionINS_23ControlRelayOutputBlockEEE, 63
_ZTSN8opendnp318ICommandCollectionINS_23ControlRelayOutputBlockEEE:
	.string	"N8opendnp318ICommandCollectionINS_23ControlRelayOutputBlockEEE"
	.weak	_ZTIN8opendnp318ICommandCollectionINS_23ControlRelayOutputBlockEEE
	.section	.data.rel.ro._ZTIN8opendnp318ICommandCollectionINS_23ControlRelayOutputBlockEEE,"awG",@progbits,_ZTIN8opendnp318ICommandCollectionINS_23ControlRelayOutputBlockEEE,comdat
	.align 8
	.type	_ZTIN8opendnp318ICommandCollectionINS_23ControlRelayOutputBlockEEE, @object
	.size	_ZTIN8opendnp318ICommandCollectionINS_23ControlRelayOutputBlockEEE, 16
_ZTIN8opendnp318ICommandCollectionINS_23ControlRelayOutputBlockEEE:
	.quad	_ZTVN10__cxxabiv117__class_type_infoE+16
	.quad	_ZTSN8opendnp318ICommandCollectionINS_23ControlRelayOutputBlockEEE
	.weak	_ZTSN8opendnp318TypedCommandHeaderINS_23ControlRelayOutputBlockEEE
	.section	.rodata._ZTSN8opendnp318TypedCommandHeaderINS_23ControlRelayOutputBlockEEE,"aG",@progbits,_ZTSN8opendnp318TypedCommandHeaderINS_23ControlRelayOutputBlockEEE,comdat
	.align 32
	.type	_ZTSN8opendnp318TypedCommandHeaderINS_23ControlRelayOutputBlockEEE, @object
	.size	_ZTSN8opendnp318TypedCommandHeaderINS_23ControlRelayOutputBlockEEE, 63
_ZTSN8opendnp318TypedCommandHeaderINS_23ControlRelayOutputBlockEEE:
	.string	"N8opendnp318TypedCommandHeaderINS_23ControlRelayOutputBlockEEE"
	.weak	_ZTIN8opendnp318TypedCommandHeaderINS_23ControlRelayOutputBlockEEE
	.section	.data.rel.ro._ZTIN8opendnp318TypedCommandHeaderINS_23ControlRelayOutputBlockEEE,"awG",@progbits,_ZTIN8opendnp318TypedCommandHeaderINS_23ControlRelayOutputBlockEEE,comdat
	.align 8
	.type	_ZTIN8opendnp318TypedCommandHeaderINS_23ControlRelayOutputBlockEEE, @object
	.size	_ZTIN8opendnp318TypedCommandHeaderINS_23ControlRelayOutputBlockEEE, 56
_ZTIN8opendnp318TypedCommandHeaderINS_23ControlRelayOutputBlockEEE:
	.quad	_ZTVN10__cxxabiv121__vmi_class_type_infoE+16
	.quad	_ZTSN8opendnp318TypedCommandHeaderINS_23ControlRelayOutputBlockEEE
	.long	0
	.long	2
	.quad	_ZTIN8opendnp314ICommandHeaderE
	.quad	2
	.quad	_ZTIN8opendnp318ICommandCollectionINS_23ControlRelayOutputBlockEEE
	.quad	2050
	.weak	_ZTSN8opendnp318ICommandCollectionINS_17AnalogOutputInt32EEE
	.section	.rodata._ZTSN8opendnp318ICommandCollectionINS_17AnalogOutputInt32EEE,"aG",@progbits,_ZTSN8opendnp318ICommandCollectionINS_17AnalogOutputInt32EEE,comdat
	.align 32
	.type	_ZTSN8opendnp318ICommandCollectionINS_17AnalogOutputInt32EEE, @object
	.size	_ZTSN8opendnp318ICommandCollectionINS_17AnalogOutputInt32EEE, 57
_ZTSN8opendnp318ICommandCollectionINS_17AnalogOutputInt32EEE:
	.string	"N8opendnp318ICommandCollectionINS_17AnalogOutputInt32EEE"
	.weak	_ZTIN8opendnp318ICommandCollectionINS_17AnalogOutputInt32EEE
	.section	.data.rel.ro._ZTIN8opendnp318ICommandCollectionINS_17AnalogOutputInt32EEE,"awG",@progbits,_ZTIN8opendnp318ICommandCollectionINS_17AnalogOutputInt32EEE,comdat
	.align 8
	.type	_ZTIN8opendnp318ICommandCollectionINS_17AnalogOutputInt32EEE, @object
	.size	_ZTIN8opendnp318ICommandCollectionINS_17AnalogOutputInt32EEE, 16
_ZTIN8opendnp318ICommandCollectionINS_17AnalogOutputInt32EEE:
	.quad	_ZTVN10__cxxabiv117__class_type_infoE+16
	.quad	_ZTSN8opendnp318ICommandCollectionINS_17AnalogOutputInt32EEE
	.weak	_ZTSN8opendnp318TypedCommandHeaderINS_17AnalogOutputInt32EEE
	.section	.rodata._ZTSN8opendnp318TypedCommandHeaderINS_17AnalogOutputInt32EEE,"aG",@progbits,_ZTSN8opendnp318TypedCommandHeaderINS_17AnalogOutputInt32EEE,comdat
	.align 32
	.type	_ZTSN8opendnp318TypedCommandHeaderINS_17AnalogOutputInt32EEE, @object
	.size	_ZTSN8opendnp318TypedCommandHeaderINS_17AnalogOutputInt32EEE, 57
_ZTSN8opendnp318TypedCommandHeaderINS_17AnalogOutputInt32EEE:
	.string	"N8opendnp318TypedCommandHeaderINS_17AnalogOutputInt32EEE"
	.weak	_ZTIN8opendnp318TypedCommandHeaderINS_17AnalogOutputInt32EEE
	.section	.data.rel.ro._ZTIN8opendnp318TypedCommandHeaderINS_17AnalogOutputInt32EEE,"awG",@progbits,_ZTIN8opendnp318TypedCommandHeaderINS_17AnalogOutputInt32EEE,comdat
	.align 8
	.type	_ZTIN8opendnp318TypedCommandHeaderINS_17AnalogOutputInt32EEE, @object
	.size	_ZTIN8opendnp318TypedCommandHeaderINS_17AnalogOutputInt32EEE, 56
_ZTIN8opendnp318TypedCommandHeaderINS_17AnalogOutputInt32EEE:
	.quad	_ZTVN10__cxxabiv121__vmi_class_type_infoE+16
	.quad	_ZTSN8opendnp318TypedCommandHeaderINS_17AnalogOutputInt32EEE
	.long	0
	.long	2
	.quad	_ZTIN8opendnp314ICommandHeaderE
	.quad	2
	.quad	_ZTIN8opendnp318ICommandCollectionINS_17AnalogOutputInt32EEE
	.quad	2050
	.weak	_ZTSN8opendnp318ICommandCollectionINS_17AnalogOutputInt16EEE
	.section	.rodata._ZTSN8opendnp318ICommandCollectionINS_17AnalogOutputInt16EEE,"aG",@progbits,_ZTSN8opendnp318ICommandCollectionINS_17AnalogOutputInt16EEE,comdat
	.align 32
	.type	_ZTSN8opendnp318ICommandCollectionINS_17AnalogOutputInt16EEE, @object
	.size	_ZTSN8opendnp318ICommandCollectionINS_17AnalogOutputInt16EEE, 57
_ZTSN8opendnp318ICommandCollectionINS_17AnalogOutputInt16EEE:
	.string	"N8opendnp318ICommandCollectionINS_17AnalogOutputInt16EEE"
	.weak	_ZTIN8opendnp318ICommandCollectionINS_17AnalogOutputInt16EEE
	.section	.data.rel.ro._ZTIN8opendnp318ICommandCollectionINS_17AnalogOutputInt16EEE,"awG",@progbits,_ZTIN8opendnp318ICommandCollectionINS_17AnalogOutputInt16EEE,comdat
	.align 8
	.type	_ZTIN8opendnp318ICommandCollectionINS_17AnalogOutputInt16EEE, @object
	.size	_ZTIN8opendnp318ICommandCollectionINS_17AnalogOutputInt16EEE, 16
_ZTIN8opendnp318ICommandCollectionINS_17AnalogOutputInt16EEE:
	.quad	_ZTVN10__cxxabiv117__class_type_infoE+16
	.quad	_ZTSN8opendnp318ICommandCollectionINS_17AnalogOutputInt16EEE
	.weak	_ZTSN8opendnp318TypedCommandHeaderINS_17AnalogOutputInt16EEE
	.section	.rodata._ZTSN8opendnp318TypedCommandHeaderINS_17AnalogOutputInt16EEE,"aG",@progbits,_ZTSN8opendnp318TypedCommandHeaderINS_17AnalogOutputInt16EEE,comdat
	.align 32
	.type	_ZTSN8opendnp318TypedCommandHeaderINS_17AnalogOutputInt16EEE, @object
	.size	_ZTSN8opendnp318TypedCommandHeaderINS_17AnalogOutputInt16EEE, 57
_ZTSN8opendnp318TypedCommandHeaderINS_17AnalogOutputInt16EEE:
	.string	"N8opendnp318TypedCommandHeaderINS_17AnalogOutputInt16EEE"
	.weak	_ZTIN8opendnp318TypedCommandHeaderINS_17AnalogOutputInt16EEE
	.section	.data.rel.ro._ZTIN8opendnp318TypedCommandHeaderINS_17AnalogOutputInt16EEE,"awG",@progbits,_ZTIN8opendnp318TypedCommandHeaderINS_17AnalogOutputInt16EEE,comdat
	.align 8
	.type	_ZTIN8opendnp318TypedCommandHeaderINS_17AnalogOutputInt16EEE, @object
	.size	_ZTIN8opendnp318TypedCommandHeaderINS_17AnalogOutputInt16EEE, 56
_ZTIN8opendnp318TypedCommandHeaderINS_17AnalogOutputInt16EEE:
	.quad	_ZTVN10__cxxabiv121__vmi_class_type_infoE+16
	.quad	_ZTSN8opendnp318TypedCommandHeaderINS_17AnalogOutputInt16EEE
	.long	0
	.long	2
	.quad	_ZTIN8opendnp314ICommandHeaderE
	.quad	2
	.quad	_ZTIN8opendnp318ICommandCollectionINS_17AnalogOutputInt16EEE
	.quad	2050
	.weak	_ZTSN8opendnp318ICommandCollectionINS_19AnalogOutputFloat32EEE
	.section	.rodata._ZTSN8opendnp318ICommandCollectionINS_19AnalogOutputFloat32EEE,"aG",@progbits,_ZTSN8opendnp318ICommandCollectionINS_19AnalogOutputFloat32EEE,comdat
	.align 32
	.type	_ZTSN8opendnp318ICommandCollectionINS_19AnalogOutputFloat32EEE, @object
	.size	_ZTSN8opendnp318ICommandCollectionINS_19AnalogOutputFloat32EEE, 59
_ZTSN8opendnp318ICommandCollectionINS_19AnalogOutputFloat32EEE:
	.string	"N8opendnp318ICommandCollectionINS_19AnalogOutputFloat32EEE"
	.weak	_ZTIN8opendnp318ICommandCollectionINS_19AnalogOutputFloat32EEE
	.section	.data.rel.ro._ZTIN8opendnp318ICommandCollectionINS_19AnalogOutputFloat32EEE,"awG",@progbits,_ZTIN8opendnp318ICommandCollectionINS_19AnalogOutputFloat32EEE,comdat
	.align 8
	.type	_ZTIN8opendnp318ICommandCollectionINS_19AnalogOutputFloat32EEE, @object
	.size	_ZTIN8opendnp318ICommandCollectionINS_19AnalogOutputFloat32EEE, 16
_ZTIN8opendnp318ICommandCollectionINS_19AnalogOutputFloat32EEE:
	.quad	_ZTVN10__cxxabiv117__class_type_infoE+16
	.quad	_ZTSN8opendnp318ICommandCollectionINS_19AnalogOutputFloat32EEE
	.weak	_ZTSN8opendnp318TypedCommandHeaderINS_19AnalogOutputFloat32EEE
	.section	.rodata._ZTSN8opendnp318TypedCommandHeaderINS_19AnalogOutputFloat32EEE,"aG",@progbits,_ZTSN8opendnp318TypedCommandHeaderINS_19AnalogOutputFloat32EEE,comdat
	.align 32
	.type	_ZTSN8opendnp318TypedCommandHeaderINS_19AnalogOutputFloat32EEE, @object
	.size	_ZTSN8opendnp318TypedCommandHeaderINS_19AnalogOutputFloat32EEE, 59
_ZTSN8opendnp318TypedCommandHeaderINS_19AnalogOutputFloat32EEE:
	.string	"N8opendnp318TypedCommandHeaderINS_19AnalogOutputFloat32EEE"
	.weak	_ZTIN8opendnp318TypedCommandHeaderINS_19AnalogOutputFloat32EEE
	.section	.data.rel.ro._ZTIN8opendnp318TypedCommandHeaderINS_19AnalogOutputFloat32EEE,"awG",@progbits,_ZTIN8opendnp318TypedCommandHeaderINS_19AnalogOutputFloat32EEE,comdat
	.align 8
	.type	_ZTIN8opendnp318TypedCommandHeaderINS_19AnalogOutputFloat32EEE, @object
	.size	_ZTIN8opendnp318TypedCommandHeaderINS_19AnalogOutputFloat32EEE, 56
_ZTIN8opendnp318TypedCommandHeaderINS_19AnalogOutputFloat32EEE:
	.quad	_ZTVN10__cxxabiv121__vmi_class_type_infoE+16
	.quad	_ZTSN8opendnp318TypedCommandHeaderINS_19AnalogOutputFloat32EEE
	.long	0
	.long	2
	.quad	_ZTIN8opendnp314ICommandHeaderE
	.quad	2
	.quad	_ZTIN8opendnp318ICommandCollectionINS_19AnalogOutputFloat32EEE
	.quad	2050
	.weak	_ZTSN8opendnp318ICommandCollectionINS_20AnalogOutputDouble64EEE
	.section	.rodata._ZTSN8opendnp318ICommandCollectionINS_20AnalogOutputDouble64EEE,"aG",@progbits,_ZTSN8opendnp318ICommandCollectionINS_20AnalogOutputDouble64EEE,comdat
	.align 32
	.type	_ZTSN8opendnp318ICommandCollectionINS_20AnalogOutputDouble64EEE, @object
	.size	_ZTSN8opendnp318ICommandCollectionINS_20AnalogOutputDouble64EEE, 60
_ZTSN8opendnp318ICommandCollectionINS_20AnalogOutputDouble64EEE:
	.string	"N8opendnp318ICommandCollectionINS_20AnalogOutputDouble64EEE"
	.weak	_ZTIN8opendnp318ICommandCollectionINS_20AnalogOutputDouble64EEE
	.section	.data.rel.ro._ZTIN8opendnp318ICommandCollectionINS_20AnalogOutputDouble64EEE,"awG",@progbits,_ZTIN8opendnp318ICommandCollectionINS_20AnalogOutputDouble64EEE,comdat
	.align 8
	.type	_ZTIN8opendnp318ICommandCollectionINS_20AnalogOutputDouble64EEE, @object
	.size	_ZTIN8opendnp318ICommandCollectionINS_20AnalogOutputDouble64EEE, 16
_ZTIN8opendnp318ICommandCollectionINS_20AnalogOutputDouble64EEE:
	.quad	_ZTVN10__cxxabiv117__class_type_infoE+16
	.quad	_ZTSN8opendnp318ICommandCollectionINS_20AnalogOutputDouble64EEE
	.weak	_ZTSN8opendnp318TypedCommandHeaderINS_20AnalogOutputDouble64EEE
	.section	.rodata._ZTSN8opendnp318TypedCommandHeaderINS_20AnalogOutputDouble64EEE,"aG",@progbits,_ZTSN8opendnp318TypedCommandHeaderINS_20AnalogOutputDouble64EEE,comdat
	.align 32
	.type	_ZTSN8opendnp318TypedCommandHeaderINS_20AnalogOutputDouble64EEE, @object
	.size	_ZTSN8opendnp318TypedCommandHeaderINS_20AnalogOutputDouble64EEE, 60
_ZTSN8opendnp318TypedCommandHeaderINS_20AnalogOutputDouble64EEE:
	.string	"N8opendnp318TypedCommandHeaderINS_20AnalogOutputDouble64EEE"
	.weak	_ZTIN8opendnp318TypedCommandHeaderINS_20AnalogOutputDouble64EEE
	.section	.data.rel.ro._ZTIN8opendnp318TypedCommandHeaderINS_20AnalogOutputDouble64EEE,"awG",@progbits,_ZTIN8opendnp318TypedCommandHeaderINS_20AnalogOutputDouble64EEE,comdat
	.align 8
	.type	_ZTIN8opendnp318TypedCommandHeaderINS_20AnalogOutputDouble64EEE, @object
	.size	_ZTIN8opendnp318TypedCommandHeaderINS_20AnalogOutputDouble64EEE, 56
_ZTIN8opendnp318TypedCommandHeaderINS_20AnalogOutputDouble64EEE:
	.quad	_ZTVN10__cxxabiv121__vmi_class_type_infoE+16
	.quad	_ZTSN8opendnp318TypedCommandHeaderINS_20AnalogOutputDouble64EEE
	.long	0
	.long	2
	.quad	_ZTIN8opendnp314ICommandHeaderE
	.quad	2
	.quad	_ZTIN8opendnp318ICommandCollectionINS_20AnalogOutputDouble64EEE
	.quad	2050
	.weak	_ZTVN8opendnp318TypedCommandHeaderINS_23ControlRelayOutputBlockEEE
	.section	.data.rel.ro._ZTVN8opendnp318TypedCommandHeaderINS_23ControlRelayOutputBlockEEE,"awG",@progbits,_ZTVN8opendnp318TypedCommandHeaderINS_23ControlRelayOutputBlockEEE,comdat
	.align 8
	.type	_ZTVN8opendnp318TypedCommandHeaderINS_23ControlRelayOutputBlockEEE, @object
	.size	_ZTVN8opendnp318TypedCommandHeaderINS_23ControlRelayOutputBlockEEE, 176
_ZTVN8opendnp318TypedCommandHeaderINS_23ControlRelayOutputBlockEEE:
	.quad	0
	.quad	_ZTIN8opendnp318TypedCommandHeaderINS_23ControlRelayOutputBlockEEE
	.quad	_ZNK8opendnp318TypedCommandHeaderINS_23ControlRelayOutputBlockEE5CountEv
	.quad	_ZNK8opendnp318TypedCommandHeaderINS_23ControlRelayOutputBlockEE7ForeachERNS_8IVisitorINS_12CommandStateEEE
	.quad	_ZN8opendnp318TypedCommandHeaderINS_23ControlRelayOutputBlockEED1Ev
	.quad	_ZN8opendnp318TypedCommandHeaderINS_23ControlRelayOutputBlockEED0Ev
	.quad	_ZNK8opendnp318TypedCommandHeaderINS_23ControlRelayOutputBlockEE5WriteERNS_12HeaderWriterE
	.quad	_ZNK8opendnp318TypedCommandHeaderINS_23ControlRelayOutputBlockEE14AreAllSelectedEv
	.quad	_ZN8opendnp318TypedCommandHeaderINS_23ControlRelayOutputBlockEE19ApplySelectResponseERKNS_11ICollectionINS_7IndexedIS1_EEEE
	.quad	_ZN8opendnp314ICommandHeader19ApplySelectResponseERKNS_11ICollectionINS_7IndexedINS_17AnalogOutputInt16EEEEE
	.quad	_ZN8opendnp314ICommandHeader19ApplySelectResponseERKNS_11ICollectionINS_7IndexedINS_17AnalogOutputInt32EEEEE
	.quad	_ZN8opendnp314ICommandHeader19ApplySelectResponseERKNS_11ICollectionINS_7IndexedINS_19AnalogOutputFloat32EEEEE
	.quad	_ZN8opendnp314ICommandHeader19ApplySelectResponseERKNS_11ICollectionINS_7IndexedINS_20AnalogOutputDouble64EEEEE
	.quad	_ZN8opendnp318TypedCommandHeaderINS_23ControlRelayOutputBlockEE20ApplyOperateResponseERKNS_11ICollectionINS_7IndexedIS1_EEEE
	.quad	_ZN8opendnp314ICommandHeader20ApplyOperateResponseERKNS_11ICollectionINS_7IndexedINS_17AnalogOutputInt16EEEEE
	.quad	_ZN8opendnp314ICommandHeader20ApplyOperateResponseERKNS_11ICollectionINS_7IndexedINS_17AnalogOutputInt32EEEEE
	.quad	_ZN8opendnp314ICommandHeader20ApplyOperateResponseERKNS_11ICollectionINS_7IndexedINS_19AnalogOutputFloat32EEEEE
	.quad	_ZN8opendnp314ICommandHeader20ApplyOperateResponseERKNS_11ICollectionINS_7IndexedINS_20AnalogOutputDouble64EEEEE
	.quad	_ZN8opendnp318TypedCommandHeaderINS_23ControlRelayOutputBlockEE3AddERKS1_t
	.quad	-8
	.quad	_ZTIN8opendnp318TypedCommandHeaderINS_23ControlRelayOutputBlockEEE
	.quad	_ZThn8_N8opendnp318TypedCommandHeaderINS_23ControlRelayOutputBlockEE3AddERKS1_t
	.weak	_ZTVN8opendnp318TypedCommandHeaderINS_17AnalogOutputInt32EEE
	.section	.data.rel.ro._ZTVN8opendnp318TypedCommandHeaderINS_17AnalogOutputInt32EEE,"awG",@progbits,_ZTVN8opendnp318TypedCommandHeaderINS_17AnalogOutputInt32EEE,comdat
	.align 8
	.type	_ZTVN8opendnp318TypedCommandHeaderINS_17AnalogOutputInt32EEE, @object
	.size	_ZTVN8opendnp318TypedCommandHeaderINS_17AnalogOutputInt32EEE, 176
_ZTVN8opendnp318TypedCommandHeaderINS_17AnalogOutputInt32EEE:
	.quad	0
	.quad	_ZTIN8opendnp318TypedCommandHeaderINS_17AnalogOutputInt32EEE
	.quad	_ZNK8opendnp318TypedCommandHeaderINS_17AnalogOutputInt32EE5CountEv
	.quad	_ZNK8opendnp318TypedCommandHeaderINS_17AnalogOutputInt32EE7ForeachERNS_8IVisitorINS_12CommandStateEEE
	.quad	_ZN8opendnp318TypedCommandHeaderINS_17AnalogOutputInt32EED1Ev
	.quad	_ZN8opendnp318TypedCommandHeaderINS_17AnalogOutputInt32EED0Ev
	.quad	_ZNK8opendnp318TypedCommandHeaderINS_17AnalogOutputInt32EE5WriteERNS_12HeaderWriterE
	.quad	_ZNK8opendnp318TypedCommandHeaderINS_17AnalogOutputInt32EE14AreAllSelectedEv
	.quad	_ZN8opendnp314ICommandHeader19ApplySelectResponseERKNS_11ICollectionINS_7IndexedINS_23ControlRelayOutputBlockEEEEE
	.quad	_ZN8opendnp314ICommandHeader19ApplySelectResponseERKNS_11ICollectionINS_7IndexedINS_17AnalogOutputInt16EEEEE
	.quad	_ZN8opendnp318TypedCommandHeaderINS_17AnalogOutputInt32EE19ApplySelectResponseERKNS_11ICollectionINS_7IndexedIS1_EEEE
	.quad	_ZN8opendnp314ICommandHeader19ApplySelectResponseERKNS_11ICollectionINS_7IndexedINS_19AnalogOutputFloat32EEEEE
	.quad	_ZN8opendnp314ICommandHeader19ApplySelectResponseERKNS_11ICollectionINS_7IndexedINS_20AnalogOutputDouble64EEEEE
	.quad	_ZN8opendnp314ICommandHeader20ApplyOperateResponseERKNS_11ICollectionINS_7IndexedINS_23ControlRelayOutputBlockEEEEE
	.quad	_ZN8opendnp314ICommandHeader20ApplyOperateResponseERKNS_11ICollectionINS_7IndexedINS_17AnalogOutputInt16EEEEE
	.quad	_ZN8opendnp318TypedCommandHeaderINS_17AnalogOutputInt32EE20ApplyOperateResponseERKNS_11ICollectionINS_7IndexedIS1_EEEE
	.quad	_ZN8opendnp314ICommandHeader20ApplyOperateResponseERKNS_11ICollectionINS_7IndexedINS_19AnalogOutputFloat32EEEEE
	.quad	_ZN8opendnp314ICommandHeader20ApplyOperateResponseERKNS_11ICollectionINS_7IndexedINS_20AnalogOutputDouble64EEEEE
	.quad	_ZN8opendnp318TypedCommandHeaderINS_17AnalogOutputInt32EE3AddERKS1_t
	.quad	-8
	.quad	_ZTIN8opendnp318TypedCommandHeaderINS_17AnalogOutputInt32EEE
	.quad	_ZThn8_N8opendnp318TypedCommandHeaderINS_17AnalogOutputInt32EE3AddERKS1_t
	.weak	_ZTVN8opendnp318TypedCommandHeaderINS_17AnalogOutputInt16EEE
	.section	.data.rel.ro._ZTVN8opendnp318TypedCommandHeaderINS_17AnalogOutputInt16EEE,"awG",@progbits,_ZTVN8opendnp318TypedCommandHeaderINS_17AnalogOutputInt16EEE,comdat
	.align 8
	.type	_ZTVN8opendnp318TypedCommandHeaderINS_17AnalogOutputInt16EEE, @object
	.size	_ZTVN8opendnp318TypedCommandHeaderINS_17AnalogOutputInt16EEE, 176
_ZTVN8opendnp318TypedCommandHeaderINS_17AnalogOutputInt16EEE:
	.quad	0
	.quad	_ZTIN8opendnp318TypedCommandHeaderINS_17AnalogOutputInt16EEE
	.quad	_ZNK8opendnp318TypedCommandHeaderINS_17AnalogOutputInt16EE5CountEv
	.quad	_ZNK8opendnp318TypedCommandHeaderINS_17AnalogOutputInt16EE7ForeachERNS_8IVisitorINS_12CommandStateEEE
	.quad	_ZN8opendnp318TypedCommandHeaderINS_17AnalogOutputInt16EED1Ev
	.quad	_ZN8opendnp318TypedCommandHeaderINS_17AnalogOutputInt16EED0Ev
	.quad	_ZNK8opendnp318TypedCommandHeaderINS_17AnalogOutputInt16EE5WriteERNS_12HeaderWriterE
	.quad	_ZNK8opendnp318TypedCommandHeaderINS_17AnalogOutputInt16EE14AreAllSelectedEv
	.quad	_ZN8opendnp314ICommandHeader19ApplySelectResponseERKNS_11ICollectionINS_7IndexedINS_23ControlRelayOutputBlockEEEEE
	.quad	_ZN8opendnp318TypedCommandHeaderINS_17AnalogOutputInt16EE19ApplySelectResponseERKNS_11ICollectionINS_7IndexedIS1_EEEE
	.quad	_ZN8opendnp314ICommandHeader19ApplySelectResponseERKNS_11ICollectionINS_7IndexedINS_17AnalogOutputInt32EEEEE
	.quad	_ZN8opendnp314ICommandHeader19ApplySelectResponseERKNS_11ICollectionINS_7IndexedINS_19AnalogOutputFloat32EEEEE
	.quad	_ZN8opendnp314ICommandHeader19ApplySelectResponseERKNS_11ICollectionINS_7IndexedINS_20AnalogOutputDouble64EEEEE
	.quad	_ZN8opendnp314ICommandHeader20ApplyOperateResponseERKNS_11ICollectionINS_7IndexedINS_23ControlRelayOutputBlockEEEEE
	.quad	_ZN8opendnp318TypedCommandHeaderINS_17AnalogOutputInt16EE20ApplyOperateResponseERKNS_11ICollectionINS_7IndexedIS1_EEEE
	.quad	_ZN8opendnp314ICommandHeader20ApplyOperateResponseERKNS_11ICollectionINS_7IndexedINS_17AnalogOutputInt32EEEEE
	.quad	_ZN8opendnp314ICommandHeader20ApplyOperateResponseERKNS_11ICollectionINS_7IndexedINS_19AnalogOutputFloat32EEEEE
	.quad	_ZN8opendnp314ICommandHeader20ApplyOperateResponseERKNS_11ICollectionINS_7IndexedINS_20AnalogOutputDouble64EEEEE
	.quad	_ZN8opendnp318TypedCommandHeaderINS_17AnalogOutputInt16EE3AddERKS1_t
	.quad	-8
	.quad	_ZTIN8opendnp318TypedCommandHeaderINS_17AnalogOutputInt16EEE
	.quad	_ZThn8_N8opendnp318TypedCommandHeaderINS_17AnalogOutputInt16EE3AddERKS1_t
	.weak	_ZTVN8opendnp318TypedCommandHeaderINS_19AnalogOutputFloat32EEE
	.section	.data.rel.ro._ZTVN8opendnp318TypedCommandHeaderINS_19AnalogOutputFloat32EEE,"awG",@progbits,_ZTVN8opendnp318TypedCommandHeaderINS_19AnalogOutputFloat32EEE,comdat
	.align 8
	.type	_ZTVN8opendnp318TypedCommandHeaderINS_19AnalogOutputFloat32EEE, @object
	.size	_ZTVN8opendnp318TypedCommandHeaderINS_19AnalogOutputFloat32EEE, 176
_ZTVN8opendnp318TypedCommandHeaderINS_19AnalogOutputFloat32EEE:
	.quad	0
	.quad	_ZTIN8opendnp318TypedCommandHeaderINS_19AnalogOutputFloat32EEE
	.quad	_ZNK8opendnp318TypedCommandHeaderINS_19AnalogOutputFloat32EE5CountEv
	.quad	_ZNK8opendnp318TypedCommandHeaderINS_19AnalogOutputFloat32EE7ForeachERNS_8IVisitorINS_12CommandStateEEE
	.quad	_ZN8opendnp318TypedCommandHeaderINS_19AnalogOutputFloat32EED1Ev
	.quad	_ZN8opendnp318TypedCommandHeaderINS_19AnalogOutputFloat32EED0Ev
	.quad	_ZNK8opendnp318TypedCommandHeaderINS_19AnalogOutputFloat32EE5WriteERNS_12HeaderWriterE
	.quad	_ZNK8opendnp318TypedCommandHeaderINS_19AnalogOutputFloat32EE14AreAllSelectedEv
	.quad	_ZN8opendnp314ICommandHeader19ApplySelectResponseERKNS_11ICollectionINS_7IndexedINS_23ControlRelayOutputBlockEEEEE
	.quad	_ZN8opendnp314ICommandHeader19ApplySelectResponseERKNS_11ICollectionINS_7IndexedINS_17AnalogOutputInt16EEEEE
	.quad	_ZN8opendnp314ICommandHeader19ApplySelectResponseERKNS_11ICollectionINS_7IndexedINS_17AnalogOutputInt32EEEEE
	.quad	_ZN8opendnp318TypedCommandHeaderINS_19AnalogOutputFloat32EE19ApplySelectResponseERKNS_11ICollectionINS_7IndexedIS1_EEEE
	.quad	_ZN8opendnp314ICommandHeader19ApplySelectResponseERKNS_11ICollectionINS_7IndexedINS_20AnalogOutputDouble64EEEEE
	.quad	_ZN8opendnp314ICommandHeader20ApplyOperateResponseERKNS_11ICollectionINS_7IndexedINS_23ControlRelayOutputBlockEEEEE
	.quad	_ZN8opendnp314ICommandHeader20ApplyOperateResponseERKNS_11ICollectionINS_7IndexedINS_17AnalogOutputInt16EEEEE
	.quad	_ZN8opendnp314ICommandHeader20ApplyOperateResponseERKNS_11ICollectionINS_7IndexedINS_17AnalogOutputInt32EEEEE
	.quad	_ZN8opendnp318TypedCommandHeaderINS_19AnalogOutputFloat32EE20ApplyOperateResponseERKNS_11ICollectionINS_7IndexedIS1_EEEE
	.quad	_ZN8opendnp314ICommandHeader20ApplyOperateResponseERKNS_11ICollectionINS_7IndexedINS_20AnalogOutputDouble64EEEEE
	.quad	_ZN8opendnp318TypedCommandHeaderINS_19AnalogOutputFloat32EE3AddERKS1_t
	.quad	-8
	.quad	_ZTIN8opendnp318TypedCommandHeaderINS_19AnalogOutputFloat32EEE
	.quad	_ZThn8_N8opendnp318TypedCommandHeaderINS_19AnalogOutputFloat32EE3AddERKS1_t
	.weak	_ZTVN8opendnp318TypedCommandHeaderINS_20AnalogOutputDouble64EEE
	.section	.data.rel.ro._ZTVN8opendnp318TypedCommandHeaderINS_20AnalogOutputDouble64EEE,"awG",@progbits,_ZTVN8opendnp318TypedCommandHeaderINS_20AnalogOutputDouble64EEE,comdat
	.align 8
	.type	_ZTVN8opendnp318TypedCommandHeaderINS_20AnalogOutputDouble64EEE, @object
	.size	_ZTVN8opendnp318TypedCommandHeaderINS_20AnalogOutputDouble64EEE, 176
_ZTVN8opendnp318TypedCommandHeaderINS_20AnalogOutputDouble64EEE:
	.quad	0
	.quad	_ZTIN8opendnp318TypedCommandHeaderINS_20AnalogOutputDouble64EEE
	.quad	_ZNK8opendnp318TypedCommandHeaderINS_20AnalogOutputDouble64EE5CountEv
	.quad	_ZNK8opendnp318TypedCommandHeaderINS_20AnalogOutputDouble64EE7ForeachERNS_8IVisitorINS_12CommandStateEEE
	.quad	_ZN8opendnp318TypedCommandHeaderINS_20AnalogOutputDouble64EED1Ev
	.quad	_ZN8opendnp318TypedCommandHeaderINS_20AnalogOutputDouble64EED0Ev
	.quad	_ZNK8opendnp318TypedCommandHeaderINS_20AnalogOutputDouble64EE5WriteERNS_12HeaderWriterE
	.quad	_ZNK8opendnp318TypedCommandHeaderINS_20AnalogOutputDouble64EE14AreAllSelectedEv
	.quad	_ZN8opendnp314ICommandHeader19ApplySelectResponseERKNS_11ICollectionINS_7IndexedINS_23ControlRelayOutputBlockEEEEE
	.quad	_ZN8opendnp314ICommandHeader19ApplySelectResponseERKNS_11ICollectionINS_7IndexedINS_17AnalogOutputInt16EEEEE
	.quad	_ZN8opendnp314ICommandHeader19ApplySelectResponseERKNS_11ICollectionINS_7IndexedINS_17AnalogOutputInt32EEEEE
	.quad	_ZN8opendnp314ICommandHeader19ApplySelectResponseERKNS_11ICollectionINS_7IndexedINS_19AnalogOutputFloat32EEEEE
	.quad	_ZN8opendnp318TypedCommandHeaderINS_20AnalogOutputDouble64EE19ApplySelectResponseERKNS_11ICollectionINS_7IndexedIS1_EEEE
	.quad	_ZN8opendnp314ICommandHeader20ApplyOperateResponseERKNS_11ICollectionINS_7IndexedINS_23ControlRelayOutputBlockEEEEE
	.quad	_ZN8opendnp314ICommandHeader20ApplyOperateResponseERKNS_11ICollectionINS_7IndexedINS_17AnalogOutputInt16EEEEE
	.quad	_ZN8opendnp314ICommandHeader20ApplyOperateResponseERKNS_11ICollectionINS_7IndexedINS_17AnalogOutputInt32EEEEE
	.quad	_ZN8opendnp314ICommandHeader20ApplyOperateResponseERKNS_11ICollectionINS_7IndexedINS_19AnalogOutputFloat32EEEEE
	.quad	_ZN8opendnp318TypedCommandHeaderINS_20AnalogOutputDouble64EE20ApplyOperateResponseERKNS_11ICollectionINS_7IndexedIS1_EEEE
	.quad	_ZN8opendnp318TypedCommandHeaderINS_20AnalogOutputDouble64EE3AddERKS1_t
	.quad	-8
	.quad	_ZTIN8opendnp318TypedCommandHeaderINS_20AnalogOutputDouble64EEE
	.quad	_ZThn8_N8opendnp318TypedCommandHeaderINS_20AnalogOutputDouble64EE3AddERKS1_t
	.hidden	DW.ref.__gxx_personality_v0
	.weak	DW.ref.__gxx_personality_v0
	.section	.data.rel.local.DW.ref.__gxx_personality_v0,"awG",@progbits,DW.ref.__gxx_personality_v0,comdat
	.align 8
	.type	DW.ref.__gxx_personality_v0, @object
	.size	DW.ref.__gxx_personality_v0, 8
DW.ref.__gxx_personality_v0:
	.quad	__gxx_personality_v0
	.ident	"GCC: (Ubuntu 7.5.0-3ubuntu1~18.04) 7.5.0"
	.section	.note.GNU-stack,"",@progbits
