	.file	"CountIndexParser.cpp"
	.text
	.section	.text._ZN7openpal12StaticBufferILj255EED2Ev,"axG",@progbits,_ZN7openpal12StaticBufferILj255EED5Ev,comdat
	.align 2
	.p2align 4,,15
	.weak	_ZN7openpal12StaticBufferILj255EED2Ev
	.type	_ZN7openpal12StaticBufferILj255EED2Ev, @function
_ZN7openpal12StaticBufferILj255EED2Ev:
.LFB2721:
	.cfi_startproc
	rep ret
	.cfi_endproc
.LFE2721:
	.size	_ZN7openpal12StaticBufferILj255EED2Ev, .-_ZN7openpal12StaticBufferILj255EED2Ev
	.weak	_ZN7openpal12StaticBufferILj255EED1Ev
	.set	_ZN7openpal12StaticBufferILj255EED1Ev,_ZN7openpal12StaticBufferILj255EED2Ev
	.section	.text._ZNK8opendnp318BufferedCollectionINS_7IndexedINS_12Group122Var2EEEZNS_16CountIndexParser17InvokeCountOfTypeIS2_EEvRKNS_12HeaderRecordEtRKNS_9NumParserERKN7openpal6RSliceERNS_12IAPDUHandlerEEUlRSD_jE_E5CountEv,"axG",@progbits,_ZNK8opendnp318BufferedCollectionINS_7IndexedINS_12Group122Var2EEEZNS_16CountIndexParser17InvokeCountOfTypeIS2_EEvRKNS_12HeaderRecordEtRKNS_9NumParserERKN7openpal6RSliceERNS_12IAPDUHandlerEEUlRSD_jE_E5CountEv,comdat
	.align 2
	.p2align 4,,15
	.weak	_ZNK8opendnp318BufferedCollectionINS_7IndexedINS_12Group122Var2EEEZNS_16CountIndexParser17InvokeCountOfTypeIS2_EEvRKNS_12HeaderRecordEtRKNS_9NumParserERKN7openpal6RSliceERNS_12IAPDUHandlerEEUlRSD_jE_E5CountEv
	.type	_ZNK8opendnp318BufferedCollectionINS_7IndexedINS_12Group122Var2EEEZNS_16CountIndexParser17InvokeCountOfTypeIS2_EEvRKNS_12HeaderRecordEtRKNS_9NumParserERKN7openpal6RSliceERNS_12IAPDUHandlerEEUlRSD_jE_E5CountEv, @function
_ZNK8opendnp318BufferedCollectionINS_7IndexedINS_12Group122Var2EEEZNS_16CountIndexParser17InvokeCountOfTypeIS2_EEvRKNS_12HeaderRecordEtRKNS_9NumParserERKN7openpal6RSliceERNS_12IAPDUHandlerEEUlRSD_jE_E5CountEv:
.LFB3868:
	.cfi_startproc
	movq	24(%rdi), %rax
	ret
	.cfi_endproc
.LFE3868:
	.size	_ZNK8opendnp318BufferedCollectionINS_7IndexedINS_12Group122Var2EEEZNS_16CountIndexParser17InvokeCountOfTypeIS2_EEvRKNS_12HeaderRecordEtRKNS_9NumParserERKN7openpal6RSliceERNS_12IAPDUHandlerEEUlRSD_jE_E5CountEv, .-_ZNK8opendnp318BufferedCollectionINS_7IndexedINS_12Group122Var2EEEZNS_16CountIndexParser17InvokeCountOfTypeIS2_EEvRKNS_12HeaderRecordEtRKNS_9NumParserERKN7openpal6RSliceERNS_12IAPDUHandlerEEUlRSD_jE_E5CountEv
	.section	.text._ZNK8opendnp318BufferedCollectionINS_7IndexedINS_12Group122Var1EEEZNS_16CountIndexParser17InvokeCountOfTypeIS2_EEvRKNS_12HeaderRecordEtRKNS_9NumParserERKN7openpal6RSliceERNS_12IAPDUHandlerEEUlRSD_jE_E5CountEv,"axG",@progbits,_ZNK8opendnp318BufferedCollectionINS_7IndexedINS_12Group122Var1EEEZNS_16CountIndexParser17InvokeCountOfTypeIS2_EEvRKNS_12HeaderRecordEtRKNS_9NumParserERKN7openpal6RSliceERNS_12IAPDUHandlerEEUlRSD_jE_E5CountEv,comdat
	.align 2
	.p2align 4,,15
	.weak	_ZNK8opendnp318BufferedCollectionINS_7IndexedINS_12Group122Var1EEEZNS_16CountIndexParser17InvokeCountOfTypeIS2_EEvRKNS_12HeaderRecordEtRKNS_9NumParserERKN7openpal6RSliceERNS_12IAPDUHandlerEEUlRSD_jE_E5CountEv
	.type	_ZNK8opendnp318BufferedCollectionINS_7IndexedINS_12Group122Var1EEEZNS_16CountIndexParser17InvokeCountOfTypeIS2_EEvRKNS_12HeaderRecordEtRKNS_9NumParserERKN7openpal6RSliceERNS_12IAPDUHandlerEEUlRSD_jE_E5CountEv, @function
_ZNK8opendnp318BufferedCollectionINS_7IndexedINS_12Group122Var1EEEZNS_16CountIndexParser17InvokeCountOfTypeIS2_EEvRKNS_12HeaderRecordEtRKNS_9NumParserERKN7openpal6RSliceERNS_12IAPDUHandlerEEUlRSD_jE_E5CountEv:
.LFB3870:
	.cfi_startproc
	movq	24(%rdi), %rax
	ret
	.cfi_endproc
.LFE3870:
	.size	_ZNK8opendnp318BufferedCollectionINS_7IndexedINS_12Group122Var1EEEZNS_16CountIndexParser17InvokeCountOfTypeIS2_EEvRKNS_12HeaderRecordEtRKNS_9NumParserERKN7openpal6RSliceERNS_12IAPDUHandlerEEUlRSD_jE_E5CountEv, .-_ZNK8opendnp318BufferedCollectionINS_7IndexedINS_12Group122Var1EEEZNS_16CountIndexParser17InvokeCountOfTypeIS2_EEvRKNS_12HeaderRecordEtRKNS_9NumParserERKN7openpal6RSliceERNS_12IAPDUHandlerEEUlRSD_jE_E5CountEv
	.section	.text._ZNK8opendnp318BufferedCollectionINS_7IndexedINS_15TimeAndIntervalEEEZNS_16CountIndexParser13InvokeCountOfINS_11Group50Var4EEEvRKNS_12HeaderRecordEtRKNS_9NumParserERKN7openpal6RSliceERNS_12IAPDUHandlerEEUlRSE_jE_E5CountEv,"axG",@progbits,_ZNK8opendnp318BufferedCollectionINS_7IndexedINS_15TimeAndIntervalEEEZNS_16CountIndexParser13InvokeCountOfINS_11Group50Var4EEEvRKNS_12HeaderRecordEtRKNS_9NumParserERKN7openpal6RSliceERNS_12IAPDUHandlerEEUlRSE_jE_E5CountEv,comdat
	.align 2
	.p2align 4,,15
	.weak	_ZNK8opendnp318BufferedCollectionINS_7IndexedINS_15TimeAndIntervalEEEZNS_16CountIndexParser13InvokeCountOfINS_11Group50Var4EEEvRKNS_12HeaderRecordEtRKNS_9NumParserERKN7openpal6RSliceERNS_12IAPDUHandlerEEUlRSE_jE_E5CountEv
	.type	_ZNK8opendnp318BufferedCollectionINS_7IndexedINS_15TimeAndIntervalEEEZNS_16CountIndexParser13InvokeCountOfINS_11Group50Var4EEEvRKNS_12HeaderRecordEtRKNS_9NumParserERKN7openpal6RSliceERNS_12IAPDUHandlerEEUlRSE_jE_E5CountEv, @function
_ZNK8opendnp318BufferedCollectionINS_7IndexedINS_15TimeAndIntervalEEEZNS_16CountIndexParser13InvokeCountOfINS_11Group50Var4EEEvRKNS_12HeaderRecordEtRKNS_9NumParserERKN7openpal6RSliceERNS_12IAPDUHandlerEEUlRSE_jE_E5CountEv:
.LFB3872:
	.cfi_startproc
	movq	24(%rdi), %rax
	ret
	.cfi_endproc
.LFE3872:
	.size	_ZNK8opendnp318BufferedCollectionINS_7IndexedINS_15TimeAndIntervalEEEZNS_16CountIndexParser13InvokeCountOfINS_11Group50Var4EEEvRKNS_12HeaderRecordEtRKNS_9NumParserERKN7openpal6RSliceERNS_12IAPDUHandlerEEUlRSE_jE_E5CountEv, .-_ZNK8opendnp318BufferedCollectionINS_7IndexedINS_15TimeAndIntervalEEEZNS_16CountIndexParser13InvokeCountOfINS_11Group50Var4EEEvRKNS_12HeaderRecordEtRKNS_9NumParserERKN7openpal6RSliceERNS_12IAPDUHandlerEEUlRSE_jE_E5CountEv
	.section	.text._ZNK8opendnp318BufferedCollectionINS_7IndexedINS_18AnalogCommandEventEEEZNS_16CountIndexParser13InvokeCountOfINS_11Group43Var8EEEvRKNS_12HeaderRecordEtRKNS_9NumParserERKN7openpal6RSliceERNS_12IAPDUHandlerEEUlRSE_jE_E5CountEv,"axG",@progbits,_ZNK8opendnp318BufferedCollectionINS_7IndexedINS_18AnalogCommandEventEEEZNS_16CountIndexParser13InvokeCountOfINS_11Group43Var8EEEvRKNS_12HeaderRecordEtRKNS_9NumParserERKN7openpal6RSliceERNS_12IAPDUHandlerEEUlRSE_jE_E5CountEv,comdat
	.align 2
	.p2align 4,,15
	.weak	_ZNK8opendnp318BufferedCollectionINS_7IndexedINS_18AnalogCommandEventEEEZNS_16CountIndexParser13InvokeCountOfINS_11Group43Var8EEEvRKNS_12HeaderRecordEtRKNS_9NumParserERKN7openpal6RSliceERNS_12IAPDUHandlerEEUlRSE_jE_E5CountEv
	.type	_ZNK8opendnp318BufferedCollectionINS_7IndexedINS_18AnalogCommandEventEEEZNS_16CountIndexParser13InvokeCountOfINS_11Group43Var8EEEvRKNS_12HeaderRecordEtRKNS_9NumParserERKN7openpal6RSliceERNS_12IAPDUHandlerEEUlRSE_jE_E5CountEv, @function
_ZNK8opendnp318BufferedCollectionINS_7IndexedINS_18AnalogCommandEventEEEZNS_16CountIndexParser13InvokeCountOfINS_11Group43Var8EEEvRKNS_12HeaderRecordEtRKNS_9NumParserERKN7openpal6RSliceERNS_12IAPDUHandlerEEUlRSE_jE_E5CountEv:
.LFB3874:
	.cfi_startproc
	movq	24(%rdi), %rax
	ret
	.cfi_endproc
.LFE3874:
	.size	_ZNK8opendnp318BufferedCollectionINS_7IndexedINS_18AnalogCommandEventEEEZNS_16CountIndexParser13InvokeCountOfINS_11Group43Var8EEEvRKNS_12HeaderRecordEtRKNS_9NumParserERKN7openpal6RSliceERNS_12IAPDUHandlerEEUlRSE_jE_E5CountEv, .-_ZNK8opendnp318BufferedCollectionINS_7IndexedINS_18AnalogCommandEventEEEZNS_16CountIndexParser13InvokeCountOfINS_11Group43Var8EEEvRKNS_12HeaderRecordEtRKNS_9NumParserERKN7openpal6RSliceERNS_12IAPDUHandlerEEUlRSE_jE_E5CountEv
	.section	.text._ZNK8opendnp318BufferedCollectionINS_7IndexedINS_18AnalogCommandEventEEEZNS_16CountIndexParser13InvokeCountOfINS_11Group43Var7EEEvRKNS_12HeaderRecordEtRKNS_9NumParserERKN7openpal6RSliceERNS_12IAPDUHandlerEEUlRSE_jE_E5CountEv,"axG",@progbits,_ZNK8opendnp318BufferedCollectionINS_7IndexedINS_18AnalogCommandEventEEEZNS_16CountIndexParser13InvokeCountOfINS_11Group43Var7EEEvRKNS_12HeaderRecordEtRKNS_9NumParserERKN7openpal6RSliceERNS_12IAPDUHandlerEEUlRSE_jE_E5CountEv,comdat
	.align 2
	.p2align 4,,15
	.weak	_ZNK8opendnp318BufferedCollectionINS_7IndexedINS_18AnalogCommandEventEEEZNS_16CountIndexParser13InvokeCountOfINS_11Group43Var7EEEvRKNS_12HeaderRecordEtRKNS_9NumParserERKN7openpal6RSliceERNS_12IAPDUHandlerEEUlRSE_jE_E5CountEv
	.type	_ZNK8opendnp318BufferedCollectionINS_7IndexedINS_18AnalogCommandEventEEEZNS_16CountIndexParser13InvokeCountOfINS_11Group43Var7EEEvRKNS_12HeaderRecordEtRKNS_9NumParserERKN7openpal6RSliceERNS_12IAPDUHandlerEEUlRSE_jE_E5CountEv, @function
_ZNK8opendnp318BufferedCollectionINS_7IndexedINS_18AnalogCommandEventEEEZNS_16CountIndexParser13InvokeCountOfINS_11Group43Var7EEEvRKNS_12HeaderRecordEtRKNS_9NumParserERKN7openpal6RSliceERNS_12IAPDUHandlerEEUlRSE_jE_E5CountEv:
.LFB3876:
	.cfi_startproc
	movq	24(%rdi), %rax
	ret
	.cfi_endproc
.LFE3876:
	.size	_ZNK8opendnp318BufferedCollectionINS_7IndexedINS_18AnalogCommandEventEEEZNS_16CountIndexParser13InvokeCountOfINS_11Group43Var7EEEvRKNS_12HeaderRecordEtRKNS_9NumParserERKN7openpal6RSliceERNS_12IAPDUHandlerEEUlRSE_jE_E5CountEv, .-_ZNK8opendnp318BufferedCollectionINS_7IndexedINS_18AnalogCommandEventEEEZNS_16CountIndexParser13InvokeCountOfINS_11Group43Var7EEEvRKNS_12HeaderRecordEtRKNS_9NumParserERKN7openpal6RSliceERNS_12IAPDUHandlerEEUlRSE_jE_E5CountEv
	.section	.text._ZNK8opendnp318BufferedCollectionINS_7IndexedINS_18AnalogCommandEventEEEZNS_16CountIndexParser13InvokeCountOfINS_11Group43Var6EEEvRKNS_12HeaderRecordEtRKNS_9NumParserERKN7openpal6RSliceERNS_12IAPDUHandlerEEUlRSE_jE_E5CountEv,"axG",@progbits,_ZNK8opendnp318BufferedCollectionINS_7IndexedINS_18AnalogCommandEventEEEZNS_16CountIndexParser13InvokeCountOfINS_11Group43Var6EEEvRKNS_12HeaderRecordEtRKNS_9NumParserERKN7openpal6RSliceERNS_12IAPDUHandlerEEUlRSE_jE_E5CountEv,comdat
	.align 2
	.p2align 4,,15
	.weak	_ZNK8opendnp318BufferedCollectionINS_7IndexedINS_18AnalogCommandEventEEEZNS_16CountIndexParser13InvokeCountOfINS_11Group43Var6EEEvRKNS_12HeaderRecordEtRKNS_9NumParserERKN7openpal6RSliceERNS_12IAPDUHandlerEEUlRSE_jE_E5CountEv
	.type	_ZNK8opendnp318BufferedCollectionINS_7IndexedINS_18AnalogCommandEventEEEZNS_16CountIndexParser13InvokeCountOfINS_11Group43Var6EEEvRKNS_12HeaderRecordEtRKNS_9NumParserERKN7openpal6RSliceERNS_12IAPDUHandlerEEUlRSE_jE_E5CountEv, @function
_ZNK8opendnp318BufferedCollectionINS_7IndexedINS_18AnalogCommandEventEEEZNS_16CountIndexParser13InvokeCountOfINS_11Group43Var6EEEvRKNS_12HeaderRecordEtRKNS_9NumParserERKN7openpal6RSliceERNS_12IAPDUHandlerEEUlRSE_jE_E5CountEv:
.LFB3878:
	.cfi_startproc
	movq	24(%rdi), %rax
	ret
	.cfi_endproc
.LFE3878:
	.size	_ZNK8opendnp318BufferedCollectionINS_7IndexedINS_18AnalogCommandEventEEEZNS_16CountIndexParser13InvokeCountOfINS_11Group43Var6EEEvRKNS_12HeaderRecordEtRKNS_9NumParserERKN7openpal6RSliceERNS_12IAPDUHandlerEEUlRSE_jE_E5CountEv, .-_ZNK8opendnp318BufferedCollectionINS_7IndexedINS_18AnalogCommandEventEEEZNS_16CountIndexParser13InvokeCountOfINS_11Group43Var6EEEvRKNS_12HeaderRecordEtRKNS_9NumParserERKN7openpal6RSliceERNS_12IAPDUHandlerEEUlRSE_jE_E5CountEv
	.section	.text._ZNK8opendnp318BufferedCollectionINS_7IndexedINS_18AnalogCommandEventEEEZNS_16CountIndexParser13InvokeCountOfINS_11Group43Var5EEEvRKNS_12HeaderRecordEtRKNS_9NumParserERKN7openpal6RSliceERNS_12IAPDUHandlerEEUlRSE_jE_E5CountEv,"axG",@progbits,_ZNK8opendnp318BufferedCollectionINS_7IndexedINS_18AnalogCommandEventEEEZNS_16CountIndexParser13InvokeCountOfINS_11Group43Var5EEEvRKNS_12HeaderRecordEtRKNS_9NumParserERKN7openpal6RSliceERNS_12IAPDUHandlerEEUlRSE_jE_E5CountEv,comdat
	.align 2
	.p2align 4,,15
	.weak	_ZNK8opendnp318BufferedCollectionINS_7IndexedINS_18AnalogCommandEventEEEZNS_16CountIndexParser13InvokeCountOfINS_11Group43Var5EEEvRKNS_12HeaderRecordEtRKNS_9NumParserERKN7openpal6RSliceERNS_12IAPDUHandlerEEUlRSE_jE_E5CountEv
	.type	_ZNK8opendnp318BufferedCollectionINS_7IndexedINS_18AnalogCommandEventEEEZNS_16CountIndexParser13InvokeCountOfINS_11Group43Var5EEEvRKNS_12HeaderRecordEtRKNS_9NumParserERKN7openpal6RSliceERNS_12IAPDUHandlerEEUlRSE_jE_E5CountEv, @function
_ZNK8opendnp318BufferedCollectionINS_7IndexedINS_18AnalogCommandEventEEEZNS_16CountIndexParser13InvokeCountOfINS_11Group43Var5EEEvRKNS_12HeaderRecordEtRKNS_9NumParserERKN7openpal6RSliceERNS_12IAPDUHandlerEEUlRSE_jE_E5CountEv:
.LFB3880:
	.cfi_startproc
	movq	24(%rdi), %rax
	ret
	.cfi_endproc
.LFE3880:
	.size	_ZNK8opendnp318BufferedCollectionINS_7IndexedINS_18AnalogCommandEventEEEZNS_16CountIndexParser13InvokeCountOfINS_11Group43Var5EEEvRKNS_12HeaderRecordEtRKNS_9NumParserERKN7openpal6RSliceERNS_12IAPDUHandlerEEUlRSE_jE_E5CountEv, .-_ZNK8opendnp318BufferedCollectionINS_7IndexedINS_18AnalogCommandEventEEEZNS_16CountIndexParser13InvokeCountOfINS_11Group43Var5EEEvRKNS_12HeaderRecordEtRKNS_9NumParserERKN7openpal6RSliceERNS_12IAPDUHandlerEEUlRSE_jE_E5CountEv
	.section	.text._ZNK8opendnp318BufferedCollectionINS_7IndexedINS_18AnalogCommandEventEEEZNS_16CountIndexParser13InvokeCountOfINS_11Group43Var4EEEvRKNS_12HeaderRecordEtRKNS_9NumParserERKN7openpal6RSliceERNS_12IAPDUHandlerEEUlRSE_jE_E5CountEv,"axG",@progbits,_ZNK8opendnp318BufferedCollectionINS_7IndexedINS_18AnalogCommandEventEEEZNS_16CountIndexParser13InvokeCountOfINS_11Group43Var4EEEvRKNS_12HeaderRecordEtRKNS_9NumParserERKN7openpal6RSliceERNS_12IAPDUHandlerEEUlRSE_jE_E5CountEv,comdat
	.align 2
	.p2align 4,,15
	.weak	_ZNK8opendnp318BufferedCollectionINS_7IndexedINS_18AnalogCommandEventEEEZNS_16CountIndexParser13InvokeCountOfINS_11Group43Var4EEEvRKNS_12HeaderRecordEtRKNS_9NumParserERKN7openpal6RSliceERNS_12IAPDUHandlerEEUlRSE_jE_E5CountEv
	.type	_ZNK8opendnp318BufferedCollectionINS_7IndexedINS_18AnalogCommandEventEEEZNS_16CountIndexParser13InvokeCountOfINS_11Group43Var4EEEvRKNS_12HeaderRecordEtRKNS_9NumParserERKN7openpal6RSliceERNS_12IAPDUHandlerEEUlRSE_jE_E5CountEv, @function
_ZNK8opendnp318BufferedCollectionINS_7IndexedINS_18AnalogCommandEventEEEZNS_16CountIndexParser13InvokeCountOfINS_11Group43Var4EEEvRKNS_12HeaderRecordEtRKNS_9NumParserERKN7openpal6RSliceERNS_12IAPDUHandlerEEUlRSE_jE_E5CountEv:
.LFB3882:
	.cfi_startproc
	movq	24(%rdi), %rax
	ret
	.cfi_endproc
.LFE3882:
	.size	_ZNK8opendnp318BufferedCollectionINS_7IndexedINS_18AnalogCommandEventEEEZNS_16CountIndexParser13InvokeCountOfINS_11Group43Var4EEEvRKNS_12HeaderRecordEtRKNS_9NumParserERKN7openpal6RSliceERNS_12IAPDUHandlerEEUlRSE_jE_E5CountEv, .-_ZNK8opendnp318BufferedCollectionINS_7IndexedINS_18AnalogCommandEventEEEZNS_16CountIndexParser13InvokeCountOfINS_11Group43Var4EEEvRKNS_12HeaderRecordEtRKNS_9NumParserERKN7openpal6RSliceERNS_12IAPDUHandlerEEUlRSE_jE_E5CountEv
	.section	.text._ZNK8opendnp318BufferedCollectionINS_7IndexedINS_18AnalogCommandEventEEEZNS_16CountIndexParser13InvokeCountOfINS_11Group43Var3EEEvRKNS_12HeaderRecordEtRKNS_9NumParserERKN7openpal6RSliceERNS_12IAPDUHandlerEEUlRSE_jE_E5CountEv,"axG",@progbits,_ZNK8opendnp318BufferedCollectionINS_7IndexedINS_18AnalogCommandEventEEEZNS_16CountIndexParser13InvokeCountOfINS_11Group43Var3EEEvRKNS_12HeaderRecordEtRKNS_9NumParserERKN7openpal6RSliceERNS_12IAPDUHandlerEEUlRSE_jE_E5CountEv,comdat
	.align 2
	.p2align 4,,15
	.weak	_ZNK8opendnp318BufferedCollectionINS_7IndexedINS_18AnalogCommandEventEEEZNS_16CountIndexParser13InvokeCountOfINS_11Group43Var3EEEvRKNS_12HeaderRecordEtRKNS_9NumParserERKN7openpal6RSliceERNS_12IAPDUHandlerEEUlRSE_jE_E5CountEv
	.type	_ZNK8opendnp318BufferedCollectionINS_7IndexedINS_18AnalogCommandEventEEEZNS_16CountIndexParser13InvokeCountOfINS_11Group43Var3EEEvRKNS_12HeaderRecordEtRKNS_9NumParserERKN7openpal6RSliceERNS_12IAPDUHandlerEEUlRSE_jE_E5CountEv, @function
_ZNK8opendnp318BufferedCollectionINS_7IndexedINS_18AnalogCommandEventEEEZNS_16CountIndexParser13InvokeCountOfINS_11Group43Var3EEEvRKNS_12HeaderRecordEtRKNS_9NumParserERKN7openpal6RSliceERNS_12IAPDUHandlerEEUlRSE_jE_E5CountEv:
.LFB3884:
	.cfi_startproc
	movq	24(%rdi), %rax
	ret
	.cfi_endproc
.LFE3884:
	.size	_ZNK8opendnp318BufferedCollectionINS_7IndexedINS_18AnalogCommandEventEEEZNS_16CountIndexParser13InvokeCountOfINS_11Group43Var3EEEvRKNS_12HeaderRecordEtRKNS_9NumParserERKN7openpal6RSliceERNS_12IAPDUHandlerEEUlRSE_jE_E5CountEv, .-_ZNK8opendnp318BufferedCollectionINS_7IndexedINS_18AnalogCommandEventEEEZNS_16CountIndexParser13InvokeCountOfINS_11Group43Var3EEEvRKNS_12HeaderRecordEtRKNS_9NumParserERKN7openpal6RSliceERNS_12IAPDUHandlerEEUlRSE_jE_E5CountEv
	.section	.text._ZNK8opendnp318BufferedCollectionINS_7IndexedINS_18AnalogCommandEventEEEZNS_16CountIndexParser13InvokeCountOfINS_11Group43Var2EEEvRKNS_12HeaderRecordEtRKNS_9NumParserERKN7openpal6RSliceERNS_12IAPDUHandlerEEUlRSE_jE_E5CountEv,"axG",@progbits,_ZNK8opendnp318BufferedCollectionINS_7IndexedINS_18AnalogCommandEventEEEZNS_16CountIndexParser13InvokeCountOfINS_11Group43Var2EEEvRKNS_12HeaderRecordEtRKNS_9NumParserERKN7openpal6RSliceERNS_12IAPDUHandlerEEUlRSE_jE_E5CountEv,comdat
	.align 2
	.p2align 4,,15
	.weak	_ZNK8opendnp318BufferedCollectionINS_7IndexedINS_18AnalogCommandEventEEEZNS_16CountIndexParser13InvokeCountOfINS_11Group43Var2EEEvRKNS_12HeaderRecordEtRKNS_9NumParserERKN7openpal6RSliceERNS_12IAPDUHandlerEEUlRSE_jE_E5CountEv
	.type	_ZNK8opendnp318BufferedCollectionINS_7IndexedINS_18AnalogCommandEventEEEZNS_16CountIndexParser13InvokeCountOfINS_11Group43Var2EEEvRKNS_12HeaderRecordEtRKNS_9NumParserERKN7openpal6RSliceERNS_12IAPDUHandlerEEUlRSE_jE_E5CountEv, @function
_ZNK8opendnp318BufferedCollectionINS_7IndexedINS_18AnalogCommandEventEEEZNS_16CountIndexParser13InvokeCountOfINS_11Group43Var2EEEvRKNS_12HeaderRecordEtRKNS_9NumParserERKN7openpal6RSliceERNS_12IAPDUHandlerEEUlRSE_jE_E5CountEv:
.LFB3886:
	.cfi_startproc
	movq	24(%rdi), %rax
	ret
	.cfi_endproc
.LFE3886:
	.size	_ZNK8opendnp318BufferedCollectionINS_7IndexedINS_18AnalogCommandEventEEEZNS_16CountIndexParser13InvokeCountOfINS_11Group43Var2EEEvRKNS_12HeaderRecordEtRKNS_9NumParserERKN7openpal6RSliceERNS_12IAPDUHandlerEEUlRSE_jE_E5CountEv, .-_ZNK8opendnp318BufferedCollectionINS_7IndexedINS_18AnalogCommandEventEEEZNS_16CountIndexParser13InvokeCountOfINS_11Group43Var2EEEvRKNS_12HeaderRecordEtRKNS_9NumParserERKN7openpal6RSliceERNS_12IAPDUHandlerEEUlRSE_jE_E5CountEv
	.section	.text._ZNK8opendnp318BufferedCollectionINS_7IndexedINS_18AnalogCommandEventEEEZNS_16CountIndexParser13InvokeCountOfINS_11Group43Var1EEEvRKNS_12HeaderRecordEtRKNS_9NumParserERKN7openpal6RSliceERNS_12IAPDUHandlerEEUlRSE_jE_E5CountEv,"axG",@progbits,_ZNK8opendnp318BufferedCollectionINS_7IndexedINS_18AnalogCommandEventEEEZNS_16CountIndexParser13InvokeCountOfINS_11Group43Var1EEEvRKNS_12HeaderRecordEtRKNS_9NumParserERKN7openpal6RSliceERNS_12IAPDUHandlerEEUlRSE_jE_E5CountEv,comdat
	.align 2
	.p2align 4,,15
	.weak	_ZNK8opendnp318BufferedCollectionINS_7IndexedINS_18AnalogCommandEventEEEZNS_16CountIndexParser13InvokeCountOfINS_11Group43Var1EEEvRKNS_12HeaderRecordEtRKNS_9NumParserERKN7openpal6RSliceERNS_12IAPDUHandlerEEUlRSE_jE_E5CountEv
	.type	_ZNK8opendnp318BufferedCollectionINS_7IndexedINS_18AnalogCommandEventEEEZNS_16CountIndexParser13InvokeCountOfINS_11Group43Var1EEEvRKNS_12HeaderRecordEtRKNS_9NumParserERKN7openpal6RSliceERNS_12IAPDUHandlerEEUlRSE_jE_E5CountEv, @function
_ZNK8opendnp318BufferedCollectionINS_7IndexedINS_18AnalogCommandEventEEEZNS_16CountIndexParser13InvokeCountOfINS_11Group43Var1EEEvRKNS_12HeaderRecordEtRKNS_9NumParserERKN7openpal6RSliceERNS_12IAPDUHandlerEEUlRSE_jE_E5CountEv:
.LFB3888:
	.cfi_startproc
	movq	24(%rdi), %rax
	ret
	.cfi_endproc
.LFE3888:
	.size	_ZNK8opendnp318BufferedCollectionINS_7IndexedINS_18AnalogCommandEventEEEZNS_16CountIndexParser13InvokeCountOfINS_11Group43Var1EEEvRKNS_12HeaderRecordEtRKNS_9NumParserERKN7openpal6RSliceERNS_12IAPDUHandlerEEUlRSE_jE_E5CountEv, .-_ZNK8opendnp318BufferedCollectionINS_7IndexedINS_18AnalogCommandEventEEEZNS_16CountIndexParser13InvokeCountOfINS_11Group43Var1EEEvRKNS_12HeaderRecordEtRKNS_9NumParserERKN7openpal6RSliceERNS_12IAPDUHandlerEEUlRSE_jE_E5CountEv
	.section	.text._ZNK8opendnp318BufferedCollectionINS_7IndexedINS_18AnalogOutputStatusEEEZNS_16CountIndexParser13InvokeCountOfINS_11Group42Var8EEEvRKNS_12HeaderRecordEtRKNS_9NumParserERKN7openpal6RSliceERNS_12IAPDUHandlerEEUlRSE_jE_E5CountEv,"axG",@progbits,_ZNK8opendnp318BufferedCollectionINS_7IndexedINS_18AnalogOutputStatusEEEZNS_16CountIndexParser13InvokeCountOfINS_11Group42Var8EEEvRKNS_12HeaderRecordEtRKNS_9NumParserERKN7openpal6RSliceERNS_12IAPDUHandlerEEUlRSE_jE_E5CountEv,comdat
	.align 2
	.p2align 4,,15
	.weak	_ZNK8opendnp318BufferedCollectionINS_7IndexedINS_18AnalogOutputStatusEEEZNS_16CountIndexParser13InvokeCountOfINS_11Group42Var8EEEvRKNS_12HeaderRecordEtRKNS_9NumParserERKN7openpal6RSliceERNS_12IAPDUHandlerEEUlRSE_jE_E5CountEv
	.type	_ZNK8opendnp318BufferedCollectionINS_7IndexedINS_18AnalogOutputStatusEEEZNS_16CountIndexParser13InvokeCountOfINS_11Group42Var8EEEvRKNS_12HeaderRecordEtRKNS_9NumParserERKN7openpal6RSliceERNS_12IAPDUHandlerEEUlRSE_jE_E5CountEv, @function
_ZNK8opendnp318BufferedCollectionINS_7IndexedINS_18AnalogOutputStatusEEEZNS_16CountIndexParser13InvokeCountOfINS_11Group42Var8EEEvRKNS_12HeaderRecordEtRKNS_9NumParserERKN7openpal6RSliceERNS_12IAPDUHandlerEEUlRSE_jE_E5CountEv:
.LFB3890:
	.cfi_startproc
	movq	24(%rdi), %rax
	ret
	.cfi_endproc
.LFE3890:
	.size	_ZNK8opendnp318BufferedCollectionINS_7IndexedINS_18AnalogOutputStatusEEEZNS_16CountIndexParser13InvokeCountOfINS_11Group42Var8EEEvRKNS_12HeaderRecordEtRKNS_9NumParserERKN7openpal6RSliceERNS_12IAPDUHandlerEEUlRSE_jE_E5CountEv, .-_ZNK8opendnp318BufferedCollectionINS_7IndexedINS_18AnalogOutputStatusEEEZNS_16CountIndexParser13InvokeCountOfINS_11Group42Var8EEEvRKNS_12HeaderRecordEtRKNS_9NumParserERKN7openpal6RSliceERNS_12IAPDUHandlerEEUlRSE_jE_E5CountEv
	.section	.text._ZNK8opendnp318BufferedCollectionINS_7IndexedINS_18AnalogOutputStatusEEEZNS_16CountIndexParser13InvokeCountOfINS_11Group42Var7EEEvRKNS_12HeaderRecordEtRKNS_9NumParserERKN7openpal6RSliceERNS_12IAPDUHandlerEEUlRSE_jE_E5CountEv,"axG",@progbits,_ZNK8opendnp318BufferedCollectionINS_7IndexedINS_18AnalogOutputStatusEEEZNS_16CountIndexParser13InvokeCountOfINS_11Group42Var7EEEvRKNS_12HeaderRecordEtRKNS_9NumParserERKN7openpal6RSliceERNS_12IAPDUHandlerEEUlRSE_jE_E5CountEv,comdat
	.align 2
	.p2align 4,,15
	.weak	_ZNK8opendnp318BufferedCollectionINS_7IndexedINS_18AnalogOutputStatusEEEZNS_16CountIndexParser13InvokeCountOfINS_11Group42Var7EEEvRKNS_12HeaderRecordEtRKNS_9NumParserERKN7openpal6RSliceERNS_12IAPDUHandlerEEUlRSE_jE_E5CountEv
	.type	_ZNK8opendnp318BufferedCollectionINS_7IndexedINS_18AnalogOutputStatusEEEZNS_16CountIndexParser13InvokeCountOfINS_11Group42Var7EEEvRKNS_12HeaderRecordEtRKNS_9NumParserERKN7openpal6RSliceERNS_12IAPDUHandlerEEUlRSE_jE_E5CountEv, @function
_ZNK8opendnp318BufferedCollectionINS_7IndexedINS_18AnalogOutputStatusEEEZNS_16CountIndexParser13InvokeCountOfINS_11Group42Var7EEEvRKNS_12HeaderRecordEtRKNS_9NumParserERKN7openpal6RSliceERNS_12IAPDUHandlerEEUlRSE_jE_E5CountEv:
.LFB3892:
	.cfi_startproc
	movq	24(%rdi), %rax
	ret
	.cfi_endproc
.LFE3892:
	.size	_ZNK8opendnp318BufferedCollectionINS_7IndexedINS_18AnalogOutputStatusEEEZNS_16CountIndexParser13InvokeCountOfINS_11Group42Var7EEEvRKNS_12HeaderRecordEtRKNS_9NumParserERKN7openpal6RSliceERNS_12IAPDUHandlerEEUlRSE_jE_E5CountEv, .-_ZNK8opendnp318BufferedCollectionINS_7IndexedINS_18AnalogOutputStatusEEEZNS_16CountIndexParser13InvokeCountOfINS_11Group42Var7EEEvRKNS_12HeaderRecordEtRKNS_9NumParserERKN7openpal6RSliceERNS_12IAPDUHandlerEEUlRSE_jE_E5CountEv
	.section	.text._ZNK8opendnp318BufferedCollectionINS_7IndexedINS_18AnalogOutputStatusEEEZNS_16CountIndexParser13InvokeCountOfINS_11Group42Var6EEEvRKNS_12HeaderRecordEtRKNS_9NumParserERKN7openpal6RSliceERNS_12IAPDUHandlerEEUlRSE_jE_E5CountEv,"axG",@progbits,_ZNK8opendnp318BufferedCollectionINS_7IndexedINS_18AnalogOutputStatusEEEZNS_16CountIndexParser13InvokeCountOfINS_11Group42Var6EEEvRKNS_12HeaderRecordEtRKNS_9NumParserERKN7openpal6RSliceERNS_12IAPDUHandlerEEUlRSE_jE_E5CountEv,comdat
	.align 2
	.p2align 4,,15
	.weak	_ZNK8opendnp318BufferedCollectionINS_7IndexedINS_18AnalogOutputStatusEEEZNS_16CountIndexParser13InvokeCountOfINS_11Group42Var6EEEvRKNS_12HeaderRecordEtRKNS_9NumParserERKN7openpal6RSliceERNS_12IAPDUHandlerEEUlRSE_jE_E5CountEv
	.type	_ZNK8opendnp318BufferedCollectionINS_7IndexedINS_18AnalogOutputStatusEEEZNS_16CountIndexParser13InvokeCountOfINS_11Group42Var6EEEvRKNS_12HeaderRecordEtRKNS_9NumParserERKN7openpal6RSliceERNS_12IAPDUHandlerEEUlRSE_jE_E5CountEv, @function
_ZNK8opendnp318BufferedCollectionINS_7IndexedINS_18AnalogOutputStatusEEEZNS_16CountIndexParser13InvokeCountOfINS_11Group42Var6EEEvRKNS_12HeaderRecordEtRKNS_9NumParserERKN7openpal6RSliceERNS_12IAPDUHandlerEEUlRSE_jE_E5CountEv:
.LFB3894:
	.cfi_startproc
	movq	24(%rdi), %rax
	ret
	.cfi_endproc
.LFE3894:
	.size	_ZNK8opendnp318BufferedCollectionINS_7IndexedINS_18AnalogOutputStatusEEEZNS_16CountIndexParser13InvokeCountOfINS_11Group42Var6EEEvRKNS_12HeaderRecordEtRKNS_9NumParserERKN7openpal6RSliceERNS_12IAPDUHandlerEEUlRSE_jE_E5CountEv, .-_ZNK8opendnp318BufferedCollectionINS_7IndexedINS_18AnalogOutputStatusEEEZNS_16CountIndexParser13InvokeCountOfINS_11Group42Var6EEEvRKNS_12HeaderRecordEtRKNS_9NumParserERKN7openpal6RSliceERNS_12IAPDUHandlerEEUlRSE_jE_E5CountEv
	.section	.text._ZNK8opendnp318BufferedCollectionINS_7IndexedINS_18AnalogOutputStatusEEEZNS_16CountIndexParser13InvokeCountOfINS_11Group42Var5EEEvRKNS_12HeaderRecordEtRKNS_9NumParserERKN7openpal6RSliceERNS_12IAPDUHandlerEEUlRSE_jE_E5CountEv,"axG",@progbits,_ZNK8opendnp318BufferedCollectionINS_7IndexedINS_18AnalogOutputStatusEEEZNS_16CountIndexParser13InvokeCountOfINS_11Group42Var5EEEvRKNS_12HeaderRecordEtRKNS_9NumParserERKN7openpal6RSliceERNS_12IAPDUHandlerEEUlRSE_jE_E5CountEv,comdat
	.align 2
	.p2align 4,,15
	.weak	_ZNK8opendnp318BufferedCollectionINS_7IndexedINS_18AnalogOutputStatusEEEZNS_16CountIndexParser13InvokeCountOfINS_11Group42Var5EEEvRKNS_12HeaderRecordEtRKNS_9NumParserERKN7openpal6RSliceERNS_12IAPDUHandlerEEUlRSE_jE_E5CountEv
	.type	_ZNK8opendnp318BufferedCollectionINS_7IndexedINS_18AnalogOutputStatusEEEZNS_16CountIndexParser13InvokeCountOfINS_11Group42Var5EEEvRKNS_12HeaderRecordEtRKNS_9NumParserERKN7openpal6RSliceERNS_12IAPDUHandlerEEUlRSE_jE_E5CountEv, @function
_ZNK8opendnp318BufferedCollectionINS_7IndexedINS_18AnalogOutputStatusEEEZNS_16CountIndexParser13InvokeCountOfINS_11Group42Var5EEEvRKNS_12HeaderRecordEtRKNS_9NumParserERKN7openpal6RSliceERNS_12IAPDUHandlerEEUlRSE_jE_E5CountEv:
.LFB3896:
	.cfi_startproc
	movq	24(%rdi), %rax
	ret
	.cfi_endproc
.LFE3896:
	.size	_ZNK8opendnp318BufferedCollectionINS_7IndexedINS_18AnalogOutputStatusEEEZNS_16CountIndexParser13InvokeCountOfINS_11Group42Var5EEEvRKNS_12HeaderRecordEtRKNS_9NumParserERKN7openpal6RSliceERNS_12IAPDUHandlerEEUlRSE_jE_E5CountEv, .-_ZNK8opendnp318BufferedCollectionINS_7IndexedINS_18AnalogOutputStatusEEEZNS_16CountIndexParser13InvokeCountOfINS_11Group42Var5EEEvRKNS_12HeaderRecordEtRKNS_9NumParserERKN7openpal6RSliceERNS_12IAPDUHandlerEEUlRSE_jE_E5CountEv
	.section	.text._ZNK8opendnp318BufferedCollectionINS_7IndexedINS_18AnalogOutputStatusEEEZNS_16CountIndexParser13InvokeCountOfINS_11Group42Var4EEEvRKNS_12HeaderRecordEtRKNS_9NumParserERKN7openpal6RSliceERNS_12IAPDUHandlerEEUlRSE_jE_E5CountEv,"axG",@progbits,_ZNK8opendnp318BufferedCollectionINS_7IndexedINS_18AnalogOutputStatusEEEZNS_16CountIndexParser13InvokeCountOfINS_11Group42Var4EEEvRKNS_12HeaderRecordEtRKNS_9NumParserERKN7openpal6RSliceERNS_12IAPDUHandlerEEUlRSE_jE_E5CountEv,comdat
	.align 2
	.p2align 4,,15
	.weak	_ZNK8opendnp318BufferedCollectionINS_7IndexedINS_18AnalogOutputStatusEEEZNS_16CountIndexParser13InvokeCountOfINS_11Group42Var4EEEvRKNS_12HeaderRecordEtRKNS_9NumParserERKN7openpal6RSliceERNS_12IAPDUHandlerEEUlRSE_jE_E5CountEv
	.type	_ZNK8opendnp318BufferedCollectionINS_7IndexedINS_18AnalogOutputStatusEEEZNS_16CountIndexParser13InvokeCountOfINS_11Group42Var4EEEvRKNS_12HeaderRecordEtRKNS_9NumParserERKN7openpal6RSliceERNS_12IAPDUHandlerEEUlRSE_jE_E5CountEv, @function
_ZNK8opendnp318BufferedCollectionINS_7IndexedINS_18AnalogOutputStatusEEEZNS_16CountIndexParser13InvokeCountOfINS_11Group42Var4EEEvRKNS_12HeaderRecordEtRKNS_9NumParserERKN7openpal6RSliceERNS_12IAPDUHandlerEEUlRSE_jE_E5CountEv:
.LFB3898:
	.cfi_startproc
	movq	24(%rdi), %rax
	ret
	.cfi_endproc
.LFE3898:
	.size	_ZNK8opendnp318BufferedCollectionINS_7IndexedINS_18AnalogOutputStatusEEEZNS_16CountIndexParser13InvokeCountOfINS_11Group42Var4EEEvRKNS_12HeaderRecordEtRKNS_9NumParserERKN7openpal6RSliceERNS_12IAPDUHandlerEEUlRSE_jE_E5CountEv, .-_ZNK8opendnp318BufferedCollectionINS_7IndexedINS_18AnalogOutputStatusEEEZNS_16CountIndexParser13InvokeCountOfINS_11Group42Var4EEEvRKNS_12HeaderRecordEtRKNS_9NumParserERKN7openpal6RSliceERNS_12IAPDUHandlerEEUlRSE_jE_E5CountEv
	.section	.text._ZNK8opendnp318BufferedCollectionINS_7IndexedINS_18AnalogOutputStatusEEEZNS_16CountIndexParser13InvokeCountOfINS_11Group42Var3EEEvRKNS_12HeaderRecordEtRKNS_9NumParserERKN7openpal6RSliceERNS_12IAPDUHandlerEEUlRSE_jE_E5CountEv,"axG",@progbits,_ZNK8opendnp318BufferedCollectionINS_7IndexedINS_18AnalogOutputStatusEEEZNS_16CountIndexParser13InvokeCountOfINS_11Group42Var3EEEvRKNS_12HeaderRecordEtRKNS_9NumParserERKN7openpal6RSliceERNS_12IAPDUHandlerEEUlRSE_jE_E5CountEv,comdat
	.align 2
	.p2align 4,,15
	.weak	_ZNK8opendnp318BufferedCollectionINS_7IndexedINS_18AnalogOutputStatusEEEZNS_16CountIndexParser13InvokeCountOfINS_11Group42Var3EEEvRKNS_12HeaderRecordEtRKNS_9NumParserERKN7openpal6RSliceERNS_12IAPDUHandlerEEUlRSE_jE_E5CountEv
	.type	_ZNK8opendnp318BufferedCollectionINS_7IndexedINS_18AnalogOutputStatusEEEZNS_16CountIndexParser13InvokeCountOfINS_11Group42Var3EEEvRKNS_12HeaderRecordEtRKNS_9NumParserERKN7openpal6RSliceERNS_12IAPDUHandlerEEUlRSE_jE_E5CountEv, @function
_ZNK8opendnp318BufferedCollectionINS_7IndexedINS_18AnalogOutputStatusEEEZNS_16CountIndexParser13InvokeCountOfINS_11Group42Var3EEEvRKNS_12HeaderRecordEtRKNS_9NumParserERKN7openpal6RSliceERNS_12IAPDUHandlerEEUlRSE_jE_E5CountEv:
.LFB3900:
	.cfi_startproc
	movq	24(%rdi), %rax
	ret
	.cfi_endproc
.LFE3900:
	.size	_ZNK8opendnp318BufferedCollectionINS_7IndexedINS_18AnalogOutputStatusEEEZNS_16CountIndexParser13InvokeCountOfINS_11Group42Var3EEEvRKNS_12HeaderRecordEtRKNS_9NumParserERKN7openpal6RSliceERNS_12IAPDUHandlerEEUlRSE_jE_E5CountEv, .-_ZNK8opendnp318BufferedCollectionINS_7IndexedINS_18AnalogOutputStatusEEEZNS_16CountIndexParser13InvokeCountOfINS_11Group42Var3EEEvRKNS_12HeaderRecordEtRKNS_9NumParserERKN7openpal6RSliceERNS_12IAPDUHandlerEEUlRSE_jE_E5CountEv
	.section	.text._ZNK8opendnp318BufferedCollectionINS_7IndexedINS_18AnalogOutputStatusEEEZNS_16CountIndexParser13InvokeCountOfINS_11Group42Var2EEEvRKNS_12HeaderRecordEtRKNS_9NumParserERKN7openpal6RSliceERNS_12IAPDUHandlerEEUlRSE_jE_E5CountEv,"axG",@progbits,_ZNK8opendnp318BufferedCollectionINS_7IndexedINS_18AnalogOutputStatusEEEZNS_16CountIndexParser13InvokeCountOfINS_11Group42Var2EEEvRKNS_12HeaderRecordEtRKNS_9NumParserERKN7openpal6RSliceERNS_12IAPDUHandlerEEUlRSE_jE_E5CountEv,comdat
	.align 2
	.p2align 4,,15
	.weak	_ZNK8opendnp318BufferedCollectionINS_7IndexedINS_18AnalogOutputStatusEEEZNS_16CountIndexParser13InvokeCountOfINS_11Group42Var2EEEvRKNS_12HeaderRecordEtRKNS_9NumParserERKN7openpal6RSliceERNS_12IAPDUHandlerEEUlRSE_jE_E5CountEv
	.type	_ZNK8opendnp318BufferedCollectionINS_7IndexedINS_18AnalogOutputStatusEEEZNS_16CountIndexParser13InvokeCountOfINS_11Group42Var2EEEvRKNS_12HeaderRecordEtRKNS_9NumParserERKN7openpal6RSliceERNS_12IAPDUHandlerEEUlRSE_jE_E5CountEv, @function
_ZNK8opendnp318BufferedCollectionINS_7IndexedINS_18AnalogOutputStatusEEEZNS_16CountIndexParser13InvokeCountOfINS_11Group42Var2EEEvRKNS_12HeaderRecordEtRKNS_9NumParserERKN7openpal6RSliceERNS_12IAPDUHandlerEEUlRSE_jE_E5CountEv:
.LFB3902:
	.cfi_startproc
	movq	24(%rdi), %rax
	ret
	.cfi_endproc
.LFE3902:
	.size	_ZNK8opendnp318BufferedCollectionINS_7IndexedINS_18AnalogOutputStatusEEEZNS_16CountIndexParser13InvokeCountOfINS_11Group42Var2EEEvRKNS_12HeaderRecordEtRKNS_9NumParserERKN7openpal6RSliceERNS_12IAPDUHandlerEEUlRSE_jE_E5CountEv, .-_ZNK8opendnp318BufferedCollectionINS_7IndexedINS_18AnalogOutputStatusEEEZNS_16CountIndexParser13InvokeCountOfINS_11Group42Var2EEEvRKNS_12HeaderRecordEtRKNS_9NumParserERKN7openpal6RSliceERNS_12IAPDUHandlerEEUlRSE_jE_E5CountEv
	.section	.text._ZNK8opendnp318BufferedCollectionINS_7IndexedINS_18AnalogOutputStatusEEEZNS_16CountIndexParser13InvokeCountOfINS_11Group42Var1EEEvRKNS_12HeaderRecordEtRKNS_9NumParserERKN7openpal6RSliceERNS_12IAPDUHandlerEEUlRSE_jE_E5CountEv,"axG",@progbits,_ZNK8opendnp318BufferedCollectionINS_7IndexedINS_18AnalogOutputStatusEEEZNS_16CountIndexParser13InvokeCountOfINS_11Group42Var1EEEvRKNS_12HeaderRecordEtRKNS_9NumParserERKN7openpal6RSliceERNS_12IAPDUHandlerEEUlRSE_jE_E5CountEv,comdat
	.align 2
	.p2align 4,,15
	.weak	_ZNK8opendnp318BufferedCollectionINS_7IndexedINS_18AnalogOutputStatusEEEZNS_16CountIndexParser13InvokeCountOfINS_11Group42Var1EEEvRKNS_12HeaderRecordEtRKNS_9NumParserERKN7openpal6RSliceERNS_12IAPDUHandlerEEUlRSE_jE_E5CountEv
	.type	_ZNK8opendnp318BufferedCollectionINS_7IndexedINS_18AnalogOutputStatusEEEZNS_16CountIndexParser13InvokeCountOfINS_11Group42Var1EEEvRKNS_12HeaderRecordEtRKNS_9NumParserERKN7openpal6RSliceERNS_12IAPDUHandlerEEUlRSE_jE_E5CountEv, @function
_ZNK8opendnp318BufferedCollectionINS_7IndexedINS_18AnalogOutputStatusEEEZNS_16CountIndexParser13InvokeCountOfINS_11Group42Var1EEEvRKNS_12HeaderRecordEtRKNS_9NumParserERKN7openpal6RSliceERNS_12IAPDUHandlerEEUlRSE_jE_E5CountEv:
.LFB3904:
	.cfi_startproc
	movq	24(%rdi), %rax
	ret
	.cfi_endproc
.LFE3904:
	.size	_ZNK8opendnp318BufferedCollectionINS_7IndexedINS_18AnalogOutputStatusEEEZNS_16CountIndexParser13InvokeCountOfINS_11Group42Var1EEEvRKNS_12HeaderRecordEtRKNS_9NumParserERKN7openpal6RSliceERNS_12IAPDUHandlerEEUlRSE_jE_E5CountEv, .-_ZNK8opendnp318BufferedCollectionINS_7IndexedINS_18AnalogOutputStatusEEEZNS_16CountIndexParser13InvokeCountOfINS_11Group42Var1EEEvRKNS_12HeaderRecordEtRKNS_9NumParserERKN7openpal6RSliceERNS_12IAPDUHandlerEEUlRSE_jE_E5CountEv
	.section	.text._ZNK8opendnp318BufferedCollectionINS_7IndexedINS_20AnalogOutputDouble64EEEZNS_16CountIndexParser13InvokeCountOfINS_11Group41Var4EEEvRKNS_12HeaderRecordEtRKNS_9NumParserERKN7openpal6RSliceERNS_12IAPDUHandlerEEUlRSE_jE_E5CountEv,"axG",@progbits,_ZNK8opendnp318BufferedCollectionINS_7IndexedINS_20AnalogOutputDouble64EEEZNS_16CountIndexParser13InvokeCountOfINS_11Group41Var4EEEvRKNS_12HeaderRecordEtRKNS_9NumParserERKN7openpal6RSliceERNS_12IAPDUHandlerEEUlRSE_jE_E5CountEv,comdat
	.align 2
	.p2align 4,,15
	.weak	_ZNK8opendnp318BufferedCollectionINS_7IndexedINS_20AnalogOutputDouble64EEEZNS_16CountIndexParser13InvokeCountOfINS_11Group41Var4EEEvRKNS_12HeaderRecordEtRKNS_9NumParserERKN7openpal6RSliceERNS_12IAPDUHandlerEEUlRSE_jE_E5CountEv
	.type	_ZNK8opendnp318BufferedCollectionINS_7IndexedINS_20AnalogOutputDouble64EEEZNS_16CountIndexParser13InvokeCountOfINS_11Group41Var4EEEvRKNS_12HeaderRecordEtRKNS_9NumParserERKN7openpal6RSliceERNS_12IAPDUHandlerEEUlRSE_jE_E5CountEv, @function
_ZNK8opendnp318BufferedCollectionINS_7IndexedINS_20AnalogOutputDouble64EEEZNS_16CountIndexParser13InvokeCountOfINS_11Group41Var4EEEvRKNS_12HeaderRecordEtRKNS_9NumParserERKN7openpal6RSliceERNS_12IAPDUHandlerEEUlRSE_jE_E5CountEv:
.LFB3906:
	.cfi_startproc
	movq	24(%rdi), %rax
	ret
	.cfi_endproc
.LFE3906:
	.size	_ZNK8opendnp318BufferedCollectionINS_7IndexedINS_20AnalogOutputDouble64EEEZNS_16CountIndexParser13InvokeCountOfINS_11Group41Var4EEEvRKNS_12HeaderRecordEtRKNS_9NumParserERKN7openpal6RSliceERNS_12IAPDUHandlerEEUlRSE_jE_E5CountEv, .-_ZNK8opendnp318BufferedCollectionINS_7IndexedINS_20AnalogOutputDouble64EEEZNS_16CountIndexParser13InvokeCountOfINS_11Group41Var4EEEvRKNS_12HeaderRecordEtRKNS_9NumParserERKN7openpal6RSliceERNS_12IAPDUHandlerEEUlRSE_jE_E5CountEv
	.section	.text._ZNK8opendnp318BufferedCollectionINS_7IndexedINS_19AnalogOutputFloat32EEEZNS_16CountIndexParser13InvokeCountOfINS_11Group41Var3EEEvRKNS_12HeaderRecordEtRKNS_9NumParserERKN7openpal6RSliceERNS_12IAPDUHandlerEEUlRSE_jE_E5CountEv,"axG",@progbits,_ZNK8opendnp318BufferedCollectionINS_7IndexedINS_19AnalogOutputFloat32EEEZNS_16CountIndexParser13InvokeCountOfINS_11Group41Var3EEEvRKNS_12HeaderRecordEtRKNS_9NumParserERKN7openpal6RSliceERNS_12IAPDUHandlerEEUlRSE_jE_E5CountEv,comdat
	.align 2
	.p2align 4,,15
	.weak	_ZNK8opendnp318BufferedCollectionINS_7IndexedINS_19AnalogOutputFloat32EEEZNS_16CountIndexParser13InvokeCountOfINS_11Group41Var3EEEvRKNS_12HeaderRecordEtRKNS_9NumParserERKN7openpal6RSliceERNS_12IAPDUHandlerEEUlRSE_jE_E5CountEv
	.type	_ZNK8opendnp318BufferedCollectionINS_7IndexedINS_19AnalogOutputFloat32EEEZNS_16CountIndexParser13InvokeCountOfINS_11Group41Var3EEEvRKNS_12HeaderRecordEtRKNS_9NumParserERKN7openpal6RSliceERNS_12IAPDUHandlerEEUlRSE_jE_E5CountEv, @function
_ZNK8opendnp318BufferedCollectionINS_7IndexedINS_19AnalogOutputFloat32EEEZNS_16CountIndexParser13InvokeCountOfINS_11Group41Var3EEEvRKNS_12HeaderRecordEtRKNS_9NumParserERKN7openpal6RSliceERNS_12IAPDUHandlerEEUlRSE_jE_E5CountEv:
.LFB3908:
	.cfi_startproc
	movq	24(%rdi), %rax
	ret
	.cfi_endproc
.LFE3908:
	.size	_ZNK8opendnp318BufferedCollectionINS_7IndexedINS_19AnalogOutputFloat32EEEZNS_16CountIndexParser13InvokeCountOfINS_11Group41Var3EEEvRKNS_12HeaderRecordEtRKNS_9NumParserERKN7openpal6RSliceERNS_12IAPDUHandlerEEUlRSE_jE_E5CountEv, .-_ZNK8opendnp318BufferedCollectionINS_7IndexedINS_19AnalogOutputFloat32EEEZNS_16CountIndexParser13InvokeCountOfINS_11Group41Var3EEEvRKNS_12HeaderRecordEtRKNS_9NumParserERKN7openpal6RSliceERNS_12IAPDUHandlerEEUlRSE_jE_E5CountEv
	.section	.text._ZNK8opendnp318BufferedCollectionINS_7IndexedINS_17AnalogOutputInt16EEEZNS_16CountIndexParser13InvokeCountOfINS_11Group41Var2EEEvRKNS_12HeaderRecordEtRKNS_9NumParserERKN7openpal6RSliceERNS_12IAPDUHandlerEEUlRSE_jE_E5CountEv,"axG",@progbits,_ZNK8opendnp318BufferedCollectionINS_7IndexedINS_17AnalogOutputInt16EEEZNS_16CountIndexParser13InvokeCountOfINS_11Group41Var2EEEvRKNS_12HeaderRecordEtRKNS_9NumParserERKN7openpal6RSliceERNS_12IAPDUHandlerEEUlRSE_jE_E5CountEv,comdat
	.align 2
	.p2align 4,,15
	.weak	_ZNK8opendnp318BufferedCollectionINS_7IndexedINS_17AnalogOutputInt16EEEZNS_16CountIndexParser13InvokeCountOfINS_11Group41Var2EEEvRKNS_12HeaderRecordEtRKNS_9NumParserERKN7openpal6RSliceERNS_12IAPDUHandlerEEUlRSE_jE_E5CountEv
	.type	_ZNK8opendnp318BufferedCollectionINS_7IndexedINS_17AnalogOutputInt16EEEZNS_16CountIndexParser13InvokeCountOfINS_11Group41Var2EEEvRKNS_12HeaderRecordEtRKNS_9NumParserERKN7openpal6RSliceERNS_12IAPDUHandlerEEUlRSE_jE_E5CountEv, @function
_ZNK8opendnp318BufferedCollectionINS_7IndexedINS_17AnalogOutputInt16EEEZNS_16CountIndexParser13InvokeCountOfINS_11Group41Var2EEEvRKNS_12HeaderRecordEtRKNS_9NumParserERKN7openpal6RSliceERNS_12IAPDUHandlerEEUlRSE_jE_E5CountEv:
.LFB3910:
	.cfi_startproc
	movq	24(%rdi), %rax
	ret
	.cfi_endproc
.LFE3910:
	.size	_ZNK8opendnp318BufferedCollectionINS_7IndexedINS_17AnalogOutputInt16EEEZNS_16CountIndexParser13InvokeCountOfINS_11Group41Var2EEEvRKNS_12HeaderRecordEtRKNS_9NumParserERKN7openpal6RSliceERNS_12IAPDUHandlerEEUlRSE_jE_E5CountEv, .-_ZNK8opendnp318BufferedCollectionINS_7IndexedINS_17AnalogOutputInt16EEEZNS_16CountIndexParser13InvokeCountOfINS_11Group41Var2EEEvRKNS_12HeaderRecordEtRKNS_9NumParserERKN7openpal6RSliceERNS_12IAPDUHandlerEEUlRSE_jE_E5CountEv
	.section	.text._ZNK8opendnp318BufferedCollectionINS_7IndexedINS_17AnalogOutputInt32EEEZNS_16CountIndexParser13InvokeCountOfINS_11Group41Var1EEEvRKNS_12HeaderRecordEtRKNS_9NumParserERKN7openpal6RSliceERNS_12IAPDUHandlerEEUlRSE_jE_E5CountEv,"axG",@progbits,_ZNK8opendnp318BufferedCollectionINS_7IndexedINS_17AnalogOutputInt32EEEZNS_16CountIndexParser13InvokeCountOfINS_11Group41Var1EEEvRKNS_12HeaderRecordEtRKNS_9NumParserERKN7openpal6RSliceERNS_12IAPDUHandlerEEUlRSE_jE_E5CountEv,comdat
	.align 2
	.p2align 4,,15
	.weak	_ZNK8opendnp318BufferedCollectionINS_7IndexedINS_17AnalogOutputInt32EEEZNS_16CountIndexParser13InvokeCountOfINS_11Group41Var1EEEvRKNS_12HeaderRecordEtRKNS_9NumParserERKN7openpal6RSliceERNS_12IAPDUHandlerEEUlRSE_jE_E5CountEv
	.type	_ZNK8opendnp318BufferedCollectionINS_7IndexedINS_17AnalogOutputInt32EEEZNS_16CountIndexParser13InvokeCountOfINS_11Group41Var1EEEvRKNS_12HeaderRecordEtRKNS_9NumParserERKN7openpal6RSliceERNS_12IAPDUHandlerEEUlRSE_jE_E5CountEv, @function
_ZNK8opendnp318BufferedCollectionINS_7IndexedINS_17AnalogOutputInt32EEEZNS_16CountIndexParser13InvokeCountOfINS_11Group41Var1EEEvRKNS_12HeaderRecordEtRKNS_9NumParserERKN7openpal6RSliceERNS_12IAPDUHandlerEEUlRSE_jE_E5CountEv:
.LFB3912:
	.cfi_startproc
	movq	24(%rdi), %rax
	ret
	.cfi_endproc
.LFE3912:
	.size	_ZNK8opendnp318BufferedCollectionINS_7IndexedINS_17AnalogOutputInt32EEEZNS_16CountIndexParser13InvokeCountOfINS_11Group41Var1EEEvRKNS_12HeaderRecordEtRKNS_9NumParserERKN7openpal6RSliceERNS_12IAPDUHandlerEEUlRSE_jE_E5CountEv, .-_ZNK8opendnp318BufferedCollectionINS_7IndexedINS_17AnalogOutputInt32EEEZNS_16CountIndexParser13InvokeCountOfINS_11Group41Var1EEEvRKNS_12HeaderRecordEtRKNS_9NumParserERKN7openpal6RSliceERNS_12IAPDUHandlerEEUlRSE_jE_E5CountEv
	.section	.text._ZNK8opendnp318BufferedCollectionINS_7IndexedINS_6AnalogEEEZNS_16CountIndexParser13InvokeCountOfINS_11Group32Var8EEEvRKNS_12HeaderRecordEtRKNS_9NumParserERKN7openpal6RSliceERNS_12IAPDUHandlerEEUlRSE_jE_E5CountEv,"axG",@progbits,_ZNK8opendnp318BufferedCollectionINS_7IndexedINS_6AnalogEEEZNS_16CountIndexParser13InvokeCountOfINS_11Group32Var8EEEvRKNS_12HeaderRecordEtRKNS_9NumParserERKN7openpal6RSliceERNS_12IAPDUHandlerEEUlRSE_jE_E5CountEv,comdat
	.align 2
	.p2align 4,,15
	.weak	_ZNK8opendnp318BufferedCollectionINS_7IndexedINS_6AnalogEEEZNS_16CountIndexParser13InvokeCountOfINS_11Group32Var8EEEvRKNS_12HeaderRecordEtRKNS_9NumParserERKN7openpal6RSliceERNS_12IAPDUHandlerEEUlRSE_jE_E5CountEv
	.type	_ZNK8opendnp318BufferedCollectionINS_7IndexedINS_6AnalogEEEZNS_16CountIndexParser13InvokeCountOfINS_11Group32Var8EEEvRKNS_12HeaderRecordEtRKNS_9NumParserERKN7openpal6RSliceERNS_12IAPDUHandlerEEUlRSE_jE_E5CountEv, @function
_ZNK8opendnp318BufferedCollectionINS_7IndexedINS_6AnalogEEEZNS_16CountIndexParser13InvokeCountOfINS_11Group32Var8EEEvRKNS_12HeaderRecordEtRKNS_9NumParserERKN7openpal6RSliceERNS_12IAPDUHandlerEEUlRSE_jE_E5CountEv:
.LFB3914:
	.cfi_startproc
	movq	24(%rdi), %rax
	ret
	.cfi_endproc
.LFE3914:
	.size	_ZNK8opendnp318BufferedCollectionINS_7IndexedINS_6AnalogEEEZNS_16CountIndexParser13InvokeCountOfINS_11Group32Var8EEEvRKNS_12HeaderRecordEtRKNS_9NumParserERKN7openpal6RSliceERNS_12IAPDUHandlerEEUlRSE_jE_E5CountEv, .-_ZNK8opendnp318BufferedCollectionINS_7IndexedINS_6AnalogEEEZNS_16CountIndexParser13InvokeCountOfINS_11Group32Var8EEEvRKNS_12HeaderRecordEtRKNS_9NumParserERKN7openpal6RSliceERNS_12IAPDUHandlerEEUlRSE_jE_E5CountEv
	.section	.text._ZNK8opendnp318BufferedCollectionINS_7IndexedINS_6AnalogEEEZNS_16CountIndexParser13InvokeCountOfINS_11Group32Var7EEEvRKNS_12HeaderRecordEtRKNS_9NumParserERKN7openpal6RSliceERNS_12IAPDUHandlerEEUlRSE_jE_E5CountEv,"axG",@progbits,_ZNK8opendnp318BufferedCollectionINS_7IndexedINS_6AnalogEEEZNS_16CountIndexParser13InvokeCountOfINS_11Group32Var7EEEvRKNS_12HeaderRecordEtRKNS_9NumParserERKN7openpal6RSliceERNS_12IAPDUHandlerEEUlRSE_jE_E5CountEv,comdat
	.align 2
	.p2align 4,,15
	.weak	_ZNK8opendnp318BufferedCollectionINS_7IndexedINS_6AnalogEEEZNS_16CountIndexParser13InvokeCountOfINS_11Group32Var7EEEvRKNS_12HeaderRecordEtRKNS_9NumParserERKN7openpal6RSliceERNS_12IAPDUHandlerEEUlRSE_jE_E5CountEv
	.type	_ZNK8opendnp318BufferedCollectionINS_7IndexedINS_6AnalogEEEZNS_16CountIndexParser13InvokeCountOfINS_11Group32Var7EEEvRKNS_12HeaderRecordEtRKNS_9NumParserERKN7openpal6RSliceERNS_12IAPDUHandlerEEUlRSE_jE_E5CountEv, @function
_ZNK8opendnp318BufferedCollectionINS_7IndexedINS_6AnalogEEEZNS_16CountIndexParser13InvokeCountOfINS_11Group32Var7EEEvRKNS_12HeaderRecordEtRKNS_9NumParserERKN7openpal6RSliceERNS_12IAPDUHandlerEEUlRSE_jE_E5CountEv:
.LFB3916:
	.cfi_startproc
	movq	24(%rdi), %rax
	ret
	.cfi_endproc
.LFE3916:
	.size	_ZNK8opendnp318BufferedCollectionINS_7IndexedINS_6AnalogEEEZNS_16CountIndexParser13InvokeCountOfINS_11Group32Var7EEEvRKNS_12HeaderRecordEtRKNS_9NumParserERKN7openpal6RSliceERNS_12IAPDUHandlerEEUlRSE_jE_E5CountEv, .-_ZNK8opendnp318BufferedCollectionINS_7IndexedINS_6AnalogEEEZNS_16CountIndexParser13InvokeCountOfINS_11Group32Var7EEEvRKNS_12HeaderRecordEtRKNS_9NumParserERKN7openpal6RSliceERNS_12IAPDUHandlerEEUlRSE_jE_E5CountEv
	.section	.text._ZNK8opendnp318BufferedCollectionINS_7IndexedINS_6AnalogEEEZNS_16CountIndexParser13InvokeCountOfINS_11Group32Var6EEEvRKNS_12HeaderRecordEtRKNS_9NumParserERKN7openpal6RSliceERNS_12IAPDUHandlerEEUlRSE_jE_E5CountEv,"axG",@progbits,_ZNK8opendnp318BufferedCollectionINS_7IndexedINS_6AnalogEEEZNS_16CountIndexParser13InvokeCountOfINS_11Group32Var6EEEvRKNS_12HeaderRecordEtRKNS_9NumParserERKN7openpal6RSliceERNS_12IAPDUHandlerEEUlRSE_jE_E5CountEv,comdat
	.align 2
	.p2align 4,,15
	.weak	_ZNK8opendnp318BufferedCollectionINS_7IndexedINS_6AnalogEEEZNS_16CountIndexParser13InvokeCountOfINS_11Group32Var6EEEvRKNS_12HeaderRecordEtRKNS_9NumParserERKN7openpal6RSliceERNS_12IAPDUHandlerEEUlRSE_jE_E5CountEv
	.type	_ZNK8opendnp318BufferedCollectionINS_7IndexedINS_6AnalogEEEZNS_16CountIndexParser13InvokeCountOfINS_11Group32Var6EEEvRKNS_12HeaderRecordEtRKNS_9NumParserERKN7openpal6RSliceERNS_12IAPDUHandlerEEUlRSE_jE_E5CountEv, @function
_ZNK8opendnp318BufferedCollectionINS_7IndexedINS_6AnalogEEEZNS_16CountIndexParser13InvokeCountOfINS_11Group32Var6EEEvRKNS_12HeaderRecordEtRKNS_9NumParserERKN7openpal6RSliceERNS_12IAPDUHandlerEEUlRSE_jE_E5CountEv:
.LFB3918:
	.cfi_startproc
	movq	24(%rdi), %rax
	ret
	.cfi_endproc
.LFE3918:
	.size	_ZNK8opendnp318BufferedCollectionINS_7IndexedINS_6AnalogEEEZNS_16CountIndexParser13InvokeCountOfINS_11Group32Var6EEEvRKNS_12HeaderRecordEtRKNS_9NumParserERKN7openpal6RSliceERNS_12IAPDUHandlerEEUlRSE_jE_E5CountEv, .-_ZNK8opendnp318BufferedCollectionINS_7IndexedINS_6AnalogEEEZNS_16CountIndexParser13InvokeCountOfINS_11Group32Var6EEEvRKNS_12HeaderRecordEtRKNS_9NumParserERKN7openpal6RSliceERNS_12IAPDUHandlerEEUlRSE_jE_E5CountEv
	.section	.text._ZNK8opendnp318BufferedCollectionINS_7IndexedINS_6AnalogEEEZNS_16CountIndexParser13InvokeCountOfINS_11Group32Var5EEEvRKNS_12HeaderRecordEtRKNS_9NumParserERKN7openpal6RSliceERNS_12IAPDUHandlerEEUlRSE_jE_E5CountEv,"axG",@progbits,_ZNK8opendnp318BufferedCollectionINS_7IndexedINS_6AnalogEEEZNS_16CountIndexParser13InvokeCountOfINS_11Group32Var5EEEvRKNS_12HeaderRecordEtRKNS_9NumParserERKN7openpal6RSliceERNS_12IAPDUHandlerEEUlRSE_jE_E5CountEv,comdat
	.align 2
	.p2align 4,,15
	.weak	_ZNK8opendnp318BufferedCollectionINS_7IndexedINS_6AnalogEEEZNS_16CountIndexParser13InvokeCountOfINS_11Group32Var5EEEvRKNS_12HeaderRecordEtRKNS_9NumParserERKN7openpal6RSliceERNS_12IAPDUHandlerEEUlRSE_jE_E5CountEv
	.type	_ZNK8opendnp318BufferedCollectionINS_7IndexedINS_6AnalogEEEZNS_16CountIndexParser13InvokeCountOfINS_11Group32Var5EEEvRKNS_12HeaderRecordEtRKNS_9NumParserERKN7openpal6RSliceERNS_12IAPDUHandlerEEUlRSE_jE_E5CountEv, @function
_ZNK8opendnp318BufferedCollectionINS_7IndexedINS_6AnalogEEEZNS_16CountIndexParser13InvokeCountOfINS_11Group32Var5EEEvRKNS_12HeaderRecordEtRKNS_9NumParserERKN7openpal6RSliceERNS_12IAPDUHandlerEEUlRSE_jE_E5CountEv:
.LFB3920:
	.cfi_startproc
	movq	24(%rdi), %rax
	ret
	.cfi_endproc
.LFE3920:
	.size	_ZNK8opendnp318BufferedCollectionINS_7IndexedINS_6AnalogEEEZNS_16CountIndexParser13InvokeCountOfINS_11Group32Var5EEEvRKNS_12HeaderRecordEtRKNS_9NumParserERKN7openpal6RSliceERNS_12IAPDUHandlerEEUlRSE_jE_E5CountEv, .-_ZNK8opendnp318BufferedCollectionINS_7IndexedINS_6AnalogEEEZNS_16CountIndexParser13InvokeCountOfINS_11Group32Var5EEEvRKNS_12HeaderRecordEtRKNS_9NumParserERKN7openpal6RSliceERNS_12IAPDUHandlerEEUlRSE_jE_E5CountEv
	.section	.text._ZNK8opendnp318BufferedCollectionINS_7IndexedINS_6AnalogEEEZNS_16CountIndexParser13InvokeCountOfINS_11Group32Var4EEEvRKNS_12HeaderRecordEtRKNS_9NumParserERKN7openpal6RSliceERNS_12IAPDUHandlerEEUlRSE_jE_E5CountEv,"axG",@progbits,_ZNK8opendnp318BufferedCollectionINS_7IndexedINS_6AnalogEEEZNS_16CountIndexParser13InvokeCountOfINS_11Group32Var4EEEvRKNS_12HeaderRecordEtRKNS_9NumParserERKN7openpal6RSliceERNS_12IAPDUHandlerEEUlRSE_jE_E5CountEv,comdat
	.align 2
	.p2align 4,,15
	.weak	_ZNK8opendnp318BufferedCollectionINS_7IndexedINS_6AnalogEEEZNS_16CountIndexParser13InvokeCountOfINS_11Group32Var4EEEvRKNS_12HeaderRecordEtRKNS_9NumParserERKN7openpal6RSliceERNS_12IAPDUHandlerEEUlRSE_jE_E5CountEv
	.type	_ZNK8opendnp318BufferedCollectionINS_7IndexedINS_6AnalogEEEZNS_16CountIndexParser13InvokeCountOfINS_11Group32Var4EEEvRKNS_12HeaderRecordEtRKNS_9NumParserERKN7openpal6RSliceERNS_12IAPDUHandlerEEUlRSE_jE_E5CountEv, @function
_ZNK8opendnp318BufferedCollectionINS_7IndexedINS_6AnalogEEEZNS_16CountIndexParser13InvokeCountOfINS_11Group32Var4EEEvRKNS_12HeaderRecordEtRKNS_9NumParserERKN7openpal6RSliceERNS_12IAPDUHandlerEEUlRSE_jE_E5CountEv:
.LFB3922:
	.cfi_startproc
	movq	24(%rdi), %rax
	ret
	.cfi_endproc
.LFE3922:
	.size	_ZNK8opendnp318BufferedCollectionINS_7IndexedINS_6AnalogEEEZNS_16CountIndexParser13InvokeCountOfINS_11Group32Var4EEEvRKNS_12HeaderRecordEtRKNS_9NumParserERKN7openpal6RSliceERNS_12IAPDUHandlerEEUlRSE_jE_E5CountEv, .-_ZNK8opendnp318BufferedCollectionINS_7IndexedINS_6AnalogEEEZNS_16CountIndexParser13InvokeCountOfINS_11Group32Var4EEEvRKNS_12HeaderRecordEtRKNS_9NumParserERKN7openpal6RSliceERNS_12IAPDUHandlerEEUlRSE_jE_E5CountEv
	.section	.text._ZNK8opendnp318BufferedCollectionINS_7IndexedINS_6AnalogEEEZNS_16CountIndexParser13InvokeCountOfINS_11Group32Var3EEEvRKNS_12HeaderRecordEtRKNS_9NumParserERKN7openpal6RSliceERNS_12IAPDUHandlerEEUlRSE_jE_E5CountEv,"axG",@progbits,_ZNK8opendnp318BufferedCollectionINS_7IndexedINS_6AnalogEEEZNS_16CountIndexParser13InvokeCountOfINS_11Group32Var3EEEvRKNS_12HeaderRecordEtRKNS_9NumParserERKN7openpal6RSliceERNS_12IAPDUHandlerEEUlRSE_jE_E5CountEv,comdat
	.align 2
	.p2align 4,,15
	.weak	_ZNK8opendnp318BufferedCollectionINS_7IndexedINS_6AnalogEEEZNS_16CountIndexParser13InvokeCountOfINS_11Group32Var3EEEvRKNS_12HeaderRecordEtRKNS_9NumParserERKN7openpal6RSliceERNS_12IAPDUHandlerEEUlRSE_jE_E5CountEv
	.type	_ZNK8opendnp318BufferedCollectionINS_7IndexedINS_6AnalogEEEZNS_16CountIndexParser13InvokeCountOfINS_11Group32Var3EEEvRKNS_12HeaderRecordEtRKNS_9NumParserERKN7openpal6RSliceERNS_12IAPDUHandlerEEUlRSE_jE_E5CountEv, @function
_ZNK8opendnp318BufferedCollectionINS_7IndexedINS_6AnalogEEEZNS_16CountIndexParser13InvokeCountOfINS_11Group32Var3EEEvRKNS_12HeaderRecordEtRKNS_9NumParserERKN7openpal6RSliceERNS_12IAPDUHandlerEEUlRSE_jE_E5CountEv:
.LFB3924:
	.cfi_startproc
	movq	24(%rdi), %rax
	ret
	.cfi_endproc
.LFE3924:
	.size	_ZNK8opendnp318BufferedCollectionINS_7IndexedINS_6AnalogEEEZNS_16CountIndexParser13InvokeCountOfINS_11Group32Var3EEEvRKNS_12HeaderRecordEtRKNS_9NumParserERKN7openpal6RSliceERNS_12IAPDUHandlerEEUlRSE_jE_E5CountEv, .-_ZNK8opendnp318BufferedCollectionINS_7IndexedINS_6AnalogEEEZNS_16CountIndexParser13InvokeCountOfINS_11Group32Var3EEEvRKNS_12HeaderRecordEtRKNS_9NumParserERKN7openpal6RSliceERNS_12IAPDUHandlerEEUlRSE_jE_E5CountEv
	.section	.text._ZNK8opendnp318BufferedCollectionINS_7IndexedINS_6AnalogEEEZNS_16CountIndexParser13InvokeCountOfINS_11Group32Var2EEEvRKNS_12HeaderRecordEtRKNS_9NumParserERKN7openpal6RSliceERNS_12IAPDUHandlerEEUlRSE_jE_E5CountEv,"axG",@progbits,_ZNK8opendnp318BufferedCollectionINS_7IndexedINS_6AnalogEEEZNS_16CountIndexParser13InvokeCountOfINS_11Group32Var2EEEvRKNS_12HeaderRecordEtRKNS_9NumParserERKN7openpal6RSliceERNS_12IAPDUHandlerEEUlRSE_jE_E5CountEv,comdat
	.align 2
	.p2align 4,,15
	.weak	_ZNK8opendnp318BufferedCollectionINS_7IndexedINS_6AnalogEEEZNS_16CountIndexParser13InvokeCountOfINS_11Group32Var2EEEvRKNS_12HeaderRecordEtRKNS_9NumParserERKN7openpal6RSliceERNS_12IAPDUHandlerEEUlRSE_jE_E5CountEv
	.type	_ZNK8opendnp318BufferedCollectionINS_7IndexedINS_6AnalogEEEZNS_16CountIndexParser13InvokeCountOfINS_11Group32Var2EEEvRKNS_12HeaderRecordEtRKNS_9NumParserERKN7openpal6RSliceERNS_12IAPDUHandlerEEUlRSE_jE_E5CountEv, @function
_ZNK8opendnp318BufferedCollectionINS_7IndexedINS_6AnalogEEEZNS_16CountIndexParser13InvokeCountOfINS_11Group32Var2EEEvRKNS_12HeaderRecordEtRKNS_9NumParserERKN7openpal6RSliceERNS_12IAPDUHandlerEEUlRSE_jE_E5CountEv:
.LFB3926:
	.cfi_startproc
	movq	24(%rdi), %rax
	ret
	.cfi_endproc
.LFE3926:
	.size	_ZNK8opendnp318BufferedCollectionINS_7IndexedINS_6AnalogEEEZNS_16CountIndexParser13InvokeCountOfINS_11Group32Var2EEEvRKNS_12HeaderRecordEtRKNS_9NumParserERKN7openpal6RSliceERNS_12IAPDUHandlerEEUlRSE_jE_E5CountEv, .-_ZNK8opendnp318BufferedCollectionINS_7IndexedINS_6AnalogEEEZNS_16CountIndexParser13InvokeCountOfINS_11Group32Var2EEEvRKNS_12HeaderRecordEtRKNS_9NumParserERKN7openpal6RSliceERNS_12IAPDUHandlerEEUlRSE_jE_E5CountEv
	.section	.text._ZNK8opendnp318BufferedCollectionINS_7IndexedINS_6AnalogEEEZNS_16CountIndexParser13InvokeCountOfINS_11Group32Var1EEEvRKNS_12HeaderRecordEtRKNS_9NumParserERKN7openpal6RSliceERNS_12IAPDUHandlerEEUlRSE_jE_E5CountEv,"axG",@progbits,_ZNK8opendnp318BufferedCollectionINS_7IndexedINS_6AnalogEEEZNS_16CountIndexParser13InvokeCountOfINS_11Group32Var1EEEvRKNS_12HeaderRecordEtRKNS_9NumParserERKN7openpal6RSliceERNS_12IAPDUHandlerEEUlRSE_jE_E5CountEv,comdat
	.align 2
	.p2align 4,,15
	.weak	_ZNK8opendnp318BufferedCollectionINS_7IndexedINS_6AnalogEEEZNS_16CountIndexParser13InvokeCountOfINS_11Group32Var1EEEvRKNS_12HeaderRecordEtRKNS_9NumParserERKN7openpal6RSliceERNS_12IAPDUHandlerEEUlRSE_jE_E5CountEv
	.type	_ZNK8opendnp318BufferedCollectionINS_7IndexedINS_6AnalogEEEZNS_16CountIndexParser13InvokeCountOfINS_11Group32Var1EEEvRKNS_12HeaderRecordEtRKNS_9NumParserERKN7openpal6RSliceERNS_12IAPDUHandlerEEUlRSE_jE_E5CountEv, @function
_ZNK8opendnp318BufferedCollectionINS_7IndexedINS_6AnalogEEEZNS_16CountIndexParser13InvokeCountOfINS_11Group32Var1EEEvRKNS_12HeaderRecordEtRKNS_9NumParserERKN7openpal6RSliceERNS_12IAPDUHandlerEEUlRSE_jE_E5CountEv:
.LFB3928:
	.cfi_startproc
	movq	24(%rdi), %rax
	ret
	.cfi_endproc
.LFE3928:
	.size	_ZNK8opendnp318BufferedCollectionINS_7IndexedINS_6AnalogEEEZNS_16CountIndexParser13InvokeCountOfINS_11Group32Var1EEEvRKNS_12HeaderRecordEtRKNS_9NumParserERKN7openpal6RSliceERNS_12IAPDUHandlerEEUlRSE_jE_E5CountEv, .-_ZNK8opendnp318BufferedCollectionINS_7IndexedINS_6AnalogEEEZNS_16CountIndexParser13InvokeCountOfINS_11Group32Var1EEEvRKNS_12HeaderRecordEtRKNS_9NumParserERKN7openpal6RSliceERNS_12IAPDUHandlerEEUlRSE_jE_E5CountEv
	.section	.text._ZNK8opendnp318BufferedCollectionINS_7IndexedINS_13FrozenCounterEEEZNS_16CountIndexParser13InvokeCountOfINS_11Group23Var6EEEvRKNS_12HeaderRecordEtRKNS_9NumParserERKN7openpal6RSliceERNS_12IAPDUHandlerEEUlRSE_jE_E5CountEv,"axG",@progbits,_ZNK8opendnp318BufferedCollectionINS_7IndexedINS_13FrozenCounterEEEZNS_16CountIndexParser13InvokeCountOfINS_11Group23Var6EEEvRKNS_12HeaderRecordEtRKNS_9NumParserERKN7openpal6RSliceERNS_12IAPDUHandlerEEUlRSE_jE_E5CountEv,comdat
	.align 2
	.p2align 4,,15
	.weak	_ZNK8opendnp318BufferedCollectionINS_7IndexedINS_13FrozenCounterEEEZNS_16CountIndexParser13InvokeCountOfINS_11Group23Var6EEEvRKNS_12HeaderRecordEtRKNS_9NumParserERKN7openpal6RSliceERNS_12IAPDUHandlerEEUlRSE_jE_E5CountEv
	.type	_ZNK8opendnp318BufferedCollectionINS_7IndexedINS_13FrozenCounterEEEZNS_16CountIndexParser13InvokeCountOfINS_11Group23Var6EEEvRKNS_12HeaderRecordEtRKNS_9NumParserERKN7openpal6RSliceERNS_12IAPDUHandlerEEUlRSE_jE_E5CountEv, @function
_ZNK8opendnp318BufferedCollectionINS_7IndexedINS_13FrozenCounterEEEZNS_16CountIndexParser13InvokeCountOfINS_11Group23Var6EEEvRKNS_12HeaderRecordEtRKNS_9NumParserERKN7openpal6RSliceERNS_12IAPDUHandlerEEUlRSE_jE_E5CountEv:
.LFB3930:
	.cfi_startproc
	movq	24(%rdi), %rax
	ret
	.cfi_endproc
.LFE3930:
	.size	_ZNK8opendnp318BufferedCollectionINS_7IndexedINS_13FrozenCounterEEEZNS_16CountIndexParser13InvokeCountOfINS_11Group23Var6EEEvRKNS_12HeaderRecordEtRKNS_9NumParserERKN7openpal6RSliceERNS_12IAPDUHandlerEEUlRSE_jE_E5CountEv, .-_ZNK8opendnp318BufferedCollectionINS_7IndexedINS_13FrozenCounterEEEZNS_16CountIndexParser13InvokeCountOfINS_11Group23Var6EEEvRKNS_12HeaderRecordEtRKNS_9NumParserERKN7openpal6RSliceERNS_12IAPDUHandlerEEUlRSE_jE_E5CountEv
	.section	.text._ZNK8opendnp318BufferedCollectionINS_7IndexedINS_13FrozenCounterEEEZNS_16CountIndexParser13InvokeCountOfINS_11Group23Var5EEEvRKNS_12HeaderRecordEtRKNS_9NumParserERKN7openpal6RSliceERNS_12IAPDUHandlerEEUlRSE_jE_E5CountEv,"axG",@progbits,_ZNK8opendnp318BufferedCollectionINS_7IndexedINS_13FrozenCounterEEEZNS_16CountIndexParser13InvokeCountOfINS_11Group23Var5EEEvRKNS_12HeaderRecordEtRKNS_9NumParserERKN7openpal6RSliceERNS_12IAPDUHandlerEEUlRSE_jE_E5CountEv,comdat
	.align 2
	.p2align 4,,15
	.weak	_ZNK8opendnp318BufferedCollectionINS_7IndexedINS_13FrozenCounterEEEZNS_16CountIndexParser13InvokeCountOfINS_11Group23Var5EEEvRKNS_12HeaderRecordEtRKNS_9NumParserERKN7openpal6RSliceERNS_12IAPDUHandlerEEUlRSE_jE_E5CountEv
	.type	_ZNK8opendnp318BufferedCollectionINS_7IndexedINS_13FrozenCounterEEEZNS_16CountIndexParser13InvokeCountOfINS_11Group23Var5EEEvRKNS_12HeaderRecordEtRKNS_9NumParserERKN7openpal6RSliceERNS_12IAPDUHandlerEEUlRSE_jE_E5CountEv, @function
_ZNK8opendnp318BufferedCollectionINS_7IndexedINS_13FrozenCounterEEEZNS_16CountIndexParser13InvokeCountOfINS_11Group23Var5EEEvRKNS_12HeaderRecordEtRKNS_9NumParserERKN7openpal6RSliceERNS_12IAPDUHandlerEEUlRSE_jE_E5CountEv:
.LFB3932:
	.cfi_startproc
	movq	24(%rdi), %rax
	ret
	.cfi_endproc
.LFE3932:
	.size	_ZNK8opendnp318BufferedCollectionINS_7IndexedINS_13FrozenCounterEEEZNS_16CountIndexParser13InvokeCountOfINS_11Group23Var5EEEvRKNS_12HeaderRecordEtRKNS_9NumParserERKN7openpal6RSliceERNS_12IAPDUHandlerEEUlRSE_jE_E5CountEv, .-_ZNK8opendnp318BufferedCollectionINS_7IndexedINS_13FrozenCounterEEEZNS_16CountIndexParser13InvokeCountOfINS_11Group23Var5EEEvRKNS_12HeaderRecordEtRKNS_9NumParserERKN7openpal6RSliceERNS_12IAPDUHandlerEEUlRSE_jE_E5CountEv
	.section	.text._ZNK8opendnp318BufferedCollectionINS_7IndexedINS_13FrozenCounterEEEZNS_16CountIndexParser13InvokeCountOfINS_11Group23Var2EEEvRKNS_12HeaderRecordEtRKNS_9NumParserERKN7openpal6RSliceERNS_12IAPDUHandlerEEUlRSE_jE_E5CountEv,"axG",@progbits,_ZNK8opendnp318BufferedCollectionINS_7IndexedINS_13FrozenCounterEEEZNS_16CountIndexParser13InvokeCountOfINS_11Group23Var2EEEvRKNS_12HeaderRecordEtRKNS_9NumParserERKN7openpal6RSliceERNS_12IAPDUHandlerEEUlRSE_jE_E5CountEv,comdat
	.align 2
	.p2align 4,,15
	.weak	_ZNK8opendnp318BufferedCollectionINS_7IndexedINS_13FrozenCounterEEEZNS_16CountIndexParser13InvokeCountOfINS_11Group23Var2EEEvRKNS_12HeaderRecordEtRKNS_9NumParserERKN7openpal6RSliceERNS_12IAPDUHandlerEEUlRSE_jE_E5CountEv
	.type	_ZNK8opendnp318BufferedCollectionINS_7IndexedINS_13FrozenCounterEEEZNS_16CountIndexParser13InvokeCountOfINS_11Group23Var2EEEvRKNS_12HeaderRecordEtRKNS_9NumParserERKN7openpal6RSliceERNS_12IAPDUHandlerEEUlRSE_jE_E5CountEv, @function
_ZNK8opendnp318BufferedCollectionINS_7IndexedINS_13FrozenCounterEEEZNS_16CountIndexParser13InvokeCountOfINS_11Group23Var2EEEvRKNS_12HeaderRecordEtRKNS_9NumParserERKN7openpal6RSliceERNS_12IAPDUHandlerEEUlRSE_jE_E5CountEv:
.LFB3934:
	.cfi_startproc
	movq	24(%rdi), %rax
	ret
	.cfi_endproc
.LFE3934:
	.size	_ZNK8opendnp318BufferedCollectionINS_7IndexedINS_13FrozenCounterEEEZNS_16CountIndexParser13InvokeCountOfINS_11Group23Var2EEEvRKNS_12HeaderRecordEtRKNS_9NumParserERKN7openpal6RSliceERNS_12IAPDUHandlerEEUlRSE_jE_E5CountEv, .-_ZNK8opendnp318BufferedCollectionINS_7IndexedINS_13FrozenCounterEEEZNS_16CountIndexParser13InvokeCountOfINS_11Group23Var2EEEvRKNS_12HeaderRecordEtRKNS_9NumParserERKN7openpal6RSliceERNS_12IAPDUHandlerEEUlRSE_jE_E5CountEv
	.section	.text._ZNK8opendnp318BufferedCollectionINS_7IndexedINS_13FrozenCounterEEEZNS_16CountIndexParser13InvokeCountOfINS_11Group23Var1EEEvRKNS_12HeaderRecordEtRKNS_9NumParserERKN7openpal6RSliceERNS_12IAPDUHandlerEEUlRSE_jE_E5CountEv,"axG",@progbits,_ZNK8opendnp318BufferedCollectionINS_7IndexedINS_13FrozenCounterEEEZNS_16CountIndexParser13InvokeCountOfINS_11Group23Var1EEEvRKNS_12HeaderRecordEtRKNS_9NumParserERKN7openpal6RSliceERNS_12IAPDUHandlerEEUlRSE_jE_E5CountEv,comdat
	.align 2
	.p2align 4,,15
	.weak	_ZNK8opendnp318BufferedCollectionINS_7IndexedINS_13FrozenCounterEEEZNS_16CountIndexParser13InvokeCountOfINS_11Group23Var1EEEvRKNS_12HeaderRecordEtRKNS_9NumParserERKN7openpal6RSliceERNS_12IAPDUHandlerEEUlRSE_jE_E5CountEv
	.type	_ZNK8opendnp318BufferedCollectionINS_7IndexedINS_13FrozenCounterEEEZNS_16CountIndexParser13InvokeCountOfINS_11Group23Var1EEEvRKNS_12HeaderRecordEtRKNS_9NumParserERKN7openpal6RSliceERNS_12IAPDUHandlerEEUlRSE_jE_E5CountEv, @function
_ZNK8opendnp318BufferedCollectionINS_7IndexedINS_13FrozenCounterEEEZNS_16CountIndexParser13InvokeCountOfINS_11Group23Var1EEEvRKNS_12HeaderRecordEtRKNS_9NumParserERKN7openpal6RSliceERNS_12IAPDUHandlerEEUlRSE_jE_E5CountEv:
.LFB3936:
	.cfi_startproc
	movq	24(%rdi), %rax
	ret
	.cfi_endproc
.LFE3936:
	.size	_ZNK8opendnp318BufferedCollectionINS_7IndexedINS_13FrozenCounterEEEZNS_16CountIndexParser13InvokeCountOfINS_11Group23Var1EEEvRKNS_12HeaderRecordEtRKNS_9NumParserERKN7openpal6RSliceERNS_12IAPDUHandlerEEUlRSE_jE_E5CountEv, .-_ZNK8opendnp318BufferedCollectionINS_7IndexedINS_13FrozenCounterEEEZNS_16CountIndexParser13InvokeCountOfINS_11Group23Var1EEEvRKNS_12HeaderRecordEtRKNS_9NumParserERKN7openpal6RSliceERNS_12IAPDUHandlerEEUlRSE_jE_E5CountEv
	.section	.text._ZNK8opendnp318BufferedCollectionINS_7IndexedINS_7CounterEEEZNS_16CountIndexParser13InvokeCountOfINS_11Group22Var6EEEvRKNS_12HeaderRecordEtRKNS_9NumParserERKN7openpal6RSliceERNS_12IAPDUHandlerEEUlRSE_jE_E5CountEv,"axG",@progbits,_ZNK8opendnp318BufferedCollectionINS_7IndexedINS_7CounterEEEZNS_16CountIndexParser13InvokeCountOfINS_11Group22Var6EEEvRKNS_12HeaderRecordEtRKNS_9NumParserERKN7openpal6RSliceERNS_12IAPDUHandlerEEUlRSE_jE_E5CountEv,comdat
	.align 2
	.p2align 4,,15
	.weak	_ZNK8opendnp318BufferedCollectionINS_7IndexedINS_7CounterEEEZNS_16CountIndexParser13InvokeCountOfINS_11Group22Var6EEEvRKNS_12HeaderRecordEtRKNS_9NumParserERKN7openpal6RSliceERNS_12IAPDUHandlerEEUlRSE_jE_E5CountEv
	.type	_ZNK8opendnp318BufferedCollectionINS_7IndexedINS_7CounterEEEZNS_16CountIndexParser13InvokeCountOfINS_11Group22Var6EEEvRKNS_12HeaderRecordEtRKNS_9NumParserERKN7openpal6RSliceERNS_12IAPDUHandlerEEUlRSE_jE_E5CountEv, @function
_ZNK8opendnp318BufferedCollectionINS_7IndexedINS_7CounterEEEZNS_16CountIndexParser13InvokeCountOfINS_11Group22Var6EEEvRKNS_12HeaderRecordEtRKNS_9NumParserERKN7openpal6RSliceERNS_12IAPDUHandlerEEUlRSE_jE_E5CountEv:
.LFB3938:
	.cfi_startproc
	movq	24(%rdi), %rax
	ret
	.cfi_endproc
.LFE3938:
	.size	_ZNK8opendnp318BufferedCollectionINS_7IndexedINS_7CounterEEEZNS_16CountIndexParser13InvokeCountOfINS_11Group22Var6EEEvRKNS_12HeaderRecordEtRKNS_9NumParserERKN7openpal6RSliceERNS_12IAPDUHandlerEEUlRSE_jE_E5CountEv, .-_ZNK8opendnp318BufferedCollectionINS_7IndexedINS_7CounterEEEZNS_16CountIndexParser13InvokeCountOfINS_11Group22Var6EEEvRKNS_12HeaderRecordEtRKNS_9NumParserERKN7openpal6RSliceERNS_12IAPDUHandlerEEUlRSE_jE_E5CountEv
	.section	.text._ZNK8opendnp318BufferedCollectionINS_7IndexedINS_7CounterEEEZNS_16CountIndexParser13InvokeCountOfINS_11Group22Var5EEEvRKNS_12HeaderRecordEtRKNS_9NumParserERKN7openpal6RSliceERNS_12IAPDUHandlerEEUlRSE_jE_E5CountEv,"axG",@progbits,_ZNK8opendnp318BufferedCollectionINS_7IndexedINS_7CounterEEEZNS_16CountIndexParser13InvokeCountOfINS_11Group22Var5EEEvRKNS_12HeaderRecordEtRKNS_9NumParserERKN7openpal6RSliceERNS_12IAPDUHandlerEEUlRSE_jE_E5CountEv,comdat
	.align 2
	.p2align 4,,15
	.weak	_ZNK8opendnp318BufferedCollectionINS_7IndexedINS_7CounterEEEZNS_16CountIndexParser13InvokeCountOfINS_11Group22Var5EEEvRKNS_12HeaderRecordEtRKNS_9NumParserERKN7openpal6RSliceERNS_12IAPDUHandlerEEUlRSE_jE_E5CountEv
	.type	_ZNK8opendnp318BufferedCollectionINS_7IndexedINS_7CounterEEEZNS_16CountIndexParser13InvokeCountOfINS_11Group22Var5EEEvRKNS_12HeaderRecordEtRKNS_9NumParserERKN7openpal6RSliceERNS_12IAPDUHandlerEEUlRSE_jE_E5CountEv, @function
_ZNK8opendnp318BufferedCollectionINS_7IndexedINS_7CounterEEEZNS_16CountIndexParser13InvokeCountOfINS_11Group22Var5EEEvRKNS_12HeaderRecordEtRKNS_9NumParserERKN7openpal6RSliceERNS_12IAPDUHandlerEEUlRSE_jE_E5CountEv:
.LFB3940:
	.cfi_startproc
	movq	24(%rdi), %rax
	ret
	.cfi_endproc
.LFE3940:
	.size	_ZNK8opendnp318BufferedCollectionINS_7IndexedINS_7CounterEEEZNS_16CountIndexParser13InvokeCountOfINS_11Group22Var5EEEvRKNS_12HeaderRecordEtRKNS_9NumParserERKN7openpal6RSliceERNS_12IAPDUHandlerEEUlRSE_jE_E5CountEv, .-_ZNK8opendnp318BufferedCollectionINS_7IndexedINS_7CounterEEEZNS_16CountIndexParser13InvokeCountOfINS_11Group22Var5EEEvRKNS_12HeaderRecordEtRKNS_9NumParserERKN7openpal6RSliceERNS_12IAPDUHandlerEEUlRSE_jE_E5CountEv
	.section	.text._ZNK8opendnp318BufferedCollectionINS_7IndexedINS_7CounterEEEZNS_16CountIndexParser13InvokeCountOfINS_11Group22Var2EEEvRKNS_12HeaderRecordEtRKNS_9NumParserERKN7openpal6RSliceERNS_12IAPDUHandlerEEUlRSE_jE_E5CountEv,"axG",@progbits,_ZNK8opendnp318BufferedCollectionINS_7IndexedINS_7CounterEEEZNS_16CountIndexParser13InvokeCountOfINS_11Group22Var2EEEvRKNS_12HeaderRecordEtRKNS_9NumParserERKN7openpal6RSliceERNS_12IAPDUHandlerEEUlRSE_jE_E5CountEv,comdat
	.align 2
	.p2align 4,,15
	.weak	_ZNK8opendnp318BufferedCollectionINS_7IndexedINS_7CounterEEEZNS_16CountIndexParser13InvokeCountOfINS_11Group22Var2EEEvRKNS_12HeaderRecordEtRKNS_9NumParserERKN7openpal6RSliceERNS_12IAPDUHandlerEEUlRSE_jE_E5CountEv
	.type	_ZNK8opendnp318BufferedCollectionINS_7IndexedINS_7CounterEEEZNS_16CountIndexParser13InvokeCountOfINS_11Group22Var2EEEvRKNS_12HeaderRecordEtRKNS_9NumParserERKN7openpal6RSliceERNS_12IAPDUHandlerEEUlRSE_jE_E5CountEv, @function
_ZNK8opendnp318BufferedCollectionINS_7IndexedINS_7CounterEEEZNS_16CountIndexParser13InvokeCountOfINS_11Group22Var2EEEvRKNS_12HeaderRecordEtRKNS_9NumParserERKN7openpal6RSliceERNS_12IAPDUHandlerEEUlRSE_jE_E5CountEv:
.LFB3942:
	.cfi_startproc
	movq	24(%rdi), %rax
	ret
	.cfi_endproc
.LFE3942:
	.size	_ZNK8opendnp318BufferedCollectionINS_7IndexedINS_7CounterEEEZNS_16CountIndexParser13InvokeCountOfINS_11Group22Var2EEEvRKNS_12HeaderRecordEtRKNS_9NumParserERKN7openpal6RSliceERNS_12IAPDUHandlerEEUlRSE_jE_E5CountEv, .-_ZNK8opendnp318BufferedCollectionINS_7IndexedINS_7CounterEEEZNS_16CountIndexParser13InvokeCountOfINS_11Group22Var2EEEvRKNS_12HeaderRecordEtRKNS_9NumParserERKN7openpal6RSliceERNS_12IAPDUHandlerEEUlRSE_jE_E5CountEv
	.section	.text._ZNK8opendnp318BufferedCollectionINS_7IndexedINS_7CounterEEEZNS_16CountIndexParser13InvokeCountOfINS_11Group22Var1EEEvRKNS_12HeaderRecordEtRKNS_9NumParserERKN7openpal6RSliceERNS_12IAPDUHandlerEEUlRSE_jE_E5CountEv,"axG",@progbits,_ZNK8opendnp318BufferedCollectionINS_7IndexedINS_7CounterEEEZNS_16CountIndexParser13InvokeCountOfINS_11Group22Var1EEEvRKNS_12HeaderRecordEtRKNS_9NumParserERKN7openpal6RSliceERNS_12IAPDUHandlerEEUlRSE_jE_E5CountEv,comdat
	.align 2
	.p2align 4,,15
	.weak	_ZNK8opendnp318BufferedCollectionINS_7IndexedINS_7CounterEEEZNS_16CountIndexParser13InvokeCountOfINS_11Group22Var1EEEvRKNS_12HeaderRecordEtRKNS_9NumParserERKN7openpal6RSliceERNS_12IAPDUHandlerEEUlRSE_jE_E5CountEv
	.type	_ZNK8opendnp318BufferedCollectionINS_7IndexedINS_7CounterEEEZNS_16CountIndexParser13InvokeCountOfINS_11Group22Var1EEEvRKNS_12HeaderRecordEtRKNS_9NumParserERKN7openpal6RSliceERNS_12IAPDUHandlerEEUlRSE_jE_E5CountEv, @function
_ZNK8opendnp318BufferedCollectionINS_7IndexedINS_7CounterEEEZNS_16CountIndexParser13InvokeCountOfINS_11Group22Var1EEEvRKNS_12HeaderRecordEtRKNS_9NumParserERKN7openpal6RSliceERNS_12IAPDUHandlerEEUlRSE_jE_E5CountEv:
.LFB3944:
	.cfi_startproc
	movq	24(%rdi), %rax
	ret
	.cfi_endproc
.LFE3944:
	.size	_ZNK8opendnp318BufferedCollectionINS_7IndexedINS_7CounterEEEZNS_16CountIndexParser13InvokeCountOfINS_11Group22Var1EEEvRKNS_12HeaderRecordEtRKNS_9NumParserERKN7openpal6RSliceERNS_12IAPDUHandlerEEUlRSE_jE_E5CountEv, .-_ZNK8opendnp318BufferedCollectionINS_7IndexedINS_7CounterEEEZNS_16CountIndexParser13InvokeCountOfINS_11Group22Var1EEEvRKNS_12HeaderRecordEtRKNS_9NumParserERKN7openpal6RSliceERNS_12IAPDUHandlerEEUlRSE_jE_E5CountEv
	.section	.text._ZNK8opendnp318BufferedCollectionINS_7IndexedINS_18BinaryCommandEventEEEZNS_16CountIndexParser13InvokeCountOfINS_11Group13Var2EEEvRKNS_12HeaderRecordEtRKNS_9NumParserERKN7openpal6RSliceERNS_12IAPDUHandlerEEUlRSE_jE_E5CountEv,"axG",@progbits,_ZNK8opendnp318BufferedCollectionINS_7IndexedINS_18BinaryCommandEventEEEZNS_16CountIndexParser13InvokeCountOfINS_11Group13Var2EEEvRKNS_12HeaderRecordEtRKNS_9NumParserERKN7openpal6RSliceERNS_12IAPDUHandlerEEUlRSE_jE_E5CountEv,comdat
	.align 2
	.p2align 4,,15
	.weak	_ZNK8opendnp318BufferedCollectionINS_7IndexedINS_18BinaryCommandEventEEEZNS_16CountIndexParser13InvokeCountOfINS_11Group13Var2EEEvRKNS_12HeaderRecordEtRKNS_9NumParserERKN7openpal6RSliceERNS_12IAPDUHandlerEEUlRSE_jE_E5CountEv
	.type	_ZNK8opendnp318BufferedCollectionINS_7IndexedINS_18BinaryCommandEventEEEZNS_16CountIndexParser13InvokeCountOfINS_11Group13Var2EEEvRKNS_12HeaderRecordEtRKNS_9NumParserERKN7openpal6RSliceERNS_12IAPDUHandlerEEUlRSE_jE_E5CountEv, @function
_ZNK8opendnp318BufferedCollectionINS_7IndexedINS_18BinaryCommandEventEEEZNS_16CountIndexParser13InvokeCountOfINS_11Group13Var2EEEvRKNS_12HeaderRecordEtRKNS_9NumParserERKN7openpal6RSliceERNS_12IAPDUHandlerEEUlRSE_jE_E5CountEv:
.LFB3946:
	.cfi_startproc
	movq	24(%rdi), %rax
	ret
	.cfi_endproc
.LFE3946:
	.size	_ZNK8opendnp318BufferedCollectionINS_7IndexedINS_18BinaryCommandEventEEEZNS_16CountIndexParser13InvokeCountOfINS_11Group13Var2EEEvRKNS_12HeaderRecordEtRKNS_9NumParserERKN7openpal6RSliceERNS_12IAPDUHandlerEEUlRSE_jE_E5CountEv, .-_ZNK8opendnp318BufferedCollectionINS_7IndexedINS_18BinaryCommandEventEEEZNS_16CountIndexParser13InvokeCountOfINS_11Group13Var2EEEvRKNS_12HeaderRecordEtRKNS_9NumParserERKN7openpal6RSliceERNS_12IAPDUHandlerEEUlRSE_jE_E5CountEv
	.section	.text._ZNK8opendnp318BufferedCollectionINS_7IndexedINS_18BinaryCommandEventEEEZNS_16CountIndexParser13InvokeCountOfINS_11Group13Var1EEEvRKNS_12HeaderRecordEtRKNS_9NumParserERKN7openpal6RSliceERNS_12IAPDUHandlerEEUlRSE_jE_E5CountEv,"axG",@progbits,_ZNK8opendnp318BufferedCollectionINS_7IndexedINS_18BinaryCommandEventEEEZNS_16CountIndexParser13InvokeCountOfINS_11Group13Var1EEEvRKNS_12HeaderRecordEtRKNS_9NumParserERKN7openpal6RSliceERNS_12IAPDUHandlerEEUlRSE_jE_E5CountEv,comdat
	.align 2
	.p2align 4,,15
	.weak	_ZNK8opendnp318BufferedCollectionINS_7IndexedINS_18BinaryCommandEventEEEZNS_16CountIndexParser13InvokeCountOfINS_11Group13Var1EEEvRKNS_12HeaderRecordEtRKNS_9NumParserERKN7openpal6RSliceERNS_12IAPDUHandlerEEUlRSE_jE_E5CountEv
	.type	_ZNK8opendnp318BufferedCollectionINS_7IndexedINS_18BinaryCommandEventEEEZNS_16CountIndexParser13InvokeCountOfINS_11Group13Var1EEEvRKNS_12HeaderRecordEtRKNS_9NumParserERKN7openpal6RSliceERNS_12IAPDUHandlerEEUlRSE_jE_E5CountEv, @function
_ZNK8opendnp318BufferedCollectionINS_7IndexedINS_18BinaryCommandEventEEEZNS_16CountIndexParser13InvokeCountOfINS_11Group13Var1EEEvRKNS_12HeaderRecordEtRKNS_9NumParserERKN7openpal6RSliceERNS_12IAPDUHandlerEEUlRSE_jE_E5CountEv:
.LFB3948:
	.cfi_startproc
	movq	24(%rdi), %rax
	ret
	.cfi_endproc
.LFE3948:
	.size	_ZNK8opendnp318BufferedCollectionINS_7IndexedINS_18BinaryCommandEventEEEZNS_16CountIndexParser13InvokeCountOfINS_11Group13Var1EEEvRKNS_12HeaderRecordEtRKNS_9NumParserERKN7openpal6RSliceERNS_12IAPDUHandlerEEUlRSE_jE_E5CountEv, .-_ZNK8opendnp318BufferedCollectionINS_7IndexedINS_18BinaryCommandEventEEEZNS_16CountIndexParser13InvokeCountOfINS_11Group13Var1EEEvRKNS_12HeaderRecordEtRKNS_9NumParserERKN7openpal6RSliceERNS_12IAPDUHandlerEEUlRSE_jE_E5CountEv
	.section	.text._ZNK8opendnp318BufferedCollectionINS_7IndexedINS_23ControlRelayOutputBlockEEEZNS_16CountIndexParser13InvokeCountOfINS_11Group12Var1EEEvRKNS_12HeaderRecordEtRKNS_9NumParserERKN7openpal6RSliceERNS_12IAPDUHandlerEEUlRSE_jE_E5CountEv,"axG",@progbits,_ZNK8opendnp318BufferedCollectionINS_7IndexedINS_23ControlRelayOutputBlockEEEZNS_16CountIndexParser13InvokeCountOfINS_11Group12Var1EEEvRKNS_12HeaderRecordEtRKNS_9NumParserERKN7openpal6RSliceERNS_12IAPDUHandlerEEUlRSE_jE_E5CountEv,comdat
	.align 2
	.p2align 4,,15
	.weak	_ZNK8opendnp318BufferedCollectionINS_7IndexedINS_23ControlRelayOutputBlockEEEZNS_16CountIndexParser13InvokeCountOfINS_11Group12Var1EEEvRKNS_12HeaderRecordEtRKNS_9NumParserERKN7openpal6RSliceERNS_12IAPDUHandlerEEUlRSE_jE_E5CountEv
	.type	_ZNK8opendnp318BufferedCollectionINS_7IndexedINS_23ControlRelayOutputBlockEEEZNS_16CountIndexParser13InvokeCountOfINS_11Group12Var1EEEvRKNS_12HeaderRecordEtRKNS_9NumParserERKN7openpal6RSliceERNS_12IAPDUHandlerEEUlRSE_jE_E5CountEv, @function
_ZNK8opendnp318BufferedCollectionINS_7IndexedINS_23ControlRelayOutputBlockEEEZNS_16CountIndexParser13InvokeCountOfINS_11Group12Var1EEEvRKNS_12HeaderRecordEtRKNS_9NumParserERKN7openpal6RSliceERNS_12IAPDUHandlerEEUlRSE_jE_E5CountEv:
.LFB3950:
	.cfi_startproc
	movq	24(%rdi), %rax
	ret
	.cfi_endproc
.LFE3950:
	.size	_ZNK8opendnp318BufferedCollectionINS_7IndexedINS_23ControlRelayOutputBlockEEEZNS_16CountIndexParser13InvokeCountOfINS_11Group12Var1EEEvRKNS_12HeaderRecordEtRKNS_9NumParserERKN7openpal6RSliceERNS_12IAPDUHandlerEEUlRSE_jE_E5CountEv, .-_ZNK8opendnp318BufferedCollectionINS_7IndexedINS_23ControlRelayOutputBlockEEEZNS_16CountIndexParser13InvokeCountOfINS_11Group12Var1EEEvRKNS_12HeaderRecordEtRKNS_9NumParserERKN7openpal6RSliceERNS_12IAPDUHandlerEEUlRSE_jE_E5CountEv
	.section	.text._ZNK8opendnp318BufferedCollectionINS_7IndexedINS_18BinaryOutputStatusEEEZNS_16CountIndexParser13InvokeCountOfINS_11Group11Var2EEEvRKNS_12HeaderRecordEtRKNS_9NumParserERKN7openpal6RSliceERNS_12IAPDUHandlerEEUlRSE_jE_E5CountEv,"axG",@progbits,_ZNK8opendnp318BufferedCollectionINS_7IndexedINS_18BinaryOutputStatusEEEZNS_16CountIndexParser13InvokeCountOfINS_11Group11Var2EEEvRKNS_12HeaderRecordEtRKNS_9NumParserERKN7openpal6RSliceERNS_12IAPDUHandlerEEUlRSE_jE_E5CountEv,comdat
	.align 2
	.p2align 4,,15
	.weak	_ZNK8opendnp318BufferedCollectionINS_7IndexedINS_18BinaryOutputStatusEEEZNS_16CountIndexParser13InvokeCountOfINS_11Group11Var2EEEvRKNS_12HeaderRecordEtRKNS_9NumParserERKN7openpal6RSliceERNS_12IAPDUHandlerEEUlRSE_jE_E5CountEv
	.type	_ZNK8opendnp318BufferedCollectionINS_7IndexedINS_18BinaryOutputStatusEEEZNS_16CountIndexParser13InvokeCountOfINS_11Group11Var2EEEvRKNS_12HeaderRecordEtRKNS_9NumParserERKN7openpal6RSliceERNS_12IAPDUHandlerEEUlRSE_jE_E5CountEv, @function
_ZNK8opendnp318BufferedCollectionINS_7IndexedINS_18BinaryOutputStatusEEEZNS_16CountIndexParser13InvokeCountOfINS_11Group11Var2EEEvRKNS_12HeaderRecordEtRKNS_9NumParserERKN7openpal6RSliceERNS_12IAPDUHandlerEEUlRSE_jE_E5CountEv:
.LFB3952:
	.cfi_startproc
	movq	24(%rdi), %rax
	ret
	.cfi_endproc
.LFE3952:
	.size	_ZNK8opendnp318BufferedCollectionINS_7IndexedINS_18BinaryOutputStatusEEEZNS_16CountIndexParser13InvokeCountOfINS_11Group11Var2EEEvRKNS_12HeaderRecordEtRKNS_9NumParserERKN7openpal6RSliceERNS_12IAPDUHandlerEEUlRSE_jE_E5CountEv, .-_ZNK8opendnp318BufferedCollectionINS_7IndexedINS_18BinaryOutputStatusEEEZNS_16CountIndexParser13InvokeCountOfINS_11Group11Var2EEEvRKNS_12HeaderRecordEtRKNS_9NumParserERKN7openpal6RSliceERNS_12IAPDUHandlerEEUlRSE_jE_E5CountEv
	.section	.text._ZNK8opendnp318BufferedCollectionINS_7IndexedINS_18BinaryOutputStatusEEEZNS_16CountIndexParser13InvokeCountOfINS_11Group11Var1EEEvRKNS_12HeaderRecordEtRKNS_9NumParserERKN7openpal6RSliceERNS_12IAPDUHandlerEEUlRSE_jE_E5CountEv,"axG",@progbits,_ZNK8opendnp318BufferedCollectionINS_7IndexedINS_18BinaryOutputStatusEEEZNS_16CountIndexParser13InvokeCountOfINS_11Group11Var1EEEvRKNS_12HeaderRecordEtRKNS_9NumParserERKN7openpal6RSliceERNS_12IAPDUHandlerEEUlRSE_jE_E5CountEv,comdat
	.align 2
	.p2align 4,,15
	.weak	_ZNK8opendnp318BufferedCollectionINS_7IndexedINS_18BinaryOutputStatusEEEZNS_16CountIndexParser13InvokeCountOfINS_11Group11Var1EEEvRKNS_12HeaderRecordEtRKNS_9NumParserERKN7openpal6RSliceERNS_12IAPDUHandlerEEUlRSE_jE_E5CountEv
	.type	_ZNK8opendnp318BufferedCollectionINS_7IndexedINS_18BinaryOutputStatusEEEZNS_16CountIndexParser13InvokeCountOfINS_11Group11Var1EEEvRKNS_12HeaderRecordEtRKNS_9NumParserERKN7openpal6RSliceERNS_12IAPDUHandlerEEUlRSE_jE_E5CountEv, @function
_ZNK8opendnp318BufferedCollectionINS_7IndexedINS_18BinaryOutputStatusEEEZNS_16CountIndexParser13InvokeCountOfINS_11Group11Var1EEEvRKNS_12HeaderRecordEtRKNS_9NumParserERKN7openpal6RSliceERNS_12IAPDUHandlerEEUlRSE_jE_E5CountEv:
.LFB3954:
	.cfi_startproc
	movq	24(%rdi), %rax
	ret
	.cfi_endproc
.LFE3954:
	.size	_ZNK8opendnp318BufferedCollectionINS_7IndexedINS_18BinaryOutputStatusEEEZNS_16CountIndexParser13InvokeCountOfINS_11Group11Var1EEEvRKNS_12HeaderRecordEtRKNS_9NumParserERKN7openpal6RSliceERNS_12IAPDUHandlerEEUlRSE_jE_E5CountEv, .-_ZNK8opendnp318BufferedCollectionINS_7IndexedINS_18BinaryOutputStatusEEEZNS_16CountIndexParser13InvokeCountOfINS_11Group11Var1EEEvRKNS_12HeaderRecordEtRKNS_9NumParserERKN7openpal6RSliceERNS_12IAPDUHandlerEEUlRSE_jE_E5CountEv
	.section	.text._ZNK8opendnp318BufferedCollectionINS_7IndexedINS_15DoubleBitBinaryEEEZNS_16CountIndexParser13InvokeCountOfINS_10Group4Var3EEEvRKNS_12HeaderRecordEtRKNS_9NumParserERKN7openpal6RSliceERNS_12IAPDUHandlerEEUlRSE_jE_E5CountEv,"axG",@progbits,_ZNK8opendnp318BufferedCollectionINS_7IndexedINS_15DoubleBitBinaryEEEZNS_16CountIndexParser13InvokeCountOfINS_10Group4Var3EEEvRKNS_12HeaderRecordEtRKNS_9NumParserERKN7openpal6RSliceERNS_12IAPDUHandlerEEUlRSE_jE_E5CountEv,comdat
	.align 2
	.p2align 4,,15
	.weak	_ZNK8opendnp318BufferedCollectionINS_7IndexedINS_15DoubleBitBinaryEEEZNS_16CountIndexParser13InvokeCountOfINS_10Group4Var3EEEvRKNS_12HeaderRecordEtRKNS_9NumParserERKN7openpal6RSliceERNS_12IAPDUHandlerEEUlRSE_jE_E5CountEv
	.type	_ZNK8opendnp318BufferedCollectionINS_7IndexedINS_15DoubleBitBinaryEEEZNS_16CountIndexParser13InvokeCountOfINS_10Group4Var3EEEvRKNS_12HeaderRecordEtRKNS_9NumParserERKN7openpal6RSliceERNS_12IAPDUHandlerEEUlRSE_jE_E5CountEv, @function
_ZNK8opendnp318BufferedCollectionINS_7IndexedINS_15DoubleBitBinaryEEEZNS_16CountIndexParser13InvokeCountOfINS_10Group4Var3EEEvRKNS_12HeaderRecordEtRKNS_9NumParserERKN7openpal6RSliceERNS_12IAPDUHandlerEEUlRSE_jE_E5CountEv:
.LFB3956:
	.cfi_startproc
	movq	24(%rdi), %rax
	ret
	.cfi_endproc
.LFE3956:
	.size	_ZNK8opendnp318BufferedCollectionINS_7IndexedINS_15DoubleBitBinaryEEEZNS_16CountIndexParser13InvokeCountOfINS_10Group4Var3EEEvRKNS_12HeaderRecordEtRKNS_9NumParserERKN7openpal6RSliceERNS_12IAPDUHandlerEEUlRSE_jE_E5CountEv, .-_ZNK8opendnp318BufferedCollectionINS_7IndexedINS_15DoubleBitBinaryEEEZNS_16CountIndexParser13InvokeCountOfINS_10Group4Var3EEEvRKNS_12HeaderRecordEtRKNS_9NumParserERKN7openpal6RSliceERNS_12IAPDUHandlerEEUlRSE_jE_E5CountEv
	.section	.text._ZNK8opendnp318BufferedCollectionINS_7IndexedINS_15DoubleBitBinaryEEEZNS_16CountIndexParser13InvokeCountOfINS_10Group4Var2EEEvRKNS_12HeaderRecordEtRKNS_9NumParserERKN7openpal6RSliceERNS_12IAPDUHandlerEEUlRSE_jE_E5CountEv,"axG",@progbits,_ZNK8opendnp318BufferedCollectionINS_7IndexedINS_15DoubleBitBinaryEEEZNS_16CountIndexParser13InvokeCountOfINS_10Group4Var2EEEvRKNS_12HeaderRecordEtRKNS_9NumParserERKN7openpal6RSliceERNS_12IAPDUHandlerEEUlRSE_jE_E5CountEv,comdat
	.align 2
	.p2align 4,,15
	.weak	_ZNK8opendnp318BufferedCollectionINS_7IndexedINS_15DoubleBitBinaryEEEZNS_16CountIndexParser13InvokeCountOfINS_10Group4Var2EEEvRKNS_12HeaderRecordEtRKNS_9NumParserERKN7openpal6RSliceERNS_12IAPDUHandlerEEUlRSE_jE_E5CountEv
	.type	_ZNK8opendnp318BufferedCollectionINS_7IndexedINS_15DoubleBitBinaryEEEZNS_16CountIndexParser13InvokeCountOfINS_10Group4Var2EEEvRKNS_12HeaderRecordEtRKNS_9NumParserERKN7openpal6RSliceERNS_12IAPDUHandlerEEUlRSE_jE_E5CountEv, @function
_ZNK8opendnp318BufferedCollectionINS_7IndexedINS_15DoubleBitBinaryEEEZNS_16CountIndexParser13InvokeCountOfINS_10Group4Var2EEEvRKNS_12HeaderRecordEtRKNS_9NumParserERKN7openpal6RSliceERNS_12IAPDUHandlerEEUlRSE_jE_E5CountEv:
.LFB3958:
	.cfi_startproc
	movq	24(%rdi), %rax
	ret
	.cfi_endproc
.LFE3958:
	.size	_ZNK8opendnp318BufferedCollectionINS_7IndexedINS_15DoubleBitBinaryEEEZNS_16CountIndexParser13InvokeCountOfINS_10Group4Var2EEEvRKNS_12HeaderRecordEtRKNS_9NumParserERKN7openpal6RSliceERNS_12IAPDUHandlerEEUlRSE_jE_E5CountEv, .-_ZNK8opendnp318BufferedCollectionINS_7IndexedINS_15DoubleBitBinaryEEEZNS_16CountIndexParser13InvokeCountOfINS_10Group4Var2EEEvRKNS_12HeaderRecordEtRKNS_9NumParserERKN7openpal6RSliceERNS_12IAPDUHandlerEEUlRSE_jE_E5CountEv
	.section	.text._ZNK8opendnp318BufferedCollectionINS_7IndexedINS_15DoubleBitBinaryEEEZNS_16CountIndexParser13InvokeCountOfINS_10Group4Var1EEEvRKNS_12HeaderRecordEtRKNS_9NumParserERKN7openpal6RSliceERNS_12IAPDUHandlerEEUlRSE_jE_E5CountEv,"axG",@progbits,_ZNK8opendnp318BufferedCollectionINS_7IndexedINS_15DoubleBitBinaryEEEZNS_16CountIndexParser13InvokeCountOfINS_10Group4Var1EEEvRKNS_12HeaderRecordEtRKNS_9NumParserERKN7openpal6RSliceERNS_12IAPDUHandlerEEUlRSE_jE_E5CountEv,comdat
	.align 2
	.p2align 4,,15
	.weak	_ZNK8opendnp318BufferedCollectionINS_7IndexedINS_15DoubleBitBinaryEEEZNS_16CountIndexParser13InvokeCountOfINS_10Group4Var1EEEvRKNS_12HeaderRecordEtRKNS_9NumParserERKN7openpal6RSliceERNS_12IAPDUHandlerEEUlRSE_jE_E5CountEv
	.type	_ZNK8opendnp318BufferedCollectionINS_7IndexedINS_15DoubleBitBinaryEEEZNS_16CountIndexParser13InvokeCountOfINS_10Group4Var1EEEvRKNS_12HeaderRecordEtRKNS_9NumParserERKN7openpal6RSliceERNS_12IAPDUHandlerEEUlRSE_jE_E5CountEv, @function
_ZNK8opendnp318BufferedCollectionINS_7IndexedINS_15DoubleBitBinaryEEEZNS_16CountIndexParser13InvokeCountOfINS_10Group4Var1EEEvRKNS_12HeaderRecordEtRKNS_9NumParserERKN7openpal6RSliceERNS_12IAPDUHandlerEEUlRSE_jE_E5CountEv:
.LFB3960:
	.cfi_startproc
	movq	24(%rdi), %rax
	ret
	.cfi_endproc
.LFE3960:
	.size	_ZNK8opendnp318BufferedCollectionINS_7IndexedINS_15DoubleBitBinaryEEEZNS_16CountIndexParser13InvokeCountOfINS_10Group4Var1EEEvRKNS_12HeaderRecordEtRKNS_9NumParserERKN7openpal6RSliceERNS_12IAPDUHandlerEEUlRSE_jE_E5CountEv, .-_ZNK8opendnp318BufferedCollectionINS_7IndexedINS_15DoubleBitBinaryEEEZNS_16CountIndexParser13InvokeCountOfINS_10Group4Var1EEEvRKNS_12HeaderRecordEtRKNS_9NumParserERKN7openpal6RSliceERNS_12IAPDUHandlerEEUlRSE_jE_E5CountEv
	.section	.text._ZNK8opendnp318BufferedCollectionINS_7IndexedINS_6BinaryEEEZNS_16CountIndexParser13InvokeCountOfINS_10Group2Var3EEEvRKNS_12HeaderRecordEtRKNS_9NumParserERKN7openpal6RSliceERNS_12IAPDUHandlerEEUlRSE_jE_E5CountEv,"axG",@progbits,_ZNK8opendnp318BufferedCollectionINS_7IndexedINS_6BinaryEEEZNS_16CountIndexParser13InvokeCountOfINS_10Group2Var3EEEvRKNS_12HeaderRecordEtRKNS_9NumParserERKN7openpal6RSliceERNS_12IAPDUHandlerEEUlRSE_jE_E5CountEv,comdat
	.align 2
	.p2align 4,,15
	.weak	_ZNK8opendnp318BufferedCollectionINS_7IndexedINS_6BinaryEEEZNS_16CountIndexParser13InvokeCountOfINS_10Group2Var3EEEvRKNS_12HeaderRecordEtRKNS_9NumParserERKN7openpal6RSliceERNS_12IAPDUHandlerEEUlRSE_jE_E5CountEv
	.type	_ZNK8opendnp318BufferedCollectionINS_7IndexedINS_6BinaryEEEZNS_16CountIndexParser13InvokeCountOfINS_10Group2Var3EEEvRKNS_12HeaderRecordEtRKNS_9NumParserERKN7openpal6RSliceERNS_12IAPDUHandlerEEUlRSE_jE_E5CountEv, @function
_ZNK8opendnp318BufferedCollectionINS_7IndexedINS_6BinaryEEEZNS_16CountIndexParser13InvokeCountOfINS_10Group2Var3EEEvRKNS_12HeaderRecordEtRKNS_9NumParserERKN7openpal6RSliceERNS_12IAPDUHandlerEEUlRSE_jE_E5CountEv:
.LFB3962:
	.cfi_startproc
	movq	24(%rdi), %rax
	ret
	.cfi_endproc
.LFE3962:
	.size	_ZNK8opendnp318BufferedCollectionINS_7IndexedINS_6BinaryEEEZNS_16CountIndexParser13InvokeCountOfINS_10Group2Var3EEEvRKNS_12HeaderRecordEtRKNS_9NumParserERKN7openpal6RSliceERNS_12IAPDUHandlerEEUlRSE_jE_E5CountEv, .-_ZNK8opendnp318BufferedCollectionINS_7IndexedINS_6BinaryEEEZNS_16CountIndexParser13InvokeCountOfINS_10Group2Var3EEEvRKNS_12HeaderRecordEtRKNS_9NumParserERKN7openpal6RSliceERNS_12IAPDUHandlerEEUlRSE_jE_E5CountEv
	.section	.text._ZNK8opendnp318BufferedCollectionINS_7IndexedINS_6BinaryEEEZNS_16CountIndexParser13InvokeCountOfINS_10Group2Var2EEEvRKNS_12HeaderRecordEtRKNS_9NumParserERKN7openpal6RSliceERNS_12IAPDUHandlerEEUlRSE_jE_E5CountEv,"axG",@progbits,_ZNK8opendnp318BufferedCollectionINS_7IndexedINS_6BinaryEEEZNS_16CountIndexParser13InvokeCountOfINS_10Group2Var2EEEvRKNS_12HeaderRecordEtRKNS_9NumParserERKN7openpal6RSliceERNS_12IAPDUHandlerEEUlRSE_jE_E5CountEv,comdat
	.align 2
	.p2align 4,,15
	.weak	_ZNK8opendnp318BufferedCollectionINS_7IndexedINS_6BinaryEEEZNS_16CountIndexParser13InvokeCountOfINS_10Group2Var2EEEvRKNS_12HeaderRecordEtRKNS_9NumParserERKN7openpal6RSliceERNS_12IAPDUHandlerEEUlRSE_jE_E5CountEv
	.type	_ZNK8opendnp318BufferedCollectionINS_7IndexedINS_6BinaryEEEZNS_16CountIndexParser13InvokeCountOfINS_10Group2Var2EEEvRKNS_12HeaderRecordEtRKNS_9NumParserERKN7openpal6RSliceERNS_12IAPDUHandlerEEUlRSE_jE_E5CountEv, @function
_ZNK8opendnp318BufferedCollectionINS_7IndexedINS_6BinaryEEEZNS_16CountIndexParser13InvokeCountOfINS_10Group2Var2EEEvRKNS_12HeaderRecordEtRKNS_9NumParserERKN7openpal6RSliceERNS_12IAPDUHandlerEEUlRSE_jE_E5CountEv:
.LFB3964:
	.cfi_startproc
	movq	24(%rdi), %rax
	ret
	.cfi_endproc
.LFE3964:
	.size	_ZNK8opendnp318BufferedCollectionINS_7IndexedINS_6BinaryEEEZNS_16CountIndexParser13InvokeCountOfINS_10Group2Var2EEEvRKNS_12HeaderRecordEtRKNS_9NumParserERKN7openpal6RSliceERNS_12IAPDUHandlerEEUlRSE_jE_E5CountEv, .-_ZNK8opendnp318BufferedCollectionINS_7IndexedINS_6BinaryEEEZNS_16CountIndexParser13InvokeCountOfINS_10Group2Var2EEEvRKNS_12HeaderRecordEtRKNS_9NumParserERKN7openpal6RSliceERNS_12IAPDUHandlerEEUlRSE_jE_E5CountEv
	.section	.text._ZNK8opendnp318BufferedCollectionINS_7IndexedINS_6BinaryEEEZNS_16CountIndexParser13InvokeCountOfINS_10Group2Var1EEEvRKNS_12HeaderRecordEtRKNS_9NumParserERKN7openpal6RSliceERNS_12IAPDUHandlerEEUlRSE_jE_E5CountEv,"axG",@progbits,_ZNK8opendnp318BufferedCollectionINS_7IndexedINS_6BinaryEEEZNS_16CountIndexParser13InvokeCountOfINS_10Group2Var1EEEvRKNS_12HeaderRecordEtRKNS_9NumParserERKN7openpal6RSliceERNS_12IAPDUHandlerEEUlRSE_jE_E5CountEv,comdat
	.align 2
	.p2align 4,,15
	.weak	_ZNK8opendnp318BufferedCollectionINS_7IndexedINS_6BinaryEEEZNS_16CountIndexParser13InvokeCountOfINS_10Group2Var1EEEvRKNS_12HeaderRecordEtRKNS_9NumParserERKN7openpal6RSliceERNS_12IAPDUHandlerEEUlRSE_jE_E5CountEv
	.type	_ZNK8opendnp318BufferedCollectionINS_7IndexedINS_6BinaryEEEZNS_16CountIndexParser13InvokeCountOfINS_10Group2Var1EEEvRKNS_12HeaderRecordEtRKNS_9NumParserERKN7openpal6RSliceERNS_12IAPDUHandlerEEUlRSE_jE_E5CountEv, @function
_ZNK8opendnp318BufferedCollectionINS_7IndexedINS_6BinaryEEEZNS_16CountIndexParser13InvokeCountOfINS_10Group2Var1EEEvRKNS_12HeaderRecordEtRKNS_9NumParserERKN7openpal6RSliceERNS_12IAPDUHandlerEEUlRSE_jE_E5CountEv:
.LFB3966:
	.cfi_startproc
	movq	24(%rdi), %rax
	ret
	.cfi_endproc
.LFE3966:
	.size	_ZNK8opendnp318BufferedCollectionINS_7IndexedINS_6BinaryEEEZNS_16CountIndexParser13InvokeCountOfINS_10Group2Var1EEEvRKNS_12HeaderRecordEtRKNS_9NumParserERKN7openpal6RSliceERNS_12IAPDUHandlerEEUlRSE_jE_E5CountEv, .-_ZNK8opendnp318BufferedCollectionINS_7IndexedINS_6BinaryEEEZNS_16CountIndexParser13InvokeCountOfINS_10Group2Var1EEEvRKNS_12HeaderRecordEtRKNS_9NumParserERKN7openpal6RSliceERNS_12IAPDUHandlerEEUlRSE_jE_E5CountEv
	.text
	.align 2
	.p2align 4,,15
	.type	_ZNK8opendnp318BufferedCollectionINS_7IndexedINS_11OctetStringEEEZNS_16CountIndexParser27ParseIndexPrefixedOctetDataERN7openpal6RSliceERKNS_12HeaderRecordERKNS_9NumParserEjPNS5_6LoggerEPNS_12IAPDUHandlerEEUlS7_jE_E5CountEv, @function
_ZNK8opendnp318BufferedCollectionINS_7IndexedINS_11OctetStringEEEZNS_16CountIndexParser27ParseIndexPrefixedOctetDataERN7openpal6RSliceERKNS_12HeaderRecordERKNS_9NumParserEjPNS5_6LoggerEPNS_12IAPDUHandlerEEUlS7_jE_E5CountEv:
.LFB3968:
	.cfi_startproc
	movq	24(%rdi), %rax
	ret
	.cfi_endproc
.LFE3968:
	.size	_ZNK8opendnp318BufferedCollectionINS_7IndexedINS_11OctetStringEEEZNS_16CountIndexParser27ParseIndexPrefixedOctetDataERN7openpal6RSliceERKNS_12HeaderRecordERKNS_9NumParserEjPNS5_6LoggerEPNS_12IAPDUHandlerEEUlS7_jE_E5CountEv, .-_ZNK8opendnp318BufferedCollectionINS_7IndexedINS_11OctetStringEEEZNS_16CountIndexParser27ParseIndexPrefixedOctetDataERN7openpal6RSliceERKNS_12HeaderRecordERKNS_9NumParserEjPNS5_6LoggerEPNS_12IAPDUHandlerEEUlS7_jE_E5CountEv
	.section	.text._ZN8opendnp316CountIndexParser13InvokeCountOfINS_10Group2Var1EEEvRKNS_12HeaderRecordEtRKNS_9NumParserERKN7openpal6RSliceERNS_12IAPDUHandlerE,"axG",@progbits,_ZN8opendnp316CountIndexParser13InvokeCountOfINS_10Group2Var1EEEvRKNS_12HeaderRecordEtRKNS_9NumParserERKN7openpal6RSliceERNS_12IAPDUHandlerE,comdat
	.align 2
	.p2align 4,,15
	.weak	_ZN8opendnp316CountIndexParser13InvokeCountOfINS_10Group2Var1EEEvRKNS_12HeaderRecordEtRKNS_9NumParserERKN7openpal6RSliceERNS_12IAPDUHandlerE
	.type	_ZN8opendnp316CountIndexParser13InvokeCountOfINS_10Group2Var1EEEvRKNS_12HeaderRecordEtRKNS_9NumParserERKN7openpal6RSliceERNS_12IAPDUHandlerE, @function
_ZN8opendnp316CountIndexParser13InvokeCountOfINS_10Group2Var1EEEvRKNS_12HeaderRecordEtRKNS_9NumParserERKN7openpal6RSliceERNS_12IAPDUHandlerE:
.LFB3006:
	.cfi_startproc
	subq	$88, %rsp
	.cfi_def_cfa_offset 96
	movq	%fs:40, %rax
	movq	%rax, 72(%rsp)
	xorl	%eax, %eax
	movq	_ZTVN8opendnp318BufferedCollectionINS_7IndexedINS_6BinaryEEEZNS_16CountIndexParser13InvokeCountOfINS_10Group2Var1EEEvRKNS_12HeaderRecordEtRKNS_9NumParserERKN7openpal6RSliceERNS_12IAPDUHandlerEEUlRSE_jE_EE@GOTPCREL(%rip), %rax
	movq	%rdx, 64(%rsp)
	leaq	32(%rsp), %rdx
	movdqu	(%rcx), %xmm0
	movw	%si, 16(%rsp)
	addq	$16, %rax
	movups	%xmm0, 40(%rsp)
	movq	%rax, 32(%rsp)
	movzwl	%si, %eax
	movq	%rsp, %rsi
	movdqu	(%rdi), %xmm0
	movq	%r8, %rdi
	movq	%rax, 56(%rsp)
	movaps	%xmm0, (%rsp)
	call	_ZN8opendnp312IAPDUHandler8OnHeaderERKNS_12PrefixHeaderERKNS_11ICollectionINS_7IndexedINS_6BinaryEEEEE@PLT
	movq	72(%rsp), %rax
	xorq	%fs:40, %rax
	jne	.L57
	addq	$88, %rsp
	.cfi_remember_state
	.cfi_def_cfa_offset 8
	ret
.L57:
	.cfi_restore_state
	call	__stack_chk_fail@PLT
	.cfi_endproc
.LFE3006:
	.size	_ZN8opendnp316CountIndexParser13InvokeCountOfINS_10Group2Var1EEEvRKNS_12HeaderRecordEtRKNS_9NumParserERKN7openpal6RSliceERNS_12IAPDUHandlerE, .-_ZN8opendnp316CountIndexParser13InvokeCountOfINS_10Group2Var1EEEvRKNS_12HeaderRecordEtRKNS_9NumParserERKN7openpal6RSliceERNS_12IAPDUHandlerE
	.section	.text._ZN8opendnp316CountIndexParser13InvokeCountOfINS_10Group2Var2EEEvRKNS_12HeaderRecordEtRKNS_9NumParserERKN7openpal6RSliceERNS_12IAPDUHandlerE,"axG",@progbits,_ZN8opendnp316CountIndexParser13InvokeCountOfINS_10Group2Var2EEEvRKNS_12HeaderRecordEtRKNS_9NumParserERKN7openpal6RSliceERNS_12IAPDUHandlerE,comdat
	.align 2
	.p2align 4,,15
	.weak	_ZN8opendnp316CountIndexParser13InvokeCountOfINS_10Group2Var2EEEvRKNS_12HeaderRecordEtRKNS_9NumParserERKN7openpal6RSliceERNS_12IAPDUHandlerE
	.type	_ZN8opendnp316CountIndexParser13InvokeCountOfINS_10Group2Var2EEEvRKNS_12HeaderRecordEtRKNS_9NumParserERKN7openpal6RSliceERNS_12IAPDUHandlerE, @function
_ZN8opendnp316CountIndexParser13InvokeCountOfINS_10Group2Var2EEEvRKNS_12HeaderRecordEtRKNS_9NumParserERKN7openpal6RSliceERNS_12IAPDUHandlerE:
.LFB3014:
	.cfi_startproc
	subq	$88, %rsp
	.cfi_def_cfa_offset 96
	movq	%fs:40, %rax
	movq	%rax, 72(%rsp)
	xorl	%eax, %eax
	movq	_ZTVN8opendnp318BufferedCollectionINS_7IndexedINS_6BinaryEEEZNS_16CountIndexParser13InvokeCountOfINS_10Group2Var2EEEvRKNS_12HeaderRecordEtRKNS_9NumParserERKN7openpal6RSliceERNS_12IAPDUHandlerEEUlRSE_jE_EE@GOTPCREL(%rip), %rax
	movq	%rdx, 64(%rsp)
	leaq	32(%rsp), %rdx
	movdqu	(%rcx), %xmm0
	movw	%si, 16(%rsp)
	addq	$16, %rax
	movups	%xmm0, 40(%rsp)
	movq	%rax, 32(%rsp)
	movzwl	%si, %eax
	movq	%rsp, %rsi
	movdqu	(%rdi), %xmm0
	movq	%r8, %rdi
	movq	%rax, 56(%rsp)
	movaps	%xmm0, (%rsp)
	call	_ZN8opendnp312IAPDUHandler8OnHeaderERKNS_12PrefixHeaderERKNS_11ICollectionINS_7IndexedINS_6BinaryEEEEE@PLT
	movq	72(%rsp), %rax
	xorq	%fs:40, %rax
	jne	.L61
	addq	$88, %rsp
	.cfi_remember_state
	.cfi_def_cfa_offset 8
	ret
.L61:
	.cfi_restore_state
	call	__stack_chk_fail@PLT
	.cfi_endproc
.LFE3014:
	.size	_ZN8opendnp316CountIndexParser13InvokeCountOfINS_10Group2Var2EEEvRKNS_12HeaderRecordEtRKNS_9NumParserERKN7openpal6RSliceERNS_12IAPDUHandlerE, .-_ZN8opendnp316CountIndexParser13InvokeCountOfINS_10Group2Var2EEEvRKNS_12HeaderRecordEtRKNS_9NumParserERKN7openpal6RSliceERNS_12IAPDUHandlerE
	.section	.text._ZN8opendnp316CountIndexParser13InvokeCountOfINS_10Group2Var3EEEvRKNS_12HeaderRecordEtRKNS_9NumParserERKN7openpal6RSliceERNS_12IAPDUHandlerE,"axG",@progbits,_ZN8opendnp316CountIndexParser13InvokeCountOfINS_10Group2Var3EEEvRKNS_12HeaderRecordEtRKNS_9NumParserERKN7openpal6RSliceERNS_12IAPDUHandlerE,comdat
	.align 2
	.p2align 4,,15
	.weak	_ZN8opendnp316CountIndexParser13InvokeCountOfINS_10Group2Var3EEEvRKNS_12HeaderRecordEtRKNS_9NumParserERKN7openpal6RSliceERNS_12IAPDUHandlerE
	.type	_ZN8opendnp316CountIndexParser13InvokeCountOfINS_10Group2Var3EEEvRKNS_12HeaderRecordEtRKNS_9NumParserERKN7openpal6RSliceERNS_12IAPDUHandlerE, @function
_ZN8opendnp316CountIndexParser13InvokeCountOfINS_10Group2Var3EEEvRKNS_12HeaderRecordEtRKNS_9NumParserERKN7openpal6RSliceERNS_12IAPDUHandlerE:
.LFB3019:
	.cfi_startproc
	subq	$88, %rsp
	.cfi_def_cfa_offset 96
	movq	%fs:40, %rax
	movq	%rax, 72(%rsp)
	xorl	%eax, %eax
	movq	_ZTVN8opendnp318BufferedCollectionINS_7IndexedINS_6BinaryEEEZNS_16CountIndexParser13InvokeCountOfINS_10Group2Var3EEEvRKNS_12HeaderRecordEtRKNS_9NumParserERKN7openpal6RSliceERNS_12IAPDUHandlerEEUlRSE_jE_EE@GOTPCREL(%rip), %rax
	movq	%rdx, 64(%rsp)
	leaq	32(%rsp), %rdx
	movdqu	(%rcx), %xmm0
	movw	%si, 16(%rsp)
	addq	$16, %rax
	movups	%xmm0, 40(%rsp)
	movq	%rax, 32(%rsp)
	movzwl	%si, %eax
	movq	%rsp, %rsi
	movdqu	(%rdi), %xmm0
	movq	%r8, %rdi
	movq	%rax, 56(%rsp)
	movaps	%xmm0, (%rsp)
	call	_ZN8opendnp312IAPDUHandler8OnHeaderERKNS_12PrefixHeaderERKNS_11ICollectionINS_7IndexedINS_6BinaryEEEEE@PLT
	movq	72(%rsp), %rax
	xorq	%fs:40, %rax
	jne	.L65
	addq	$88, %rsp
	.cfi_remember_state
	.cfi_def_cfa_offset 8
	ret
.L65:
	.cfi_restore_state
	call	__stack_chk_fail@PLT
	.cfi_endproc
.LFE3019:
	.size	_ZN8opendnp316CountIndexParser13InvokeCountOfINS_10Group2Var3EEEvRKNS_12HeaderRecordEtRKNS_9NumParserERKN7openpal6RSliceERNS_12IAPDUHandlerE, .-_ZN8opendnp316CountIndexParser13InvokeCountOfINS_10Group2Var3EEEvRKNS_12HeaderRecordEtRKNS_9NumParserERKN7openpal6RSliceERNS_12IAPDUHandlerE
	.section	.text._ZN8opendnp316CountIndexParser13InvokeCountOfINS_10Group4Var1EEEvRKNS_12HeaderRecordEtRKNS_9NumParserERKN7openpal6RSliceERNS_12IAPDUHandlerE,"axG",@progbits,_ZN8opendnp316CountIndexParser13InvokeCountOfINS_10Group4Var1EEEvRKNS_12HeaderRecordEtRKNS_9NumParserERKN7openpal6RSliceERNS_12IAPDUHandlerE,comdat
	.align 2
	.p2align 4,,15
	.weak	_ZN8opendnp316CountIndexParser13InvokeCountOfINS_10Group4Var1EEEvRKNS_12HeaderRecordEtRKNS_9NumParserERKN7openpal6RSliceERNS_12IAPDUHandlerE
	.type	_ZN8opendnp316CountIndexParser13InvokeCountOfINS_10Group4Var1EEEvRKNS_12HeaderRecordEtRKNS_9NumParserERKN7openpal6RSliceERNS_12IAPDUHandlerE, @function
_ZN8opendnp316CountIndexParser13InvokeCountOfINS_10Group4Var1EEEvRKNS_12HeaderRecordEtRKNS_9NumParserERKN7openpal6RSliceERNS_12IAPDUHandlerE:
.LFB3024:
	.cfi_startproc
	subq	$88, %rsp
	.cfi_def_cfa_offset 96
	movq	%fs:40, %rax
	movq	%rax, 72(%rsp)
	xorl	%eax, %eax
	movq	_ZTVN8opendnp318BufferedCollectionINS_7IndexedINS_15DoubleBitBinaryEEEZNS_16CountIndexParser13InvokeCountOfINS_10Group4Var1EEEvRKNS_12HeaderRecordEtRKNS_9NumParserERKN7openpal6RSliceERNS_12IAPDUHandlerEEUlRSE_jE_EE@GOTPCREL(%rip), %rax
	movq	%rdx, 64(%rsp)
	leaq	32(%rsp), %rdx
	movdqu	(%rcx), %xmm0
	movw	%si, 16(%rsp)
	addq	$16, %rax
	movups	%xmm0, 40(%rsp)
	movq	%rax, 32(%rsp)
	movzwl	%si, %eax
	movq	%rsp, %rsi
	movdqu	(%rdi), %xmm0
	movq	%r8, %rdi
	movq	%rax, 56(%rsp)
	movaps	%xmm0, (%rsp)
	call	_ZN8opendnp312IAPDUHandler8OnHeaderERKNS_12PrefixHeaderERKNS_11ICollectionINS_7IndexedINS_15DoubleBitBinaryEEEEE@PLT
	movq	72(%rsp), %rax
	xorq	%fs:40, %rax
	jne	.L69
	addq	$88, %rsp
	.cfi_remember_state
	.cfi_def_cfa_offset 8
	ret
.L69:
	.cfi_restore_state
	call	__stack_chk_fail@PLT
	.cfi_endproc
.LFE3024:
	.size	_ZN8opendnp316CountIndexParser13InvokeCountOfINS_10Group4Var1EEEvRKNS_12HeaderRecordEtRKNS_9NumParserERKN7openpal6RSliceERNS_12IAPDUHandlerE, .-_ZN8opendnp316CountIndexParser13InvokeCountOfINS_10Group4Var1EEEvRKNS_12HeaderRecordEtRKNS_9NumParserERKN7openpal6RSliceERNS_12IAPDUHandlerE
	.section	.text._ZN8opendnp316CountIndexParser13InvokeCountOfINS_10Group4Var2EEEvRKNS_12HeaderRecordEtRKNS_9NumParserERKN7openpal6RSliceERNS_12IAPDUHandlerE,"axG",@progbits,_ZN8opendnp316CountIndexParser13InvokeCountOfINS_10Group4Var2EEEvRKNS_12HeaderRecordEtRKNS_9NumParserERKN7openpal6RSliceERNS_12IAPDUHandlerE,comdat
	.align 2
	.p2align 4,,15
	.weak	_ZN8opendnp316CountIndexParser13InvokeCountOfINS_10Group4Var2EEEvRKNS_12HeaderRecordEtRKNS_9NumParserERKN7openpal6RSliceERNS_12IAPDUHandlerE
	.type	_ZN8opendnp316CountIndexParser13InvokeCountOfINS_10Group4Var2EEEvRKNS_12HeaderRecordEtRKNS_9NumParserERKN7openpal6RSliceERNS_12IAPDUHandlerE, @function
_ZN8opendnp316CountIndexParser13InvokeCountOfINS_10Group4Var2EEEvRKNS_12HeaderRecordEtRKNS_9NumParserERKN7openpal6RSliceERNS_12IAPDUHandlerE:
.LFB3032:
	.cfi_startproc
	subq	$88, %rsp
	.cfi_def_cfa_offset 96
	movq	%fs:40, %rax
	movq	%rax, 72(%rsp)
	xorl	%eax, %eax
	movq	_ZTVN8opendnp318BufferedCollectionINS_7IndexedINS_15DoubleBitBinaryEEEZNS_16CountIndexParser13InvokeCountOfINS_10Group4Var2EEEvRKNS_12HeaderRecordEtRKNS_9NumParserERKN7openpal6RSliceERNS_12IAPDUHandlerEEUlRSE_jE_EE@GOTPCREL(%rip), %rax
	movq	%rdx, 64(%rsp)
	leaq	32(%rsp), %rdx
	movdqu	(%rcx), %xmm0
	movw	%si, 16(%rsp)
	addq	$16, %rax
	movups	%xmm0, 40(%rsp)
	movq	%rax, 32(%rsp)
	movzwl	%si, %eax
	movq	%rsp, %rsi
	movdqu	(%rdi), %xmm0
	movq	%r8, %rdi
	movq	%rax, 56(%rsp)
	movaps	%xmm0, (%rsp)
	call	_ZN8opendnp312IAPDUHandler8OnHeaderERKNS_12PrefixHeaderERKNS_11ICollectionINS_7IndexedINS_15DoubleBitBinaryEEEEE@PLT
	movq	72(%rsp), %rax
	xorq	%fs:40, %rax
	jne	.L73
	addq	$88, %rsp
	.cfi_remember_state
	.cfi_def_cfa_offset 8
	ret
.L73:
	.cfi_restore_state
	call	__stack_chk_fail@PLT
	.cfi_endproc
.LFE3032:
	.size	_ZN8opendnp316CountIndexParser13InvokeCountOfINS_10Group4Var2EEEvRKNS_12HeaderRecordEtRKNS_9NumParserERKN7openpal6RSliceERNS_12IAPDUHandlerE, .-_ZN8opendnp316CountIndexParser13InvokeCountOfINS_10Group4Var2EEEvRKNS_12HeaderRecordEtRKNS_9NumParserERKN7openpal6RSliceERNS_12IAPDUHandlerE
	.section	.text._ZN8opendnp316CountIndexParser13InvokeCountOfINS_10Group4Var3EEEvRKNS_12HeaderRecordEtRKNS_9NumParserERKN7openpal6RSliceERNS_12IAPDUHandlerE,"axG",@progbits,_ZN8opendnp316CountIndexParser13InvokeCountOfINS_10Group4Var3EEEvRKNS_12HeaderRecordEtRKNS_9NumParserERKN7openpal6RSliceERNS_12IAPDUHandlerE,comdat
	.align 2
	.p2align 4,,15
	.weak	_ZN8opendnp316CountIndexParser13InvokeCountOfINS_10Group4Var3EEEvRKNS_12HeaderRecordEtRKNS_9NumParserERKN7openpal6RSliceERNS_12IAPDUHandlerE
	.type	_ZN8opendnp316CountIndexParser13InvokeCountOfINS_10Group4Var3EEEvRKNS_12HeaderRecordEtRKNS_9NumParserERKN7openpal6RSliceERNS_12IAPDUHandlerE, @function
_ZN8opendnp316CountIndexParser13InvokeCountOfINS_10Group4Var3EEEvRKNS_12HeaderRecordEtRKNS_9NumParserERKN7openpal6RSliceERNS_12IAPDUHandlerE:
.LFB3037:
	.cfi_startproc
	subq	$88, %rsp
	.cfi_def_cfa_offset 96
	movq	%fs:40, %rax
	movq	%rax, 72(%rsp)
	xorl	%eax, %eax
	movq	_ZTVN8opendnp318BufferedCollectionINS_7IndexedINS_15DoubleBitBinaryEEEZNS_16CountIndexParser13InvokeCountOfINS_10Group4Var3EEEvRKNS_12HeaderRecordEtRKNS_9NumParserERKN7openpal6RSliceERNS_12IAPDUHandlerEEUlRSE_jE_EE@GOTPCREL(%rip), %rax
	movq	%rdx, 64(%rsp)
	leaq	32(%rsp), %rdx
	movdqu	(%rcx), %xmm0
	movw	%si, 16(%rsp)
	addq	$16, %rax
	movups	%xmm0, 40(%rsp)
	movq	%rax, 32(%rsp)
	movzwl	%si, %eax
	movq	%rsp, %rsi
	movdqu	(%rdi), %xmm0
	movq	%r8, %rdi
	movq	%rax, 56(%rsp)
	movaps	%xmm0, (%rsp)
	call	_ZN8opendnp312IAPDUHandler8OnHeaderERKNS_12PrefixHeaderERKNS_11ICollectionINS_7IndexedINS_15DoubleBitBinaryEEEEE@PLT
	movq	72(%rsp), %rax
	xorq	%fs:40, %rax
	jne	.L77
	addq	$88, %rsp
	.cfi_remember_state
	.cfi_def_cfa_offset 8
	ret
.L77:
	.cfi_restore_state
	call	__stack_chk_fail@PLT
	.cfi_endproc
.LFE3037:
	.size	_ZN8opendnp316CountIndexParser13InvokeCountOfINS_10Group4Var3EEEvRKNS_12HeaderRecordEtRKNS_9NumParserERKN7openpal6RSliceERNS_12IAPDUHandlerE, .-_ZN8opendnp316CountIndexParser13InvokeCountOfINS_10Group4Var3EEEvRKNS_12HeaderRecordEtRKNS_9NumParserERKN7openpal6RSliceERNS_12IAPDUHandlerE
	.section	.text._ZN8opendnp316CountIndexParser13InvokeCountOfINS_11Group11Var1EEEvRKNS_12HeaderRecordEtRKNS_9NumParserERKN7openpal6RSliceERNS_12IAPDUHandlerE,"axG",@progbits,_ZN8opendnp316CountIndexParser13InvokeCountOfINS_11Group11Var1EEEvRKNS_12HeaderRecordEtRKNS_9NumParserERKN7openpal6RSliceERNS_12IAPDUHandlerE,comdat
	.align 2
	.p2align 4,,15
	.weak	_ZN8opendnp316CountIndexParser13InvokeCountOfINS_11Group11Var1EEEvRKNS_12HeaderRecordEtRKNS_9NumParserERKN7openpal6RSliceERNS_12IAPDUHandlerE
	.type	_ZN8opendnp316CountIndexParser13InvokeCountOfINS_11Group11Var1EEEvRKNS_12HeaderRecordEtRKNS_9NumParserERKN7openpal6RSliceERNS_12IAPDUHandlerE, @function
_ZN8opendnp316CountIndexParser13InvokeCountOfINS_11Group11Var1EEEvRKNS_12HeaderRecordEtRKNS_9NumParserERKN7openpal6RSliceERNS_12IAPDUHandlerE:
.LFB3042:
	.cfi_startproc
	subq	$88, %rsp
	.cfi_def_cfa_offset 96
	movq	%fs:40, %rax
	movq	%rax, 72(%rsp)
	xorl	%eax, %eax
	movq	_ZTVN8opendnp318BufferedCollectionINS_7IndexedINS_18BinaryOutputStatusEEEZNS_16CountIndexParser13InvokeCountOfINS_11Group11Var1EEEvRKNS_12HeaderRecordEtRKNS_9NumParserERKN7openpal6RSliceERNS_12IAPDUHandlerEEUlRSE_jE_EE@GOTPCREL(%rip), %rax
	movq	%rdx, 64(%rsp)
	leaq	32(%rsp), %rdx
	movdqu	(%rcx), %xmm0
	movw	%si, 16(%rsp)
	addq	$16, %rax
	movups	%xmm0, 40(%rsp)
	movq	%rax, 32(%rsp)
	movzwl	%si, %eax
	movq	%rsp, %rsi
	movdqu	(%rdi), %xmm0
	movq	%r8, %rdi
	movq	%rax, 56(%rsp)
	movaps	%xmm0, (%rsp)
	call	_ZN8opendnp312IAPDUHandler8OnHeaderERKNS_12PrefixHeaderERKNS_11ICollectionINS_7IndexedINS_18BinaryOutputStatusEEEEE@PLT
	movq	72(%rsp), %rax
	xorq	%fs:40, %rax
	jne	.L81
	addq	$88, %rsp
	.cfi_remember_state
	.cfi_def_cfa_offset 8
	ret
.L81:
	.cfi_restore_state
	call	__stack_chk_fail@PLT
	.cfi_endproc
.LFE3042:
	.size	_ZN8opendnp316CountIndexParser13InvokeCountOfINS_11Group11Var1EEEvRKNS_12HeaderRecordEtRKNS_9NumParserERKN7openpal6RSliceERNS_12IAPDUHandlerE, .-_ZN8opendnp316CountIndexParser13InvokeCountOfINS_11Group11Var1EEEvRKNS_12HeaderRecordEtRKNS_9NumParserERKN7openpal6RSliceERNS_12IAPDUHandlerE
	.section	.text._ZN8opendnp316CountIndexParser13InvokeCountOfINS_11Group11Var2EEEvRKNS_12HeaderRecordEtRKNS_9NumParserERKN7openpal6RSliceERNS_12IAPDUHandlerE,"axG",@progbits,_ZN8opendnp316CountIndexParser13InvokeCountOfINS_11Group11Var2EEEvRKNS_12HeaderRecordEtRKNS_9NumParserERKN7openpal6RSliceERNS_12IAPDUHandlerE,comdat
	.align 2
	.p2align 4,,15
	.weak	_ZN8opendnp316CountIndexParser13InvokeCountOfINS_11Group11Var2EEEvRKNS_12HeaderRecordEtRKNS_9NumParserERKN7openpal6RSliceERNS_12IAPDUHandlerE
	.type	_ZN8opendnp316CountIndexParser13InvokeCountOfINS_11Group11Var2EEEvRKNS_12HeaderRecordEtRKNS_9NumParserERKN7openpal6RSliceERNS_12IAPDUHandlerE, @function
_ZN8opendnp316CountIndexParser13InvokeCountOfINS_11Group11Var2EEEvRKNS_12HeaderRecordEtRKNS_9NumParserERKN7openpal6RSliceERNS_12IAPDUHandlerE:
.LFB3050:
	.cfi_startproc
	subq	$88, %rsp
	.cfi_def_cfa_offset 96
	movq	%fs:40, %rax
	movq	%rax, 72(%rsp)
	xorl	%eax, %eax
	movq	_ZTVN8opendnp318BufferedCollectionINS_7IndexedINS_18BinaryOutputStatusEEEZNS_16CountIndexParser13InvokeCountOfINS_11Group11Var2EEEvRKNS_12HeaderRecordEtRKNS_9NumParserERKN7openpal6RSliceERNS_12IAPDUHandlerEEUlRSE_jE_EE@GOTPCREL(%rip), %rax
	movq	%rdx, 64(%rsp)
	leaq	32(%rsp), %rdx
	movdqu	(%rcx), %xmm0
	movw	%si, 16(%rsp)
	addq	$16, %rax
	movups	%xmm0, 40(%rsp)
	movq	%rax, 32(%rsp)
	movzwl	%si, %eax
	movq	%rsp, %rsi
	movdqu	(%rdi), %xmm0
	movq	%r8, %rdi
	movq	%rax, 56(%rsp)
	movaps	%xmm0, (%rsp)
	call	_ZN8opendnp312IAPDUHandler8OnHeaderERKNS_12PrefixHeaderERKNS_11ICollectionINS_7IndexedINS_18BinaryOutputStatusEEEEE@PLT
	movq	72(%rsp), %rax
	xorq	%fs:40, %rax
	jne	.L85
	addq	$88, %rsp
	.cfi_remember_state
	.cfi_def_cfa_offset 8
	ret
.L85:
	.cfi_restore_state
	call	__stack_chk_fail@PLT
	.cfi_endproc
.LFE3050:
	.size	_ZN8opendnp316CountIndexParser13InvokeCountOfINS_11Group11Var2EEEvRKNS_12HeaderRecordEtRKNS_9NumParserERKN7openpal6RSliceERNS_12IAPDUHandlerE, .-_ZN8opendnp316CountIndexParser13InvokeCountOfINS_11Group11Var2EEEvRKNS_12HeaderRecordEtRKNS_9NumParserERKN7openpal6RSliceERNS_12IAPDUHandlerE
	.section	.text._ZN8opendnp316CountIndexParser13InvokeCountOfINS_11Group12Var1EEEvRKNS_12HeaderRecordEtRKNS_9NumParserERKN7openpal6RSliceERNS_12IAPDUHandlerE,"axG",@progbits,_ZN8opendnp316CountIndexParser13InvokeCountOfINS_11Group12Var1EEEvRKNS_12HeaderRecordEtRKNS_9NumParserERKN7openpal6RSliceERNS_12IAPDUHandlerE,comdat
	.align 2
	.p2align 4,,15
	.weak	_ZN8opendnp316CountIndexParser13InvokeCountOfINS_11Group12Var1EEEvRKNS_12HeaderRecordEtRKNS_9NumParserERKN7openpal6RSliceERNS_12IAPDUHandlerE
	.type	_ZN8opendnp316CountIndexParser13InvokeCountOfINS_11Group12Var1EEEvRKNS_12HeaderRecordEtRKNS_9NumParserERKN7openpal6RSliceERNS_12IAPDUHandlerE, @function
_ZN8opendnp316CountIndexParser13InvokeCountOfINS_11Group12Var1EEEvRKNS_12HeaderRecordEtRKNS_9NumParserERKN7openpal6RSliceERNS_12IAPDUHandlerE:
.LFB3055:
	.cfi_startproc
	subq	$88, %rsp
	.cfi_def_cfa_offset 96
	movq	%fs:40, %rax
	movq	%rax, 72(%rsp)
	xorl	%eax, %eax
	movq	_ZTVN8opendnp318BufferedCollectionINS_7IndexedINS_23ControlRelayOutputBlockEEEZNS_16CountIndexParser13InvokeCountOfINS_11Group12Var1EEEvRKNS_12HeaderRecordEtRKNS_9NumParserERKN7openpal6RSliceERNS_12IAPDUHandlerEEUlRSE_jE_EE@GOTPCREL(%rip), %rax
	movq	%rdx, 64(%rsp)
	leaq	32(%rsp), %rdx
	movdqu	(%rcx), %xmm0
	movw	%si, 16(%rsp)
	addq	$16, %rax
	movups	%xmm0, 40(%rsp)
	movq	%rax, 32(%rsp)
	movzwl	%si, %eax
	movq	%rsp, %rsi
	movdqu	(%rdi), %xmm0
	movq	%r8, %rdi
	movq	%rax, 56(%rsp)
	movaps	%xmm0, (%rsp)
	call	_ZN8opendnp312IAPDUHandler8OnHeaderERKNS_12PrefixHeaderERKNS_11ICollectionINS_7IndexedINS_23ControlRelayOutputBlockEEEEE@PLT
	movq	72(%rsp), %rax
	xorq	%fs:40, %rax
	jne	.L89
	addq	$88, %rsp
	.cfi_remember_state
	.cfi_def_cfa_offset 8
	ret
.L89:
	.cfi_restore_state
	call	__stack_chk_fail@PLT
	.cfi_endproc
.LFE3055:
	.size	_ZN8opendnp316CountIndexParser13InvokeCountOfINS_11Group12Var1EEEvRKNS_12HeaderRecordEtRKNS_9NumParserERKN7openpal6RSliceERNS_12IAPDUHandlerE, .-_ZN8opendnp316CountIndexParser13InvokeCountOfINS_11Group12Var1EEEvRKNS_12HeaderRecordEtRKNS_9NumParserERKN7openpal6RSliceERNS_12IAPDUHandlerE
	.section	.text._ZN8opendnp316CountIndexParser13InvokeCountOfINS_11Group13Var1EEEvRKNS_12HeaderRecordEtRKNS_9NumParserERKN7openpal6RSliceERNS_12IAPDUHandlerE,"axG",@progbits,_ZN8opendnp316CountIndexParser13InvokeCountOfINS_11Group13Var1EEEvRKNS_12HeaderRecordEtRKNS_9NumParserERKN7openpal6RSliceERNS_12IAPDUHandlerE,comdat
	.align 2
	.p2align 4,,15
	.weak	_ZN8opendnp316CountIndexParser13InvokeCountOfINS_11Group13Var1EEEvRKNS_12HeaderRecordEtRKNS_9NumParserERKN7openpal6RSliceERNS_12IAPDUHandlerE
	.type	_ZN8opendnp316CountIndexParser13InvokeCountOfINS_11Group13Var1EEEvRKNS_12HeaderRecordEtRKNS_9NumParserERKN7openpal6RSliceERNS_12IAPDUHandlerE, @function
_ZN8opendnp316CountIndexParser13InvokeCountOfINS_11Group13Var1EEEvRKNS_12HeaderRecordEtRKNS_9NumParserERKN7openpal6RSliceERNS_12IAPDUHandlerE:
.LFB3063:
	.cfi_startproc
	subq	$88, %rsp
	.cfi_def_cfa_offset 96
	movq	%fs:40, %rax
	movq	%rax, 72(%rsp)
	xorl	%eax, %eax
	movq	_ZTVN8opendnp318BufferedCollectionINS_7IndexedINS_18BinaryCommandEventEEEZNS_16CountIndexParser13InvokeCountOfINS_11Group13Var1EEEvRKNS_12HeaderRecordEtRKNS_9NumParserERKN7openpal6RSliceERNS_12IAPDUHandlerEEUlRSE_jE_EE@GOTPCREL(%rip), %rax
	movq	%rdx, 64(%rsp)
	leaq	32(%rsp), %rdx
	movdqu	(%rcx), %xmm0
	movw	%si, 16(%rsp)
	addq	$16, %rax
	movups	%xmm0, 40(%rsp)
	movq	%rax, 32(%rsp)
	movzwl	%si, %eax
	movq	%rsp, %rsi
	movdqu	(%rdi), %xmm0
	movq	%r8, %rdi
	movq	%rax, 56(%rsp)
	movaps	%xmm0, (%rsp)
	call	_ZN8opendnp312IAPDUHandler8OnHeaderERKNS_12PrefixHeaderERKNS_11ICollectionINS_7IndexedINS_18BinaryCommandEventEEEEE@PLT
	movq	72(%rsp), %rax
	xorq	%fs:40, %rax
	jne	.L93
	addq	$88, %rsp
	.cfi_remember_state
	.cfi_def_cfa_offset 8
	ret
.L93:
	.cfi_restore_state
	call	__stack_chk_fail@PLT
	.cfi_endproc
.LFE3063:
	.size	_ZN8opendnp316CountIndexParser13InvokeCountOfINS_11Group13Var1EEEvRKNS_12HeaderRecordEtRKNS_9NumParserERKN7openpal6RSliceERNS_12IAPDUHandlerE, .-_ZN8opendnp316CountIndexParser13InvokeCountOfINS_11Group13Var1EEEvRKNS_12HeaderRecordEtRKNS_9NumParserERKN7openpal6RSliceERNS_12IAPDUHandlerE
	.section	.text._ZN8opendnp316CountIndexParser13InvokeCountOfINS_11Group13Var2EEEvRKNS_12HeaderRecordEtRKNS_9NumParserERKN7openpal6RSliceERNS_12IAPDUHandlerE,"axG",@progbits,_ZN8opendnp316CountIndexParser13InvokeCountOfINS_11Group13Var2EEEvRKNS_12HeaderRecordEtRKNS_9NumParserERKN7openpal6RSliceERNS_12IAPDUHandlerE,comdat
	.align 2
	.p2align 4,,15
	.weak	_ZN8opendnp316CountIndexParser13InvokeCountOfINS_11Group13Var2EEEvRKNS_12HeaderRecordEtRKNS_9NumParserERKN7openpal6RSliceERNS_12IAPDUHandlerE
	.type	_ZN8opendnp316CountIndexParser13InvokeCountOfINS_11Group13Var2EEEvRKNS_12HeaderRecordEtRKNS_9NumParserERKN7openpal6RSliceERNS_12IAPDUHandlerE, @function
_ZN8opendnp316CountIndexParser13InvokeCountOfINS_11Group13Var2EEEvRKNS_12HeaderRecordEtRKNS_9NumParserERKN7openpal6RSliceERNS_12IAPDUHandlerE:
.LFB3071:
	.cfi_startproc
	subq	$88, %rsp
	.cfi_def_cfa_offset 96
	movq	%fs:40, %rax
	movq	%rax, 72(%rsp)
	xorl	%eax, %eax
	movq	_ZTVN8opendnp318BufferedCollectionINS_7IndexedINS_18BinaryCommandEventEEEZNS_16CountIndexParser13InvokeCountOfINS_11Group13Var2EEEvRKNS_12HeaderRecordEtRKNS_9NumParserERKN7openpal6RSliceERNS_12IAPDUHandlerEEUlRSE_jE_EE@GOTPCREL(%rip), %rax
	movq	%rdx, 64(%rsp)
	leaq	32(%rsp), %rdx
	movdqu	(%rcx), %xmm0
	movw	%si, 16(%rsp)
	addq	$16, %rax
	movups	%xmm0, 40(%rsp)
	movq	%rax, 32(%rsp)
	movzwl	%si, %eax
	movq	%rsp, %rsi
	movdqu	(%rdi), %xmm0
	movq	%r8, %rdi
	movq	%rax, 56(%rsp)
	movaps	%xmm0, (%rsp)
	call	_ZN8opendnp312IAPDUHandler8OnHeaderERKNS_12PrefixHeaderERKNS_11ICollectionINS_7IndexedINS_18BinaryCommandEventEEEEE@PLT
	movq	72(%rsp), %rax
	xorq	%fs:40, %rax
	jne	.L97
	addq	$88, %rsp
	.cfi_remember_state
	.cfi_def_cfa_offset 8
	ret
.L97:
	.cfi_restore_state
	call	__stack_chk_fail@PLT
	.cfi_endproc
.LFE3071:
	.size	_ZN8opendnp316CountIndexParser13InvokeCountOfINS_11Group13Var2EEEvRKNS_12HeaderRecordEtRKNS_9NumParserERKN7openpal6RSliceERNS_12IAPDUHandlerE, .-_ZN8opendnp316CountIndexParser13InvokeCountOfINS_11Group13Var2EEEvRKNS_12HeaderRecordEtRKNS_9NumParserERKN7openpal6RSliceERNS_12IAPDUHandlerE
	.section	.text._ZN8opendnp316CountIndexParser13InvokeCountOfINS_11Group22Var1EEEvRKNS_12HeaderRecordEtRKNS_9NumParserERKN7openpal6RSliceERNS_12IAPDUHandlerE,"axG",@progbits,_ZN8opendnp316CountIndexParser13InvokeCountOfINS_11Group22Var1EEEvRKNS_12HeaderRecordEtRKNS_9NumParserERKN7openpal6RSliceERNS_12IAPDUHandlerE,comdat
	.align 2
	.p2align 4,,15
	.weak	_ZN8opendnp316CountIndexParser13InvokeCountOfINS_11Group22Var1EEEvRKNS_12HeaderRecordEtRKNS_9NumParserERKN7openpal6RSliceERNS_12IAPDUHandlerE
	.type	_ZN8opendnp316CountIndexParser13InvokeCountOfINS_11Group22Var1EEEvRKNS_12HeaderRecordEtRKNS_9NumParserERKN7openpal6RSliceERNS_12IAPDUHandlerE, @function
_ZN8opendnp316CountIndexParser13InvokeCountOfINS_11Group22Var1EEEvRKNS_12HeaderRecordEtRKNS_9NumParserERKN7openpal6RSliceERNS_12IAPDUHandlerE:
.LFB3076:
	.cfi_startproc
	subq	$88, %rsp
	.cfi_def_cfa_offset 96
	movq	%fs:40, %rax
	movq	%rax, 72(%rsp)
	xorl	%eax, %eax
	movq	_ZTVN8opendnp318BufferedCollectionINS_7IndexedINS_7CounterEEEZNS_16CountIndexParser13InvokeCountOfINS_11Group22Var1EEEvRKNS_12HeaderRecordEtRKNS_9NumParserERKN7openpal6RSliceERNS_12IAPDUHandlerEEUlRSE_jE_EE@GOTPCREL(%rip), %rax
	movq	%rdx, 64(%rsp)
	leaq	32(%rsp), %rdx
	movdqu	(%rcx), %xmm0
	movw	%si, 16(%rsp)
	addq	$16, %rax
	movups	%xmm0, 40(%rsp)
	movq	%rax, 32(%rsp)
	movzwl	%si, %eax
	movq	%rsp, %rsi
	movdqu	(%rdi), %xmm0
	movq	%r8, %rdi
	movq	%rax, 56(%rsp)
	movaps	%xmm0, (%rsp)
	call	_ZN8opendnp312IAPDUHandler8OnHeaderERKNS_12PrefixHeaderERKNS_11ICollectionINS_7IndexedINS_7CounterEEEEE@PLT
	movq	72(%rsp), %rax
	xorq	%fs:40, %rax
	jne	.L101
	addq	$88, %rsp
	.cfi_remember_state
	.cfi_def_cfa_offset 8
	ret
.L101:
	.cfi_restore_state
	call	__stack_chk_fail@PLT
	.cfi_endproc
.LFE3076:
	.size	_ZN8opendnp316CountIndexParser13InvokeCountOfINS_11Group22Var1EEEvRKNS_12HeaderRecordEtRKNS_9NumParserERKN7openpal6RSliceERNS_12IAPDUHandlerE, .-_ZN8opendnp316CountIndexParser13InvokeCountOfINS_11Group22Var1EEEvRKNS_12HeaderRecordEtRKNS_9NumParserERKN7openpal6RSliceERNS_12IAPDUHandlerE
	.section	.text._ZN8opendnp316CountIndexParser13InvokeCountOfINS_11Group22Var2EEEvRKNS_12HeaderRecordEtRKNS_9NumParserERKN7openpal6RSliceERNS_12IAPDUHandlerE,"axG",@progbits,_ZN8opendnp316CountIndexParser13InvokeCountOfINS_11Group22Var2EEEvRKNS_12HeaderRecordEtRKNS_9NumParserERKN7openpal6RSliceERNS_12IAPDUHandlerE,comdat
	.align 2
	.p2align 4,,15
	.weak	_ZN8opendnp316CountIndexParser13InvokeCountOfINS_11Group22Var2EEEvRKNS_12HeaderRecordEtRKNS_9NumParserERKN7openpal6RSliceERNS_12IAPDUHandlerE
	.type	_ZN8opendnp316CountIndexParser13InvokeCountOfINS_11Group22Var2EEEvRKNS_12HeaderRecordEtRKNS_9NumParserERKN7openpal6RSliceERNS_12IAPDUHandlerE, @function
_ZN8opendnp316CountIndexParser13InvokeCountOfINS_11Group22Var2EEEvRKNS_12HeaderRecordEtRKNS_9NumParserERKN7openpal6RSliceERNS_12IAPDUHandlerE:
.LFB3084:
	.cfi_startproc
	subq	$88, %rsp
	.cfi_def_cfa_offset 96
	movq	%fs:40, %rax
	movq	%rax, 72(%rsp)
	xorl	%eax, %eax
	movq	_ZTVN8opendnp318BufferedCollectionINS_7IndexedINS_7CounterEEEZNS_16CountIndexParser13InvokeCountOfINS_11Group22Var2EEEvRKNS_12HeaderRecordEtRKNS_9NumParserERKN7openpal6RSliceERNS_12IAPDUHandlerEEUlRSE_jE_EE@GOTPCREL(%rip), %rax
	movq	%rdx, 64(%rsp)
	leaq	32(%rsp), %rdx
	movdqu	(%rcx), %xmm0
	movw	%si, 16(%rsp)
	addq	$16, %rax
	movups	%xmm0, 40(%rsp)
	movq	%rax, 32(%rsp)
	movzwl	%si, %eax
	movq	%rsp, %rsi
	movdqu	(%rdi), %xmm0
	movq	%r8, %rdi
	movq	%rax, 56(%rsp)
	movaps	%xmm0, (%rsp)
	call	_ZN8opendnp312IAPDUHandler8OnHeaderERKNS_12PrefixHeaderERKNS_11ICollectionINS_7IndexedINS_7CounterEEEEE@PLT
	movq	72(%rsp), %rax
	xorq	%fs:40, %rax
	jne	.L105
	addq	$88, %rsp
	.cfi_remember_state
	.cfi_def_cfa_offset 8
	ret
.L105:
	.cfi_restore_state
	call	__stack_chk_fail@PLT
	.cfi_endproc
.LFE3084:
	.size	_ZN8opendnp316CountIndexParser13InvokeCountOfINS_11Group22Var2EEEvRKNS_12HeaderRecordEtRKNS_9NumParserERKN7openpal6RSliceERNS_12IAPDUHandlerE, .-_ZN8opendnp316CountIndexParser13InvokeCountOfINS_11Group22Var2EEEvRKNS_12HeaderRecordEtRKNS_9NumParserERKN7openpal6RSliceERNS_12IAPDUHandlerE
	.section	.text._ZN8opendnp316CountIndexParser13InvokeCountOfINS_11Group22Var5EEEvRKNS_12HeaderRecordEtRKNS_9NumParserERKN7openpal6RSliceERNS_12IAPDUHandlerE,"axG",@progbits,_ZN8opendnp316CountIndexParser13InvokeCountOfINS_11Group22Var5EEEvRKNS_12HeaderRecordEtRKNS_9NumParserERKN7openpal6RSliceERNS_12IAPDUHandlerE,comdat
	.align 2
	.p2align 4,,15
	.weak	_ZN8opendnp316CountIndexParser13InvokeCountOfINS_11Group22Var5EEEvRKNS_12HeaderRecordEtRKNS_9NumParserERKN7openpal6RSliceERNS_12IAPDUHandlerE
	.type	_ZN8opendnp316CountIndexParser13InvokeCountOfINS_11Group22Var5EEEvRKNS_12HeaderRecordEtRKNS_9NumParserERKN7openpal6RSliceERNS_12IAPDUHandlerE, @function
_ZN8opendnp316CountIndexParser13InvokeCountOfINS_11Group22Var5EEEvRKNS_12HeaderRecordEtRKNS_9NumParserERKN7openpal6RSliceERNS_12IAPDUHandlerE:
.LFB3089:
	.cfi_startproc
	subq	$88, %rsp
	.cfi_def_cfa_offset 96
	movq	%fs:40, %rax
	movq	%rax, 72(%rsp)
	xorl	%eax, %eax
	movq	_ZTVN8opendnp318BufferedCollectionINS_7IndexedINS_7CounterEEEZNS_16CountIndexParser13InvokeCountOfINS_11Group22Var5EEEvRKNS_12HeaderRecordEtRKNS_9NumParserERKN7openpal6RSliceERNS_12IAPDUHandlerEEUlRSE_jE_EE@GOTPCREL(%rip), %rax
	movq	%rdx, 64(%rsp)
	leaq	32(%rsp), %rdx
	movdqu	(%rcx), %xmm0
	movw	%si, 16(%rsp)
	addq	$16, %rax
	movups	%xmm0, 40(%rsp)
	movq	%rax, 32(%rsp)
	movzwl	%si, %eax
	movq	%rsp, %rsi
	movdqu	(%rdi), %xmm0
	movq	%r8, %rdi
	movq	%rax, 56(%rsp)
	movaps	%xmm0, (%rsp)
	call	_ZN8opendnp312IAPDUHandler8OnHeaderERKNS_12PrefixHeaderERKNS_11ICollectionINS_7IndexedINS_7CounterEEEEE@PLT
	movq	72(%rsp), %rax
	xorq	%fs:40, %rax
	jne	.L109
	addq	$88, %rsp
	.cfi_remember_state
	.cfi_def_cfa_offset 8
	ret
.L109:
	.cfi_restore_state
	call	__stack_chk_fail@PLT
	.cfi_endproc
.LFE3089:
	.size	_ZN8opendnp316CountIndexParser13InvokeCountOfINS_11Group22Var5EEEvRKNS_12HeaderRecordEtRKNS_9NumParserERKN7openpal6RSliceERNS_12IAPDUHandlerE, .-_ZN8opendnp316CountIndexParser13InvokeCountOfINS_11Group22Var5EEEvRKNS_12HeaderRecordEtRKNS_9NumParserERKN7openpal6RSliceERNS_12IAPDUHandlerE
	.section	.text._ZN8opendnp316CountIndexParser13InvokeCountOfINS_11Group22Var6EEEvRKNS_12HeaderRecordEtRKNS_9NumParserERKN7openpal6RSliceERNS_12IAPDUHandlerE,"axG",@progbits,_ZN8opendnp316CountIndexParser13InvokeCountOfINS_11Group22Var6EEEvRKNS_12HeaderRecordEtRKNS_9NumParserERKN7openpal6RSliceERNS_12IAPDUHandlerE,comdat
	.align 2
	.p2align 4,,15
	.weak	_ZN8opendnp316CountIndexParser13InvokeCountOfINS_11Group22Var6EEEvRKNS_12HeaderRecordEtRKNS_9NumParserERKN7openpal6RSliceERNS_12IAPDUHandlerE
	.type	_ZN8opendnp316CountIndexParser13InvokeCountOfINS_11Group22Var6EEEvRKNS_12HeaderRecordEtRKNS_9NumParserERKN7openpal6RSliceERNS_12IAPDUHandlerE, @function
_ZN8opendnp316CountIndexParser13InvokeCountOfINS_11Group22Var6EEEvRKNS_12HeaderRecordEtRKNS_9NumParserERKN7openpal6RSliceERNS_12IAPDUHandlerE:
.LFB3094:
	.cfi_startproc
	subq	$88, %rsp
	.cfi_def_cfa_offset 96
	movq	%fs:40, %rax
	movq	%rax, 72(%rsp)
	xorl	%eax, %eax
	movq	_ZTVN8opendnp318BufferedCollectionINS_7IndexedINS_7CounterEEEZNS_16CountIndexParser13InvokeCountOfINS_11Group22Var6EEEvRKNS_12HeaderRecordEtRKNS_9NumParserERKN7openpal6RSliceERNS_12IAPDUHandlerEEUlRSE_jE_EE@GOTPCREL(%rip), %rax
	movq	%rdx, 64(%rsp)
	leaq	32(%rsp), %rdx
	movdqu	(%rcx), %xmm0
	movw	%si, 16(%rsp)
	addq	$16, %rax
	movups	%xmm0, 40(%rsp)
	movq	%rax, 32(%rsp)
	movzwl	%si, %eax
	movq	%rsp, %rsi
	movdqu	(%rdi), %xmm0
	movq	%r8, %rdi
	movq	%rax, 56(%rsp)
	movaps	%xmm0, (%rsp)
	call	_ZN8opendnp312IAPDUHandler8OnHeaderERKNS_12PrefixHeaderERKNS_11ICollectionINS_7IndexedINS_7CounterEEEEE@PLT
	movq	72(%rsp), %rax
	xorq	%fs:40, %rax
	jne	.L113
	addq	$88, %rsp
	.cfi_remember_state
	.cfi_def_cfa_offset 8
	ret
.L113:
	.cfi_restore_state
	call	__stack_chk_fail@PLT
	.cfi_endproc
.LFE3094:
	.size	_ZN8opendnp316CountIndexParser13InvokeCountOfINS_11Group22Var6EEEvRKNS_12HeaderRecordEtRKNS_9NumParserERKN7openpal6RSliceERNS_12IAPDUHandlerE, .-_ZN8opendnp316CountIndexParser13InvokeCountOfINS_11Group22Var6EEEvRKNS_12HeaderRecordEtRKNS_9NumParserERKN7openpal6RSliceERNS_12IAPDUHandlerE
	.section	.text._ZN8opendnp316CountIndexParser13InvokeCountOfINS_11Group23Var1EEEvRKNS_12HeaderRecordEtRKNS_9NumParserERKN7openpal6RSliceERNS_12IAPDUHandlerE,"axG",@progbits,_ZN8opendnp316CountIndexParser13InvokeCountOfINS_11Group23Var1EEEvRKNS_12HeaderRecordEtRKNS_9NumParserERKN7openpal6RSliceERNS_12IAPDUHandlerE,comdat
	.align 2
	.p2align 4,,15
	.weak	_ZN8opendnp316CountIndexParser13InvokeCountOfINS_11Group23Var1EEEvRKNS_12HeaderRecordEtRKNS_9NumParserERKN7openpal6RSliceERNS_12IAPDUHandlerE
	.type	_ZN8opendnp316CountIndexParser13InvokeCountOfINS_11Group23Var1EEEvRKNS_12HeaderRecordEtRKNS_9NumParserERKN7openpal6RSliceERNS_12IAPDUHandlerE, @function
_ZN8opendnp316CountIndexParser13InvokeCountOfINS_11Group23Var1EEEvRKNS_12HeaderRecordEtRKNS_9NumParserERKN7openpal6RSliceERNS_12IAPDUHandlerE:
.LFB3099:
	.cfi_startproc
	subq	$88, %rsp
	.cfi_def_cfa_offset 96
	movq	%fs:40, %rax
	movq	%rax, 72(%rsp)
	xorl	%eax, %eax
	movq	_ZTVN8opendnp318BufferedCollectionINS_7IndexedINS_13FrozenCounterEEEZNS_16CountIndexParser13InvokeCountOfINS_11Group23Var1EEEvRKNS_12HeaderRecordEtRKNS_9NumParserERKN7openpal6RSliceERNS_12IAPDUHandlerEEUlRSE_jE_EE@GOTPCREL(%rip), %rax
	movq	%rdx, 64(%rsp)
	leaq	32(%rsp), %rdx
	movdqu	(%rcx), %xmm0
	movw	%si, 16(%rsp)
	addq	$16, %rax
	movups	%xmm0, 40(%rsp)
	movq	%rax, 32(%rsp)
	movzwl	%si, %eax
	movq	%rsp, %rsi
	movdqu	(%rdi), %xmm0
	movq	%r8, %rdi
	movq	%rax, 56(%rsp)
	movaps	%xmm0, (%rsp)
	call	_ZN8opendnp312IAPDUHandler8OnHeaderERKNS_12PrefixHeaderERKNS_11ICollectionINS_7IndexedINS_13FrozenCounterEEEEE@PLT
	movq	72(%rsp), %rax
	xorq	%fs:40, %rax
	jne	.L117
	addq	$88, %rsp
	.cfi_remember_state
	.cfi_def_cfa_offset 8
	ret
.L117:
	.cfi_restore_state
	call	__stack_chk_fail@PLT
	.cfi_endproc
.LFE3099:
	.size	_ZN8opendnp316CountIndexParser13InvokeCountOfINS_11Group23Var1EEEvRKNS_12HeaderRecordEtRKNS_9NumParserERKN7openpal6RSliceERNS_12IAPDUHandlerE, .-_ZN8opendnp316CountIndexParser13InvokeCountOfINS_11Group23Var1EEEvRKNS_12HeaderRecordEtRKNS_9NumParserERKN7openpal6RSliceERNS_12IAPDUHandlerE
	.section	.text._ZN8opendnp316CountIndexParser13InvokeCountOfINS_11Group23Var2EEEvRKNS_12HeaderRecordEtRKNS_9NumParserERKN7openpal6RSliceERNS_12IAPDUHandlerE,"axG",@progbits,_ZN8opendnp316CountIndexParser13InvokeCountOfINS_11Group23Var2EEEvRKNS_12HeaderRecordEtRKNS_9NumParserERKN7openpal6RSliceERNS_12IAPDUHandlerE,comdat
	.align 2
	.p2align 4,,15
	.weak	_ZN8opendnp316CountIndexParser13InvokeCountOfINS_11Group23Var2EEEvRKNS_12HeaderRecordEtRKNS_9NumParserERKN7openpal6RSliceERNS_12IAPDUHandlerE
	.type	_ZN8opendnp316CountIndexParser13InvokeCountOfINS_11Group23Var2EEEvRKNS_12HeaderRecordEtRKNS_9NumParserERKN7openpal6RSliceERNS_12IAPDUHandlerE, @function
_ZN8opendnp316CountIndexParser13InvokeCountOfINS_11Group23Var2EEEvRKNS_12HeaderRecordEtRKNS_9NumParserERKN7openpal6RSliceERNS_12IAPDUHandlerE:
.LFB3107:
	.cfi_startproc
	subq	$88, %rsp
	.cfi_def_cfa_offset 96
	movq	%fs:40, %rax
	movq	%rax, 72(%rsp)
	xorl	%eax, %eax
	movq	_ZTVN8opendnp318BufferedCollectionINS_7IndexedINS_13FrozenCounterEEEZNS_16CountIndexParser13InvokeCountOfINS_11Group23Var2EEEvRKNS_12HeaderRecordEtRKNS_9NumParserERKN7openpal6RSliceERNS_12IAPDUHandlerEEUlRSE_jE_EE@GOTPCREL(%rip), %rax
	movq	%rdx, 64(%rsp)
	leaq	32(%rsp), %rdx
	movdqu	(%rcx), %xmm0
	movw	%si, 16(%rsp)
	addq	$16, %rax
	movups	%xmm0, 40(%rsp)
	movq	%rax, 32(%rsp)
	movzwl	%si, %eax
	movq	%rsp, %rsi
	movdqu	(%rdi), %xmm0
	movq	%r8, %rdi
	movq	%rax, 56(%rsp)
	movaps	%xmm0, (%rsp)
	call	_ZN8opendnp312IAPDUHandler8OnHeaderERKNS_12PrefixHeaderERKNS_11ICollectionINS_7IndexedINS_13FrozenCounterEEEEE@PLT
	movq	72(%rsp), %rax
	xorq	%fs:40, %rax
	jne	.L121
	addq	$88, %rsp
	.cfi_remember_state
	.cfi_def_cfa_offset 8
	ret
.L121:
	.cfi_restore_state
	call	__stack_chk_fail@PLT
	.cfi_endproc
.LFE3107:
	.size	_ZN8opendnp316CountIndexParser13InvokeCountOfINS_11Group23Var2EEEvRKNS_12HeaderRecordEtRKNS_9NumParserERKN7openpal6RSliceERNS_12IAPDUHandlerE, .-_ZN8opendnp316CountIndexParser13InvokeCountOfINS_11Group23Var2EEEvRKNS_12HeaderRecordEtRKNS_9NumParserERKN7openpal6RSliceERNS_12IAPDUHandlerE
	.section	.text._ZN8opendnp316CountIndexParser13InvokeCountOfINS_11Group23Var5EEEvRKNS_12HeaderRecordEtRKNS_9NumParserERKN7openpal6RSliceERNS_12IAPDUHandlerE,"axG",@progbits,_ZN8opendnp316CountIndexParser13InvokeCountOfINS_11Group23Var5EEEvRKNS_12HeaderRecordEtRKNS_9NumParserERKN7openpal6RSliceERNS_12IAPDUHandlerE,comdat
	.align 2
	.p2align 4,,15
	.weak	_ZN8opendnp316CountIndexParser13InvokeCountOfINS_11Group23Var5EEEvRKNS_12HeaderRecordEtRKNS_9NumParserERKN7openpal6RSliceERNS_12IAPDUHandlerE
	.type	_ZN8opendnp316CountIndexParser13InvokeCountOfINS_11Group23Var5EEEvRKNS_12HeaderRecordEtRKNS_9NumParserERKN7openpal6RSliceERNS_12IAPDUHandlerE, @function
_ZN8opendnp316CountIndexParser13InvokeCountOfINS_11Group23Var5EEEvRKNS_12HeaderRecordEtRKNS_9NumParserERKN7openpal6RSliceERNS_12IAPDUHandlerE:
.LFB3112:
	.cfi_startproc
	subq	$88, %rsp
	.cfi_def_cfa_offset 96
	movq	%fs:40, %rax
	movq	%rax, 72(%rsp)
	xorl	%eax, %eax
	movq	_ZTVN8opendnp318BufferedCollectionINS_7IndexedINS_13FrozenCounterEEEZNS_16CountIndexParser13InvokeCountOfINS_11Group23Var5EEEvRKNS_12HeaderRecordEtRKNS_9NumParserERKN7openpal6RSliceERNS_12IAPDUHandlerEEUlRSE_jE_EE@GOTPCREL(%rip), %rax
	movq	%rdx, 64(%rsp)
	leaq	32(%rsp), %rdx
	movdqu	(%rcx), %xmm0
	movw	%si, 16(%rsp)
	addq	$16, %rax
	movups	%xmm0, 40(%rsp)
	movq	%rax, 32(%rsp)
	movzwl	%si, %eax
	movq	%rsp, %rsi
	movdqu	(%rdi), %xmm0
	movq	%r8, %rdi
	movq	%rax, 56(%rsp)
	movaps	%xmm0, (%rsp)
	call	_ZN8opendnp312IAPDUHandler8OnHeaderERKNS_12PrefixHeaderERKNS_11ICollectionINS_7IndexedINS_13FrozenCounterEEEEE@PLT
	movq	72(%rsp), %rax
	xorq	%fs:40, %rax
	jne	.L125
	addq	$88, %rsp
	.cfi_remember_state
	.cfi_def_cfa_offset 8
	ret
.L125:
	.cfi_restore_state
	call	__stack_chk_fail@PLT
	.cfi_endproc
.LFE3112:
	.size	_ZN8opendnp316CountIndexParser13InvokeCountOfINS_11Group23Var5EEEvRKNS_12HeaderRecordEtRKNS_9NumParserERKN7openpal6RSliceERNS_12IAPDUHandlerE, .-_ZN8opendnp316CountIndexParser13InvokeCountOfINS_11Group23Var5EEEvRKNS_12HeaderRecordEtRKNS_9NumParserERKN7openpal6RSliceERNS_12IAPDUHandlerE
	.section	.text._ZN8opendnp316CountIndexParser13InvokeCountOfINS_11Group23Var6EEEvRKNS_12HeaderRecordEtRKNS_9NumParserERKN7openpal6RSliceERNS_12IAPDUHandlerE,"axG",@progbits,_ZN8opendnp316CountIndexParser13InvokeCountOfINS_11Group23Var6EEEvRKNS_12HeaderRecordEtRKNS_9NumParserERKN7openpal6RSliceERNS_12IAPDUHandlerE,comdat
	.align 2
	.p2align 4,,15
	.weak	_ZN8opendnp316CountIndexParser13InvokeCountOfINS_11Group23Var6EEEvRKNS_12HeaderRecordEtRKNS_9NumParserERKN7openpal6RSliceERNS_12IAPDUHandlerE
	.type	_ZN8opendnp316CountIndexParser13InvokeCountOfINS_11Group23Var6EEEvRKNS_12HeaderRecordEtRKNS_9NumParserERKN7openpal6RSliceERNS_12IAPDUHandlerE, @function
_ZN8opendnp316CountIndexParser13InvokeCountOfINS_11Group23Var6EEEvRKNS_12HeaderRecordEtRKNS_9NumParserERKN7openpal6RSliceERNS_12IAPDUHandlerE:
.LFB3117:
	.cfi_startproc
	subq	$88, %rsp
	.cfi_def_cfa_offset 96
	movq	%fs:40, %rax
	movq	%rax, 72(%rsp)
	xorl	%eax, %eax
	movq	_ZTVN8opendnp318BufferedCollectionINS_7IndexedINS_13FrozenCounterEEEZNS_16CountIndexParser13InvokeCountOfINS_11Group23Var6EEEvRKNS_12HeaderRecordEtRKNS_9NumParserERKN7openpal6RSliceERNS_12IAPDUHandlerEEUlRSE_jE_EE@GOTPCREL(%rip), %rax
	movq	%rdx, 64(%rsp)
	leaq	32(%rsp), %rdx
	movdqu	(%rcx), %xmm0
	movw	%si, 16(%rsp)
	addq	$16, %rax
	movups	%xmm0, 40(%rsp)
	movq	%rax, 32(%rsp)
	movzwl	%si, %eax
	movq	%rsp, %rsi
	movdqu	(%rdi), %xmm0
	movq	%r8, %rdi
	movq	%rax, 56(%rsp)
	movaps	%xmm0, (%rsp)
	call	_ZN8opendnp312IAPDUHandler8OnHeaderERKNS_12PrefixHeaderERKNS_11ICollectionINS_7IndexedINS_13FrozenCounterEEEEE@PLT
	movq	72(%rsp), %rax
	xorq	%fs:40, %rax
	jne	.L129
	addq	$88, %rsp
	.cfi_remember_state
	.cfi_def_cfa_offset 8
	ret
.L129:
	.cfi_restore_state
	call	__stack_chk_fail@PLT
	.cfi_endproc
.LFE3117:
	.size	_ZN8opendnp316CountIndexParser13InvokeCountOfINS_11Group23Var6EEEvRKNS_12HeaderRecordEtRKNS_9NumParserERKN7openpal6RSliceERNS_12IAPDUHandlerE, .-_ZN8opendnp316CountIndexParser13InvokeCountOfINS_11Group23Var6EEEvRKNS_12HeaderRecordEtRKNS_9NumParserERKN7openpal6RSliceERNS_12IAPDUHandlerE
	.section	.text._ZN8opendnp316CountIndexParser13InvokeCountOfINS_11Group32Var1EEEvRKNS_12HeaderRecordEtRKNS_9NumParserERKN7openpal6RSliceERNS_12IAPDUHandlerE,"axG",@progbits,_ZN8opendnp316CountIndexParser13InvokeCountOfINS_11Group32Var1EEEvRKNS_12HeaderRecordEtRKNS_9NumParserERKN7openpal6RSliceERNS_12IAPDUHandlerE,comdat
	.align 2
	.p2align 4,,15
	.weak	_ZN8opendnp316CountIndexParser13InvokeCountOfINS_11Group32Var1EEEvRKNS_12HeaderRecordEtRKNS_9NumParserERKN7openpal6RSliceERNS_12IAPDUHandlerE
	.type	_ZN8opendnp316CountIndexParser13InvokeCountOfINS_11Group32Var1EEEvRKNS_12HeaderRecordEtRKNS_9NumParserERKN7openpal6RSliceERNS_12IAPDUHandlerE, @function
_ZN8opendnp316CountIndexParser13InvokeCountOfINS_11Group32Var1EEEvRKNS_12HeaderRecordEtRKNS_9NumParserERKN7openpal6RSliceERNS_12IAPDUHandlerE:
.LFB3122:
	.cfi_startproc
	subq	$88, %rsp
	.cfi_def_cfa_offset 96
	movq	%fs:40, %rax
	movq	%rax, 72(%rsp)
	xorl	%eax, %eax
	movq	_ZTVN8opendnp318BufferedCollectionINS_7IndexedINS_6AnalogEEEZNS_16CountIndexParser13InvokeCountOfINS_11Group32Var1EEEvRKNS_12HeaderRecordEtRKNS_9NumParserERKN7openpal6RSliceERNS_12IAPDUHandlerEEUlRSE_jE_EE@GOTPCREL(%rip), %rax
	movq	%rdx, 64(%rsp)
	leaq	32(%rsp), %rdx
	movdqu	(%rcx), %xmm0
	movw	%si, 16(%rsp)
	addq	$16, %rax
	movups	%xmm0, 40(%rsp)
	movq	%rax, 32(%rsp)
	movzwl	%si, %eax
	movq	%rsp, %rsi
	movdqu	(%rdi), %xmm0
	movq	%r8, %rdi
	movq	%rax, 56(%rsp)
	movaps	%xmm0, (%rsp)
	call	_ZN8opendnp312IAPDUHandler8OnHeaderERKNS_12PrefixHeaderERKNS_11ICollectionINS_7IndexedINS_6AnalogEEEEE@PLT
	movq	72(%rsp), %rax
	xorq	%fs:40, %rax
	jne	.L133
	addq	$88, %rsp
	.cfi_remember_state
	.cfi_def_cfa_offset 8
	ret
.L133:
	.cfi_restore_state
	call	__stack_chk_fail@PLT
	.cfi_endproc
.LFE3122:
	.size	_ZN8opendnp316CountIndexParser13InvokeCountOfINS_11Group32Var1EEEvRKNS_12HeaderRecordEtRKNS_9NumParserERKN7openpal6RSliceERNS_12IAPDUHandlerE, .-_ZN8opendnp316CountIndexParser13InvokeCountOfINS_11Group32Var1EEEvRKNS_12HeaderRecordEtRKNS_9NumParserERKN7openpal6RSliceERNS_12IAPDUHandlerE
	.section	.text._ZN8opendnp316CountIndexParser13InvokeCountOfINS_11Group32Var2EEEvRKNS_12HeaderRecordEtRKNS_9NumParserERKN7openpal6RSliceERNS_12IAPDUHandlerE,"axG",@progbits,_ZN8opendnp316CountIndexParser13InvokeCountOfINS_11Group32Var2EEEvRKNS_12HeaderRecordEtRKNS_9NumParserERKN7openpal6RSliceERNS_12IAPDUHandlerE,comdat
	.align 2
	.p2align 4,,15
	.weak	_ZN8opendnp316CountIndexParser13InvokeCountOfINS_11Group32Var2EEEvRKNS_12HeaderRecordEtRKNS_9NumParserERKN7openpal6RSliceERNS_12IAPDUHandlerE
	.type	_ZN8opendnp316CountIndexParser13InvokeCountOfINS_11Group32Var2EEEvRKNS_12HeaderRecordEtRKNS_9NumParserERKN7openpal6RSliceERNS_12IAPDUHandlerE, @function
_ZN8opendnp316CountIndexParser13InvokeCountOfINS_11Group32Var2EEEvRKNS_12HeaderRecordEtRKNS_9NumParserERKN7openpal6RSliceERNS_12IAPDUHandlerE:
.LFB3130:
	.cfi_startproc
	subq	$88, %rsp
	.cfi_def_cfa_offset 96
	movq	%fs:40, %rax
	movq	%rax, 72(%rsp)
	xorl	%eax, %eax
	movq	_ZTVN8opendnp318BufferedCollectionINS_7IndexedINS_6AnalogEEEZNS_16CountIndexParser13InvokeCountOfINS_11Group32Var2EEEvRKNS_12HeaderRecordEtRKNS_9NumParserERKN7openpal6RSliceERNS_12IAPDUHandlerEEUlRSE_jE_EE@GOTPCREL(%rip), %rax
	movq	%rdx, 64(%rsp)
	leaq	32(%rsp), %rdx
	movdqu	(%rcx), %xmm0
	movw	%si, 16(%rsp)
	addq	$16, %rax
	movups	%xmm0, 40(%rsp)
	movq	%rax, 32(%rsp)
	movzwl	%si, %eax
	movq	%rsp, %rsi
	movdqu	(%rdi), %xmm0
	movq	%r8, %rdi
	movq	%rax, 56(%rsp)
	movaps	%xmm0, (%rsp)
	call	_ZN8opendnp312IAPDUHandler8OnHeaderERKNS_12PrefixHeaderERKNS_11ICollectionINS_7IndexedINS_6AnalogEEEEE@PLT
	movq	72(%rsp), %rax
	xorq	%fs:40, %rax
	jne	.L137
	addq	$88, %rsp
	.cfi_remember_state
	.cfi_def_cfa_offset 8
	ret
.L137:
	.cfi_restore_state
	call	__stack_chk_fail@PLT
	.cfi_endproc
.LFE3130:
	.size	_ZN8opendnp316CountIndexParser13InvokeCountOfINS_11Group32Var2EEEvRKNS_12HeaderRecordEtRKNS_9NumParserERKN7openpal6RSliceERNS_12IAPDUHandlerE, .-_ZN8opendnp316CountIndexParser13InvokeCountOfINS_11Group32Var2EEEvRKNS_12HeaderRecordEtRKNS_9NumParserERKN7openpal6RSliceERNS_12IAPDUHandlerE
	.section	.text._ZN8opendnp316CountIndexParser13InvokeCountOfINS_11Group32Var3EEEvRKNS_12HeaderRecordEtRKNS_9NumParserERKN7openpal6RSliceERNS_12IAPDUHandlerE,"axG",@progbits,_ZN8opendnp316CountIndexParser13InvokeCountOfINS_11Group32Var3EEEvRKNS_12HeaderRecordEtRKNS_9NumParserERKN7openpal6RSliceERNS_12IAPDUHandlerE,comdat
	.align 2
	.p2align 4,,15
	.weak	_ZN8opendnp316CountIndexParser13InvokeCountOfINS_11Group32Var3EEEvRKNS_12HeaderRecordEtRKNS_9NumParserERKN7openpal6RSliceERNS_12IAPDUHandlerE
	.type	_ZN8opendnp316CountIndexParser13InvokeCountOfINS_11Group32Var3EEEvRKNS_12HeaderRecordEtRKNS_9NumParserERKN7openpal6RSliceERNS_12IAPDUHandlerE, @function
_ZN8opendnp316CountIndexParser13InvokeCountOfINS_11Group32Var3EEEvRKNS_12HeaderRecordEtRKNS_9NumParserERKN7openpal6RSliceERNS_12IAPDUHandlerE:
.LFB3135:
	.cfi_startproc
	subq	$88, %rsp
	.cfi_def_cfa_offset 96
	movq	%fs:40, %rax
	movq	%rax, 72(%rsp)
	xorl	%eax, %eax
	movq	_ZTVN8opendnp318BufferedCollectionINS_7IndexedINS_6AnalogEEEZNS_16CountIndexParser13InvokeCountOfINS_11Group32Var3EEEvRKNS_12HeaderRecordEtRKNS_9NumParserERKN7openpal6RSliceERNS_12IAPDUHandlerEEUlRSE_jE_EE@GOTPCREL(%rip), %rax
	movq	%rdx, 64(%rsp)
	leaq	32(%rsp), %rdx
	movdqu	(%rcx), %xmm0
	movw	%si, 16(%rsp)
	addq	$16, %rax
	movups	%xmm0, 40(%rsp)
	movq	%rax, 32(%rsp)
	movzwl	%si, %eax
	movq	%rsp, %rsi
	movdqu	(%rdi), %xmm0
	movq	%r8, %rdi
	movq	%rax, 56(%rsp)
	movaps	%xmm0, (%rsp)
	call	_ZN8opendnp312IAPDUHandler8OnHeaderERKNS_12PrefixHeaderERKNS_11ICollectionINS_7IndexedINS_6AnalogEEEEE@PLT
	movq	72(%rsp), %rax
	xorq	%fs:40, %rax
	jne	.L141
	addq	$88, %rsp
	.cfi_remember_state
	.cfi_def_cfa_offset 8
	ret
.L141:
	.cfi_restore_state
	call	__stack_chk_fail@PLT
	.cfi_endproc
.LFE3135:
	.size	_ZN8opendnp316CountIndexParser13InvokeCountOfINS_11Group32Var3EEEvRKNS_12HeaderRecordEtRKNS_9NumParserERKN7openpal6RSliceERNS_12IAPDUHandlerE, .-_ZN8opendnp316CountIndexParser13InvokeCountOfINS_11Group32Var3EEEvRKNS_12HeaderRecordEtRKNS_9NumParserERKN7openpal6RSliceERNS_12IAPDUHandlerE
	.section	.text._ZN8opendnp316CountIndexParser13InvokeCountOfINS_11Group32Var4EEEvRKNS_12HeaderRecordEtRKNS_9NumParserERKN7openpal6RSliceERNS_12IAPDUHandlerE,"axG",@progbits,_ZN8opendnp316CountIndexParser13InvokeCountOfINS_11Group32Var4EEEvRKNS_12HeaderRecordEtRKNS_9NumParserERKN7openpal6RSliceERNS_12IAPDUHandlerE,comdat
	.align 2
	.p2align 4,,15
	.weak	_ZN8opendnp316CountIndexParser13InvokeCountOfINS_11Group32Var4EEEvRKNS_12HeaderRecordEtRKNS_9NumParserERKN7openpal6RSliceERNS_12IAPDUHandlerE
	.type	_ZN8opendnp316CountIndexParser13InvokeCountOfINS_11Group32Var4EEEvRKNS_12HeaderRecordEtRKNS_9NumParserERKN7openpal6RSliceERNS_12IAPDUHandlerE, @function
_ZN8opendnp316CountIndexParser13InvokeCountOfINS_11Group32Var4EEEvRKNS_12HeaderRecordEtRKNS_9NumParserERKN7openpal6RSliceERNS_12IAPDUHandlerE:
.LFB3140:
	.cfi_startproc
	subq	$88, %rsp
	.cfi_def_cfa_offset 96
	movq	%fs:40, %rax
	movq	%rax, 72(%rsp)
	xorl	%eax, %eax
	movq	_ZTVN8opendnp318BufferedCollectionINS_7IndexedINS_6AnalogEEEZNS_16CountIndexParser13InvokeCountOfINS_11Group32Var4EEEvRKNS_12HeaderRecordEtRKNS_9NumParserERKN7openpal6RSliceERNS_12IAPDUHandlerEEUlRSE_jE_EE@GOTPCREL(%rip), %rax
	movq	%rdx, 64(%rsp)
	leaq	32(%rsp), %rdx
	movdqu	(%rcx), %xmm0
	movw	%si, 16(%rsp)
	addq	$16, %rax
	movups	%xmm0, 40(%rsp)
	movq	%rax, 32(%rsp)
	movzwl	%si, %eax
	movq	%rsp, %rsi
	movdqu	(%rdi), %xmm0
	movq	%r8, %rdi
	movq	%rax, 56(%rsp)
	movaps	%xmm0, (%rsp)
	call	_ZN8opendnp312IAPDUHandler8OnHeaderERKNS_12PrefixHeaderERKNS_11ICollectionINS_7IndexedINS_6AnalogEEEEE@PLT
	movq	72(%rsp), %rax
	xorq	%fs:40, %rax
	jne	.L145
	addq	$88, %rsp
	.cfi_remember_state
	.cfi_def_cfa_offset 8
	ret
.L145:
	.cfi_restore_state
	call	__stack_chk_fail@PLT
	.cfi_endproc
.LFE3140:
	.size	_ZN8opendnp316CountIndexParser13InvokeCountOfINS_11Group32Var4EEEvRKNS_12HeaderRecordEtRKNS_9NumParserERKN7openpal6RSliceERNS_12IAPDUHandlerE, .-_ZN8opendnp316CountIndexParser13InvokeCountOfINS_11Group32Var4EEEvRKNS_12HeaderRecordEtRKNS_9NumParserERKN7openpal6RSliceERNS_12IAPDUHandlerE
	.section	.text._ZN8opendnp316CountIndexParser13InvokeCountOfINS_11Group32Var5EEEvRKNS_12HeaderRecordEtRKNS_9NumParserERKN7openpal6RSliceERNS_12IAPDUHandlerE,"axG",@progbits,_ZN8opendnp316CountIndexParser13InvokeCountOfINS_11Group32Var5EEEvRKNS_12HeaderRecordEtRKNS_9NumParserERKN7openpal6RSliceERNS_12IAPDUHandlerE,comdat
	.align 2
	.p2align 4,,15
	.weak	_ZN8opendnp316CountIndexParser13InvokeCountOfINS_11Group32Var5EEEvRKNS_12HeaderRecordEtRKNS_9NumParserERKN7openpal6RSliceERNS_12IAPDUHandlerE
	.type	_ZN8opendnp316CountIndexParser13InvokeCountOfINS_11Group32Var5EEEvRKNS_12HeaderRecordEtRKNS_9NumParserERKN7openpal6RSliceERNS_12IAPDUHandlerE, @function
_ZN8opendnp316CountIndexParser13InvokeCountOfINS_11Group32Var5EEEvRKNS_12HeaderRecordEtRKNS_9NumParserERKN7openpal6RSliceERNS_12IAPDUHandlerE:
.LFB3145:
	.cfi_startproc
	subq	$88, %rsp
	.cfi_def_cfa_offset 96
	movq	%fs:40, %rax
	movq	%rax, 72(%rsp)
	xorl	%eax, %eax
	movq	_ZTVN8opendnp318BufferedCollectionINS_7IndexedINS_6AnalogEEEZNS_16CountIndexParser13InvokeCountOfINS_11Group32Var5EEEvRKNS_12HeaderRecordEtRKNS_9NumParserERKN7openpal6RSliceERNS_12IAPDUHandlerEEUlRSE_jE_EE@GOTPCREL(%rip), %rax
	movq	%rdx, 64(%rsp)
	leaq	32(%rsp), %rdx
	movdqu	(%rcx), %xmm0
	movw	%si, 16(%rsp)
	addq	$16, %rax
	movups	%xmm0, 40(%rsp)
	movq	%rax, 32(%rsp)
	movzwl	%si, %eax
	movq	%rsp, %rsi
	movdqu	(%rdi), %xmm0
	movq	%r8, %rdi
	movq	%rax, 56(%rsp)
	movaps	%xmm0, (%rsp)
	call	_ZN8opendnp312IAPDUHandler8OnHeaderERKNS_12PrefixHeaderERKNS_11ICollectionINS_7IndexedINS_6AnalogEEEEE@PLT
	movq	72(%rsp), %rax
	xorq	%fs:40, %rax
	jne	.L149
	addq	$88, %rsp
	.cfi_remember_state
	.cfi_def_cfa_offset 8
	ret
.L149:
	.cfi_restore_state
	call	__stack_chk_fail@PLT
	.cfi_endproc
.LFE3145:
	.size	_ZN8opendnp316CountIndexParser13InvokeCountOfINS_11Group32Var5EEEvRKNS_12HeaderRecordEtRKNS_9NumParserERKN7openpal6RSliceERNS_12IAPDUHandlerE, .-_ZN8opendnp316CountIndexParser13InvokeCountOfINS_11Group32Var5EEEvRKNS_12HeaderRecordEtRKNS_9NumParserERKN7openpal6RSliceERNS_12IAPDUHandlerE
	.section	.text._ZN8opendnp316CountIndexParser13InvokeCountOfINS_11Group32Var6EEEvRKNS_12HeaderRecordEtRKNS_9NumParserERKN7openpal6RSliceERNS_12IAPDUHandlerE,"axG",@progbits,_ZN8opendnp316CountIndexParser13InvokeCountOfINS_11Group32Var6EEEvRKNS_12HeaderRecordEtRKNS_9NumParserERKN7openpal6RSliceERNS_12IAPDUHandlerE,comdat
	.align 2
	.p2align 4,,15
	.weak	_ZN8opendnp316CountIndexParser13InvokeCountOfINS_11Group32Var6EEEvRKNS_12HeaderRecordEtRKNS_9NumParserERKN7openpal6RSliceERNS_12IAPDUHandlerE
	.type	_ZN8opendnp316CountIndexParser13InvokeCountOfINS_11Group32Var6EEEvRKNS_12HeaderRecordEtRKNS_9NumParserERKN7openpal6RSliceERNS_12IAPDUHandlerE, @function
_ZN8opendnp316CountIndexParser13InvokeCountOfINS_11Group32Var6EEEvRKNS_12HeaderRecordEtRKNS_9NumParserERKN7openpal6RSliceERNS_12IAPDUHandlerE:
.LFB3150:
	.cfi_startproc
	subq	$88, %rsp
	.cfi_def_cfa_offset 96
	movq	%fs:40, %rax
	movq	%rax, 72(%rsp)
	xorl	%eax, %eax
	movq	_ZTVN8opendnp318BufferedCollectionINS_7IndexedINS_6AnalogEEEZNS_16CountIndexParser13InvokeCountOfINS_11Group32Var6EEEvRKNS_12HeaderRecordEtRKNS_9NumParserERKN7openpal6RSliceERNS_12IAPDUHandlerEEUlRSE_jE_EE@GOTPCREL(%rip), %rax
	movq	%rdx, 64(%rsp)
	leaq	32(%rsp), %rdx
	movdqu	(%rcx), %xmm0
	movw	%si, 16(%rsp)
	addq	$16, %rax
	movups	%xmm0, 40(%rsp)
	movq	%rax, 32(%rsp)
	movzwl	%si, %eax
	movq	%rsp, %rsi
	movdqu	(%rdi), %xmm0
	movq	%r8, %rdi
	movq	%rax, 56(%rsp)
	movaps	%xmm0, (%rsp)
	call	_ZN8opendnp312IAPDUHandler8OnHeaderERKNS_12PrefixHeaderERKNS_11ICollectionINS_7IndexedINS_6AnalogEEEEE@PLT
	movq	72(%rsp), %rax
	xorq	%fs:40, %rax
	jne	.L153
	addq	$88, %rsp
	.cfi_remember_state
	.cfi_def_cfa_offset 8
	ret
.L153:
	.cfi_restore_state
	call	__stack_chk_fail@PLT
	.cfi_endproc
.LFE3150:
	.size	_ZN8opendnp316CountIndexParser13InvokeCountOfINS_11Group32Var6EEEvRKNS_12HeaderRecordEtRKNS_9NumParserERKN7openpal6RSliceERNS_12IAPDUHandlerE, .-_ZN8opendnp316CountIndexParser13InvokeCountOfINS_11Group32Var6EEEvRKNS_12HeaderRecordEtRKNS_9NumParserERKN7openpal6RSliceERNS_12IAPDUHandlerE
	.section	.text._ZN8opendnp316CountIndexParser13InvokeCountOfINS_11Group32Var7EEEvRKNS_12HeaderRecordEtRKNS_9NumParserERKN7openpal6RSliceERNS_12IAPDUHandlerE,"axG",@progbits,_ZN8opendnp316CountIndexParser13InvokeCountOfINS_11Group32Var7EEEvRKNS_12HeaderRecordEtRKNS_9NumParserERKN7openpal6RSliceERNS_12IAPDUHandlerE,comdat
	.align 2
	.p2align 4,,15
	.weak	_ZN8opendnp316CountIndexParser13InvokeCountOfINS_11Group32Var7EEEvRKNS_12HeaderRecordEtRKNS_9NumParserERKN7openpal6RSliceERNS_12IAPDUHandlerE
	.type	_ZN8opendnp316CountIndexParser13InvokeCountOfINS_11Group32Var7EEEvRKNS_12HeaderRecordEtRKNS_9NumParserERKN7openpal6RSliceERNS_12IAPDUHandlerE, @function
_ZN8opendnp316CountIndexParser13InvokeCountOfINS_11Group32Var7EEEvRKNS_12HeaderRecordEtRKNS_9NumParserERKN7openpal6RSliceERNS_12IAPDUHandlerE:
.LFB3155:
	.cfi_startproc
	subq	$88, %rsp
	.cfi_def_cfa_offset 96
	movq	%fs:40, %rax
	movq	%rax, 72(%rsp)
	xorl	%eax, %eax
	movq	_ZTVN8opendnp318BufferedCollectionINS_7IndexedINS_6AnalogEEEZNS_16CountIndexParser13InvokeCountOfINS_11Group32Var7EEEvRKNS_12HeaderRecordEtRKNS_9NumParserERKN7openpal6RSliceERNS_12IAPDUHandlerEEUlRSE_jE_EE@GOTPCREL(%rip), %rax
	movq	%rdx, 64(%rsp)
	leaq	32(%rsp), %rdx
	movdqu	(%rcx), %xmm0
	movw	%si, 16(%rsp)
	addq	$16, %rax
	movups	%xmm0, 40(%rsp)
	movq	%rax, 32(%rsp)
	movzwl	%si, %eax
	movq	%rsp, %rsi
	movdqu	(%rdi), %xmm0
	movq	%r8, %rdi
	movq	%rax, 56(%rsp)
	movaps	%xmm0, (%rsp)
	call	_ZN8opendnp312IAPDUHandler8OnHeaderERKNS_12PrefixHeaderERKNS_11ICollectionINS_7IndexedINS_6AnalogEEEEE@PLT
	movq	72(%rsp), %rax
	xorq	%fs:40, %rax
	jne	.L157
	addq	$88, %rsp
	.cfi_remember_state
	.cfi_def_cfa_offset 8
	ret
.L157:
	.cfi_restore_state
	call	__stack_chk_fail@PLT
	.cfi_endproc
.LFE3155:
	.size	_ZN8opendnp316CountIndexParser13InvokeCountOfINS_11Group32Var7EEEvRKNS_12HeaderRecordEtRKNS_9NumParserERKN7openpal6RSliceERNS_12IAPDUHandlerE, .-_ZN8opendnp316CountIndexParser13InvokeCountOfINS_11Group32Var7EEEvRKNS_12HeaderRecordEtRKNS_9NumParserERKN7openpal6RSliceERNS_12IAPDUHandlerE
	.section	.text._ZN8opendnp316CountIndexParser13InvokeCountOfINS_11Group32Var8EEEvRKNS_12HeaderRecordEtRKNS_9NumParserERKN7openpal6RSliceERNS_12IAPDUHandlerE,"axG",@progbits,_ZN8opendnp316CountIndexParser13InvokeCountOfINS_11Group32Var8EEEvRKNS_12HeaderRecordEtRKNS_9NumParserERKN7openpal6RSliceERNS_12IAPDUHandlerE,comdat
	.align 2
	.p2align 4,,15
	.weak	_ZN8opendnp316CountIndexParser13InvokeCountOfINS_11Group32Var8EEEvRKNS_12HeaderRecordEtRKNS_9NumParserERKN7openpal6RSliceERNS_12IAPDUHandlerE
	.type	_ZN8opendnp316CountIndexParser13InvokeCountOfINS_11Group32Var8EEEvRKNS_12HeaderRecordEtRKNS_9NumParserERKN7openpal6RSliceERNS_12IAPDUHandlerE, @function
_ZN8opendnp316CountIndexParser13InvokeCountOfINS_11Group32Var8EEEvRKNS_12HeaderRecordEtRKNS_9NumParserERKN7openpal6RSliceERNS_12IAPDUHandlerE:
.LFB3160:
	.cfi_startproc
	subq	$88, %rsp
	.cfi_def_cfa_offset 96
	movq	%fs:40, %rax
	movq	%rax, 72(%rsp)
	xorl	%eax, %eax
	movq	_ZTVN8opendnp318BufferedCollectionINS_7IndexedINS_6AnalogEEEZNS_16CountIndexParser13InvokeCountOfINS_11Group32Var8EEEvRKNS_12HeaderRecordEtRKNS_9NumParserERKN7openpal6RSliceERNS_12IAPDUHandlerEEUlRSE_jE_EE@GOTPCREL(%rip), %rax
	movq	%rdx, 64(%rsp)
	leaq	32(%rsp), %rdx
	movdqu	(%rcx), %xmm0
	movw	%si, 16(%rsp)
	addq	$16, %rax
	movups	%xmm0, 40(%rsp)
	movq	%rax, 32(%rsp)
	movzwl	%si, %eax
	movq	%rsp, %rsi
	movdqu	(%rdi), %xmm0
	movq	%r8, %rdi
	movq	%rax, 56(%rsp)
	movaps	%xmm0, (%rsp)
	call	_ZN8opendnp312IAPDUHandler8OnHeaderERKNS_12PrefixHeaderERKNS_11ICollectionINS_7IndexedINS_6AnalogEEEEE@PLT
	movq	72(%rsp), %rax
	xorq	%fs:40, %rax
	jne	.L161
	addq	$88, %rsp
	.cfi_remember_state
	.cfi_def_cfa_offset 8
	ret
.L161:
	.cfi_restore_state
	call	__stack_chk_fail@PLT
	.cfi_endproc
.LFE3160:
	.size	_ZN8opendnp316CountIndexParser13InvokeCountOfINS_11Group32Var8EEEvRKNS_12HeaderRecordEtRKNS_9NumParserERKN7openpal6RSliceERNS_12IAPDUHandlerE, .-_ZN8opendnp316CountIndexParser13InvokeCountOfINS_11Group32Var8EEEvRKNS_12HeaderRecordEtRKNS_9NumParserERKN7openpal6RSliceERNS_12IAPDUHandlerE
	.section	.text._ZN8opendnp316CountIndexParser13InvokeCountOfINS_11Group41Var1EEEvRKNS_12HeaderRecordEtRKNS_9NumParserERKN7openpal6RSliceERNS_12IAPDUHandlerE,"axG",@progbits,_ZN8opendnp316CountIndexParser13InvokeCountOfINS_11Group41Var1EEEvRKNS_12HeaderRecordEtRKNS_9NumParserERKN7openpal6RSliceERNS_12IAPDUHandlerE,comdat
	.align 2
	.p2align 4,,15
	.weak	_ZN8opendnp316CountIndexParser13InvokeCountOfINS_11Group41Var1EEEvRKNS_12HeaderRecordEtRKNS_9NumParserERKN7openpal6RSliceERNS_12IAPDUHandlerE
	.type	_ZN8opendnp316CountIndexParser13InvokeCountOfINS_11Group41Var1EEEvRKNS_12HeaderRecordEtRKNS_9NumParserERKN7openpal6RSliceERNS_12IAPDUHandlerE, @function
_ZN8opendnp316CountIndexParser13InvokeCountOfINS_11Group41Var1EEEvRKNS_12HeaderRecordEtRKNS_9NumParserERKN7openpal6RSliceERNS_12IAPDUHandlerE:
.LFB3165:
	.cfi_startproc
	subq	$88, %rsp
	.cfi_def_cfa_offset 96
	movq	%fs:40, %rax
	movq	%rax, 72(%rsp)
	xorl	%eax, %eax
	movq	_ZTVN8opendnp318BufferedCollectionINS_7IndexedINS_17AnalogOutputInt32EEEZNS_16CountIndexParser13InvokeCountOfINS_11Group41Var1EEEvRKNS_12HeaderRecordEtRKNS_9NumParserERKN7openpal6RSliceERNS_12IAPDUHandlerEEUlRSE_jE_EE@GOTPCREL(%rip), %rax
	movq	%rdx, 64(%rsp)
	leaq	32(%rsp), %rdx
	movdqu	(%rcx), %xmm0
	movw	%si, 16(%rsp)
	addq	$16, %rax
	movups	%xmm0, 40(%rsp)
	movq	%rax, 32(%rsp)
	movzwl	%si, %eax
	movq	%rsp, %rsi
	movdqu	(%rdi), %xmm0
	movq	%r8, %rdi
	movq	%rax, 56(%rsp)
	movaps	%xmm0, (%rsp)
	call	_ZN8opendnp312IAPDUHandler8OnHeaderERKNS_12PrefixHeaderERKNS_11ICollectionINS_7IndexedINS_17AnalogOutputInt32EEEEE@PLT
	movq	72(%rsp), %rax
	xorq	%fs:40, %rax
	jne	.L165
	addq	$88, %rsp
	.cfi_remember_state
	.cfi_def_cfa_offset 8
	ret
.L165:
	.cfi_restore_state
	call	__stack_chk_fail@PLT
	.cfi_endproc
.LFE3165:
	.size	_ZN8opendnp316CountIndexParser13InvokeCountOfINS_11Group41Var1EEEvRKNS_12HeaderRecordEtRKNS_9NumParserERKN7openpal6RSliceERNS_12IAPDUHandlerE, .-_ZN8opendnp316CountIndexParser13InvokeCountOfINS_11Group41Var1EEEvRKNS_12HeaderRecordEtRKNS_9NumParserERKN7openpal6RSliceERNS_12IAPDUHandlerE
	.section	.text._ZN8opendnp316CountIndexParser13InvokeCountOfINS_11Group41Var2EEEvRKNS_12HeaderRecordEtRKNS_9NumParserERKN7openpal6RSliceERNS_12IAPDUHandlerE,"axG",@progbits,_ZN8opendnp316CountIndexParser13InvokeCountOfINS_11Group41Var2EEEvRKNS_12HeaderRecordEtRKNS_9NumParserERKN7openpal6RSliceERNS_12IAPDUHandlerE,comdat
	.align 2
	.p2align 4,,15
	.weak	_ZN8opendnp316CountIndexParser13InvokeCountOfINS_11Group41Var2EEEvRKNS_12HeaderRecordEtRKNS_9NumParserERKN7openpal6RSliceERNS_12IAPDUHandlerE
	.type	_ZN8opendnp316CountIndexParser13InvokeCountOfINS_11Group41Var2EEEvRKNS_12HeaderRecordEtRKNS_9NumParserERKN7openpal6RSliceERNS_12IAPDUHandlerE, @function
_ZN8opendnp316CountIndexParser13InvokeCountOfINS_11Group41Var2EEEvRKNS_12HeaderRecordEtRKNS_9NumParserERKN7openpal6RSliceERNS_12IAPDUHandlerE:
.LFB3173:
	.cfi_startproc
	subq	$88, %rsp
	.cfi_def_cfa_offset 96
	movq	%fs:40, %rax
	movq	%rax, 72(%rsp)
	xorl	%eax, %eax
	movq	_ZTVN8opendnp318BufferedCollectionINS_7IndexedINS_17AnalogOutputInt16EEEZNS_16CountIndexParser13InvokeCountOfINS_11Group41Var2EEEvRKNS_12HeaderRecordEtRKNS_9NumParserERKN7openpal6RSliceERNS_12IAPDUHandlerEEUlRSE_jE_EE@GOTPCREL(%rip), %rax
	movq	%rdx, 64(%rsp)
	leaq	32(%rsp), %rdx
	movdqu	(%rcx), %xmm0
	movw	%si, 16(%rsp)
	addq	$16, %rax
	movups	%xmm0, 40(%rsp)
	movq	%rax, 32(%rsp)
	movzwl	%si, %eax
	movq	%rsp, %rsi
	movdqu	(%rdi), %xmm0
	movq	%r8, %rdi
	movq	%rax, 56(%rsp)
	movaps	%xmm0, (%rsp)
	call	_ZN8opendnp312IAPDUHandler8OnHeaderERKNS_12PrefixHeaderERKNS_11ICollectionINS_7IndexedINS_17AnalogOutputInt16EEEEE@PLT
	movq	72(%rsp), %rax
	xorq	%fs:40, %rax
	jne	.L169
	addq	$88, %rsp
	.cfi_remember_state
	.cfi_def_cfa_offset 8
	ret
.L169:
	.cfi_restore_state
	call	__stack_chk_fail@PLT
	.cfi_endproc
.LFE3173:
	.size	_ZN8opendnp316CountIndexParser13InvokeCountOfINS_11Group41Var2EEEvRKNS_12HeaderRecordEtRKNS_9NumParserERKN7openpal6RSliceERNS_12IAPDUHandlerE, .-_ZN8opendnp316CountIndexParser13InvokeCountOfINS_11Group41Var2EEEvRKNS_12HeaderRecordEtRKNS_9NumParserERKN7openpal6RSliceERNS_12IAPDUHandlerE
	.section	.text._ZN8opendnp316CountIndexParser13InvokeCountOfINS_11Group41Var3EEEvRKNS_12HeaderRecordEtRKNS_9NumParserERKN7openpal6RSliceERNS_12IAPDUHandlerE,"axG",@progbits,_ZN8opendnp316CountIndexParser13InvokeCountOfINS_11Group41Var3EEEvRKNS_12HeaderRecordEtRKNS_9NumParserERKN7openpal6RSliceERNS_12IAPDUHandlerE,comdat
	.align 2
	.p2align 4,,15
	.weak	_ZN8opendnp316CountIndexParser13InvokeCountOfINS_11Group41Var3EEEvRKNS_12HeaderRecordEtRKNS_9NumParserERKN7openpal6RSliceERNS_12IAPDUHandlerE
	.type	_ZN8opendnp316CountIndexParser13InvokeCountOfINS_11Group41Var3EEEvRKNS_12HeaderRecordEtRKNS_9NumParserERKN7openpal6RSliceERNS_12IAPDUHandlerE, @function
_ZN8opendnp316CountIndexParser13InvokeCountOfINS_11Group41Var3EEEvRKNS_12HeaderRecordEtRKNS_9NumParserERKN7openpal6RSliceERNS_12IAPDUHandlerE:
.LFB3181:
	.cfi_startproc
	subq	$88, %rsp
	.cfi_def_cfa_offset 96
	movq	%fs:40, %rax
	movq	%rax, 72(%rsp)
	xorl	%eax, %eax
	movq	_ZTVN8opendnp318BufferedCollectionINS_7IndexedINS_19AnalogOutputFloat32EEEZNS_16CountIndexParser13InvokeCountOfINS_11Group41Var3EEEvRKNS_12HeaderRecordEtRKNS_9NumParserERKN7openpal6RSliceERNS_12IAPDUHandlerEEUlRSE_jE_EE@GOTPCREL(%rip), %rax
	movq	%rdx, 64(%rsp)
	leaq	32(%rsp), %rdx
	movdqu	(%rcx), %xmm0
	movw	%si, 16(%rsp)
	addq	$16, %rax
	movups	%xmm0, 40(%rsp)
	movq	%rax, 32(%rsp)
	movzwl	%si, %eax
	movq	%rsp, %rsi
	movdqu	(%rdi), %xmm0
	movq	%r8, %rdi
	movq	%rax, 56(%rsp)
	movaps	%xmm0, (%rsp)
	call	_ZN8opendnp312IAPDUHandler8OnHeaderERKNS_12PrefixHeaderERKNS_11ICollectionINS_7IndexedINS_19AnalogOutputFloat32EEEEE@PLT
	movq	72(%rsp), %rax
	xorq	%fs:40, %rax
	jne	.L173
	addq	$88, %rsp
	.cfi_remember_state
	.cfi_def_cfa_offset 8
	ret
.L173:
	.cfi_restore_state
	call	__stack_chk_fail@PLT
	.cfi_endproc
.LFE3181:
	.size	_ZN8opendnp316CountIndexParser13InvokeCountOfINS_11Group41Var3EEEvRKNS_12HeaderRecordEtRKNS_9NumParserERKN7openpal6RSliceERNS_12IAPDUHandlerE, .-_ZN8opendnp316CountIndexParser13InvokeCountOfINS_11Group41Var3EEEvRKNS_12HeaderRecordEtRKNS_9NumParserERKN7openpal6RSliceERNS_12IAPDUHandlerE
	.section	.text._ZN8opendnp316CountIndexParser13InvokeCountOfINS_11Group41Var4EEEvRKNS_12HeaderRecordEtRKNS_9NumParserERKN7openpal6RSliceERNS_12IAPDUHandlerE,"axG",@progbits,_ZN8opendnp316CountIndexParser13InvokeCountOfINS_11Group41Var4EEEvRKNS_12HeaderRecordEtRKNS_9NumParserERKN7openpal6RSliceERNS_12IAPDUHandlerE,comdat
	.align 2
	.p2align 4,,15
	.weak	_ZN8opendnp316CountIndexParser13InvokeCountOfINS_11Group41Var4EEEvRKNS_12HeaderRecordEtRKNS_9NumParserERKN7openpal6RSliceERNS_12IAPDUHandlerE
	.type	_ZN8opendnp316CountIndexParser13InvokeCountOfINS_11Group41Var4EEEvRKNS_12HeaderRecordEtRKNS_9NumParserERKN7openpal6RSliceERNS_12IAPDUHandlerE, @function
_ZN8opendnp316CountIndexParser13InvokeCountOfINS_11Group41Var4EEEvRKNS_12HeaderRecordEtRKNS_9NumParserERKN7openpal6RSliceERNS_12IAPDUHandlerE:
.LFB3189:
	.cfi_startproc
	subq	$88, %rsp
	.cfi_def_cfa_offset 96
	movq	%fs:40, %rax
	movq	%rax, 72(%rsp)
	xorl	%eax, %eax
	movq	_ZTVN8opendnp318BufferedCollectionINS_7IndexedINS_20AnalogOutputDouble64EEEZNS_16CountIndexParser13InvokeCountOfINS_11Group41Var4EEEvRKNS_12HeaderRecordEtRKNS_9NumParserERKN7openpal6RSliceERNS_12IAPDUHandlerEEUlRSE_jE_EE@GOTPCREL(%rip), %rax
	movq	%rdx, 64(%rsp)
	leaq	32(%rsp), %rdx
	movdqu	(%rcx), %xmm0
	movw	%si, 16(%rsp)
	addq	$16, %rax
	movups	%xmm0, 40(%rsp)
	movq	%rax, 32(%rsp)
	movzwl	%si, %eax
	movq	%rsp, %rsi
	movdqu	(%rdi), %xmm0
	movq	%r8, %rdi
	movq	%rax, 56(%rsp)
	movaps	%xmm0, (%rsp)
	call	_ZN8opendnp312IAPDUHandler8OnHeaderERKNS_12PrefixHeaderERKNS_11ICollectionINS_7IndexedINS_20AnalogOutputDouble64EEEEE@PLT
	movq	72(%rsp), %rax
	xorq	%fs:40, %rax
	jne	.L177
	addq	$88, %rsp
	.cfi_remember_state
	.cfi_def_cfa_offset 8
	ret
.L177:
	.cfi_restore_state
	call	__stack_chk_fail@PLT
	.cfi_endproc
.LFE3189:
	.size	_ZN8opendnp316CountIndexParser13InvokeCountOfINS_11Group41Var4EEEvRKNS_12HeaderRecordEtRKNS_9NumParserERKN7openpal6RSliceERNS_12IAPDUHandlerE, .-_ZN8opendnp316CountIndexParser13InvokeCountOfINS_11Group41Var4EEEvRKNS_12HeaderRecordEtRKNS_9NumParserERKN7openpal6RSliceERNS_12IAPDUHandlerE
	.section	.text._ZN8opendnp316CountIndexParser13InvokeCountOfINS_11Group42Var1EEEvRKNS_12HeaderRecordEtRKNS_9NumParserERKN7openpal6RSliceERNS_12IAPDUHandlerE,"axG",@progbits,_ZN8opendnp316CountIndexParser13InvokeCountOfINS_11Group42Var1EEEvRKNS_12HeaderRecordEtRKNS_9NumParserERKN7openpal6RSliceERNS_12IAPDUHandlerE,comdat
	.align 2
	.p2align 4,,15
	.weak	_ZN8opendnp316CountIndexParser13InvokeCountOfINS_11Group42Var1EEEvRKNS_12HeaderRecordEtRKNS_9NumParserERKN7openpal6RSliceERNS_12IAPDUHandlerE
	.type	_ZN8opendnp316CountIndexParser13InvokeCountOfINS_11Group42Var1EEEvRKNS_12HeaderRecordEtRKNS_9NumParserERKN7openpal6RSliceERNS_12IAPDUHandlerE, @function
_ZN8opendnp316CountIndexParser13InvokeCountOfINS_11Group42Var1EEEvRKNS_12HeaderRecordEtRKNS_9NumParserERKN7openpal6RSliceERNS_12IAPDUHandlerE:
.LFB3197:
	.cfi_startproc
	subq	$88, %rsp
	.cfi_def_cfa_offset 96
	movq	%fs:40, %rax
	movq	%rax, 72(%rsp)
	xorl	%eax, %eax
	movq	_ZTVN8opendnp318BufferedCollectionINS_7IndexedINS_18AnalogOutputStatusEEEZNS_16CountIndexParser13InvokeCountOfINS_11Group42Var1EEEvRKNS_12HeaderRecordEtRKNS_9NumParserERKN7openpal6RSliceERNS_12IAPDUHandlerEEUlRSE_jE_EE@GOTPCREL(%rip), %rax
	movq	%rdx, 64(%rsp)
	leaq	32(%rsp), %rdx
	movdqu	(%rcx), %xmm0
	movw	%si, 16(%rsp)
	addq	$16, %rax
	movups	%xmm0, 40(%rsp)
	movq	%rax, 32(%rsp)
	movzwl	%si, %eax
	movq	%rsp, %rsi
	movdqu	(%rdi), %xmm0
	movq	%r8, %rdi
	movq	%rax, 56(%rsp)
	movaps	%xmm0, (%rsp)
	call	_ZN8opendnp312IAPDUHandler8OnHeaderERKNS_12PrefixHeaderERKNS_11ICollectionINS_7IndexedINS_18AnalogOutputStatusEEEEE@PLT
	movq	72(%rsp), %rax
	xorq	%fs:40, %rax
	jne	.L181
	addq	$88, %rsp
	.cfi_remember_state
	.cfi_def_cfa_offset 8
	ret
.L181:
	.cfi_restore_state
	call	__stack_chk_fail@PLT
	.cfi_endproc
.LFE3197:
	.size	_ZN8opendnp316CountIndexParser13InvokeCountOfINS_11Group42Var1EEEvRKNS_12HeaderRecordEtRKNS_9NumParserERKN7openpal6RSliceERNS_12IAPDUHandlerE, .-_ZN8opendnp316CountIndexParser13InvokeCountOfINS_11Group42Var1EEEvRKNS_12HeaderRecordEtRKNS_9NumParserERKN7openpal6RSliceERNS_12IAPDUHandlerE
	.section	.text._ZN8opendnp316CountIndexParser13InvokeCountOfINS_11Group42Var2EEEvRKNS_12HeaderRecordEtRKNS_9NumParserERKN7openpal6RSliceERNS_12IAPDUHandlerE,"axG",@progbits,_ZN8opendnp316CountIndexParser13InvokeCountOfINS_11Group42Var2EEEvRKNS_12HeaderRecordEtRKNS_9NumParserERKN7openpal6RSliceERNS_12IAPDUHandlerE,comdat
	.align 2
	.p2align 4,,15
	.weak	_ZN8opendnp316CountIndexParser13InvokeCountOfINS_11Group42Var2EEEvRKNS_12HeaderRecordEtRKNS_9NumParserERKN7openpal6RSliceERNS_12IAPDUHandlerE
	.type	_ZN8opendnp316CountIndexParser13InvokeCountOfINS_11Group42Var2EEEvRKNS_12HeaderRecordEtRKNS_9NumParserERKN7openpal6RSliceERNS_12IAPDUHandlerE, @function
_ZN8opendnp316CountIndexParser13InvokeCountOfINS_11Group42Var2EEEvRKNS_12HeaderRecordEtRKNS_9NumParserERKN7openpal6RSliceERNS_12IAPDUHandlerE:
.LFB3205:
	.cfi_startproc
	subq	$88, %rsp
	.cfi_def_cfa_offset 96
	movq	%fs:40, %rax
	movq	%rax, 72(%rsp)
	xorl	%eax, %eax
	movq	_ZTVN8opendnp318BufferedCollectionINS_7IndexedINS_18AnalogOutputStatusEEEZNS_16CountIndexParser13InvokeCountOfINS_11Group42Var2EEEvRKNS_12HeaderRecordEtRKNS_9NumParserERKN7openpal6RSliceERNS_12IAPDUHandlerEEUlRSE_jE_EE@GOTPCREL(%rip), %rax
	movq	%rdx, 64(%rsp)
	leaq	32(%rsp), %rdx
	movdqu	(%rcx), %xmm0
	movw	%si, 16(%rsp)
	addq	$16, %rax
	movups	%xmm0, 40(%rsp)
	movq	%rax, 32(%rsp)
	movzwl	%si, %eax
	movq	%rsp, %rsi
	movdqu	(%rdi), %xmm0
	movq	%r8, %rdi
	movq	%rax, 56(%rsp)
	movaps	%xmm0, (%rsp)
	call	_ZN8opendnp312IAPDUHandler8OnHeaderERKNS_12PrefixHeaderERKNS_11ICollectionINS_7IndexedINS_18AnalogOutputStatusEEEEE@PLT
	movq	72(%rsp), %rax
	xorq	%fs:40, %rax
	jne	.L185
	addq	$88, %rsp
	.cfi_remember_state
	.cfi_def_cfa_offset 8
	ret
.L185:
	.cfi_restore_state
	call	__stack_chk_fail@PLT
	.cfi_endproc
.LFE3205:
	.size	_ZN8opendnp316CountIndexParser13InvokeCountOfINS_11Group42Var2EEEvRKNS_12HeaderRecordEtRKNS_9NumParserERKN7openpal6RSliceERNS_12IAPDUHandlerE, .-_ZN8opendnp316CountIndexParser13InvokeCountOfINS_11Group42Var2EEEvRKNS_12HeaderRecordEtRKNS_9NumParserERKN7openpal6RSliceERNS_12IAPDUHandlerE
	.section	.text._ZN8opendnp316CountIndexParser13InvokeCountOfINS_11Group42Var3EEEvRKNS_12HeaderRecordEtRKNS_9NumParserERKN7openpal6RSliceERNS_12IAPDUHandlerE,"axG",@progbits,_ZN8opendnp316CountIndexParser13InvokeCountOfINS_11Group42Var3EEEvRKNS_12HeaderRecordEtRKNS_9NumParserERKN7openpal6RSliceERNS_12IAPDUHandlerE,comdat
	.align 2
	.p2align 4,,15
	.weak	_ZN8opendnp316CountIndexParser13InvokeCountOfINS_11Group42Var3EEEvRKNS_12HeaderRecordEtRKNS_9NumParserERKN7openpal6RSliceERNS_12IAPDUHandlerE
	.type	_ZN8opendnp316CountIndexParser13InvokeCountOfINS_11Group42Var3EEEvRKNS_12HeaderRecordEtRKNS_9NumParserERKN7openpal6RSliceERNS_12IAPDUHandlerE, @function
_ZN8opendnp316CountIndexParser13InvokeCountOfINS_11Group42Var3EEEvRKNS_12HeaderRecordEtRKNS_9NumParserERKN7openpal6RSliceERNS_12IAPDUHandlerE:
.LFB3210:
	.cfi_startproc
	subq	$88, %rsp
	.cfi_def_cfa_offset 96
	movq	%fs:40, %rax
	movq	%rax, 72(%rsp)
	xorl	%eax, %eax
	movq	_ZTVN8opendnp318BufferedCollectionINS_7IndexedINS_18AnalogOutputStatusEEEZNS_16CountIndexParser13InvokeCountOfINS_11Group42Var3EEEvRKNS_12HeaderRecordEtRKNS_9NumParserERKN7openpal6RSliceERNS_12IAPDUHandlerEEUlRSE_jE_EE@GOTPCREL(%rip), %rax
	movq	%rdx, 64(%rsp)
	leaq	32(%rsp), %rdx
	movdqu	(%rcx), %xmm0
	movw	%si, 16(%rsp)
	addq	$16, %rax
	movups	%xmm0, 40(%rsp)
	movq	%rax, 32(%rsp)
	movzwl	%si, %eax
	movq	%rsp, %rsi
	movdqu	(%rdi), %xmm0
	movq	%r8, %rdi
	movq	%rax, 56(%rsp)
	movaps	%xmm0, (%rsp)
	call	_ZN8opendnp312IAPDUHandler8OnHeaderERKNS_12PrefixHeaderERKNS_11ICollectionINS_7IndexedINS_18AnalogOutputStatusEEEEE@PLT
	movq	72(%rsp), %rax
	xorq	%fs:40, %rax
	jne	.L189
	addq	$88, %rsp
	.cfi_remember_state
	.cfi_def_cfa_offset 8
	ret
.L189:
	.cfi_restore_state
	call	__stack_chk_fail@PLT
	.cfi_endproc
.LFE3210:
	.size	_ZN8opendnp316CountIndexParser13InvokeCountOfINS_11Group42Var3EEEvRKNS_12HeaderRecordEtRKNS_9NumParserERKN7openpal6RSliceERNS_12IAPDUHandlerE, .-_ZN8opendnp316CountIndexParser13InvokeCountOfINS_11Group42Var3EEEvRKNS_12HeaderRecordEtRKNS_9NumParserERKN7openpal6RSliceERNS_12IAPDUHandlerE
	.section	.text._ZN8opendnp316CountIndexParser13InvokeCountOfINS_11Group42Var4EEEvRKNS_12HeaderRecordEtRKNS_9NumParserERKN7openpal6RSliceERNS_12IAPDUHandlerE,"axG",@progbits,_ZN8opendnp316CountIndexParser13InvokeCountOfINS_11Group42Var4EEEvRKNS_12HeaderRecordEtRKNS_9NumParserERKN7openpal6RSliceERNS_12IAPDUHandlerE,comdat
	.align 2
	.p2align 4,,15
	.weak	_ZN8opendnp316CountIndexParser13InvokeCountOfINS_11Group42Var4EEEvRKNS_12HeaderRecordEtRKNS_9NumParserERKN7openpal6RSliceERNS_12IAPDUHandlerE
	.type	_ZN8opendnp316CountIndexParser13InvokeCountOfINS_11Group42Var4EEEvRKNS_12HeaderRecordEtRKNS_9NumParserERKN7openpal6RSliceERNS_12IAPDUHandlerE, @function
_ZN8opendnp316CountIndexParser13InvokeCountOfINS_11Group42Var4EEEvRKNS_12HeaderRecordEtRKNS_9NumParserERKN7openpal6RSliceERNS_12IAPDUHandlerE:
.LFB3215:
	.cfi_startproc
	subq	$88, %rsp
	.cfi_def_cfa_offset 96
	movq	%fs:40, %rax
	movq	%rax, 72(%rsp)
	xorl	%eax, %eax
	movq	_ZTVN8opendnp318BufferedCollectionINS_7IndexedINS_18AnalogOutputStatusEEEZNS_16CountIndexParser13InvokeCountOfINS_11Group42Var4EEEvRKNS_12HeaderRecordEtRKNS_9NumParserERKN7openpal6RSliceERNS_12IAPDUHandlerEEUlRSE_jE_EE@GOTPCREL(%rip), %rax
	movq	%rdx, 64(%rsp)
	leaq	32(%rsp), %rdx
	movdqu	(%rcx), %xmm0
	movw	%si, 16(%rsp)
	addq	$16, %rax
	movups	%xmm0, 40(%rsp)
	movq	%rax, 32(%rsp)
	movzwl	%si, %eax
	movq	%rsp, %rsi
	movdqu	(%rdi), %xmm0
	movq	%r8, %rdi
	movq	%rax, 56(%rsp)
	movaps	%xmm0, (%rsp)
	call	_ZN8opendnp312IAPDUHandler8OnHeaderERKNS_12PrefixHeaderERKNS_11ICollectionINS_7IndexedINS_18AnalogOutputStatusEEEEE@PLT
	movq	72(%rsp), %rax
	xorq	%fs:40, %rax
	jne	.L193
	addq	$88, %rsp
	.cfi_remember_state
	.cfi_def_cfa_offset 8
	ret
.L193:
	.cfi_restore_state
	call	__stack_chk_fail@PLT
	.cfi_endproc
.LFE3215:
	.size	_ZN8opendnp316CountIndexParser13InvokeCountOfINS_11Group42Var4EEEvRKNS_12HeaderRecordEtRKNS_9NumParserERKN7openpal6RSliceERNS_12IAPDUHandlerE, .-_ZN8opendnp316CountIndexParser13InvokeCountOfINS_11Group42Var4EEEvRKNS_12HeaderRecordEtRKNS_9NumParserERKN7openpal6RSliceERNS_12IAPDUHandlerE
	.section	.text._ZN8opendnp316CountIndexParser13InvokeCountOfINS_11Group42Var5EEEvRKNS_12HeaderRecordEtRKNS_9NumParserERKN7openpal6RSliceERNS_12IAPDUHandlerE,"axG",@progbits,_ZN8opendnp316CountIndexParser13InvokeCountOfINS_11Group42Var5EEEvRKNS_12HeaderRecordEtRKNS_9NumParserERKN7openpal6RSliceERNS_12IAPDUHandlerE,comdat
	.align 2
	.p2align 4,,15
	.weak	_ZN8opendnp316CountIndexParser13InvokeCountOfINS_11Group42Var5EEEvRKNS_12HeaderRecordEtRKNS_9NumParserERKN7openpal6RSliceERNS_12IAPDUHandlerE
	.type	_ZN8opendnp316CountIndexParser13InvokeCountOfINS_11Group42Var5EEEvRKNS_12HeaderRecordEtRKNS_9NumParserERKN7openpal6RSliceERNS_12IAPDUHandlerE, @function
_ZN8opendnp316CountIndexParser13InvokeCountOfINS_11Group42Var5EEEvRKNS_12HeaderRecordEtRKNS_9NumParserERKN7openpal6RSliceERNS_12IAPDUHandlerE:
.LFB3220:
	.cfi_startproc
	subq	$88, %rsp
	.cfi_def_cfa_offset 96
	movq	%fs:40, %rax
	movq	%rax, 72(%rsp)
	xorl	%eax, %eax
	movq	_ZTVN8opendnp318BufferedCollectionINS_7IndexedINS_18AnalogOutputStatusEEEZNS_16CountIndexParser13InvokeCountOfINS_11Group42Var5EEEvRKNS_12HeaderRecordEtRKNS_9NumParserERKN7openpal6RSliceERNS_12IAPDUHandlerEEUlRSE_jE_EE@GOTPCREL(%rip), %rax
	movq	%rdx, 64(%rsp)
	leaq	32(%rsp), %rdx
	movdqu	(%rcx), %xmm0
	movw	%si, 16(%rsp)
	addq	$16, %rax
	movups	%xmm0, 40(%rsp)
	movq	%rax, 32(%rsp)
	movzwl	%si, %eax
	movq	%rsp, %rsi
	movdqu	(%rdi), %xmm0
	movq	%r8, %rdi
	movq	%rax, 56(%rsp)
	movaps	%xmm0, (%rsp)
	call	_ZN8opendnp312IAPDUHandler8OnHeaderERKNS_12PrefixHeaderERKNS_11ICollectionINS_7IndexedINS_18AnalogOutputStatusEEEEE@PLT
	movq	72(%rsp), %rax
	xorq	%fs:40, %rax
	jne	.L197
	addq	$88, %rsp
	.cfi_remember_state
	.cfi_def_cfa_offset 8
	ret
.L197:
	.cfi_restore_state
	call	__stack_chk_fail@PLT
	.cfi_endproc
.LFE3220:
	.size	_ZN8opendnp316CountIndexParser13InvokeCountOfINS_11Group42Var5EEEvRKNS_12HeaderRecordEtRKNS_9NumParserERKN7openpal6RSliceERNS_12IAPDUHandlerE, .-_ZN8opendnp316CountIndexParser13InvokeCountOfINS_11Group42Var5EEEvRKNS_12HeaderRecordEtRKNS_9NumParserERKN7openpal6RSliceERNS_12IAPDUHandlerE
	.section	.text._ZN8opendnp316CountIndexParser13InvokeCountOfINS_11Group42Var6EEEvRKNS_12HeaderRecordEtRKNS_9NumParserERKN7openpal6RSliceERNS_12IAPDUHandlerE,"axG",@progbits,_ZN8opendnp316CountIndexParser13InvokeCountOfINS_11Group42Var6EEEvRKNS_12HeaderRecordEtRKNS_9NumParserERKN7openpal6RSliceERNS_12IAPDUHandlerE,comdat
	.align 2
	.p2align 4,,15
	.weak	_ZN8opendnp316CountIndexParser13InvokeCountOfINS_11Group42Var6EEEvRKNS_12HeaderRecordEtRKNS_9NumParserERKN7openpal6RSliceERNS_12IAPDUHandlerE
	.type	_ZN8opendnp316CountIndexParser13InvokeCountOfINS_11Group42Var6EEEvRKNS_12HeaderRecordEtRKNS_9NumParserERKN7openpal6RSliceERNS_12IAPDUHandlerE, @function
_ZN8opendnp316CountIndexParser13InvokeCountOfINS_11Group42Var6EEEvRKNS_12HeaderRecordEtRKNS_9NumParserERKN7openpal6RSliceERNS_12IAPDUHandlerE:
.LFB3225:
	.cfi_startproc
	subq	$88, %rsp
	.cfi_def_cfa_offset 96
	movq	%fs:40, %rax
	movq	%rax, 72(%rsp)
	xorl	%eax, %eax
	movq	_ZTVN8opendnp318BufferedCollectionINS_7IndexedINS_18AnalogOutputStatusEEEZNS_16CountIndexParser13InvokeCountOfINS_11Group42Var6EEEvRKNS_12HeaderRecordEtRKNS_9NumParserERKN7openpal6RSliceERNS_12IAPDUHandlerEEUlRSE_jE_EE@GOTPCREL(%rip), %rax
	movq	%rdx, 64(%rsp)
	leaq	32(%rsp), %rdx
	movdqu	(%rcx), %xmm0
	movw	%si, 16(%rsp)
	addq	$16, %rax
	movups	%xmm0, 40(%rsp)
	movq	%rax, 32(%rsp)
	movzwl	%si, %eax
	movq	%rsp, %rsi
	movdqu	(%rdi), %xmm0
	movq	%r8, %rdi
	movq	%rax, 56(%rsp)
	movaps	%xmm0, (%rsp)
	call	_ZN8opendnp312IAPDUHandler8OnHeaderERKNS_12PrefixHeaderERKNS_11ICollectionINS_7IndexedINS_18AnalogOutputStatusEEEEE@PLT
	movq	72(%rsp), %rax
	xorq	%fs:40, %rax
	jne	.L201
	addq	$88, %rsp
	.cfi_remember_state
	.cfi_def_cfa_offset 8
	ret
.L201:
	.cfi_restore_state
	call	__stack_chk_fail@PLT
	.cfi_endproc
.LFE3225:
	.size	_ZN8opendnp316CountIndexParser13InvokeCountOfINS_11Group42Var6EEEvRKNS_12HeaderRecordEtRKNS_9NumParserERKN7openpal6RSliceERNS_12IAPDUHandlerE, .-_ZN8opendnp316CountIndexParser13InvokeCountOfINS_11Group42Var6EEEvRKNS_12HeaderRecordEtRKNS_9NumParserERKN7openpal6RSliceERNS_12IAPDUHandlerE
	.section	.text._ZN8opendnp316CountIndexParser13InvokeCountOfINS_11Group42Var7EEEvRKNS_12HeaderRecordEtRKNS_9NumParserERKN7openpal6RSliceERNS_12IAPDUHandlerE,"axG",@progbits,_ZN8opendnp316CountIndexParser13InvokeCountOfINS_11Group42Var7EEEvRKNS_12HeaderRecordEtRKNS_9NumParserERKN7openpal6RSliceERNS_12IAPDUHandlerE,comdat
	.align 2
	.p2align 4,,15
	.weak	_ZN8opendnp316CountIndexParser13InvokeCountOfINS_11Group42Var7EEEvRKNS_12HeaderRecordEtRKNS_9NumParserERKN7openpal6RSliceERNS_12IAPDUHandlerE
	.type	_ZN8opendnp316CountIndexParser13InvokeCountOfINS_11Group42Var7EEEvRKNS_12HeaderRecordEtRKNS_9NumParserERKN7openpal6RSliceERNS_12IAPDUHandlerE, @function
_ZN8opendnp316CountIndexParser13InvokeCountOfINS_11Group42Var7EEEvRKNS_12HeaderRecordEtRKNS_9NumParserERKN7openpal6RSliceERNS_12IAPDUHandlerE:
.LFB3230:
	.cfi_startproc
	subq	$88, %rsp
	.cfi_def_cfa_offset 96
	movq	%fs:40, %rax
	movq	%rax, 72(%rsp)
	xorl	%eax, %eax
	movq	_ZTVN8opendnp318BufferedCollectionINS_7IndexedINS_18AnalogOutputStatusEEEZNS_16CountIndexParser13InvokeCountOfINS_11Group42Var7EEEvRKNS_12HeaderRecordEtRKNS_9NumParserERKN7openpal6RSliceERNS_12IAPDUHandlerEEUlRSE_jE_EE@GOTPCREL(%rip), %rax
	movq	%rdx, 64(%rsp)
	leaq	32(%rsp), %rdx
	movdqu	(%rcx), %xmm0
	movw	%si, 16(%rsp)
	addq	$16, %rax
	movups	%xmm0, 40(%rsp)
	movq	%rax, 32(%rsp)
	movzwl	%si, %eax
	movq	%rsp, %rsi
	movdqu	(%rdi), %xmm0
	movq	%r8, %rdi
	movq	%rax, 56(%rsp)
	movaps	%xmm0, (%rsp)
	call	_ZN8opendnp312IAPDUHandler8OnHeaderERKNS_12PrefixHeaderERKNS_11ICollectionINS_7IndexedINS_18AnalogOutputStatusEEEEE@PLT
	movq	72(%rsp), %rax
	xorq	%fs:40, %rax
	jne	.L205
	addq	$88, %rsp
	.cfi_remember_state
	.cfi_def_cfa_offset 8
	ret
.L205:
	.cfi_restore_state
	call	__stack_chk_fail@PLT
	.cfi_endproc
.LFE3230:
	.size	_ZN8opendnp316CountIndexParser13InvokeCountOfINS_11Group42Var7EEEvRKNS_12HeaderRecordEtRKNS_9NumParserERKN7openpal6RSliceERNS_12IAPDUHandlerE, .-_ZN8opendnp316CountIndexParser13InvokeCountOfINS_11Group42Var7EEEvRKNS_12HeaderRecordEtRKNS_9NumParserERKN7openpal6RSliceERNS_12IAPDUHandlerE
	.section	.text._ZN8opendnp316CountIndexParser13InvokeCountOfINS_11Group42Var8EEEvRKNS_12HeaderRecordEtRKNS_9NumParserERKN7openpal6RSliceERNS_12IAPDUHandlerE,"axG",@progbits,_ZN8opendnp316CountIndexParser13InvokeCountOfINS_11Group42Var8EEEvRKNS_12HeaderRecordEtRKNS_9NumParserERKN7openpal6RSliceERNS_12IAPDUHandlerE,comdat
	.align 2
	.p2align 4,,15
	.weak	_ZN8opendnp316CountIndexParser13InvokeCountOfINS_11Group42Var8EEEvRKNS_12HeaderRecordEtRKNS_9NumParserERKN7openpal6RSliceERNS_12IAPDUHandlerE
	.type	_ZN8opendnp316CountIndexParser13InvokeCountOfINS_11Group42Var8EEEvRKNS_12HeaderRecordEtRKNS_9NumParserERKN7openpal6RSliceERNS_12IAPDUHandlerE, @function
_ZN8opendnp316CountIndexParser13InvokeCountOfINS_11Group42Var8EEEvRKNS_12HeaderRecordEtRKNS_9NumParserERKN7openpal6RSliceERNS_12IAPDUHandlerE:
.LFB3235:
	.cfi_startproc
	subq	$88, %rsp
	.cfi_def_cfa_offset 96
	movq	%fs:40, %rax
	movq	%rax, 72(%rsp)
	xorl	%eax, %eax
	movq	_ZTVN8opendnp318BufferedCollectionINS_7IndexedINS_18AnalogOutputStatusEEEZNS_16CountIndexParser13InvokeCountOfINS_11Group42Var8EEEvRKNS_12HeaderRecordEtRKNS_9NumParserERKN7openpal6RSliceERNS_12IAPDUHandlerEEUlRSE_jE_EE@GOTPCREL(%rip), %rax
	movq	%rdx, 64(%rsp)
	leaq	32(%rsp), %rdx
	movdqu	(%rcx), %xmm0
	movw	%si, 16(%rsp)
	addq	$16, %rax
	movups	%xmm0, 40(%rsp)
	movq	%rax, 32(%rsp)
	movzwl	%si, %eax
	movq	%rsp, %rsi
	movdqu	(%rdi), %xmm0
	movq	%r8, %rdi
	movq	%rax, 56(%rsp)
	movaps	%xmm0, (%rsp)
	call	_ZN8opendnp312IAPDUHandler8OnHeaderERKNS_12PrefixHeaderERKNS_11ICollectionINS_7IndexedINS_18AnalogOutputStatusEEEEE@PLT
	movq	72(%rsp), %rax
	xorq	%fs:40, %rax
	jne	.L209
	addq	$88, %rsp
	.cfi_remember_state
	.cfi_def_cfa_offset 8
	ret
.L209:
	.cfi_restore_state
	call	__stack_chk_fail@PLT
	.cfi_endproc
.LFE3235:
	.size	_ZN8opendnp316CountIndexParser13InvokeCountOfINS_11Group42Var8EEEvRKNS_12HeaderRecordEtRKNS_9NumParserERKN7openpal6RSliceERNS_12IAPDUHandlerE, .-_ZN8opendnp316CountIndexParser13InvokeCountOfINS_11Group42Var8EEEvRKNS_12HeaderRecordEtRKNS_9NumParserERKN7openpal6RSliceERNS_12IAPDUHandlerE
	.section	.text._ZN8opendnp316CountIndexParser13InvokeCountOfINS_11Group43Var1EEEvRKNS_12HeaderRecordEtRKNS_9NumParserERKN7openpal6RSliceERNS_12IAPDUHandlerE,"axG",@progbits,_ZN8opendnp316CountIndexParser13InvokeCountOfINS_11Group43Var1EEEvRKNS_12HeaderRecordEtRKNS_9NumParserERKN7openpal6RSliceERNS_12IAPDUHandlerE,comdat
	.align 2
	.p2align 4,,15
	.weak	_ZN8opendnp316CountIndexParser13InvokeCountOfINS_11Group43Var1EEEvRKNS_12HeaderRecordEtRKNS_9NumParserERKN7openpal6RSliceERNS_12IAPDUHandlerE
	.type	_ZN8opendnp316CountIndexParser13InvokeCountOfINS_11Group43Var1EEEvRKNS_12HeaderRecordEtRKNS_9NumParserERKN7openpal6RSliceERNS_12IAPDUHandlerE, @function
_ZN8opendnp316CountIndexParser13InvokeCountOfINS_11Group43Var1EEEvRKNS_12HeaderRecordEtRKNS_9NumParserERKN7openpal6RSliceERNS_12IAPDUHandlerE:
.LFB3240:
	.cfi_startproc
	subq	$88, %rsp
	.cfi_def_cfa_offset 96
	movq	%fs:40, %rax
	movq	%rax, 72(%rsp)
	xorl	%eax, %eax
	movq	_ZTVN8opendnp318BufferedCollectionINS_7IndexedINS_18AnalogCommandEventEEEZNS_16CountIndexParser13InvokeCountOfINS_11Group43Var1EEEvRKNS_12HeaderRecordEtRKNS_9NumParserERKN7openpal6RSliceERNS_12IAPDUHandlerEEUlRSE_jE_EE@GOTPCREL(%rip), %rax
	movq	%rdx, 64(%rsp)
	leaq	32(%rsp), %rdx
	movdqu	(%rcx), %xmm0
	movw	%si, 16(%rsp)
	addq	$16, %rax
	movups	%xmm0, 40(%rsp)
	movq	%rax, 32(%rsp)
	movzwl	%si, %eax
	movq	%rsp, %rsi
	movdqu	(%rdi), %xmm0
	movq	%r8, %rdi
	movq	%rax, 56(%rsp)
	movaps	%xmm0, (%rsp)
	call	_ZN8opendnp312IAPDUHandler8OnHeaderERKNS_12PrefixHeaderERKNS_11ICollectionINS_7IndexedINS_18AnalogCommandEventEEEEE@PLT
	movq	72(%rsp), %rax
	xorq	%fs:40, %rax
	jne	.L213
	addq	$88, %rsp
	.cfi_remember_state
	.cfi_def_cfa_offset 8
	ret
.L213:
	.cfi_restore_state
	call	__stack_chk_fail@PLT
	.cfi_endproc
.LFE3240:
	.size	_ZN8opendnp316CountIndexParser13InvokeCountOfINS_11Group43Var1EEEvRKNS_12HeaderRecordEtRKNS_9NumParserERKN7openpal6RSliceERNS_12IAPDUHandlerE, .-_ZN8opendnp316CountIndexParser13InvokeCountOfINS_11Group43Var1EEEvRKNS_12HeaderRecordEtRKNS_9NumParserERKN7openpal6RSliceERNS_12IAPDUHandlerE
	.section	.text._ZN8opendnp316CountIndexParser13InvokeCountOfINS_11Group43Var2EEEvRKNS_12HeaderRecordEtRKNS_9NumParserERKN7openpal6RSliceERNS_12IAPDUHandlerE,"axG",@progbits,_ZN8opendnp316CountIndexParser13InvokeCountOfINS_11Group43Var2EEEvRKNS_12HeaderRecordEtRKNS_9NumParserERKN7openpal6RSliceERNS_12IAPDUHandlerE,comdat
	.align 2
	.p2align 4,,15
	.weak	_ZN8opendnp316CountIndexParser13InvokeCountOfINS_11Group43Var2EEEvRKNS_12HeaderRecordEtRKNS_9NumParserERKN7openpal6RSliceERNS_12IAPDUHandlerE
	.type	_ZN8opendnp316CountIndexParser13InvokeCountOfINS_11Group43Var2EEEvRKNS_12HeaderRecordEtRKNS_9NumParserERKN7openpal6RSliceERNS_12IAPDUHandlerE, @function
_ZN8opendnp316CountIndexParser13InvokeCountOfINS_11Group43Var2EEEvRKNS_12HeaderRecordEtRKNS_9NumParserERKN7openpal6RSliceERNS_12IAPDUHandlerE:
.LFB3248:
	.cfi_startproc
	subq	$88, %rsp
	.cfi_def_cfa_offset 96
	movq	%fs:40, %rax
	movq	%rax, 72(%rsp)
	xorl	%eax, %eax
	movq	_ZTVN8opendnp318BufferedCollectionINS_7IndexedINS_18AnalogCommandEventEEEZNS_16CountIndexParser13InvokeCountOfINS_11Group43Var2EEEvRKNS_12HeaderRecordEtRKNS_9NumParserERKN7openpal6RSliceERNS_12IAPDUHandlerEEUlRSE_jE_EE@GOTPCREL(%rip), %rax
	movq	%rdx, 64(%rsp)
	leaq	32(%rsp), %rdx
	movdqu	(%rcx), %xmm0
	movw	%si, 16(%rsp)
	addq	$16, %rax
	movups	%xmm0, 40(%rsp)
	movq	%rax, 32(%rsp)
	movzwl	%si, %eax
	movq	%rsp, %rsi
	movdqu	(%rdi), %xmm0
	movq	%r8, %rdi
	movq	%rax, 56(%rsp)
	movaps	%xmm0, (%rsp)
	call	_ZN8opendnp312IAPDUHandler8OnHeaderERKNS_12PrefixHeaderERKNS_11ICollectionINS_7IndexedINS_18AnalogCommandEventEEEEE@PLT
	movq	72(%rsp), %rax
	xorq	%fs:40, %rax
	jne	.L217
	addq	$88, %rsp
	.cfi_remember_state
	.cfi_def_cfa_offset 8
	ret
.L217:
	.cfi_restore_state
	call	__stack_chk_fail@PLT
	.cfi_endproc
.LFE3248:
	.size	_ZN8opendnp316CountIndexParser13InvokeCountOfINS_11Group43Var2EEEvRKNS_12HeaderRecordEtRKNS_9NumParserERKN7openpal6RSliceERNS_12IAPDUHandlerE, .-_ZN8opendnp316CountIndexParser13InvokeCountOfINS_11Group43Var2EEEvRKNS_12HeaderRecordEtRKNS_9NumParserERKN7openpal6RSliceERNS_12IAPDUHandlerE
	.section	.text._ZN8opendnp316CountIndexParser13InvokeCountOfINS_11Group43Var3EEEvRKNS_12HeaderRecordEtRKNS_9NumParserERKN7openpal6RSliceERNS_12IAPDUHandlerE,"axG",@progbits,_ZN8opendnp316CountIndexParser13InvokeCountOfINS_11Group43Var3EEEvRKNS_12HeaderRecordEtRKNS_9NumParserERKN7openpal6RSliceERNS_12IAPDUHandlerE,comdat
	.align 2
	.p2align 4,,15
	.weak	_ZN8opendnp316CountIndexParser13InvokeCountOfINS_11Group43Var3EEEvRKNS_12HeaderRecordEtRKNS_9NumParserERKN7openpal6RSliceERNS_12IAPDUHandlerE
	.type	_ZN8opendnp316CountIndexParser13InvokeCountOfINS_11Group43Var3EEEvRKNS_12HeaderRecordEtRKNS_9NumParserERKN7openpal6RSliceERNS_12IAPDUHandlerE, @function
_ZN8opendnp316CountIndexParser13InvokeCountOfINS_11Group43Var3EEEvRKNS_12HeaderRecordEtRKNS_9NumParserERKN7openpal6RSliceERNS_12IAPDUHandlerE:
.LFB3253:
	.cfi_startproc
	subq	$88, %rsp
	.cfi_def_cfa_offset 96
	movq	%fs:40, %rax
	movq	%rax, 72(%rsp)
	xorl	%eax, %eax
	movq	_ZTVN8opendnp318BufferedCollectionINS_7IndexedINS_18AnalogCommandEventEEEZNS_16CountIndexParser13InvokeCountOfINS_11Group43Var3EEEvRKNS_12HeaderRecordEtRKNS_9NumParserERKN7openpal6RSliceERNS_12IAPDUHandlerEEUlRSE_jE_EE@GOTPCREL(%rip), %rax
	movq	%rdx, 64(%rsp)
	leaq	32(%rsp), %rdx
	movdqu	(%rcx), %xmm0
	movw	%si, 16(%rsp)
	addq	$16, %rax
	movups	%xmm0, 40(%rsp)
	movq	%rax, 32(%rsp)
	movzwl	%si, %eax
	movq	%rsp, %rsi
	movdqu	(%rdi), %xmm0
	movq	%r8, %rdi
	movq	%rax, 56(%rsp)
	movaps	%xmm0, (%rsp)
	call	_ZN8opendnp312IAPDUHandler8OnHeaderERKNS_12PrefixHeaderERKNS_11ICollectionINS_7IndexedINS_18AnalogCommandEventEEEEE@PLT
	movq	72(%rsp), %rax
	xorq	%fs:40, %rax
	jne	.L221
	addq	$88, %rsp
	.cfi_remember_state
	.cfi_def_cfa_offset 8
	ret
.L221:
	.cfi_restore_state
	call	__stack_chk_fail@PLT
	.cfi_endproc
.LFE3253:
	.size	_ZN8opendnp316CountIndexParser13InvokeCountOfINS_11Group43Var3EEEvRKNS_12HeaderRecordEtRKNS_9NumParserERKN7openpal6RSliceERNS_12IAPDUHandlerE, .-_ZN8opendnp316CountIndexParser13InvokeCountOfINS_11Group43Var3EEEvRKNS_12HeaderRecordEtRKNS_9NumParserERKN7openpal6RSliceERNS_12IAPDUHandlerE
	.section	.text._ZN8opendnp316CountIndexParser13InvokeCountOfINS_11Group43Var4EEEvRKNS_12HeaderRecordEtRKNS_9NumParserERKN7openpal6RSliceERNS_12IAPDUHandlerE,"axG",@progbits,_ZN8opendnp316CountIndexParser13InvokeCountOfINS_11Group43Var4EEEvRKNS_12HeaderRecordEtRKNS_9NumParserERKN7openpal6RSliceERNS_12IAPDUHandlerE,comdat
	.align 2
	.p2align 4,,15
	.weak	_ZN8opendnp316CountIndexParser13InvokeCountOfINS_11Group43Var4EEEvRKNS_12HeaderRecordEtRKNS_9NumParserERKN7openpal6RSliceERNS_12IAPDUHandlerE
	.type	_ZN8opendnp316CountIndexParser13InvokeCountOfINS_11Group43Var4EEEvRKNS_12HeaderRecordEtRKNS_9NumParserERKN7openpal6RSliceERNS_12IAPDUHandlerE, @function
_ZN8opendnp316CountIndexParser13InvokeCountOfINS_11Group43Var4EEEvRKNS_12HeaderRecordEtRKNS_9NumParserERKN7openpal6RSliceERNS_12IAPDUHandlerE:
.LFB3258:
	.cfi_startproc
	subq	$88, %rsp
	.cfi_def_cfa_offset 96
	movq	%fs:40, %rax
	movq	%rax, 72(%rsp)
	xorl	%eax, %eax
	movq	_ZTVN8opendnp318BufferedCollectionINS_7IndexedINS_18AnalogCommandEventEEEZNS_16CountIndexParser13InvokeCountOfINS_11Group43Var4EEEvRKNS_12HeaderRecordEtRKNS_9NumParserERKN7openpal6RSliceERNS_12IAPDUHandlerEEUlRSE_jE_EE@GOTPCREL(%rip), %rax
	movq	%rdx, 64(%rsp)
	leaq	32(%rsp), %rdx
	movdqu	(%rcx), %xmm0
	movw	%si, 16(%rsp)
	addq	$16, %rax
	movups	%xmm0, 40(%rsp)
	movq	%rax, 32(%rsp)
	movzwl	%si, %eax
	movq	%rsp, %rsi
	movdqu	(%rdi), %xmm0
	movq	%r8, %rdi
	movq	%rax, 56(%rsp)
	movaps	%xmm0, (%rsp)
	call	_ZN8opendnp312IAPDUHandler8OnHeaderERKNS_12PrefixHeaderERKNS_11ICollectionINS_7IndexedINS_18AnalogCommandEventEEEEE@PLT
	movq	72(%rsp), %rax
	xorq	%fs:40, %rax
	jne	.L225
	addq	$88, %rsp
	.cfi_remember_state
	.cfi_def_cfa_offset 8
	ret
.L225:
	.cfi_restore_state
	call	__stack_chk_fail@PLT
	.cfi_endproc
.LFE3258:
	.size	_ZN8opendnp316CountIndexParser13InvokeCountOfINS_11Group43Var4EEEvRKNS_12HeaderRecordEtRKNS_9NumParserERKN7openpal6RSliceERNS_12IAPDUHandlerE, .-_ZN8opendnp316CountIndexParser13InvokeCountOfINS_11Group43Var4EEEvRKNS_12HeaderRecordEtRKNS_9NumParserERKN7openpal6RSliceERNS_12IAPDUHandlerE
	.section	.text._ZN8opendnp316CountIndexParser13InvokeCountOfINS_11Group43Var5EEEvRKNS_12HeaderRecordEtRKNS_9NumParserERKN7openpal6RSliceERNS_12IAPDUHandlerE,"axG",@progbits,_ZN8opendnp316CountIndexParser13InvokeCountOfINS_11Group43Var5EEEvRKNS_12HeaderRecordEtRKNS_9NumParserERKN7openpal6RSliceERNS_12IAPDUHandlerE,comdat
	.align 2
	.p2align 4,,15
	.weak	_ZN8opendnp316CountIndexParser13InvokeCountOfINS_11Group43Var5EEEvRKNS_12HeaderRecordEtRKNS_9NumParserERKN7openpal6RSliceERNS_12IAPDUHandlerE
	.type	_ZN8opendnp316CountIndexParser13InvokeCountOfINS_11Group43Var5EEEvRKNS_12HeaderRecordEtRKNS_9NumParserERKN7openpal6RSliceERNS_12IAPDUHandlerE, @function
_ZN8opendnp316CountIndexParser13InvokeCountOfINS_11Group43Var5EEEvRKNS_12HeaderRecordEtRKNS_9NumParserERKN7openpal6RSliceERNS_12IAPDUHandlerE:
.LFB3263:
	.cfi_startproc
	subq	$88, %rsp
	.cfi_def_cfa_offset 96
	movq	%fs:40, %rax
	movq	%rax, 72(%rsp)
	xorl	%eax, %eax
	movq	_ZTVN8opendnp318BufferedCollectionINS_7IndexedINS_18AnalogCommandEventEEEZNS_16CountIndexParser13InvokeCountOfINS_11Group43Var5EEEvRKNS_12HeaderRecordEtRKNS_9NumParserERKN7openpal6RSliceERNS_12IAPDUHandlerEEUlRSE_jE_EE@GOTPCREL(%rip), %rax
	movq	%rdx, 64(%rsp)
	leaq	32(%rsp), %rdx
	movdqu	(%rcx), %xmm0
	movw	%si, 16(%rsp)
	addq	$16, %rax
	movups	%xmm0, 40(%rsp)
	movq	%rax, 32(%rsp)
	movzwl	%si, %eax
	movq	%rsp, %rsi
	movdqu	(%rdi), %xmm0
	movq	%r8, %rdi
	movq	%rax, 56(%rsp)
	movaps	%xmm0, (%rsp)
	call	_ZN8opendnp312IAPDUHandler8OnHeaderERKNS_12PrefixHeaderERKNS_11ICollectionINS_7IndexedINS_18AnalogCommandEventEEEEE@PLT
	movq	72(%rsp), %rax
	xorq	%fs:40, %rax
	jne	.L229
	addq	$88, %rsp
	.cfi_remember_state
	.cfi_def_cfa_offset 8
	ret
.L229:
	.cfi_restore_state
	call	__stack_chk_fail@PLT
	.cfi_endproc
.LFE3263:
	.size	_ZN8opendnp316CountIndexParser13InvokeCountOfINS_11Group43Var5EEEvRKNS_12HeaderRecordEtRKNS_9NumParserERKN7openpal6RSliceERNS_12IAPDUHandlerE, .-_ZN8opendnp316CountIndexParser13InvokeCountOfINS_11Group43Var5EEEvRKNS_12HeaderRecordEtRKNS_9NumParserERKN7openpal6RSliceERNS_12IAPDUHandlerE
	.section	.text._ZN8opendnp316CountIndexParser13InvokeCountOfINS_11Group43Var6EEEvRKNS_12HeaderRecordEtRKNS_9NumParserERKN7openpal6RSliceERNS_12IAPDUHandlerE,"axG",@progbits,_ZN8opendnp316CountIndexParser13InvokeCountOfINS_11Group43Var6EEEvRKNS_12HeaderRecordEtRKNS_9NumParserERKN7openpal6RSliceERNS_12IAPDUHandlerE,comdat
	.align 2
	.p2align 4,,15
	.weak	_ZN8opendnp316CountIndexParser13InvokeCountOfINS_11Group43Var6EEEvRKNS_12HeaderRecordEtRKNS_9NumParserERKN7openpal6RSliceERNS_12IAPDUHandlerE
	.type	_ZN8opendnp316CountIndexParser13InvokeCountOfINS_11Group43Var6EEEvRKNS_12HeaderRecordEtRKNS_9NumParserERKN7openpal6RSliceERNS_12IAPDUHandlerE, @function
_ZN8opendnp316CountIndexParser13InvokeCountOfINS_11Group43Var6EEEvRKNS_12HeaderRecordEtRKNS_9NumParserERKN7openpal6RSliceERNS_12IAPDUHandlerE:
.LFB3268:
	.cfi_startproc
	subq	$88, %rsp
	.cfi_def_cfa_offset 96
	movq	%fs:40, %rax
	movq	%rax, 72(%rsp)
	xorl	%eax, %eax
	movq	_ZTVN8opendnp318BufferedCollectionINS_7IndexedINS_18AnalogCommandEventEEEZNS_16CountIndexParser13InvokeCountOfINS_11Group43Var6EEEvRKNS_12HeaderRecordEtRKNS_9NumParserERKN7openpal6RSliceERNS_12IAPDUHandlerEEUlRSE_jE_EE@GOTPCREL(%rip), %rax
	movq	%rdx, 64(%rsp)
	leaq	32(%rsp), %rdx
	movdqu	(%rcx), %xmm0
	movw	%si, 16(%rsp)
	addq	$16, %rax
	movups	%xmm0, 40(%rsp)
	movq	%rax, 32(%rsp)
	movzwl	%si, %eax
	movq	%rsp, %rsi
	movdqu	(%rdi), %xmm0
	movq	%r8, %rdi
	movq	%rax, 56(%rsp)
	movaps	%xmm0, (%rsp)
	call	_ZN8opendnp312IAPDUHandler8OnHeaderERKNS_12PrefixHeaderERKNS_11ICollectionINS_7IndexedINS_18AnalogCommandEventEEEEE@PLT
	movq	72(%rsp), %rax
	xorq	%fs:40, %rax
	jne	.L233
	addq	$88, %rsp
	.cfi_remember_state
	.cfi_def_cfa_offset 8
	ret
.L233:
	.cfi_restore_state
	call	__stack_chk_fail@PLT
	.cfi_endproc
.LFE3268:
	.size	_ZN8opendnp316CountIndexParser13InvokeCountOfINS_11Group43Var6EEEvRKNS_12HeaderRecordEtRKNS_9NumParserERKN7openpal6RSliceERNS_12IAPDUHandlerE, .-_ZN8opendnp316CountIndexParser13InvokeCountOfINS_11Group43Var6EEEvRKNS_12HeaderRecordEtRKNS_9NumParserERKN7openpal6RSliceERNS_12IAPDUHandlerE
	.section	.text._ZN8opendnp316CountIndexParser13InvokeCountOfINS_11Group43Var7EEEvRKNS_12HeaderRecordEtRKNS_9NumParserERKN7openpal6RSliceERNS_12IAPDUHandlerE,"axG",@progbits,_ZN8opendnp316CountIndexParser13InvokeCountOfINS_11Group43Var7EEEvRKNS_12HeaderRecordEtRKNS_9NumParserERKN7openpal6RSliceERNS_12IAPDUHandlerE,comdat
	.align 2
	.p2align 4,,15
	.weak	_ZN8opendnp316CountIndexParser13InvokeCountOfINS_11Group43Var7EEEvRKNS_12HeaderRecordEtRKNS_9NumParserERKN7openpal6RSliceERNS_12IAPDUHandlerE
	.type	_ZN8opendnp316CountIndexParser13InvokeCountOfINS_11Group43Var7EEEvRKNS_12HeaderRecordEtRKNS_9NumParserERKN7openpal6RSliceERNS_12IAPDUHandlerE, @function
_ZN8opendnp316CountIndexParser13InvokeCountOfINS_11Group43Var7EEEvRKNS_12HeaderRecordEtRKNS_9NumParserERKN7openpal6RSliceERNS_12IAPDUHandlerE:
.LFB3273:
	.cfi_startproc
	subq	$88, %rsp
	.cfi_def_cfa_offset 96
	movq	%fs:40, %rax
	movq	%rax, 72(%rsp)
	xorl	%eax, %eax
	movq	_ZTVN8opendnp318BufferedCollectionINS_7IndexedINS_18AnalogCommandEventEEEZNS_16CountIndexParser13InvokeCountOfINS_11Group43Var7EEEvRKNS_12HeaderRecordEtRKNS_9NumParserERKN7openpal6RSliceERNS_12IAPDUHandlerEEUlRSE_jE_EE@GOTPCREL(%rip), %rax
	movq	%rdx, 64(%rsp)
	leaq	32(%rsp), %rdx
	movdqu	(%rcx), %xmm0
	movw	%si, 16(%rsp)
	addq	$16, %rax
	movups	%xmm0, 40(%rsp)
	movq	%rax, 32(%rsp)
	movzwl	%si, %eax
	movq	%rsp, %rsi
	movdqu	(%rdi), %xmm0
	movq	%r8, %rdi
	movq	%rax, 56(%rsp)
	movaps	%xmm0, (%rsp)
	call	_ZN8opendnp312IAPDUHandler8OnHeaderERKNS_12PrefixHeaderERKNS_11ICollectionINS_7IndexedINS_18AnalogCommandEventEEEEE@PLT
	movq	72(%rsp), %rax
	xorq	%fs:40, %rax
	jne	.L237
	addq	$88, %rsp
	.cfi_remember_state
	.cfi_def_cfa_offset 8
	ret
.L237:
	.cfi_restore_state
	call	__stack_chk_fail@PLT
	.cfi_endproc
.LFE3273:
	.size	_ZN8opendnp316CountIndexParser13InvokeCountOfINS_11Group43Var7EEEvRKNS_12HeaderRecordEtRKNS_9NumParserERKN7openpal6RSliceERNS_12IAPDUHandlerE, .-_ZN8opendnp316CountIndexParser13InvokeCountOfINS_11Group43Var7EEEvRKNS_12HeaderRecordEtRKNS_9NumParserERKN7openpal6RSliceERNS_12IAPDUHandlerE
	.section	.text._ZN8opendnp316CountIndexParser13InvokeCountOfINS_11Group43Var8EEEvRKNS_12HeaderRecordEtRKNS_9NumParserERKN7openpal6RSliceERNS_12IAPDUHandlerE,"axG",@progbits,_ZN8opendnp316CountIndexParser13InvokeCountOfINS_11Group43Var8EEEvRKNS_12HeaderRecordEtRKNS_9NumParserERKN7openpal6RSliceERNS_12IAPDUHandlerE,comdat
	.align 2
	.p2align 4,,15
	.weak	_ZN8opendnp316CountIndexParser13InvokeCountOfINS_11Group43Var8EEEvRKNS_12HeaderRecordEtRKNS_9NumParserERKN7openpal6RSliceERNS_12IAPDUHandlerE
	.type	_ZN8opendnp316CountIndexParser13InvokeCountOfINS_11Group43Var8EEEvRKNS_12HeaderRecordEtRKNS_9NumParserERKN7openpal6RSliceERNS_12IAPDUHandlerE, @function
_ZN8opendnp316CountIndexParser13InvokeCountOfINS_11Group43Var8EEEvRKNS_12HeaderRecordEtRKNS_9NumParserERKN7openpal6RSliceERNS_12IAPDUHandlerE:
.LFB3278:
	.cfi_startproc
	subq	$88, %rsp
	.cfi_def_cfa_offset 96
	movq	%fs:40, %rax
	movq	%rax, 72(%rsp)
	xorl	%eax, %eax
	movq	_ZTVN8opendnp318BufferedCollectionINS_7IndexedINS_18AnalogCommandEventEEEZNS_16CountIndexParser13InvokeCountOfINS_11Group43Var8EEEvRKNS_12HeaderRecordEtRKNS_9NumParserERKN7openpal6RSliceERNS_12IAPDUHandlerEEUlRSE_jE_EE@GOTPCREL(%rip), %rax
	movq	%rdx, 64(%rsp)
	leaq	32(%rsp), %rdx
	movdqu	(%rcx), %xmm0
	movw	%si, 16(%rsp)
	addq	$16, %rax
	movups	%xmm0, 40(%rsp)
	movq	%rax, 32(%rsp)
	movzwl	%si, %eax
	movq	%rsp, %rsi
	movdqu	(%rdi), %xmm0
	movq	%r8, %rdi
	movq	%rax, 56(%rsp)
	movaps	%xmm0, (%rsp)
	call	_ZN8opendnp312IAPDUHandler8OnHeaderERKNS_12PrefixHeaderERKNS_11ICollectionINS_7IndexedINS_18AnalogCommandEventEEEEE@PLT
	movq	72(%rsp), %rax
	xorq	%fs:40, %rax
	jne	.L241
	addq	$88, %rsp
	.cfi_remember_state
	.cfi_def_cfa_offset 8
	ret
.L241:
	.cfi_restore_state
	call	__stack_chk_fail@PLT
	.cfi_endproc
.LFE3278:
	.size	_ZN8opendnp316CountIndexParser13InvokeCountOfINS_11Group43Var8EEEvRKNS_12HeaderRecordEtRKNS_9NumParserERKN7openpal6RSliceERNS_12IAPDUHandlerE, .-_ZN8opendnp316CountIndexParser13InvokeCountOfINS_11Group43Var8EEEvRKNS_12HeaderRecordEtRKNS_9NumParserERKN7openpal6RSliceERNS_12IAPDUHandlerE
	.section	.text._ZN8opendnp316CountIndexParser13InvokeCountOfINS_11Group50Var4EEEvRKNS_12HeaderRecordEtRKNS_9NumParserERKN7openpal6RSliceERNS_12IAPDUHandlerE,"axG",@progbits,_ZN8opendnp316CountIndexParser13InvokeCountOfINS_11Group50Var4EEEvRKNS_12HeaderRecordEtRKNS_9NumParserERKN7openpal6RSliceERNS_12IAPDUHandlerE,comdat
	.align 2
	.p2align 4,,15
	.weak	_ZN8opendnp316CountIndexParser13InvokeCountOfINS_11Group50Var4EEEvRKNS_12HeaderRecordEtRKNS_9NumParserERKN7openpal6RSliceERNS_12IAPDUHandlerE
	.type	_ZN8opendnp316CountIndexParser13InvokeCountOfINS_11Group50Var4EEEvRKNS_12HeaderRecordEtRKNS_9NumParserERKN7openpal6RSliceERNS_12IAPDUHandlerE, @function
_ZN8opendnp316CountIndexParser13InvokeCountOfINS_11Group50Var4EEEvRKNS_12HeaderRecordEtRKNS_9NumParserERKN7openpal6RSliceERNS_12IAPDUHandlerE:
.LFB3283:
	.cfi_startproc
	subq	$88, %rsp
	.cfi_def_cfa_offset 96
	movq	%fs:40, %rax
	movq	%rax, 72(%rsp)
	xorl	%eax, %eax
	movq	_ZTVN8opendnp318BufferedCollectionINS_7IndexedINS_15TimeAndIntervalEEEZNS_16CountIndexParser13InvokeCountOfINS_11Group50Var4EEEvRKNS_12HeaderRecordEtRKNS_9NumParserERKN7openpal6RSliceERNS_12IAPDUHandlerEEUlRSE_jE_EE@GOTPCREL(%rip), %rax
	movq	%rdx, 64(%rsp)
	leaq	32(%rsp), %rdx
	movdqu	(%rcx), %xmm0
	movw	%si, 16(%rsp)
	addq	$16, %rax
	movups	%xmm0, 40(%rsp)
	movq	%rax, 32(%rsp)
	movzwl	%si, %eax
	movq	%rsp, %rsi
	movdqu	(%rdi), %xmm0
	movq	%r8, %rdi
	movq	%rax, 56(%rsp)
	movaps	%xmm0, (%rsp)
	call	_ZN8opendnp312IAPDUHandler8OnHeaderERKNS_12PrefixHeaderERKNS_11ICollectionINS_7IndexedINS_15TimeAndIntervalEEEEE@PLT
	movq	72(%rsp), %rax
	xorq	%fs:40, %rax
	jne	.L245
	addq	$88, %rsp
	.cfi_remember_state
	.cfi_def_cfa_offset 8
	ret
.L245:
	.cfi_restore_state
	call	__stack_chk_fail@PLT
	.cfi_endproc
.LFE3283:
	.size	_ZN8opendnp316CountIndexParser13InvokeCountOfINS_11Group50Var4EEEvRKNS_12HeaderRecordEtRKNS_9NumParserERKN7openpal6RSliceERNS_12IAPDUHandlerE, .-_ZN8opendnp316CountIndexParser13InvokeCountOfINS_11Group50Var4EEEvRKNS_12HeaderRecordEtRKNS_9NumParserERKN7openpal6RSliceERNS_12IAPDUHandlerE
	.section	.text._ZN8opendnp316CountIndexParser17InvokeCountOfTypeINS_12Group122Var1EEEvRKNS_12HeaderRecordEtRKNS_9NumParserERKN7openpal6RSliceERNS_12IAPDUHandlerE,"axG",@progbits,_ZN8opendnp316CountIndexParser17InvokeCountOfTypeINS_12Group122Var1EEEvRKNS_12HeaderRecordEtRKNS_9NumParserERKN7openpal6RSliceERNS_12IAPDUHandlerE,comdat
	.align 2
	.p2align 4,,15
	.weak	_ZN8opendnp316CountIndexParser17InvokeCountOfTypeINS_12Group122Var1EEEvRKNS_12HeaderRecordEtRKNS_9NumParserERKN7openpal6RSliceERNS_12IAPDUHandlerE
	.type	_ZN8opendnp316CountIndexParser17InvokeCountOfTypeINS_12Group122Var1EEEvRKNS_12HeaderRecordEtRKNS_9NumParserERKN7openpal6RSliceERNS_12IAPDUHandlerE, @function
_ZN8opendnp316CountIndexParser17InvokeCountOfTypeINS_12Group122Var1EEEvRKNS_12HeaderRecordEtRKNS_9NumParserERKN7openpal6RSliceERNS_12IAPDUHandlerE:
.LFB3291:
	.cfi_startproc
	subq	$88, %rsp
	.cfi_def_cfa_offset 96
	movq	%fs:40, %rax
	movq	%rax, 72(%rsp)
	xorl	%eax, %eax
	movq	_ZTVN8opendnp318BufferedCollectionINS_7IndexedINS_12Group122Var1EEEZNS_16CountIndexParser17InvokeCountOfTypeIS2_EEvRKNS_12HeaderRecordEtRKNS_9NumParserERKN7openpal6RSliceERNS_12IAPDUHandlerEEUlRSD_jE_EE@GOTPCREL(%rip), %rax
	movq	%rdx, 64(%rsp)
	leaq	32(%rsp), %rdx
	movdqu	(%rcx), %xmm0
	movw	%si, 16(%rsp)
	addq	$16, %rax
	movups	%xmm0, 40(%rsp)
	movq	%rax, 32(%rsp)
	movzwl	%si, %eax
	movq	%rsp, %rsi
	movdqu	(%rdi), %xmm0
	movq	%r8, %rdi
	movq	%rax, 56(%rsp)
	movaps	%xmm0, (%rsp)
	call	_ZN8opendnp312IAPDUHandler8OnHeaderERKNS_12PrefixHeaderERKNS_11ICollectionINS_7IndexedINS_12Group122Var1EEEEE@PLT
	movq	72(%rsp), %rax
	xorq	%fs:40, %rax
	jne	.L249
	addq	$88, %rsp
	.cfi_remember_state
	.cfi_def_cfa_offset 8
	ret
.L249:
	.cfi_restore_state
	call	__stack_chk_fail@PLT
	.cfi_endproc
.LFE3291:
	.size	_ZN8opendnp316CountIndexParser17InvokeCountOfTypeINS_12Group122Var1EEEvRKNS_12HeaderRecordEtRKNS_9NumParserERKN7openpal6RSliceERNS_12IAPDUHandlerE, .-_ZN8opendnp316CountIndexParser17InvokeCountOfTypeINS_12Group122Var1EEEvRKNS_12HeaderRecordEtRKNS_9NumParserERKN7openpal6RSliceERNS_12IAPDUHandlerE
	.section	.text._ZN8opendnp316CountIndexParser17InvokeCountOfTypeINS_12Group122Var2EEEvRKNS_12HeaderRecordEtRKNS_9NumParserERKN7openpal6RSliceERNS_12IAPDUHandlerE,"axG",@progbits,_ZN8opendnp316CountIndexParser17InvokeCountOfTypeINS_12Group122Var2EEEvRKNS_12HeaderRecordEtRKNS_9NumParserERKN7openpal6RSliceERNS_12IAPDUHandlerE,comdat
	.align 2
	.p2align 4,,15
	.weak	_ZN8opendnp316CountIndexParser17InvokeCountOfTypeINS_12Group122Var2EEEvRKNS_12HeaderRecordEtRKNS_9NumParserERKN7openpal6RSliceERNS_12IAPDUHandlerE
	.type	_ZN8opendnp316CountIndexParser17InvokeCountOfTypeINS_12Group122Var2EEEvRKNS_12HeaderRecordEtRKNS_9NumParserERKN7openpal6RSliceERNS_12IAPDUHandlerE, @function
_ZN8opendnp316CountIndexParser17InvokeCountOfTypeINS_12Group122Var2EEEvRKNS_12HeaderRecordEtRKNS_9NumParserERKN7openpal6RSliceERNS_12IAPDUHandlerE:
.LFB3299:
	.cfi_startproc
	subq	$88, %rsp
	.cfi_def_cfa_offset 96
	movq	%fs:40, %rax
	movq	%rax, 72(%rsp)
	xorl	%eax, %eax
	movq	_ZTVN8opendnp318BufferedCollectionINS_7IndexedINS_12Group122Var2EEEZNS_16CountIndexParser17InvokeCountOfTypeIS2_EEvRKNS_12HeaderRecordEtRKNS_9NumParserERKN7openpal6RSliceERNS_12IAPDUHandlerEEUlRSD_jE_EE@GOTPCREL(%rip), %rax
	movq	%rdx, 64(%rsp)
	leaq	32(%rsp), %rdx
	movdqu	(%rcx), %xmm0
	movw	%si, 16(%rsp)
	addq	$16, %rax
	movups	%xmm0, 40(%rsp)
	movq	%rax, 32(%rsp)
	movzwl	%si, %eax
	movq	%rsp, %rsi
	movdqu	(%rdi), %xmm0
	movq	%r8, %rdi
	movq	%rax, 56(%rsp)
	movaps	%xmm0, (%rsp)
	call	_ZN8opendnp312IAPDUHandler8OnHeaderERKNS_12PrefixHeaderERKNS_11ICollectionINS_7IndexedINS_12Group122Var2EEEEE@PLT
	movq	72(%rsp), %rax
	xorq	%fs:40, %rax
	jne	.L253
	addq	$88, %rsp
	.cfi_remember_state
	.cfi_def_cfa_offset 8
	ret
.L253:
	.cfi_restore_state
	call	__stack_chk_fail@PLT
	.cfi_endproc
.LFE3299:
	.size	_ZN8opendnp316CountIndexParser17InvokeCountOfTypeINS_12Group122Var2EEEvRKNS_12HeaderRecordEtRKNS_9NumParserERKN7openpal6RSliceERNS_12IAPDUHandlerE, .-_ZN8opendnp316CountIndexParser17InvokeCountOfTypeINS_12Group122Var2EEEvRKNS_12HeaderRecordEtRKNS_9NumParserERKN7openpal6RSliceERNS_12IAPDUHandlerE
	.section	.text._ZN7openpal12StaticBufferILj255EED0Ev,"axG",@progbits,_ZN7openpal12StaticBufferILj255EED5Ev,comdat
	.align 2
	.p2align 4,,15
	.weak	_ZN7openpal12StaticBufferILj255EED0Ev
	.type	_ZN7openpal12StaticBufferILj255EED0Ev, @function
_ZN7openpal12StaticBufferILj255EED0Ev:
.LFB2723:
	.cfi_startproc
	movl	$264, %esi
	jmp	_ZdlPvm@PLT
	.cfi_endproc
.LFE2723:
	.size	_ZN7openpal12StaticBufferILj255EED0Ev, .-_ZN7openpal12StaticBufferILj255EED0Ev
	.text
	.align 2
	.p2align 4,,15
	.type	_ZNK8opendnp318BufferedCollectionINS_7IndexedINS_11OctetStringEEEZNS_16CountIndexParser27ParseIndexPrefixedOctetDataERN7openpal6RSliceERKNS_12HeaderRecordERKNS_9NumParserEjPNS5_6LoggerEPNS_12IAPDUHandlerEEUlS7_jE_E7ForeachERNS_8IVisitorIS3_EE, @function
_ZNK8opendnp318BufferedCollectionINS_7IndexedINS_11OctetStringEEEZNS_16CountIndexParser27ParseIndexPrefixedOctetDataERN7openpal6RSliceERKNS_12HeaderRecordERKNS_9NumParserEjPNS5_6LoggerEPNS_12IAPDUHandlerEEUlS7_jE_E7ForeachERNS_8IVisitorIS3_EE:
.LFB3969:
	.cfi_startproc
	pushq	%r15
	.cfi_def_cfa_offset 16
	.cfi_offset 15, -16
	pushq	%r14
	.cfi_def_cfa_offset 24
	.cfi_offset 14, -24
	pushq	%r13
	.cfi_def_cfa_offset 32
	.cfi_offset 13, -32
	pushq	%r12
	.cfi_def_cfa_offset 40
	.cfi_offset 12, -40
	pushq	%rbp
	.cfi_def_cfa_offset 48
	.cfi_offset 6, -48
	pushq	%rbx
	.cfi_def_cfa_offset 56
	.cfi_offset 3, -56
	subq	$648, %rsp
	.cfi_def_cfa_offset 704
	movq	%fs:40, %rax
	movq	%rax, 632(%rsp)
	xorl	%eax, %eax
	cmpq	$0, 24(%rdi)
	movdqu	8(%rdi), %xmm0
	movaps	%xmm0, 48(%rsp)
	je	.L255
	leaq	64(%rsp), %rax
	leaq	48(%rsp), %rbp
	movq	%rdi, %rbx
	movq	%rsi, %r12
	xorl	%r14d, %r14d
	movq	%rax, 40(%rsp)
	leaq	80(%rsp), %rax
	movq	%rax, 32(%rsp)
	leaq	360(%rsp), %rax
	movq	%rax, 8(%rsp)
	leaq	88(%rsp), %rax
	movq	%rax, 16(%rsp)
	leaq	352(%rsp), %rax
	movq	%rax, 24(%rsp)
	movq	_ZTVN7openpal12StaticBufferILj255EEE@GOTPCREL(%rip), %rax
	addq	$16, %rax
	movq	%rax, (%rsp)
	.p2align 4,,10
	.p2align 3
.L257:
	movq	(%r12), %rax
	movq	32(%rbx), %rdi
	movq	%rbp, %rsi
	movq	(%rax), %r15
	call	_ZNK8opendnp39NumParser7ReadNumERN7openpal6RSliceE@PLT
	movzbl	49(%rbx), %esi
	movq	%rbp, %rdi
	movl	%eax, %r13d
	call	_ZNK7openpal6RSlice4TakeEj@PLT
	movq	40(%rsp), %rsi
	movq	32(%rsp), %rdi
	movl	%eax, 64(%rsp)
	movq	%rdx, 72(%rsp)
	call	_ZN8opendnp39OctetDataC2ERKN7openpal6RSliceE@PLT
	movzbl	49(%rbx), %esi
	movq	%rbp, %rdi
	call	_ZN7openpal6RSlice7AdvanceEj@PLT
	movq	8(%rsp), %rdi
	movq	16(%rsp), %rsi
	movl	$31, %ecx
	rep movsq
	movq	(%rsp), %rax
	movq	%rax, 352(%rsp)
	movl	(%rsi), %eax
	movl	%eax, (%rdi)
	movzwl	4(%rsi), %eax
	movw	%ax, 4(%rdi)
	movzbl	6(%rsi), %eax
	movq	24(%rsp), %rsi
	movb	%al, 6(%rdi)
	movzbl	344(%rsp), %eax
	movq	%r12, %rdi
	movw	%r13w, 624(%rsp)
	movb	%al, 616(%rsp)
	call	*%r15
	leal	1(%r14), %eax
	cmpq	24(%rbx), %rax
	movq	%rax, %r14
	jb	.L257
.L255:
	movq	632(%rsp), %rax
	xorq	%fs:40, %rax
	jne	.L261
	addq	$648, %rsp
	.cfi_remember_state
	.cfi_def_cfa_offset 56
	popq	%rbx
	.cfi_def_cfa_offset 48
	popq	%rbp
	.cfi_def_cfa_offset 40
	popq	%r12
	.cfi_def_cfa_offset 32
	popq	%r13
	.cfi_def_cfa_offset 24
	popq	%r14
	.cfi_def_cfa_offset 16
	popq	%r15
	.cfi_def_cfa_offset 8
	ret
.L261:
	.cfi_restore_state
	call	__stack_chk_fail@PLT
	.cfi_endproc
.LFE3969:
	.size	_ZNK8opendnp318BufferedCollectionINS_7IndexedINS_11OctetStringEEEZNS_16CountIndexParser27ParseIndexPrefixedOctetDataERN7openpal6RSliceERKNS_12HeaderRecordERKNS_9NumParserEjPNS5_6LoggerEPNS_12IAPDUHandlerEEUlS7_jE_E7ForeachERNS_8IVisitorIS3_EE, .-_ZNK8opendnp318BufferedCollectionINS_7IndexedINS_11OctetStringEEEZNS_16CountIndexParser27ParseIndexPrefixedOctetDataERN7openpal6RSliceERKNS_12HeaderRecordERKNS_9NumParserEjPNS5_6LoggerEPNS_12IAPDUHandlerEEUlS7_jE_E7ForeachERNS_8IVisitorIS3_EE
	.section	.text._ZNK8opendnp318BufferedCollectionINS_7IndexedINS_6BinaryEEEZNS_16CountIndexParser13InvokeCountOfINS_10Group2Var1EEEvRKNS_12HeaderRecordEtRKNS_9NumParserERKN7openpal6RSliceERNS_12IAPDUHandlerEEUlRSE_jE_E7ForeachERNS_8IVisitorIS3_EE,"axG",@progbits,_ZNK8opendnp318BufferedCollectionINS_7IndexedINS_6BinaryEEEZNS_16CountIndexParser13InvokeCountOfINS_10Group2Var1EEEvRKNS_12HeaderRecordEtRKNS_9NumParserERKN7openpal6RSliceERNS_12IAPDUHandlerEEUlRSE_jE_E7ForeachERNS_8IVisitorIS3_EE,comdat
	.align 2
	.p2align 4,,15
	.weak	_ZNK8opendnp318BufferedCollectionINS_7IndexedINS_6BinaryEEEZNS_16CountIndexParser13InvokeCountOfINS_10Group2Var1EEEvRKNS_12HeaderRecordEtRKNS_9NumParserERKN7openpal6RSliceERNS_12IAPDUHandlerEEUlRSE_jE_E7ForeachERNS_8IVisitorIS3_EE
	.type	_ZNK8opendnp318BufferedCollectionINS_7IndexedINS_6BinaryEEEZNS_16CountIndexParser13InvokeCountOfINS_10Group2Var1EEEvRKNS_12HeaderRecordEtRKNS_9NumParserERKN7openpal6RSliceERNS_12IAPDUHandlerEEUlRSE_jE_E7ForeachERNS_8IVisitorIS3_EE, @function
_ZNK8opendnp318BufferedCollectionINS_7IndexedINS_6BinaryEEEZNS_16CountIndexParser13InvokeCountOfINS_10Group2Var1EEEvRKNS_12HeaderRecordEtRKNS_9NumParserERKN7openpal6RSliceERNS_12IAPDUHandlerEEUlRSE_jE_E7ForeachERNS_8IVisitorIS3_EE:
.LFB3967:
	.cfi_startproc
	pushq	%r15
	.cfi_def_cfa_offset 16
	.cfi_offset 15, -16
	pushq	%r14
	.cfi_def_cfa_offset 24
	.cfi_offset 14, -24
	pushq	%r13
	.cfi_def_cfa_offset 32
	.cfi_offset 13, -32
	pushq	%r12
	.cfi_def_cfa_offset 40
	.cfi_offset 12, -40
	pushq	%rbp
	.cfi_def_cfa_offset 48
	.cfi_offset 6, -48
	pushq	%rbx
	.cfi_def_cfa_offset 56
	.cfi_offset 3, -56
	subq	$72, %rsp
	.cfi_def_cfa_offset 128
	movq	%fs:40, %rax
	movq	%rax, 56(%rsp)
	xorl	%eax, %eax
	cmpq	$0, 24(%rdi)
	movdqu	8(%rdi), %xmm0
	movaps	%xmm0, (%rsp)
	je	.L262
	leaq	16(%rsp), %rbx
	movq	%rdi, %r12
	movq	%rsi, %r13
	xorl	%ebp, %ebp
	movq	%rsp, %r14
	.p2align 4,,10
	.p2align 3
.L264:
	movq	0(%r13), %rax
	movq	%rbx, %rdi
	movq	(%rax), %r15
	call	_ZN8opendnp36BinaryC1Ev@PLT
	movq	32(%r12), %rdi
	xorl	%eax, %eax
	movq	%r14, %rsi
	movw	%ax, 40(%rsp)
	call	_ZNK8opendnp39NumParser7ReadNumERN7openpal6RSliceE@PLT
	movq	%rbx, %rsi
	movq	%r14, %rdi
	movw	%ax, 40(%rsp)
	call	_ZN8opendnp310Group2Var110ReadTargetERN7openpal6RSliceERNS_6BinaryE@PLT
	movq	%rbx, %rsi
	movq	%r13, %rdi
	call	*%r15
	leal	1(%rbp), %eax
	cmpq	24(%r12), %rax
	movq	%rax, %rbp
	jb	.L264
.L262:
	movq	56(%rsp), %rax
	xorq	%fs:40, %rax
	jne	.L268
	addq	$72, %rsp
	.cfi_remember_state
	.cfi_def_cfa_offset 56
	popq	%rbx
	.cfi_def_cfa_offset 48
	popq	%rbp
	.cfi_def_cfa_offset 40
	popq	%r12
	.cfi_def_cfa_offset 32
	popq	%r13
	.cfi_def_cfa_offset 24
	popq	%r14
	.cfi_def_cfa_offset 16
	popq	%r15
	.cfi_def_cfa_offset 8
	ret
.L268:
	.cfi_restore_state
	call	__stack_chk_fail@PLT
	.cfi_endproc
.LFE3967:
	.size	_ZNK8opendnp318BufferedCollectionINS_7IndexedINS_6BinaryEEEZNS_16CountIndexParser13InvokeCountOfINS_10Group2Var1EEEvRKNS_12HeaderRecordEtRKNS_9NumParserERKN7openpal6RSliceERNS_12IAPDUHandlerEEUlRSE_jE_E7ForeachERNS_8IVisitorIS3_EE, .-_ZNK8opendnp318BufferedCollectionINS_7IndexedINS_6BinaryEEEZNS_16CountIndexParser13InvokeCountOfINS_10Group2Var1EEEvRKNS_12HeaderRecordEtRKNS_9NumParserERKN7openpal6RSliceERNS_12IAPDUHandlerEEUlRSE_jE_E7ForeachERNS_8IVisitorIS3_EE
	.section	.text._ZNK8opendnp318BufferedCollectionINS_7IndexedINS_6BinaryEEEZNS_16CountIndexParser13InvokeCountOfINS_10Group2Var2EEEvRKNS_12HeaderRecordEtRKNS_9NumParserERKN7openpal6RSliceERNS_12IAPDUHandlerEEUlRSE_jE_E7ForeachERNS_8IVisitorIS3_EE,"axG",@progbits,_ZNK8opendnp318BufferedCollectionINS_7IndexedINS_6BinaryEEEZNS_16CountIndexParser13InvokeCountOfINS_10Group2Var2EEEvRKNS_12HeaderRecordEtRKNS_9NumParserERKN7openpal6RSliceERNS_12IAPDUHandlerEEUlRSE_jE_E7ForeachERNS_8IVisitorIS3_EE,comdat
	.align 2
	.p2align 4,,15
	.weak	_ZNK8opendnp318BufferedCollectionINS_7IndexedINS_6BinaryEEEZNS_16CountIndexParser13InvokeCountOfINS_10Group2Var2EEEvRKNS_12HeaderRecordEtRKNS_9NumParserERKN7openpal6RSliceERNS_12IAPDUHandlerEEUlRSE_jE_E7ForeachERNS_8IVisitorIS3_EE
	.type	_ZNK8opendnp318BufferedCollectionINS_7IndexedINS_6BinaryEEEZNS_16CountIndexParser13InvokeCountOfINS_10Group2Var2EEEvRKNS_12HeaderRecordEtRKNS_9NumParserERKN7openpal6RSliceERNS_12IAPDUHandlerEEUlRSE_jE_E7ForeachERNS_8IVisitorIS3_EE, @function
_ZNK8opendnp318BufferedCollectionINS_7IndexedINS_6BinaryEEEZNS_16CountIndexParser13InvokeCountOfINS_10Group2Var2EEEvRKNS_12HeaderRecordEtRKNS_9NumParserERKN7openpal6RSliceERNS_12IAPDUHandlerEEUlRSE_jE_E7ForeachERNS_8IVisitorIS3_EE:
.LFB3965:
	.cfi_startproc
	pushq	%r15
	.cfi_def_cfa_offset 16
	.cfi_offset 15, -16
	pushq	%r14
	.cfi_def_cfa_offset 24
	.cfi_offset 14, -24
	pushq	%r13
	.cfi_def_cfa_offset 32
	.cfi_offset 13, -32
	pushq	%r12
	.cfi_def_cfa_offset 40
	.cfi_offset 12, -40
	pushq	%rbp
	.cfi_def_cfa_offset 48
	.cfi_offset 6, -48
	pushq	%rbx
	.cfi_def_cfa_offset 56
	.cfi_offset 3, -56
	subq	$72, %rsp
	.cfi_def_cfa_offset 128
	movq	%fs:40, %rax
	movq	%rax, 56(%rsp)
	xorl	%eax, %eax
	cmpq	$0, 24(%rdi)
	movdqu	8(%rdi), %xmm0
	movaps	%xmm0, (%rsp)
	je	.L269
	leaq	16(%rsp), %rbx
	movq	%rdi, %r12
	movq	%rsi, %r13
	xorl	%ebp, %ebp
	movq	%rsp, %r14
	.p2align 4,,10
	.p2align 3
.L271:
	movq	0(%r13), %rax
	movq	%rbx, %rdi
	movq	(%rax), %r15
	call	_ZN8opendnp36BinaryC1Ev@PLT
	movq	32(%r12), %rdi
	xorl	%eax, %eax
	movq	%r14, %rsi
	movw	%ax, 40(%rsp)
	call	_ZNK8opendnp39NumParser7ReadNumERN7openpal6RSliceE@PLT
	movq	%rbx, %rsi
	movq	%r14, %rdi
	movw	%ax, 40(%rsp)
	call	_ZN8opendnp310Group2Var210ReadTargetERN7openpal6RSliceERNS_6BinaryE@PLT
	movq	%rbx, %rsi
	movq	%r13, %rdi
	call	*%r15
	leal	1(%rbp), %eax
	cmpq	24(%r12), %rax
	movq	%rax, %rbp
	jb	.L271
.L269:
	movq	56(%rsp), %rax
	xorq	%fs:40, %rax
	jne	.L275
	addq	$72, %rsp
	.cfi_remember_state
	.cfi_def_cfa_offset 56
	popq	%rbx
	.cfi_def_cfa_offset 48
	popq	%rbp
	.cfi_def_cfa_offset 40
	popq	%r12
	.cfi_def_cfa_offset 32
	popq	%r13
	.cfi_def_cfa_offset 24
	popq	%r14
	.cfi_def_cfa_offset 16
	popq	%r15
	.cfi_def_cfa_offset 8
	ret
.L275:
	.cfi_restore_state
	call	__stack_chk_fail@PLT
	.cfi_endproc
.LFE3965:
	.size	_ZNK8opendnp318BufferedCollectionINS_7IndexedINS_6BinaryEEEZNS_16CountIndexParser13InvokeCountOfINS_10Group2Var2EEEvRKNS_12HeaderRecordEtRKNS_9NumParserERKN7openpal6RSliceERNS_12IAPDUHandlerEEUlRSE_jE_E7ForeachERNS_8IVisitorIS3_EE, .-_ZNK8opendnp318BufferedCollectionINS_7IndexedINS_6BinaryEEEZNS_16CountIndexParser13InvokeCountOfINS_10Group2Var2EEEvRKNS_12HeaderRecordEtRKNS_9NumParserERKN7openpal6RSliceERNS_12IAPDUHandlerEEUlRSE_jE_E7ForeachERNS_8IVisitorIS3_EE
	.section	.text._ZNK8opendnp318BufferedCollectionINS_7IndexedINS_6BinaryEEEZNS_16CountIndexParser13InvokeCountOfINS_10Group2Var3EEEvRKNS_12HeaderRecordEtRKNS_9NumParserERKN7openpal6RSliceERNS_12IAPDUHandlerEEUlRSE_jE_E7ForeachERNS_8IVisitorIS3_EE,"axG",@progbits,_ZNK8opendnp318BufferedCollectionINS_7IndexedINS_6BinaryEEEZNS_16CountIndexParser13InvokeCountOfINS_10Group2Var3EEEvRKNS_12HeaderRecordEtRKNS_9NumParserERKN7openpal6RSliceERNS_12IAPDUHandlerEEUlRSE_jE_E7ForeachERNS_8IVisitorIS3_EE,comdat
	.align 2
	.p2align 4,,15
	.weak	_ZNK8opendnp318BufferedCollectionINS_7IndexedINS_6BinaryEEEZNS_16CountIndexParser13InvokeCountOfINS_10Group2Var3EEEvRKNS_12HeaderRecordEtRKNS_9NumParserERKN7openpal6RSliceERNS_12IAPDUHandlerEEUlRSE_jE_E7ForeachERNS_8IVisitorIS3_EE
	.type	_ZNK8opendnp318BufferedCollectionINS_7IndexedINS_6BinaryEEEZNS_16CountIndexParser13InvokeCountOfINS_10Group2Var3EEEvRKNS_12HeaderRecordEtRKNS_9NumParserERKN7openpal6RSliceERNS_12IAPDUHandlerEEUlRSE_jE_E7ForeachERNS_8IVisitorIS3_EE, @function
_ZNK8opendnp318BufferedCollectionINS_7IndexedINS_6BinaryEEEZNS_16CountIndexParser13InvokeCountOfINS_10Group2Var3EEEvRKNS_12HeaderRecordEtRKNS_9NumParserERKN7openpal6RSliceERNS_12IAPDUHandlerEEUlRSE_jE_E7ForeachERNS_8IVisitorIS3_EE:
.LFB3963:
	.cfi_startproc
	pushq	%r15
	.cfi_def_cfa_offset 16
	.cfi_offset 15, -16
	pushq	%r14
	.cfi_def_cfa_offset 24
	.cfi_offset 14, -24
	pushq	%r13
	.cfi_def_cfa_offset 32
	.cfi_offset 13, -32
	pushq	%r12
	.cfi_def_cfa_offset 40
	.cfi_offset 12, -40
	pushq	%rbp
	.cfi_def_cfa_offset 48
	.cfi_offset 6, -48
	pushq	%rbx
	.cfi_def_cfa_offset 56
	.cfi_offset 3, -56
	subq	$72, %rsp
	.cfi_def_cfa_offset 128
	movq	%fs:40, %rax
	movq	%rax, 56(%rsp)
	xorl	%eax, %eax
	cmpq	$0, 24(%rdi)
	movdqu	8(%rdi), %xmm0
	movaps	%xmm0, (%rsp)
	je	.L276
	leaq	16(%rsp), %rbx
	movq	%rdi, %r12
	movq	%rsi, %r13
	xorl	%ebp, %ebp
	movq	%rsp, %r14
	.p2align 4,,10
	.p2align 3
.L278:
	movq	0(%r13), %rax
	movq	%rbx, %rdi
	movq	(%rax), %r15
	call	_ZN8opendnp36BinaryC1Ev@PLT
	movq	32(%r12), %rdi
	xorl	%eax, %eax
	movq	%r14, %rsi
	movw	%ax, 40(%rsp)
	call	_ZNK8opendnp39NumParser7ReadNumERN7openpal6RSliceE@PLT
	movq	%rbx, %rsi
	movq	%r14, %rdi
	movw	%ax, 40(%rsp)
	call	_ZN8opendnp310Group2Var310ReadTargetERN7openpal6RSliceERNS_6BinaryE@PLT
	movq	%rbx, %rsi
	movq	%r13, %rdi
	call	*%r15
	leal	1(%rbp), %eax
	cmpq	24(%r12), %rax
	movq	%rax, %rbp
	jb	.L278
.L276:
	movq	56(%rsp), %rax
	xorq	%fs:40, %rax
	jne	.L282
	addq	$72, %rsp
	.cfi_remember_state
	.cfi_def_cfa_offset 56
	popq	%rbx
	.cfi_def_cfa_offset 48
	popq	%rbp
	.cfi_def_cfa_offset 40
	popq	%r12
	.cfi_def_cfa_offset 32
	popq	%r13
	.cfi_def_cfa_offset 24
	popq	%r14
	.cfi_def_cfa_offset 16
	popq	%r15
	.cfi_def_cfa_offset 8
	ret
.L282:
	.cfi_restore_state
	call	__stack_chk_fail@PLT
	.cfi_endproc
.LFE3963:
	.size	_ZNK8opendnp318BufferedCollectionINS_7IndexedINS_6BinaryEEEZNS_16CountIndexParser13InvokeCountOfINS_10Group2Var3EEEvRKNS_12HeaderRecordEtRKNS_9NumParserERKN7openpal6RSliceERNS_12IAPDUHandlerEEUlRSE_jE_E7ForeachERNS_8IVisitorIS3_EE, .-_ZNK8opendnp318BufferedCollectionINS_7IndexedINS_6BinaryEEEZNS_16CountIndexParser13InvokeCountOfINS_10Group2Var3EEEvRKNS_12HeaderRecordEtRKNS_9NumParserERKN7openpal6RSliceERNS_12IAPDUHandlerEEUlRSE_jE_E7ForeachERNS_8IVisitorIS3_EE
	.section	.text._ZNK8opendnp318BufferedCollectionINS_7IndexedINS_15DoubleBitBinaryEEEZNS_16CountIndexParser13InvokeCountOfINS_10Group4Var1EEEvRKNS_12HeaderRecordEtRKNS_9NumParserERKN7openpal6RSliceERNS_12IAPDUHandlerEEUlRSE_jE_E7ForeachERNS_8IVisitorIS3_EE,"axG",@progbits,_ZNK8opendnp318BufferedCollectionINS_7IndexedINS_15DoubleBitBinaryEEEZNS_16CountIndexParser13InvokeCountOfINS_10Group4Var1EEEvRKNS_12HeaderRecordEtRKNS_9NumParserERKN7openpal6RSliceERNS_12IAPDUHandlerEEUlRSE_jE_E7ForeachERNS_8IVisitorIS3_EE,comdat
	.align 2
	.p2align 4,,15
	.weak	_ZNK8opendnp318BufferedCollectionINS_7IndexedINS_15DoubleBitBinaryEEEZNS_16CountIndexParser13InvokeCountOfINS_10Group4Var1EEEvRKNS_12HeaderRecordEtRKNS_9NumParserERKN7openpal6RSliceERNS_12IAPDUHandlerEEUlRSE_jE_E7ForeachERNS_8IVisitorIS3_EE
	.type	_ZNK8opendnp318BufferedCollectionINS_7IndexedINS_15DoubleBitBinaryEEEZNS_16CountIndexParser13InvokeCountOfINS_10Group4Var1EEEvRKNS_12HeaderRecordEtRKNS_9NumParserERKN7openpal6RSliceERNS_12IAPDUHandlerEEUlRSE_jE_E7ForeachERNS_8IVisitorIS3_EE, @function
_ZNK8opendnp318BufferedCollectionINS_7IndexedINS_15DoubleBitBinaryEEEZNS_16CountIndexParser13InvokeCountOfINS_10Group4Var1EEEvRKNS_12HeaderRecordEtRKNS_9NumParserERKN7openpal6RSliceERNS_12IAPDUHandlerEEUlRSE_jE_E7ForeachERNS_8IVisitorIS3_EE:
.LFB3961:
	.cfi_startproc
	pushq	%r15
	.cfi_def_cfa_offset 16
	.cfi_offset 15, -16
	pushq	%r14
	.cfi_def_cfa_offset 24
	.cfi_offset 14, -24
	pushq	%r13
	.cfi_def_cfa_offset 32
	.cfi_offset 13, -32
	pushq	%r12
	.cfi_def_cfa_offset 40
	.cfi_offset 12, -40
	pushq	%rbp
	.cfi_def_cfa_offset 48
	.cfi_offset 6, -48
	pushq	%rbx
	.cfi_def_cfa_offset 56
	.cfi_offset 3, -56
	subq	$72, %rsp
	.cfi_def_cfa_offset 128
	movq	%fs:40, %rax
	movq	%rax, 56(%rsp)
	xorl	%eax, %eax
	cmpq	$0, 24(%rdi)
	movdqu	8(%rdi), %xmm0
	movaps	%xmm0, (%rsp)
	je	.L283
	leaq	16(%rsp), %rbx
	movq	%rdi, %r12
	movq	%rsi, %r13
	xorl	%ebp, %ebp
	movq	%rsp, %r14
	.p2align 4,,10
	.p2align 3
.L285:
	movq	0(%r13), %rax
	movq	%rbx, %rdi
	movq	(%rax), %r15
	call	_ZN8opendnp315DoubleBitBinaryC1Ev@PLT
	movq	32(%r12), %rdi
	xorl	%eax, %eax
	movq	%r14, %rsi
	movw	%ax, 40(%rsp)
	call	_ZNK8opendnp39NumParser7ReadNumERN7openpal6RSliceE@PLT
	movq	%rbx, %rsi
	movq	%r14, %rdi
	movw	%ax, 40(%rsp)
	call	_ZN8opendnp310Group4Var110ReadTargetERN7openpal6RSliceERNS_15DoubleBitBinaryE@PLT
	movq	%rbx, %rsi
	movq	%r13, %rdi
	call	*%r15
	leal	1(%rbp), %eax
	cmpq	24(%r12), %rax
	movq	%rax, %rbp
	jb	.L285
.L283:
	movq	56(%rsp), %rax
	xorq	%fs:40, %rax
	jne	.L289
	addq	$72, %rsp
	.cfi_remember_state
	.cfi_def_cfa_offset 56
	popq	%rbx
	.cfi_def_cfa_offset 48
	popq	%rbp
	.cfi_def_cfa_offset 40
	popq	%r12
	.cfi_def_cfa_offset 32
	popq	%r13
	.cfi_def_cfa_offset 24
	popq	%r14
	.cfi_def_cfa_offset 16
	popq	%r15
	.cfi_def_cfa_offset 8
	ret
.L289:
	.cfi_restore_state
	call	__stack_chk_fail@PLT
	.cfi_endproc
.LFE3961:
	.size	_ZNK8opendnp318BufferedCollectionINS_7IndexedINS_15DoubleBitBinaryEEEZNS_16CountIndexParser13InvokeCountOfINS_10Group4Var1EEEvRKNS_12HeaderRecordEtRKNS_9NumParserERKN7openpal6RSliceERNS_12IAPDUHandlerEEUlRSE_jE_E7ForeachERNS_8IVisitorIS3_EE, .-_ZNK8opendnp318BufferedCollectionINS_7IndexedINS_15DoubleBitBinaryEEEZNS_16CountIndexParser13InvokeCountOfINS_10Group4Var1EEEvRKNS_12HeaderRecordEtRKNS_9NumParserERKN7openpal6RSliceERNS_12IAPDUHandlerEEUlRSE_jE_E7ForeachERNS_8IVisitorIS3_EE
	.section	.text._ZNK8opendnp318BufferedCollectionINS_7IndexedINS_15DoubleBitBinaryEEEZNS_16CountIndexParser13InvokeCountOfINS_10Group4Var2EEEvRKNS_12HeaderRecordEtRKNS_9NumParserERKN7openpal6RSliceERNS_12IAPDUHandlerEEUlRSE_jE_E7ForeachERNS_8IVisitorIS3_EE,"axG",@progbits,_ZNK8opendnp318BufferedCollectionINS_7IndexedINS_15DoubleBitBinaryEEEZNS_16CountIndexParser13InvokeCountOfINS_10Group4Var2EEEvRKNS_12HeaderRecordEtRKNS_9NumParserERKN7openpal6RSliceERNS_12IAPDUHandlerEEUlRSE_jE_E7ForeachERNS_8IVisitorIS3_EE,comdat
	.align 2
	.p2align 4,,15
	.weak	_ZNK8opendnp318BufferedCollectionINS_7IndexedINS_15DoubleBitBinaryEEEZNS_16CountIndexParser13InvokeCountOfINS_10Group4Var2EEEvRKNS_12HeaderRecordEtRKNS_9NumParserERKN7openpal6RSliceERNS_12IAPDUHandlerEEUlRSE_jE_E7ForeachERNS_8IVisitorIS3_EE
	.type	_ZNK8opendnp318BufferedCollectionINS_7IndexedINS_15DoubleBitBinaryEEEZNS_16CountIndexParser13InvokeCountOfINS_10Group4Var2EEEvRKNS_12HeaderRecordEtRKNS_9NumParserERKN7openpal6RSliceERNS_12IAPDUHandlerEEUlRSE_jE_E7ForeachERNS_8IVisitorIS3_EE, @function
_ZNK8opendnp318BufferedCollectionINS_7IndexedINS_15DoubleBitBinaryEEEZNS_16CountIndexParser13InvokeCountOfINS_10Group4Var2EEEvRKNS_12HeaderRecordEtRKNS_9NumParserERKN7openpal6RSliceERNS_12IAPDUHandlerEEUlRSE_jE_E7ForeachERNS_8IVisitorIS3_EE:
.LFB3959:
	.cfi_startproc
	pushq	%r15
	.cfi_def_cfa_offset 16
	.cfi_offset 15, -16
	pushq	%r14
	.cfi_def_cfa_offset 24
	.cfi_offset 14, -24
	pushq	%r13
	.cfi_def_cfa_offset 32
	.cfi_offset 13, -32
	pushq	%r12
	.cfi_def_cfa_offset 40
	.cfi_offset 12, -40
	pushq	%rbp
	.cfi_def_cfa_offset 48
	.cfi_offset 6, -48
	pushq	%rbx
	.cfi_def_cfa_offset 56
	.cfi_offset 3, -56
	subq	$72, %rsp
	.cfi_def_cfa_offset 128
	movq	%fs:40, %rax
	movq	%rax, 56(%rsp)
	xorl	%eax, %eax
	cmpq	$0, 24(%rdi)
	movdqu	8(%rdi), %xmm0
	movaps	%xmm0, (%rsp)
	je	.L290
	leaq	16(%rsp), %rbx
	movq	%rdi, %r12
	movq	%rsi, %r13
	xorl	%ebp, %ebp
	movq	%rsp, %r14
	.p2align 4,,10
	.p2align 3
.L292:
	movq	0(%r13), %rax
	movq	%rbx, %rdi
	movq	(%rax), %r15
	call	_ZN8opendnp315DoubleBitBinaryC1Ev@PLT
	movq	32(%r12), %rdi
	xorl	%eax, %eax
	movq	%r14, %rsi
	movw	%ax, 40(%rsp)
	call	_ZNK8opendnp39NumParser7ReadNumERN7openpal6RSliceE@PLT
	movq	%rbx, %rsi
	movq	%r14, %rdi
	movw	%ax, 40(%rsp)
	call	_ZN8opendnp310Group4Var210ReadTargetERN7openpal6RSliceERNS_15DoubleBitBinaryE@PLT
	movq	%rbx, %rsi
	movq	%r13, %rdi
	call	*%r15
	leal	1(%rbp), %eax
	cmpq	24(%r12), %rax
	movq	%rax, %rbp
	jb	.L292
.L290:
	movq	56(%rsp), %rax
	xorq	%fs:40, %rax
	jne	.L296
	addq	$72, %rsp
	.cfi_remember_state
	.cfi_def_cfa_offset 56
	popq	%rbx
	.cfi_def_cfa_offset 48
	popq	%rbp
	.cfi_def_cfa_offset 40
	popq	%r12
	.cfi_def_cfa_offset 32
	popq	%r13
	.cfi_def_cfa_offset 24
	popq	%r14
	.cfi_def_cfa_offset 16
	popq	%r15
	.cfi_def_cfa_offset 8
	ret
.L296:
	.cfi_restore_state
	call	__stack_chk_fail@PLT
	.cfi_endproc
.LFE3959:
	.size	_ZNK8opendnp318BufferedCollectionINS_7IndexedINS_15DoubleBitBinaryEEEZNS_16CountIndexParser13InvokeCountOfINS_10Group4Var2EEEvRKNS_12HeaderRecordEtRKNS_9NumParserERKN7openpal6RSliceERNS_12IAPDUHandlerEEUlRSE_jE_E7ForeachERNS_8IVisitorIS3_EE, .-_ZNK8opendnp318BufferedCollectionINS_7IndexedINS_15DoubleBitBinaryEEEZNS_16CountIndexParser13InvokeCountOfINS_10Group4Var2EEEvRKNS_12HeaderRecordEtRKNS_9NumParserERKN7openpal6RSliceERNS_12IAPDUHandlerEEUlRSE_jE_E7ForeachERNS_8IVisitorIS3_EE
	.section	.text._ZNK8opendnp318BufferedCollectionINS_7IndexedINS_15DoubleBitBinaryEEEZNS_16CountIndexParser13InvokeCountOfINS_10Group4Var3EEEvRKNS_12HeaderRecordEtRKNS_9NumParserERKN7openpal6RSliceERNS_12IAPDUHandlerEEUlRSE_jE_E7ForeachERNS_8IVisitorIS3_EE,"axG",@progbits,_ZNK8opendnp318BufferedCollectionINS_7IndexedINS_15DoubleBitBinaryEEEZNS_16CountIndexParser13InvokeCountOfINS_10Group4Var3EEEvRKNS_12HeaderRecordEtRKNS_9NumParserERKN7openpal6RSliceERNS_12IAPDUHandlerEEUlRSE_jE_E7ForeachERNS_8IVisitorIS3_EE,comdat
	.align 2
	.p2align 4,,15
	.weak	_ZNK8opendnp318BufferedCollectionINS_7IndexedINS_15DoubleBitBinaryEEEZNS_16CountIndexParser13InvokeCountOfINS_10Group4Var3EEEvRKNS_12HeaderRecordEtRKNS_9NumParserERKN7openpal6RSliceERNS_12IAPDUHandlerEEUlRSE_jE_E7ForeachERNS_8IVisitorIS3_EE
	.type	_ZNK8opendnp318BufferedCollectionINS_7IndexedINS_15DoubleBitBinaryEEEZNS_16CountIndexParser13InvokeCountOfINS_10Group4Var3EEEvRKNS_12HeaderRecordEtRKNS_9NumParserERKN7openpal6RSliceERNS_12IAPDUHandlerEEUlRSE_jE_E7ForeachERNS_8IVisitorIS3_EE, @function
_ZNK8opendnp318BufferedCollectionINS_7IndexedINS_15DoubleBitBinaryEEEZNS_16CountIndexParser13InvokeCountOfINS_10Group4Var3EEEvRKNS_12HeaderRecordEtRKNS_9NumParserERKN7openpal6RSliceERNS_12IAPDUHandlerEEUlRSE_jE_E7ForeachERNS_8IVisitorIS3_EE:
.LFB3957:
	.cfi_startproc
	pushq	%r15
	.cfi_def_cfa_offset 16
	.cfi_offset 15, -16
	pushq	%r14
	.cfi_def_cfa_offset 24
	.cfi_offset 14, -24
	pushq	%r13
	.cfi_def_cfa_offset 32
	.cfi_offset 13, -32
	pushq	%r12
	.cfi_def_cfa_offset 40
	.cfi_offset 12, -40
	pushq	%rbp
	.cfi_def_cfa_offset 48
	.cfi_offset 6, -48
	pushq	%rbx
	.cfi_def_cfa_offset 56
	.cfi_offset 3, -56
	subq	$72, %rsp
	.cfi_def_cfa_offset 128
	movq	%fs:40, %rax
	movq	%rax, 56(%rsp)
	xorl	%eax, %eax
	cmpq	$0, 24(%rdi)
	movdqu	8(%rdi), %xmm0
	movaps	%xmm0, (%rsp)
	je	.L297
	leaq	16(%rsp), %rbx
	movq	%rdi, %r12
	movq	%rsi, %r13
	xorl	%ebp, %ebp
	movq	%rsp, %r14
	.p2align 4,,10
	.p2align 3
.L299:
	movq	0(%r13), %rax
	movq	%rbx, %rdi
	movq	(%rax), %r15
	call	_ZN8opendnp315DoubleBitBinaryC1Ev@PLT
	movq	32(%r12), %rdi
	xorl	%eax, %eax
	movq	%r14, %rsi
	movw	%ax, 40(%rsp)
	call	_ZNK8opendnp39NumParser7ReadNumERN7openpal6RSliceE@PLT
	movq	%rbx, %rsi
	movq	%r14, %rdi
	movw	%ax, 40(%rsp)
	call	_ZN8opendnp310Group4Var310ReadTargetERN7openpal6RSliceERNS_15DoubleBitBinaryE@PLT
	movq	%rbx, %rsi
	movq	%r13, %rdi
	call	*%r15
	leal	1(%rbp), %eax
	cmpq	24(%r12), %rax
	movq	%rax, %rbp
	jb	.L299
.L297:
	movq	56(%rsp), %rax
	xorq	%fs:40, %rax
	jne	.L303
	addq	$72, %rsp
	.cfi_remember_state
	.cfi_def_cfa_offset 56
	popq	%rbx
	.cfi_def_cfa_offset 48
	popq	%rbp
	.cfi_def_cfa_offset 40
	popq	%r12
	.cfi_def_cfa_offset 32
	popq	%r13
	.cfi_def_cfa_offset 24
	popq	%r14
	.cfi_def_cfa_offset 16
	popq	%r15
	.cfi_def_cfa_offset 8
	ret
.L303:
	.cfi_restore_state
	call	__stack_chk_fail@PLT
	.cfi_endproc
.LFE3957:
	.size	_ZNK8opendnp318BufferedCollectionINS_7IndexedINS_15DoubleBitBinaryEEEZNS_16CountIndexParser13InvokeCountOfINS_10Group4Var3EEEvRKNS_12HeaderRecordEtRKNS_9NumParserERKN7openpal6RSliceERNS_12IAPDUHandlerEEUlRSE_jE_E7ForeachERNS_8IVisitorIS3_EE, .-_ZNK8opendnp318BufferedCollectionINS_7IndexedINS_15DoubleBitBinaryEEEZNS_16CountIndexParser13InvokeCountOfINS_10Group4Var3EEEvRKNS_12HeaderRecordEtRKNS_9NumParserERKN7openpal6RSliceERNS_12IAPDUHandlerEEUlRSE_jE_E7ForeachERNS_8IVisitorIS3_EE
	.section	.text._ZNK8opendnp318BufferedCollectionINS_7IndexedINS_18BinaryOutputStatusEEEZNS_16CountIndexParser13InvokeCountOfINS_11Group11Var1EEEvRKNS_12HeaderRecordEtRKNS_9NumParserERKN7openpal6RSliceERNS_12IAPDUHandlerEEUlRSE_jE_E7ForeachERNS_8IVisitorIS3_EE,"axG",@progbits,_ZNK8opendnp318BufferedCollectionINS_7IndexedINS_18BinaryOutputStatusEEEZNS_16CountIndexParser13InvokeCountOfINS_11Group11Var1EEEvRKNS_12HeaderRecordEtRKNS_9NumParserERKN7openpal6RSliceERNS_12IAPDUHandlerEEUlRSE_jE_E7ForeachERNS_8IVisitorIS3_EE,comdat
	.align 2
	.p2align 4,,15
	.weak	_ZNK8opendnp318BufferedCollectionINS_7IndexedINS_18BinaryOutputStatusEEEZNS_16CountIndexParser13InvokeCountOfINS_11Group11Var1EEEvRKNS_12HeaderRecordEtRKNS_9NumParserERKN7openpal6RSliceERNS_12IAPDUHandlerEEUlRSE_jE_E7ForeachERNS_8IVisitorIS3_EE
	.type	_ZNK8opendnp318BufferedCollectionINS_7IndexedINS_18BinaryOutputStatusEEEZNS_16CountIndexParser13InvokeCountOfINS_11Group11Var1EEEvRKNS_12HeaderRecordEtRKNS_9NumParserERKN7openpal6RSliceERNS_12IAPDUHandlerEEUlRSE_jE_E7ForeachERNS_8IVisitorIS3_EE, @function
_ZNK8opendnp318BufferedCollectionINS_7IndexedINS_18BinaryOutputStatusEEEZNS_16CountIndexParser13InvokeCountOfINS_11Group11Var1EEEvRKNS_12HeaderRecordEtRKNS_9NumParserERKN7openpal6RSliceERNS_12IAPDUHandlerEEUlRSE_jE_E7ForeachERNS_8IVisitorIS3_EE:
.LFB3955:
	.cfi_startproc
	pushq	%r15
	.cfi_def_cfa_offset 16
	.cfi_offset 15, -16
	pushq	%r14
	.cfi_def_cfa_offset 24
	.cfi_offset 14, -24
	pushq	%r13
	.cfi_def_cfa_offset 32
	.cfi_offset 13, -32
	pushq	%r12
	.cfi_def_cfa_offset 40
	.cfi_offset 12, -40
	pushq	%rbp
	.cfi_def_cfa_offset 48
	.cfi_offset 6, -48
	pushq	%rbx
	.cfi_def_cfa_offset 56
	.cfi_offset 3, -56
	subq	$72, %rsp
	.cfi_def_cfa_offset 128
	movq	%fs:40, %rax
	movq	%rax, 56(%rsp)
	xorl	%eax, %eax
	cmpq	$0, 24(%rdi)
	movdqu	8(%rdi), %xmm0
	movaps	%xmm0, (%rsp)
	je	.L304
	leaq	16(%rsp), %rbx
	movq	%rdi, %r12
	movq	%rsi, %r13
	xorl	%ebp, %ebp
	movq	%rsp, %r14
	.p2align 4,,10
	.p2align 3
.L306:
	movq	0(%r13), %rax
	movq	%rbx, %rdi
	movq	(%rax), %r15
	call	_ZN8opendnp318BinaryOutputStatusC1Ev@PLT
	movq	32(%r12), %rdi
	xorl	%eax, %eax
	movq	%r14, %rsi
	movw	%ax, 40(%rsp)
	call	_ZNK8opendnp39NumParser7ReadNumERN7openpal6RSliceE@PLT
	movq	%rbx, %rsi
	movq	%r14, %rdi
	movw	%ax, 40(%rsp)
	call	_ZN8opendnp311Group11Var110ReadTargetERN7openpal6RSliceERNS_18BinaryOutputStatusE@PLT
	movq	%rbx, %rsi
	movq	%r13, %rdi
	call	*%r15
	leal	1(%rbp), %eax
	cmpq	24(%r12), %rax
	movq	%rax, %rbp
	jb	.L306
.L304:
	movq	56(%rsp), %rax
	xorq	%fs:40, %rax
	jne	.L310
	addq	$72, %rsp
	.cfi_remember_state
	.cfi_def_cfa_offset 56
	popq	%rbx
	.cfi_def_cfa_offset 48
	popq	%rbp
	.cfi_def_cfa_offset 40
	popq	%r12
	.cfi_def_cfa_offset 32
	popq	%r13
	.cfi_def_cfa_offset 24
	popq	%r14
	.cfi_def_cfa_offset 16
	popq	%r15
	.cfi_def_cfa_offset 8
	ret
.L310:
	.cfi_restore_state
	call	__stack_chk_fail@PLT
	.cfi_endproc
.LFE3955:
	.size	_ZNK8opendnp318BufferedCollectionINS_7IndexedINS_18BinaryOutputStatusEEEZNS_16CountIndexParser13InvokeCountOfINS_11Group11Var1EEEvRKNS_12HeaderRecordEtRKNS_9NumParserERKN7openpal6RSliceERNS_12IAPDUHandlerEEUlRSE_jE_E7ForeachERNS_8IVisitorIS3_EE, .-_ZNK8opendnp318BufferedCollectionINS_7IndexedINS_18BinaryOutputStatusEEEZNS_16CountIndexParser13InvokeCountOfINS_11Group11Var1EEEvRKNS_12HeaderRecordEtRKNS_9NumParserERKN7openpal6RSliceERNS_12IAPDUHandlerEEUlRSE_jE_E7ForeachERNS_8IVisitorIS3_EE
	.section	.text._ZNK8opendnp318BufferedCollectionINS_7IndexedINS_18BinaryOutputStatusEEEZNS_16CountIndexParser13InvokeCountOfINS_11Group11Var2EEEvRKNS_12HeaderRecordEtRKNS_9NumParserERKN7openpal6RSliceERNS_12IAPDUHandlerEEUlRSE_jE_E7ForeachERNS_8IVisitorIS3_EE,"axG",@progbits,_ZNK8opendnp318BufferedCollectionINS_7IndexedINS_18BinaryOutputStatusEEEZNS_16CountIndexParser13InvokeCountOfINS_11Group11Var2EEEvRKNS_12HeaderRecordEtRKNS_9NumParserERKN7openpal6RSliceERNS_12IAPDUHandlerEEUlRSE_jE_E7ForeachERNS_8IVisitorIS3_EE,comdat
	.align 2
	.p2align 4,,15
	.weak	_ZNK8opendnp318BufferedCollectionINS_7IndexedINS_18BinaryOutputStatusEEEZNS_16CountIndexParser13InvokeCountOfINS_11Group11Var2EEEvRKNS_12HeaderRecordEtRKNS_9NumParserERKN7openpal6RSliceERNS_12IAPDUHandlerEEUlRSE_jE_E7ForeachERNS_8IVisitorIS3_EE
	.type	_ZNK8opendnp318BufferedCollectionINS_7IndexedINS_18BinaryOutputStatusEEEZNS_16CountIndexParser13InvokeCountOfINS_11Group11Var2EEEvRKNS_12HeaderRecordEtRKNS_9NumParserERKN7openpal6RSliceERNS_12IAPDUHandlerEEUlRSE_jE_E7ForeachERNS_8IVisitorIS3_EE, @function
_ZNK8opendnp318BufferedCollectionINS_7IndexedINS_18BinaryOutputStatusEEEZNS_16CountIndexParser13InvokeCountOfINS_11Group11Var2EEEvRKNS_12HeaderRecordEtRKNS_9NumParserERKN7openpal6RSliceERNS_12IAPDUHandlerEEUlRSE_jE_E7ForeachERNS_8IVisitorIS3_EE:
.LFB3953:
	.cfi_startproc
	pushq	%r15
	.cfi_def_cfa_offset 16
	.cfi_offset 15, -16
	pushq	%r14
	.cfi_def_cfa_offset 24
	.cfi_offset 14, -24
	pushq	%r13
	.cfi_def_cfa_offset 32
	.cfi_offset 13, -32
	pushq	%r12
	.cfi_def_cfa_offset 40
	.cfi_offset 12, -40
	pushq	%rbp
	.cfi_def_cfa_offset 48
	.cfi_offset 6, -48
	pushq	%rbx
	.cfi_def_cfa_offset 56
	.cfi_offset 3, -56
	subq	$72, %rsp
	.cfi_def_cfa_offset 128
	movq	%fs:40, %rax
	movq	%rax, 56(%rsp)
	xorl	%eax, %eax
	cmpq	$0, 24(%rdi)
	movdqu	8(%rdi), %xmm0
	movaps	%xmm0, (%rsp)
	je	.L311
	leaq	16(%rsp), %rbx
	movq	%rdi, %r12
	movq	%rsi, %r13
	xorl	%ebp, %ebp
	movq	%rsp, %r14
	.p2align 4,,10
	.p2align 3
.L313:
	movq	0(%r13), %rax
	movq	%rbx, %rdi
	movq	(%rax), %r15
	call	_ZN8opendnp318BinaryOutputStatusC1Ev@PLT
	movq	32(%r12), %rdi
	xorl	%eax, %eax
	movq	%r14, %rsi
	movw	%ax, 40(%rsp)
	call	_ZNK8opendnp39NumParser7ReadNumERN7openpal6RSliceE@PLT
	movq	%rbx, %rsi
	movq	%r14, %rdi
	movw	%ax, 40(%rsp)
	call	_ZN8opendnp311Group11Var210ReadTargetERN7openpal6RSliceERNS_18BinaryOutputStatusE@PLT
	movq	%rbx, %rsi
	movq	%r13, %rdi
	call	*%r15
	leal	1(%rbp), %eax
	cmpq	24(%r12), %rax
	movq	%rax, %rbp
	jb	.L313
.L311:
	movq	56(%rsp), %rax
	xorq	%fs:40, %rax
	jne	.L317
	addq	$72, %rsp
	.cfi_remember_state
	.cfi_def_cfa_offset 56
	popq	%rbx
	.cfi_def_cfa_offset 48
	popq	%rbp
	.cfi_def_cfa_offset 40
	popq	%r12
	.cfi_def_cfa_offset 32
	popq	%r13
	.cfi_def_cfa_offset 24
	popq	%r14
	.cfi_def_cfa_offset 16
	popq	%r15
	.cfi_def_cfa_offset 8
	ret
.L317:
	.cfi_restore_state
	call	__stack_chk_fail@PLT
	.cfi_endproc
.LFE3953:
	.size	_ZNK8opendnp318BufferedCollectionINS_7IndexedINS_18BinaryOutputStatusEEEZNS_16CountIndexParser13InvokeCountOfINS_11Group11Var2EEEvRKNS_12HeaderRecordEtRKNS_9NumParserERKN7openpal6RSliceERNS_12IAPDUHandlerEEUlRSE_jE_E7ForeachERNS_8IVisitorIS3_EE, .-_ZNK8opendnp318BufferedCollectionINS_7IndexedINS_18BinaryOutputStatusEEEZNS_16CountIndexParser13InvokeCountOfINS_11Group11Var2EEEvRKNS_12HeaderRecordEtRKNS_9NumParserERKN7openpal6RSliceERNS_12IAPDUHandlerEEUlRSE_jE_E7ForeachERNS_8IVisitorIS3_EE
	.section	.text._ZNK8opendnp318BufferedCollectionINS_7IndexedINS_23ControlRelayOutputBlockEEEZNS_16CountIndexParser13InvokeCountOfINS_11Group12Var1EEEvRKNS_12HeaderRecordEtRKNS_9NumParserERKN7openpal6RSliceERNS_12IAPDUHandlerEEUlRSE_jE_E7ForeachERNS_8IVisitorIS3_EE,"axG",@progbits,_ZNK8opendnp318BufferedCollectionINS_7IndexedINS_23ControlRelayOutputBlockEEEZNS_16CountIndexParser13InvokeCountOfINS_11Group12Var1EEEvRKNS_12HeaderRecordEtRKNS_9NumParserERKN7openpal6RSliceERNS_12IAPDUHandlerEEUlRSE_jE_E7ForeachERNS_8IVisitorIS3_EE,comdat
	.align 2
	.p2align 4,,15
	.weak	_ZNK8opendnp318BufferedCollectionINS_7IndexedINS_23ControlRelayOutputBlockEEEZNS_16CountIndexParser13InvokeCountOfINS_11Group12Var1EEEvRKNS_12HeaderRecordEtRKNS_9NumParserERKN7openpal6RSliceERNS_12IAPDUHandlerEEUlRSE_jE_E7ForeachERNS_8IVisitorIS3_EE
	.type	_ZNK8opendnp318BufferedCollectionINS_7IndexedINS_23ControlRelayOutputBlockEEEZNS_16CountIndexParser13InvokeCountOfINS_11Group12Var1EEEvRKNS_12HeaderRecordEtRKNS_9NumParserERKN7openpal6RSliceERNS_12IAPDUHandlerEEUlRSE_jE_E7ForeachERNS_8IVisitorIS3_EE, @function
_ZNK8opendnp318BufferedCollectionINS_7IndexedINS_23ControlRelayOutputBlockEEEZNS_16CountIndexParser13InvokeCountOfINS_11Group12Var1EEEvRKNS_12HeaderRecordEtRKNS_9NumParserERKN7openpal6RSliceERNS_12IAPDUHandlerEEUlRSE_jE_E7ForeachERNS_8IVisitorIS3_EE:
.LFB3951:
	.cfi_startproc
	pushq	%r15
	.cfi_def_cfa_offset 16
	.cfi_offset 15, -16
	pushq	%r14
	.cfi_def_cfa_offset 24
	.cfi_offset 14, -24
	pushq	%r13
	.cfi_def_cfa_offset 32
	.cfi_offset 13, -32
	pushq	%r12
	.cfi_def_cfa_offset 40
	.cfi_offset 12, -40
	pushq	%rbp
	.cfi_def_cfa_offset 48
	.cfi_offset 6, -48
	pushq	%rbx
	.cfi_def_cfa_offset 56
	.cfi_offset 3, -56
	subq	$56, %rsp
	.cfi_def_cfa_offset 112
	movq	%fs:40, %rax
	movq	%rax, 40(%rsp)
	xorl	%eax, %eax
	cmpq	$0, 24(%rdi)
	movdqu	8(%rdi), %xmm0
	movaps	%xmm0, (%rsp)
	je	.L318
	leaq	16(%rsp), %rbx
	movq	%rdi, %r12
	movq	%rsi, %r13
	xorl	%ebp, %ebp
	movq	%rsp, %r14
	.p2align 4,,10
	.p2align 3
.L320:
	movq	0(%r13), %rax
	xorl	%r9d, %r9d
	movl	$100, %r8d
	movl	$100, %ecx
	movl	$1, %edx
	movl	$3, %esi
	movq	%rbx, %rdi
	movq	(%rax), %r15
	call	_ZN8opendnp323ControlRelayOutputBlockC1ENS_11ControlCodeEhjjNS_13CommandStatusE@PLT
	movq	32(%r12), %rdi
	xorl	%eax, %eax
	movq	%r14, %rsi
	movw	%ax, 32(%rsp)
	call	_ZNK8opendnp39NumParser7ReadNumERN7openpal6RSliceE@PLT
	movq	%rbx, %rsi
	movq	%r14, %rdi
	movw	%ax, 32(%rsp)
	call	_ZN8opendnp311Group12Var110ReadTargetERN7openpal6RSliceERNS_23ControlRelayOutputBlockE@PLT
	movq	%rbx, %rsi
	movq	%r13, %rdi
	call	*%r15
	leal	1(%rbp), %eax
	cmpq	24(%r12), %rax
	movq	%rax, %rbp
	jb	.L320
.L318:
	movq	40(%rsp), %rax
	xorq	%fs:40, %rax
	jne	.L324
	addq	$56, %rsp
	.cfi_remember_state
	.cfi_def_cfa_offset 56
	popq	%rbx
	.cfi_def_cfa_offset 48
	popq	%rbp
	.cfi_def_cfa_offset 40
	popq	%r12
	.cfi_def_cfa_offset 32
	popq	%r13
	.cfi_def_cfa_offset 24
	popq	%r14
	.cfi_def_cfa_offset 16
	popq	%r15
	.cfi_def_cfa_offset 8
	ret
.L324:
	.cfi_restore_state
	call	__stack_chk_fail@PLT
	.cfi_endproc
.LFE3951:
	.size	_ZNK8opendnp318BufferedCollectionINS_7IndexedINS_23ControlRelayOutputBlockEEEZNS_16CountIndexParser13InvokeCountOfINS_11Group12Var1EEEvRKNS_12HeaderRecordEtRKNS_9NumParserERKN7openpal6RSliceERNS_12IAPDUHandlerEEUlRSE_jE_E7ForeachERNS_8IVisitorIS3_EE, .-_ZNK8opendnp318BufferedCollectionINS_7IndexedINS_23ControlRelayOutputBlockEEEZNS_16CountIndexParser13InvokeCountOfINS_11Group12Var1EEEvRKNS_12HeaderRecordEtRKNS_9NumParserERKN7openpal6RSliceERNS_12IAPDUHandlerEEUlRSE_jE_E7ForeachERNS_8IVisitorIS3_EE
	.section	.text._ZNK8opendnp318BufferedCollectionINS_7IndexedINS_18BinaryCommandEventEEEZNS_16CountIndexParser13InvokeCountOfINS_11Group13Var1EEEvRKNS_12HeaderRecordEtRKNS_9NumParserERKN7openpal6RSliceERNS_12IAPDUHandlerEEUlRSE_jE_E7ForeachERNS_8IVisitorIS3_EE,"axG",@progbits,_ZNK8opendnp318BufferedCollectionINS_7IndexedINS_18BinaryCommandEventEEEZNS_16CountIndexParser13InvokeCountOfINS_11Group13Var1EEEvRKNS_12HeaderRecordEtRKNS_9NumParserERKN7openpal6RSliceERNS_12IAPDUHandlerEEUlRSE_jE_E7ForeachERNS_8IVisitorIS3_EE,comdat
	.align 2
	.p2align 4,,15
	.weak	_ZNK8opendnp318BufferedCollectionINS_7IndexedINS_18BinaryCommandEventEEEZNS_16CountIndexParser13InvokeCountOfINS_11Group13Var1EEEvRKNS_12HeaderRecordEtRKNS_9NumParserERKN7openpal6RSliceERNS_12IAPDUHandlerEEUlRSE_jE_E7ForeachERNS_8IVisitorIS3_EE
	.type	_ZNK8opendnp318BufferedCollectionINS_7IndexedINS_18BinaryCommandEventEEEZNS_16CountIndexParser13InvokeCountOfINS_11Group13Var1EEEvRKNS_12HeaderRecordEtRKNS_9NumParserERKN7openpal6RSliceERNS_12IAPDUHandlerEEUlRSE_jE_E7ForeachERNS_8IVisitorIS3_EE, @function
_ZNK8opendnp318BufferedCollectionINS_7IndexedINS_18BinaryCommandEventEEEZNS_16CountIndexParser13InvokeCountOfINS_11Group13Var1EEEvRKNS_12HeaderRecordEtRKNS_9NumParserERKN7openpal6RSliceERNS_12IAPDUHandlerEEUlRSE_jE_E7ForeachERNS_8IVisitorIS3_EE:
.LFB3949:
	.cfi_startproc
	pushq	%r15
	.cfi_def_cfa_offset 16
	.cfi_offset 15, -16
	pushq	%r14
	.cfi_def_cfa_offset 24
	.cfi_offset 14, -24
	pushq	%r13
	.cfi_def_cfa_offset 32
	.cfi_offset 13, -32
	pushq	%r12
	.cfi_def_cfa_offset 40
	.cfi_offset 12, -40
	pushq	%rbp
	.cfi_def_cfa_offset 48
	.cfi_offset 6, -48
	pushq	%rbx
	.cfi_def_cfa_offset 56
	.cfi_offset 3, -56
	subq	$56, %rsp
	.cfi_def_cfa_offset 112
	movq	%fs:40, %rax
	movq	%rax, 40(%rsp)
	xorl	%eax, %eax
	cmpq	$0, 24(%rdi)
	movdqu	8(%rdi), %xmm0
	movaps	%xmm0, (%rsp)
	je	.L325
	leaq	16(%rsp), %rbx
	movq	%rdi, %r12
	movq	%rsi, %r13
	xorl	%ebp, %ebp
	movq	%rsp, %r14
	.p2align 4,,10
	.p2align 3
.L327:
	movq	0(%r13), %rax
	movq	%rbx, %rdi
	movq	(%rax), %r15
	call	_ZN8opendnp318BinaryCommandEventC1Ev@PLT
	movq	32(%r12), %rdi
	xorl	%eax, %eax
	movq	%r14, %rsi
	movw	%ax, 32(%rsp)
	call	_ZNK8opendnp39NumParser7ReadNumERN7openpal6RSliceE@PLT
	movq	%rbx, %rsi
	movq	%r14, %rdi
	movw	%ax, 32(%rsp)
	call	_ZN8opendnp311Group13Var110ReadTargetERN7openpal6RSliceERNS_18BinaryCommandEventE@PLT
	movq	%rbx, %rsi
	movq	%r13, %rdi
	call	*%r15
	leal	1(%rbp), %eax
	cmpq	24(%r12), %rax
	movq	%rax, %rbp
	jb	.L327
.L325:
	movq	40(%rsp), %rax
	xorq	%fs:40, %rax
	jne	.L331
	addq	$56, %rsp
	.cfi_remember_state
	.cfi_def_cfa_offset 56
	popq	%rbx
	.cfi_def_cfa_offset 48
	popq	%rbp
	.cfi_def_cfa_offset 40
	popq	%r12
	.cfi_def_cfa_offset 32
	popq	%r13
	.cfi_def_cfa_offset 24
	popq	%r14
	.cfi_def_cfa_offset 16
	popq	%r15
	.cfi_def_cfa_offset 8
	ret
.L331:
	.cfi_restore_state
	call	__stack_chk_fail@PLT
	.cfi_endproc
.LFE3949:
	.size	_ZNK8opendnp318BufferedCollectionINS_7IndexedINS_18BinaryCommandEventEEEZNS_16CountIndexParser13InvokeCountOfINS_11Group13Var1EEEvRKNS_12HeaderRecordEtRKNS_9NumParserERKN7openpal6RSliceERNS_12IAPDUHandlerEEUlRSE_jE_E7ForeachERNS_8IVisitorIS3_EE, .-_ZNK8opendnp318BufferedCollectionINS_7IndexedINS_18BinaryCommandEventEEEZNS_16CountIndexParser13InvokeCountOfINS_11Group13Var1EEEvRKNS_12HeaderRecordEtRKNS_9NumParserERKN7openpal6RSliceERNS_12IAPDUHandlerEEUlRSE_jE_E7ForeachERNS_8IVisitorIS3_EE
	.section	.text._ZNK8opendnp318BufferedCollectionINS_7IndexedINS_18BinaryCommandEventEEEZNS_16CountIndexParser13InvokeCountOfINS_11Group13Var2EEEvRKNS_12HeaderRecordEtRKNS_9NumParserERKN7openpal6RSliceERNS_12IAPDUHandlerEEUlRSE_jE_E7ForeachERNS_8IVisitorIS3_EE,"axG",@progbits,_ZNK8opendnp318BufferedCollectionINS_7IndexedINS_18BinaryCommandEventEEEZNS_16CountIndexParser13InvokeCountOfINS_11Group13Var2EEEvRKNS_12HeaderRecordEtRKNS_9NumParserERKN7openpal6RSliceERNS_12IAPDUHandlerEEUlRSE_jE_E7ForeachERNS_8IVisitorIS3_EE,comdat
	.align 2
	.p2align 4,,15
	.weak	_ZNK8opendnp318BufferedCollectionINS_7IndexedINS_18BinaryCommandEventEEEZNS_16CountIndexParser13InvokeCountOfINS_11Group13Var2EEEvRKNS_12HeaderRecordEtRKNS_9NumParserERKN7openpal6RSliceERNS_12IAPDUHandlerEEUlRSE_jE_E7ForeachERNS_8IVisitorIS3_EE
	.type	_ZNK8opendnp318BufferedCollectionINS_7IndexedINS_18BinaryCommandEventEEEZNS_16CountIndexParser13InvokeCountOfINS_11Group13Var2EEEvRKNS_12HeaderRecordEtRKNS_9NumParserERKN7openpal6RSliceERNS_12IAPDUHandlerEEUlRSE_jE_E7ForeachERNS_8IVisitorIS3_EE, @function
_ZNK8opendnp318BufferedCollectionINS_7IndexedINS_18BinaryCommandEventEEEZNS_16CountIndexParser13InvokeCountOfINS_11Group13Var2EEEvRKNS_12HeaderRecordEtRKNS_9NumParserERKN7openpal6RSliceERNS_12IAPDUHandlerEEUlRSE_jE_E7ForeachERNS_8IVisitorIS3_EE:
.LFB3947:
	.cfi_startproc
	pushq	%r15
	.cfi_def_cfa_offset 16
	.cfi_offset 15, -16
	pushq	%r14
	.cfi_def_cfa_offset 24
	.cfi_offset 14, -24
	pushq	%r13
	.cfi_def_cfa_offset 32
	.cfi_offset 13, -32
	pushq	%r12
	.cfi_def_cfa_offset 40
	.cfi_offset 12, -40
	pushq	%rbp
	.cfi_def_cfa_offset 48
	.cfi_offset 6, -48
	pushq	%rbx
	.cfi_def_cfa_offset 56
	.cfi_offset 3, -56
	subq	$56, %rsp
	.cfi_def_cfa_offset 112
	movq	%fs:40, %rax
	movq	%rax, 40(%rsp)
	xorl	%eax, %eax
	cmpq	$0, 24(%rdi)
	movdqu	8(%rdi), %xmm0
	movaps	%xmm0, (%rsp)
	je	.L332
	leaq	16(%rsp), %rbx
	movq	%rdi, %r12
	movq	%rsi, %r13
	xorl	%ebp, %ebp
	movq	%rsp, %r14
	.p2align 4,,10
	.p2align 3
.L334:
	movq	0(%r13), %rax
	movq	%rbx, %rdi
	movq	(%rax), %r15
	call	_ZN8opendnp318BinaryCommandEventC1Ev@PLT
	movq	32(%r12), %rdi
	xorl	%eax, %eax
	movq	%r14, %rsi
	movw	%ax, 32(%rsp)
	call	_ZNK8opendnp39NumParser7ReadNumERN7openpal6RSliceE@PLT
	movq	%rbx, %rsi
	movq	%r14, %rdi
	movw	%ax, 32(%rsp)
	call	_ZN8opendnp311Group13Var210ReadTargetERN7openpal6RSliceERNS_18BinaryCommandEventE@PLT
	movq	%rbx, %rsi
	movq	%r13, %rdi
	call	*%r15
	leal	1(%rbp), %eax
	cmpq	24(%r12), %rax
	movq	%rax, %rbp
	jb	.L334
.L332:
	movq	40(%rsp), %rax
	xorq	%fs:40, %rax
	jne	.L338
	addq	$56, %rsp
	.cfi_remember_state
	.cfi_def_cfa_offset 56
	popq	%rbx
	.cfi_def_cfa_offset 48
	popq	%rbp
	.cfi_def_cfa_offset 40
	popq	%r12
	.cfi_def_cfa_offset 32
	popq	%r13
	.cfi_def_cfa_offset 24
	popq	%r14
	.cfi_def_cfa_offset 16
	popq	%r15
	.cfi_def_cfa_offset 8
	ret
.L338:
	.cfi_restore_state
	call	__stack_chk_fail@PLT
	.cfi_endproc
.LFE3947:
	.size	_ZNK8opendnp318BufferedCollectionINS_7IndexedINS_18BinaryCommandEventEEEZNS_16CountIndexParser13InvokeCountOfINS_11Group13Var2EEEvRKNS_12HeaderRecordEtRKNS_9NumParserERKN7openpal6RSliceERNS_12IAPDUHandlerEEUlRSE_jE_E7ForeachERNS_8IVisitorIS3_EE, .-_ZNK8opendnp318BufferedCollectionINS_7IndexedINS_18BinaryCommandEventEEEZNS_16CountIndexParser13InvokeCountOfINS_11Group13Var2EEEvRKNS_12HeaderRecordEtRKNS_9NumParserERKN7openpal6RSliceERNS_12IAPDUHandlerEEUlRSE_jE_E7ForeachERNS_8IVisitorIS3_EE
	.section	.text._ZNK8opendnp318BufferedCollectionINS_7IndexedINS_7CounterEEEZNS_16CountIndexParser13InvokeCountOfINS_11Group22Var1EEEvRKNS_12HeaderRecordEtRKNS_9NumParserERKN7openpal6RSliceERNS_12IAPDUHandlerEEUlRSE_jE_E7ForeachERNS_8IVisitorIS3_EE,"axG",@progbits,_ZNK8opendnp318BufferedCollectionINS_7IndexedINS_7CounterEEEZNS_16CountIndexParser13InvokeCountOfINS_11Group22Var1EEEvRKNS_12HeaderRecordEtRKNS_9NumParserERKN7openpal6RSliceERNS_12IAPDUHandlerEEUlRSE_jE_E7ForeachERNS_8IVisitorIS3_EE,comdat
	.align 2
	.p2align 4,,15
	.weak	_ZNK8opendnp318BufferedCollectionINS_7IndexedINS_7CounterEEEZNS_16CountIndexParser13InvokeCountOfINS_11Group22Var1EEEvRKNS_12HeaderRecordEtRKNS_9NumParserERKN7openpal6RSliceERNS_12IAPDUHandlerEEUlRSE_jE_E7ForeachERNS_8IVisitorIS3_EE
	.type	_ZNK8opendnp318BufferedCollectionINS_7IndexedINS_7CounterEEEZNS_16CountIndexParser13InvokeCountOfINS_11Group22Var1EEEvRKNS_12HeaderRecordEtRKNS_9NumParserERKN7openpal6RSliceERNS_12IAPDUHandlerEEUlRSE_jE_E7ForeachERNS_8IVisitorIS3_EE, @function
_ZNK8opendnp318BufferedCollectionINS_7IndexedINS_7CounterEEEZNS_16CountIndexParser13InvokeCountOfINS_11Group22Var1EEEvRKNS_12HeaderRecordEtRKNS_9NumParserERKN7openpal6RSliceERNS_12IAPDUHandlerEEUlRSE_jE_E7ForeachERNS_8IVisitorIS3_EE:
.LFB3945:
	.cfi_startproc
	pushq	%r15
	.cfi_def_cfa_offset 16
	.cfi_offset 15, -16
	pushq	%r14
	.cfi_def_cfa_offset 24
	.cfi_offset 14, -24
	pushq	%r13
	.cfi_def_cfa_offset 32
	.cfi_offset 13, -32
	pushq	%r12
	.cfi_def_cfa_offset 40
	.cfi_offset 12, -40
	pushq	%rbp
	.cfi_def_cfa_offset 48
	.cfi_offset 6, -48
	pushq	%rbx
	.cfi_def_cfa_offset 56
	.cfi_offset 3, -56
	subq	$72, %rsp
	.cfi_def_cfa_offset 128
	movq	%fs:40, %rax
	movq	%rax, 56(%rsp)
	xorl	%eax, %eax
	cmpq	$0, 24(%rdi)
	movdqu	8(%rdi), %xmm0
	movaps	%xmm0, (%rsp)
	je	.L339
	leaq	16(%rsp), %rbx
	movq	%rdi, %r12
	movq	%rsi, %r13
	xorl	%ebp, %ebp
	movq	%rsp, %r14
	.p2align 4,,10
	.p2align 3
.L341:
	movq	0(%r13), %rax
	movq	%rbx, %rdi
	movq	(%rax), %r15
	call	_ZN8opendnp37CounterC1Ev@PLT
	movq	32(%r12), %rdi
	xorl	%eax, %eax
	movq	%r14, %rsi
	movw	%ax, 40(%rsp)
	call	_ZNK8opendnp39NumParser7ReadNumERN7openpal6RSliceE@PLT
	movq	%rbx, %rsi
	movq	%r14, %rdi
	movw	%ax, 40(%rsp)
	call	_ZN8opendnp311Group22Var110ReadTargetERN7openpal6RSliceERNS_7CounterE@PLT
	movq	%rbx, %rsi
	movq	%r13, %rdi
	call	*%r15
	leal	1(%rbp), %eax
	cmpq	24(%r12), %rax
	movq	%rax, %rbp
	jb	.L341
.L339:
	movq	56(%rsp), %rax
	xorq	%fs:40, %rax
	jne	.L345
	addq	$72, %rsp
	.cfi_remember_state
	.cfi_def_cfa_offset 56
	popq	%rbx
	.cfi_def_cfa_offset 48
	popq	%rbp
	.cfi_def_cfa_offset 40
	popq	%r12
	.cfi_def_cfa_offset 32
	popq	%r13
	.cfi_def_cfa_offset 24
	popq	%r14
	.cfi_def_cfa_offset 16
	popq	%r15
	.cfi_def_cfa_offset 8
	ret
.L345:
	.cfi_restore_state
	call	__stack_chk_fail@PLT
	.cfi_endproc
.LFE3945:
	.size	_ZNK8opendnp318BufferedCollectionINS_7IndexedINS_7CounterEEEZNS_16CountIndexParser13InvokeCountOfINS_11Group22Var1EEEvRKNS_12HeaderRecordEtRKNS_9NumParserERKN7openpal6RSliceERNS_12IAPDUHandlerEEUlRSE_jE_E7ForeachERNS_8IVisitorIS3_EE, .-_ZNK8opendnp318BufferedCollectionINS_7IndexedINS_7CounterEEEZNS_16CountIndexParser13InvokeCountOfINS_11Group22Var1EEEvRKNS_12HeaderRecordEtRKNS_9NumParserERKN7openpal6RSliceERNS_12IAPDUHandlerEEUlRSE_jE_E7ForeachERNS_8IVisitorIS3_EE
	.section	.text._ZNK8opendnp318BufferedCollectionINS_7IndexedINS_7CounterEEEZNS_16CountIndexParser13InvokeCountOfINS_11Group22Var2EEEvRKNS_12HeaderRecordEtRKNS_9NumParserERKN7openpal6RSliceERNS_12IAPDUHandlerEEUlRSE_jE_E7ForeachERNS_8IVisitorIS3_EE,"axG",@progbits,_ZNK8opendnp318BufferedCollectionINS_7IndexedINS_7CounterEEEZNS_16CountIndexParser13InvokeCountOfINS_11Group22Var2EEEvRKNS_12HeaderRecordEtRKNS_9NumParserERKN7openpal6RSliceERNS_12IAPDUHandlerEEUlRSE_jE_E7ForeachERNS_8IVisitorIS3_EE,comdat
	.align 2
	.p2align 4,,15
	.weak	_ZNK8opendnp318BufferedCollectionINS_7IndexedINS_7CounterEEEZNS_16CountIndexParser13InvokeCountOfINS_11Group22Var2EEEvRKNS_12HeaderRecordEtRKNS_9NumParserERKN7openpal6RSliceERNS_12IAPDUHandlerEEUlRSE_jE_E7ForeachERNS_8IVisitorIS3_EE
	.type	_ZNK8opendnp318BufferedCollectionINS_7IndexedINS_7CounterEEEZNS_16CountIndexParser13InvokeCountOfINS_11Group22Var2EEEvRKNS_12HeaderRecordEtRKNS_9NumParserERKN7openpal6RSliceERNS_12IAPDUHandlerEEUlRSE_jE_E7ForeachERNS_8IVisitorIS3_EE, @function
_ZNK8opendnp318BufferedCollectionINS_7IndexedINS_7CounterEEEZNS_16CountIndexParser13InvokeCountOfINS_11Group22Var2EEEvRKNS_12HeaderRecordEtRKNS_9NumParserERKN7openpal6RSliceERNS_12IAPDUHandlerEEUlRSE_jE_E7ForeachERNS_8IVisitorIS3_EE:
.LFB3943:
	.cfi_startproc
	pushq	%r15
	.cfi_def_cfa_offset 16
	.cfi_offset 15, -16
	pushq	%r14
	.cfi_def_cfa_offset 24
	.cfi_offset 14, -24
	pushq	%r13
	.cfi_def_cfa_offset 32
	.cfi_offset 13, -32
	pushq	%r12
	.cfi_def_cfa_offset 40
	.cfi_offset 12, -40
	pushq	%rbp
	.cfi_def_cfa_offset 48
	.cfi_offset 6, -48
	pushq	%rbx
	.cfi_def_cfa_offset 56
	.cfi_offset 3, -56
	subq	$72, %rsp
	.cfi_def_cfa_offset 128
	movq	%fs:40, %rax
	movq	%rax, 56(%rsp)
	xorl	%eax, %eax
	cmpq	$0, 24(%rdi)
	movdqu	8(%rdi), %xmm0
	movaps	%xmm0, (%rsp)
	je	.L346
	leaq	16(%rsp), %rbx
	movq	%rdi, %r12
	movq	%rsi, %r13
	xorl	%ebp, %ebp
	movq	%rsp, %r14
	.p2align 4,,10
	.p2align 3
.L348:
	movq	0(%r13), %rax
	movq	%rbx, %rdi
	movq	(%rax), %r15
	call	_ZN8opendnp37CounterC1Ev@PLT
	movq	32(%r12), %rdi
	xorl	%eax, %eax
	movq	%r14, %rsi
	movw	%ax, 40(%rsp)
	call	_ZNK8opendnp39NumParser7ReadNumERN7openpal6RSliceE@PLT
	movq	%rbx, %rsi
	movq	%r14, %rdi
	movw	%ax, 40(%rsp)
	call	_ZN8opendnp311Group22Var210ReadTargetERN7openpal6RSliceERNS_7CounterE@PLT
	movq	%rbx, %rsi
	movq	%r13, %rdi
	call	*%r15
	leal	1(%rbp), %eax
	cmpq	24(%r12), %rax
	movq	%rax, %rbp
	jb	.L348
.L346:
	movq	56(%rsp), %rax
	xorq	%fs:40, %rax
	jne	.L352
	addq	$72, %rsp
	.cfi_remember_state
	.cfi_def_cfa_offset 56
	popq	%rbx
	.cfi_def_cfa_offset 48
	popq	%rbp
	.cfi_def_cfa_offset 40
	popq	%r12
	.cfi_def_cfa_offset 32
	popq	%r13
	.cfi_def_cfa_offset 24
	popq	%r14
	.cfi_def_cfa_offset 16
	popq	%r15
	.cfi_def_cfa_offset 8
	ret
.L352:
	.cfi_restore_state
	call	__stack_chk_fail@PLT
	.cfi_endproc
.LFE3943:
	.size	_ZNK8opendnp318BufferedCollectionINS_7IndexedINS_7CounterEEEZNS_16CountIndexParser13InvokeCountOfINS_11Group22Var2EEEvRKNS_12HeaderRecordEtRKNS_9NumParserERKN7openpal6RSliceERNS_12IAPDUHandlerEEUlRSE_jE_E7ForeachERNS_8IVisitorIS3_EE, .-_ZNK8opendnp318BufferedCollectionINS_7IndexedINS_7CounterEEEZNS_16CountIndexParser13InvokeCountOfINS_11Group22Var2EEEvRKNS_12HeaderRecordEtRKNS_9NumParserERKN7openpal6RSliceERNS_12IAPDUHandlerEEUlRSE_jE_E7ForeachERNS_8IVisitorIS3_EE
	.section	.text._ZNK8opendnp318BufferedCollectionINS_7IndexedINS_7CounterEEEZNS_16CountIndexParser13InvokeCountOfINS_11Group22Var5EEEvRKNS_12HeaderRecordEtRKNS_9NumParserERKN7openpal6RSliceERNS_12IAPDUHandlerEEUlRSE_jE_E7ForeachERNS_8IVisitorIS3_EE,"axG",@progbits,_ZNK8opendnp318BufferedCollectionINS_7IndexedINS_7CounterEEEZNS_16CountIndexParser13InvokeCountOfINS_11Group22Var5EEEvRKNS_12HeaderRecordEtRKNS_9NumParserERKN7openpal6RSliceERNS_12IAPDUHandlerEEUlRSE_jE_E7ForeachERNS_8IVisitorIS3_EE,comdat
	.align 2
	.p2align 4,,15
	.weak	_ZNK8opendnp318BufferedCollectionINS_7IndexedINS_7CounterEEEZNS_16CountIndexParser13InvokeCountOfINS_11Group22Var5EEEvRKNS_12HeaderRecordEtRKNS_9NumParserERKN7openpal6RSliceERNS_12IAPDUHandlerEEUlRSE_jE_E7ForeachERNS_8IVisitorIS3_EE
	.type	_ZNK8opendnp318BufferedCollectionINS_7IndexedINS_7CounterEEEZNS_16CountIndexParser13InvokeCountOfINS_11Group22Var5EEEvRKNS_12HeaderRecordEtRKNS_9NumParserERKN7openpal6RSliceERNS_12IAPDUHandlerEEUlRSE_jE_E7ForeachERNS_8IVisitorIS3_EE, @function
_ZNK8opendnp318BufferedCollectionINS_7IndexedINS_7CounterEEEZNS_16CountIndexParser13InvokeCountOfINS_11Group22Var5EEEvRKNS_12HeaderRecordEtRKNS_9NumParserERKN7openpal6RSliceERNS_12IAPDUHandlerEEUlRSE_jE_E7ForeachERNS_8IVisitorIS3_EE:
.LFB3941:
	.cfi_startproc
	pushq	%r15
	.cfi_def_cfa_offset 16
	.cfi_offset 15, -16
	pushq	%r14
	.cfi_def_cfa_offset 24
	.cfi_offset 14, -24
	pushq	%r13
	.cfi_def_cfa_offset 32
	.cfi_offset 13, -32
	pushq	%r12
	.cfi_def_cfa_offset 40
	.cfi_offset 12, -40
	pushq	%rbp
	.cfi_def_cfa_offset 48
	.cfi_offset 6, -48
	pushq	%rbx
	.cfi_def_cfa_offset 56
	.cfi_offset 3, -56
	subq	$72, %rsp
	.cfi_def_cfa_offset 128
	movq	%fs:40, %rax
	movq	%rax, 56(%rsp)
	xorl	%eax, %eax
	cmpq	$0, 24(%rdi)
	movdqu	8(%rdi), %xmm0
	movaps	%xmm0, (%rsp)
	je	.L353
	leaq	16(%rsp), %rbx
	movq	%rdi, %r12
	movq	%rsi, %r13
	xorl	%ebp, %ebp
	movq	%rsp, %r14
	.p2align 4,,10
	.p2align 3
.L355:
	movq	0(%r13), %rax
	movq	%rbx, %rdi
	movq	(%rax), %r15
	call	_ZN8opendnp37CounterC1Ev@PLT
	movq	32(%r12), %rdi
	xorl	%eax, %eax
	movq	%r14, %rsi
	movw	%ax, 40(%rsp)
	call	_ZNK8opendnp39NumParser7ReadNumERN7openpal6RSliceE@PLT
	movq	%rbx, %rsi
	movq	%r14, %rdi
	movw	%ax, 40(%rsp)
	call	_ZN8opendnp311Group22Var510ReadTargetERN7openpal6RSliceERNS_7CounterE@PLT
	movq	%rbx, %rsi
	movq	%r13, %rdi
	call	*%r15
	leal	1(%rbp), %eax
	cmpq	24(%r12), %rax
	movq	%rax, %rbp
	jb	.L355
.L353:
	movq	56(%rsp), %rax
	xorq	%fs:40, %rax
	jne	.L359
	addq	$72, %rsp
	.cfi_remember_state
	.cfi_def_cfa_offset 56
	popq	%rbx
	.cfi_def_cfa_offset 48
	popq	%rbp
	.cfi_def_cfa_offset 40
	popq	%r12
	.cfi_def_cfa_offset 32
	popq	%r13
	.cfi_def_cfa_offset 24
	popq	%r14
	.cfi_def_cfa_offset 16
	popq	%r15
	.cfi_def_cfa_offset 8
	ret
.L359:
	.cfi_restore_state
	call	__stack_chk_fail@PLT
	.cfi_endproc
.LFE3941:
	.size	_ZNK8opendnp318BufferedCollectionINS_7IndexedINS_7CounterEEEZNS_16CountIndexParser13InvokeCountOfINS_11Group22Var5EEEvRKNS_12HeaderRecordEtRKNS_9NumParserERKN7openpal6RSliceERNS_12IAPDUHandlerEEUlRSE_jE_E7ForeachERNS_8IVisitorIS3_EE, .-_ZNK8opendnp318BufferedCollectionINS_7IndexedINS_7CounterEEEZNS_16CountIndexParser13InvokeCountOfINS_11Group22Var5EEEvRKNS_12HeaderRecordEtRKNS_9NumParserERKN7openpal6RSliceERNS_12IAPDUHandlerEEUlRSE_jE_E7ForeachERNS_8IVisitorIS3_EE
	.section	.text._ZNK8opendnp318BufferedCollectionINS_7IndexedINS_7CounterEEEZNS_16CountIndexParser13InvokeCountOfINS_11Group22Var6EEEvRKNS_12HeaderRecordEtRKNS_9NumParserERKN7openpal6RSliceERNS_12IAPDUHandlerEEUlRSE_jE_E7ForeachERNS_8IVisitorIS3_EE,"axG",@progbits,_ZNK8opendnp318BufferedCollectionINS_7IndexedINS_7CounterEEEZNS_16CountIndexParser13InvokeCountOfINS_11Group22Var6EEEvRKNS_12HeaderRecordEtRKNS_9NumParserERKN7openpal6RSliceERNS_12IAPDUHandlerEEUlRSE_jE_E7ForeachERNS_8IVisitorIS3_EE,comdat
	.align 2
	.p2align 4,,15
	.weak	_ZNK8opendnp318BufferedCollectionINS_7IndexedINS_7CounterEEEZNS_16CountIndexParser13InvokeCountOfINS_11Group22Var6EEEvRKNS_12HeaderRecordEtRKNS_9NumParserERKN7openpal6RSliceERNS_12IAPDUHandlerEEUlRSE_jE_E7ForeachERNS_8IVisitorIS3_EE
	.type	_ZNK8opendnp318BufferedCollectionINS_7IndexedINS_7CounterEEEZNS_16CountIndexParser13InvokeCountOfINS_11Group22Var6EEEvRKNS_12HeaderRecordEtRKNS_9NumParserERKN7openpal6RSliceERNS_12IAPDUHandlerEEUlRSE_jE_E7ForeachERNS_8IVisitorIS3_EE, @function
_ZNK8opendnp318BufferedCollectionINS_7IndexedINS_7CounterEEEZNS_16CountIndexParser13InvokeCountOfINS_11Group22Var6EEEvRKNS_12HeaderRecordEtRKNS_9NumParserERKN7openpal6RSliceERNS_12IAPDUHandlerEEUlRSE_jE_E7ForeachERNS_8IVisitorIS3_EE:
.LFB3939:
	.cfi_startproc
	pushq	%r15
	.cfi_def_cfa_offset 16
	.cfi_offset 15, -16
	pushq	%r14
	.cfi_def_cfa_offset 24
	.cfi_offset 14, -24
	pushq	%r13
	.cfi_def_cfa_offset 32
	.cfi_offset 13, -32
	pushq	%r12
	.cfi_def_cfa_offset 40
	.cfi_offset 12, -40
	pushq	%rbp
	.cfi_def_cfa_offset 48
	.cfi_offset 6, -48
	pushq	%rbx
	.cfi_def_cfa_offset 56
	.cfi_offset 3, -56
	subq	$72, %rsp
	.cfi_def_cfa_offset 128
	movq	%fs:40, %rax
	movq	%rax, 56(%rsp)
	xorl	%eax, %eax
	cmpq	$0, 24(%rdi)
	movdqu	8(%rdi), %xmm0
	movaps	%xmm0, (%rsp)
	je	.L360
	leaq	16(%rsp), %rbx
	movq	%rdi, %r12
	movq	%rsi, %r13
	xorl	%ebp, %ebp
	movq	%rsp, %r14
	.p2align 4,,10
	.p2align 3
.L362:
	movq	0(%r13), %rax
	movq	%rbx, %rdi
	movq	(%rax), %r15
	call	_ZN8opendnp37CounterC1Ev@PLT
	movq	32(%r12), %rdi
	xorl	%eax, %eax
	movq	%r14, %rsi
	movw	%ax, 40(%rsp)
	call	_ZNK8opendnp39NumParser7ReadNumERN7openpal6RSliceE@PLT
	movq	%rbx, %rsi
	movq	%r14, %rdi
	movw	%ax, 40(%rsp)
	call	_ZN8opendnp311Group22Var610ReadTargetERN7openpal6RSliceERNS_7CounterE@PLT
	movq	%rbx, %rsi
	movq	%r13, %rdi
	call	*%r15
	leal	1(%rbp), %eax
	cmpq	24(%r12), %rax
	movq	%rax, %rbp
	jb	.L362
.L360:
	movq	56(%rsp), %rax
	xorq	%fs:40, %rax
	jne	.L366
	addq	$72, %rsp
	.cfi_remember_state
	.cfi_def_cfa_offset 56
	popq	%rbx
	.cfi_def_cfa_offset 48
	popq	%rbp
	.cfi_def_cfa_offset 40
	popq	%r12
	.cfi_def_cfa_offset 32
	popq	%r13
	.cfi_def_cfa_offset 24
	popq	%r14
	.cfi_def_cfa_offset 16
	popq	%r15
	.cfi_def_cfa_offset 8
	ret
.L366:
	.cfi_restore_state
	call	__stack_chk_fail@PLT
	.cfi_endproc
.LFE3939:
	.size	_ZNK8opendnp318BufferedCollectionINS_7IndexedINS_7CounterEEEZNS_16CountIndexParser13InvokeCountOfINS_11Group22Var6EEEvRKNS_12HeaderRecordEtRKNS_9NumParserERKN7openpal6RSliceERNS_12IAPDUHandlerEEUlRSE_jE_E7ForeachERNS_8IVisitorIS3_EE, .-_ZNK8opendnp318BufferedCollectionINS_7IndexedINS_7CounterEEEZNS_16CountIndexParser13InvokeCountOfINS_11Group22Var6EEEvRKNS_12HeaderRecordEtRKNS_9NumParserERKN7openpal6RSliceERNS_12IAPDUHandlerEEUlRSE_jE_E7ForeachERNS_8IVisitorIS3_EE
	.section	.text._ZNK8opendnp318BufferedCollectionINS_7IndexedINS_13FrozenCounterEEEZNS_16CountIndexParser13InvokeCountOfINS_11Group23Var1EEEvRKNS_12HeaderRecordEtRKNS_9NumParserERKN7openpal6RSliceERNS_12IAPDUHandlerEEUlRSE_jE_E7ForeachERNS_8IVisitorIS3_EE,"axG",@progbits,_ZNK8opendnp318BufferedCollectionINS_7IndexedINS_13FrozenCounterEEEZNS_16CountIndexParser13InvokeCountOfINS_11Group23Var1EEEvRKNS_12HeaderRecordEtRKNS_9NumParserERKN7openpal6RSliceERNS_12IAPDUHandlerEEUlRSE_jE_E7ForeachERNS_8IVisitorIS3_EE,comdat
	.align 2
	.p2align 4,,15
	.weak	_ZNK8opendnp318BufferedCollectionINS_7IndexedINS_13FrozenCounterEEEZNS_16CountIndexParser13InvokeCountOfINS_11Group23Var1EEEvRKNS_12HeaderRecordEtRKNS_9NumParserERKN7openpal6RSliceERNS_12IAPDUHandlerEEUlRSE_jE_E7ForeachERNS_8IVisitorIS3_EE
	.type	_ZNK8opendnp318BufferedCollectionINS_7IndexedINS_13FrozenCounterEEEZNS_16CountIndexParser13InvokeCountOfINS_11Group23Var1EEEvRKNS_12HeaderRecordEtRKNS_9NumParserERKN7openpal6RSliceERNS_12IAPDUHandlerEEUlRSE_jE_E7ForeachERNS_8IVisitorIS3_EE, @function
_ZNK8opendnp318BufferedCollectionINS_7IndexedINS_13FrozenCounterEEEZNS_16CountIndexParser13InvokeCountOfINS_11Group23Var1EEEvRKNS_12HeaderRecordEtRKNS_9NumParserERKN7openpal6RSliceERNS_12IAPDUHandlerEEUlRSE_jE_E7ForeachERNS_8IVisitorIS3_EE:
.LFB3937:
	.cfi_startproc
	pushq	%r15
	.cfi_def_cfa_offset 16
	.cfi_offset 15, -16
	pushq	%r14
	.cfi_def_cfa_offset 24
	.cfi_offset 14, -24
	pushq	%r13
	.cfi_def_cfa_offset 32
	.cfi_offset 13, -32
	pushq	%r12
	.cfi_def_cfa_offset 40
	.cfi_offset 12, -40
	pushq	%rbp
	.cfi_def_cfa_offset 48
	.cfi_offset 6, -48
	pushq	%rbx
	.cfi_def_cfa_offset 56
	.cfi_offset 3, -56
	subq	$72, %rsp
	.cfi_def_cfa_offset 128
	movq	%fs:40, %rax
	movq	%rax, 56(%rsp)
	xorl	%eax, %eax
	cmpq	$0, 24(%rdi)
	movdqu	8(%rdi), %xmm0
	movaps	%xmm0, (%rsp)
	je	.L367
	leaq	16(%rsp), %rbx
	movq	%rdi, %r12
	movq	%rsi, %r13
	xorl	%ebp, %ebp
	movq	%rsp, %r14
	.p2align 4,,10
	.p2align 3
.L369:
	movq	0(%r13), %rax
	movq	%rbx, %rdi
	movq	(%rax), %r15
	call	_ZN8opendnp313FrozenCounterC1Ev@PLT
	movq	32(%r12), %rdi
	xorl	%eax, %eax
	movq	%r14, %rsi
	movw	%ax, 40(%rsp)
	call	_ZNK8opendnp39NumParser7ReadNumERN7openpal6RSliceE@PLT
	movq	%rbx, %rsi
	movq	%r14, %rdi
	movw	%ax, 40(%rsp)
	call	_ZN8opendnp311Group23Var110ReadTargetERN7openpal6RSliceERNS_13FrozenCounterE@PLT
	movq	%rbx, %rsi
	movq	%r13, %rdi
	call	*%r15
	leal	1(%rbp), %eax
	cmpq	24(%r12), %rax
	movq	%rax, %rbp
	jb	.L369
.L367:
	movq	56(%rsp), %rax
	xorq	%fs:40, %rax
	jne	.L373
	addq	$72, %rsp
	.cfi_remember_state
	.cfi_def_cfa_offset 56
	popq	%rbx
	.cfi_def_cfa_offset 48
	popq	%rbp
	.cfi_def_cfa_offset 40
	popq	%r12
	.cfi_def_cfa_offset 32
	popq	%r13
	.cfi_def_cfa_offset 24
	popq	%r14
	.cfi_def_cfa_offset 16
	popq	%r15
	.cfi_def_cfa_offset 8
	ret
.L373:
	.cfi_restore_state
	call	__stack_chk_fail@PLT
	.cfi_endproc
.LFE3937:
	.size	_ZNK8opendnp318BufferedCollectionINS_7IndexedINS_13FrozenCounterEEEZNS_16CountIndexParser13InvokeCountOfINS_11Group23Var1EEEvRKNS_12HeaderRecordEtRKNS_9NumParserERKN7openpal6RSliceERNS_12IAPDUHandlerEEUlRSE_jE_E7ForeachERNS_8IVisitorIS3_EE, .-_ZNK8opendnp318BufferedCollectionINS_7IndexedINS_13FrozenCounterEEEZNS_16CountIndexParser13InvokeCountOfINS_11Group23Var1EEEvRKNS_12HeaderRecordEtRKNS_9NumParserERKN7openpal6RSliceERNS_12IAPDUHandlerEEUlRSE_jE_E7ForeachERNS_8IVisitorIS3_EE
	.section	.text._ZNK8opendnp318BufferedCollectionINS_7IndexedINS_13FrozenCounterEEEZNS_16CountIndexParser13InvokeCountOfINS_11Group23Var2EEEvRKNS_12HeaderRecordEtRKNS_9NumParserERKN7openpal6RSliceERNS_12IAPDUHandlerEEUlRSE_jE_E7ForeachERNS_8IVisitorIS3_EE,"axG",@progbits,_ZNK8opendnp318BufferedCollectionINS_7IndexedINS_13FrozenCounterEEEZNS_16CountIndexParser13InvokeCountOfINS_11Group23Var2EEEvRKNS_12HeaderRecordEtRKNS_9NumParserERKN7openpal6RSliceERNS_12IAPDUHandlerEEUlRSE_jE_E7ForeachERNS_8IVisitorIS3_EE,comdat
	.align 2
	.p2align 4,,15
	.weak	_ZNK8opendnp318BufferedCollectionINS_7IndexedINS_13FrozenCounterEEEZNS_16CountIndexParser13InvokeCountOfINS_11Group23Var2EEEvRKNS_12HeaderRecordEtRKNS_9NumParserERKN7openpal6RSliceERNS_12IAPDUHandlerEEUlRSE_jE_E7ForeachERNS_8IVisitorIS3_EE
	.type	_ZNK8opendnp318BufferedCollectionINS_7IndexedINS_13FrozenCounterEEEZNS_16CountIndexParser13InvokeCountOfINS_11Group23Var2EEEvRKNS_12HeaderRecordEtRKNS_9NumParserERKN7openpal6RSliceERNS_12IAPDUHandlerEEUlRSE_jE_E7ForeachERNS_8IVisitorIS3_EE, @function
_ZNK8opendnp318BufferedCollectionINS_7IndexedINS_13FrozenCounterEEEZNS_16CountIndexParser13InvokeCountOfINS_11Group23Var2EEEvRKNS_12HeaderRecordEtRKNS_9NumParserERKN7openpal6RSliceERNS_12IAPDUHandlerEEUlRSE_jE_E7ForeachERNS_8IVisitorIS3_EE:
.LFB3935:
	.cfi_startproc
	pushq	%r15
	.cfi_def_cfa_offset 16
	.cfi_offset 15, -16
	pushq	%r14
	.cfi_def_cfa_offset 24
	.cfi_offset 14, -24
	pushq	%r13
	.cfi_def_cfa_offset 32
	.cfi_offset 13, -32
	pushq	%r12
	.cfi_def_cfa_offset 40
	.cfi_offset 12, -40
	pushq	%rbp
	.cfi_def_cfa_offset 48
	.cfi_offset 6, -48
	pushq	%rbx
	.cfi_def_cfa_offset 56
	.cfi_offset 3, -56
	subq	$72, %rsp
	.cfi_def_cfa_offset 128
	movq	%fs:40, %rax
	movq	%rax, 56(%rsp)
	xorl	%eax, %eax
	cmpq	$0, 24(%rdi)
	movdqu	8(%rdi), %xmm0
	movaps	%xmm0, (%rsp)
	je	.L374
	leaq	16(%rsp), %rbx
	movq	%rdi, %r12
	movq	%rsi, %r13
	xorl	%ebp, %ebp
	movq	%rsp, %r14
	.p2align 4,,10
	.p2align 3
.L376:
	movq	0(%r13), %rax
	movq	%rbx, %rdi
	movq	(%rax), %r15
	call	_ZN8opendnp313FrozenCounterC1Ev@PLT
	movq	32(%r12), %rdi
	xorl	%eax, %eax
	movq	%r14, %rsi
	movw	%ax, 40(%rsp)
	call	_ZNK8opendnp39NumParser7ReadNumERN7openpal6RSliceE@PLT
	movq	%rbx, %rsi
	movq	%r14, %rdi
	movw	%ax, 40(%rsp)
	call	_ZN8opendnp311Group23Var210ReadTargetERN7openpal6RSliceERNS_13FrozenCounterE@PLT
	movq	%rbx, %rsi
	movq	%r13, %rdi
	call	*%r15
	leal	1(%rbp), %eax
	cmpq	24(%r12), %rax
	movq	%rax, %rbp
	jb	.L376
.L374:
	movq	56(%rsp), %rax
	xorq	%fs:40, %rax
	jne	.L380
	addq	$72, %rsp
	.cfi_remember_state
	.cfi_def_cfa_offset 56
	popq	%rbx
	.cfi_def_cfa_offset 48
	popq	%rbp
	.cfi_def_cfa_offset 40
	popq	%r12
	.cfi_def_cfa_offset 32
	popq	%r13
	.cfi_def_cfa_offset 24
	popq	%r14
	.cfi_def_cfa_offset 16
	popq	%r15
	.cfi_def_cfa_offset 8
	ret
.L380:
	.cfi_restore_state
	call	__stack_chk_fail@PLT
	.cfi_endproc
.LFE3935:
	.size	_ZNK8opendnp318BufferedCollectionINS_7IndexedINS_13FrozenCounterEEEZNS_16CountIndexParser13InvokeCountOfINS_11Group23Var2EEEvRKNS_12HeaderRecordEtRKNS_9NumParserERKN7openpal6RSliceERNS_12IAPDUHandlerEEUlRSE_jE_E7ForeachERNS_8IVisitorIS3_EE, .-_ZNK8opendnp318BufferedCollectionINS_7IndexedINS_13FrozenCounterEEEZNS_16CountIndexParser13InvokeCountOfINS_11Group23Var2EEEvRKNS_12HeaderRecordEtRKNS_9NumParserERKN7openpal6RSliceERNS_12IAPDUHandlerEEUlRSE_jE_E7ForeachERNS_8IVisitorIS3_EE
