	.file	"CountParser.cpp"
	.text
	.section	.text._ZNK8opendnp318BufferedCollectionINS_12Group120Var4EZNS_11CountParser13InvokeCountOfIS1_EEvRKNS_12HeaderRecordEtRKN7openpal6RSliceERNS_12IAPDUHandlerEEUlRS8_jE_E5CountEv,"axG",@progbits,_ZNK8opendnp318BufferedCollectionINS_12Group120Var4EZNS_11CountParser13InvokeCountOfIS1_EEvRKNS_12HeaderRecordEtRKN7openpal6RSliceERNS_12IAPDUHandlerEEUlRS8_jE_E5CountEv,comdat
	.align 2
	.p2align 4,,15
	.weak	_ZNK8opendnp318BufferedCollectionINS_12Group120Var4EZNS_11CountParser13InvokeCountOfIS1_EEvRKNS_12HeaderRecordEtRKN7openpal6RSliceERNS_12IAPDUHandlerEEUlRS8_jE_E5CountEv
	.type	_ZNK8opendnp318BufferedCollectionINS_12Group120Var4EZNS_11CountParser13InvokeCountOfIS1_EEvRKNS_12HeaderRecordEtRKN7openpal6RSliceERNS_12IAPDUHandlerEEUlRS8_jE_E5CountEv, @function
_ZNK8opendnp318BufferedCollectionINS_12Group120Var4EZNS_11CountParser13InvokeCountOfIS1_EEvRKNS_12HeaderRecordEtRKN7openpal6RSliceERNS_12IAPDUHandlerEEUlRS8_jE_E5CountEv:
.LFB3076:
	.cfi_startproc
	movq	24(%rdi), %rax
	ret
	.cfi_endproc
.LFE3076:
	.size	_ZNK8opendnp318BufferedCollectionINS_12Group120Var4EZNS_11CountParser13InvokeCountOfIS1_EEvRKNS_12HeaderRecordEtRKN7openpal6RSliceERNS_12IAPDUHandlerEEUlRS8_jE_E5CountEv, .-_ZNK8opendnp318BufferedCollectionINS_12Group120Var4EZNS_11CountParser13InvokeCountOfIS1_EEvRKNS_12HeaderRecordEtRKN7openpal6RSliceERNS_12IAPDUHandlerEEUlRS8_jE_E5CountEv
	.section	.text._ZNK8opendnp318BufferedCollectionINS_12Group120Var3EZNS_11CountParser13InvokeCountOfIS1_EEvRKNS_12HeaderRecordEtRKN7openpal6RSliceERNS_12IAPDUHandlerEEUlRS8_jE_E5CountEv,"axG",@progbits,_ZNK8opendnp318BufferedCollectionINS_12Group120Var3EZNS_11CountParser13InvokeCountOfIS1_EEvRKNS_12HeaderRecordEtRKN7openpal6RSliceERNS_12IAPDUHandlerEEUlRS8_jE_E5CountEv,comdat
	.align 2
	.p2align 4,,15
	.weak	_ZNK8opendnp318BufferedCollectionINS_12Group120Var3EZNS_11CountParser13InvokeCountOfIS1_EEvRKNS_12HeaderRecordEtRKN7openpal6RSliceERNS_12IAPDUHandlerEEUlRS8_jE_E5CountEv
	.type	_ZNK8opendnp318BufferedCollectionINS_12Group120Var3EZNS_11CountParser13InvokeCountOfIS1_EEvRKNS_12HeaderRecordEtRKN7openpal6RSliceERNS_12IAPDUHandlerEEUlRS8_jE_E5CountEv, @function
_ZNK8opendnp318BufferedCollectionINS_12Group120Var3EZNS_11CountParser13InvokeCountOfIS1_EEvRKNS_12HeaderRecordEtRKN7openpal6RSliceERNS_12IAPDUHandlerEEUlRS8_jE_E5CountEv:
.LFB3078:
	.cfi_startproc
	movq	24(%rdi), %rax
	ret
	.cfi_endproc
.LFE3078:
	.size	_ZNK8opendnp318BufferedCollectionINS_12Group120Var3EZNS_11CountParser13InvokeCountOfIS1_EEvRKNS_12HeaderRecordEtRKN7openpal6RSliceERNS_12IAPDUHandlerEEUlRS8_jE_E5CountEv, .-_ZNK8opendnp318BufferedCollectionINS_12Group120Var3EZNS_11CountParser13InvokeCountOfIS1_EEvRKNS_12HeaderRecordEtRKN7openpal6RSliceERNS_12IAPDUHandlerEEUlRS8_jE_E5CountEv
	.section	.text._ZNK8opendnp318BufferedCollectionINS_11Group52Var2EZNS_11CountParser13InvokeCountOfIS1_EEvRKNS_12HeaderRecordEtRKN7openpal6RSliceERNS_12IAPDUHandlerEEUlRS8_jE_E5CountEv,"axG",@progbits,_ZNK8opendnp318BufferedCollectionINS_11Group52Var2EZNS_11CountParser13InvokeCountOfIS1_EEvRKNS_12HeaderRecordEtRKN7openpal6RSliceERNS_12IAPDUHandlerEEUlRS8_jE_E5CountEv,comdat
	.align 2
	.p2align 4,,15
	.weak	_ZNK8opendnp318BufferedCollectionINS_11Group52Var2EZNS_11CountParser13InvokeCountOfIS1_EEvRKNS_12HeaderRecordEtRKN7openpal6RSliceERNS_12IAPDUHandlerEEUlRS8_jE_E5CountEv
	.type	_ZNK8opendnp318BufferedCollectionINS_11Group52Var2EZNS_11CountParser13InvokeCountOfIS1_EEvRKNS_12HeaderRecordEtRKN7openpal6RSliceERNS_12IAPDUHandlerEEUlRS8_jE_E5CountEv, @function
_ZNK8opendnp318BufferedCollectionINS_11Group52Var2EZNS_11CountParser13InvokeCountOfIS1_EEvRKNS_12HeaderRecordEtRKN7openpal6RSliceERNS_12IAPDUHandlerEEUlRS8_jE_E5CountEv:
.LFB3080:
	.cfi_startproc
	movq	24(%rdi), %rax
	ret
	.cfi_endproc
.LFE3080:
	.size	_ZNK8opendnp318BufferedCollectionINS_11Group52Var2EZNS_11CountParser13InvokeCountOfIS1_EEvRKNS_12HeaderRecordEtRKN7openpal6RSliceERNS_12IAPDUHandlerEEUlRS8_jE_E5CountEv, .-_ZNK8opendnp318BufferedCollectionINS_11Group52Var2EZNS_11CountParser13InvokeCountOfIS1_EEvRKNS_12HeaderRecordEtRKN7openpal6RSliceERNS_12IAPDUHandlerEEUlRS8_jE_E5CountEv
	.section	.text._ZNK8opendnp318BufferedCollectionINS_11Group52Var1EZNS_11CountParser13InvokeCountOfIS1_EEvRKNS_12HeaderRecordEtRKN7openpal6RSliceERNS_12IAPDUHandlerEEUlRS8_jE_E5CountEv,"axG",@progbits,_ZNK8opendnp318BufferedCollectionINS_11Group52Var1EZNS_11CountParser13InvokeCountOfIS1_EEvRKNS_12HeaderRecordEtRKN7openpal6RSliceERNS_12IAPDUHandlerEEUlRS8_jE_E5CountEv,comdat
	.align 2
	.p2align 4,,15
	.weak	_ZNK8opendnp318BufferedCollectionINS_11Group52Var1EZNS_11CountParser13InvokeCountOfIS1_EEvRKNS_12HeaderRecordEtRKN7openpal6RSliceERNS_12IAPDUHandlerEEUlRS8_jE_E5CountEv
	.type	_ZNK8opendnp318BufferedCollectionINS_11Group52Var1EZNS_11CountParser13InvokeCountOfIS1_EEvRKNS_12HeaderRecordEtRKN7openpal6RSliceERNS_12IAPDUHandlerEEUlRS8_jE_E5CountEv, @function
_ZNK8opendnp318BufferedCollectionINS_11Group52Var1EZNS_11CountParser13InvokeCountOfIS1_EEvRKNS_12HeaderRecordEtRKN7openpal6RSliceERNS_12IAPDUHandlerEEUlRS8_jE_E5CountEv:
.LFB3082:
	.cfi_startproc
	movq	24(%rdi), %rax
	ret
	.cfi_endproc
.LFE3082:
	.size	_ZNK8opendnp318BufferedCollectionINS_11Group52Var1EZNS_11CountParser13InvokeCountOfIS1_EEvRKNS_12HeaderRecordEtRKN7openpal6RSliceERNS_12IAPDUHandlerEEUlRS8_jE_E5CountEv, .-_ZNK8opendnp318BufferedCollectionINS_11Group52Var1EZNS_11CountParser13InvokeCountOfIS1_EEvRKNS_12HeaderRecordEtRKN7openpal6RSliceERNS_12IAPDUHandlerEEUlRS8_jE_E5CountEv
	.section	.text._ZNK8opendnp318BufferedCollectionINS_11Group51Var2EZNS_11CountParser13InvokeCountOfIS1_EEvRKNS_12HeaderRecordEtRKN7openpal6RSliceERNS_12IAPDUHandlerEEUlRS8_jE_E5CountEv,"axG",@progbits,_ZNK8opendnp318BufferedCollectionINS_11Group51Var2EZNS_11CountParser13InvokeCountOfIS1_EEvRKNS_12HeaderRecordEtRKN7openpal6RSliceERNS_12IAPDUHandlerEEUlRS8_jE_E5CountEv,comdat
	.align 2
	.p2align 4,,15
	.weak	_ZNK8opendnp318BufferedCollectionINS_11Group51Var2EZNS_11CountParser13InvokeCountOfIS1_EEvRKNS_12HeaderRecordEtRKN7openpal6RSliceERNS_12IAPDUHandlerEEUlRS8_jE_E5CountEv
	.type	_ZNK8opendnp318BufferedCollectionINS_11Group51Var2EZNS_11CountParser13InvokeCountOfIS1_EEvRKNS_12HeaderRecordEtRKN7openpal6RSliceERNS_12IAPDUHandlerEEUlRS8_jE_E5CountEv, @function
_ZNK8opendnp318BufferedCollectionINS_11Group51Var2EZNS_11CountParser13InvokeCountOfIS1_EEvRKNS_12HeaderRecordEtRKN7openpal6RSliceERNS_12IAPDUHandlerEEUlRS8_jE_E5CountEv:
.LFB3084:
	.cfi_startproc
	movq	24(%rdi), %rax
	ret
	.cfi_endproc
.LFE3084:
	.size	_ZNK8opendnp318BufferedCollectionINS_11Group51Var2EZNS_11CountParser13InvokeCountOfIS1_EEvRKNS_12HeaderRecordEtRKN7openpal6RSliceERNS_12IAPDUHandlerEEUlRS8_jE_E5CountEv, .-_ZNK8opendnp318BufferedCollectionINS_11Group51Var2EZNS_11CountParser13InvokeCountOfIS1_EEvRKNS_12HeaderRecordEtRKN7openpal6RSliceERNS_12IAPDUHandlerEEUlRS8_jE_E5CountEv
	.section	.text._ZNK8opendnp318BufferedCollectionINS_11Group51Var1EZNS_11CountParser13InvokeCountOfIS1_EEvRKNS_12HeaderRecordEtRKN7openpal6RSliceERNS_12IAPDUHandlerEEUlRS8_jE_E5CountEv,"axG",@progbits,_ZNK8opendnp318BufferedCollectionINS_11Group51Var1EZNS_11CountParser13InvokeCountOfIS1_EEvRKNS_12HeaderRecordEtRKN7openpal6RSliceERNS_12IAPDUHandlerEEUlRS8_jE_E5CountEv,comdat
	.align 2
	.p2align 4,,15
	.weak	_ZNK8opendnp318BufferedCollectionINS_11Group51Var1EZNS_11CountParser13InvokeCountOfIS1_EEvRKNS_12HeaderRecordEtRKN7openpal6RSliceERNS_12IAPDUHandlerEEUlRS8_jE_E5CountEv
	.type	_ZNK8opendnp318BufferedCollectionINS_11Group51Var1EZNS_11CountParser13InvokeCountOfIS1_EEvRKNS_12HeaderRecordEtRKN7openpal6RSliceERNS_12IAPDUHandlerEEUlRS8_jE_E5CountEv, @function
_ZNK8opendnp318BufferedCollectionINS_11Group51Var1EZNS_11CountParser13InvokeCountOfIS1_EEvRKNS_12HeaderRecordEtRKN7openpal6RSliceERNS_12IAPDUHandlerEEUlRS8_jE_E5CountEv:
.LFB3086:
	.cfi_startproc
	movq	24(%rdi), %rax
	ret
	.cfi_endproc
.LFE3086:
	.size	_ZNK8opendnp318BufferedCollectionINS_11Group51Var1EZNS_11CountParser13InvokeCountOfIS1_EEvRKNS_12HeaderRecordEtRKN7openpal6RSliceERNS_12IAPDUHandlerEEUlRS8_jE_E5CountEv, .-_ZNK8opendnp318BufferedCollectionINS_11Group51Var1EZNS_11CountParser13InvokeCountOfIS1_EEvRKNS_12HeaderRecordEtRKN7openpal6RSliceERNS_12IAPDUHandlerEEUlRS8_jE_E5CountEv
	.section	.text._ZNK8opendnp318BufferedCollectionINS_11Group50Var1EZNS_11CountParser13InvokeCountOfIS1_EEvRKNS_12HeaderRecordEtRKN7openpal6RSliceERNS_12IAPDUHandlerEEUlRS8_jE_E5CountEv,"axG",@progbits,_ZNK8opendnp318BufferedCollectionINS_11Group50Var1EZNS_11CountParser13InvokeCountOfIS1_EEvRKNS_12HeaderRecordEtRKN7openpal6RSliceERNS_12IAPDUHandlerEEUlRS8_jE_E5CountEv,comdat
	.align 2
	.p2align 4,,15
	.weak	_ZNK8opendnp318BufferedCollectionINS_11Group50Var1EZNS_11CountParser13InvokeCountOfIS1_EEvRKNS_12HeaderRecordEtRKN7openpal6RSliceERNS_12IAPDUHandlerEEUlRS8_jE_E5CountEv
	.type	_ZNK8opendnp318BufferedCollectionINS_11Group50Var1EZNS_11CountParser13InvokeCountOfIS1_EEvRKNS_12HeaderRecordEtRKN7openpal6RSliceERNS_12IAPDUHandlerEEUlRS8_jE_E5CountEv, @function
_ZNK8opendnp318BufferedCollectionINS_11Group50Var1EZNS_11CountParser13InvokeCountOfIS1_EEvRKNS_12HeaderRecordEtRKN7openpal6RSliceERNS_12IAPDUHandlerEEUlRS8_jE_E5CountEv:
.LFB3088:
	.cfi_startproc
	movq	24(%rdi), %rax
	ret
	.cfi_endproc
.LFE3088:
	.size	_ZNK8opendnp318BufferedCollectionINS_11Group50Var1EZNS_11CountParser13InvokeCountOfIS1_EEvRKNS_12HeaderRecordEtRKN7openpal6RSliceERNS_12IAPDUHandlerEEUlRS8_jE_E5CountEv, .-_ZNK8opendnp318BufferedCollectionINS_11Group50Var1EZNS_11CountParser13InvokeCountOfIS1_EEvRKNS_12HeaderRecordEtRKN7openpal6RSliceERNS_12IAPDUHandlerEEUlRS8_jE_E5CountEv
	.section	.text._ZN8opendnp311CountParser13InvokeCountOfINS_11Group50Var1EEEvRKNS_12HeaderRecordEtRKN7openpal6RSliceERNS_12IAPDUHandlerE,"axG",@progbits,_ZN8opendnp311CountParser13InvokeCountOfINS_11Group50Var1EEEvRKNS_12HeaderRecordEtRKN7openpal6RSliceERNS_12IAPDUHandlerE,comdat
	.align 2
	.p2align 4,,15
	.weak	_ZN8opendnp311CountParser13InvokeCountOfINS_11Group50Var1EEEvRKNS_12HeaderRecordEtRKN7openpal6RSliceERNS_12IAPDUHandlerE
	.type	_ZN8opendnp311CountParser13InvokeCountOfINS_11Group50Var1EEEvRKNS_12HeaderRecordEtRKN7openpal6RSliceERNS_12IAPDUHandlerE, @function
_ZN8opendnp311CountParser13InvokeCountOfINS_11Group50Var1EEEvRKNS_12HeaderRecordEtRKN7openpal6RSliceERNS_12IAPDUHandlerE:
.LFB2707:
	.cfi_startproc
	subq	$88, %rsp
	.cfi_def_cfa_offset 96
	movq	%fs:40, %rax
	movq	%rax, 72(%rsp)
	xorl	%eax, %eax
	movq	_ZTVN8opendnp318BufferedCollectionINS_11Group50Var1EZNS_11CountParser13InvokeCountOfIS1_EEvRKNS_12HeaderRecordEtRKN7openpal6RSliceERNS_12IAPDUHandlerEEUlRS8_jE_EE@GOTPCREL(%rip), %rax
	movw	%si, 16(%rsp)
	movdqu	(%rdx), %xmm0
	leaq	32(%rsp), %rdx
	addq	$16, %rax
	movups	%xmm0, 40(%rsp)
	movq	%rax, 32(%rsp)
	movzwl	%si, %eax
	movq	%rsp, %rsi
	movdqu	(%rdi), %xmm0
	movq	%rcx, %rdi
	movq	%rax, 56(%rsp)
	movaps	%xmm0, (%rsp)
	call	_ZN8opendnp312IAPDUHandler8OnHeaderERKNS_11CountHeaderERKNS_11ICollectionINS_11Group50Var1EEE@PLT
	movq	72(%rsp), %rax
	xorq	%fs:40, %rax
	jne	.L12
	addq	$88, %rsp
	.cfi_remember_state
	.cfi_def_cfa_offset 8
	ret
.L12:
	.cfi_restore_state
	call	__stack_chk_fail@PLT
	.cfi_endproc
.LFE2707:
	.size	_ZN8opendnp311CountParser13InvokeCountOfINS_11Group50Var1EEEvRKNS_12HeaderRecordEtRKN7openpal6RSliceERNS_12IAPDUHandlerE, .-_ZN8opendnp311CountParser13InvokeCountOfINS_11Group50Var1EEEvRKNS_12HeaderRecordEtRKN7openpal6RSliceERNS_12IAPDUHandlerE
	.section	.text._ZNK8opendnp318BufferedCollectionINS_11Group50Var1EZNS_11CountParser13InvokeCountOfIS1_EEvRKNS_12HeaderRecordEtRKN7openpal6RSliceERNS_12IAPDUHandlerEEUlRS8_jE_E7ForeachERNS_8IVisitorIS1_EE,"axG",@progbits,_ZNK8opendnp318BufferedCollectionINS_11Group50Var1EZNS_11CountParser13InvokeCountOfIS1_EEvRKNS_12HeaderRecordEtRKN7openpal6RSliceERNS_12IAPDUHandlerEEUlRS8_jE_E7ForeachERNS_8IVisitorIS1_EE,comdat
	.align 2
	.p2align 4,,15
	.weak	_ZNK8opendnp318BufferedCollectionINS_11Group50Var1EZNS_11CountParser13InvokeCountOfIS1_EEvRKNS_12HeaderRecordEtRKN7openpal6RSliceERNS_12IAPDUHandlerEEUlRS8_jE_E7ForeachERNS_8IVisitorIS1_EE
	.type	_ZNK8opendnp318BufferedCollectionINS_11Group50Var1EZNS_11CountParser13InvokeCountOfIS1_EEvRKNS_12HeaderRecordEtRKN7openpal6RSliceERNS_12IAPDUHandlerEEUlRS8_jE_E7ForeachERNS_8IVisitorIS1_EE, @function
_ZNK8opendnp318BufferedCollectionINS_11Group50Var1EZNS_11CountParser13InvokeCountOfIS1_EEvRKNS_12HeaderRecordEtRKN7openpal6RSliceERNS_12IAPDUHandlerEEUlRS8_jE_E7ForeachERNS_8IVisitorIS1_EE:
.LFB3089:
	.cfi_startproc
	pushq	%r15
	.cfi_def_cfa_offset 16
	.cfi_offset 15, -16
	pushq	%r14
	.cfi_def_cfa_offset 24
	.cfi_offset 14, -24
	pushq	%r13
	.cfi_def_cfa_offset 32
	.cfi_offset 13, -32
	pushq	%r12
	.cfi_def_cfa_offset 40
	.cfi_offset 12, -40
	pushq	%rbp
	.cfi_def_cfa_offset 48
	.cfi_offset 6, -48
	pushq	%rbx
	.cfi_def_cfa_offset 56
	.cfi_offset 3, -56
	subq	$56, %rsp
	.cfi_def_cfa_offset 112
	movq	%fs:40, %rax
	movq	%rax, 40(%rsp)
	xorl	%eax, %eax
	cmpq	$0, 24(%rdi)
	movdqu	8(%rdi), %xmm0
	movaps	%xmm0, 16(%rsp)
	je	.L13
	leaq	8(%rsp), %rbx
	leaq	16(%rsp), %r14
	movq	%rdi, %r13
	movq	%rsi, %r12
	xorl	%ebp, %ebp
	.p2align 4,,10
	.p2align 3
.L15:
	movq	(%r12), %rax
	movq	%rbx, %rdi
	movq	(%rax), %r15
	call	_ZN8opendnp311Group50Var1C1Ev@PLT
	movq	%rbx, %rsi
	movq	%r14, %rdi
	call	_ZN8opendnp311Group50Var14ReadERN7openpal6RSliceERS0_@PLT
	movq	%rbx, %rsi
	movq	%r12, %rdi
	call	*%r15
	leal	1(%rbp), %eax
	cmpq	24(%r13), %rax
	movq	%rax, %rbp
	jb	.L15
.L13:
	movq	40(%rsp), %rax
	xorq	%fs:40, %rax
	jne	.L19
	addq	$56, %rsp
	.cfi_remember_state
	.cfi_def_cfa_offset 56
	popq	%rbx
	.cfi_def_cfa_offset 48
	popq	%rbp
	.cfi_def_cfa_offset 40
	popq	%r12
	.cfi_def_cfa_offset 32
	popq	%r13
	.cfi_def_cfa_offset 24
	popq	%r14
	.cfi_def_cfa_offset 16
	popq	%r15
	.cfi_def_cfa_offset 8
	ret
.L19:
	.cfi_restore_state
	call	__stack_chk_fail@PLT
	.cfi_endproc
.LFE3089:
	.size	_ZNK8opendnp318BufferedCollectionINS_11Group50Var1EZNS_11CountParser13InvokeCountOfIS1_EEvRKNS_12HeaderRecordEtRKN7openpal6RSliceERNS_12IAPDUHandlerEEUlRS8_jE_E7ForeachERNS_8IVisitorIS1_EE, .-_ZNK8opendnp318BufferedCollectionINS_11Group50Var1EZNS_11CountParser13InvokeCountOfIS1_EEvRKNS_12HeaderRecordEtRKN7openpal6RSliceERNS_12IAPDUHandlerEEUlRS8_jE_E7ForeachERNS_8IVisitorIS1_EE
	.section	.text._ZN8opendnp311CountParser13InvokeCountOfINS_11Group51Var1EEEvRKNS_12HeaderRecordEtRKN7openpal6RSliceERNS_12IAPDUHandlerE,"axG",@progbits,_ZN8opendnp311CountParser13InvokeCountOfINS_11Group51Var1EEEvRKNS_12HeaderRecordEtRKN7openpal6RSliceERNS_12IAPDUHandlerE,comdat
	.align 2
	.p2align 4,,15
	.weak	_ZN8opendnp311CountParser13InvokeCountOfINS_11Group51Var1EEEvRKNS_12HeaderRecordEtRKN7openpal6RSliceERNS_12IAPDUHandlerE
	.type	_ZN8opendnp311CountParser13InvokeCountOfINS_11Group51Var1EEEvRKNS_12HeaderRecordEtRKN7openpal6RSliceERNS_12IAPDUHandlerE, @function
_ZN8opendnp311CountParser13InvokeCountOfINS_11Group51Var1EEEvRKNS_12HeaderRecordEtRKN7openpal6RSliceERNS_12IAPDUHandlerE:
.LFB2717:
	.cfi_startproc
	subq	$88, %rsp
	.cfi_def_cfa_offset 96
	movq	%fs:40, %rax
	movq	%rax, 72(%rsp)
	xorl	%eax, %eax
	movq	_ZTVN8opendnp318BufferedCollectionINS_11Group51Var1EZNS_11CountParser13InvokeCountOfIS1_EEvRKNS_12HeaderRecordEtRKN7openpal6RSliceERNS_12IAPDUHandlerEEUlRS8_jE_EE@GOTPCREL(%rip), %rax
	movw	%si, 16(%rsp)
	movdqu	(%rdx), %xmm0
	leaq	32(%rsp), %rdx
	addq	$16, %rax
	movups	%xmm0, 40(%rsp)
	movq	%rax, 32(%rsp)
	movzwl	%si, %eax
	movq	%rsp, %rsi
	movdqu	(%rdi), %xmm0
	movq	%rcx, %rdi
	movq	%rax, 56(%rsp)
	movaps	%xmm0, (%rsp)
	call	_ZN8opendnp312IAPDUHandler8OnHeaderERKNS_11CountHeaderERKNS_11ICollectionINS_11Group51Var1EEE@PLT
	movq	72(%rsp), %rax
	xorq	%fs:40, %rax
	jne	.L23
	addq	$88, %rsp
	.cfi_remember_state
	.cfi_def_cfa_offset 8
	ret
.L23:
	.cfi_restore_state
	call	__stack_chk_fail@PLT
	.cfi_endproc
.LFE2717:
	.size	_ZN8opendnp311CountParser13InvokeCountOfINS_11Group51Var1EEEvRKNS_12HeaderRecordEtRKN7openpal6RSliceERNS_12IAPDUHandlerE, .-_ZN8opendnp311CountParser13InvokeCountOfINS_11Group51Var1EEEvRKNS_12HeaderRecordEtRKN7openpal6RSliceERNS_12IAPDUHandlerE
	.section	.text._ZNK8opendnp318BufferedCollectionINS_11Group51Var1EZNS_11CountParser13InvokeCountOfIS1_EEvRKNS_12HeaderRecordEtRKN7openpal6RSliceERNS_12IAPDUHandlerEEUlRS8_jE_E7ForeachERNS_8IVisitorIS1_EE,"axG",@progbits,_ZNK8opendnp318BufferedCollectionINS_11Group51Var1EZNS_11CountParser13InvokeCountOfIS1_EEvRKNS_12HeaderRecordEtRKN7openpal6RSliceERNS_12IAPDUHandlerEEUlRS8_jE_E7ForeachERNS_8IVisitorIS1_EE,comdat
	.align 2
	.p2align 4,,15
	.weak	_ZNK8opendnp318BufferedCollectionINS_11Group51Var1EZNS_11CountParser13InvokeCountOfIS1_EEvRKNS_12HeaderRecordEtRKN7openpal6RSliceERNS_12IAPDUHandlerEEUlRS8_jE_E7ForeachERNS_8IVisitorIS1_EE
	.type	_ZNK8opendnp318BufferedCollectionINS_11Group51Var1EZNS_11CountParser13InvokeCountOfIS1_EEvRKNS_12HeaderRecordEtRKN7openpal6RSliceERNS_12IAPDUHandlerEEUlRS8_jE_E7ForeachERNS_8IVisitorIS1_EE, @function
_ZNK8opendnp318BufferedCollectionINS_11Group51Var1EZNS_11CountParser13InvokeCountOfIS1_EEvRKNS_12HeaderRecordEtRKN7openpal6RSliceERNS_12IAPDUHandlerEEUlRS8_jE_E7ForeachERNS_8IVisitorIS1_EE:
.LFB3087:
	.cfi_startproc
	pushq	%r15
	.cfi_def_cfa_offset 16
	.cfi_offset 15, -16
	pushq	%r14
	.cfi_def_cfa_offset 24
	.cfi_offset 14, -24
	pushq	%r13
	.cfi_def_cfa_offset 32
	.cfi_offset 13, -32
	pushq	%r12
	.cfi_def_cfa_offset 40
	.cfi_offset 12, -40
	pushq	%rbp
	.cfi_def_cfa_offset 48
	.cfi_offset 6, -48
	pushq	%rbx
	.cfi_def_cfa_offset 56
	.cfi_offset 3, -56
	subq	$56, %rsp
	.cfi_def_cfa_offset 112
	movq	%fs:40, %rax
	movq	%rax, 40(%rsp)
	xorl	%eax, %eax
	cmpq	$0, 24(%rdi)
	movdqu	8(%rdi), %xmm0
	movaps	%xmm0, 16(%rsp)
	je	.L24
	leaq	8(%rsp), %rbx
	leaq	16(%rsp), %r14
	movq	%rdi, %r13
	movq	%rsi, %r12
	xorl	%ebp, %ebp
	.p2align 4,,10
	.p2align 3
.L26:
	movq	(%r12), %rax
	movq	%rbx, %rdi
	movq	(%rax), %r15
	call	_ZN8opendnp311Group51Var1C1Ev@PLT
	movq	%rbx, %rsi
	movq	%r14, %rdi
	call	_ZN8opendnp311Group51Var14ReadERN7openpal6RSliceERS0_@PLT
	movq	%rbx, %rsi
	movq	%r12, %rdi
	call	*%r15
	leal	1(%rbp), %eax
	cmpq	24(%r13), %rax
	movq	%rax, %rbp
	jb	.L26
.L24:
	movq	40(%rsp), %rax
	xorq	%fs:40, %rax
	jne	.L30
	addq	$56, %rsp
	.cfi_remember_state
	.cfi_def_cfa_offset 56
	popq	%rbx
	.cfi_def_cfa_offset 48
	popq	%rbp
	.cfi_def_cfa_offset 40
	popq	%r12
	.cfi_def_cfa_offset 32
	popq	%r13
	.cfi_def_cfa_offset 24
	popq	%r14
	.cfi_def_cfa_offset 16
	popq	%r15
	.cfi_def_cfa_offset 8
	ret
.L30:
	.cfi_restore_state
	call	__stack_chk_fail@PLT
	.cfi_endproc
.LFE3087:
	.size	_ZNK8opendnp318BufferedCollectionINS_11Group51Var1EZNS_11CountParser13InvokeCountOfIS1_EEvRKNS_12HeaderRecordEtRKN7openpal6RSliceERNS_12IAPDUHandlerEEUlRS8_jE_E7ForeachERNS_8IVisitorIS1_EE, .-_ZNK8opendnp318BufferedCollectionINS_11Group51Var1EZNS_11CountParser13InvokeCountOfIS1_EEvRKNS_12HeaderRecordEtRKN7openpal6RSliceERNS_12IAPDUHandlerEEUlRS8_jE_E7ForeachERNS_8IVisitorIS1_EE
	.section	.text._ZN8opendnp311CountParser13InvokeCountOfINS_11Group51Var2EEEvRKNS_12HeaderRecordEtRKN7openpal6RSliceERNS_12IAPDUHandlerE,"axG",@progbits,_ZN8opendnp311CountParser13InvokeCountOfINS_11Group51Var2EEEvRKNS_12HeaderRecordEtRKN7openpal6RSliceERNS_12IAPDUHandlerE,comdat
	.align 2
	.p2align 4,,15
	.weak	_ZN8opendnp311CountParser13InvokeCountOfINS_11Group51Var2EEEvRKNS_12HeaderRecordEtRKN7openpal6RSliceERNS_12IAPDUHandlerE
	.type	_ZN8opendnp311CountParser13InvokeCountOfINS_11Group51Var2EEEvRKNS_12HeaderRecordEtRKN7openpal6RSliceERNS_12IAPDUHandlerE, @function
_ZN8opendnp311CountParser13InvokeCountOfINS_11Group51Var2EEEvRKNS_12HeaderRecordEtRKN7openpal6RSliceERNS_12IAPDUHandlerE:
.LFB2727:
	.cfi_startproc
	subq	$88, %rsp
	.cfi_def_cfa_offset 96
	movq	%fs:40, %rax
	movq	%rax, 72(%rsp)
	xorl	%eax, %eax
	movq	_ZTVN8opendnp318BufferedCollectionINS_11Group51Var2EZNS_11CountParser13InvokeCountOfIS1_EEvRKNS_12HeaderRecordEtRKN7openpal6RSliceERNS_12IAPDUHandlerEEUlRS8_jE_EE@GOTPCREL(%rip), %rax
	movw	%si, 16(%rsp)
	movdqu	(%rdx), %xmm0
	leaq	32(%rsp), %rdx
	addq	$16, %rax
	movups	%xmm0, 40(%rsp)
	movq	%rax, 32(%rsp)
	movzwl	%si, %eax
	movq	%rsp, %rsi
	movdqu	(%rdi), %xmm0
	movq	%rcx, %rdi
	movq	%rax, 56(%rsp)
	movaps	%xmm0, (%rsp)
	call	_ZN8opendnp312IAPDUHandler8OnHeaderERKNS_11CountHeaderERKNS_11ICollectionINS_11Group51Var2EEE@PLT
	movq	72(%rsp), %rax
	xorq	%fs:40, %rax
	jne	.L34
	addq	$88, %rsp
	.cfi_remember_state
	.cfi_def_cfa_offset 8
	ret
.L34:
	.cfi_restore_state
	call	__stack_chk_fail@PLT
	.cfi_endproc
.LFE2727:
	.size	_ZN8opendnp311CountParser13InvokeCountOfINS_11Group51Var2EEEvRKNS_12HeaderRecordEtRKN7openpal6RSliceERNS_12IAPDUHandlerE, .-_ZN8opendnp311CountParser13InvokeCountOfINS_11Group51Var2EEEvRKNS_12HeaderRecordEtRKN7openpal6RSliceERNS_12IAPDUHandlerE
	.section	.text._ZNK8opendnp318BufferedCollectionINS_11Group51Var2EZNS_11CountParser13InvokeCountOfIS1_EEvRKNS_12HeaderRecordEtRKN7openpal6RSliceERNS_12IAPDUHandlerEEUlRS8_jE_E7ForeachERNS_8IVisitorIS1_EE,"axG",@progbits,_ZNK8opendnp318BufferedCollectionINS_11Group51Var2EZNS_11CountParser13InvokeCountOfIS1_EEvRKNS_12HeaderRecordEtRKN7openpal6RSliceERNS_12IAPDUHandlerEEUlRS8_jE_E7ForeachERNS_8IVisitorIS1_EE,comdat
	.align 2
	.p2align 4,,15
	.weak	_ZNK8opendnp318BufferedCollectionINS_11Group51Var2EZNS_11CountParser13InvokeCountOfIS1_EEvRKNS_12HeaderRecordEtRKN7openpal6RSliceERNS_12IAPDUHandlerEEUlRS8_jE_E7ForeachERNS_8IVisitorIS1_EE
	.type	_ZNK8opendnp318BufferedCollectionINS_11Group51Var2EZNS_11CountParser13InvokeCountOfIS1_EEvRKNS_12HeaderRecordEtRKN7openpal6RSliceERNS_12IAPDUHandlerEEUlRS8_jE_E7ForeachERNS_8IVisitorIS1_EE, @function
_ZNK8opendnp318BufferedCollectionINS_11Group51Var2EZNS_11CountParser13InvokeCountOfIS1_EEvRKNS_12HeaderRecordEtRKN7openpal6RSliceERNS_12IAPDUHandlerEEUlRS8_jE_E7ForeachERNS_8IVisitorIS1_EE:
.LFB3085:
	.cfi_startproc
	pushq	%r15
	.cfi_def_cfa_offset 16
	.cfi_offset 15, -16
	pushq	%r14
	.cfi_def_cfa_offset 24
	.cfi_offset 14, -24
	pushq	%r13
	.cfi_def_cfa_offset 32
	.cfi_offset 13, -32
	pushq	%r12
	.cfi_def_cfa_offset 40
	.cfi_offset 12, -40
	pushq	%rbp
	.cfi_def_cfa_offset 48
	.cfi_offset 6, -48
	pushq	%rbx
	.cfi_def_cfa_offset 56
	.cfi_offset 3, -56
	subq	$56, %rsp
	.cfi_def_cfa_offset 112
	movq	%fs:40, %rax
	movq	%rax, 40(%rsp)
	xorl	%eax, %eax
	cmpq	$0, 24(%rdi)
	movdqu	8(%rdi), %xmm0
	movaps	%xmm0, 16(%rsp)
	je	.L35
	leaq	8(%rsp), %rbx
	leaq	16(%rsp), %r14
	movq	%rdi, %r13
	movq	%rsi, %r12
	xorl	%ebp, %ebp
	.p2align 4,,10
	.p2align 3
.L37:
	movq	(%r12), %rax
	movq	%rbx, %rdi
	movq	(%rax), %r15
	call	_ZN8opendnp311Group51Var2C1Ev@PLT
	movq	%rbx, %rsi
	movq	%r14, %rdi
	call	_ZN8opendnp311Group51Var24ReadERN7openpal6RSliceERS0_@PLT
	movq	%rbx, %rsi
	movq	%r12, %rdi
	call	*%r15
	leal	1(%rbp), %eax
	cmpq	24(%r13), %rax
	movq	%rax, %rbp
	jb	.L37
.L35:
	movq	40(%rsp), %rax
	xorq	%fs:40, %rax
	jne	.L41
	addq	$56, %rsp
	.cfi_remember_state
	.cfi_def_cfa_offset 56
	popq	%rbx
	.cfi_def_cfa_offset 48
	popq	%rbp
	.cfi_def_cfa_offset 40
	popq	%r12
	.cfi_def_cfa_offset 32
	popq	%r13
	.cfi_def_cfa_offset 24
	popq	%r14
	.cfi_def_cfa_offset 16
	popq	%r15
	.cfi_def_cfa_offset 8
	ret
.L41:
	.cfi_restore_state
	call	__stack_chk_fail@PLT
	.cfi_endproc
.LFE3085:
	.size	_ZNK8opendnp318BufferedCollectionINS_11Group51Var2EZNS_11CountParser13InvokeCountOfIS1_EEvRKNS_12HeaderRecordEtRKN7openpal6RSliceERNS_12IAPDUHandlerEEUlRS8_jE_E7ForeachERNS_8IVisitorIS1_EE, .-_ZNK8opendnp318BufferedCollectionINS_11Group51Var2EZNS_11CountParser13InvokeCountOfIS1_EEvRKNS_12HeaderRecordEtRKN7openpal6RSliceERNS_12IAPDUHandlerEEUlRS8_jE_E7ForeachERNS_8IVisitorIS1_EE
	.section	.text._ZN8opendnp311CountParser13InvokeCountOfINS_11Group52Var1EEEvRKNS_12HeaderRecordEtRKN7openpal6RSliceERNS_12IAPDUHandlerE,"axG",@progbits,_ZN8opendnp311CountParser13InvokeCountOfINS_11Group52Var1EEEvRKNS_12HeaderRecordEtRKN7openpal6RSliceERNS_12IAPDUHandlerE,comdat
	.align 2
	.p2align 4,,15
	.weak	_ZN8opendnp311CountParser13InvokeCountOfINS_11Group52Var1EEEvRKNS_12HeaderRecordEtRKN7openpal6RSliceERNS_12IAPDUHandlerE
	.type	_ZN8opendnp311CountParser13InvokeCountOfINS_11Group52Var1EEEvRKNS_12HeaderRecordEtRKN7openpal6RSliceERNS_12IAPDUHandlerE, @function
_ZN8opendnp311CountParser13InvokeCountOfINS_11Group52Var1EEEvRKNS_12HeaderRecordEtRKN7openpal6RSliceERNS_12IAPDUHandlerE:
.LFB2737:
	.cfi_startproc
	subq	$88, %rsp
	.cfi_def_cfa_offset 96
	movq	%fs:40, %rax
	movq	%rax, 72(%rsp)
	xorl	%eax, %eax
	movq	_ZTVN8opendnp318BufferedCollectionINS_11Group52Var1EZNS_11CountParser13InvokeCountOfIS1_EEvRKNS_12HeaderRecordEtRKN7openpal6RSliceERNS_12IAPDUHandlerEEUlRS8_jE_EE@GOTPCREL(%rip), %rax
	movw	%si, 16(%rsp)
	movdqu	(%rdx), %xmm0
	leaq	32(%rsp), %rdx
	addq	$16, %rax
	movups	%xmm0, 40(%rsp)
	movq	%rax, 32(%rsp)
	movzwl	%si, %eax
	movq	%rsp, %rsi
	movdqu	(%rdi), %xmm0
	movq	%rcx, %rdi
	movq	%rax, 56(%rsp)
	movaps	%xmm0, (%rsp)
	call	_ZN8opendnp312IAPDUHandler8OnHeaderERKNS_11CountHeaderERKNS_11ICollectionINS_11Group52Var1EEE@PLT
	movq	72(%rsp), %rax
	xorq	%fs:40, %rax
	jne	.L45
	addq	$88, %rsp
	.cfi_remember_state
	.cfi_def_cfa_offset 8
	ret
.L45:
	.cfi_restore_state
	call	__stack_chk_fail@PLT
	.cfi_endproc
.LFE2737:
	.size	_ZN8opendnp311CountParser13InvokeCountOfINS_11Group52Var1EEEvRKNS_12HeaderRecordEtRKN7openpal6RSliceERNS_12IAPDUHandlerE, .-_ZN8opendnp311CountParser13InvokeCountOfINS_11Group52Var1EEEvRKNS_12HeaderRecordEtRKN7openpal6RSliceERNS_12IAPDUHandlerE
	.section	.text._ZNK8opendnp318BufferedCollectionINS_11Group52Var1EZNS_11CountParser13InvokeCountOfIS1_EEvRKNS_12HeaderRecordEtRKN7openpal6RSliceERNS_12IAPDUHandlerEEUlRS8_jE_E7ForeachERNS_8IVisitorIS1_EE,"axG",@progbits,_ZNK8opendnp318BufferedCollectionINS_11Group52Var1EZNS_11CountParser13InvokeCountOfIS1_EEvRKNS_12HeaderRecordEtRKN7openpal6RSliceERNS_12IAPDUHandlerEEUlRS8_jE_E7ForeachERNS_8IVisitorIS1_EE,comdat
	.align 2
	.p2align 4,,15
	.weak	_ZNK8opendnp318BufferedCollectionINS_11Group52Var1EZNS_11CountParser13InvokeCountOfIS1_EEvRKNS_12HeaderRecordEtRKN7openpal6RSliceERNS_12IAPDUHandlerEEUlRS8_jE_E7ForeachERNS_8IVisitorIS1_EE
	.type	_ZNK8opendnp318BufferedCollectionINS_11Group52Var1EZNS_11CountParser13InvokeCountOfIS1_EEvRKNS_12HeaderRecordEtRKN7openpal6RSliceERNS_12IAPDUHandlerEEUlRS8_jE_E7ForeachERNS_8IVisitorIS1_EE, @function
_ZNK8opendnp318BufferedCollectionINS_11Group52Var1EZNS_11CountParser13InvokeCountOfIS1_EEvRKNS_12HeaderRecordEtRKN7openpal6RSliceERNS_12IAPDUHandlerEEUlRS8_jE_E7ForeachERNS_8IVisitorIS1_EE:
.LFB3083:
	.cfi_startproc
	pushq	%r15
	.cfi_def_cfa_offset 16
	.cfi_offset 15, -16
	pushq	%r14
	.cfi_def_cfa_offset 24
	.cfi_offset 14, -24
	pushq	%r13
	.cfi_def_cfa_offset 32
	.cfi_offset 13, -32
	pushq	%r12
	.cfi_def_cfa_offset 40
	.cfi_offset 12, -40
	pushq	%rbp
	.cfi_def_cfa_offset 48
	.cfi_offset 6, -48
	pushq	%rbx
	.cfi_def_cfa_offset 56
	.cfi_offset 3, -56
	subq	$56, %rsp
	.cfi_def_cfa_offset 112
	movq	%fs:40, %rax
	movq	%rax, 40(%rsp)
	xorl	%eax, %eax
	cmpq	$0, 24(%rdi)
	movdqu	8(%rdi), %xmm0
	movaps	%xmm0, 16(%rsp)
	je	.L46
	leaq	14(%rsp), %rbx
	leaq	16(%rsp), %r14
	movq	%rdi, %r13
	movq	%rsi, %r12
	xorl	%ebp, %ebp
	.p2align 4,,10
	.p2align 3
.L48:
	movq	(%r12), %rax
	movq	%rbx, %rdi
	movq	(%rax), %r15
	call	_ZN8opendnp311Group52Var1C1Ev@PLT
	movq	%rbx, %rsi
	movq	%r14, %rdi
	call	_ZN8opendnp311Group52Var14ReadERN7openpal6RSliceERS0_@PLT
	movq	%rbx, %rsi
	movq	%r12, %rdi
	call	*%r15
	leal	1(%rbp), %eax
	cmpq	24(%r13), %rax
	movq	%rax, %rbp
	jb	.L48
.L46:
	movq	40(%rsp), %rax
	xorq	%fs:40, %rax
	jne	.L52
	addq	$56, %rsp
	.cfi_remember_state
	.cfi_def_cfa_offset 56
	popq	%rbx
	.cfi_def_cfa_offset 48
	popq	%rbp
	.cfi_def_cfa_offset 40
	popq	%r12
	.cfi_def_cfa_offset 32
	popq	%r13
	.cfi_def_cfa_offset 24
	popq	%r14
	.cfi_def_cfa_offset 16
	popq	%r15
	.cfi_def_cfa_offset 8
	ret
.L52:
	.cfi_restore_state
	call	__stack_chk_fail@PLT
	.cfi_endproc
.LFE3083:
	.size	_ZNK8opendnp318BufferedCollectionINS_11Group52Var1EZNS_11CountParser13InvokeCountOfIS1_EEvRKNS_12HeaderRecordEtRKN7openpal6RSliceERNS_12IAPDUHandlerEEUlRS8_jE_E7ForeachERNS_8IVisitorIS1_EE, .-_ZNK8opendnp318BufferedCollectionINS_11Group52Var1EZNS_11CountParser13InvokeCountOfIS1_EEvRKNS_12HeaderRecordEtRKN7openpal6RSliceERNS_12IAPDUHandlerEEUlRS8_jE_E7ForeachERNS_8IVisitorIS1_EE
	.section	.text._ZN8opendnp311CountParser13InvokeCountOfINS_11Group52Var2EEEvRKNS_12HeaderRecordEtRKN7openpal6RSliceERNS_12IAPDUHandlerE,"axG",@progbits,_ZN8opendnp311CountParser13InvokeCountOfINS_11Group52Var2EEEvRKNS_12HeaderRecordEtRKN7openpal6RSliceERNS_12IAPDUHandlerE,comdat
	.align 2
	.p2align 4,,15
	.weak	_ZN8opendnp311CountParser13InvokeCountOfINS_11Group52Var2EEEvRKNS_12HeaderRecordEtRKN7openpal6RSliceERNS_12IAPDUHandlerE
	.type	_ZN8opendnp311CountParser13InvokeCountOfINS_11Group52Var2EEEvRKNS_12HeaderRecordEtRKN7openpal6RSliceERNS_12IAPDUHandlerE, @function
_ZN8opendnp311CountParser13InvokeCountOfINS_11Group52Var2EEEvRKNS_12HeaderRecordEtRKN7openpal6RSliceERNS_12IAPDUHandlerE:
.LFB2747:
	.cfi_startproc
	subq	$88, %rsp
	.cfi_def_cfa_offset 96
	movq	%fs:40, %rax
	movq	%rax, 72(%rsp)
	xorl	%eax, %eax
	movq	_ZTVN8opendnp318BufferedCollectionINS_11Group52Var2EZNS_11CountParser13InvokeCountOfIS1_EEvRKNS_12HeaderRecordEtRKN7openpal6RSliceERNS_12IAPDUHandlerEEUlRS8_jE_EE@GOTPCREL(%rip), %rax
	movw	%si, 16(%rsp)
	movdqu	(%rdx), %xmm0
	leaq	32(%rsp), %rdx
	addq	$16, %rax
	movups	%xmm0, 40(%rsp)
	movq	%rax, 32(%rsp)
	movzwl	%si, %eax
	movq	%rsp, %rsi
	movdqu	(%rdi), %xmm0
	movq	%rcx, %rdi
	movq	%rax, 56(%rsp)
	movaps	%xmm0, (%rsp)
	call	_ZN8opendnp312IAPDUHandler8OnHeaderERKNS_11CountHeaderERKNS_11ICollectionINS_11Group52Var2EEE@PLT
	movq	72(%rsp), %rax
	xorq	%fs:40, %rax
	jne	.L56
	addq	$88, %rsp
	.cfi_remember_state
	.cfi_def_cfa_offset 8
	ret
.L56:
	.cfi_restore_state
	call	__stack_chk_fail@PLT
	.cfi_endproc
.LFE2747:
	.size	_ZN8opendnp311CountParser13InvokeCountOfINS_11Group52Var2EEEvRKNS_12HeaderRecordEtRKN7openpal6RSliceERNS_12IAPDUHandlerE, .-_ZN8opendnp311CountParser13InvokeCountOfINS_11Group52Var2EEEvRKNS_12HeaderRecordEtRKN7openpal6RSliceERNS_12IAPDUHandlerE
	.section	.text._ZNK8opendnp318BufferedCollectionINS_11Group52Var2EZNS_11CountParser13InvokeCountOfIS1_EEvRKNS_12HeaderRecordEtRKN7openpal6RSliceERNS_12IAPDUHandlerEEUlRS8_jE_E7ForeachERNS_8IVisitorIS1_EE,"axG",@progbits,_ZNK8opendnp318BufferedCollectionINS_11Group52Var2EZNS_11CountParser13InvokeCountOfIS1_EEvRKNS_12HeaderRecordEtRKN7openpal6RSliceERNS_12IAPDUHandlerEEUlRS8_jE_E7ForeachERNS_8IVisitorIS1_EE,comdat
	.align 2
	.p2align 4,,15
	.weak	_ZNK8opendnp318BufferedCollectionINS_11Group52Var2EZNS_11CountParser13InvokeCountOfIS1_EEvRKNS_12HeaderRecordEtRKN7openpal6RSliceERNS_12IAPDUHandlerEEUlRS8_jE_E7ForeachERNS_8IVisitorIS1_EE
	.type	_ZNK8opendnp318BufferedCollectionINS_11Group52Var2EZNS_11CountParser13InvokeCountOfIS1_EEvRKNS_12HeaderRecordEtRKN7openpal6RSliceERNS_12IAPDUHandlerEEUlRS8_jE_E7ForeachERNS_8IVisitorIS1_EE, @function
_ZNK8opendnp318BufferedCollectionINS_11Group52Var2EZNS_11CountParser13InvokeCountOfIS1_EEvRKNS_12HeaderRecordEtRKN7openpal6RSliceERNS_12IAPDUHandlerEEUlRS8_jE_E7ForeachERNS_8IVisitorIS1_EE:
.LFB3081:
	.cfi_startproc
	pushq	%r15
	.cfi_def_cfa_offset 16
	.cfi_offset 15, -16
	pushq	%r14
	.cfi_def_cfa_offset 24
	.cfi_offset 14, -24
	pushq	%r13
	.cfi_def_cfa_offset 32
	.cfi_offset 13, -32
	pushq	%r12
	.cfi_def_cfa_offset 40
	.cfi_offset 12, -40
	pushq	%rbp
	.cfi_def_cfa_offset 48
	.cfi_offset 6, -48
	pushq	%rbx
	.cfi_def_cfa_offset 56
	.cfi_offset 3, -56
	subq	$56, %rsp
	.cfi_def_cfa_offset 112
	movq	%fs:40, %rax
	movq	%rax, 40(%rsp)
	xorl	%eax, %eax
	cmpq	$0, 24(%rdi)
	movdqu	8(%rdi), %xmm0
	movaps	%xmm0, 16(%rsp)
	je	.L57
	leaq	14(%rsp), %rbx
	leaq	16(%rsp), %r14
	movq	%rdi, %r13
	movq	%rsi, %r12
	xorl	%ebp, %ebp
	.p2align 4,,10
	.p2align 3
.L59:
	movq	(%r12), %rax
	movq	%rbx, %rdi
	movq	(%rax), %r15
	call	_ZN8opendnp311Group52Var2C1Ev@PLT
	movq	%rbx, %rsi
	movq	%r14, %rdi
	call	_ZN8opendnp311Group52Var24ReadERN7openpal6RSliceERS0_@PLT
	movq	%rbx, %rsi
	movq	%r12, %rdi
	call	*%r15
	leal	1(%rbp), %eax
	cmpq	24(%r13), %rax
	movq	%rax, %rbp
	jb	.L59
.L57:
	movq	40(%rsp), %rax
	xorq	%fs:40, %rax
	jne	.L63
	addq	$56, %rsp
	.cfi_remember_state
	.cfi_def_cfa_offset 56
	popq	%rbx
	.cfi_def_cfa_offset 48
	popq	%rbp
	.cfi_def_cfa_offset 40
	popq	%r12
	.cfi_def_cfa_offset 32
	popq	%r13
	.cfi_def_cfa_offset 24
	popq	%r14
	.cfi_def_cfa_offset 16
	popq	%r15
	.cfi_def_cfa_offset 8
	ret
.L63:
	.cfi_restore_state
	call	__stack_chk_fail@PLT
	.cfi_endproc
.LFE3081:
	.size	_ZNK8opendnp318BufferedCollectionINS_11Group52Var2EZNS_11CountParser13InvokeCountOfIS1_EEvRKNS_12HeaderRecordEtRKN7openpal6RSliceERNS_12IAPDUHandlerEEUlRS8_jE_E7ForeachERNS_8IVisitorIS1_EE, .-_ZNK8opendnp318BufferedCollectionINS_11Group52Var2EZNS_11CountParser13InvokeCountOfIS1_EEvRKNS_12HeaderRecordEtRKN7openpal6RSliceERNS_12IAPDUHandlerEEUlRS8_jE_E7ForeachERNS_8IVisitorIS1_EE
	.section	.text._ZN8opendnp311CountParser13InvokeCountOfINS_12Group120Var3EEEvRKNS_12HeaderRecordEtRKN7openpal6RSliceERNS_12IAPDUHandlerE,"axG",@progbits,_ZN8opendnp311CountParser13InvokeCountOfINS_12Group120Var3EEEvRKNS_12HeaderRecordEtRKN7openpal6RSliceERNS_12IAPDUHandlerE,comdat
	.align 2
	.p2align 4,,15
	.weak	_ZN8opendnp311CountParser13InvokeCountOfINS_12Group120Var3EEEvRKNS_12HeaderRecordEtRKN7openpal6RSliceERNS_12IAPDUHandlerE
	.type	_ZN8opendnp311CountParser13InvokeCountOfINS_12Group120Var3EEEvRKNS_12HeaderRecordEtRKN7openpal6RSliceERNS_12IAPDUHandlerE, @function
_ZN8opendnp311CountParser13InvokeCountOfINS_12Group120Var3EEEvRKNS_12HeaderRecordEtRKN7openpal6RSliceERNS_12IAPDUHandlerE:
.LFB2757:
	.cfi_startproc
	subq	$88, %rsp
	.cfi_def_cfa_offset 96
	movq	%fs:40, %rax
	movq	%rax, 72(%rsp)
	xorl	%eax, %eax
	movq	_ZTVN8opendnp318BufferedCollectionINS_12Group120Var3EZNS_11CountParser13InvokeCountOfIS1_EEvRKNS_12HeaderRecordEtRKN7openpal6RSliceERNS_12IAPDUHandlerEEUlRS8_jE_EE@GOTPCREL(%rip), %rax
	movw	%si, 16(%rsp)
	movdqu	(%rdx), %xmm0
	leaq	32(%rsp), %rdx
	addq	$16, %rax
	movups	%xmm0, 40(%rsp)
	movq	%rax, 32(%rsp)
	movzwl	%si, %eax
	movq	%rsp, %rsi
	movdqu	(%rdi), %xmm0
	movq	%rcx, %rdi
	movq	%rax, 56(%rsp)
	movaps	%xmm0, (%rsp)
	call	_ZN8opendnp312IAPDUHandler8OnHeaderERKNS_11CountHeaderERKNS_11ICollectionINS_12Group120Var3EEE@PLT
	movq	72(%rsp), %rax
	xorq	%fs:40, %rax
	jne	.L67
	addq	$88, %rsp
	.cfi_remember_state
	.cfi_def_cfa_offset 8
	ret
.L67:
	.cfi_restore_state
	call	__stack_chk_fail@PLT
	.cfi_endproc
.LFE2757:
	.size	_ZN8opendnp311CountParser13InvokeCountOfINS_12Group120Var3EEEvRKNS_12HeaderRecordEtRKN7openpal6RSliceERNS_12IAPDUHandlerE, .-_ZN8opendnp311CountParser13InvokeCountOfINS_12Group120Var3EEEvRKNS_12HeaderRecordEtRKN7openpal6RSliceERNS_12IAPDUHandlerE
	.section	.text._ZNK8opendnp318BufferedCollectionINS_12Group120Var3EZNS_11CountParser13InvokeCountOfIS1_EEvRKNS_12HeaderRecordEtRKN7openpal6RSliceERNS_12IAPDUHandlerEEUlRS8_jE_E7ForeachERNS_8IVisitorIS1_EE,"axG",@progbits,_ZNK8opendnp318BufferedCollectionINS_12Group120Var3EZNS_11CountParser13InvokeCountOfIS1_EEvRKNS_12HeaderRecordEtRKN7openpal6RSliceERNS_12IAPDUHandlerEEUlRS8_jE_E7ForeachERNS_8IVisitorIS1_EE,comdat
	.align 2
	.p2align 4,,15
	.weak	_ZNK8opendnp318BufferedCollectionINS_12Group120Var3EZNS_11CountParser13InvokeCountOfIS1_EEvRKNS_12HeaderRecordEtRKN7openpal6RSliceERNS_12IAPDUHandlerEEUlRS8_jE_E7ForeachERNS_8IVisitorIS1_EE
	.type	_ZNK8opendnp318BufferedCollectionINS_12Group120Var3EZNS_11CountParser13InvokeCountOfIS1_EEvRKNS_12HeaderRecordEtRKN7openpal6RSliceERNS_12IAPDUHandlerEEUlRS8_jE_E7ForeachERNS_8IVisitorIS1_EE, @function
_ZNK8opendnp318BufferedCollectionINS_12Group120Var3EZNS_11CountParser13InvokeCountOfIS1_EEvRKNS_12HeaderRecordEtRKN7openpal6RSliceERNS_12IAPDUHandlerEEUlRS8_jE_E7ForeachERNS_8IVisitorIS1_EE:
.LFB3079:
	.cfi_startproc
	pushq	%r15
	.cfi_def_cfa_offset 16
	.cfi_offset 15, -16
	pushq	%r14
	.cfi_def_cfa_offset 24
	.cfi_offset 14, -24
	pushq	%r13
	.cfi_def_cfa_offset 32
	.cfi_offset 13, -32
	pushq	%r12
	.cfi_def_cfa_offset 40
	.cfi_offset 12, -40
	pushq	%rbp
	.cfi_def_cfa_offset 48
	.cfi_offset 6, -48
	pushq	%rbx
	.cfi_def_cfa_offset 56
	.cfi_offset 3, -56
	subq	$56, %rsp
	.cfi_def_cfa_offset 112
	movq	%fs:40, %rax
	movq	%rax, 40(%rsp)
	xorl	%eax, %eax
	cmpq	$0, 24(%rdi)
	movdqu	8(%rdi), %xmm0
	movaps	%xmm0, 16(%rsp)
	je	.L68
	leaq	8(%rsp), %rbx
	leaq	16(%rsp), %r14
	movq	%rdi, %r13
	movq	%rsi, %r12
	xorl	%ebp, %ebp
	.p2align 4,,10
	.p2align 3
.L70:
	movq	(%r12), %rax
	movq	%rbx, %rdi
	movq	(%rax), %r15
	call	_ZN8opendnp312Group120Var3C1Ev@PLT
	movq	%rbx, %rsi
	movq	%r14, %rdi
	call	_ZN8opendnp312Group120Var34ReadERN7openpal6RSliceERS0_@PLT
	movq	%rbx, %rsi
	movq	%r12, %rdi
	call	*%r15
	leal	1(%rbp), %eax
	cmpq	24(%r13), %rax
	movq	%rax, %rbp
	jb	.L70
.L68:
	movq	40(%rsp), %rax
	xorq	%fs:40, %rax
	jne	.L74
	addq	$56, %rsp
	.cfi_remember_state
	.cfi_def_cfa_offset 56
	popq	%rbx
	.cfi_def_cfa_offset 48
	popq	%rbp
	.cfi_def_cfa_offset 40
	popq	%r12
	.cfi_def_cfa_offset 32
	popq	%r13
	.cfi_def_cfa_offset 24
	popq	%r14
	.cfi_def_cfa_offset 16
	popq	%r15
	.cfi_def_cfa_offset 8
	ret
.L74:
	.cfi_restore_state
	call	__stack_chk_fail@PLT
	.cfi_endproc
.LFE3079:
	.size	_ZNK8opendnp318BufferedCollectionINS_12Group120Var3EZNS_11CountParser13InvokeCountOfIS1_EEvRKNS_12HeaderRecordEtRKN7openpal6RSliceERNS_12IAPDUHandlerEEUlRS8_jE_E7ForeachERNS_8IVisitorIS1_EE, .-_ZNK8opendnp318BufferedCollectionINS_12Group120Var3EZNS_11CountParser13InvokeCountOfIS1_EEvRKNS_12HeaderRecordEtRKN7openpal6RSliceERNS_12IAPDUHandlerEEUlRS8_jE_E7ForeachERNS_8IVisitorIS1_EE
	.section	.text._ZN8opendnp311CountParser13InvokeCountOfINS_12Group120Var4EEEvRKNS_12HeaderRecordEtRKN7openpal6RSliceERNS_12IAPDUHandlerE,"axG",@progbits,_ZN8opendnp311CountParser13InvokeCountOfINS_12Group120Var4EEEvRKNS_12HeaderRecordEtRKN7openpal6RSliceERNS_12IAPDUHandlerE,comdat
	.align 2
	.p2align 4,,15
	.weak	_ZN8opendnp311CountParser13InvokeCountOfINS_12Group120Var4EEEvRKNS_12HeaderRecordEtRKN7openpal6RSliceERNS_12IAPDUHandlerE
	.type	_ZN8opendnp311CountParser13InvokeCountOfINS_12Group120Var4EEEvRKNS_12HeaderRecordEtRKN7openpal6RSliceERNS_12IAPDUHandlerE, @function
_ZN8opendnp311CountParser13InvokeCountOfINS_12Group120Var4EEEvRKNS_12HeaderRecordEtRKN7openpal6RSliceERNS_12IAPDUHandlerE:
.LFB2767:
	.cfi_startproc
	subq	$88, %rsp
	.cfi_def_cfa_offset 96
	movq	%fs:40, %rax
	movq	%rax, 72(%rsp)
	xorl	%eax, %eax
	movq	_ZTVN8opendnp318BufferedCollectionINS_12Group120Var4EZNS_11CountParser13InvokeCountOfIS1_EEvRKNS_12HeaderRecordEtRKN7openpal6RSliceERNS_12IAPDUHandlerEEUlRS8_jE_EE@GOTPCREL(%rip), %rax
	movw	%si, 16(%rsp)
	movdqu	(%rdx), %xmm0
	leaq	32(%rsp), %rdx
	addq	$16, %rax
	movups	%xmm0, 40(%rsp)
	movq	%rax, 32(%rsp)
	movzwl	%si, %eax
	movq	%rsp, %rsi
	movdqu	(%rdi), %xmm0
	movq	%rcx, %rdi
	movq	%rax, 56(%rsp)
	movaps	%xmm0, (%rsp)
	call	_ZN8opendnp312IAPDUHandler8OnHeaderERKNS_11CountHeaderERKNS_11ICollectionINS_12Group120Var4EEE@PLT
	movq	72(%rsp), %rax
	xorq	%fs:40, %rax
	jne	.L78
	addq	$88, %rsp
	.cfi_remember_state
	.cfi_def_cfa_offset 8
	ret
.L78:
	.cfi_restore_state
	call	__stack_chk_fail@PLT
	.cfi_endproc
.LFE2767:
	.size	_ZN8opendnp311CountParser13InvokeCountOfINS_12Group120Var4EEEvRKNS_12HeaderRecordEtRKN7openpal6RSliceERNS_12IAPDUHandlerE, .-_ZN8opendnp311CountParser13InvokeCountOfINS_12Group120Var4EEEvRKNS_12HeaderRecordEtRKN7openpal6RSliceERNS_12IAPDUHandlerE
	.section	.text._ZNK8opendnp318BufferedCollectionINS_12Group120Var4EZNS_11CountParser13InvokeCountOfIS1_EEvRKNS_12HeaderRecordEtRKN7openpal6RSliceERNS_12IAPDUHandlerEEUlRS8_jE_E7ForeachERNS_8IVisitorIS1_EE,"axG",@progbits,_ZNK8opendnp318BufferedCollectionINS_12Group120Var4EZNS_11CountParser13InvokeCountOfIS1_EEvRKNS_12HeaderRecordEtRKN7openpal6RSliceERNS_12IAPDUHandlerEEUlRS8_jE_E7ForeachERNS_8IVisitorIS1_EE,comdat
	.align 2
	.p2align 4,,15
	.weak	_ZNK8opendnp318BufferedCollectionINS_12Group120Var4EZNS_11CountParser13InvokeCountOfIS1_EEvRKNS_12HeaderRecordEtRKN7openpal6RSliceERNS_12IAPDUHandlerEEUlRS8_jE_E7ForeachERNS_8IVisitorIS1_EE
	.type	_ZNK8opendnp318BufferedCollectionINS_12Group120Var4EZNS_11CountParser13InvokeCountOfIS1_EEvRKNS_12HeaderRecordEtRKN7openpal6RSliceERNS_12IAPDUHandlerEEUlRS8_jE_E7ForeachERNS_8IVisitorIS1_EE, @function
_ZNK8opendnp318BufferedCollectionINS_12Group120Var4EZNS_11CountParser13InvokeCountOfIS1_EEvRKNS_12HeaderRecordEtRKN7openpal6RSliceERNS_12IAPDUHandlerEEUlRS8_jE_E7ForeachERNS_8IVisitorIS1_EE:
.LFB3077:
	.cfi_startproc
	pushq	%r15
	.cfi_def_cfa_offset 16
	.cfi_offset 15, -16
	pushq	%r14
	.cfi_def_cfa_offset 24
	.cfi_offset 14, -24
	pushq	%r13
	.cfi_def_cfa_offset 32
	.cfi_offset 13, -32
	pushq	%r12
	.cfi_def_cfa_offset 40
	.cfi_offset 12, -40
	pushq	%rbp
	.cfi_def_cfa_offset 48
	.cfi_offset 6, -48
	pushq	%rbx
	.cfi_def_cfa_offset 56
	.cfi_offset 3, -56
	subq	$56, %rsp
	.cfi_def_cfa_offset 112
	movq	%fs:40, %rax
	movq	%rax, 40(%rsp)
	xorl	%eax, %eax
	cmpq	$0, 24(%rdi)
	movdqu	8(%rdi), %xmm0
	movaps	%xmm0, 16(%rsp)
	je	.L79
	leaq	14(%rsp), %rbx
	leaq	16(%rsp), %r14
	movq	%rdi, %r13
	movq	%rsi, %r12
	xorl	%ebp, %ebp
	.p2align 4,,10
	.p2align 3
.L81:
	movq	(%r12), %rax
	movq	%rbx, %rdi
	movq	(%rax), %r15
	call	_ZN8opendnp312Group120Var4C1Ev@PLT
	movq	%rbx, %rsi
	movq	%r14, %rdi
	call	_ZN8opendnp312Group120Var44ReadERN7openpal6RSliceERS0_@PLT
	movq	%rbx, %rsi
	movq	%r12, %rdi
	call	*%r15
	leal	1(%rbp), %eax
	cmpq	24(%r13), %rax
	movq	%rax, %rbp
	jb	.L81
.L79:
	movq	40(%rsp), %rax
	xorq	%fs:40, %rax
	jne	.L85
	addq	$56, %rsp
	.cfi_remember_state
	.cfi_def_cfa_offset 56
	popq	%rbx
	.cfi_def_cfa_offset 48
	popq	%rbp
	.cfi_def_cfa_offset 40
	popq	%r12
	.cfi_def_cfa_offset 32
	popq	%r13
	.cfi_def_cfa_offset 24
	popq	%r14
	.cfi_def_cfa_offset 16
	popq	%r15
	.cfi_def_cfa_offset 8
	ret
.L85:
	.cfi_restore_state
	call	__stack_chk_fail@PLT
	.cfi_endproc
.LFE3077:
	.size	_ZNK8opendnp318BufferedCollectionINS_12Group120Var4EZNS_11CountParser13InvokeCountOfIS1_EEvRKNS_12HeaderRecordEtRKN7openpal6RSliceERNS_12IAPDUHandlerEEUlRS8_jE_E7ForeachERNS_8IVisitorIS1_EE, .-_ZNK8opendnp318BufferedCollectionINS_12Group120Var4EZNS_11CountParser13InvokeCountOfIS1_EEvRKNS_12HeaderRecordEtRKN7openpal6RSliceERNS_12IAPDUHandlerEEUlRS8_jE_E7ForeachERNS_8IVisitorIS1_EE
	.text
	.align 2
	.p2align 4,,15
	.globl	_ZN8opendnp311CountParserC2EtjPFvRKNS_12HeaderRecordEtRKN7openpal6RSliceERNS_12IAPDUHandlerEE
	.type	_ZN8opendnp311CountParserC2EtjPFvRKNS_12HeaderRecordEtRKN7openpal6RSliceERNS_12IAPDUHandlerEE, @function
_ZN8opendnp311CountParserC2EtjPFvRKNS_12HeaderRecordEtRKN7openpal6RSliceERNS_12IAPDUHandlerEE:
.LFB2269:
	.cfi_startproc
	movw	%si, (%rdi)
	movl	%edx, 4(%rdi)
	movq	%rcx, 8(%rdi)
	ret
	.cfi_endproc
.LFE2269:
	.size	_ZN8opendnp311CountParserC2EtjPFvRKNS_12HeaderRecordEtRKN7openpal6RSliceERNS_12IAPDUHandlerEE, .-_ZN8opendnp311CountParserC2EtjPFvRKNS_12HeaderRecordEtRKN7openpal6RSliceERNS_12IAPDUHandlerEE
	.globl	_ZN8opendnp311CountParserC1EtjPFvRKNS_12HeaderRecordEtRKN7openpal6RSliceERNS_12IAPDUHandlerEE
	.set	_ZN8opendnp311CountParserC1EtjPFvRKNS_12HeaderRecordEtRKN7openpal6RSliceERNS_12IAPDUHandlerEE,_ZN8opendnp311CountParserC2EtjPFvRKNS_12HeaderRecordEtRKN7openpal6RSliceERNS_12IAPDUHandlerEE
	.section	.rodata.str1.8,"aMS",@progbits,1
	.align 8
.LC0:
	.string	"Not enough data for specified objects"
	.align 8
.LC1:
	.string	"/home/raihan/OpenPLC_v3/utils/dnp3_src/cpp/libs/src/opendnp3/app/parsing/CountParser.cpp(42)"
	.text
	.align 2
	.p2align 4,,15
	.globl	_ZNK8opendnp311CountParser7ProcessERKNS_12HeaderRecordERN7openpal6RSliceEPNS_12IAPDUHandlerEPNS4_6LoggerE
	.type	_ZNK8opendnp311CountParser7ProcessERKNS_12HeaderRecordERN7openpal6RSliceEPNS_12IAPDUHandlerEPNS4_6LoggerE, @function
_ZNK8opendnp311CountParser7ProcessERKNS_12HeaderRecordERN7openpal6RSliceEPNS_12IAPDUHandlerEPNS4_6LoggerE:
.LFB2271:
	.cfi_startproc
	pushq	%rbp
	.cfi_def_cfa_offset 16
	.cfi_offset 6, -16
	pushq	%rbx
	.cfi_def_cfa_offset 24
	.cfi_offset 3, -24
	movq	%rdi, %rbx
	movq	%rsi, %rdi
	subq	$40, %rsp
	.cfi_def_cfa_offset 64
	movl	4(%rbx), %esi
	movq	%fs:40, %rax
	movq	%rax, 24(%rsp)
	xorl	%eax, %eax
	cmpl	(%rdx), %esi
	jbe	.L88
	testq	%r8, %r8
	je	.L89
	leaq	16(%rsp), %rsi
	movq	%r8, %rdi
	movq	%r8, 8(%rsp)
	movl	$4, 16(%rsp)
	call	_ZNK7openpal6Logger9IsEnabledERKNS_10LogFiltersE@PLT
	testb	%al, %al
	movq	8(%rsp), %r8
	jne	.L103
.L89:
	movl	$4, %eax
	jmp	.L87
	.p2align 4,,10
	.p2align 3
.L88:
	testq	%rcx, %rcx
	movq	%rdx, %rbp
	je	.L91
	movzwl	(%rbx), %esi
	call	*8(%rbx)
	movl	4(%rbx), %esi
.L91:
	movq	%rbp, %rdi
	call	_ZN7openpal6RSlice7AdvanceEj@PLT
	xorl	%eax, %eax
.L87:
	movq	24(%rsp), %rdx
	xorq	%fs:40, %rdx
	jne	.L104
	addq	$40, %rsp
	.cfi_remember_state
	.cfi_def_cfa_offset 24
	popq	%rbx
	.cfi_def_cfa_offset 16
	popq	%rbp
	.cfi_def_cfa_offset 8
	ret
	.p2align 4,,10
	.p2align 3
.L103:
	.cfi_restore_state
	leaq	20(%rsp), %rsi
	leaq	.LC0(%rip), %rcx
	leaq	.LC1(%rip), %rdx
	movq	%r8, %rdi
	movl	$4, 20(%rsp)
	call	_ZN7openpal6Logger3LogERKNS_10LogFiltersEPKcS5_@PLT
	movl	$4, %eax
	jmp	.L87
.L104:
	call	__stack_chk_fail@PLT
	.cfi_endproc
.LFE2271:
	.size	_ZNK8opendnp311CountParser7ProcessERKNS_12HeaderRecordERN7openpal6RSliceEPNS_12IAPDUHandlerEPNS4_6LoggerE, .-_ZNK8opendnp311CountParser7ProcessERKNS_12HeaderRecordERN7openpal6RSliceEPNS_12IAPDUHandlerEPNS4_6LoggerE
	.section	.rodata.str1.8
	.align 8
.LC2:
	.string	"Unsupported qualifier/object - %s - %i / %i"
	.align 8
.LC3:
	.string	"/home/raihan/OpenPLC_v3/utils/dnp3_src/cpp/libs/src/opendnp3/app/parsing/CountParser.cpp(119)"
	.text
	.align 2
	.p2align 4,,15
	.globl	_ZN8opendnp311CountParser19ParseCountOfObjectsERN7openpal6RSliceERKNS_12HeaderRecordEtPNS1_6LoggerEPNS_12IAPDUHandlerE
	.type	_ZN8opendnp311CountParser19ParseCountOfObjectsERN7openpal6RSliceERKNS_12HeaderRecordEtPNS1_6LoggerEPNS_12IAPDUHandlerE, @function
_ZN8opendnp311CountParser19ParseCountOfObjectsERN7openpal6RSliceERKNS_12HeaderRecordEtPNS1_6LoggerEPNS_12IAPDUHandlerE:
.LFB2273:
	.cfi_startproc
	pushq	%r15
	.cfi_def_cfa_offset 16
	.cfi_offset 15, -16
	pushq	%r14
	.cfi_def_cfa_offset 24
	.cfi_offset 14, -24
	pushq	%r13
	.cfi_def_cfa_offset 32
	.cfi_offset 13, -32
	pushq	%r12
	.cfi_def_cfa_offset 40
	.cfi_offset 12, -40
	movq	%rsi, %r13
	pushq	%rbp
	.cfi_def_cfa_offset 48
	.cfi_offset 6, -48
	pushq	%rbx
	.cfi_def_cfa_offset 56
	.cfi_offset 3, -56
	movq	%rdi, %rbp
	movq	%rcx, %rbx
	movq	%r8, %r12
	subq	$152, %rsp
	.cfi_def_cfa_offset 208
	movq	%fs:40, %rax
	movq	%rax, 136(%rsp)
	xorl	%eax, %eax
	movzwl	(%rsi), %eax
	cmpw	$13313, %ax
	je	.L107
	jbe	.L126
	cmpw	$30723, %ax
	je	.L112
	cmpw	$30724, %ax
	je	.L113
	cmpw	$13314, %ax
	je	.L127
.L106:
	testq	%rbx, %rbx
	je	.L116
	movq	%rsp, %rbp
	movq	%rbx, %rdi
	movl	$4, (%rsp)
	movq	%rbp, %rsi
	call	_ZNK7openpal6Logger9IsEnabledERKNS_10LogFiltersE@PLT
	testb	%al, %al
	jne	.L128
.L116:
	movl	$8, %eax
	.p2align 4,,10
	.p2align 3
.L105:
	movq	136(%rsp), %rbx
	xorq	%fs:40, %rbx
	jne	.L129
	addq	$152, %rsp
	.cfi_remember_state
	.cfi_def_cfa_offset 56
	popq	%rbx
	.cfi_def_cfa_offset 48
	popq	%rbp
	.cfi_def_cfa_offset 40
	popq	%r12
	.cfi_def_cfa_offset 32
	popq	%r13
	.cfi_def_cfa_offset 24
	popq	%r14
	.cfi_def_cfa_offset 16
	popq	%r15
	.cfi_def_cfa_offset 8
	ret
	.p2align 4,,10
	.p2align 3
.L126:
	.cfi_restore_state
	cmpw	$13057, %ax
	je	.L109
	cmpw	$13058, %ax
	je	.L110
	cmpw	$12801, %ax
	jne	.L106
	movzwl	%dx, %esi
	movq	_ZN8opendnp311CountParser13InvokeCountOfINS_11Group50Var1EEEvRKNS_12HeaderRecordEtRKN7openpal6RSliceERNS_12IAPDUHandlerE@GOTPCREL(%rip), %rcx
	movq	%rsp, %r14
	leal	(%rsi,%rsi,2), %edx
	addl	%edx, %edx
	.p2align 4,,10
	.p2align 3
.L125:
	movq	%r14, %rdi
	call	_ZN8opendnp311CountParserC1EtjPFvRKNS_12HeaderRecordEtRKN7openpal6RSliceERNS_12IAPDUHandlerEE@PLT
	movq	%rbx, %r8
	movq	%r12, %rcx
	movq	%rbp, %rdx
	movq	%r13, %rsi
	movq	%r14, %rdi
	call	_ZNK8opendnp311CountParser7ProcessERKNS_12HeaderRecordERN7openpal6RSliceEPNS_12IAPDUHandlerEPNS4_6LoggerE@PLT
	jmp	.L105
	.p2align 4,,10
	.p2align 3
.L113:
	movzwl	%dx, %esi
	movq	%rsp, %r14
	movq	_ZN8opendnp311CountParser13InvokeCountOfINS_12Group120Var4EEEvRKNS_12HeaderRecordEtRKN7openpal6RSliceERNS_12IAPDUHandlerE@GOTPCREL(%rip), %rcx
	leal	(%rsi,%rsi), %edx
	jmp	.L125
	.p2align 4,,10
	.p2align 3
.L110:
	movzwl	%dx, %esi
	movq	%rsp, %r14
	movq	_ZN8opendnp311CountParser13InvokeCountOfINS_11Group51Var2EEEvRKNS_12HeaderRecordEtRKN7openpal6RSliceERNS_12IAPDUHandlerE@GOTPCREL(%rip), %rcx
	leal	(%rsi,%rsi,2), %edx
	addl	%edx, %edx
	jmp	.L125
	.p2align 4,,10
	.p2align 3
.L112:
	movzwl	%dx, %esi
	movq	%rsp, %r14
	movq	_ZN8opendnp311CountParser13InvokeCountOfINS_12Group120Var3EEEvRKNS_12HeaderRecordEtRKN7openpal6RSliceERNS_12IAPDUHandlerE@GOTPCREL(%rip), %rcx
	leal	(%rsi,%rsi,2), %edx
	addl	%edx, %edx
	jmp	.L125
	.p2align 4,,10
	.p2align 3
.L127:
	movzwl	%dx, %esi
	movq	%rsp, %r14
	movq	_ZN8opendnp311CountParser13InvokeCountOfINS_11Group52Var2EEEvRKNS_12HeaderRecordEtRKN7openpal6RSliceERNS_12IAPDUHandlerE@GOTPCREL(%rip), %rcx
	leal	(%rsi,%rsi), %edx
	jmp	.L125
	.p2align 4,,10
	.p2align 3
.L109:
	movzwl	%dx, %esi
	movq	%rsp, %r14
	movq	_ZN8opendnp311CountParser13InvokeCountOfINS_11Group51Var1EEEvRKNS_12HeaderRecordEtRKN7openpal6RSliceERNS_12IAPDUHandlerE@GOTPCREL(%rip), %rcx
	leal	(%rsi,%rsi,2), %edx
	addl	%edx, %edx
	jmp	.L125
	.p2align 4,,10
	.p2align 3
.L107:
	movzwl	%dx, %esi
	movq	%rsp, %r14
	movq	_ZN8opendnp311CountParser13InvokeCountOfINS_11Group52Var1EEEvRKNS_12HeaderRecordEtRKN7openpal6RSliceERNS_12IAPDUHandlerE@GOTPCREL(%rip), %rcx
	leal	(%rsi,%rsi), %edx
	jmp	.L125
	.p2align 4,,10
	.p2align 3
.L128:
	movzbl	9(%r13), %r15d
	movzbl	8(%r13), %r14d
	movq	%r13, %rdi
	call	_ZNK8opendnp312HeaderRecord16GetQualifierCodeEv@PLT
	leaq	16(%rsp), %r12
	movl	%eax, %edi
	call	_ZN8opendnp321QualifierCodeToStringENS_13QualifierCodeE@PLT
	pushq	%r15
	.cfi_def_cfa_offset 216
	leaq	.LC2(%rip), %r8
	pushq	%r14
	.cfi_def_cfa_offset 224
	movq	%rax, %r9
	movl	$120, %ecx
	movl	$1, %edx
	movl	$120, %esi
	movq	%r12, %rdi
	xorl	%eax, %eax
	call	__snprintf_chk@PLT
	movl	$4, 16(%rsp)
	movq	%r12, %rcx
	movq	%rbp, %rsi
	popq	%rax
	.cfi_def_cfa_offset 216
	popq	%rdx
	.cfi_def_cfa_offset 208
	leaq	.LC3(%rip), %rdx
	movq	%rbx, %rdi
	call	_ZN7openpal6Logger3LogERKNS_10LogFiltersEPKcS5_@PLT
	movl	$8, %eax
	jmp	.L105
.L129:
	call	__stack_chk_fail@PLT
	.cfi_endproc
.LFE2273:
	.size	_ZN8opendnp311CountParser19ParseCountOfObjectsERN7openpal6RSliceERKNS_12HeaderRecordEtPNS1_6LoggerEPNS_12IAPDUHandlerE, .-_ZN8opendnp311CountParser19ParseCountOfObjectsERN7openpal6RSliceERKNS_12HeaderRecordEtPNS1_6LoggerEPNS_12IAPDUHandlerE
	.section	.rodata.str1.1,"aMS",@progbits,1
.LC4:
	.string	"%03u,%03u %s, %s [%u]"
	.section	.rodata.str1.8
	.align 8
.LC5:
	.string	"/home/raihan/OpenPLC_v3/utils/dnp3_src/cpp/libs/src/opendnp3/app/parsing/CountParser.cpp(68)"
	.text
	.align 2
	.p2align 4,,15
	.globl	_ZN8opendnp311CountParser11ParseHeaderERN7openpal6RSliceERKNS_9NumParserERKNS_14ParserSettingsERKNS_12HeaderRecordEPNS1_6LoggerEPNS_12IAPDUHandlerE
	.type	_ZN8opendnp311CountParser11ParseHeaderERN7openpal6RSliceERKNS_9NumParserERKNS_14ParserSettingsERKNS_12HeaderRecordEPNS1_6LoggerEPNS_12IAPDUHandlerE, @function
_ZN8opendnp311CountParser11ParseHeaderERN7openpal6RSliceERKNS_9NumParserERKNS_14ParserSettingsERKNS_12HeaderRecordEPNS1_6LoggerEPNS_12IAPDUHandlerE:
.LFB2272:
	.cfi_startproc
	pushq	%r15
	.cfi_def_cfa_offset 16
	.cfi_offset 15, -16
	pushq	%r14
	.cfi_def_cfa_offset 24
	.cfi_offset 14, -24
	movq	%rcx, %r14
	pushq	%r13
	.cfi_def_cfa_offset 32
	.cfi_offset 13, -32
	pushq	%r12
	.cfi_def_cfa_offset 40
	.cfi_offset 12, -40
	movq	%rdx, %r12
	pushq	%rbp
	.cfi_def_cfa_offset 48
	.cfi_offset 6, -48
	pushq	%rbx
	.cfi_def_cfa_offset 56
	.cfi_offset 3, -56
	movq	%rdi, %rbp
	movq	%r8, %rcx
	movq	%rsi, %rdi
	movq	%rbp, %rsi
	subq	$216, %rsp
	.cfi_def_cfa_offset 272
	movq	%r8, %rbx
	movq	%r9, %r13
	leaq	46(%rsp), %rdx
	movq	%fs:40, %rax
	movq	%rax, 200(%rsp)
	xorl	%eax, %eax
	call	_ZNK8opendnp39NumParser10ParseCountERN7openpal6RSliceERtPNS1_6LoggerE@PLT
	testb	%al, %al
	movl	%eax, %r15d
	jne	.L130
	testq	%rbx, %rbx
	je	.L133
	movl	4(%r12), %eax
	movq	%rbx, %rdi
	movl	%eax, 48(%rsp)
	leaq	48(%rsp), %rax
	movq	%rax, %rsi
	movq	%rax, 8(%rsp)
	call	_ZNK7openpal6Logger9IsEnabledERKNS_10LogFiltersE@PLT
	testb	%al, %al
	jne	.L146
.L133:
	cmpb	$0, (%r12)
	jne	.L147
	testq	%r13, %r13
	je	.L130
	movzwl	46(%rsp), %eax
	leaq	48(%rsp), %rsi
	movq	%r13, %rdi
	movdqu	(%r14), %xmm0
	movaps	%xmm0, 48(%rsp)
	movw	%ax, 64(%rsp)
	call	_ZN8opendnp312IAPDUHandler8OnHeaderERKNS_11CountHeaderE@PLT
.L130:
	movq	200(%rsp), %rcx
	xorq	%fs:40, %rcx
	movl	%r15d, %eax
	jne	.L148
	addq	$216, %rsp
	.cfi_remember_state
	.cfi_def_cfa_offset 56
	popq	%rbx
	.cfi_def_cfa_offset 48
	popq	%rbp
	.cfi_def_cfa_offset 40
	popq	%r12
	.cfi_def_cfa_offset 32
	popq	%r13
	.cfi_def_cfa_offset 24
	popq	%r14
	.cfi_def_cfa_offset 16
	popq	%r15
	.cfi_def_cfa_offset 8
	ret
	.p2align 4,,10
	.p2align 3
.L147:
	.cfi_restore_state
	movzwl	46(%rsp), %edx
	movq	%r13, %r8
	movq	%rbx, %rcx
	movq	%r14, %rsi
	movq	%rbp, %rdi
	call	_ZN8opendnp311CountParser19ParseCountOfObjectsERN7openpal6RSliceERKNS_12HeaderRecordEtPNS1_6LoggerEPNS_12IAPDUHandlerE@PLT
	movl	%eax, %r15d
	jmp	.L130
	.p2align 4,,10
	.p2align 3
.L146:
	movzwl	46(%rsp), %ecx
	movq	%r14, %rdi
	movl	%ecx, 28(%rsp)
	call	_ZNK8opendnp312HeaderRecord16GetQualifierCodeEv@PLT
	movl	%eax, %edi
	call	_ZN8opendnp321QualifierCodeToStringENS_13QualifierCodeE@PLT
	movzwl	(%r14), %edi
	movq	%rax, 16(%rsp)
	call	_ZN8opendnp322GroupVariationToStringENS_14GroupVariationE@PLT
	movl	28(%rsp), %ecx
	leaq	80(%rsp), %r11
	movzbl	8(%r14), %r9d
	leaq	.LC4(%rip), %r8
	movl	$120, %esi
	movq	%r11, %rdi
	pushq	%rcx
	.cfi_def_cfa_offset 280
	movq	24(%rsp), %rdx
	movl	$120, %ecx
	pushq	%rdx
	.cfi_def_cfa_offset 288
	pushq	%rax
	.cfi_def_cfa_offset 296
	movl	$1, %edx
	movzbl	9(%r14), %eax
	pushq	%rax
	.cfi_def_cfa_offset 304
	xorl	%eax, %eax
	movq	%r11, 48(%rsp)
	call	__snprintf_chk@PLT
	movl	4(%r12), %eax
	leaq	.LC5(%rip), %rdx
	movq	%rbx, %rdi
	movl	%eax, 80(%rsp)
	addq	$32, %rsp
	.cfi_def_cfa_offset 272
	movq	16(%rsp), %r11
	movq	8(%rsp), %rsi
	movq	%r11, %rcx
	call	_ZN7openpal6Logger3LogERKNS_10LogFiltersEPKcS5_@PLT
	jmp	.L133
.L148:
	call	__stack_chk_fail@PLT
	.cfi_endproc
.LFE2272:
	.size	_ZN8opendnp311CountParser11ParseHeaderERN7openpal6RSliceERKNS_9NumParserERKNS_14ParserSettingsERKNS_12HeaderRecordEPNS1_6LoggerEPNS_12IAPDUHandlerE, .-_ZN8opendnp311CountParser11ParseHeaderERN7openpal6RSliceERKNS_9NumParserERKNS_14ParserSettingsERKNS_12HeaderRecordEPNS1_6LoggerEPNS_12IAPDUHandlerE
	.weak	_ZTSN8opendnp311ICollectionINS_11Group50Var1EEE
	.section	.rodata._ZTSN8opendnp311ICollectionINS_11Group50Var1EEE,"aG",@progbits,_ZTSN8opendnp311ICollectionINS_11Group50Var1EEE,comdat
	.align 32
	.type	_ZTSN8opendnp311ICollectionINS_11Group50Var1EEE, @object
	.size	_ZTSN8opendnp311ICollectionINS_11Group50Var1EEE, 44
_ZTSN8opendnp311ICollectionINS_11Group50Var1EEE:
	.string	"N8opendnp311ICollectionINS_11Group50Var1EEE"
	.weak	_ZTIN8opendnp311ICollectionINS_11Group50Var1EEE
	.section	.data.rel.ro._ZTIN8opendnp311ICollectionINS_11Group50Var1EEE,"awG",@progbits,_ZTIN8opendnp311ICollectionINS_11Group50Var1EEE,comdat
	.align 8
	.type	_ZTIN8opendnp311ICollectionINS_11Group50Var1EEE, @object
	.size	_ZTIN8opendnp311ICollectionINS_11Group50Var1EEE, 16
_ZTIN8opendnp311ICollectionINS_11Group50Var1EEE:
	.quad	_ZTVN10__cxxabiv117__class_type_infoE+16
	.quad	_ZTSN8opendnp311ICollectionINS_11Group50Var1EEE
	.weak	_ZTSN8opendnp318BufferedCollectionINS_11Group50Var1EZNS_11CountParser13InvokeCountOfIS1_EEvRKNS_12HeaderRecordEtRKN7openpal6RSliceERNS_12IAPDUHandlerEEUlRS8_jE_EE
	.section	.rodata._ZTSN8opendnp318BufferedCollectionINS_11Group50Var1EZNS_11CountParser13InvokeCountOfIS1_EEvRKNS_12HeaderRecordEtRKN7openpal6RSliceERNS_12IAPDUHandlerEEUlRS8_jE_EE,"aG",@progbits,_ZTSN8opendnp318BufferedCollectionINS_11Group50Var1EZNS_11CountParser13InvokeCountOfIS1_EEvRKNS_12HeaderRecordEtRKN7openpal6RSliceERNS_12IAPDUHandlerEEUlRS8_jE_EE,comdat
	.align 32
	.type	_ZTSN8opendnp318BufferedCollectionINS_11Group50Var1EZNS_11CountParser13InvokeCountOfIS1_EEvRKNS_12HeaderRecordEtRKN7openpal6RSliceERNS_12IAPDUHandlerEEUlRS8_jE_EE, @object
	.size	_ZTSN8opendnp318BufferedCollectionINS_11Group50Var1EZNS_11CountParser13InvokeCountOfIS1_EEvRKNS_12HeaderRecordEtRKN7openpal6RSliceERNS_12IAPDUHandlerEEUlRS8_jE_EE, 159
_ZTSN8opendnp318BufferedCollectionINS_11Group50Var1EZNS_11CountParser13InvokeCountOfIS1_EEvRKNS_12HeaderRecordEtRKN7openpal6RSliceERNS_12IAPDUHandlerEEUlRS8_jE_EE:
	.string	"N8opendnp318BufferedCollectionINS_11Group50Var1EZNS_11CountParser13InvokeCountOfIS1_EEvRKNS_12HeaderRecordEtRKN7openpal6RSliceERNS_12IAPDUHandlerEEUlRS8_jE_EE"
	.weak	_ZTIN8opendnp318BufferedCollectionINS_11Group50Var1EZNS_11CountParser13InvokeCountOfIS1_EEvRKNS_12HeaderRecordEtRKN7openpal6RSliceERNS_12IAPDUHandlerEEUlRS8_jE_EE
	.section	.data.rel.ro._ZTIN8opendnp318BufferedCollectionINS_11Group50Var1EZNS_11CountParser13InvokeCountOfIS1_EEvRKNS_12HeaderRecordEtRKN7openpal6RSliceERNS_12IAPDUHandlerEEUlRS8_jE_EE,"awG",@progbits,_ZTIN8opendnp318BufferedCollectionINS_11Group50Var1EZNS_11CountParser13InvokeCountOfIS1_EEvRKNS_12HeaderRecordEtRKN7openpal6RSliceERNS_12IAPDUHandlerEEUlRS8_jE_EE,comdat
	.align 8
	.type	_ZTIN8opendnp318BufferedCollectionINS_11Group50Var1EZNS_11CountParser13InvokeCountOfIS1_EEvRKNS_12HeaderRecordEtRKN7openpal6RSliceERNS_12IAPDUHandlerEEUlRS8_jE_EE, @object
	.size	_ZTIN8opendnp318BufferedCollectionINS_11Group50Var1EZNS_11CountParser13InvokeCountOfIS1_EEvRKNS_12HeaderRecordEtRKN7openpal6RSliceERNS_12IAPDUHandlerEEUlRS8_jE_EE, 24
_ZTIN8opendnp318BufferedCollectionINS_11Group50Var1EZNS_11CountParser13InvokeCountOfIS1_EEvRKNS_12HeaderRecordEtRKN7openpal6RSliceERNS_12IAPDUHandlerEEUlRS8_jE_EE:
	.quad	_ZTVN10__cxxabiv120__si_class_type_infoE+16
	.quad	_ZTSN8opendnp318BufferedCollectionINS_11Group50Var1EZNS_11CountParser13InvokeCountOfIS1_EEvRKNS_12HeaderRecordEtRKN7openpal6RSliceERNS_12IAPDUHandlerEEUlRS8_jE_EE
	.quad	_ZTIN8opendnp311ICollectionINS_11Group50Var1EEE
	.weak	_ZTSN8opendnp311ICollectionINS_12Group120Var4EEE
	.section	.rodata._ZTSN8opendnp311ICollectionINS_12Group120Var4EEE,"aG",@progbits,_ZTSN8opendnp311ICollectionINS_12Group120Var4EEE,comdat
	.align 32
	.type	_ZTSN8opendnp311ICollectionINS_12Group120Var4EEE, @object
	.size	_ZTSN8opendnp311ICollectionINS_12Group120Var4EEE, 45
_ZTSN8opendnp311ICollectionINS_12Group120Var4EEE:
	.string	"N8opendnp311ICollectionINS_12Group120Var4EEE"
	.weak	_ZTIN8opendnp311ICollectionINS_12Group120Var4EEE
	.section	.data.rel.ro._ZTIN8opendnp311ICollectionINS_12Group120Var4EEE,"awG",@progbits,_ZTIN8opendnp311ICollectionINS_12Group120Var4EEE,comdat
	.align 8
	.type	_ZTIN8opendnp311ICollectionINS_12Group120Var4EEE, @object
	.size	_ZTIN8opendnp311ICollectionINS_12Group120Var4EEE, 16
_ZTIN8opendnp311ICollectionINS_12Group120Var4EEE:
	.quad	_ZTVN10__cxxabiv117__class_type_infoE+16
	.quad	_ZTSN8opendnp311ICollectionINS_12Group120Var4EEE
	.weak	_ZTSN8opendnp311ICollectionINS_12Group120Var3EEE
	.section	.rodata._ZTSN8opendnp311ICollectionINS_12Group120Var3EEE,"aG",@progbits,_ZTSN8opendnp311ICollectionINS_12Group120Var3EEE,comdat
	.align 32
	.type	_ZTSN8opendnp311ICollectionINS_12Group120Var3EEE, @object
	.size	_ZTSN8opendnp311ICollectionINS_12Group120Var3EEE, 45
_ZTSN8opendnp311ICollectionINS_12Group120Var3EEE:
	.string	"N8opendnp311ICollectionINS_12Group120Var3EEE"
	.weak	_ZTIN8opendnp311ICollectionINS_12Group120Var3EEE
	.section	.data.rel.ro._ZTIN8opendnp311ICollectionINS_12Group120Var3EEE,"awG",@progbits,_ZTIN8opendnp311ICollectionINS_12Group120Var3EEE,comdat
	.align 8
	.type	_ZTIN8opendnp311ICollectionINS_12Group120Var3EEE, @object
	.size	_ZTIN8opendnp311ICollectionINS_12Group120Var3EEE, 16
_ZTIN8opendnp311ICollectionINS_12Group120Var3EEE:
	.quad	_ZTVN10__cxxabiv117__class_type_infoE+16
	.quad	_ZTSN8opendnp311ICollectionINS_12Group120Var3EEE
	.weak	_ZTSN8opendnp311ICollectionINS_11Group52Var2EEE
	.section	.rodata._ZTSN8opendnp311ICollectionINS_11Group52Var2EEE,"aG",@progbits,_ZTSN8opendnp311ICollectionINS_11Group52Var2EEE,comdat
	.align 32
	.type	_ZTSN8opendnp311ICollectionINS_11Group52Var2EEE, @object
	.size	_ZTSN8opendnp311ICollectionINS_11Group52Var2EEE, 44
_ZTSN8opendnp311ICollectionINS_11Group52Var2EEE:
	.string	"N8opendnp311ICollectionINS_11Group52Var2EEE"
	.weak	_ZTIN8opendnp311ICollectionINS_11Group52Var2EEE
	.section	.data.rel.ro._ZTIN8opendnp311ICollectionINS_11Group52Var2EEE,"awG",@progbits,_ZTIN8opendnp311ICollectionINS_11Group52Var2EEE,comdat
	.align 8
	.type	_ZTIN8opendnp311ICollectionINS_11Group52Var2EEE, @object
	.size	_ZTIN8opendnp311ICollectionINS_11Group52Var2EEE, 16
_ZTIN8opendnp311ICollectionINS_11Group52Var2EEE:
	.quad	_ZTVN10__cxxabiv117__class_type_infoE+16
	.quad	_ZTSN8opendnp311ICollectionINS_11Group52Var2EEE
	.weak	_ZTSN8opendnp311ICollectionINS_11Group52Var1EEE
	.section	.rodata._ZTSN8opendnp311ICollectionINS_11Group52Var1EEE,"aG",@progbits,_ZTSN8opendnp311ICollectionINS_11Group52Var1EEE,comdat
	.align 32
	.type	_ZTSN8opendnp311ICollectionINS_11Group52Var1EEE, @object
	.size	_ZTSN8opendnp311ICollectionINS_11Group52Var1EEE, 44
_ZTSN8opendnp311ICollectionINS_11Group52Var1EEE:
	.string	"N8opendnp311ICollectionINS_11Group52Var1EEE"
	.weak	_ZTIN8opendnp311ICollectionINS_11Group52Var1EEE
	.section	.data.rel.ro._ZTIN8opendnp311ICollectionINS_11Group52Var1EEE,"awG",@progbits,_ZTIN8opendnp311ICollectionINS_11Group52Var1EEE,comdat
	.align 8
	.type	_ZTIN8opendnp311ICollectionINS_11Group52Var1EEE, @object
	.size	_ZTIN8opendnp311ICollectionINS_11Group52Var1EEE, 16
_ZTIN8opendnp311ICollectionINS_11Group52Var1EEE:
	.quad	_ZTVN10__cxxabiv117__class_type_infoE+16
	.quad	_ZTSN8opendnp311ICollectionINS_11Group52Var1EEE
	.weak	_ZTSN8opendnp311ICollectionINS_11Group51Var2EEE
	.section	.rodata._ZTSN8opendnp311ICollectionINS_11Group51Var2EEE,"aG",@progbits,_ZTSN8opendnp311ICollectionINS_11Group51Var2EEE,comdat
	.align 32
	.type	_ZTSN8opendnp311ICollectionINS_11Group51Var2EEE, @object
	.size	_ZTSN8opendnp311ICollectionINS_11Group51Var2EEE, 44
_ZTSN8opendnp311ICollectionINS_11Group51Var2EEE:
	.string	"N8opendnp311ICollectionINS_11Group51Var2EEE"
	.weak	_ZTIN8opendnp311ICollectionINS_11Group51Var2EEE
	.section	.data.rel.ro._ZTIN8opendnp311ICollectionINS_11Group51Var2EEE,"awG",@progbits,_ZTIN8opendnp311ICollectionINS_11Group51Var2EEE,comdat
	.align 8
	.type	_ZTIN8opendnp311ICollectionINS_11Group51Var2EEE, @object
	.size	_ZTIN8opendnp311ICollectionINS_11Group51Var2EEE, 16
_ZTIN8opendnp311ICollectionINS_11Group51Var2EEE:
	.quad	_ZTVN10__cxxabiv117__class_type_infoE+16
	.quad	_ZTSN8opendnp311ICollectionINS_11Group51Var2EEE
	.weak	_ZTSN8opendnp311ICollectionINS_11Group51Var1EEE
	.section	.rodata._ZTSN8opendnp311ICollectionINS_11Group51Var1EEE,"aG",@progbits,_ZTSN8opendnp311ICollectionINS_11Group51Var1EEE,comdat
	.align 32
	.type	_ZTSN8opendnp311ICollectionINS_11Group51Var1EEE, @object
	.size	_ZTSN8opendnp311ICollectionINS_11Group51Var1EEE, 44
_ZTSN8opendnp311ICollectionINS_11Group51Var1EEE:
	.string	"N8opendnp311ICollectionINS_11Group51Var1EEE"
	.weak	_ZTIN8opendnp311ICollectionINS_11Group51Var1EEE
	.section	.data.rel.ro._ZTIN8opendnp311ICollectionINS_11Group51Var1EEE,"awG",@progbits,_ZTIN8opendnp311ICollectionINS_11Group51Var1EEE,comdat
	.align 8
	.type	_ZTIN8opendnp311ICollectionINS_11Group51Var1EEE, @object
	.size	_ZTIN8opendnp311ICollectionINS_11Group51Var1EEE, 16
_ZTIN8opendnp311ICollectionINS_11Group51Var1EEE:
	.quad	_ZTVN10__cxxabiv117__class_type_infoE+16
	.quad	_ZTSN8opendnp311ICollectionINS_11Group51Var1EEE
	.weak	_ZTSN8opendnp318BufferedCollectionINS_11Group51Var1EZNS_11CountParser13InvokeCountOfIS1_EEvRKNS_12HeaderRecordEtRKN7openpal6RSliceERNS_12IAPDUHandlerEEUlRS8_jE_EE
	.section	.rodata._ZTSN8opendnp318BufferedCollectionINS_11Group51Var1EZNS_11CountParser13InvokeCountOfIS1_EEvRKNS_12HeaderRecordEtRKN7openpal6RSliceERNS_12IAPDUHandlerEEUlRS8_jE_EE,"aG",@progbits,_ZTSN8opendnp318BufferedCollectionINS_11Group51Var1EZNS_11CountParser13InvokeCountOfIS1_EEvRKNS_12HeaderRecordEtRKN7openpal6RSliceERNS_12IAPDUHandlerEEUlRS8_jE_EE,comdat
	.align 32
	.type	_ZTSN8opendnp318BufferedCollectionINS_11Group51Var1EZNS_11CountParser13InvokeCountOfIS1_EEvRKNS_12HeaderRecordEtRKN7openpal6RSliceERNS_12IAPDUHandlerEEUlRS8_jE_EE, @object
	.size	_ZTSN8opendnp318BufferedCollectionINS_11Group51Var1EZNS_11CountParser13InvokeCountOfIS1_EEvRKNS_12HeaderRecordEtRKN7openpal6RSliceERNS_12IAPDUHandlerEEUlRS8_jE_EE, 159
_ZTSN8opendnp318BufferedCollectionINS_11Group51Var1EZNS_11CountParser13InvokeCountOfIS1_EEvRKNS_12HeaderRecordEtRKN7openpal6RSliceERNS_12IAPDUHandlerEEUlRS8_jE_EE:
	.string	"N8opendnp318BufferedCollectionINS_11Group51Var1EZNS_11CountParser13InvokeCountOfIS1_EEvRKNS_12HeaderRecordEtRKN7openpal6RSliceERNS_12IAPDUHandlerEEUlRS8_jE_EE"
	.weak	_ZTIN8opendnp318BufferedCollectionINS_11Group51Var1EZNS_11CountParser13InvokeCountOfIS1_EEvRKNS_12HeaderRecordEtRKN7openpal6RSliceERNS_12IAPDUHandlerEEUlRS8_jE_EE
	.section	.data.rel.ro._ZTIN8opendnp318BufferedCollectionINS_11Group51Var1EZNS_11CountParser13InvokeCountOfIS1_EEvRKNS_12HeaderRecordEtRKN7openpal6RSliceERNS_12IAPDUHandlerEEUlRS8_jE_EE,"awG",@progbits,_ZTIN8opendnp318BufferedCollectionINS_11Group51Var1EZNS_11CountParser13InvokeCountOfIS1_EEvRKNS_12HeaderRecordEtRKN7openpal6RSliceERNS_12IAPDUHandlerEEUlRS8_jE_EE,comdat
	.align 8
	.type	_ZTIN8opendnp318BufferedCollectionINS_11Group51Var1EZNS_11CountParser13InvokeCountOfIS1_EEvRKNS_12HeaderRecordEtRKN7openpal6RSliceERNS_12IAPDUHandlerEEUlRS8_jE_EE, @object
	.size	_ZTIN8opendnp318BufferedCollectionINS_11Group51Var1EZNS_11CountParser13InvokeCountOfIS1_EEvRKNS_12HeaderRecordEtRKN7openpal6RSliceERNS_12IAPDUHandlerEEUlRS8_jE_EE, 24
_ZTIN8opendnp318BufferedCollectionINS_11Group51Var1EZNS_11CountParser13InvokeCountOfIS1_EEvRKNS_12HeaderRecordEtRKN7openpal6RSliceERNS_12IAPDUHandlerEEUlRS8_jE_EE:
	.quad	_ZTVN10__cxxabiv120__si_class_type_infoE+16
	.quad	_ZTSN8opendnp318BufferedCollectionINS_11Group51Var1EZNS_11CountParser13InvokeCountOfIS1_EEvRKNS_12HeaderRecordEtRKN7openpal6RSliceERNS_12IAPDUHandlerEEUlRS8_jE_EE
	.quad	_ZTIN8opendnp311ICollectionINS_11Group51Var1EEE
	.weak	_ZTSN8opendnp318BufferedCollectionINS_11Group51Var2EZNS_11CountParser13InvokeCountOfIS1_EEvRKNS_12HeaderRecordEtRKN7openpal6RSliceERNS_12IAPDUHandlerEEUlRS8_jE_EE
	.section	.rodata._ZTSN8opendnp318BufferedCollectionINS_11Group51Var2EZNS_11CountParser13InvokeCountOfIS1_EEvRKNS_12HeaderRecordEtRKN7openpal6RSliceERNS_12IAPDUHandlerEEUlRS8_jE_EE,"aG",@progbits,_ZTSN8opendnp318BufferedCollectionINS_11Group51Var2EZNS_11CountParser13InvokeCountOfIS1_EEvRKNS_12HeaderRecordEtRKN7openpal6RSliceERNS_12IAPDUHandlerEEUlRS8_jE_EE,comdat
	.align 32
	.type	_ZTSN8opendnp318BufferedCollectionINS_11Group51Var2EZNS_11CountParser13InvokeCountOfIS1_EEvRKNS_12HeaderRecordEtRKN7openpal6RSliceERNS_12IAPDUHandlerEEUlRS8_jE_EE, @object
	.size	_ZTSN8opendnp318BufferedCollectionINS_11Group51Var2EZNS_11CountParser13InvokeCountOfIS1_EEvRKNS_12HeaderRecordEtRKN7openpal6RSliceERNS_12IAPDUHandlerEEUlRS8_jE_EE, 159
_ZTSN8opendnp318BufferedCollectionINS_11Group51Var2EZNS_11CountParser13InvokeCountOfIS1_EEvRKNS_12HeaderRecordEtRKN7openpal6RSliceERNS_12IAPDUHandlerEEUlRS8_jE_EE:
	.string	"N8opendnp318BufferedCollectionINS_11Group51Var2EZNS_11CountParser13InvokeCountOfIS1_EEvRKNS_12HeaderRecordEtRKN7openpal6RSliceERNS_12IAPDUHandlerEEUlRS8_jE_EE"
	.weak	_ZTIN8opendnp318BufferedCollectionINS_11Group51Var2EZNS_11CountParser13InvokeCountOfIS1_EEvRKNS_12HeaderRecordEtRKN7openpal6RSliceERNS_12IAPDUHandlerEEUlRS8_jE_EE
	.section	.data.rel.ro._ZTIN8opendnp318BufferedCollectionINS_11Group51Var2EZNS_11CountParser13InvokeCountOfIS1_EEvRKNS_12HeaderRecordEtRKN7openpal6RSliceERNS_12IAPDUHandlerEEUlRS8_jE_EE,"awG",@progbits,_ZTIN8opendnp318BufferedCollectionINS_11Group51Var2EZNS_11CountParser13InvokeCountOfIS1_EEvRKNS_12HeaderRecordEtRKN7openpal6RSliceERNS_12IAPDUHandlerEEUlRS8_jE_EE,comdat
	.align 8
	.type	_ZTIN8opendnp318BufferedCollectionINS_11Group51Var2EZNS_11CountParser13InvokeCountOfIS1_EEvRKNS_12HeaderRecordEtRKN7openpal6RSliceERNS_12IAPDUHandlerEEUlRS8_jE_EE, @object
	.size	_ZTIN8opendnp318BufferedCollectionINS_11Group51Var2EZNS_11CountParser13InvokeCountOfIS1_EEvRKNS_12HeaderRecordEtRKN7openpal6RSliceERNS_12IAPDUHandlerEEUlRS8_jE_EE, 24
_ZTIN8opendnp318BufferedCollectionINS_11Group51Var2EZNS_11CountParser13InvokeCountOfIS1_EEvRKNS_12HeaderRecordEtRKN7openpal6RSliceERNS_12IAPDUHandlerEEUlRS8_jE_EE:
	.quad	_ZTVN10__cxxabiv120__si_class_type_infoE+16
	.quad	_ZTSN8opendnp318BufferedCollectionINS_11Group51Var2EZNS_11CountParser13InvokeCountOfIS1_EEvRKNS_12HeaderRecordEtRKN7openpal6RSliceERNS_12IAPDUHandlerEEUlRS8_jE_EE
	.quad	_ZTIN8opendnp311ICollectionINS_11Group51Var2EEE
	.weak	_ZTSN8opendnp318BufferedCollectionINS_11Group52Var1EZNS_11CountParser13InvokeCountOfIS1_EEvRKNS_12HeaderRecordEtRKN7openpal6RSliceERNS_12IAPDUHandlerEEUlRS8_jE_EE
	.section	.rodata._ZTSN8opendnp318BufferedCollectionINS_11Group52Var1EZNS_11CountParser13InvokeCountOfIS1_EEvRKNS_12HeaderRecordEtRKN7openpal6RSliceERNS_12IAPDUHandlerEEUlRS8_jE_EE,"aG",@progbits,_ZTSN8opendnp318BufferedCollectionINS_11Group52Var1EZNS_11CountParser13InvokeCountOfIS1_EEvRKNS_12HeaderRecordEtRKN7openpal6RSliceERNS_12IAPDUHandlerEEUlRS8_jE_EE,comdat
	.align 32
	.type	_ZTSN8opendnp318BufferedCollectionINS_11Group52Var1EZNS_11CountParser13InvokeCountOfIS1_EEvRKNS_12HeaderRecordEtRKN7openpal6RSliceERNS_12IAPDUHandlerEEUlRS8_jE_EE, @object
	.size	_ZTSN8opendnp318BufferedCollectionINS_11Group52Var1EZNS_11CountParser13InvokeCountOfIS1_EEvRKNS_12HeaderRecordEtRKN7openpal6RSliceERNS_12IAPDUHandlerEEUlRS8_jE_EE, 159
_ZTSN8opendnp318BufferedCollectionINS_11Group52Var1EZNS_11CountParser13InvokeCountOfIS1_EEvRKNS_12HeaderRecordEtRKN7openpal6RSliceERNS_12IAPDUHandlerEEUlRS8_jE_EE:
	.string	"N8opendnp318BufferedCollectionINS_11Group52Var1EZNS_11CountParser13InvokeCountOfIS1_EEvRKNS_12HeaderRecordEtRKN7openpal6RSliceERNS_12IAPDUHandlerEEUlRS8_jE_EE"
	.weak	_ZTIN8opendnp318BufferedCollectionINS_11Group52Var1EZNS_11CountParser13InvokeCountOfIS1_EEvRKNS_12HeaderRecordEtRKN7openpal6RSliceERNS_12IAPDUHandlerEEUlRS8_jE_EE
	.section	.data.rel.ro._ZTIN8opendnp318BufferedCollectionINS_11Group52Var1EZNS_11CountParser13InvokeCountOfIS1_EEvRKNS_12HeaderRecordEtRKN7openpal6RSliceERNS_12IAPDUHandlerEEUlRS8_jE_EE,"awG",@progbits,_ZTIN8opendnp318BufferedCollectionINS_11Group52Var1EZNS_11CountParser13InvokeCountOfIS1_EEvRKNS_12HeaderRecordEtRKN7openpal6RSliceERNS_12IAPDUHandlerEEUlRS8_jE_EE,comdat
	.align 8
	.type	_ZTIN8opendnp318BufferedCollectionINS_11Group52Var1EZNS_11CountParser13InvokeCountOfIS1_EEvRKNS_12HeaderRecordEtRKN7openpal6RSliceERNS_12IAPDUHandlerEEUlRS8_jE_EE, @object
	.size	_ZTIN8opendnp318BufferedCollectionINS_11Group52Var1EZNS_11CountParser13InvokeCountOfIS1_EEvRKNS_12HeaderRecordEtRKN7openpal6RSliceERNS_12IAPDUHandlerEEUlRS8_jE_EE, 24
_ZTIN8opendnp318BufferedCollectionINS_11Group52Var1EZNS_11CountParser13InvokeCountOfIS1_EEvRKNS_12HeaderRecordEtRKN7openpal6RSliceERNS_12IAPDUHandlerEEUlRS8_jE_EE:
	.quad	_ZTVN10__cxxabiv120__si_class_type_infoE+16
	.quad	_ZTSN8opendnp318BufferedCollectionINS_11Group52Var1EZNS_11CountParser13InvokeCountOfIS1_EEvRKNS_12HeaderRecordEtRKN7openpal6RSliceERNS_12IAPDUHandlerEEUlRS8_jE_EE
	.quad	_ZTIN8opendnp311ICollectionINS_11Group52Var1EEE
	.weak	_ZTSN8opendnp318BufferedCollectionINS_11Group52Var2EZNS_11CountParser13InvokeCountOfIS1_EEvRKNS_12HeaderRecordEtRKN7openpal6RSliceERNS_12IAPDUHandlerEEUlRS8_jE_EE
	.section	.rodata._ZTSN8opendnp318BufferedCollectionINS_11Group52Var2EZNS_11CountParser13InvokeCountOfIS1_EEvRKNS_12HeaderRecordEtRKN7openpal6RSliceERNS_12IAPDUHandlerEEUlRS8_jE_EE,"aG",@progbits,_ZTSN8opendnp318BufferedCollectionINS_11Group52Var2EZNS_11CountParser13InvokeCountOfIS1_EEvRKNS_12HeaderRecordEtRKN7openpal6RSliceERNS_12IAPDUHandlerEEUlRS8_jE_EE,comdat
	.align 32
	.type	_ZTSN8opendnp318BufferedCollectionINS_11Group52Var2EZNS_11CountParser13InvokeCountOfIS1_EEvRKNS_12HeaderRecordEtRKN7openpal6RSliceERNS_12IAPDUHandlerEEUlRS8_jE_EE, @object
	.size	_ZTSN8opendnp318BufferedCollectionINS_11Group52Var2EZNS_11CountParser13InvokeCountOfIS1_EEvRKNS_12HeaderRecordEtRKN7openpal6RSliceERNS_12IAPDUHandlerEEUlRS8_jE_EE, 159
_ZTSN8opendnp318BufferedCollectionINS_11Group52Var2EZNS_11CountParser13InvokeCountOfIS1_EEvRKNS_12HeaderRecordEtRKN7openpal6RSliceERNS_12IAPDUHandlerEEUlRS8_jE_EE:
	.string	"N8opendnp318BufferedCollectionINS_11Group52Var2EZNS_11CountParser13InvokeCountOfIS1_EEvRKNS_12HeaderRecordEtRKN7openpal6RSliceERNS_12IAPDUHandlerEEUlRS8_jE_EE"
	.weak	_ZTIN8opendnp318BufferedCollectionINS_11Group52Var2EZNS_11CountParser13InvokeCountOfIS1_EEvRKNS_12HeaderRecordEtRKN7openpal6RSliceERNS_12IAPDUHandlerEEUlRS8_jE_EE
	.section	.data.rel.ro._ZTIN8opendnp318BufferedCollectionINS_11Group52Var2EZNS_11CountParser13InvokeCountOfIS1_EEvRKNS_12HeaderRecordEtRKN7openpal6RSliceERNS_12IAPDUHandlerEEUlRS8_jE_EE,"awG",@progbits,_ZTIN8opendnp318BufferedCollectionINS_11Group52Var2EZNS_11CountParser13InvokeCountOfIS1_EEvRKNS_12HeaderRecordEtRKN7openpal6RSliceERNS_12IAPDUHandlerEEUlRS8_jE_EE,comdat
	.align 8
	.type	_ZTIN8opendnp318BufferedCollectionINS_11Group52Var2EZNS_11CountParser13InvokeCountOfIS1_EEvRKNS_12HeaderRecordEtRKN7openpal6RSliceERNS_12IAPDUHandlerEEUlRS8_jE_EE, @object
	.size	_ZTIN8opendnp318BufferedCollectionINS_11Group52Var2EZNS_11CountParser13InvokeCountOfIS1_EEvRKNS_12HeaderRecordEtRKN7openpal6RSliceERNS_12IAPDUHandlerEEUlRS8_jE_EE, 24
_ZTIN8opendnp318BufferedCollectionINS_11Group52Var2EZNS_11CountParser13InvokeCountOfIS1_EEvRKNS_12HeaderRecordEtRKN7openpal6RSliceERNS_12IAPDUHandlerEEUlRS8_jE_EE:
	.quad	_ZTVN10__cxxabiv120__si_class_type_infoE+16
	.quad	_ZTSN8opendnp318BufferedCollectionINS_11Group52Var2EZNS_11CountParser13InvokeCountOfIS1_EEvRKNS_12HeaderRecordEtRKN7openpal6RSliceERNS_12IAPDUHandlerEEUlRS8_jE_EE
	.quad	_ZTIN8opendnp311ICollectionINS_11Group52Var2EEE
	.weak	_ZTSN8opendnp318BufferedCollectionINS_12Group120Var3EZNS_11CountParser13InvokeCountOfIS1_EEvRKNS_12HeaderRecordEtRKN7openpal6RSliceERNS_12IAPDUHandlerEEUlRS8_jE_EE
	.section	.rodata._ZTSN8opendnp318BufferedCollectionINS_12Group120Var3EZNS_11CountParser13InvokeCountOfIS1_EEvRKNS_12HeaderRecordEtRKN7openpal6RSliceERNS_12IAPDUHandlerEEUlRS8_jE_EE,"aG",@progbits,_ZTSN8opendnp318BufferedCollectionINS_12Group120Var3EZNS_11CountParser13InvokeCountOfIS1_EEvRKNS_12HeaderRecordEtRKN7openpal6RSliceERNS_12IAPDUHandlerEEUlRS8_jE_EE,comdat
	.align 32
	.type	_ZTSN8opendnp318BufferedCollectionINS_12Group120Var3EZNS_11CountParser13InvokeCountOfIS1_EEvRKNS_12HeaderRecordEtRKN7openpal6RSliceERNS_12IAPDUHandlerEEUlRS8_jE_EE, @object
	.size	_ZTSN8opendnp318BufferedCollectionINS_12Group120Var3EZNS_11CountParser13InvokeCountOfIS1_EEvRKNS_12HeaderRecordEtRKN7openpal6RSliceERNS_12IAPDUHandlerEEUlRS8_jE_EE, 160
_ZTSN8opendnp318BufferedCollectionINS_12Group120Var3EZNS_11CountParser13InvokeCountOfIS1_EEvRKNS_12HeaderRecordEtRKN7openpal6RSliceERNS_12IAPDUHandlerEEUlRS8_jE_EE:
	.string	"N8opendnp318BufferedCollectionINS_12Group120Var3EZNS_11CountParser13InvokeCountOfIS1_EEvRKNS_12HeaderRecordEtRKN7openpal6RSliceERNS_12IAPDUHandlerEEUlRS8_jE_EE"
	.weak	_ZTIN8opendnp318BufferedCollectionINS_12Group120Var3EZNS_11CountParser13InvokeCountOfIS1_EEvRKNS_12HeaderRecordEtRKN7openpal6RSliceERNS_12IAPDUHandlerEEUlRS8_jE_EE
	.section	.data.rel.ro._ZTIN8opendnp318BufferedCollectionINS_12Group120Var3EZNS_11CountParser13InvokeCountOfIS1_EEvRKNS_12HeaderRecordEtRKN7openpal6RSliceERNS_12IAPDUHandlerEEUlRS8_jE_EE,"awG",@progbits,_ZTIN8opendnp318BufferedCollectionINS_12Group120Var3EZNS_11CountParser13InvokeCountOfIS1_EEvRKNS_12HeaderRecordEtRKN7openpal6RSliceERNS_12IAPDUHandlerEEUlRS8_jE_EE,comdat
	.align 8
	.type	_ZTIN8opendnp318BufferedCollectionINS_12Group120Var3EZNS_11CountParser13InvokeCountOfIS1_EEvRKNS_12HeaderRecordEtRKN7openpal6RSliceERNS_12IAPDUHandlerEEUlRS8_jE_EE, @object
	.size	_ZTIN8opendnp318BufferedCollectionINS_12Group120Var3EZNS_11CountParser13InvokeCountOfIS1_EEvRKNS_12HeaderRecordEtRKN7openpal6RSliceERNS_12IAPDUHandlerEEUlRS8_jE_EE, 24
_ZTIN8opendnp318BufferedCollectionINS_12Group120Var3EZNS_11CountParser13InvokeCountOfIS1_EEvRKNS_12HeaderRecordEtRKN7openpal6RSliceERNS_12IAPDUHandlerEEUlRS8_jE_EE:
	.quad	_ZTVN10__cxxabiv120__si_class_type_infoE+16
	.quad	_ZTSN8opendnp318BufferedCollectionINS_12Group120Var3EZNS_11CountParser13InvokeCountOfIS1_EEvRKNS_12HeaderRecordEtRKN7openpal6RSliceERNS_12IAPDUHandlerEEUlRS8_jE_EE
	.quad	_ZTIN8opendnp311ICollectionINS_12Group120Var3EEE
	.weak	_ZTSN8opendnp318BufferedCollectionINS_12Group120Var4EZNS_11CountParser13InvokeCountOfIS1_EEvRKNS_12HeaderRecordEtRKN7openpal6RSliceERNS_12IAPDUHandlerEEUlRS8_jE_EE
	.section	.rodata._ZTSN8opendnp318BufferedCollectionINS_12Group120Var4EZNS_11CountParser13InvokeCountOfIS1_EEvRKNS_12HeaderRecordEtRKN7openpal6RSliceERNS_12IAPDUHandlerEEUlRS8_jE_EE,"aG",@progbits,_ZTSN8opendnp318BufferedCollectionINS_12Group120Var4EZNS_11CountParser13InvokeCountOfIS1_EEvRKNS_12HeaderRecordEtRKN7openpal6RSliceERNS_12IAPDUHandlerEEUlRS8_jE_EE,comdat
	.align 32
	.type	_ZTSN8opendnp318BufferedCollectionINS_12Group120Var4EZNS_11CountParser13InvokeCountOfIS1_EEvRKNS_12HeaderRecordEtRKN7openpal6RSliceERNS_12IAPDUHandlerEEUlRS8_jE_EE, @object
	.size	_ZTSN8opendnp318BufferedCollectionINS_12Group120Var4EZNS_11CountParser13InvokeCountOfIS1_EEvRKNS_12HeaderRecordEtRKN7openpal6RSliceERNS_12IAPDUHandlerEEUlRS8_jE_EE, 160
_ZTSN8opendnp318BufferedCollectionINS_12Group120Var4EZNS_11CountParser13InvokeCountOfIS1_EEvRKNS_12HeaderRecordEtRKN7openpal6RSliceERNS_12IAPDUHandlerEEUlRS8_jE_EE:
	.string	"N8opendnp318BufferedCollectionINS_12Group120Var4EZNS_11CountParser13InvokeCountOfIS1_EEvRKNS_12HeaderRecordEtRKN7openpal6RSliceERNS_12IAPDUHandlerEEUlRS8_jE_EE"
	.weak	_ZTIN8opendnp318BufferedCollectionINS_12Group120Var4EZNS_11CountParser13InvokeCountOfIS1_EEvRKNS_12HeaderRecordEtRKN7openpal6RSliceERNS_12IAPDUHandlerEEUlRS8_jE_EE
	.section	.data.rel.ro._ZTIN8opendnp318BufferedCollectionINS_12Group120Var4EZNS_11CountParser13InvokeCountOfIS1_EEvRKNS_12HeaderRecordEtRKN7openpal6RSliceERNS_12IAPDUHandlerEEUlRS8_jE_EE,"awG",@progbits,_ZTIN8opendnp318BufferedCollectionINS_12Group120Var4EZNS_11CountParser13InvokeCountOfIS1_EEvRKNS_12HeaderRecordEtRKN7openpal6RSliceERNS_12IAPDUHandlerEEUlRS8_jE_EE,comdat
	.align 8
	.type	_ZTIN8opendnp318BufferedCollectionINS_12Group120Var4EZNS_11CountParser13InvokeCountOfIS1_EEvRKNS_12HeaderRecordEtRKN7openpal6RSliceERNS_12IAPDUHandlerEEUlRS8_jE_EE, @object
	.size	_ZTIN8opendnp318BufferedCollectionINS_12Group120Var4EZNS_11CountParser13InvokeCountOfIS1_EEvRKNS_12HeaderRecordEtRKN7openpal6RSliceERNS_12IAPDUHandlerEEUlRS8_jE_EE, 24
_ZTIN8opendnp318BufferedCollectionINS_12Group120Var4EZNS_11CountParser13InvokeCountOfIS1_EEvRKNS_12HeaderRecordEtRKN7openpal6RSliceERNS_12IAPDUHandlerEEUlRS8_jE_EE:
	.quad	_ZTVN10__cxxabiv120__si_class_type_infoE+16
	.quad	_ZTSN8opendnp318BufferedCollectionINS_12Group120Var4EZNS_11CountParser13InvokeCountOfIS1_EEvRKNS_12HeaderRecordEtRKN7openpal6RSliceERNS_12IAPDUHandlerEEUlRS8_jE_EE
	.quad	_ZTIN8opendnp311ICollectionINS_12Group120Var4EEE
	.weak	_ZTVN8opendnp318BufferedCollectionINS_11Group50Var1EZNS_11CountParser13InvokeCountOfIS1_EEvRKNS_12HeaderRecordEtRKN7openpal6RSliceERNS_12IAPDUHandlerEEUlRS8_jE_EE
	.section	.data.rel.ro._ZTVN8opendnp318BufferedCollectionINS_11Group50Var1EZNS_11CountParser13InvokeCountOfIS1_EEvRKNS_12HeaderRecordEtRKN7openpal6RSliceERNS_12IAPDUHandlerEEUlRS8_jE_EE,"awG",@progbits,_ZTVN8opendnp318BufferedCollectionINS_11Group50Var1EZNS_11CountParser13InvokeCountOfIS1_EEvRKNS_12HeaderRecordEtRKN7openpal6RSliceERNS_12IAPDUHandlerEEUlRS8_jE_EE,comdat
	.align 8
	.type	_ZTVN8opendnp318BufferedCollectionINS_11Group50Var1EZNS_11CountParser13InvokeCountOfIS1_EEvRKNS_12HeaderRecordEtRKN7openpal6RSliceERNS_12IAPDUHandlerEEUlRS8_jE_EE, @object
	.size	_ZTVN8opendnp318BufferedCollectionINS_11Group50Var1EZNS_11CountParser13InvokeCountOfIS1_EEvRKNS_12HeaderRecordEtRKN7openpal6RSliceERNS_12IAPDUHandlerEEUlRS8_jE_EE, 32
_ZTVN8opendnp318BufferedCollectionINS_11Group50Var1EZNS_11CountParser13InvokeCountOfIS1_EEvRKNS_12HeaderRecordEtRKN7openpal6RSliceERNS_12IAPDUHandlerEEUlRS8_jE_EE:
	.quad	0
	.quad	_ZTIN8opendnp318BufferedCollectionINS_11Group50Var1EZNS_11CountParser13InvokeCountOfIS1_EEvRKNS_12HeaderRecordEtRKN7openpal6RSliceERNS_12IAPDUHandlerEEUlRS8_jE_EE
	.quad	_ZNK8opendnp318BufferedCollectionINS_11Group50Var1EZNS_11CountParser13InvokeCountOfIS1_EEvRKNS_12HeaderRecordEtRKN7openpal6RSliceERNS_12IAPDUHandlerEEUlRS8_jE_E5CountEv
	.quad	_ZNK8opendnp318BufferedCollectionINS_11Group50Var1EZNS_11CountParser13InvokeCountOfIS1_EEvRKNS_12HeaderRecordEtRKN7openpal6RSliceERNS_12IAPDUHandlerEEUlRS8_jE_E7ForeachERNS_8IVisitorIS1_EE
	.weak	_ZTVN8opendnp318BufferedCollectionINS_11Group51Var1EZNS_11CountParser13InvokeCountOfIS1_EEvRKNS_12HeaderRecordEtRKN7openpal6RSliceERNS_12IAPDUHandlerEEUlRS8_jE_EE
	.section	.data.rel.ro._ZTVN8opendnp318BufferedCollectionINS_11Group51Var1EZNS_11CountParser13InvokeCountOfIS1_EEvRKNS_12HeaderRecordEtRKN7openpal6RSliceERNS_12IAPDUHandlerEEUlRS8_jE_EE,"awG",@progbits,_ZTVN8opendnp318BufferedCollectionINS_11Group51Var1EZNS_11CountParser13InvokeCountOfIS1_EEvRKNS_12HeaderRecordEtRKN7openpal6RSliceERNS_12IAPDUHandlerEEUlRS8_jE_EE,comdat
	.align 8
	.type	_ZTVN8opendnp318BufferedCollectionINS_11Group51Var1EZNS_11CountParser13InvokeCountOfIS1_EEvRKNS_12HeaderRecordEtRKN7openpal6RSliceERNS_12IAPDUHandlerEEUlRS8_jE_EE, @object
	.size	_ZTVN8opendnp318BufferedCollectionINS_11Group51Var1EZNS_11CountParser13InvokeCountOfIS1_EEvRKNS_12HeaderRecordEtRKN7openpal6RSliceERNS_12IAPDUHandlerEEUlRS8_jE_EE, 32
_ZTVN8opendnp318BufferedCollectionINS_11Group51Var1EZNS_11CountParser13InvokeCountOfIS1_EEvRKNS_12HeaderRecordEtRKN7openpal6RSliceERNS_12IAPDUHandlerEEUlRS8_jE_EE:
	.quad	0
	.quad	_ZTIN8opendnp318BufferedCollectionINS_11Group51Var1EZNS_11CountParser13InvokeCountOfIS1_EEvRKNS_12HeaderRecordEtRKN7openpal6RSliceERNS_12IAPDUHandlerEEUlRS8_jE_EE
	.quad	_ZNK8opendnp318BufferedCollectionINS_11Group51Var1EZNS_11CountParser13InvokeCountOfIS1_EEvRKNS_12HeaderRecordEtRKN7openpal6RSliceERNS_12IAPDUHandlerEEUlRS8_jE_E5CountEv
	.quad	_ZNK8opendnp318BufferedCollectionINS_11Group51Var1EZNS_11CountParser13InvokeCountOfIS1_EEvRKNS_12HeaderRecordEtRKN7openpal6RSliceERNS_12IAPDUHandlerEEUlRS8_jE_E7ForeachERNS_8IVisitorIS1_EE
	.weak	_ZTVN8opendnp318BufferedCollectionINS_11Group51Var2EZNS_11CountParser13InvokeCountOfIS1_EEvRKNS_12HeaderRecordEtRKN7openpal6RSliceERNS_12IAPDUHandlerEEUlRS8_jE_EE
	.section	.data.rel.ro._ZTVN8opendnp318BufferedCollectionINS_11Group51Var2EZNS_11CountParser13InvokeCountOfIS1_EEvRKNS_12HeaderRecordEtRKN7openpal6RSliceERNS_12IAPDUHandlerEEUlRS8_jE_EE,"awG",@progbits,_ZTVN8opendnp318BufferedCollectionINS_11Group51Var2EZNS_11CountParser13InvokeCountOfIS1_EEvRKNS_12HeaderRecordEtRKN7openpal6RSliceERNS_12IAPDUHandlerEEUlRS8_jE_EE,comdat
	.align 8
	.type	_ZTVN8opendnp318BufferedCollectionINS_11Group51Var2EZNS_11CountParser13InvokeCountOfIS1_EEvRKNS_12HeaderRecordEtRKN7openpal6RSliceERNS_12IAPDUHandlerEEUlRS8_jE_EE, @object
	.size	_ZTVN8opendnp318BufferedCollectionINS_11Group51Var2EZNS_11CountParser13InvokeCountOfIS1_EEvRKNS_12HeaderRecordEtRKN7openpal6RSliceERNS_12IAPDUHandlerEEUlRS8_jE_EE, 32
_ZTVN8opendnp318BufferedCollectionINS_11Group51Var2EZNS_11CountParser13InvokeCountOfIS1_EEvRKNS_12HeaderRecordEtRKN7openpal6RSliceERNS_12IAPDUHandlerEEUlRS8_jE_EE:
	.quad	0
	.quad	_ZTIN8opendnp318BufferedCollectionINS_11Group51Var2EZNS_11CountParser13InvokeCountOfIS1_EEvRKNS_12HeaderRecordEtRKN7openpal6RSliceERNS_12IAPDUHandlerEEUlRS8_jE_EE
	.quad	_ZNK8opendnp318BufferedCollectionINS_11Group51Var2EZNS_11CountParser13InvokeCountOfIS1_EEvRKNS_12HeaderRecordEtRKN7openpal6RSliceERNS_12IAPDUHandlerEEUlRS8_jE_E5CountEv
	.quad	_ZNK8opendnp318BufferedCollectionINS_11Group51Var2EZNS_11CountParser13InvokeCountOfIS1_EEvRKNS_12HeaderRecordEtRKN7openpal6RSliceERNS_12IAPDUHandlerEEUlRS8_jE_E7ForeachERNS_8IVisitorIS1_EE
	.weak	_ZTVN8opendnp318BufferedCollectionINS_11Group52Var1EZNS_11CountParser13InvokeCountOfIS1_EEvRKNS_12HeaderRecordEtRKN7openpal6RSliceERNS_12IAPDUHandlerEEUlRS8_jE_EE
	.section	.data.rel.ro._ZTVN8opendnp318BufferedCollectionINS_11Group52Var1EZNS_11CountParser13InvokeCountOfIS1_EEvRKNS_12HeaderRecordEtRKN7openpal6RSliceERNS_12IAPDUHandlerEEUlRS8_jE_EE,"awG",@progbits,_ZTVN8opendnp318BufferedCollectionINS_11Group52Var1EZNS_11CountParser13InvokeCountOfIS1_EEvRKNS_12HeaderRecordEtRKN7openpal6RSliceERNS_12IAPDUHandlerEEUlRS8_jE_EE,comdat
	.align 8
	.type	_ZTVN8opendnp318BufferedCollectionINS_11Group52Var1EZNS_11CountParser13InvokeCountOfIS1_EEvRKNS_12HeaderRecordEtRKN7openpal6RSliceERNS_12IAPDUHandlerEEUlRS8_jE_EE, @object
	.size	_ZTVN8opendnp318BufferedCollectionINS_11Group52Var1EZNS_11CountParser13InvokeCountOfIS1_EEvRKNS_12HeaderRecordEtRKN7openpal6RSliceERNS_12IAPDUHandlerEEUlRS8_jE_EE, 32
_ZTVN8opendnp318BufferedCollectionINS_11Group52Var1EZNS_11CountParser13InvokeCountOfIS1_EEvRKNS_12HeaderRecordEtRKN7openpal6RSliceERNS_12IAPDUHandlerEEUlRS8_jE_EE:
	.quad	0
	.quad	_ZTIN8opendnp318BufferedCollectionINS_11Group52Var1EZNS_11CountParser13InvokeCountOfIS1_EEvRKNS_12HeaderRecordEtRKN7openpal6RSliceERNS_12IAPDUHandlerEEUlRS8_jE_EE
	.quad	_ZNK8opendnp318BufferedCollectionINS_11Group52Var1EZNS_11CountParser13InvokeCountOfIS1_EEvRKNS_12HeaderRecordEtRKN7openpal6RSliceERNS_12IAPDUHandlerEEUlRS8_jE_E5CountEv
	.quad	_ZNK8opendnp318BufferedCollectionINS_11Group52Var1EZNS_11CountParser13InvokeCountOfIS1_EEvRKNS_12HeaderRecordEtRKN7openpal6RSliceERNS_12IAPDUHandlerEEUlRS8_jE_E7ForeachERNS_8IVisitorIS1_EE
	.weak	_ZTVN8opendnp318BufferedCollectionINS_11Group52Var2EZNS_11CountParser13InvokeCountOfIS1_EEvRKNS_12HeaderRecordEtRKN7openpal6RSliceERNS_12IAPDUHandlerEEUlRS8_jE_EE
	.section	.data.rel.ro._ZTVN8opendnp318BufferedCollectionINS_11Group52Var2EZNS_11CountParser13InvokeCountOfIS1_EEvRKNS_12HeaderRecordEtRKN7openpal6RSliceERNS_12IAPDUHandlerEEUlRS8_jE_EE,"awG",@progbits,_ZTVN8opendnp318BufferedCollectionINS_11Group52Var2EZNS_11CountParser13InvokeCountOfIS1_EEvRKNS_12HeaderRecordEtRKN7openpal6RSliceERNS_12IAPDUHandlerEEUlRS8_jE_EE,comdat
	.align 8
	.type	_ZTVN8opendnp318BufferedCollectionINS_11Group52Var2EZNS_11CountParser13InvokeCountOfIS1_EEvRKNS_12HeaderRecordEtRKN7openpal6RSliceERNS_12IAPDUHandlerEEUlRS8_jE_EE, @object
	.size	_ZTVN8opendnp318BufferedCollectionINS_11Group52Var2EZNS_11CountParser13InvokeCountOfIS1_EEvRKNS_12HeaderRecordEtRKN7openpal6RSliceERNS_12IAPDUHandlerEEUlRS8_jE_EE, 32
_ZTVN8opendnp318BufferedCollectionINS_11Group52Var2EZNS_11CountParser13InvokeCountOfIS1_EEvRKNS_12HeaderRecordEtRKN7openpal6RSliceERNS_12IAPDUHandlerEEUlRS8_jE_EE:
	.quad	0
	.quad	_ZTIN8opendnp318BufferedCollectionINS_11Group52Var2EZNS_11CountParser13InvokeCountOfIS1_EEvRKNS_12HeaderRecordEtRKN7openpal6RSliceERNS_12IAPDUHandlerEEUlRS8_jE_EE
	.quad	_ZNK8opendnp318BufferedCollectionINS_11Group52Var2EZNS_11CountParser13InvokeCountOfIS1_EEvRKNS_12HeaderRecordEtRKN7openpal6RSliceERNS_12IAPDUHandlerEEUlRS8_jE_E5CountEv
	.quad	_ZNK8opendnp318BufferedCollectionINS_11Group52Var2EZNS_11CountParser13InvokeCountOfIS1_EEvRKNS_12HeaderRecordEtRKN7openpal6RSliceERNS_12IAPDUHandlerEEUlRS8_jE_E7ForeachERNS_8IVisitorIS1_EE
	.weak	_ZTVN8opendnp318BufferedCollectionINS_12Group120Var3EZNS_11CountParser13InvokeCountOfIS1_EEvRKNS_12HeaderRecordEtRKN7openpal6RSliceERNS_12IAPDUHandlerEEUlRS8_jE_EE
	.section	.data.rel.ro._ZTVN8opendnp318BufferedCollectionINS_12Group120Var3EZNS_11CountParser13InvokeCountOfIS1_EEvRKNS_12HeaderRecordEtRKN7openpal6RSliceERNS_12IAPDUHandlerEEUlRS8_jE_EE,"awG",@progbits,_ZTVN8opendnp318BufferedCollectionINS_12Group120Var3EZNS_11CountParser13InvokeCountOfIS1_EEvRKNS_12HeaderRecordEtRKN7openpal6RSliceERNS_12IAPDUHandlerEEUlRS8_jE_EE,comdat
	.align 8
	.type	_ZTVN8opendnp318BufferedCollectionINS_12Group120Var3EZNS_11CountParser13InvokeCountOfIS1_EEvRKNS_12HeaderRecordEtRKN7openpal6RSliceERNS_12IAPDUHandlerEEUlRS8_jE_EE, @object
	.size	_ZTVN8opendnp318BufferedCollectionINS_12Group120Var3EZNS_11CountParser13InvokeCountOfIS1_EEvRKNS_12HeaderRecordEtRKN7openpal6RSliceERNS_12IAPDUHandlerEEUlRS8_jE_EE, 32
_ZTVN8opendnp318BufferedCollectionINS_12Group120Var3EZNS_11CountParser13InvokeCountOfIS1_EEvRKNS_12HeaderRecordEtRKN7openpal6RSliceERNS_12IAPDUHandlerEEUlRS8_jE_EE:
	.quad	0
	.quad	_ZTIN8opendnp318BufferedCollectionINS_12Group120Var3EZNS_11CountParser13InvokeCountOfIS1_EEvRKNS_12HeaderRecordEtRKN7openpal6RSliceERNS_12IAPDUHandlerEEUlRS8_jE_EE
	.quad	_ZNK8opendnp318BufferedCollectionINS_12Group120Var3EZNS_11CountParser13InvokeCountOfIS1_EEvRKNS_12HeaderRecordEtRKN7openpal6RSliceERNS_12IAPDUHandlerEEUlRS8_jE_E5CountEv
	.quad	_ZNK8opendnp318BufferedCollectionINS_12Group120Var3EZNS_11CountParser13InvokeCountOfIS1_EEvRKNS_12HeaderRecordEtRKN7openpal6RSliceERNS_12IAPDUHandlerEEUlRS8_jE_E7ForeachERNS_8IVisitorIS1_EE
	.weak	_ZTVN8opendnp318BufferedCollectionINS_12Group120Var4EZNS_11CountParser13InvokeCountOfIS1_EEvRKNS_12HeaderRecordEtRKN7openpal6RSliceERNS_12IAPDUHandlerEEUlRS8_jE_EE
	.section	.data.rel.ro._ZTVN8opendnp318BufferedCollectionINS_12Group120Var4EZNS_11CountParser13InvokeCountOfIS1_EEvRKNS_12HeaderRecordEtRKN7openpal6RSliceERNS_12IAPDUHandlerEEUlRS8_jE_EE,"awG",@progbits,_ZTVN8opendnp318BufferedCollectionINS_12Group120Var4EZNS_11CountParser13InvokeCountOfIS1_EEvRKNS_12HeaderRecordEtRKN7openpal6RSliceERNS_12IAPDUHandlerEEUlRS8_jE_EE,comdat
	.align 8
	.type	_ZTVN8opendnp318BufferedCollectionINS_12Group120Var4EZNS_11CountParser13InvokeCountOfIS1_EEvRKNS_12HeaderRecordEtRKN7openpal6RSliceERNS_12IAPDUHandlerEEUlRS8_jE_EE, @object
	.size	_ZTVN8opendnp318BufferedCollectionINS_12Group120Var4EZNS_11CountParser13InvokeCountOfIS1_EEvRKNS_12HeaderRecordEtRKN7openpal6RSliceERNS_12IAPDUHandlerEEUlRS8_jE_EE, 32
_ZTVN8opendnp318BufferedCollectionINS_12Group120Var4EZNS_11CountParser13InvokeCountOfIS1_EEvRKNS_12HeaderRecordEtRKN7openpal6RSliceERNS_12IAPDUHandlerEEUlRS8_jE_EE:
	.quad	0
	.quad	_ZTIN8opendnp318BufferedCollectionINS_12Group120Var4EZNS_11CountParser13InvokeCountOfIS1_EEvRKNS_12HeaderRecordEtRKN7openpal6RSliceERNS_12IAPDUHandlerEEUlRS8_jE_EE
	.quad	_ZNK8opendnp318BufferedCollectionINS_12Group120Var4EZNS_11CountParser13InvokeCountOfIS1_EEvRKNS_12HeaderRecordEtRKN7openpal6RSliceERNS_12IAPDUHandlerEEUlRS8_jE_E5CountEv
	.quad	_ZNK8opendnp318BufferedCollectionINS_12Group120Var4EZNS_11CountParser13InvokeCountOfIS1_EEvRKNS_12HeaderRecordEtRKN7openpal6RSliceERNS_12IAPDUHandlerEEUlRS8_jE_E7ForeachERNS_8IVisitorIS1_EE
	.ident	"GCC: (Ubuntu 7.5.0-3ubuntu1~18.04) 7.5.0"
	.section	.note.GNU-stack,"",@progbits
