	.file	"Database.cpp"
	.text
	.section	.text._ZN8opendnp38Database17GetResponseLoaderEv,"axG",@progbits,_ZN8opendnp38Database17GetResponseLoaderEv,comdat
	.align 2
	.p2align 4,,15
	.weak	_ZN8opendnp38Database17GetResponseLoaderEv
	.type	_ZN8opendnp38Database17GetResponseLoaderEv, @function
_ZN8opendnp38Database17GetResponseLoaderEv:
.LFB404:
	.cfi_startproc
	leaq	32(%rdi), %rax
	ret
	.cfi_endproc
.LFE404:
	.size	_ZN8opendnp38Database17GetResponseLoaderEv, .-_ZN8opendnp38Database17GetResponseLoaderEv
	.section	.text._ZN8opendnp38Database17GetStaticSelectorEv,"axG",@progbits,_ZN8opendnp38Database17GetStaticSelectorEv,comdat
	.align 2
	.p2align 4,,15
	.weak	_ZN8opendnp38Database17GetStaticSelectorEv
	.type	_ZN8opendnp38Database17GetStaticSelectorEv, @function
_ZN8opendnp38Database17GetStaticSelectorEv:
.LFB405:
	.cfi_startproc
	leaq	24(%rdi), %rax
	ret
	.cfi_endproc
.LFE405:
	.size	_ZN8opendnp38Database17GetStaticSelectorEv, .-_ZN8opendnp38Database17GetStaticSelectorEv
	.section	.text._ZN8opendnp38Database16GetClassAssignerEv,"axG",@progbits,_ZN8opendnp38Database16GetClassAssignerEv,comdat
	.align 2
	.p2align 4,,15
	.weak	_ZN8opendnp38Database16GetClassAssignerEv
	.type	_ZN8opendnp38Database16GetClassAssignerEv, @function
_ZN8opendnp38Database16GetClassAssignerEv:
.LFB406:
	.cfi_startproc
	leaq	40(%rdi), %rax
	ret
	.cfi_endproc
.LFE406:
	.size	_ZN8opendnp38Database16GetClassAssignerEv, .-_ZN8opendnp38Database16GetClassAssignerEv
	.section	.text._ZN7openpal5ArrayIN8opendnp34CellINS1_19TimeAndIntervalSpecEEEtED2Ev,"axG",@progbits,_ZN7openpal5ArrayIN8opendnp34CellINS1_19TimeAndIntervalSpecEEEtED5Ev,comdat
	.align 2
	.p2align 4,,15
	.weak	_ZN7openpal5ArrayIN8opendnp34CellINS1_19TimeAndIntervalSpecEEEtED2Ev
	.type	_ZN7openpal5ArrayIN8opendnp34CellINS1_19TimeAndIntervalSpecEEEtED2Ev, @function
_ZN7openpal5ArrayIN8opendnp34CellINS1_19TimeAndIntervalSpecEEEtED2Ev:
.LFB2661:
	.cfi_startproc
	movq	_ZTVN7openpal5ArrayIN8opendnp34CellINS1_19TimeAndIntervalSpecEEEtEE@GOTPCREL(%rip), %rax
	addq	$16, %rax
	movq	%rax, (%rdi)
	movq	16(%rdi), %rdi
	testq	%rdi, %rdi
	je	.L5
	jmp	_ZdaPv@PLT
	.p2align 4,,10
	.p2align 3
.L5:
	rep ret
	.cfi_endproc
.LFE2661:
	.size	_ZN7openpal5ArrayIN8opendnp34CellINS1_19TimeAndIntervalSpecEEEtED2Ev, .-_ZN7openpal5ArrayIN8opendnp34CellINS1_19TimeAndIntervalSpecEEEtED2Ev
	.weak	_ZN7openpal5ArrayIN8opendnp34CellINS1_19TimeAndIntervalSpecEEEtED1Ev
	.set	_ZN7openpal5ArrayIN8opendnp34CellINS1_19TimeAndIntervalSpecEEEtED1Ev,_ZN7openpal5ArrayIN8opendnp34CellINS1_19TimeAndIntervalSpecEEEtED2Ev
	.section	.text._ZN7openpal5ArrayIN8opendnp34CellINS1_19TimeAndIntervalSpecEEEtED0Ev,"axG",@progbits,_ZN7openpal5ArrayIN8opendnp34CellINS1_19TimeAndIntervalSpecEEEtED5Ev,comdat
	.align 2
	.p2align 4,,15
	.weak	_ZN7openpal5ArrayIN8opendnp34CellINS1_19TimeAndIntervalSpecEEEtED0Ev
	.type	_ZN7openpal5ArrayIN8opendnp34CellINS1_19TimeAndIntervalSpecEEEtED0Ev, @function
_ZN7openpal5ArrayIN8opendnp34CellINS1_19TimeAndIntervalSpecEEEtED0Ev:
.LFB2663:
	.cfi_startproc
	movq	_ZTVN7openpal5ArrayIN8opendnp34CellINS1_19TimeAndIntervalSpecEEEtEE@GOTPCREL(%rip), %rax
	pushq	%rbx
	.cfi_def_cfa_offset 16
	.cfi_offset 3, -16
	movq	%rdi, %rbx
	addq	$16, %rax
	movq	%rax, (%rdi)
	movq	16(%rdi), %rdi
	testq	%rdi, %rdi
	je	.L8
	call	_ZdaPv@PLT
.L8:
	movq	%rbx, %rdi
	movl	$24, %esi
	popq	%rbx
	.cfi_def_cfa_offset 8
	jmp	_ZdlPvm@PLT
	.cfi_endproc
.LFE2663:
	.size	_ZN7openpal5ArrayIN8opendnp34CellINS1_19TimeAndIntervalSpecEEEtED0Ev, .-_ZN7openpal5ArrayIN8opendnp34CellINS1_19TimeAndIntervalSpecEEEtED0Ev
	.section	.text._ZN7openpal5ArrayIN8opendnp34CellINS1_22AnalogOutputStatusSpecEEEtED2Ev,"axG",@progbits,_ZN7openpal5ArrayIN8opendnp34CellINS1_22AnalogOutputStatusSpecEEEtED5Ev,comdat
	.align 2
	.p2align 4,,15
	.weak	_ZN7openpal5ArrayIN8opendnp34CellINS1_22AnalogOutputStatusSpecEEEtED2Ev
	.type	_ZN7openpal5ArrayIN8opendnp34CellINS1_22AnalogOutputStatusSpecEEEtED2Ev, @function
_ZN7openpal5ArrayIN8opendnp34CellINS1_22AnalogOutputStatusSpecEEEtED2Ev:
.LFB2657:
	.cfi_startproc
	movq	_ZTVN7openpal5ArrayIN8opendnp34CellINS1_22AnalogOutputStatusSpecEEEtEE@GOTPCREL(%rip), %rax
	addq	$16, %rax
	movq	%rax, (%rdi)
	movq	16(%rdi), %rdi
	testq	%rdi, %rdi
	je	.L13
	jmp	_ZdaPv@PLT
	.p2align 4,,10
	.p2align 3
.L13:
	rep ret
	.cfi_endproc
.LFE2657:
	.size	_ZN7openpal5ArrayIN8opendnp34CellINS1_22AnalogOutputStatusSpecEEEtED2Ev, .-_ZN7openpal5ArrayIN8opendnp34CellINS1_22AnalogOutputStatusSpecEEEtED2Ev
	.weak	_ZN7openpal5ArrayIN8opendnp34CellINS1_22AnalogOutputStatusSpecEEEtED1Ev
	.set	_ZN7openpal5ArrayIN8opendnp34CellINS1_22AnalogOutputStatusSpecEEEtED1Ev,_ZN7openpal5ArrayIN8opendnp34CellINS1_22AnalogOutputStatusSpecEEEtED2Ev
	.section	.text._ZN7openpal5ArrayIN8opendnp34CellINS1_22AnalogOutputStatusSpecEEEtED0Ev,"axG",@progbits,_ZN7openpal5ArrayIN8opendnp34CellINS1_22AnalogOutputStatusSpecEEEtED5Ev,comdat
	.align 2
	.p2align 4,,15
	.weak	_ZN7openpal5ArrayIN8opendnp34CellINS1_22AnalogOutputStatusSpecEEEtED0Ev
	.type	_ZN7openpal5ArrayIN8opendnp34CellINS1_22AnalogOutputStatusSpecEEEtED0Ev, @function
_ZN7openpal5ArrayIN8opendnp34CellINS1_22AnalogOutputStatusSpecEEEtED0Ev:
.LFB2659:
	.cfi_startproc
	movq	_ZTVN7openpal5ArrayIN8opendnp34CellINS1_22AnalogOutputStatusSpecEEEtEE@GOTPCREL(%rip), %rax
	pushq	%rbx
	.cfi_def_cfa_offset 16
	.cfi_offset 3, -16
	movq	%rdi, %rbx
	addq	$16, %rax
	movq	%rax, (%rdi)
	movq	16(%rdi), %rdi
	testq	%rdi, %rdi
	je	.L16
	call	_ZdaPv@PLT
.L16:
	movq	%rbx, %rdi
	movl	$24, %esi
	popq	%rbx
	.cfi_def_cfa_offset 8
	jmp	_ZdlPvm@PLT
	.cfi_endproc
.LFE2659:
	.size	_ZN7openpal5ArrayIN8opendnp34CellINS1_22AnalogOutputStatusSpecEEEtED0Ev, .-_ZN7openpal5ArrayIN8opendnp34CellINS1_22AnalogOutputStatusSpecEEEtED0Ev
	.section	.text._ZN7openpal5ArrayIN8opendnp34CellINS1_22BinaryOutputStatusSpecEEEtED2Ev,"axG",@progbits,_ZN7openpal5ArrayIN8opendnp34CellINS1_22BinaryOutputStatusSpecEEEtED5Ev,comdat
	.align 2
	.p2align 4,,15
	.weak	_ZN7openpal5ArrayIN8opendnp34CellINS1_22BinaryOutputStatusSpecEEEtED2Ev
	.type	_ZN7openpal5ArrayIN8opendnp34CellINS1_22BinaryOutputStatusSpecEEEtED2Ev, @function
_ZN7openpal5ArrayIN8opendnp34CellINS1_22BinaryOutputStatusSpecEEEtED2Ev:
.LFB2653:
	.cfi_startproc
	movq	_ZTVN7openpal5ArrayIN8opendnp34CellINS1_22BinaryOutputStatusSpecEEEtEE@GOTPCREL(%rip), %rax
	addq	$16, %rax
	movq	%rax, (%rdi)
	movq	16(%rdi), %rdi
	testq	%rdi, %rdi
	je	.L21
	jmp	_ZdaPv@PLT
	.p2align 4,,10
	.p2align 3
.L21:
	rep ret
	.cfi_endproc
.LFE2653:
	.size	_ZN7openpal5ArrayIN8opendnp34CellINS1_22BinaryOutputStatusSpecEEEtED2Ev, .-_ZN7openpal5ArrayIN8opendnp34CellINS1_22BinaryOutputStatusSpecEEEtED2Ev
	.weak	_ZN7openpal5ArrayIN8opendnp34CellINS1_22BinaryOutputStatusSpecEEEtED1Ev
	.set	_ZN7openpal5ArrayIN8opendnp34CellINS1_22BinaryOutputStatusSpecEEEtED1Ev,_ZN7openpal5ArrayIN8opendnp34CellINS1_22BinaryOutputStatusSpecEEEtED2Ev
	.section	.text._ZN7openpal5ArrayIN8opendnp34CellINS1_22BinaryOutputStatusSpecEEEtED0Ev,"axG",@progbits,_ZN7openpal5ArrayIN8opendnp34CellINS1_22BinaryOutputStatusSpecEEEtED5Ev,comdat
	.align 2
	.p2align 4,,15
	.weak	_ZN7openpal5ArrayIN8opendnp34CellINS1_22BinaryOutputStatusSpecEEEtED0Ev
	.type	_ZN7openpal5ArrayIN8opendnp34CellINS1_22BinaryOutputStatusSpecEEEtED0Ev, @function
_ZN7openpal5ArrayIN8opendnp34CellINS1_22BinaryOutputStatusSpecEEEtED0Ev:
.LFB2655:
	.cfi_startproc
	movq	_ZTVN7openpal5ArrayIN8opendnp34CellINS1_22BinaryOutputStatusSpecEEEtEE@GOTPCREL(%rip), %rax
	pushq	%rbx
	.cfi_def_cfa_offset 16
	.cfi_offset 3, -16
	movq	%rdi, %rbx
	addq	$16, %rax
	movq	%rax, (%rdi)
	movq	16(%rdi), %rdi
	testq	%rdi, %rdi
	je	.L24
	call	_ZdaPv@PLT
.L24:
	movq	%rbx, %rdi
	movl	$24, %esi
	popq	%rbx
	.cfi_def_cfa_offset 8
	jmp	_ZdlPvm@PLT
	.cfi_endproc
.LFE2655:
	.size	_ZN7openpal5ArrayIN8opendnp34CellINS1_22BinaryOutputStatusSpecEEEtED0Ev, .-_ZN7openpal5ArrayIN8opendnp34CellINS1_22BinaryOutputStatusSpecEEEtED0Ev
	.section	.text._ZN7openpal5ArrayIN8opendnp34CellINS1_17FrozenCounterSpecEEEtED2Ev,"axG",@progbits,_ZN7openpal5ArrayIN8opendnp34CellINS1_17FrozenCounterSpecEEEtED5Ev,comdat
	.align 2
	.p2align 4,,15
	.weak	_ZN7openpal5ArrayIN8opendnp34CellINS1_17FrozenCounterSpecEEEtED2Ev
	.type	_ZN7openpal5ArrayIN8opendnp34CellINS1_17FrozenCounterSpecEEEtED2Ev, @function
_ZN7openpal5ArrayIN8opendnp34CellINS1_17FrozenCounterSpecEEEtED2Ev:
.LFB2649:
	.cfi_startproc
	movq	_ZTVN7openpal5ArrayIN8opendnp34CellINS1_17FrozenCounterSpecEEEtEE@GOTPCREL(%rip), %rax
	addq	$16, %rax
	movq	%rax, (%rdi)
	movq	16(%rdi), %rdi
	testq	%rdi, %rdi
	je	.L29
	jmp	_ZdaPv@PLT
	.p2align 4,,10
	.p2align 3
.L29:
	rep ret
	.cfi_endproc
.LFE2649:
	.size	_ZN7openpal5ArrayIN8opendnp34CellINS1_17FrozenCounterSpecEEEtED2Ev, .-_ZN7openpal5ArrayIN8opendnp34CellINS1_17FrozenCounterSpecEEEtED2Ev
	.weak	_ZN7openpal5ArrayIN8opendnp34CellINS1_17FrozenCounterSpecEEEtED1Ev
	.set	_ZN7openpal5ArrayIN8opendnp34CellINS1_17FrozenCounterSpecEEEtED1Ev,_ZN7openpal5ArrayIN8opendnp34CellINS1_17FrozenCounterSpecEEEtED2Ev
	.section	.text._ZN7openpal5ArrayIN8opendnp34CellINS1_17FrozenCounterSpecEEEtED0Ev,"axG",@progbits,_ZN7openpal5ArrayIN8opendnp34CellINS1_17FrozenCounterSpecEEEtED5Ev,comdat
	.align 2
	.p2align 4,,15
	.weak	_ZN7openpal5ArrayIN8opendnp34CellINS1_17FrozenCounterSpecEEEtED0Ev
	.type	_ZN7openpal5ArrayIN8opendnp34CellINS1_17FrozenCounterSpecEEEtED0Ev, @function
_ZN7openpal5ArrayIN8opendnp34CellINS1_17FrozenCounterSpecEEEtED0Ev:
.LFB2651:
	.cfi_startproc
	movq	_ZTVN7openpal5ArrayIN8opendnp34CellINS1_17FrozenCounterSpecEEEtEE@GOTPCREL(%rip), %rax
	pushq	%rbx
	.cfi_def_cfa_offset 16
	.cfi_offset 3, -16
	movq	%rdi, %rbx
	addq	$16, %rax
	movq	%rax, (%rdi)
	movq	16(%rdi), %rdi
	testq	%rdi, %rdi
	je	.L32
	call	_ZdaPv@PLT
.L32:
	movq	%rbx, %rdi
	movl	$24, %esi
	popq	%rbx
	.cfi_def_cfa_offset 8
	jmp	_ZdlPvm@PLT
	.cfi_endproc
.LFE2651:
	.size	_ZN7openpal5ArrayIN8opendnp34CellINS1_17FrozenCounterSpecEEEtED0Ev, .-_ZN7openpal5ArrayIN8opendnp34CellINS1_17FrozenCounterSpecEEEtED0Ev
	.section	.text._ZN7openpal5ArrayIN8opendnp34CellINS1_11CounterSpecEEEtED2Ev,"axG",@progbits,_ZN7openpal5ArrayIN8opendnp34CellINS1_11CounterSpecEEEtED5Ev,comdat
	.align 2
	.p2align 4,,15
	.weak	_ZN7openpal5ArrayIN8opendnp34CellINS1_11CounterSpecEEEtED2Ev
	.type	_ZN7openpal5ArrayIN8opendnp34CellINS1_11CounterSpecEEEtED2Ev, @function
_ZN7openpal5ArrayIN8opendnp34CellINS1_11CounterSpecEEEtED2Ev:
.LFB2645:
	.cfi_startproc
	movq	_ZTVN7openpal5ArrayIN8opendnp34CellINS1_11CounterSpecEEEtEE@GOTPCREL(%rip), %rax
	addq	$16, %rax
	movq	%rax, (%rdi)
	movq	16(%rdi), %rdi
	testq	%rdi, %rdi
	je	.L37
	jmp	_ZdaPv@PLT
	.p2align 4,,10
	.p2align 3
.L37:
	rep ret
	.cfi_endproc
.LFE2645:
	.size	_ZN7openpal5ArrayIN8opendnp34CellINS1_11CounterSpecEEEtED2Ev, .-_ZN7openpal5ArrayIN8opendnp34CellINS1_11CounterSpecEEEtED2Ev
	.weak	_ZN7openpal5ArrayIN8opendnp34CellINS1_11CounterSpecEEEtED1Ev
	.set	_ZN7openpal5ArrayIN8opendnp34CellINS1_11CounterSpecEEEtED1Ev,_ZN7openpal5ArrayIN8opendnp34CellINS1_11CounterSpecEEEtED2Ev
	.section	.text._ZN7openpal5ArrayIN8opendnp34CellINS1_11CounterSpecEEEtED0Ev,"axG",@progbits,_ZN7openpal5ArrayIN8opendnp34CellINS1_11CounterSpecEEEtED5Ev,comdat
	.align 2
	.p2align 4,,15
	.weak	_ZN7openpal5ArrayIN8opendnp34CellINS1_11CounterSpecEEEtED0Ev
	.type	_ZN7openpal5ArrayIN8opendnp34CellINS1_11CounterSpecEEEtED0Ev, @function
_ZN7openpal5ArrayIN8opendnp34CellINS1_11CounterSpecEEEtED0Ev:
.LFB2647:
	.cfi_startproc
	movq	_ZTVN7openpal5ArrayIN8opendnp34CellINS1_11CounterSpecEEEtEE@GOTPCREL(%rip), %rax
	pushq	%rbx
	.cfi_def_cfa_offset 16
	.cfi_offset 3, -16
	movq	%rdi, %rbx
	addq	$16, %rax
	movq	%rax, (%rdi)
	movq	16(%rdi), %rdi
	testq	%rdi, %rdi
	je	.L40
	call	_ZdaPv@PLT
.L40:
	movq	%rbx, %rdi
	movl	$24, %esi
	popq	%rbx
	.cfi_def_cfa_offset 8
	jmp	_ZdlPvm@PLT
	.cfi_endproc
.LFE2647:
	.size	_ZN7openpal5ArrayIN8opendnp34CellINS1_11CounterSpecEEEtED0Ev, .-_ZN7openpal5ArrayIN8opendnp34CellINS1_11CounterSpecEEEtED0Ev
	.section	.text._ZN7openpal5ArrayIN8opendnp34CellINS1_10AnalogSpecEEEtED2Ev,"axG",@progbits,_ZN7openpal5ArrayIN8opendnp34CellINS1_10AnalogSpecEEEtED5Ev,comdat
	.align 2
	.p2align 4,,15
	.weak	_ZN7openpal5ArrayIN8opendnp34CellINS1_10AnalogSpecEEEtED2Ev
	.type	_ZN7openpal5ArrayIN8opendnp34CellINS1_10AnalogSpecEEEtED2Ev, @function
_ZN7openpal5ArrayIN8opendnp34CellINS1_10AnalogSpecEEEtED2Ev:
.LFB2641:
	.cfi_startproc
	movq	_ZTVN7openpal5ArrayIN8opendnp34CellINS1_10AnalogSpecEEEtEE@GOTPCREL(%rip), %rax
	addq	$16, %rax
	movq	%rax, (%rdi)
	movq	16(%rdi), %rdi
	testq	%rdi, %rdi
	je	.L45
	jmp	_ZdaPv@PLT
	.p2align 4,,10
	.p2align 3
.L45:
	rep ret
	.cfi_endproc
.LFE2641:
	.size	_ZN7openpal5ArrayIN8opendnp34CellINS1_10AnalogSpecEEEtED2Ev, .-_ZN7openpal5ArrayIN8opendnp34CellINS1_10AnalogSpecEEEtED2Ev
	.weak	_ZN7openpal5ArrayIN8opendnp34CellINS1_10AnalogSpecEEEtED1Ev
	.set	_ZN7openpal5ArrayIN8opendnp34CellINS1_10AnalogSpecEEEtED1Ev,_ZN7openpal5ArrayIN8opendnp34CellINS1_10AnalogSpecEEEtED2Ev
	.section	.text._ZN7openpal5ArrayIN8opendnp34CellINS1_10AnalogSpecEEEtED0Ev,"axG",@progbits,_ZN7openpal5ArrayIN8opendnp34CellINS1_10AnalogSpecEEEtED5Ev,comdat
	.align 2
	.p2align 4,,15
	.weak	_ZN7openpal5ArrayIN8opendnp34CellINS1_10AnalogSpecEEEtED0Ev
	.type	_ZN7openpal5ArrayIN8opendnp34CellINS1_10AnalogSpecEEEtED0Ev, @function
_ZN7openpal5ArrayIN8opendnp34CellINS1_10AnalogSpecEEEtED0Ev:
.LFB2643:
	.cfi_startproc
	movq	_ZTVN7openpal5ArrayIN8opendnp34CellINS1_10AnalogSpecEEEtEE@GOTPCREL(%rip), %rax
	pushq	%rbx
	.cfi_def_cfa_offset 16
	.cfi_offset 3, -16
	movq	%rdi, %rbx
	addq	$16, %rax
	movq	%rax, (%rdi)
	movq	16(%rdi), %rdi
	testq	%rdi, %rdi
	je	.L48
	call	_ZdaPv@PLT
.L48:
	movq	%rbx, %rdi
	movl	$24, %esi
	popq	%rbx
	.cfi_def_cfa_offset 8
	jmp	_ZdlPvm@PLT
	.cfi_endproc
.LFE2643:
	.size	_ZN7openpal5ArrayIN8opendnp34CellINS1_10AnalogSpecEEEtED0Ev, .-_ZN7openpal5ArrayIN8opendnp34CellINS1_10AnalogSpecEEEtED0Ev
	.section	.text._ZN7openpal5ArrayIN8opendnp34CellINS1_19DoubleBitBinarySpecEEEtED2Ev,"axG",@progbits,_ZN7openpal5ArrayIN8opendnp34CellINS1_19DoubleBitBinarySpecEEEtED5Ev,comdat
	.align 2
	.p2align 4,,15
	.weak	_ZN7openpal5ArrayIN8opendnp34CellINS1_19DoubleBitBinarySpecEEEtED2Ev
	.type	_ZN7openpal5ArrayIN8opendnp34CellINS1_19DoubleBitBinarySpecEEEtED2Ev, @function
_ZN7openpal5ArrayIN8opendnp34CellINS1_19DoubleBitBinarySpecEEEtED2Ev:
.LFB2637:
	.cfi_startproc
	movq	_ZTVN7openpal5ArrayIN8opendnp34CellINS1_19DoubleBitBinarySpecEEEtEE@GOTPCREL(%rip), %rax
	addq	$16, %rax
	movq	%rax, (%rdi)
	movq	16(%rdi), %rdi
	testq	%rdi, %rdi
	je	.L53
	jmp	_ZdaPv@PLT
	.p2align 4,,10
	.p2align 3
.L53:
	rep ret
	.cfi_endproc
.LFE2637:
	.size	_ZN7openpal5ArrayIN8opendnp34CellINS1_19DoubleBitBinarySpecEEEtED2Ev, .-_ZN7openpal5ArrayIN8opendnp34CellINS1_19DoubleBitBinarySpecEEEtED2Ev
	.weak	_ZN7openpal5ArrayIN8opendnp34CellINS1_19DoubleBitBinarySpecEEEtED1Ev
	.set	_ZN7openpal5ArrayIN8opendnp34CellINS1_19DoubleBitBinarySpecEEEtED1Ev,_ZN7openpal5ArrayIN8opendnp34CellINS1_19DoubleBitBinarySpecEEEtED2Ev
	.section	.text._ZN7openpal5ArrayIN8opendnp34CellINS1_19DoubleBitBinarySpecEEEtED0Ev,"axG",@progbits,_ZN7openpal5ArrayIN8opendnp34CellINS1_19DoubleBitBinarySpecEEEtED5Ev,comdat
	.align 2
	.p2align 4,,15
	.weak	_ZN7openpal5ArrayIN8opendnp34CellINS1_19DoubleBitBinarySpecEEEtED0Ev
	.type	_ZN7openpal5ArrayIN8opendnp34CellINS1_19DoubleBitBinarySpecEEEtED0Ev, @function
_ZN7openpal5ArrayIN8opendnp34CellINS1_19DoubleBitBinarySpecEEEtED0Ev:
.LFB2639:
	.cfi_startproc
	movq	_ZTVN7openpal5ArrayIN8opendnp34CellINS1_19DoubleBitBinarySpecEEEtEE@GOTPCREL(%rip), %rax
	pushq	%rbx
	.cfi_def_cfa_offset 16
	.cfi_offset 3, -16
	movq	%rdi, %rbx
	addq	$16, %rax
	movq	%rax, (%rdi)
	movq	16(%rdi), %rdi
	testq	%rdi, %rdi
	je	.L56
	call	_ZdaPv@PLT
.L56:
	movq	%rbx, %rdi
	movl	$24, %esi
	popq	%rbx
	.cfi_def_cfa_offset 8
	jmp	_ZdlPvm@PLT
	.cfi_endproc
.LFE2639:
	.size	_ZN7openpal5ArrayIN8opendnp34CellINS1_19DoubleBitBinarySpecEEEtED0Ev, .-_ZN7openpal5ArrayIN8opendnp34CellINS1_19DoubleBitBinarySpecEEEtED0Ev
	.section	.text._ZN7openpal5ArrayIN8opendnp34CellINS1_10BinarySpecEEEtED2Ev,"axG",@progbits,_ZN7openpal5ArrayIN8opendnp34CellINS1_10BinarySpecEEEtED5Ev,comdat
	.align 2
	.p2align 4,,15
	.weak	_ZN7openpal5ArrayIN8opendnp34CellINS1_10BinarySpecEEEtED2Ev
	.type	_ZN7openpal5ArrayIN8opendnp34CellINS1_10BinarySpecEEEtED2Ev, @function
_ZN7openpal5ArrayIN8opendnp34CellINS1_10BinarySpecEEEtED2Ev:
.LFB2633:
	.cfi_startproc
	movq	_ZTVN7openpal5ArrayIN8opendnp34CellINS1_10BinarySpecEEEtEE@GOTPCREL(%rip), %rax
	addq	$16, %rax
	movq	%rax, (%rdi)
	movq	16(%rdi), %rdi
	testq	%rdi, %rdi
	je	.L61
	jmp	_ZdaPv@PLT
	.p2align 4,,10
	.p2align 3
.L61:
	rep ret
	.cfi_endproc
.LFE2633:
	.size	_ZN7openpal5ArrayIN8opendnp34CellINS1_10BinarySpecEEEtED2Ev, .-_ZN7openpal5ArrayIN8opendnp34CellINS1_10BinarySpecEEEtED2Ev
	.weak	_ZN7openpal5ArrayIN8opendnp34CellINS1_10BinarySpecEEEtED1Ev
	.set	_ZN7openpal5ArrayIN8opendnp34CellINS1_10BinarySpecEEEtED1Ev,_ZN7openpal5ArrayIN8opendnp34CellINS1_10BinarySpecEEEtED2Ev
	.section	.text._ZN7openpal5ArrayIN8opendnp34CellINS1_10BinarySpecEEEtED0Ev,"axG",@progbits,_ZN7openpal5ArrayIN8opendnp34CellINS1_10BinarySpecEEEtED5Ev,comdat
	.align 2
	.p2align 4,,15
	.weak	_ZN7openpal5ArrayIN8opendnp34CellINS1_10BinarySpecEEEtED0Ev
	.type	_ZN7openpal5ArrayIN8opendnp34CellINS1_10BinarySpecEEEtED0Ev, @function
_ZN7openpal5ArrayIN8opendnp34CellINS1_10BinarySpecEEEtED0Ev:
.LFB2635:
	.cfi_startproc
	movq	_ZTVN7openpal5ArrayIN8opendnp34CellINS1_10BinarySpecEEEtEE@GOTPCREL(%rip), %rax
	pushq	%rbx
	.cfi_def_cfa_offset 16
	.cfi_offset 3, -16
	movq	%rdi, %rbx
	addq	$16, %rax
	movq	%rax, (%rdi)
	movq	16(%rdi), %rdi
	testq	%rdi, %rdi
	je	.L64
	call	_ZdaPv@PLT
.L64:
	movq	%rbx, %rdi
	movl	$24, %esi
	popq	%rbx
	.cfi_def_cfa_offset 8
	jmp	_ZdlPvm@PLT
	.cfi_endproc
.LFE2635:
	.size	_ZN7openpal5ArrayIN8opendnp34CellINS1_10BinarySpecEEEtED0Ev, .-_ZN7openpal5ArrayIN8opendnp34CellINS1_10BinarySpecEEEtED0Ev
	.section	.text._ZN8opendnp38DatabaseD0Ev,"axG",@progbits,_ZN8opendnp38DatabaseD5Ev,comdat
	.align 2
	.p2align 4,,15
	.weak	_ZN8opendnp38DatabaseD0Ev
	.type	_ZN8opendnp38DatabaseD0Ev, @function
_ZN8opendnp38DatabaseD0Ev:
.LFB3117:
	.cfi_startproc
	movq	_ZTVN8opendnp38DatabaseE@GOTPCREL(%rip), %rax
	pushq	%rbx
	.cfi_def_cfa_offset 16
	.cfi_offset 3, -16
	movq	%rdi, %rbx
	addq	$16, %rax
	movq	%rax, (%rdi)
	movq	_ZTVN8opendnp315DatabaseBuffersE@GOTPCREL(%rip), %rax
	leaq	16(%rax), %rdx
	movq	%rdx, 24(%rdi)
	leaq	88(%rax), %rdx
	addq	$120, %rax
	movq	%rax, 40(%rdi)
	movq	_ZTVN7openpal5ArrayIN8opendnp34CellINS1_19TimeAndIntervalSpecEEEtEE@GOTPCREL(%rip), %rax
	movq	%rdx, 32(%rdi)
	addq	$16, %rax
	movq	%rax, 216(%rdi)
	movq	232(%rdi), %rdi
	testq	%rdi, %rdi
	je	.L70
	call	_ZdaPv@PLT
.L70:
	movq	_ZTVN7openpal5ArrayIN8opendnp34CellINS1_22AnalogOutputStatusSpecEEEtEE@GOTPCREL(%rip), %rax
	movq	208(%rbx), %rdi
	addq	$16, %rax
	testq	%rdi, %rdi
	movq	%rax, 192(%rbx)
	je	.L71
	call	_ZdaPv@PLT
.L71:
	movq	_ZTVN7openpal5ArrayIN8opendnp34CellINS1_22BinaryOutputStatusSpecEEEtEE@GOTPCREL(%rip), %rax
	movq	184(%rbx), %rdi
	addq	$16, %rax
	testq	%rdi, %rdi
	movq	%rax, 168(%rbx)
	je	.L72
	call	_ZdaPv@PLT
.L72:
	movq	_ZTVN7openpal5ArrayIN8opendnp34CellINS1_17FrozenCounterSpecEEEtEE@GOTPCREL(%rip), %rax
	movq	160(%rbx), %rdi
	addq	$16, %rax
	testq	%rdi, %rdi
	movq	%rax, 144(%rbx)
	je	.L73
	call	_ZdaPv@PLT
.L73:
	movq	_ZTVN7openpal5ArrayIN8opendnp34CellINS1_11CounterSpecEEEtEE@GOTPCREL(%rip), %rax
	movq	136(%rbx), %rdi
	addq	$16, %rax
	testq	%rdi, %rdi
	movq	%rax, 120(%rbx)
	je	.L74
	call	_ZdaPv@PLT
.L74:
	movq	_ZTVN7openpal5ArrayIN8opendnp34CellINS1_10AnalogSpecEEEtEE@GOTPCREL(%rip), %rax
	movq	112(%rbx), %rdi
	addq	$16, %rax
	testq	%rdi, %rdi
	movq	%rax, 96(%rbx)
	je	.L75
	call	_ZdaPv@PLT
.L75:
	movq	_ZTVN7openpal5ArrayIN8opendnp34CellINS1_19DoubleBitBinarySpecEEEtEE@GOTPCREL(%rip), %rax
	movq	88(%rbx), %rdi
	addq	$16, %rax
	testq	%rdi, %rdi
	movq	%rax, 72(%rbx)
	je	.L76
	call	_ZdaPv@PLT
.L76:
	movq	_ZTVN7openpal5ArrayIN8opendnp34CellINS1_10BinarySpecEEEtEE@GOTPCREL(%rip), %rax
	movq	64(%rbx), %rdi
	addq	$16, %rax
	testq	%rdi, %rdi
	movq	%rax, 48(%rbx)
	je	.L77
	call	_ZdaPv@PLT
.L77:
	movq	%rbx, %rdi
	movl	$280, %esi
	popq	%rbx
	.cfi_def_cfa_offset 8
	jmp	_ZdlPvm@PLT
	.cfi_endproc
.LFE3117:
	.size	_ZN8opendnp38DatabaseD0Ev, .-_ZN8opendnp38DatabaseD0Ev
	.text
	.align 2
	.p2align 4,,15
	.globl	_ZN8opendnp38Database6UpdateERKNS_15TimeAndIntervalEt
	.type	_ZN8opendnp38Database6UpdateERKNS_15TimeAndIntervalEt, @function
_ZN8opendnp38Database6UpdateERKNS_15TimeAndIntervalEt:
.LFB2348:
	.cfi_startproc
	pushq	%r15
	.cfi_def_cfa_offset 16
	.cfi_offset 15, -16
	pushq	%r14
	.cfi_def_cfa_offset 24
	.cfi_offset 14, -24
	movq	%rsi, %r14
	pushq	%r13
	.cfi_def_cfa_offset 32
	.cfi_offset 13, -32
	pushq	%r12
	.cfi_def_cfa_offset 40
	.cfi_offset 12, -40
	movzwl	%dx, %r12d
	pushq	%rbp
	.cfi_def_cfa_offset 48
	.cfi_offset 6, -48
	pushq	%rbx
	.cfi_def_cfa_offset 56
	.cfi_offset 3, -56
	leaq	48(%rdi), %rbp
	subq	$24, %rsp
	.cfi_def_cfa_offset 80
	cmpb	$0, 16(%rdi)
	jne	.L117
.L104:
	movq	%rbp, %rdi
	call	_ZN8opendnp313StaticBuffers12GetArrayViewINS_19TimeAndIntervalSpecEEEN7openpal9ArrayViewINS_4CellIT_EEtEEv@PLT
	xorl	%ecx, %ecx
	cmpw	%ax, %r12w
	jnb	.L103
	leaq	0(,%r12,8), %rax
	movl	$1, %ecx
	subq	%r12, %rax
	leaq	(%rdx,%rax,8), %rax
	movq	(%r14), %rdx
	movq	%rdx, (%rax)
	movl	8(%r14), %edx
	movl	%edx, 8(%rax)
	movzbl	12(%r14), %edx
	movb	%dl, 12(%rax)
.L103:
	addq	$24, %rsp
	.cfi_remember_state
	.cfi_def_cfa_offset 56
	movl	%ecx, %eax
	popq	%rbx
	.cfi_def_cfa_offset 48
	popq	%rbp
	.cfi_def_cfa_offset 40
	popq	%r12
	.cfi_def_cfa_offset 32
	popq	%r13
	.cfi_def_cfa_offset 24
	popq	%r14
	.cfi_def_cfa_offset 16
	popq	%r15
	.cfi_def_cfa_offset 8
	ret
	.p2align 4,,10
	.p2align 3
.L117:
	.cfi_restore_state
	movq	%rbp, %rdi
	call	_ZN8opendnp313StaticBuffers12GetArrayViewINS_19TimeAndIntervalSpecEEEN7openpal9ArrayViewINS_4CellIT_EEtEEv@PLT
	testw	%ax, %ax
	je	.L105
	leal	-1(%rax), %r13d
	xorl	%r15d, %r15d
	jmp	.L106
	.p2align 4,,10
	.p2align 3
.L108:
	testw	%r13w, %r13w
	je	.L105
	leal	-1(%rbx), %r13d
.L109:
	cmpw	%r15w, %r13w
	jb	.L105
.L106:
	movzwl	%r13w, %ebx
	movzwl	%r15w, %eax
	movl	%ebx, %ecx
	subl	%eax, %ecx
	movl	%ecx, %ebx
	shrl	$31, %ebx
	addl	%ecx, %ebx
	sarl	%ebx
	addl	%r15d, %ebx
	movzwl	%bx, %eax
	leaq	0(,%rax,8), %rcx
	subq	%rax, %rcx
	cmpw	16(%rdx,%rcx,8), %r12w
	je	.L111
	jbe	.L108
	movq	%rdx, 8(%rsp)
	call	_ZN7openpal8MaxValueItEET_v@PLT
	cmpw	%r15w, %ax
	jbe	.L105
	leal	1(%rbx), %r15d
	movq	8(%rsp), %rdx
	jmp	.L109
	.p2align 4,,10
	.p2align 3
.L105:
	call	_ZN7openpal8MaxValueItEET_v@PLT
	movzwl	%ax, %r12d
	jmp	.L104
	.p2align 4,,10
	.p2align 3
.L111:
	movzwl	%bx, %r12d
	jmp	.L104
	.cfi_endproc
.LFE2348:
	.size	_ZN8opendnp38Database6UpdateERKNS_15TimeAndIntervalEt, .-_ZN8opendnp38Database6UpdateERKNS_15TimeAndIntervalEt
	.section	.text._ZN8opendnp38DatabaseD2Ev,"axG",@progbits,_ZN8opendnp38DatabaseD5Ev,comdat
	.align 2
	.p2align 4,,15
	.weak	_ZN8opendnp38DatabaseD2Ev
	.type	_ZN8opendnp38DatabaseD2Ev, @function
_ZN8opendnp38DatabaseD2Ev:
.LFB3115:
	.cfi_startproc
	movq	_ZTVN8opendnp38DatabaseE@GOTPCREL(%rip), %rax
	pushq	%rbx
	.cfi_def_cfa_offset 16
	.cfi_offset 3, -16
	movq	%rdi, %rbx
	addq	$16, %rax
	movq	%rax, (%rdi)
	movq	_ZTVN8opendnp315DatabaseBuffersE@GOTPCREL(%rip), %rax
	leaq	16(%rax), %rdx
	movq	%rdx, 24(%rdi)
	leaq	88(%rax), %rdx
	addq	$120, %rax
	movq	%rax, 40(%rdi)
	movq	_ZTVN7openpal5ArrayIN8opendnp34CellINS1_19TimeAndIntervalSpecEEEtEE@GOTPCREL(%rip), %rax
	movq	%rdx, 32(%rdi)
	addq	$16, %rax
	movq	%rax, 216(%rdi)
	movq	232(%rdi), %rdi
	testq	%rdi, %rdi
	je	.L119
	call	_ZdaPv@PLT
.L119:
	movq	_ZTVN7openpal5ArrayIN8opendnp34CellINS1_22AnalogOutputStatusSpecEEEtEE@GOTPCREL(%rip), %rax
	movq	208(%rbx), %rdi
	addq	$16, %rax
	testq	%rdi, %rdi
	movq	%rax, 192(%rbx)
	je	.L120
	call	_ZdaPv@PLT
.L120:
	movq	_ZTVN7openpal5ArrayIN8opendnp34CellINS1_22BinaryOutputStatusSpecEEEtEE@GOTPCREL(%rip), %rax
	movq	184(%rbx), %rdi
	addq	$16, %rax
	testq	%rdi, %rdi
	movq	%rax, 168(%rbx)
	je	.L121
	call	_ZdaPv@PLT
.L121:
	movq	_ZTVN7openpal5ArrayIN8opendnp34CellINS1_17FrozenCounterSpecEEEtEE@GOTPCREL(%rip), %rax
	movq	160(%rbx), %rdi
	addq	$16, %rax
	testq	%rdi, %rdi
	movq	%rax, 144(%rbx)
	je	.L122
	call	_ZdaPv@PLT
.L122:
	movq	_ZTVN7openpal5ArrayIN8opendnp34CellINS1_11CounterSpecEEEtEE@GOTPCREL(%rip), %rax
	movq	136(%rbx), %rdi
	addq	$16, %rax
	testq	%rdi, %rdi
	movq	%rax, 120(%rbx)
	je	.L123
	call	_ZdaPv@PLT
.L123:
	movq	_ZTVN7openpal5ArrayIN8opendnp34CellINS1_10AnalogSpecEEEtEE@GOTPCREL(%rip), %rax
	movq	112(%rbx), %rdi
	addq	$16, %rax
	testq	%rdi, %rdi
	movq	%rax, 96(%rbx)
	je	.L124
	call	_ZdaPv@PLT
.L124:
	movq	_ZTVN7openpal5ArrayIN8opendnp34CellINS1_19DoubleBitBinarySpecEEEtEE@GOTPCREL(%rip), %rax
	movq	88(%rbx), %rdi
	addq	$16, %rax
	testq	%rdi, %rdi
	movq	%rax, 72(%rbx)
	je	.L125
	call	_ZdaPv@PLT
.L125:
	movq	_ZTVN7openpal5ArrayIN8opendnp34CellINS1_10BinarySpecEEEtEE@GOTPCREL(%rip), %rax
	movq	64(%rbx), %rdi
	addq	$16, %rax
	testq	%rdi, %rdi
	movq	%rax, 48(%rbx)
	je	.L118
	popq	%rbx
	.cfi_remember_state
	.cfi_def_cfa_offset 8
	jmp	_ZdaPv@PLT
	.p2align 4,,10
	.p2align 3
.L118:
	.cfi_restore_state
	popq	%rbx
	.cfi_def_cfa_offset 8
	ret
	.cfi_endproc
.LFE3115:
	.size	_ZN8opendnp38DatabaseD2Ev, .-_ZN8opendnp38DatabaseD2Ev
	.weak	_ZN8opendnp38DatabaseD1Ev
	.set	_ZN8opendnp38DatabaseD1Ev,_ZN8opendnp38DatabaseD2Ev
	.text
	.align 2
	.p2align 4,,15
	.globl	_ZN8opendnp38DatabaseC2ERKNS_13DatabaseSizesERNS_14IEventReceiverENS_9IndexModeENS_18StaticTypeBitFieldE
	.type	_ZN8opendnp38DatabaseC2ERKNS_13DatabaseSizesERNS_14IEventReceiverENS_9IndexModeENS_18StaticTypeBitFieldE, @function
_ZN8opendnp38DatabaseC2ERKNS_13DatabaseSizesERNS_14IEventReceiverENS_9IndexModeENS_18StaticTypeBitFieldE:
.LFB2339:
	.cfi_startproc
	movq	_ZTVN8opendnp38DatabaseE@GOTPCREL(%rip), %rax
	movq	%rdx, 8(%rdi)
	addq	$24, %rdi
	movb	%cl, -8(%rdi)
	movl	%r8d, %edx
	addq	$16, %rax
	movq	%rax, -24(%rdi)
	jmp	_ZN8opendnp315DatabaseBuffersC1ERKNS_13DatabaseSizesENS_18StaticTypeBitFieldENS_9IndexModeE@PLT
	.cfi_endproc
.LFE2339:
	.size	_ZN8opendnp38DatabaseC2ERKNS_13DatabaseSizesERNS_14IEventReceiverENS_9IndexModeENS_18StaticTypeBitFieldE, .-_ZN8opendnp38DatabaseC2ERKNS_13DatabaseSizesERNS_14IEventReceiverENS_9IndexModeENS_18StaticTypeBitFieldE
	.globl	_ZN8opendnp38DatabaseC1ERKNS_13DatabaseSizesERNS_14IEventReceiverENS_9IndexModeENS_18StaticTypeBitFieldE
	.set	_ZN8opendnp38DatabaseC1ERKNS_13DatabaseSizesERNS_14IEventReceiverENS_9IndexModeENS_18StaticTypeBitFieldE,_ZN8opendnp38DatabaseC2ERKNS_13DatabaseSizesERNS_14IEventReceiverENS_9IndexModeENS_18StaticTypeBitFieldE
	.align 2
	.p2align 4,,15
	.globl	_ZN8opendnp38Database19ConvertToEventClassENS_10PointClassERNS_10EventClassE
	.type	_ZN8opendnp38Database19ConvertToEventClassENS_10PointClassERNS_10EventClassE, @function
_ZN8opendnp38Database19ConvertToEventClassENS_10PointClassERNS_10EventClassE:
.LFB2350:
	.cfi_startproc
	cmpb	$4, %dil
	je	.L152
	cmpb	$8, %dil
	je	.L153
	cmpb	$2, %dil
	je	.L157
	xorl	%eax, %eax
	ret
	.p2align 4,,10
	.p2align 3
.L157:
	movb	$0, (%rsi)
	movl	$1, %eax
	ret
	.p2align 4,,10
	.p2align 3
.L153:
	movb	$2, (%rsi)
	movl	$1, %eax
	ret
	.p2align 4,,10
	.p2align 3
.L152:
	movb	$1, (%rsi)
	movl	$1, %eax
	ret
	.cfi_endproc
.LFE2350:
	.size	_ZN8opendnp38Database19ConvertToEventClassENS_10PointClassERNS_10EventClassE, .-_ZN8opendnp38Database19ConvertToEventClassENS_10PointClassERNS_10EventClassE
	.align 2
	.p2align 4,,15
	.globl	_ZN8opendnp38Database6ModifyENS_9FlagsTypeEtth
	.type	_ZN8opendnp38Database6ModifyENS_9FlagsTypeEtth, @function
_ZN8opendnp38Database6ModifyENS_9FlagsTypeEtth:
.LFB2349:
	.cfi_startproc
	pushq	%r15
	.cfi_def_cfa_offset 16
	.cfi_offset 15, -16
	pushq	%r14
	.cfi_def_cfa_offset 24
	.cfi_offset 14, -24
	pushq	%r13
	.cfi_def_cfa_offset 32
	.cfi_offset 13, -32
	pushq	%r12
	.cfi_def_cfa_offset 40
	.cfi_offset 12, -40
	movq	%rdi, %r13
	pushq	%rbp
	.cfi_def_cfa_offset 48
	.cfi_offset 6, -48
	pushq	%rbx
	.cfi_def_cfa_offset 56
	.cfi_offset 3, -56
	subq	$152, %rsp
	.cfi_def_cfa_offset 208
	movq	%fs:40, %rdi
	movq	%rdi, 136(%rsp)
	xorl	%edi, %edi
	cmpb	$6, %sil
	ja	.L277
	movl	%edx, %ebx
	leaq	.L161(%rip), %rdx
	movzbl	%sil, %eax
	movl	%ecx, %ebp
	movl	%r8d, %r14d
	leaq	48(%r13), %r15
	movslq	(%rdx,%rax,4), %rax
	addq	%rdx, %rax
	cmpb	$0, 16(%r13)
	jmp	*%rax
	.section	.rodata
	.align 4
	.align 4
.L161:
	.long	.L160-.L161
	.long	.L162-.L161
	.long	.L163-.L161
	.long	.L164-.L161
	.long	.L165-.L161
	.long	.L166-.L161
	.long	.L167-.L161
	.text
	.p2align 4,,10
	.p2align 3
.L166:
	jne	.L384
.L246:
	movq	%r15, %rdi
	call	_ZN8opendnp313StaticBuffers12GetArrayViewINS_22BinaryOutputStatusSpecEEEN7openpal9ArrayViewINS_4CellIT_EEtEEv@PLT
	cmpw	%bp, %bx
	movl	%ebp, %ecx
	cmovnb	%ebx, %ecx
	cmpw	%ax, %cx
	setb	%r12b
	cmpw	%bp, %bx
	setbe	%al
	andb	%al, %r12b
	jne	.L385
	.p2align 4,,10
	.p2align 3
.L158:
	movq	136(%rsp), %rbx
	xorq	%fs:40, %rbx
	movl	%r12d, %eax
	jne	.L386
	addq	$152, %rsp
	.cfi_remember_state
	.cfi_def_cfa_offset 56
	popq	%rbx
	.cfi_def_cfa_offset 48
	popq	%rbp
	.cfi_def_cfa_offset 40
	popq	%r12
	.cfi_def_cfa_offset 32
	popq	%r13
	.cfi_def_cfa_offset 24
	popq	%r14
	.cfi_def_cfa_offset 16
	popq	%r15
	.cfi_def_cfa_offset 8
	ret
	.p2align 4,,10
	.p2align 3
.L167:
	.cfi_restore_state
	jne	.L387
.L260:
	movq	%r15, %rdi
	call	_ZN8opendnp313StaticBuffers12GetArrayViewINS_22AnalogOutputStatusSpecEEEN7openpal9ArrayViewINS_4CellIT_EEtEEv@PLT
	cmpw	%bp, %bx
	movq	%rdx, 16(%rsp)
	movl	%ebp, %edx
	cmovnb	%ebx, %edx
	cmpw	%ax, %dx
	setb	%r12b
	cmpw	%bp, %bx
	setbe	%al
	andb	%al, %r12b
	je	.L158
	leaq	63(%rsp), %rax
	movq	%rax, 8(%rsp)
	leaq	64(%rsp), %rax
	movq	%rax, 24(%rsp)
	leaq	96(%rsp), %rax
	movq	%rax, 32(%rsp)
	.p2align 4,,10
	.p2align 3
.L275:
	movzwl	%bx, %edx
	movq	16(%rsp), %rdi
	movq	8(%rsp), %rsi
	movq	%rdx, %rax
	salq	$4, %rax
	subq	%rdx, %rax
	leaq	(%rdi,%rax,8), %r15
	movdqu	(%r15), %xmm0
	movzbl	27(%r15), %edi
	movaps	%xmm0, 64(%rsp)
	movq	16(%r15), %rax
	movb	%r14b, 64(%rsp)
	movq	%rax, 80(%rsp)
	call	_ZN8opendnp38Database19ConvertToEventClassENS_10PointClassERNS_10EventClassE@PLT
	testb	%al, %al
	je	.L273
	movq	24(%rsp), %rdi
	leaq	48(%r15), %rsi
	movsd	32(%r15), %xmm0
	call	_ZN8opendnp312measurements7IsEventERKNS_16TypedMeasurementIdEES4_d@PLT
	testb	%al, %al
	je	.L273
	movdqa	64(%rsp), %xmm0
	movq	8(%r13), %rdi
	movzwl	24(%r15), %esi
	movups	%xmm0, 48(%r15)
	movq	80(%rsp), %rax
	movzbl	28(%r15), %ecx
	movq	%rax, 64(%r15)
	movq	(%rdi), %rax
	movdqa	64(%rsp), %xmm0
	movq	64(%rax), %rax
	movw	%si, 96(%rsp)
	movzbl	63(%rsp), %esi
	movb	%cl, 128(%rsp)
	movups	%xmm0, 104(%rsp)
	movb	%sil, 98(%rsp)
	movq	80(%rsp), %rsi
	movq	%rsi, 120(%rsp)
	movq	32(%rsp), %rsi
	call	*%rax
.L273:
	movdqa	64(%rsp), %xmm0
	addl	$1, %ebx
	cmpw	%bx, %bp
	movups	%xmm0, (%r15)
	movq	80(%rsp), %rax
	movq	%rax, 16(%r15)
	jnb	.L275
	jmp	.L158
	.p2align 4,,10
	.p2align 3
.L160:
	jne	.L388
.L168:
	movq	%r15, %rdi
	call	_ZN8opendnp313StaticBuffers12GetArrayViewINS_10BinarySpecEEEN7openpal9ArrayViewINS_4CellIT_EEtEEv@PLT
	cmpw	%bx, %bp
	movl	%ebx, %ecx
	cmovnb	%ebp, %ecx
	cmpw	%ax, %cx
	setb	%r12b
	cmpw	%bx, %bp
	setnb	%al
	andb	%al, %r12b
	je	.L158
	leaq	96(%rsp), %rax
	leaq	64(%rsp), %r15
	movq	%rax, 40(%rsp)
	.p2align 4,,10
	.p2align 3
.L181:
	movzwl	%bx, %eax
	movq	%r15, %rsi
	movq	%rdx, 32(%rsp)
	leaq	0(,%rax,8), %rcx
	subq	%rax, %rcx
	salq	$4, %rcx
	addq	%rdx, %rcx
	movzbl	16(%rcx), %r8d
	movzbl	27(%rcx), %edi
	movq	8(%rcx), %r9
	movq	%rcx, 8(%rsp)
	movq	%r9, 24(%rsp)
	movb	%r8b, 16(%rsp)
	call	_ZN8opendnp38Database19ConvertToEventClassENS_10PointClassERNS_10EventClassE@PLT
	testb	%al, %al
	movq	8(%rsp), %rcx
	movzbl	16(%rsp), %r8d
	movq	24(%rsp), %r9
	movq	32(%rsp), %rdx
	je	.L180
	cmpb	40(%rcx), %r14b
	je	.L180
	movq	8(%r13), %rdi
	movzwl	24(%rcx), %r10d
	movq	%r9, 48(%rcx)
	movb	%r8b, 56(%rcx)
	movzbl	28(%rcx), %esi
	movb	%r14b, 40(%rcx)
	movq	(%rdi), %rax
	movq	%rcx, 24(%rsp)
	movq	%r9, 16(%rsp)
	movb	%r8b, 8(%rsp)
	movq	16(%rax), %rax
	movw	%r10w, 96(%rsp)
	movzbl	64(%rsp), %r10d
	movq	%r9, 112(%rsp)
	movb	%r8b, 120(%rsp)
	movb	%sil, 128(%rsp)
	movb	%r14b, 104(%rsp)
	movq	40(%rsp), %rsi
	movb	%r10b, 98(%rsp)
	call	*%rax
	movzbl	8(%rsp), %r8d
	movq	32(%rsp), %rdx
	movq	24(%rsp), %rcx
	movq	16(%rsp), %r9
.L180:
	addl	$1, %ebx
	movb	%r14b, (%rcx)
	movq	%r9, 8(%rcx)
	cmpw	%bx, %bp
	movb	%r8b, 16(%rcx)
	jnb	.L181
	jmp	.L158
	.p2align 4,,10
	.p2align 3
.L162:
	jne	.L389
.L182:
	movq	%r15, %rdi
	call	_ZN8opendnp313StaticBuffers12GetArrayViewINS_19DoubleBitBinarySpecEEEN7openpal9ArrayViewINS_4CellIT_EEtEEv@PLT
	cmpw	%bx, %bp
	movl	%ebx, %ecx
	cmovnb	%ebp, %ecx
	cmpw	%ax, %cx
	setb	%r12b
	cmpw	%bx, %bp
	setnb	%al
	andb	%al, %r12b
	je	.L158
	leaq	96(%rsp), %rax
	leaq	64(%rsp), %r15
	movq	%rax, 40(%rsp)
	.p2align 4,,10
	.p2align 3
.L195:
	movzwl	%bx, %eax
	movq	%r15, %rsi
	movq	%rdx, 32(%rsp)
	leaq	0(,%rax,8), %rcx
	subq	%rax, %rcx
	salq	$4, %rcx
	addq	%rdx, %rcx
	movzbl	16(%rcx), %r8d
	movzbl	27(%rcx), %edi
	movq	8(%rcx), %r9
	movq	%rcx, 8(%rsp)
	movq	%r9, 24(%rsp)
	movb	%r8b, 16(%rsp)
	call	_ZN8opendnp38Database19ConvertToEventClassENS_10PointClassERNS_10EventClassE@PLT
	testb	%al, %al
	movq	8(%rsp), %rcx
	movzbl	16(%rsp), %r8d
	movq	24(%rsp), %r9
	movq	32(%rsp), %rdx
	je	.L194
	cmpb	40(%rcx), %r14b
	je	.L194
	movq	8(%r13), %rdi
	movzwl	24(%rcx), %r10d
	movq	%r9, 48(%rcx)
	movb	%r8b, 56(%rcx)
	movzbl	28(%rcx), %esi
	movb	%r14b, 40(%rcx)
	movq	(%rdi), %rax
	movq	%rcx, 24(%rsp)
	movq	%r9, 16(%rsp)
	movb	%r8b, 8(%rsp)
	movq	24(%rax), %rax
	movw	%r10w, 96(%rsp)
	movzbl	64(%rsp), %r10d
	movq	%r9, 112(%rsp)
	movb	%r8b, 120(%rsp)
	movb	%sil, 128(%rsp)
	movb	%r14b, 104(%rsp)
	movq	40(%rsp), %rsi
	movb	%r10b, 98(%rsp)
	call	*%rax
	movzbl	8(%rsp), %r8d
	movq	32(%rsp), %rdx
	movq	24(%rsp), %rcx
	movq	16(%rsp), %r9
.L194:
	addl	$1, %ebx
	movb	%r14b, (%rcx)
	movq	%r9, 8(%rcx)
	cmpw	%bx, %bp
	movb	%r8b, 16(%rcx)
	jnb	.L195
	jmp	.L158
	.p2align 4,,10
	.p2align 3
.L163:
	jne	.L390
.L212:
	movq	%r15, %rdi
	call	_ZN8opendnp313StaticBuffers12GetArrayViewINS_11CounterSpecEEEN7openpal9ArrayViewINS_4CellIT_EEtEEv@PLT
	cmpw	%bp, %bx
	movl	%ebp, %ecx
	cmovnb	%ebx, %ecx
	cmpw	%ax, %cx
	setb	%r12b
	cmpw	%bp, %bx
	setbe	%al
	andb	%al, %r12b
	je	.L158
	leaq	96(%rsp), %rax
	leaq	64(%rsp), %r15
	movq	%rax, 40(%rsp)
	jmp	.L228
	.p2align 4,,10
	.p2align 3
.L225:
	movq	8(%r13), %rdi
	movzwl	24(%rcx), %r10d
	movq	%r9, 56(%rcx)
	movl	%r8d, 64(%rcx)
	movzbl	28(%rcx), %esi
	movb	%r14b, 48(%rcx)
	movq	(%rdi), %rax
	movq	%rdx, 32(%rsp)
	movq	%rcx, 24(%rsp)
	movq	%r9, 16(%rsp)
	movl	%r8d, 8(%rsp)
	movq	40(%rax), %rax
	movw	%r10w, 96(%rsp)
	movzbl	64(%rsp), %r10d
	movq	%r9, 112(%rsp)
	movl	%r8d, 120(%rsp)
	movb	%sil, 128(%rsp)
	movb	%r14b, 104(%rsp)
	movq	40(%rsp), %rsi
	movb	%r10b, 98(%rsp)
	call	*%rax
	movq	32(%rsp), %rdx
	movq	24(%rsp), %rcx
	movq	16(%rsp), %r9
	movl	8(%rsp), %r8d
.L224:
	addl	$1, %ebx
	movb	%r14b, (%rcx)
	movq	%r9, 8(%rcx)
	cmpw	%bx, %bp
	movl	%r8d, 16(%rcx)
	jb	.L158
.L228:
	movzwl	%bx, %ecx
	movq	%r15, %rsi
	movq	%rdx, 32(%rsp)
	movq	%rcx, %rax
	salq	$4, %rax
	subq	%rcx, %rax
	leaq	(%rdx,%rax,8), %rcx
	movzbl	27(%rcx), %edi
	movq	8(%rcx), %r9
	movl	16(%rcx), %r8d
	movq	%rcx, 8(%rsp)
	movq	%r9, 24(%rsp)
	movl	%r8d, 16(%rsp)
	call	_ZN8opendnp38Database19ConvertToEventClassENS_10PointClassERNS_10EventClassE@PLT
	testb	%al, %al
	movq	8(%rsp), %rcx
	movl	16(%rsp), %r8d
	movq	24(%rsp), %r9
	movq	32(%rsp), %rdx
	je	.L224
	cmpb	48(%rcx), %r14b
	jne	.L225
	movl	64(%rcx), %eax
	movl	%r8d, %edi
	movq	%rdi, %r10
	movq	%rax, %rsi
	subq	%rax, %r10
	subq	%rdi, %rax
	cmpl	%r8d, %esi
	movl	32(%rcx), %esi
	cmovb	%r10, %rax
	cmpq	%rax, %rsi
	jb	.L225
	jmp	.L224
	.p2align 4,,10
	.p2align 3
.L164:
	jne	.L391
.L229:
	movq	%r15, %rdi
	call	_ZN8opendnp313StaticBuffers12GetArrayViewINS_17FrozenCounterSpecEEEN7openpal9ArrayViewINS_4CellIT_EEtEEv@PLT
	cmpw	%bp, %bx
	movl	%ebp, %ecx
	cmovnb	%ebx, %ecx
	cmpw	%ax, %cx
	setb	%r12b
	cmpw	%bp, %bx
	setbe	%al
	andb	%al, %r12b
	je	.L158
	leaq	96(%rsp), %rax
	leaq	64(%rsp), %r15
	movq	%rax, 40(%rsp)
	jmp	.L245
	.p2align 4,,10
	.p2align 3
.L242:
	movq	8(%r13), %rdi
	movzwl	24(%rcx), %r10d
	movq	%r9, 56(%rcx)
	movl	%r8d, 64(%rcx)
	movzbl	28(%rcx), %esi
	movb	%r14b, 48(%rcx)
	movq	(%rdi), %rax
	movq	%rdx, 32(%rsp)
	movq	%rcx, 24(%rsp)
	movq	%r9, 16(%rsp)
	movl	%r8d, 8(%rsp)
	movq	48(%rax), %rax
	movw	%r10w, 96(%rsp)
	movzbl	64(%rsp), %r10d
	movq	%r9, 112(%rsp)
	movl	%r8d, 120(%rsp)
	movb	%sil, 128(%rsp)
	movb	%r14b, 104(%rsp)
	movq	40(%rsp), %rsi
	movb	%r10b, 98(%rsp)
	call	*%rax
	movq	32(%rsp), %rdx
	movq	24(%rsp), %rcx
	movq	16(%rsp), %r9
	movl	8(%rsp), %r8d
.L241:
	addl	$1, %ebx
	movb	%r14b, (%rcx)
	movq	%r9, 8(%rcx)
	cmpw	%bx, %bp
	movl	%r8d, 16(%rcx)
	jb	.L158
.L245:
	movzwl	%bx, %ecx
	movq	%r15, %rsi
	movq	%rdx, 32(%rsp)
	movq	%rcx, %rax
	salq	$4, %rax
	subq	%rcx, %rax
	leaq	(%rdx,%rax,8), %rcx
	movzbl	27(%rcx), %edi
	movq	8(%rcx), %r9
	movl	16(%rcx), %r8d
	movq	%rcx, 8(%rsp)
	movq	%r9, 24(%rsp)
	movl	%r8d, 16(%rsp)
	call	_ZN8opendnp38Database19ConvertToEventClassENS_10PointClassERNS_10EventClassE@PLT
	testb	%al, %al
	movq	8(%rsp), %rcx
	movl	16(%rsp), %r8d
	movq	24(%rsp), %r9
	movq	32(%rsp), %rdx
	je	.L241
	cmpb	48(%rcx), %r14b
	jne	.L242
	movl	64(%rcx), %eax
	movl	%r8d, %edi
	movq	%rdi, %r10
	movq	%rax, %rsi
	subq	%rax, %r10
	subq	%rdi, %rax
	cmpl	%r8d, %esi
	movl	32(%rcx), %esi
	cmovb	%r10, %rax
	cmpq	%rax, %rsi
	jb	.L242
	jmp	.L241
	.p2align 4,,10
	.p2align 3
.L165:
	jne	.L392
.L196:
	movq	%r15, %rdi
	call	_ZN8opendnp313StaticBuffers12GetArrayViewINS_10AnalogSpecEEEN7openpal9ArrayViewINS_4CellIT_EEtEEv@PLT
	cmpw	%bx, %bp
	movq	%rdx, 16(%rsp)
	movl	%ebx, %edx
	cmovnb	%ebp, %edx
	cmpw	%ax, %dx
	setb	%r12b
	cmpw	%bx, %bp
	setnb	%al
	andb	%al, %r12b
	je	.L158
	leaq	63(%rsp), %rax
	movq	%rax, 8(%rsp)
	leaq	64(%rsp), %rax
	movq	%rax, 24(%rsp)
	leaq	96(%rsp), %rax
	movq	%rax, 32(%rsp)
	.p2align 4,,10
	.p2align 3
.L211:
	movzwl	%bx, %edx
	movq	16(%rsp), %rdi
	movq	8(%rsp), %rsi
	movq	%rdx, %rax
	salq	$4, %rax
	subq	%rdx, %rax
	leaq	(%rdi,%rax,8), %r15
	movdqu	(%r15), %xmm0
	movzbl	27(%r15), %edi
	movaps	%xmm0, 64(%rsp)
	movq	16(%r15), %rax
	movb	%r14b, 64(%rsp)
	movq	%rax, 80(%rsp)
	call	_ZN8opendnp38Database19ConvertToEventClassENS_10PointClassERNS_10EventClassE@PLT
	testb	%al, %al
	je	.L209
	movq	24(%rsp), %rdi
	leaq	48(%r15), %rsi
	movsd	32(%r15), %xmm0
	call	_ZN8opendnp312measurements7IsEventERKNS_16TypedMeasurementIdEES4_d@PLT
	testb	%al, %al
	je	.L209
	movdqa	64(%rsp), %xmm0
	movq	8(%r13), %rdi
	movzwl	24(%r15), %esi
	movups	%xmm0, 48(%r15)
	movq	80(%rsp), %rax
	movzbl	28(%r15), %ecx
	movq	%rax, 64(%r15)
	movq	(%rdi), %rax
	movdqa	64(%rsp), %xmm0
	movq	32(%rax), %rax
	movw	%si, 96(%rsp)
	movzbl	63(%rsp), %esi
	movb	%cl, 128(%rsp)
	movups	%xmm0, 104(%rsp)
	movb	%sil, 98(%rsp)
	movq	80(%rsp), %rsi
	movq	%rsi, 120(%rsp)
	movq	32(%rsp), %rsi
	call	*%rax
.L209:
	movdqa	64(%rsp), %xmm0
	addl	$1, %ebx
	cmpw	%bx, %bp
	movups	%xmm0, (%r15)
	movq	80(%rsp), %rax
	movq	%rax, 16(%r15)
	jnb	.L211
	jmp	.L158
	.p2align 4,,10
	.p2align 3
.L388:
	movq	%r15, %rdi
	call	_ZN8opendnp313StaticBuffers12GetArrayViewINS_10BinarySpecEEEN7openpal9ArrayViewINS_4CellIT_EEtEEv@PLT
	testw	%ax, %ax
	je	.L169
	leal	-1(%rax), %ecx
	xorl	%esi, %esi
	jmp	.L170
	.p2align 4,,10
	.p2align 3
.L172:
	testw	%cx, %cx
	je	.L169
	leal	-1(%r12), %ecx
.L173:
	cmpw	%si, %cx
	jb	.L169
.L170:
	movzwl	%si, %eax
	movzwl	%cx, %r12d
	subl	%eax, %r12d
	movl	%r12d, %eax
	shrl	$31, %r12d
	addl	%eax, %r12d
	sarl	%r12d
	addl	%esi, %r12d
	movzwl	%r12w, %edi
	leaq	0(,%rdi,8), %rax
	subq	%rdi, %rax
	salq	$4, %rax
	cmpw	24(%rdx,%rax), %bx
	je	.L278
	jbe	.L172
	movl	%esi, 8(%rsp)
	movq	%rdx, 24(%rsp)
	movl	%ecx, 16(%rsp)
	call	_ZN7openpal8MaxValueItEET_v@PLT
	movl	8(%rsp), %esi
	cmpw	%si, %ax
	jbe	.L169
	leal	1(%r12), %esi
	movl	16(%rsp), %ecx
	movq	24(%rsp), %rdx
	jmp	.L173
	.p2align 4,,10
	.p2align 3
.L387:
	movq	%r15, %rdi
	call	_ZN8opendnp313StaticBuffers12GetArrayViewINS_22AnalogOutputStatusSpecEEEN7openpal9ArrayViewINS_4CellIT_EEtEEv@PLT
	testw	%ax, %ax
	je	.L261
	leal	-1(%rax), %ecx
	xorl	%esi, %esi
	jmp	.L262
	.p2align 4,,10
	.p2align 3
.L264:
	testw	%cx, %cx
	je	.L261
	leal	-1(%r12), %ecx
.L265:
	cmpw	%si, %cx
	jb	.L261
.L262:
	movzwl	%si, %eax
	movzwl	%cx, %r12d
	subl	%eax, %r12d
	movl	%r12d, %eax
	shrl	$31, %r12d
	addl	%eax, %r12d
	sarl	%r12d
	addl	%esi, %r12d
	movzwl	%r12w, %edi
	movq	%rdi, %rax
	salq	$4, %rax
	subq	%rdi, %rax
	cmpw	24(%rdx,%rax,8), %bx
	je	.L290
	jbe	.L264
	movl	%esi, 8(%rsp)
	movq	%rdx, 24(%rsp)
	movl	%ecx, 16(%rsp)
	call	_ZN7openpal8MaxValueItEET_v@PLT
	movl	8(%rsp), %esi
	cmpw	%si, %ax
	jbe	.L261
	leal	1(%r12), %esi
	movl	16(%rsp), %ecx
	movq	24(%rsp), %rdx
	jmp	.L265
	.p2align 4,,10
	.p2align 3
.L390:
	movq	%r15, %rdi
	call	_ZN8opendnp313StaticBuffers12GetArrayViewINS_11CounterSpecEEEN7openpal9ArrayViewINS_4CellIT_EEtEEv@PLT
	testw	%ax, %ax
	je	.L213
	leal	-1(%rax), %ecx
	xorl	%esi, %esi
	jmp	.L214
	.p2align 4,,10
	.p2align 3
.L216:
	testw	%cx, %cx
	je	.L213
	leal	-1(%r12), %ecx
.L217:
	cmpw	%cx, %si
	ja	.L213
.L214:
	movzwl	%si, %eax
	movzwl	%cx, %r12d
	subl	%eax, %r12d
	movl	%r12d, %eax
	shrl	$31, %r12d
	addl	%eax, %r12d
	sarl	%r12d
	addl	%esi, %r12d
	movzwl	%r12w, %edi
	movq	%rdi, %rax
	salq	$4, %rax
	subq	%rdi, %rax
	cmpw	24(%rdx,%rax,8), %bx
	je	.L284
	jbe	.L216
	movl	%esi, 8(%rsp)
	movq	%rdx, 24(%rsp)
	movl	%ecx, 16(%rsp)
	call	_ZN7openpal8MaxValueItEET_v@PLT
	movl	8(%rsp), %esi
	cmpw	%si, %ax
	jbe	.L213
	leal	1(%r12), %esi
	movl	16(%rsp), %ecx
	movq	24(%rsp), %rdx
	jmp	.L217
	.p2align 4,,10
	.p2align 3
.L389:
	movq	%r15, %rdi
	call	_ZN8opendnp313StaticBuffers12GetArrayViewINS_19DoubleBitBinarySpecEEEN7openpal9ArrayViewINS_4CellIT_EEtEEv@PLT
	testw	%ax, %ax
	je	.L183
	leal	-1(%rax), %ecx
	xorl	%esi, %esi
	jmp	.L184
	.p2align 4,,10
	.p2align 3
.L186:
	testw	%cx, %cx
	je	.L183
	leal	-1(%r12), %ecx
.L187:
	cmpw	%si, %cx
	jb	.L183
.L184:
	movzwl	%si, %eax
	movzwl	%cx, %r12d
	subl	%eax, %r12d
	movl	%r12d, %eax
	shrl	$31, %r12d
	addl	%eax, %r12d
	sarl	%r12d
	addl	%esi, %r12d
	movzwl	%r12w, %edi
	leaq	0(,%rdi,8), %rax
	subq	%rdi, %rax
	salq	$4, %rax
	cmpw	24(%rdx,%rax), %bx
	je	.L280
	jbe	.L186
	movl	%esi, 8(%rsp)
	movq	%rdx, 24(%rsp)
	movl	%ecx, 16(%rsp)
	call	_ZN7openpal8MaxValueItEET_v@PLT
	movl	8(%rsp), %esi
	cmpw	%si, %ax
	jbe	.L183
	leal	1(%r12), %esi
	movl	16(%rsp), %ecx
	movq	24(%rsp), %rdx
	jmp	.L187
	.p2align 4,,10
	.p2align 3
.L392:
	movq	%r15, %rdi
	call	_ZN8opendnp313StaticBuffers12GetArrayViewINS_10AnalogSpecEEEN7openpal9ArrayViewINS_4CellIT_EEtEEv@PLT
	testw	%ax, %ax
	je	.L197
	leal	-1(%rax), %ecx
	xorl	%esi, %esi
	jmp	.L198
	.p2align 4,,10
	.p2align 3
.L200:
	testw	%cx, %cx
	je	.L197
	leal	-1(%r12), %ecx
.L201:
	cmpw	%si, %cx
	jb	.L197
.L198:
	movzwl	%si, %eax
	movzwl	%cx, %r12d
	subl	%eax, %r12d
	movl	%r12d, %eax
	shrl	$31, %r12d
	addl	%eax, %r12d
	sarl	%r12d
	addl	%esi, %r12d
	movzwl	%r12w, %edi
	movq	%rdi, %rax
	salq	$4, %rax
	subq	%rdi, %rax
	cmpw	24(%rdx,%rax,8), %bx
	je	.L282
	jbe	.L200
	movl	%esi, 8(%rsp)
	movq	%rdx, 24(%rsp)
	movl	%ecx, 16(%rsp)
	call	_ZN7openpal8MaxValueItEET_v@PLT
	movl	8(%rsp), %esi
	cmpw	%si, %ax
	jbe	.L197
	leal	1(%r12), %esi
	movl	16(%rsp), %ecx
	movq	24(%rsp), %rdx
	jmp	.L201
	.p2align 4,,10
	.p2align 3
.L391:
	movq	%r15, %rdi
	call	_ZN8opendnp313StaticBuffers12GetArrayViewINS_17FrozenCounterSpecEEEN7openpal9ArrayViewINS_4CellIT_EEtEEv@PLT
	testw	%ax, %ax
	je	.L230
	leal	-1(%rax), %ecx
	xorl	%esi, %esi
	jmp	.L231
	.p2align 4,,10
	.p2align 3
.L233:
	testw	%cx, %cx
	je	.L230
	leal	-1(%r12), %ecx
.L234:
	cmpw	%si, %cx
	jb	.L230
.L231:
	movzwl	%si, %eax
	movzwl	%cx, %r12d
	subl	%eax, %r12d
	movl	%r12d, %eax
	shrl	$31, %r12d
	addl	%eax, %r12d
	sarl	%r12d
	addl	%esi, %r12d
	movzwl	%r12w, %edi
	movq	%rdi, %rax
	salq	$4, %rax
	subq	%rdi, %rax
	cmpw	24(%rdx,%rax,8), %bx
	je	.L286
	jbe	.L233
	movl	%esi, 8(%rsp)
	movq	%rdx, 24(%rsp)
	movl	%ecx, 16(%rsp)
	call	_ZN7openpal8MaxValueItEET_v@PLT
	movl	8(%rsp), %esi
	cmpw	%si, %ax
	jbe	.L230
	leal	1(%r12), %esi
	movl	16(%rsp), %ecx
	movq	24(%rsp), %rdx
	jmp	.L234
	.p2align 4,,10
	.p2align 3
.L384:
	movq	%r15, %rdi
	call	_ZN8opendnp313StaticBuffers12GetArrayViewINS_22BinaryOutputStatusSpecEEEN7openpal9ArrayViewINS_4CellIT_EEtEEv@PLT
	testw	%ax, %ax
	je	.L247
	leal	-1(%rax), %ecx
	xorl	%esi, %esi
	jmp	.L248
	.p2align 4,,10
	.p2align 3
.L250:
	testw	%cx, %cx
	je	.L247
	leal	-1(%r12), %ecx
.L251:
	cmpw	%si, %cx
	jb	.L247
.L248:
	movzwl	%si, %eax
	movzwl	%cx, %r12d
	subl	%eax, %r12d
	movl	%r12d, %eax
	shrl	$31, %r12d
	addl	%eax, %r12d
	sarl	%r12d
	addl	%esi, %r12d
	movzwl	%r12w, %edi
	leaq	0(,%rdi,8), %rax
	subq	%rdi, %rax
	salq	$4, %rax
	cmpw	24(%rdx,%rax), %bx
	je	.L288
	jbe	.L250
	movl	%esi, 8(%rsp)
	movq	%rdx, 24(%rsp)
	movl	%ecx, 16(%rsp)
	call	_ZN7openpal8MaxValueItEET_v@PLT
	movl	8(%rsp), %esi
	cmpw	%si, %ax
	jbe	.L247
	leal	1(%r12), %esi
	movl	16(%rsp), %ecx
	movq	24(%rsp), %rdx
	jmp	.L251
	.p2align 4,,10
	.p2align 3
.L247:
	call	_ZN7openpal8MaxValueItEET_v@PLT
	movl	%eax, %ebx
.L249:
	cmpb	$0, 16(%r13)
	je	.L246
	movq	%r15, %rdi
	call	_ZN8opendnp313StaticBuffers12GetArrayViewINS_22BinaryOutputStatusSpecEEEN7openpal9ArrayViewINS_4CellIT_EEtEEv@PLT
	testw	%ax, %ax
	je	.L252
	leal	-1(%rax), %ecx
	xorl	%esi, %esi
	jmp	.L253
	.p2align 4,,10
	.p2align 3
.L255:
	testw	%cx, %cx
	je	.L252
	leal	-1(%r12), %ecx
.L256:
	cmpw	%si, %cx
	jb	.L252
.L253:
	movzwl	%si, %eax
	movzwl	%cx, %r12d
	subl	%eax, %r12d
	movl	%r12d, %eax
	shrl	$31, %r12d
	addl	%eax, %r12d
	sarl	%r12d
	addl	%esi, %r12d
	movzwl	%r12w, %edi
	leaq	0(,%rdi,8), %rax
	subq	%rdi, %rax
	salq	$4, %rax
	cmpw	24(%rdx,%rax), %bp
	je	.L289
	jbe	.L255
	movl	%esi, 8(%rsp)
	movq	%rdx, 24(%rsp)
	movl	%ecx, 16(%rsp)
	call	_ZN7openpal8MaxValueItEET_v@PLT
	movl	8(%rsp), %esi
	cmpw	%si, %ax
	jbe	.L252
	leal	1(%r12), %esi
	movl	16(%rsp), %ecx
	movq	24(%rsp), %rdx
	jmp	.L256
	.p2align 4,,10
	.p2align 3
.L252:
	call	_ZN7openpal8MaxValueItEET_v@PLT
	movl	%eax, %ebp
	jmp	.L246
	.p2align 4,,10
	.p2align 3
.L261:
	call	_ZN7openpal8MaxValueItEET_v@PLT
	movl	%eax, %ebx
.L263:
	cmpb	$0, 16(%r13)
	je	.L260
	movq	%r15, %rdi
	call	_ZN8opendnp313StaticBuffers12GetArrayViewINS_22AnalogOutputStatusSpecEEEN7openpal9ArrayViewINS_4CellIT_EEtEEv@PLT
	testw	%ax, %ax
	je	.L266
	leal	-1(%rax), %ecx
	xorl	%esi, %esi
	jmp	.L267
	.p2align 4,,10
	.p2align 3
.L269:
	testw	%cx, %cx
	je	.L266
	leal	-1(%r12), %ecx
.L270:
	cmpw	%cx, %si
	ja	.L266
.L267:
	movzwl	%si, %eax
	movzwl	%cx, %r12d
	subl	%eax, %r12d
	movl	%r12d, %eax
	shrl	$31, %r12d
	addl	%eax, %r12d
	sarl	%r12d
	addl	%esi, %r12d
	movzwl	%r12w, %edi
	movq	%rdi, %rax
	salq	$4, %rax
	subq	%rdi, %rax
	cmpw	24(%rdx,%rax,8), %bp
	je	.L291
	jbe	.L269
	movl	%esi, 8(%rsp)
	movq	%rdx, 24(%rsp)
	movl	%ecx, 16(%rsp)
	call	_ZN7openpal8MaxValueItEET_v@PLT
	movl	8(%rsp), %esi
	cmpw	%si, %ax
	jbe	.L266
	leal	1(%r12), %esi
	movl	16(%rsp), %ecx
	movq	24(%rsp), %rdx
	jmp	.L270
	.p2align 4,,10
	.p2align 3
.L266:
	call	_ZN7openpal8MaxValueItEET_v@PLT
	movl	%eax, %ebp
	jmp	.L260
	.p2align 4,,10
	.p2align 3
.L169:
	call	_ZN7openpal8MaxValueItEET_v@PLT
	movl	%eax, %ebx
.L171:
	cmpb	$0, 16(%r13)
	je	.L168
	movq	%r15, %rdi
	call	_ZN8opendnp313StaticBuffers12GetArrayViewINS_10BinarySpecEEEN7openpal9ArrayViewINS_4CellIT_EEtEEv@PLT
	testw	%ax, %ax
	je	.L174
	leal	-1(%rax), %ecx
	xorl	%esi, %esi
	jmp	.L175
	.p2align 4,,10
	.p2align 3
.L177:
	testw	%cx, %cx
	je	.L174
	leal	-1(%r12), %ecx
.L178:
	cmpw	%si, %cx
	jb	.L174
.L175:
	movzwl	%si, %eax
	movzwl	%cx, %r12d
	subl	%eax, %r12d
	movl	%r12d, %eax
	shrl	$31, %r12d
	addl	%eax, %r12d
	sarl	%r12d
	addl	%esi, %r12d
	movzwl	%r12w, %edi
	leaq	0(,%rdi,8), %rax
	subq	%rdi, %rax
	salq	$4, %rax
	cmpw	24(%rdx,%rax), %bp
	je	.L279
	jbe	.L177
	movl	%esi, 8(%rsp)
	movq	%rdx, 24(%rsp)
	movl	%ecx, 16(%rsp)
	call	_ZN7openpal8MaxValueItEET_v@PLT
	movl	8(%rsp), %esi
	cmpw	%si, %ax
	jbe	.L174
	leal	1(%r12), %esi
	movl	16(%rsp), %ecx
	movq	24(%rsp), %rdx
	jmp	.L178
	.p2align 4,,10
	.p2align 3
.L174:
	call	_ZN7openpal8MaxValueItEET_v@PLT
	movl	%eax, %ebp
	jmp	.L168
	.p2align 4,,10
	.p2align 3
.L230:
	call	_ZN7openpal8MaxValueItEET_v@PLT
	movl	%eax, %ebx
.L232:
	cmpb	$0, 16(%r13)
	je	.L229
	movq	%r15, %rdi
	call	_ZN8opendnp313StaticBuffers12GetArrayViewINS_17FrozenCounterSpecEEEN7openpal9ArrayViewINS_4CellIT_EEtEEv@PLT
	testw	%ax, %ax
	je	.L235
	leal	-1(%rax), %ecx
	xorl	%esi, %esi
	jmp	.L236
	.p2align 4,,10
	.p2align 3
.L238:
	testw	%cx, %cx
	je	.L235
	leal	-1(%r12), %ecx
.L239:
	cmpw	%si, %cx
	jb	.L235
.L236:
	movzwl	%si, %eax
	movzwl	%cx, %r12d
	subl	%eax, %r12d
	movl	%r12d, %eax
	shrl	$31, %r12d
	addl	%eax, %r12d
	sarl	%r12d
	addl	%esi, %r12d
	movzwl	%r12w, %edi
	movq	%rdi, %rax
	salq	$4, %rax
	subq	%rdi, %rax
	cmpw	24(%rdx,%rax,8), %bp
	je	.L287
	jbe	.L238
	movl	%esi, 8(%rsp)
	movq	%rdx, 24(%rsp)
	movl	%ecx, 16(%rsp)
	call	_ZN7openpal8MaxValueItEET_v@PLT
	movl	8(%rsp), %esi
	cmpw	%si, %ax
	jbe	.L235
	leal	1(%r12), %esi
	movl	16(%rsp), %ecx
	movq	24(%rsp), %rdx
	jmp	.L239
	.p2align 4,,10
	.p2align 3
.L235:
	call	_ZN7openpal8MaxValueItEET_v@PLT
	movl	%eax, %ebp
	jmp	.L229
	.p2align 4,,10
	.p2align 3
.L197:
	call	_ZN7openpal8MaxValueItEET_v@PLT
	movl	%eax, %ebx
.L199:
	cmpb	$0, 16(%r13)
	je	.L196
	movq	%r15, %rdi
	call	_ZN8opendnp313StaticBuffers12GetArrayViewINS_10AnalogSpecEEEN7openpal9ArrayViewINS_4CellIT_EEtEEv@PLT
	testw	%ax, %ax
	je	.L202
	leal	-1(%rax), %ecx
	xorl	%esi, %esi
	jmp	.L203
	.p2align 4,,10
	.p2align 3
.L205:
	testw	%cx, %cx
	je	.L202
	leal	-1(%r12), %ecx
.L206:
	cmpw	%cx, %si
	ja	.L202
.L203:
	movzwl	%si, %eax
	movzwl	%cx, %r12d
	subl	%eax, %r12d
	movl	%r12d, %eax
	shrl	$31, %r12d
	addl	%eax, %r12d
	sarl	%r12d
	addl	%esi, %r12d
	movzwl	%r12w, %edi
	movq	%rdi, %rax
	salq	$4, %rax
	subq	%rdi, %rax
	cmpw	24(%rdx,%rax,8), %bp
	je	.L283
	jbe	.L205
	movl	%esi, 8(%rsp)
	movq	%rdx, 24(%rsp)
	movl	%ecx, 16(%rsp)
	call	_ZN7openpal8MaxValueItEET_v@PLT
	movl	8(%rsp), %esi
	cmpw	%si, %ax
	jbe	.L202
	leal	1(%r12), %esi
	movl	16(%rsp), %ecx
	movq	24(%rsp), %rdx
	jmp	.L206
	.p2align 4,,10
	.p2align 3
.L202:
	call	_ZN7openpal8MaxValueItEET_v@PLT
	movl	%eax, %ebp
	jmp	.L196
	.p2align 4,,10
	.p2align 3
.L183:
	call	_ZN7openpal8MaxValueItEET_v@PLT
	movl	%eax, %ebx
.L185:
	cmpb	$0, 16(%r13)
	je	.L182
	movq	%r15, %rdi
	call	_ZN8opendnp313StaticBuffers12GetArrayViewINS_19DoubleBitBinarySpecEEEN7openpal9ArrayViewINS_4CellIT_EEtEEv@PLT
	testw	%ax, %ax
	je	.L188
	leal	-1(%rax), %ecx
	xorl	%esi, %esi
	jmp	.L189
	.p2align 4,,10
	.p2align 3
.L191:
	testw	%cx, %cx
	je	.L188
	leal	-1(%r12), %ecx
.L192:
	cmpw	%cx, %si
	ja	.L188
.L189:
	movzwl	%si, %eax
	movzwl	%cx, %r12d
	subl	%eax, %r12d
	movl	%r12d, %eax
	shrl	$31, %r12d
	addl	%eax, %r12d
	sarl	%r12d
	addl	%esi, %r12d
	movzwl	%r12w, %edi
	leaq	0(,%rdi,8), %rax
	subq	%rdi, %rax
	salq	$4, %rax
	cmpw	24(%rdx,%rax), %bp
	je	.L281
	jbe	.L191
	movl	%esi, 8(%rsp)
	movq	%rdx, 24(%rsp)
	movl	%ecx, 16(%rsp)
	call	_ZN7openpal8MaxValueItEET_v@PLT
	movl	8(%rsp), %esi
	cmpw	%si, %ax
	jbe	.L188
	leal	1(%r12), %esi
	movl	16(%rsp), %ecx
	movq	24(%rsp), %rdx
	jmp	.L192
	.p2align 4,,10
	.p2align 3
.L188:
	call	_ZN7openpal8MaxValueItEET_v@PLT
	movl	%eax, %ebp
	jmp	.L182
	.p2align 4,,10
	.p2align 3
.L213:
	call	_ZN7openpal8MaxValueItEET_v@PLT
	movl	%eax, %ebx
.L215:
	cmpb	$0, 16(%r13)
	je	.L212
	movq	%r15, %rdi
	call	_ZN8opendnp313StaticBuffers12GetArrayViewINS_11CounterSpecEEEN7openpal9ArrayViewINS_4CellIT_EEtEEv@PLT
	testw	%ax, %ax
	je	.L218
	leal	-1(%rax), %ecx
	xorl	%esi, %esi
	jmp	.L219
	.p2align 4,,10
	.p2align 3
.L221:
	testw	%cx, %cx
	je	.L218
	leal	-1(%r12), %ecx
.L222:
	cmpw	%si, %cx
	jb	.L218
.L219:
	movzwl	%si, %eax
	movzwl	%cx, %r12d
	subl	%eax, %r12d
	movl	%r12d, %eax
	shrl	$31, %r12d
	addl	%eax, %r12d
	sarl	%r12d
	addl	%esi, %r12d
	movzwl	%r12w, %edi
	movq	%rdi, %rax
	salq	$4, %rax
	subq	%rdi, %rax
	cmpw	24(%rdx,%rax,8), %bp
	je	.L285
	jbe	.L221
	movl	%esi, 8(%rsp)
	movq	%rdx, 24(%rsp)
	movl	%ecx, 16(%rsp)
	call	_ZN7openpal8MaxValueItEET_v@PLT
	movl	8(%rsp), %esi
	cmpw	%si, %ax
	jbe	.L218
	leal	1(%r12), %esi
	movl	16(%rsp), %ecx
	movq	24(%rsp), %rdx
	jmp	.L222
	.p2align 4,,10
	.p2align 3
.L218:
	call	_ZN7openpal8MaxValueItEET_v@PLT
	movl	%eax, %ebp
	jmp	.L212
	.p2align 4,,10
	.p2align 3
.L385:
	leaq	96(%rsp), %rax
	leaq	64(%rsp), %r15
	movq	%rax, 40(%rsp)
	.p2align 4,,10
	.p2align 3
.L259:
	movzwl	%bx, %eax
	movq	%r15, %rsi
	movq	%rdx, 32(%rsp)
	leaq	0(,%rax,8), %rcx
	subq	%rax, %rcx
	salq	$4, %rcx
	addq	%rdx, %rcx
	movzbl	16(%rcx), %r8d
	movzbl	27(%rcx), %edi
	movq	8(%rcx), %r9
	movq	%rcx, 8(%rsp)
	movq	%r9, 24(%rsp)
	movb	%r8b, 16(%rsp)
	call	_ZN8opendnp38Database19ConvertToEventClassENS_10PointClassERNS_10EventClassE@PLT
	testb	%al, %al
	movq	8(%rsp), %rcx
	movzbl	16(%rsp), %r8d
	movq	24(%rsp), %r9
	movq	32(%rsp), %rdx
	je	.L258
	cmpb	40(%rcx), %r14b
	je	.L258
	movq	8(%r13), %rdi
	movzwl	24(%rcx), %r10d
	movq	%r9, 48(%rcx)
	movb	%r8b, 56(%rcx)
	movzbl	28(%rcx), %esi
	movb	%r14b, 40(%rcx)
	movq	(%rdi), %rax
	movq	%rcx, 24(%rsp)
	movq	%r9, 16(%rsp)
	movb	%r8b, 8(%rsp)
	movq	56(%rax), %rax
	movw	%r10w, 96(%rsp)
	movzbl	64(%rsp), %r10d
	movq	%r9, 112(%rsp)
	movb	%r8b, 120(%rsp)
	movb	%sil, 128(%rsp)
	movb	%r14b, 104(%rsp)
	movq	40(%rsp), %rsi
	movb	%r10b, 98(%rsp)
	call	*%rax
	movzbl	8(%rsp), %r8d
	movq	32(%rsp), %rdx
	movq	24(%rsp), %rcx
	movq	16(%rsp), %r9
.L258:
	addl	$1, %ebx
	movb	%r14b, (%rcx)
	movq	%r9, 8(%rcx)
	cmpw	%bx, %bp
	movb	%r8b, 16(%rcx)
	jnb	.L259
	jmp	.L158
.L285:
	movl	%r12d, %ebp
	jmp	.L212
.L288:
	movl	%r12d, %ebx
	jmp	.L249
.L291:
	movl	%r12d, %ebp
	jmp	.L260
.L278:
	movl	%r12d, %ebx
	jmp	.L171
.L289:
	movl	%r12d, %ebp
	jmp	.L246
.L290:
	movl	%r12d, %ebx
	jmp	.L263
.L281:
	movl	%r12d, %ebp
	jmp	.L182
.L284:
	movl	%r12d, %ebx
	jmp	.L215
.L283:
	movl	%r12d, %ebp
	jmp	.L196
.L280:
	movl	%r12d, %ebx
	jmp	.L185
.L287:
	movl	%r12d, %ebp
	jmp	.L229
.L282:
	movl	%r12d, %ebx
	jmp	.L199
.L279:
	movl	%r12d, %ebp
	jmp	.L168
.L286:
	movl	%r12d, %ebx
	jmp	.L232
.L386:
	call	__stack_chk_fail@PLT
.L277:
	xorl	%r12d, %r12d
	jmp	.L158
	.cfi_endproc
.LFE2349:
	.size	_ZN8opendnp38Database6ModifyENS_9FlagsTypeEtth, .-_ZN8opendnp38Database6ModifyENS_9FlagsTypeEtth
	.align 2
	.p2align 4,,15
	.globl	_ZN8opendnp38Database6UpdateERKNS_6BinaryEtNS_9EventModeE
	.type	_ZN8opendnp38Database6UpdateERKNS_6BinaryEtNS_9EventModeE, @function
_ZN8opendnp38Database6UpdateERKNS_6BinaryEtNS_9EventModeE:
.LFB2341:
	.cfi_startproc
	pushq	%r15
	.cfi_def_cfa_offset 16
	.cfi_offset 15, -16
	pushq	%r14
	.cfi_def_cfa_offset 24
	.cfi_offset 14, -24
	movzwl	%dx, %r15d
	pushq	%r13
	.cfi_def_cfa_offset 32
	.cfi_offset 13, -32
	pushq	%r12
	.cfi_def_cfa_offset 40
	.cfi_offset 12, -40
	movq	%rsi, %r13
	pushq	%rbp
	.cfi_def_cfa_offset 48
	.cfi_offset 6, -48
	pushq	%rbx
	.cfi_def_cfa_offset 56
	.cfi_offset 3, -56
	movq	%rdi, %rbp
	movl	%ecx, %r14d
	leaq	48(%rdi), %r12
	subq	$88, %rsp
	.cfi_def_cfa_offset 144
	movq	%fs:40, %rax
	movq	%rax, 72(%rsp)
	xorl	%eax, %eax
	cmpb	$0, 16(%rdi)
	jne	.L414
.L394:
	movq	%r12, %rdi
	call	_ZN8opendnp313StaticBuffers12GetArrayViewINS_10BinarySpecEEEN7openpal9ArrayViewINS_4CellIT_EEtEEv@PLT
	xorl	%ecx, %ecx
	cmpw	%ax, %r15w
	jb	.L415
.L393:
	movq	72(%rsp), %rsi
	xorq	%fs:40, %rsi
	movl	%ecx, %eax
	jne	.L416
	addq	$88, %rsp
	.cfi_remember_state
	.cfi_def_cfa_offset 56
	popq	%rbx
	.cfi_def_cfa_offset 48
	popq	%rbp
	.cfi_def_cfa_offset 40
	popq	%r12
	.cfi_def_cfa_offset 32
	popq	%r13
	.cfi_def_cfa_offset 24
	popq	%r14
	.cfi_def_cfa_offset 16
	popq	%r15
	.cfi_def_cfa_offset 8
	ret
	.p2align 4,,10
	.p2align 3
.L415:
	.cfi_restore_state
	leaq	0(,%r15,8), %rbx
	leaq	31(%rsp), %rsi
	subq	%r15, %rbx
	salq	$4, %rbx
	addq	%rdx, %rbx
	movzbl	27(%rbx), %edi
	call	_ZN8opendnp38Database19ConvertToEventClassENS_10PointClassERNS_10EventClassE@PLT
	testb	%al, %al
	je	.L401
	testb	%r14b, %r14b
	je	.L402
	cmpb	$1, %r14b
	jne	.L401
.L403:
	movdqu	0(%r13), %xmm0
	leaq	32(%rsp), %rsi
	movzwl	24(%rbx), %ecx
	movq	8(%rbp), %rdi
	movups	%xmm0, 40(%rbx)
	movzbl	16(%r13), %eax
	movzbl	28(%rbx), %edx
	movb	%al, 56(%rbx)
	movq	(%rdi), %rax
	movw	%cx, 32(%rsp)
	movzbl	31(%rsp), %ecx
	movdqu	0(%r13), %xmm0
	movq	16(%rax), %rax
	movb	%dl, 64(%rsp)
	movups	%xmm0, 40(%rsp)
	movb	%cl, 34(%rsp)
	movq	16(%r13), %rcx
	movq	%rcx, 56(%rsp)
	call	*%rax
.L401:
	movdqu	0(%r13), %xmm0
	movl	$1, %ecx
	movups	%xmm0, (%rbx)
	movzbl	16(%r13), %eax
	movb	%al, 16(%rbx)
	jmp	.L393
	.p2align 4,,10
	.p2align 3
.L414:
	movq	%r12, %rdi
	call	_ZN8opendnp313StaticBuffers12GetArrayViewINS_10BinarySpecEEEN7openpal9ArrayViewINS_4CellIT_EEtEEv@PLT
	testw	%ax, %ax
	je	.L395
	leal	-1(%rax), %esi
	xorl	%edi, %edi
	jmp	.L396
	.p2align 4,,10
	.p2align 3
.L398:
	testw	%si, %si
	je	.L395
	leal	-1(%rbx), %esi
.L399:
	cmpw	%di, %si
	jb	.L395
.L396:
	movzwl	%si, %ebx
	movzwl	%di, %eax
	movl	%ebx, %ecx
	subl	%eax, %ecx
	movl	%ecx, %ebx
	shrl	$31, %ebx
	addl	%ecx, %ebx
	sarl	%ebx
	addl	%edi, %ebx
	movzwl	%bx, %ecx
	leaq	0(,%rcx,8), %rax
	subq	%rcx, %rax
	salq	$4, %rax
	cmpw	24(%rdx,%rax), %r15w
	je	.L405
	jbe	.L398
	movl	%edi, (%rsp)
	movq	%rdx, 8(%rsp)
	movl	%esi, 4(%rsp)
	call	_ZN7openpal8MaxValueItEET_v@PLT
	movl	(%rsp), %edi
	cmpw	%di, %ax
	jbe	.L395
	leal	1(%rbx), %edi
	movl	4(%rsp), %esi
	movq	8(%rsp), %rdx
	jmp	.L399
	.p2align 4,,10
	.p2align 3
.L395:
	call	_ZN7openpal8MaxValueItEET_v@PLT
	movzwl	%ax, %r15d
	jmp	.L394
	.p2align 4,,10
	.p2align 3
.L402:
	movzbl	0(%r13), %eax
	cmpb	%al, 40(%rbx)
	jne	.L403
	jmp	.L401
	.p2align 4,,10
	.p2align 3
.L405:
	movzwl	%bx, %r15d
	jmp	.L394
.L416:
	call	__stack_chk_fail@PLT
	.cfi_endproc
.LFE2341:
	.size	_ZN8opendnp38Database6UpdateERKNS_6BinaryEtNS_9EventModeE, .-_ZN8opendnp38Database6UpdateERKNS_6BinaryEtNS_9EventModeE
	.align 2
	.p2align 4,,15
	.globl	_ZN8opendnp38Database6UpdateERKNS_15DoubleBitBinaryEtNS_9EventModeE
	.type	_ZN8opendnp38Database6UpdateERKNS_15DoubleBitBinaryEtNS_9EventModeE, @function
_ZN8opendnp38Database6UpdateERKNS_15DoubleBitBinaryEtNS_9EventModeE:
.LFB2342:
	.cfi_startproc
	pushq	%r15
	.cfi_def_cfa_offset 16
	.cfi_offset 15, -16
	pushq	%r14
	.cfi_def_cfa_offset 24
	.cfi_offset 14, -24
	movzwl	%dx, %r15d
	pushq	%r13
	.cfi_def_cfa_offset 32
	.cfi_offset 13, -32
	pushq	%r12
	.cfi_def_cfa_offset 40
	.cfi_offset 12, -40
	movq	%rsi, %r13
	pushq	%rbp
	.cfi_def_cfa_offset 48
	.cfi_offset 6, -48
	pushq	%rbx
	.cfi_def_cfa_offset 56
	.cfi_offset 3, -56
	movq	%rdi, %rbp
	movl	%ecx, %r14d
	leaq	48(%rdi), %r12
	subq	$88, %rsp
	.cfi_def_cfa_offset 144
	movq	%fs:40, %rax
	movq	%rax, 72(%rsp)
	xorl	%eax, %eax
	cmpb	$0, 16(%rdi)
	jne	.L438
.L418:
	movq	%r12, %rdi
	call	_ZN8opendnp313StaticBuffers12GetArrayViewINS_19DoubleBitBinarySpecEEEN7openpal9ArrayViewINS_4CellIT_EEtEEv@PLT
	xorl	%ecx, %ecx
	cmpw	%ax, %r15w
	jb	.L439
.L417:
	movq	72(%rsp), %rsi
	xorq	%fs:40, %rsi
	movl	%ecx, %eax
	jne	.L440
	addq	$88, %rsp
	.cfi_remember_state
	.cfi_def_cfa_offset 56
	popq	%rbx
	.cfi_def_cfa_offset 48
	popq	%rbp
	.cfi_def_cfa_offset 40
	popq	%r12
	.cfi_def_cfa_offset 32
	popq	%r13
	.cfi_def_cfa_offset 24
	popq	%r14
	.cfi_def_cfa_offset 16
	popq	%r15
	.cfi_def_cfa_offset 8
	ret
	.p2align 4,,10
	.p2align 3
.L439:
	.cfi_restore_state
	leaq	0(,%r15,8), %rbx
	leaq	31(%rsp), %rsi
	subq	%r15, %rbx
	salq	$4, %rbx
	addq	%rdx, %rbx
	movzbl	27(%rbx), %edi
	call	_ZN8opendnp38Database19ConvertToEventClassENS_10PointClassERNS_10EventClassE@PLT
	testb	%al, %al
	je	.L425
	testb	%r14b, %r14b
	je	.L426
	cmpb	$1, %r14b
	jne	.L425
.L427:
	movdqu	0(%r13), %xmm0
	leaq	32(%rsp), %rsi
	movzwl	24(%rbx), %ecx
	movq	8(%rbp), %rdi
	movups	%xmm0, 40(%rbx)
	movzbl	16(%r13), %eax
	movzbl	28(%rbx), %edx
	movb	%al, 56(%rbx)
	movq	(%rdi), %rax
	movw	%cx, 32(%rsp)
	movzbl	31(%rsp), %ecx
	movdqu	0(%r13), %xmm0
	movq	24(%rax), %rax
	movb	%dl, 64(%rsp)
	movups	%xmm0, 40(%rsp)
	movb	%cl, 34(%rsp)
	movq	16(%r13), %rcx
	movq	%rcx, 56(%rsp)
	call	*%rax
.L425:
	movdqu	0(%r13), %xmm0
	movl	$1, %ecx
	movups	%xmm0, (%rbx)
	movzbl	16(%r13), %eax
	movb	%al, 16(%rbx)
	jmp	.L417
	.p2align 4,,10
	.p2align 3
.L438:
	movq	%r12, %rdi
	call	_ZN8opendnp313StaticBuffers12GetArrayViewINS_19DoubleBitBinarySpecEEEN7openpal9ArrayViewINS_4CellIT_EEtEEv@PLT
	testw	%ax, %ax
	je	.L419
	leal	-1(%rax), %esi
	xorl	%edi, %edi
	jmp	.L420
	.p2align 4,,10
	.p2align 3
.L422:
	testw	%si, %si
	je	.L419
	leal	-1(%rbx), %esi
.L423:
	cmpw	%di, %si
	jb	.L419
.L420:
	movzwl	%si, %ebx
	movzwl	%di, %eax
	movl	%ebx, %ecx
	subl	%eax, %ecx
	movl	%ecx, %ebx
	shrl	$31, %ebx
	addl	%ecx, %ebx
	sarl	%ebx
	addl	%edi, %ebx
	movzwl	%bx, %ecx
	leaq	0(,%rcx,8), %rax
	subq	%rcx, %rax
	salq	$4, %rax
	cmpw	24(%rdx,%rax), %r15w
	je	.L429
	jbe	.L422
	movl	%edi, (%rsp)
	movq	%rdx, 8(%rsp)
	movl	%esi, 4(%rsp)
	call	_ZN7openpal8MaxValueItEET_v@PLT
	movl	(%rsp), %edi
	cmpw	%di, %ax
	jbe	.L419
	leal	1(%rbx), %edi
	movl	4(%rsp), %esi
	movq	8(%rsp), %rdx
	jmp	.L423
	.p2align 4,,10
	.p2align 3
.L419:
	call	_ZN7openpal8MaxValueItEET_v@PLT
	movzwl	%ax, %r15d
	jmp	.L418
	.p2align 4,,10
	.p2align 3
.L426:
	movzbl	0(%r13), %eax
	cmpb	%al, 40(%rbx)
	jne	.L427
	jmp	.L425
	.p2align 4,,10
	.p2align 3
.L429:
	movzwl	%bx, %r15d
	jmp	.L418
.L440:
	call	__stack_chk_fail@PLT
	.cfi_endproc
.LFE2342:
	.size	_ZN8opendnp38Database6UpdateERKNS_15DoubleBitBinaryEtNS_9EventModeE, .-_ZN8opendnp38Database6UpdateERKNS_15DoubleBitBinaryEtNS_9EventModeE
	.align 2
	.p2align 4,,15
	.globl	_ZN8opendnp38Database6UpdateERKNS_18BinaryOutputStatusEtNS_9EventModeE
	.type	_ZN8opendnp38Database6UpdateERKNS_18BinaryOutputStatusEtNS_9EventModeE, @function
_ZN8opendnp38Database6UpdateERKNS_18BinaryOutputStatusEtNS_9EventModeE:
.LFB2346:
	.cfi_startproc
	pushq	%r15
	.cfi_def_cfa_offset 16
	.cfi_offset 15, -16
	pushq	%r14
	.cfi_def_cfa_offset 24
	.cfi_offset 14, -24
	movzwl	%dx, %r15d
	pushq	%r13
	.cfi_def_cfa_offset 32
	.cfi_offset 13, -32
	pushq	%r12
	.cfi_def_cfa_offset 40
	.cfi_offset 12, -40
	movq	%rsi, %r13
	pushq	%rbp
	.cfi_def_cfa_offset 48
	.cfi_offset 6, -48
	pushq	%rbx
	.cfi_def_cfa_offset 56
	.cfi_offset 3, -56
	movq	%rdi, %rbp
	movl	%ecx, %r14d
	leaq	48(%rdi), %r12
	subq	$88, %rsp
	.cfi_def_cfa_offset 144
	movq	%fs:40, %rax
	movq	%rax, 72(%rsp)
	xorl	%eax, %eax
	cmpb	$0, 16(%rdi)
	jne	.L462
.L442:
	movq	%r12, %rdi
	call	_ZN8opendnp313StaticBuffers12GetArrayViewINS_22BinaryOutputStatusSpecEEEN7openpal9ArrayViewINS_4CellIT_EEtEEv@PLT
	xorl	%ecx, %ecx
	cmpw	%ax, %r15w
	jb	.L463
.L441:
	movq	72(%rsp), %rsi
	xorq	%fs:40, %rsi
	movl	%ecx, %eax
	jne	.L464
	addq	$88, %rsp
	.cfi_remember_state
	.cfi_def_cfa_offset 56
	popq	%rbx
	.cfi_def_cfa_offset 48
	popq	%rbp
	.cfi_def_cfa_offset 40
	popq	%r12
	.cfi_def_cfa_offset 32
	popq	%r13
	.cfi_def_cfa_offset 24
	popq	%r14
	.cfi_def_cfa_offset 16
	popq	%r15
	.cfi_def_cfa_offset 8
	ret
	.p2align 4,,10
	.p2align 3
.L463:
	.cfi_restore_state
	leaq	0(,%r15,8), %rbx
	leaq	31(%rsp), %rsi
	subq	%r15, %rbx
	salq	$4, %rbx
	addq	%rdx, %rbx
	movzbl	27(%rbx), %edi
	call	_ZN8opendnp38Database19ConvertToEventClassENS_10PointClassERNS_10EventClassE@PLT
	testb	%al, %al
	je	.L449
	testb	%r14b, %r14b
	je	.L450
	cmpb	$1, %r14b
	jne	.L449
.L451:
	movdqu	0(%r13), %xmm0
	leaq	32(%rsp), %rsi
	movzwl	24(%rbx), %ecx
	movq	8(%rbp), %rdi
	movups	%xmm0, 40(%rbx)
	movzbl	16(%r13), %eax
	movzbl	28(%rbx), %edx
	movb	%al, 56(%rbx)
	movq	(%rdi), %rax
	movw	%cx, 32(%rsp)
	movzbl	31(%rsp), %ecx
	movdqu	0(%r13), %xmm0
	movq	56(%rax), %rax
	movb	%dl, 64(%rsp)
	movups	%xmm0, 40(%rsp)
	movb	%cl, 34(%rsp)
	movq	16(%r13), %rcx
	movq	%rcx, 56(%rsp)
	call	*%rax
.L449:
	movdqu	0(%r13), %xmm0
	movl	$1, %ecx
	movups	%xmm0, (%rbx)
	movzbl	16(%r13), %eax
	movb	%al, 16(%rbx)
	jmp	.L441
	.p2align 4,,10
	.p2align 3
.L462:
	movq	%r12, %rdi
	call	_ZN8opendnp313StaticBuffers12GetArrayViewINS_22BinaryOutputStatusSpecEEEN7openpal9ArrayViewINS_4CellIT_EEtEEv@PLT
	testw	%ax, %ax
	je	.L443
	leal	-1(%rax), %esi
	xorl	%edi, %edi
	jmp	.L444
	.p2align 4,,10
	.p2align 3
.L446:
	testw	%si, %si
	je	.L443
	leal	-1(%rbx), %esi
.L447:
	cmpw	%di, %si
	jb	.L443
.L444:
	movzwl	%si, %ebx
	movzwl	%di, %eax
	movl	%ebx, %ecx
	subl	%eax, %ecx
	movl	%ecx, %ebx
	shrl	$31, %ebx
	addl	%ecx, %ebx
	sarl	%ebx
	addl	%edi, %ebx
	movzwl	%bx, %ecx
	leaq	0(,%rcx,8), %rax
	subq	%rcx, %rax
	salq	$4, %rax
	cmpw	24(%rdx,%rax), %r15w
	je	.L453
	jbe	.L446
	movl	%edi, (%rsp)
	movq	%rdx, 8(%rsp)
	movl	%esi, 4(%rsp)
	call	_ZN7openpal8MaxValueItEET_v@PLT
	movl	(%rsp), %edi
	cmpw	%di, %ax
	jbe	.L443
	leal	1(%rbx), %edi
	movl	4(%rsp), %esi
	movq	8(%rsp), %rdx
	jmp	.L447
	.p2align 4,,10
	.p2align 3
.L443:
	call	_ZN7openpal8MaxValueItEET_v@PLT
	movzwl	%ax, %r15d
	jmp	.L442
	.p2align 4,,10
	.p2align 3
.L450:
	movzbl	0(%r13), %eax
	cmpb	%al, 40(%rbx)
	jne	.L451
	jmp	.L449
	.p2align 4,,10
	.p2align 3
.L453:
	movzwl	%bx, %r15d
	jmp	.L442
.L464:
	call	__stack_chk_fail@PLT
	.cfi_endproc
.LFE2346:
	.size	_ZN8opendnp38Database6UpdateERKNS_18BinaryOutputStatusEtNS_9EventModeE, .-_ZN8opendnp38Database6UpdateERKNS_18BinaryOutputStatusEtNS_9EventModeE
	.align 2
	.p2align 4,,15
	.globl	_ZN8opendnp38Database6UpdateERKNS_6AnalogEtNS_9EventModeE
	.type	_ZN8opendnp38Database6UpdateERKNS_6AnalogEtNS_9EventModeE, @function
_ZN8opendnp38Database6UpdateERKNS_6AnalogEtNS_9EventModeE:
.LFB2343:
	.cfi_startproc
	pushq	%r15
	.cfi_def_cfa_offset 16
	.cfi_offset 15, -16
	pushq	%r14
	.cfi_def_cfa_offset 24
	.cfi_offset 14, -24
	movzwl	%dx, %r15d
	pushq	%r13
	.cfi_def_cfa_offset 32
	.cfi_offset 13, -32
	pushq	%r12
	.cfi_def_cfa_offset 40
	.cfi_offset 12, -40
	movq	%rsi, %r13
	pushq	%rbp
	.cfi_def_cfa_offset 48
	.cfi_offset 6, -48
	pushq	%rbx
	.cfi_def_cfa_offset 56
	.cfi_offset 3, -56
	movq	%rdi, %rbp
	movl	%ecx, %r14d
	leaq	48(%rdi), %r12
	subq	$88, %rsp
	.cfi_def_cfa_offset 144
	movq	%fs:40, %rax
	movq	%rax, 72(%rsp)
	xorl	%eax, %eax
	cmpb	$0, 16(%rdi)
	jne	.L488
.L466:
	movq	%r12, %rdi
	call	_ZN8opendnp313StaticBuffers12GetArrayViewINS_10AnalogSpecEEEN7openpal9ArrayViewINS_4CellIT_EEtEEv@PLT
	xorl	%ecx, %ecx
	cmpw	%ax, %r15w
	jb	.L489
.L465:
	movq	72(%rsp), %rsi
	xorq	%fs:40, %rsi
	movl	%ecx, %eax
	jne	.L490
	addq	$88, %rsp
	.cfi_remember_state
	.cfi_def_cfa_offset 56
	popq	%rbx
	.cfi_def_cfa_offset 48
	popq	%rbp
	.cfi_def_cfa_offset 40
	popq	%r12
	.cfi_def_cfa_offset 32
	popq	%r13
	.cfi_def_cfa_offset 24
	popq	%r14
	.cfi_def_cfa_offset 16
	popq	%r15
	.cfi_def_cfa_offset 8
	ret
	.p2align 4,,10
	.p2align 3
.L489:
	.cfi_restore_state
	movq	%r15, %rax
	leaq	31(%rsp), %rsi
	salq	$4, %rax
	subq	%r15, %rax
	leaq	(%rdx,%rax,8), %rbx
	movzbl	27(%rbx), %edi
	call	_ZN8opendnp38Database19ConvertToEventClassENS_10PointClassERNS_10EventClassE@PLT
	testb	%al, %al
	je	.L474
	testb	%r14b, %r14b
	je	.L475
	cmpb	$1, %r14b
	jne	.L474
.L476:
	movdqu	0(%r13), %xmm0
	leaq	32(%rsp), %rsi
	movzwl	24(%rbx), %ecx
	movq	8(%rbp), %rdi
	movups	%xmm0, 48(%rbx)
	movq	16(%r13), %rax
	movzbl	28(%rbx), %edx
	movq	%rax, 64(%rbx)
	movq	(%rdi), %rax
	movw	%cx, 32(%rsp)
	movzbl	31(%rsp), %ecx
	movdqu	0(%r13), %xmm0
	movq	32(%rax), %rax
	movb	%dl, 64(%rsp)
	movups	%xmm0, 40(%rsp)
	movb	%cl, 34(%rsp)
	movq	16(%r13), %rcx
	movq	%rcx, 56(%rsp)
	call	*%rax
.L474:
	movdqu	0(%r13), %xmm0
	movl	$1, %ecx
	movups	%xmm0, (%rbx)
	movq	16(%r13), %rax
	movq	%rax, 16(%rbx)
	jmp	.L465
	.p2align 4,,10
	.p2align 3
.L488:
	movq	%r12, %rdi
	call	_ZN8opendnp313StaticBuffers12GetArrayViewINS_10AnalogSpecEEEN7openpal9ArrayViewINS_4CellIT_EEtEEv@PLT
	testw	%ax, %ax
	je	.L467
	leal	-1(%rax), %esi
	xorl	%edi, %edi
	jmp	.L468
	.p2align 4,,10
	.p2align 3
.L470:
	testw	%si, %si
	je	.L467
	leal	-1(%rbx), %esi
.L471:
	cmpw	%di, %si
	jb	.L467
.L468:
	movzwl	%si, %ebx
	movzwl	%di, %eax
	movl	%ebx, %ecx
	subl	%eax, %ecx
	movl	%ecx, %ebx
	shrl	$31, %ebx
	addl	%ecx, %ebx
	sarl	%ebx
	addl	%edi, %ebx
	movzwl	%bx, %ecx
	movq	%rcx, %rax
	salq	$4, %rax
	subq	%rcx, %rax
	cmpw	24(%rdx,%rax,8), %r15w
	je	.L479
	jbe	.L470
	movl	%edi, (%rsp)
	movq	%rdx, 8(%rsp)
	movl	%esi, 4(%rsp)
	call	_ZN7openpal8MaxValueItEET_v@PLT
	movl	(%rsp), %edi
	cmpw	%di, %ax
	jbe	.L467
	leal	1(%rbx), %edi
	movl	4(%rsp), %esi
	movq	8(%rsp), %rdx
	jmp	.L471
	.p2align 4,,10
	.p2align 3
.L467:
	call	_ZN7openpal8MaxValueItEET_v@PLT
	movzwl	%ax, %r15d
	jmp	.L466
	.p2align 4,,10
	.p2align 3
.L475:
	leaq	48(%rbx), %rsi
	movsd	32(%rbx), %xmm0
	movq	%r13, %rdi
	call	_ZN8opendnp312measurements7IsEventERKNS_16TypedMeasurementIdEES4_d@PLT
	testb	%al, %al
	jne	.L476
	jmp	.L474
	.p2align 4,,10
	.p2align 3
.L479:
	movzwl	%bx, %r15d
	jmp	.L466
.L490:
	call	__stack_chk_fail@PLT
	.cfi_endproc
.LFE2343:
	.size	_ZN8opendnp38Database6UpdateERKNS_6AnalogEtNS_9EventModeE, .-_ZN8opendnp38Database6UpdateERKNS_6AnalogEtNS_9EventModeE
	.align 2
	.p2align 4,,15
	.globl	_ZN8opendnp38Database6UpdateERKNS_18AnalogOutputStatusEtNS_9EventModeE
	.type	_ZN8opendnp38Database6UpdateERKNS_18AnalogOutputStatusEtNS_9EventModeE, @function
_ZN8opendnp38Database6UpdateERKNS_18AnalogOutputStatusEtNS_9EventModeE:
.LFB2347:
	.cfi_startproc
	pushq	%r15
	.cfi_def_cfa_offset 16
	.cfi_offset 15, -16
	pushq	%r14
	.cfi_def_cfa_offset 24
	.cfi_offset 14, -24
	movzwl	%dx, %r15d
	pushq	%r13
	.cfi_def_cfa_offset 32
	.cfi_offset 13, -32
	pushq	%r12
	.cfi_def_cfa_offset 40
	.cfi_offset 12, -40
	movq	%rsi, %r13
	pushq	%rbp
	.cfi_def_cfa_offset 48
	.cfi_offset 6, -48
	pushq	%rbx
	.cfi_def_cfa_offset 56
	.cfi_offset 3, -56
	movq	%rdi, %rbp
	movl	%ecx, %r14d
	leaq	48(%rdi), %r12
	subq	$88, %rsp
	.cfi_def_cfa_offset 144
	movq	%fs:40, %rax
	movq	%rax, 72(%rsp)
	xorl	%eax, %eax
	cmpb	$0, 16(%rdi)
	jne	.L514
.L492:
	movq	%r12, %rdi
	call	_ZN8opendnp313StaticBuffers12GetArrayViewINS_22AnalogOutputStatusSpecEEEN7openpal9ArrayViewINS_4CellIT_EEtEEv@PLT
	xorl	%ecx, %ecx
	cmpw	%ax, %r15w
	jb	.L515
.L491:
	movq	72(%rsp), %rsi
	xorq	%fs:40, %rsi
	movl	%ecx, %eax
	jne	.L516
	addq	$88, %rsp
	.cfi_remember_state
	.cfi_def_cfa_offset 56
	popq	%rbx
	.cfi_def_cfa_offset 48
	popq	%rbp
	.cfi_def_cfa_offset 40
	popq	%r12
	.cfi_def_cfa_offset 32
	popq	%r13
	.cfi_def_cfa_offset 24
	popq	%r14
	.cfi_def_cfa_offset 16
	popq	%r15
	.cfi_def_cfa_offset 8
	ret
	.p2align 4,,10
	.p2align 3
.L515:
	.cfi_restore_state
	movq	%r15, %rax
	leaq	31(%rsp), %rsi
	salq	$4, %rax
	subq	%r15, %rax
	leaq	(%rdx,%rax,8), %rbx
	movzbl	27(%rbx), %edi
	call	_ZN8opendnp38Database19ConvertToEventClassENS_10PointClassERNS_10EventClassE@PLT
	testb	%al, %al
	je	.L500
	testb	%r14b, %r14b
	je	.L501
	cmpb	$1, %r14b
	jne	.L500
.L502:
	movdqu	0(%r13), %xmm0
	leaq	32(%rsp), %rsi
	movzwl	24(%rbx), %ecx
	movq	8(%rbp), %rdi
	movups	%xmm0, 48(%rbx)
	movq	16(%r13), %rax
	movzbl	28(%rbx), %edx
	movq	%rax, 64(%rbx)
	movq	(%rdi), %rax
	movw	%cx, 32(%rsp)
	movzbl	31(%rsp), %ecx
	movdqu	0(%r13), %xmm0
	movq	64(%rax), %rax
	movb	%dl, 64(%rsp)
	movups	%xmm0, 40(%rsp)
	movb	%cl, 34(%rsp)
	movq	16(%r13), %rcx
	movq	%rcx, 56(%rsp)
	call	*%rax
.L500:
	movdqu	0(%r13), %xmm0
	movl	$1, %ecx
	movups	%xmm0, (%rbx)
	movq	16(%r13), %rax
	movq	%rax, 16(%rbx)
	jmp	.L491
	.p2align 4,,10
	.p2align 3
.L514:
	movq	%r12, %rdi
	call	_ZN8opendnp313StaticBuffers12GetArrayViewINS_22AnalogOutputStatusSpecEEEN7openpal9ArrayViewINS_4CellIT_EEtEEv@PLT
	testw	%ax, %ax
	je	.L493
	leal	-1(%rax), %esi
	xorl	%edi, %edi
	jmp	.L494
	.p2align 4,,10
	.p2align 3
.L496:
	testw	%si, %si
	je	.L493
	leal	-1(%rbx), %esi
.L497:
	cmpw	%di, %si
	jb	.L493
.L494:
	movzwl	%si, %ebx
	movzwl	%di, %eax
	movl	%ebx, %ecx
	subl	%eax, %ecx
	movl	%ecx, %ebx
	shrl	$31, %ebx
	addl	%ecx, %ebx
	sarl	%ebx
	addl	%edi, %ebx
	movzwl	%bx, %ecx
	movq	%rcx, %rax
	salq	$4, %rax
	subq	%rcx, %rax
	cmpw	24(%rdx,%rax,8), %r15w
	je	.L505
	jbe	.L496
	movl	%edi, (%rsp)
	movq	%rdx, 8(%rsp)
	movl	%esi, 4(%rsp)
	call	_ZN7openpal8MaxValueItEET_v@PLT
	movl	(%rsp), %edi
	cmpw	%di, %ax
	jbe	.L493
	leal	1(%rbx), %edi
	movl	4(%rsp), %esi
	movq	8(%rsp), %rdx
	jmp	.L497
	.p2align 4,,10
	.p2align 3
.L493:
	call	_ZN7openpal8MaxValueItEET_v@PLT
	movzwl	%ax, %r15d
	jmp	.L492
	.p2align 4,,10
	.p2align 3
.L501:
	leaq	48(%rbx), %rsi
	movsd	32(%rbx), %xmm0
	movq	%r13, %rdi
	call	_ZN8opendnp312measurements7IsEventERKNS_16TypedMeasurementIdEES4_d@PLT
	testb	%al, %al
	jne	.L502
	jmp	.L500
	.p2align 4,,10
	.p2align 3
.L505:
	movzwl	%bx, %r15d
	jmp	.L492
.L516:
	call	__stack_chk_fail@PLT
	.cfi_endproc
.LFE2347:
	.size	_ZN8opendnp38Database6UpdateERKNS_18AnalogOutputStatusEtNS_9EventModeE, .-_ZN8opendnp38Database6UpdateERKNS_18AnalogOutputStatusEtNS_9EventModeE
	.align 2
	.p2align 4,,15
	.globl	_ZN8opendnp38Database6UpdateERKNS_13FrozenCounterEtNS_9EventModeE
	.type	_ZN8opendnp38Database6UpdateERKNS_13FrozenCounterEtNS_9EventModeE, @function
_ZN8opendnp38Database6UpdateERKNS_13FrozenCounterEtNS_9EventModeE:
.LFB2345:
	.cfi_startproc
	pushq	%r15
	.cfi_def_cfa_offset 16
	.cfi_offset 15, -16
	pushq	%r14
	.cfi_def_cfa_offset 24
	.cfi_offset 14, -24
	movzwl	%dx, %r15d
	pushq	%r13
	.cfi_def_cfa_offset 32
	.cfi_offset 13, -32
	pushq	%r12
	.cfi_def_cfa_offset 40
	.cfi_offset 12, -40
	movq	%rsi, %r13
	pushq	%rbp
	.cfi_def_cfa_offset 48
	.cfi_offset 6, -48
	pushq	%rbx
	.cfi_def_cfa_offset 56
	.cfi_offset 3, -56
	movq	%rdi, %rbp
	movl	%ecx, %r14d
	leaq	48(%rdi), %r12
	subq	$88, %rsp
	.cfi_def_cfa_offset 144
	movq	%fs:40, %rax
	movq	%rax, 72(%rsp)
	xorl	%eax, %eax
	cmpb	$0, 16(%rdi)
	jne	.L540
.L518:
	movq	%r12, %rdi
	call	_ZN8opendnp313StaticBuffers12GetArrayViewINS_17FrozenCounterSpecEEEN7openpal9ArrayViewINS_4CellIT_EEtEEv@PLT
	xorl	%ecx, %ecx
	cmpw	%ax, %r15w
	jb	.L541
.L517:
	movq	72(%rsp), %rsi
	xorq	%fs:40, %rsi
	movl	%ecx, %eax
	jne	.L542
	addq	$88, %rsp
	.cfi_remember_state
	.cfi_def_cfa_offset 56
	popq	%rbx
	.cfi_def_cfa_offset 48
	popq	%rbp
	.cfi_def_cfa_offset 40
	popq	%r12
	.cfi_def_cfa_offset 32
	popq	%r13
	.cfi_def_cfa_offset 24
	popq	%r14
	.cfi_def_cfa_offset 16
	popq	%r15
	.cfi_def_cfa_offset 8
	ret
	.p2align 4,,10
	.p2align 3
.L541:
	.cfi_restore_state
	movq	%r15, %rax
	leaq	31(%rsp), %rsi
	salq	$4, %rax
	subq	%r15, %rax
	leaq	(%rdx,%rax,8), %rbx
	movzbl	27(%rbx), %edi
	call	_ZN8opendnp38Database19ConvertToEventClassENS_10PointClassERNS_10EventClassE@PLT
	testb	%al, %al
	je	.L525
	testb	%r14b, %r14b
	je	.L526
	cmpb	$1, %r14b
	jne	.L525
.L527:
	movdqu	0(%r13), %xmm0
	leaq	32(%rsp), %rsi
	movzwl	24(%rbx), %ecx
	movq	8(%rbp), %rdi
	movups	%xmm0, 48(%rbx)
	movl	16(%r13), %eax
	movzbl	28(%rbx), %edx
	movl	%eax, 64(%rbx)
	movq	(%rdi), %rax
	movw	%cx, 32(%rsp)
	movzbl	31(%rsp), %ecx
	movdqu	0(%r13), %xmm0
	movq	48(%rax), %rax
	movb	%dl, 64(%rsp)
	movups	%xmm0, 40(%rsp)
	movb	%cl, 34(%rsp)
	movq	16(%r13), %rcx
	movq	%rcx, 56(%rsp)
	call	*%rax
.L525:
	movdqu	0(%r13), %xmm0
	movl	$1, %ecx
	movups	%xmm0, (%rbx)
	movl	16(%r13), %eax
	movl	%eax, 16(%rbx)
	jmp	.L517
	.p2align 4,,10
	.p2align 3
.L540:
	movq	%r12, %rdi
	call	_ZN8opendnp313StaticBuffers12GetArrayViewINS_17FrozenCounterSpecEEEN7openpal9ArrayViewINS_4CellIT_EEtEEv@PLT
	testw	%ax, %ax
	je	.L519
	leal	-1(%rax), %esi
	xorl	%edi, %edi
	jmp	.L520
	.p2align 4,,10
	.p2align 3
.L522:
	testw	%si, %si
	je	.L519
	leal	-1(%rbx), %esi
.L523:
	cmpw	%di, %si
	jb	.L519
.L520:
	movzwl	%si, %ebx
	movzwl	%di, %eax
	movl	%ebx, %ecx
	subl	%eax, %ecx
	movl	%ecx, %ebx
	shrl	$31, %ebx
	addl	%ecx, %ebx
	sarl	%ebx
	addl	%edi, %ebx
	movzwl	%bx, %ecx
	movq	%rcx, %rax
	salq	$4, %rax
	subq	%rcx, %rax
	cmpw	24(%rdx,%rax,8), %r15w
	je	.L531
	jbe	.L522
	movl	%edi, (%rsp)
	movq	%rdx, 8(%rsp)
	movl	%esi, 4(%rsp)
	call	_ZN7openpal8MaxValueItEET_v@PLT
	movl	(%rsp), %edi
	cmpw	%di, %ax
	jbe	.L519
	leal	1(%rbx), %edi
	movl	4(%rsp), %esi
	movq	8(%rsp), %rdx
	jmp	.L523
	.p2align 4,,10
	.p2align 3
.L519:
	call	_ZN7openpal8MaxValueItEET_v@PLT
	movzwl	%ax, %r15d
	jmp	.L518
	.p2align 4,,10
	.p2align 3
.L526:
	movzbl	0(%r13), %eax
	cmpb	%al, 48(%rbx)
	jne	.L527
	movl	64(%rbx), %eax
	movl	16(%r13), %esi
	movl	32(%rbx), %edx
	movq	%rax, %rcx
	movq	%rsi, %rdi
	subq	%rax, %rdi
	subq	%rsi, %rax
	cmpl	%esi, %ecx
	cmovb	%rdi, %rax
	cmpq	%rax, %rdx
	jb	.L527
	jmp	.L525
	.p2align 4,,10
	.p2align 3
.L531:
	movzwl	%bx, %r15d
	jmp	.L518
.L542:
	call	__stack_chk_fail@PLT
	.cfi_endproc
.LFE2345:
	.size	_ZN8opendnp38Database6UpdateERKNS_13FrozenCounterEtNS_9EventModeE, .-_ZN8opendnp38Database6UpdateERKNS_13FrozenCounterEtNS_9EventModeE
	.align 2
	.p2align 4,,15
	.globl	_ZN8opendnp38Database6UpdateERKNS_7CounterEtNS_9EventModeE
	.type	_ZN8opendnp38Database6UpdateERKNS_7CounterEtNS_9EventModeE, @function
_ZN8opendnp38Database6UpdateERKNS_7CounterEtNS_9EventModeE:
.LFB2344:
	.cfi_startproc
	pushq	%r15
	.cfi_def_cfa_offset 16
	.cfi_offset 15, -16
	pushq	%r14
	.cfi_def_cfa_offset 24
	.cfi_offset 14, -24
	movzwl	%dx, %r15d
	pushq	%r13
	.cfi_def_cfa_offset 32
	.cfi_offset 13, -32
	pushq	%r12
	.cfi_def_cfa_offset 40
	.cfi_offset 12, -40
	movq	%rsi, %r13
	pushq	%rbp
	.cfi_def_cfa_offset 48
	.cfi_offset 6, -48
	pushq	%rbx
	.cfi_def_cfa_offset 56
	.cfi_offset 3, -56
	movq	%rdi, %rbp
	movl	%ecx, %r14d
	leaq	48(%rdi), %r12
	subq	$88, %rsp
	.cfi_def_cfa_offset 144
	movq	%fs:40, %rax
	movq	%rax, 72(%rsp)
	xorl	%eax, %eax
	cmpb	$0, 16(%rdi)
	jne	.L566
.L544:
	movq	%r12, %rdi
	call	_ZN8opendnp313StaticBuffers12GetArrayViewINS_11CounterSpecEEEN7openpal9ArrayViewINS_4CellIT_EEtEEv@PLT
	xorl	%ecx, %ecx
	cmpw	%ax, %r15w
	jb	.L567
.L543:
	movq	72(%rsp), %rsi
	xorq	%fs:40, %rsi
	movl	%ecx, %eax
	jne	.L568
	addq	$88, %rsp
	.cfi_remember_state
	.cfi_def_cfa_offset 56
	popq	%rbx
	.cfi_def_cfa_offset 48
	popq	%rbp
	.cfi_def_cfa_offset 40
	popq	%r12
	.cfi_def_cfa_offset 32
	popq	%r13
	.cfi_def_cfa_offset 24
	popq	%r14
	.cfi_def_cfa_offset 16
	popq	%r15
	.cfi_def_cfa_offset 8
	ret
	.p2align 4,,10
	.p2align 3
.L567:
	.cfi_restore_state
	movq	%r15, %rax
	leaq	31(%rsp), %rsi
	salq	$4, %rax
	subq	%r15, %rax
	leaq	(%rdx,%rax,8), %rbx
	movzbl	27(%rbx), %edi
	call	_ZN8opendnp38Database19ConvertToEventClassENS_10PointClassERNS_10EventClassE@PLT
	testb	%al, %al
	je	.L551
	testb	%r14b, %r14b
	je	.L552
	cmpb	$1, %r14b
	jne	.L551
.L553:
	movdqu	0(%r13), %xmm0
	leaq	32(%rsp), %rsi
	movzwl	24(%rbx), %ecx
	movq	8(%rbp), %rdi
	movups	%xmm0, 48(%rbx)
	movl	16(%r13), %eax
	movzbl	28(%rbx), %edx
	movl	%eax, 64(%rbx)
	movq	(%rdi), %rax
	movw	%cx, 32(%rsp)
	movzbl	31(%rsp), %ecx
	movdqu	0(%r13), %xmm0
	movq	40(%rax), %rax
	movb	%dl, 64(%rsp)
	movups	%xmm0, 40(%rsp)
	movb	%cl, 34(%rsp)
	movq	16(%r13), %rcx
	movq	%rcx, 56(%rsp)
	call	*%rax
.L551:
	movdqu	0(%r13), %xmm0
	movl	$1, %ecx
	movups	%xmm0, (%rbx)
	movl	16(%r13), %eax
	movl	%eax, 16(%rbx)
	jmp	.L543
	.p2align 4,,10
	.p2align 3
.L566:
	movq	%r12, %rdi
	call	_ZN8opendnp313StaticBuffers12GetArrayViewINS_11CounterSpecEEEN7openpal9ArrayViewINS_4CellIT_EEtEEv@PLT
	testw	%ax, %ax
	je	.L545
	leal	-1(%rax), %esi
	xorl	%edi, %edi
	jmp	.L546
	.p2align 4,,10
	.p2align 3
.L548:
	testw	%si, %si
	je	.L545
	leal	-1(%rbx), %esi
.L549:
	cmpw	%di, %si
	jb	.L545
.L546:
	movzwl	%si, %ebx
	movzwl	%di, %eax
	movl	%ebx, %ecx
	subl	%eax, %ecx
	movl	%ecx, %ebx
	shrl	$31, %ebx
	addl	%ecx, %ebx
	sarl	%ebx
	addl	%edi, %ebx
	movzwl	%bx, %ecx
	movq	%rcx, %rax
	salq	$4, %rax
	subq	%rcx, %rax
	cmpw	24(%rdx,%rax,8), %r15w
	je	.L557
	jbe	.L548
	movl	%edi, (%rsp)
	movq	%rdx, 8(%rsp)
	movl	%esi, 4(%rsp)
	call	_ZN7openpal8MaxValueItEET_v@PLT
	movl	(%rsp), %edi
	cmpw	%di, %ax
	jbe	.L545
	leal	1(%rbx), %edi
	movl	4(%rsp), %esi
	movq	8(%rsp), %rdx
	jmp	.L549
	.p2align 4,,10
	.p2align 3
.L545:
	call	_ZN7openpal8MaxValueItEET_v@PLT
	movzwl	%ax, %r15d
	jmp	.L544
	.p2align 4,,10
	.p2align 3
.L552:
	movzbl	0(%r13), %eax
	cmpb	%al, 48(%rbx)
	jne	.L553
	movl	64(%rbx), %eax
	movl	16(%r13), %esi
	movl	32(%rbx), %edx
	movq	%rax, %rcx
	movq	%rsi, %rdi
	subq	%rax, %rdi
	subq	%rsi, %rax
	cmpl	%esi, %ecx
	cmovb	%rdi, %rax
	cmpq	%rax, %rdx
	jb	.L553
	jmp	.L551
	.p2align 4,,10
	.p2align 3
.L557:
	movzwl	%bx, %r15d
	jmp	.L544
.L568:
	call	__stack_chk_fail@PLT
	.cfi_endproc
.LFE2344:
	.size	_ZN8opendnp38Database6UpdateERKNS_7CounterEtNS_9EventModeE, .-_ZN8opendnp38Database6UpdateERKNS_7CounterEtNS_9EventModeE
	.weak	_ZTSN7openpal7HasSizeItEE
	.section	.rodata._ZTSN7openpal7HasSizeItEE,"aG",@progbits,_ZTSN7openpal7HasSizeItEE,comdat
	.align 16
	.type	_ZTSN7openpal7HasSizeItEE, @object
	.size	_ZTSN7openpal7HasSizeItEE, 22
_ZTSN7openpal7HasSizeItEE:
	.string	"N7openpal7HasSizeItEE"
	.weak	_ZTIN7openpal7HasSizeItEE
	.section	.data.rel.ro._ZTIN7openpal7HasSizeItEE,"awG",@progbits,_ZTIN7openpal7HasSizeItEE,comdat
	.align 8
	.type	_ZTIN7openpal7HasSizeItEE, @object
	.size	_ZTIN7openpal7HasSizeItEE, 16
_ZTIN7openpal7HasSizeItEE:
	.quad	_ZTVN10__cxxabiv117__class_type_infoE+16
	.quad	_ZTSN7openpal7HasSizeItEE
	.weak	_ZTSN7openpal10UncopyableE
	.section	.rodata._ZTSN7openpal10UncopyableE,"aG",@progbits,_ZTSN7openpal10UncopyableE,comdat
	.align 16
	.type	_ZTSN7openpal10UncopyableE, @object
	.size	_ZTSN7openpal10UncopyableE, 23
_ZTSN7openpal10UncopyableE:
	.string	"N7openpal10UncopyableE"
	.weak	_ZTIN7openpal10UncopyableE
	.section	.data.rel.ro._ZTIN7openpal10UncopyableE,"awG",@progbits,_ZTIN7openpal10UncopyableE,comdat
	.align 8
	.type	_ZTIN7openpal10UncopyableE, @object
	.size	_ZTIN7openpal10UncopyableE, 16
_ZTIN7openpal10UncopyableE:
	.quad	_ZTVN10__cxxabiv117__class_type_infoE+16
	.quad	_ZTSN7openpal10UncopyableE
	.weak	_ZTSN8opendnp314IUpdateHandlerE
	.section	.rodata._ZTSN8opendnp314IUpdateHandlerE,"aG",@progbits,_ZTSN8opendnp314IUpdateHandlerE,comdat
	.align 16
	.type	_ZTSN8opendnp314IUpdateHandlerE, @object
	.size	_ZTSN8opendnp314IUpdateHandlerE, 28
_ZTSN8opendnp314IUpdateHandlerE:
	.string	"N8opendnp314IUpdateHandlerE"
	.weak	_ZTIN8opendnp314IUpdateHandlerE
	.section	.data.rel.ro._ZTIN8opendnp314IUpdateHandlerE,"awG",@progbits,_ZTIN8opendnp314IUpdateHandlerE,comdat
	.align 8
	.type	_ZTIN8opendnp314IUpdateHandlerE, @object
	.size	_ZTIN8opendnp314IUpdateHandlerE, 16
_ZTIN8opendnp314IUpdateHandlerE:
	.quad	_ZTVN10__cxxabiv117__class_type_infoE+16
	.quad	_ZTSN8opendnp314IUpdateHandlerE
	.weak	_ZTSN8opendnp39IDatabaseE
	.section	.rodata._ZTSN8opendnp39IDatabaseE,"aG",@progbits,_ZTSN8opendnp39IDatabaseE,comdat
	.align 16
	.type	_ZTSN8opendnp39IDatabaseE, @object
	.size	_ZTSN8opendnp39IDatabaseE, 22
_ZTSN8opendnp39IDatabaseE:
	.string	"N8opendnp39IDatabaseE"
	.weak	_ZTIN8opendnp39IDatabaseE
	.section	.data.rel.ro._ZTIN8opendnp39IDatabaseE,"awG",@progbits,_ZTIN8opendnp39IDatabaseE,comdat
	.align 8
	.type	_ZTIN8opendnp39IDatabaseE, @object
	.size	_ZTIN8opendnp39IDatabaseE, 24
_ZTIN8opendnp39IDatabaseE:
	.quad	_ZTVN10__cxxabiv120__si_class_type_infoE+16
	.quad	_ZTSN8opendnp39IDatabaseE
	.quad	_ZTIN8opendnp314IUpdateHandlerE
	.weak	_ZTSN7openpal5ArrayIN8opendnp34CellINS1_10BinarySpecEEEtEE
	.section	.rodata._ZTSN7openpal5ArrayIN8opendnp34CellINS1_10BinarySpecEEEtEE,"aG",@progbits,_ZTSN7openpal5ArrayIN8opendnp34CellINS1_10BinarySpecEEEtEE,comdat
	.align 32
	.type	_ZTSN7openpal5ArrayIN8opendnp34CellINS1_10BinarySpecEEEtEE, @object
	.size	_ZTSN7openpal5ArrayIN8opendnp34CellINS1_10BinarySpecEEEtEE, 55
_ZTSN7openpal5ArrayIN8opendnp34CellINS1_10BinarySpecEEEtEE:
	.string	"N7openpal5ArrayIN8opendnp34CellINS1_10BinarySpecEEEtEE"
	.weak	_ZTIN7openpal5ArrayIN8opendnp34CellINS1_10BinarySpecEEEtEE
	.section	.data.rel.ro._ZTIN7openpal5ArrayIN8opendnp34CellINS1_10BinarySpecEEEtEE,"awG",@progbits,_ZTIN7openpal5ArrayIN8opendnp34CellINS1_10BinarySpecEEEtEE,comdat
	.align 8
	.type	_ZTIN7openpal5ArrayIN8opendnp34CellINS1_10BinarySpecEEEtEE, @object
	.size	_ZTIN7openpal5ArrayIN8opendnp34CellINS1_10BinarySpecEEEtEE, 40
_ZTIN7openpal5ArrayIN8opendnp34CellINS1_10BinarySpecEEEtEE:
	.quad	_ZTVN10__cxxabiv121__vmi_class_type_infoE+16
	.quad	_ZTSN7openpal5ArrayIN8opendnp34CellINS1_10BinarySpecEEEtEE
	.long	0
	.long	1
	.quad	_ZTIN7openpal7HasSizeItEE
	.quad	2050
	.weak	_ZTSN7openpal5ArrayIN8opendnp34CellINS1_19DoubleBitBinarySpecEEEtEE
	.section	.rodata._ZTSN7openpal5ArrayIN8opendnp34CellINS1_19DoubleBitBinarySpecEEEtEE,"aG",@progbits,_ZTSN7openpal5ArrayIN8opendnp34CellINS1_19DoubleBitBinarySpecEEEtEE,comdat
	.align 32
	.type	_ZTSN7openpal5ArrayIN8opendnp34CellINS1_19DoubleBitBinarySpecEEEtEE, @object
	.size	_ZTSN7openpal5ArrayIN8opendnp34CellINS1_19DoubleBitBinarySpecEEEtEE, 64
_ZTSN7openpal5ArrayIN8opendnp34CellINS1_19DoubleBitBinarySpecEEEtEE:
	.string	"N7openpal5ArrayIN8opendnp34CellINS1_19DoubleBitBinarySpecEEEtEE"
	.weak	_ZTIN7openpal5ArrayIN8opendnp34CellINS1_19DoubleBitBinarySpecEEEtEE
	.section	.data.rel.ro._ZTIN7openpal5ArrayIN8opendnp34CellINS1_19DoubleBitBinarySpecEEEtEE,"awG",@progbits,_ZTIN7openpal5ArrayIN8opendnp34CellINS1_19DoubleBitBinarySpecEEEtEE,comdat
	.align 8
	.type	_ZTIN7openpal5ArrayIN8opendnp34CellINS1_19DoubleBitBinarySpecEEEtEE, @object
	.size	_ZTIN7openpal5ArrayIN8opendnp34CellINS1_19DoubleBitBinarySpecEEEtEE, 40
_ZTIN7openpal5ArrayIN8opendnp34CellINS1_19DoubleBitBinarySpecEEEtEE:
	.quad	_ZTVN10__cxxabiv121__vmi_class_type_infoE+16
	.quad	_ZTSN7openpal5ArrayIN8opendnp34CellINS1_19DoubleBitBinarySpecEEEtEE
	.long	0
	.long	1
	.quad	_ZTIN7openpal7HasSizeItEE
	.quad	2050
	.weak	_ZTSN7openpal5ArrayIN8opendnp34CellINS1_10AnalogSpecEEEtEE
	.section	.rodata._ZTSN7openpal5ArrayIN8opendnp34CellINS1_10AnalogSpecEEEtEE,"aG",@progbits,_ZTSN7openpal5ArrayIN8opendnp34CellINS1_10AnalogSpecEEEtEE,comdat
	.align 32
	.type	_ZTSN7openpal5ArrayIN8opendnp34CellINS1_10AnalogSpecEEEtEE, @object
	.size	_ZTSN7openpal5ArrayIN8opendnp34CellINS1_10AnalogSpecEEEtEE, 55
_ZTSN7openpal5ArrayIN8opendnp34CellINS1_10AnalogSpecEEEtEE:
	.string	"N7openpal5ArrayIN8opendnp34CellINS1_10AnalogSpecEEEtEE"
	.weak	_ZTIN7openpal5ArrayIN8opendnp34CellINS1_10AnalogSpecEEEtEE
	.section	.data.rel.ro._ZTIN7openpal5ArrayIN8opendnp34CellINS1_10AnalogSpecEEEtEE,"awG",@progbits,_ZTIN7openpal5ArrayIN8opendnp34CellINS1_10AnalogSpecEEEtEE,comdat
	.align 8
	.type	_ZTIN7openpal5ArrayIN8opendnp34CellINS1_10AnalogSpecEEEtEE, @object
	.size	_ZTIN7openpal5ArrayIN8opendnp34CellINS1_10AnalogSpecEEEtEE, 40
_ZTIN7openpal5ArrayIN8opendnp34CellINS1_10AnalogSpecEEEtEE:
	.quad	_ZTVN10__cxxabiv121__vmi_class_type_infoE+16
	.quad	_ZTSN7openpal5ArrayIN8opendnp34CellINS1_10AnalogSpecEEEtEE
	.long	0
	.long	1
	.quad	_ZTIN7openpal7HasSizeItEE
	.quad	2050
	.weak	_ZTSN7openpal5ArrayIN8opendnp34CellINS1_11CounterSpecEEEtEE
	.section	.rodata._ZTSN7openpal5ArrayIN8opendnp34CellINS1_11CounterSpecEEEtEE,"aG",@progbits,_ZTSN7openpal5ArrayIN8opendnp34CellINS1_11CounterSpecEEEtEE,comdat
	.align 32
	.type	_ZTSN7openpal5ArrayIN8opendnp34CellINS1_11CounterSpecEEEtEE, @object
	.size	_ZTSN7openpal5ArrayIN8opendnp34CellINS1_11CounterSpecEEEtEE, 56
_ZTSN7openpal5ArrayIN8opendnp34CellINS1_11CounterSpecEEEtEE:
	.string	"N7openpal5ArrayIN8opendnp34CellINS1_11CounterSpecEEEtEE"
	.weak	_ZTIN7openpal5ArrayIN8opendnp34CellINS1_11CounterSpecEEEtEE
	.section	.data.rel.ro._ZTIN7openpal5ArrayIN8opendnp34CellINS1_11CounterSpecEEEtEE,"awG",@progbits,_ZTIN7openpal5ArrayIN8opendnp34CellINS1_11CounterSpecEEEtEE,comdat
	.align 8
	.type	_ZTIN7openpal5ArrayIN8opendnp34CellINS1_11CounterSpecEEEtEE, @object
	.size	_ZTIN7openpal5ArrayIN8opendnp34CellINS1_11CounterSpecEEEtEE, 40
_ZTIN7openpal5ArrayIN8opendnp34CellINS1_11CounterSpecEEEtEE:
	.quad	_ZTVN10__cxxabiv121__vmi_class_type_infoE+16
	.quad	_ZTSN7openpal5ArrayIN8opendnp34CellINS1_11CounterSpecEEEtEE
	.long	0
	.long	1
	.quad	_ZTIN7openpal7HasSizeItEE
	.quad	2050
	.weak	_ZTSN7openpal5ArrayIN8opendnp34CellINS1_17FrozenCounterSpecEEEtEE
	.section	.rodata._ZTSN7openpal5ArrayIN8opendnp34CellINS1_17FrozenCounterSpecEEEtEE,"aG",@progbits,_ZTSN7openpal5ArrayIN8opendnp34CellINS1_17FrozenCounterSpecEEEtEE,comdat
	.align 32
	.type	_ZTSN7openpal5ArrayIN8opendnp34CellINS1_17FrozenCounterSpecEEEtEE, @object
	.size	_ZTSN7openpal5ArrayIN8opendnp34CellINS1_17FrozenCounterSpecEEEtEE, 62
_ZTSN7openpal5ArrayIN8opendnp34CellINS1_17FrozenCounterSpecEEEtEE:
	.string	"N7openpal5ArrayIN8opendnp34CellINS1_17FrozenCounterSpecEEEtEE"
	.weak	_ZTIN7openpal5ArrayIN8opendnp34CellINS1_17FrozenCounterSpecEEEtEE
	.section	.data.rel.ro._ZTIN7openpal5ArrayIN8opendnp34CellINS1_17FrozenCounterSpecEEEtEE,"awG",@progbits,_ZTIN7openpal5ArrayIN8opendnp34CellINS1_17FrozenCounterSpecEEEtEE,comdat
	.align 8
	.type	_ZTIN7openpal5ArrayIN8opendnp34CellINS1_17FrozenCounterSpecEEEtEE, @object
	.size	_ZTIN7openpal5ArrayIN8opendnp34CellINS1_17FrozenCounterSpecEEEtEE, 40
_ZTIN7openpal5ArrayIN8opendnp34CellINS1_17FrozenCounterSpecEEEtEE:
	.quad	_ZTVN10__cxxabiv121__vmi_class_type_infoE+16
	.quad	_ZTSN7openpal5ArrayIN8opendnp34CellINS1_17FrozenCounterSpecEEEtEE
	.long	0
	.long	1
	.quad	_ZTIN7openpal7HasSizeItEE
	.quad	2050
	.weak	_ZTSN7openpal5ArrayIN8opendnp34CellINS1_22BinaryOutputStatusSpecEEEtEE
	.section	.rodata._ZTSN7openpal5ArrayIN8opendnp34CellINS1_22BinaryOutputStatusSpecEEEtEE,"aG",@progbits,_ZTSN7openpal5ArrayIN8opendnp34CellINS1_22BinaryOutputStatusSpecEEEtEE,comdat
	.align 32
	.type	_ZTSN7openpal5ArrayIN8opendnp34CellINS1_22BinaryOutputStatusSpecEEEtEE, @object
	.size	_ZTSN7openpal5ArrayIN8opendnp34CellINS1_22BinaryOutputStatusSpecEEEtEE, 67
_ZTSN7openpal5ArrayIN8opendnp34CellINS1_22BinaryOutputStatusSpecEEEtEE:
	.string	"N7openpal5ArrayIN8opendnp34CellINS1_22BinaryOutputStatusSpecEEEtEE"
	.weak	_ZTIN7openpal5ArrayIN8opendnp34CellINS1_22BinaryOutputStatusSpecEEEtEE
	.section	.data.rel.ro._ZTIN7openpal5ArrayIN8opendnp34CellINS1_22BinaryOutputStatusSpecEEEtEE,"awG",@progbits,_ZTIN7openpal5ArrayIN8opendnp34CellINS1_22BinaryOutputStatusSpecEEEtEE,comdat
	.align 8
	.type	_ZTIN7openpal5ArrayIN8opendnp34CellINS1_22BinaryOutputStatusSpecEEEtEE, @object
	.size	_ZTIN7openpal5ArrayIN8opendnp34CellINS1_22BinaryOutputStatusSpecEEEtEE, 40
_ZTIN7openpal5ArrayIN8opendnp34CellINS1_22BinaryOutputStatusSpecEEEtEE:
	.quad	_ZTVN10__cxxabiv121__vmi_class_type_infoE+16
	.quad	_ZTSN7openpal5ArrayIN8opendnp34CellINS1_22BinaryOutputStatusSpecEEEtEE
	.long	0
	.long	1
	.quad	_ZTIN7openpal7HasSizeItEE
	.quad	2050
	.weak	_ZTSN7openpal5ArrayIN8opendnp34CellINS1_22AnalogOutputStatusSpecEEEtEE
	.section	.rodata._ZTSN7openpal5ArrayIN8opendnp34CellINS1_22AnalogOutputStatusSpecEEEtEE,"aG",@progbits,_ZTSN7openpal5ArrayIN8opendnp34CellINS1_22AnalogOutputStatusSpecEEEtEE,comdat
	.align 32
	.type	_ZTSN7openpal5ArrayIN8opendnp34CellINS1_22AnalogOutputStatusSpecEEEtEE, @object
	.size	_ZTSN7openpal5ArrayIN8opendnp34CellINS1_22AnalogOutputStatusSpecEEEtEE, 67
_ZTSN7openpal5ArrayIN8opendnp34CellINS1_22AnalogOutputStatusSpecEEEtEE:
	.string	"N7openpal5ArrayIN8opendnp34CellINS1_22AnalogOutputStatusSpecEEEtEE"
	.weak	_ZTIN7openpal5ArrayIN8opendnp34CellINS1_22AnalogOutputStatusSpecEEEtEE
	.section	.data.rel.ro._ZTIN7openpal5ArrayIN8opendnp34CellINS1_22AnalogOutputStatusSpecEEEtEE,"awG",@progbits,_ZTIN7openpal5ArrayIN8opendnp34CellINS1_22AnalogOutputStatusSpecEEEtEE,comdat
	.align 8
	.type	_ZTIN7openpal5ArrayIN8opendnp34CellINS1_22AnalogOutputStatusSpecEEEtEE, @object
	.size	_ZTIN7openpal5ArrayIN8opendnp34CellINS1_22AnalogOutputStatusSpecEEEtEE, 40
_ZTIN7openpal5ArrayIN8opendnp34CellINS1_22AnalogOutputStatusSpecEEEtEE:
	.quad	_ZTVN10__cxxabiv121__vmi_class_type_infoE+16
	.quad	_ZTSN7openpal5ArrayIN8opendnp34CellINS1_22AnalogOutputStatusSpecEEEtEE
	.long	0
	.long	1
	.quad	_ZTIN7openpal7HasSizeItEE
	.quad	2050
	.weak	_ZTSN7openpal5ArrayIN8opendnp34CellINS1_19TimeAndIntervalSpecEEEtEE
	.section	.rodata._ZTSN7openpal5ArrayIN8opendnp34CellINS1_19TimeAndIntervalSpecEEEtEE,"aG",@progbits,_ZTSN7openpal5ArrayIN8opendnp34CellINS1_19TimeAndIntervalSpecEEEtEE,comdat
	.align 32
	.type	_ZTSN7openpal5ArrayIN8opendnp34CellINS1_19TimeAndIntervalSpecEEEtEE, @object
	.size	_ZTSN7openpal5ArrayIN8opendnp34CellINS1_19TimeAndIntervalSpecEEEtEE, 64
_ZTSN7openpal5ArrayIN8opendnp34CellINS1_19TimeAndIntervalSpecEEEtEE:
	.string	"N7openpal5ArrayIN8opendnp34CellINS1_19TimeAndIntervalSpecEEEtEE"
	.weak	_ZTIN7openpal5ArrayIN8opendnp34CellINS1_19TimeAndIntervalSpecEEEtEE
	.section	.data.rel.ro._ZTIN7openpal5ArrayIN8opendnp34CellINS1_19TimeAndIntervalSpecEEEtEE,"awG",@progbits,_ZTIN7openpal5ArrayIN8opendnp34CellINS1_19TimeAndIntervalSpecEEEtEE,comdat
	.align 8
	.type	_ZTIN7openpal5ArrayIN8opendnp34CellINS1_19TimeAndIntervalSpecEEEtEE, @object
	.size	_ZTIN7openpal5ArrayIN8opendnp34CellINS1_19TimeAndIntervalSpecEEEtEE, 40
_ZTIN7openpal5ArrayIN8opendnp34CellINS1_19TimeAndIntervalSpecEEEtEE:
	.quad	_ZTVN10__cxxabiv121__vmi_class_type_infoE+16
	.quad	_ZTSN7openpal5ArrayIN8opendnp34CellINS1_19TimeAndIntervalSpecEEEtEE
	.long	0
	.long	1
	.quad	_ZTIN7openpal7HasSizeItEE
	.quad	2050
	.weak	_ZTSN8opendnp38DatabaseE
	.section	.rodata._ZTSN8opendnp38DatabaseE,"aG",@progbits,_ZTSN8opendnp38DatabaseE,comdat
	.align 16
	.type	_ZTSN8opendnp38DatabaseE, @object
	.size	_ZTSN8opendnp38DatabaseE, 21
_ZTSN8opendnp38DatabaseE:
	.string	"N8opendnp38DatabaseE"
	.weak	_ZTIN8opendnp38DatabaseE
	.section	.data.rel.ro._ZTIN8opendnp38DatabaseE,"awG",@progbits,_ZTIN8opendnp38DatabaseE,comdat
	.align 8
	.type	_ZTIN8opendnp38DatabaseE, @object
	.size	_ZTIN8opendnp38DatabaseE, 56
_ZTIN8opendnp38DatabaseE:
	.quad	_ZTVN10__cxxabiv121__vmi_class_type_infoE+16
	.quad	_ZTSN8opendnp38DatabaseE
	.long	0
	.long	2
	.quad	_ZTIN8opendnp39IDatabaseE
	.quad	2
	.quad	_ZTIN7openpal10UncopyableE
	.quad	0
	.weak	_ZTVN7openpal5ArrayIN8opendnp34CellINS1_10BinarySpecEEEtEE
	.section	.data.rel.ro._ZTVN7openpal5ArrayIN8opendnp34CellINS1_10BinarySpecEEEtEE,"awG",@progbits,_ZTVN7openpal5ArrayIN8opendnp34CellINS1_10BinarySpecEEEtEE,comdat
	.align 8
	.type	_ZTVN7openpal5ArrayIN8opendnp34CellINS1_10BinarySpecEEEtEE, @object
	.size	_ZTVN7openpal5ArrayIN8opendnp34CellINS1_10BinarySpecEEEtEE, 32
_ZTVN7openpal5ArrayIN8opendnp34CellINS1_10BinarySpecEEEtEE:
	.quad	0
	.quad	_ZTIN7openpal5ArrayIN8opendnp34CellINS1_10BinarySpecEEEtEE
	.quad	_ZN7openpal5ArrayIN8opendnp34CellINS1_10BinarySpecEEEtED1Ev
	.quad	_ZN7openpal5ArrayIN8opendnp34CellINS1_10BinarySpecEEEtED0Ev
	.weak	_ZTVN7openpal5ArrayIN8opendnp34CellINS1_19DoubleBitBinarySpecEEEtEE
	.section	.data.rel.ro._ZTVN7openpal5ArrayIN8opendnp34CellINS1_19DoubleBitBinarySpecEEEtEE,"awG",@progbits,_ZTVN7openpal5ArrayIN8opendnp34CellINS1_19DoubleBitBinarySpecEEEtEE,comdat
	.align 8
	.type	_ZTVN7openpal5ArrayIN8opendnp34CellINS1_19DoubleBitBinarySpecEEEtEE, @object
	.size	_ZTVN7openpal5ArrayIN8opendnp34CellINS1_19DoubleBitBinarySpecEEEtEE, 32
_ZTVN7openpal5ArrayIN8opendnp34CellINS1_19DoubleBitBinarySpecEEEtEE:
	.quad	0
	.quad	_ZTIN7openpal5ArrayIN8opendnp34CellINS1_19DoubleBitBinarySpecEEEtEE
	.quad	_ZN7openpal5ArrayIN8opendnp34CellINS1_19DoubleBitBinarySpecEEEtED1Ev
	.quad	_ZN7openpal5ArrayIN8opendnp34CellINS1_19DoubleBitBinarySpecEEEtED0Ev
	.weak	_ZTVN7openpal5ArrayIN8opendnp34CellINS1_10AnalogSpecEEEtEE
	.section	.data.rel.ro._ZTVN7openpal5ArrayIN8opendnp34CellINS1_10AnalogSpecEEEtEE,"awG",@progbits,_ZTVN7openpal5ArrayIN8opendnp34CellINS1_10AnalogSpecEEEtEE,comdat
	.align 8
	.type	_ZTVN7openpal5ArrayIN8opendnp34CellINS1_10AnalogSpecEEEtEE, @object
	.size	_ZTVN7openpal5ArrayIN8opendnp34CellINS1_10AnalogSpecEEEtEE, 32
_ZTVN7openpal5ArrayIN8opendnp34CellINS1_10AnalogSpecEEEtEE:
	.quad	0
	.quad	_ZTIN7openpal5ArrayIN8opendnp34CellINS1_10AnalogSpecEEEtEE
	.quad	_ZN7openpal5ArrayIN8opendnp34CellINS1_10AnalogSpecEEEtED1Ev
	.quad	_ZN7openpal5ArrayIN8opendnp34CellINS1_10AnalogSpecEEEtED0Ev
	.weak	_ZTVN7openpal5ArrayIN8opendnp34CellINS1_11CounterSpecEEEtEE
	.section	.data.rel.ro._ZTVN7openpal5ArrayIN8opendnp34CellINS1_11CounterSpecEEEtEE,"awG",@progbits,_ZTVN7openpal5ArrayIN8opendnp34CellINS1_11CounterSpecEEEtEE,comdat
	.align 8
	.type	_ZTVN7openpal5ArrayIN8opendnp34CellINS1_11CounterSpecEEEtEE, @object
	.size	_ZTVN7openpal5ArrayIN8opendnp34CellINS1_11CounterSpecEEEtEE, 32
_ZTVN7openpal5ArrayIN8opendnp34CellINS1_11CounterSpecEEEtEE:
	.quad	0
	.quad	_ZTIN7openpal5ArrayIN8opendnp34CellINS1_11CounterSpecEEEtEE
	.quad	_ZN7openpal5ArrayIN8opendnp34CellINS1_11CounterSpecEEEtED1Ev
	.quad	_ZN7openpal5ArrayIN8opendnp34CellINS1_11CounterSpecEEEtED0Ev
	.weak	_ZTVN7openpal5ArrayIN8opendnp34CellINS1_17FrozenCounterSpecEEEtEE
	.section	.data.rel.ro._ZTVN7openpal5ArrayIN8opendnp34CellINS1_17FrozenCounterSpecEEEtEE,"awG",@progbits,_ZTVN7openpal5ArrayIN8opendnp34CellINS1_17FrozenCounterSpecEEEtEE,comdat
	.align 8
	.type	_ZTVN7openpal5ArrayIN8opendnp34CellINS1_17FrozenCounterSpecEEEtEE, @object
	.size	_ZTVN7openpal5ArrayIN8opendnp34CellINS1_17FrozenCounterSpecEEEtEE, 32
_ZTVN7openpal5ArrayIN8opendnp34CellINS1_17FrozenCounterSpecEEEtEE:
	.quad	0
	.quad	_ZTIN7openpal5ArrayIN8opendnp34CellINS1_17FrozenCounterSpecEEEtEE
	.quad	_ZN7openpal5ArrayIN8opendnp34CellINS1_17FrozenCounterSpecEEEtED1Ev
	.quad	_ZN7openpal5ArrayIN8opendnp34CellINS1_17FrozenCounterSpecEEEtED0Ev
	.weak	_ZTVN7openpal5ArrayIN8opendnp34CellINS1_22BinaryOutputStatusSpecEEEtEE
	.section	.data.rel.ro._ZTVN7openpal5ArrayIN8opendnp34CellINS1_22BinaryOutputStatusSpecEEEtEE,"awG",@progbits,_ZTVN7openpal5ArrayIN8opendnp34CellINS1_22BinaryOutputStatusSpecEEEtEE,comdat
	.align 8
	.type	_ZTVN7openpal5ArrayIN8opendnp34CellINS1_22BinaryOutputStatusSpecEEEtEE, @object
	.size	_ZTVN7openpal5ArrayIN8opendnp34CellINS1_22BinaryOutputStatusSpecEEEtEE, 32
_ZTVN7openpal5ArrayIN8opendnp34CellINS1_22BinaryOutputStatusSpecEEEtEE:
	.quad	0
	.quad	_ZTIN7openpal5ArrayIN8opendnp34CellINS1_22BinaryOutputStatusSpecEEEtEE
	.quad	_ZN7openpal5ArrayIN8opendnp34CellINS1_22BinaryOutputStatusSpecEEEtED1Ev
	.quad	_ZN7openpal5ArrayIN8opendnp34CellINS1_22BinaryOutputStatusSpecEEEtED0Ev
	.weak	_ZTVN7openpal5ArrayIN8opendnp34CellINS1_22AnalogOutputStatusSpecEEEtEE
	.section	.data.rel.ro._ZTVN7openpal5ArrayIN8opendnp34CellINS1_22AnalogOutputStatusSpecEEEtEE,"awG",@progbits,_ZTVN7openpal5ArrayIN8opendnp34CellINS1_22AnalogOutputStatusSpecEEEtEE,comdat
	.align 8
	.type	_ZTVN7openpal5ArrayIN8opendnp34CellINS1_22AnalogOutputStatusSpecEEEtEE, @object
	.size	_ZTVN7openpal5ArrayIN8opendnp34CellINS1_22AnalogOutputStatusSpecEEEtEE, 32
_ZTVN7openpal5ArrayIN8opendnp34CellINS1_22AnalogOutputStatusSpecEEEtEE:
	.quad	0
	.quad	_ZTIN7openpal5ArrayIN8opendnp34CellINS1_22AnalogOutputStatusSpecEEEtEE
	.quad	_ZN7openpal5ArrayIN8opendnp34CellINS1_22AnalogOutputStatusSpecEEEtED1Ev
	.quad	_ZN7openpal5ArrayIN8opendnp34CellINS1_22AnalogOutputStatusSpecEEEtED0Ev
	.weak	_ZTVN7openpal5ArrayIN8opendnp34CellINS1_19TimeAndIntervalSpecEEEtEE
	.section	.data.rel.ro._ZTVN7openpal5ArrayIN8opendnp34CellINS1_19TimeAndIntervalSpecEEEtEE,"awG",@progbits,_ZTVN7openpal5ArrayIN8opendnp34CellINS1_19TimeAndIntervalSpecEEEtEE,comdat
	.align 8
	.type	_ZTVN7openpal5ArrayIN8opendnp34CellINS1_19TimeAndIntervalSpecEEEtEE, @object
	.size	_ZTVN7openpal5ArrayIN8opendnp34CellINS1_19TimeAndIntervalSpecEEEtEE, 32
_ZTVN7openpal5ArrayIN8opendnp34CellINS1_19TimeAndIntervalSpecEEEtEE:
	.quad	0
	.quad	_ZTIN7openpal5ArrayIN8opendnp34CellINS1_19TimeAndIntervalSpecEEEtEE
	.quad	_ZN7openpal5ArrayIN8opendnp34CellINS1_19TimeAndIntervalSpecEEEtED1Ev
	.quad	_ZN7openpal5ArrayIN8opendnp34CellINS1_19TimeAndIntervalSpecEEEtED0Ev
	.weak	_ZTVN8opendnp38DatabaseE
	.section	.data.rel.ro._ZTVN8opendnp38DatabaseE,"awG",@progbits,_ZTVN8opendnp38DatabaseE,comdat
	.align 8
	.type	_ZTVN8opendnp38DatabaseE, @object
	.size	_ZTVN8opendnp38DatabaseE, 128
_ZTVN8opendnp38DatabaseE:
	.quad	0
	.quad	_ZTIN8opendnp38DatabaseE
	.quad	_ZN8opendnp38DatabaseD1Ev
	.quad	_ZN8opendnp38DatabaseD0Ev
	.quad	_ZN8opendnp38Database6UpdateERKNS_6BinaryEtNS_9EventModeE
	.quad	_ZN8opendnp38Database6UpdateERKNS_15DoubleBitBinaryEtNS_9EventModeE
	.quad	_ZN8opendnp38Database6UpdateERKNS_6AnalogEtNS_9EventModeE
	.quad	_ZN8opendnp38Database6UpdateERKNS_7CounterEtNS_9EventModeE
	.quad	_ZN8opendnp38Database6UpdateERKNS_13FrozenCounterEtNS_9EventModeE
	.quad	_ZN8opendnp38Database6UpdateERKNS_18BinaryOutputStatusEtNS_9EventModeE
	.quad	_ZN8opendnp38Database6UpdateERKNS_18AnalogOutputStatusEtNS_9EventModeE
	.quad	_ZN8opendnp38Database6UpdateERKNS_15TimeAndIntervalEt
	.quad	_ZN8opendnp38Database6ModifyENS_9FlagsTypeEtth
	.quad	_ZN8opendnp38Database17GetResponseLoaderEv
	.quad	_ZN8opendnp38Database17GetStaticSelectorEv
	.quad	_ZN8opendnp38Database16GetClassAssignerEv
	.ident	"GCC: (Ubuntu 7.5.0-3ubuntu1~18.04) 7.5.0"
	.section	.note.GNU-stack,"",@progbits
