	.file	"DefaultListenCallbacks.cpp"
	.text
	.section	.text._ZN8asiodnp322DefaultListenCallbacksD2Ev,"axG",@progbits,_ZN8asiodnp322DefaultListenCallbacksD5Ev,comdat
	.align 2
	.p2align 4,,15
	.weak	_ZN8asiodnp322DefaultListenCallbacksD2Ev
	.type	_ZN8asiodnp322DefaultListenCallbacksD2Ev, @function
_ZN8asiodnp322DefaultListenCallbacksD2Ev:
.LFB3224:
	.cfi_startproc
	rep ret
	.cfi_endproc
.LFE3224:
	.size	_ZN8asiodnp322DefaultListenCallbacksD2Ev, .-_ZN8asiodnp322DefaultListenCallbacksD2Ev
	.weak	_ZN8asiodnp322DefaultListenCallbacksD1Ev
	.set	_ZN8asiodnp322DefaultListenCallbacksD1Ev,_ZN8asiodnp322DefaultListenCallbacksD2Ev
	.text
	.align 2
	.p2align 4,,15
	.globl	_ZN8asiodnp322DefaultListenCallbacks16AcceptConnectionEmRKNSt7__cxx1112basic_stringIcSt11char_traitsIcESaIcEEE
	.type	_ZN8asiodnp322DefaultListenCallbacks16AcceptConnectionEmRKNSt7__cxx1112basic_stringIcSt11char_traitsIcESaIcEEE, @function
_ZN8asiodnp322DefaultListenCallbacks16AcceptConnectionEmRKNSt7__cxx1112basic_stringIcSt11char_traitsIcESaIcEEE:
.LFB3233:
	.cfi_startproc
	movl	$1, %eax
	ret
	.cfi_endproc
.LFE3233:
	.size	_ZN8asiodnp322DefaultListenCallbacks16AcceptConnectionEmRKNSt7__cxx1112basic_stringIcSt11char_traitsIcESaIcEEE, .-_ZN8asiodnp322DefaultListenCallbacks16AcceptConnectionEmRKNSt7__cxx1112basic_stringIcSt11char_traitsIcESaIcEEE
	.globl	_ZN8asiodnp322DefaultListenCallbacks17AcceptCertificateEmRKNS_8X509InfoE
	.set	_ZN8asiodnp322DefaultListenCallbacks17AcceptCertificateEmRKNS_8X509InfoE,_ZN8asiodnp322DefaultListenCallbacks16AcceptConnectionEmRKNSt7__cxx1112basic_stringIcSt11char_traitsIcESaIcEEE
	.align 2
	.p2align 4,,15
	.globl	_ZN8asiodnp322DefaultListenCallbacks17OnConnectionCloseEmRKSt10shared_ptrINS_14IMasterSessionEE
	.type	_ZN8asiodnp322DefaultListenCallbacks17OnConnectionCloseEmRKSt10shared_ptrINS_14IMasterSessionEE, @function
_ZN8asiodnp322DefaultListenCallbacks17OnConnectionCloseEmRKSt10shared_ptrINS_14IMasterSessionEE:
.LFB3243:
	.cfi_startproc
	rep ret
	.cfi_endproc
.LFE3243:
	.size	_ZN8asiodnp322DefaultListenCallbacks17OnConnectionCloseEmRKSt10shared_ptrINS_14IMasterSessionEE, .-_ZN8asiodnp322DefaultListenCallbacks17OnConnectionCloseEmRKSt10shared_ptrINS_14IMasterSessionEE
	.align 2
	.p2align 4,,15
	.globl	_ZN8asiodnp322DefaultListenCallbacks18OnCertificateErrorEmRKNS_8X509InfoEi
	.type	_ZN8asiodnp322DefaultListenCallbacks18OnCertificateErrorEmRKNS_8X509InfoEi, @function
_ZN8asiodnp322DefaultListenCallbacks18OnCertificateErrorEmRKNS_8X509InfoEi:
.LFB3244:
	.cfi_startproc
	rep ret
	.cfi_endproc
.LFE3244:
	.size	_ZN8asiodnp322DefaultListenCallbacks18OnCertificateErrorEmRKNS_8X509InfoEi, .-_ZN8asiodnp322DefaultListenCallbacks18OnCertificateErrorEmRKNS_8X509InfoEi
	.section	.text._ZNSt23_Sp_counted_ptr_inplaceIN8asiodnp324DefaultMasterApplicationESaIS1_ELN9__gnu_cxx12_Lock_policyE2EED2Ev,"axG",@progbits,_ZNSt23_Sp_counted_ptr_inplaceIN8asiodnp324DefaultMasterApplicationESaIS1_ELN9__gnu_cxx12_Lock_policyE2EED5Ev,comdat
	.align 2
	.p2align 4,,15
	.weak	_ZNSt23_Sp_counted_ptr_inplaceIN8asiodnp324DefaultMasterApplicationESaIS1_ELN9__gnu_cxx12_Lock_policyE2EED2Ev
	.type	_ZNSt23_Sp_counted_ptr_inplaceIN8asiodnp324DefaultMasterApplicationESaIS1_ELN9__gnu_cxx12_Lock_policyE2EED2Ev, @function
_ZNSt23_Sp_counted_ptr_inplaceIN8asiodnp324DefaultMasterApplicationESaIS1_ELN9__gnu_cxx12_Lock_policyE2EED2Ev:
.LFB4115:
	.cfi_startproc
	rep ret
	.cfi_endproc
.LFE4115:
	.size	_ZNSt23_Sp_counted_ptr_inplaceIN8asiodnp324DefaultMasterApplicationESaIS1_ELN9__gnu_cxx12_Lock_policyE2EED2Ev, .-_ZNSt23_Sp_counted_ptr_inplaceIN8asiodnp324DefaultMasterApplicationESaIS1_ELN9__gnu_cxx12_Lock_policyE2EED2Ev
	.weak	_ZNSt23_Sp_counted_ptr_inplaceIN8asiodnp324DefaultMasterApplicationESaIS1_ELN9__gnu_cxx12_Lock_policyE2EED1Ev
	.set	_ZNSt23_Sp_counted_ptr_inplaceIN8asiodnp324DefaultMasterApplicationESaIS1_ELN9__gnu_cxx12_Lock_policyE2EED1Ev,_ZNSt23_Sp_counted_ptr_inplaceIN8asiodnp324DefaultMasterApplicationESaIS1_ELN9__gnu_cxx12_Lock_policyE2EED2Ev
	.section	.text._ZNSt23_Sp_counted_ptr_inplaceIN8asiodnp324DefaultMasterApplicationESaIS1_ELN9__gnu_cxx12_Lock_policyE2EE10_M_disposeEv,"axG",@progbits,_ZNSt23_Sp_counted_ptr_inplaceIN8asiodnp324DefaultMasterApplicationESaIS1_ELN9__gnu_cxx12_Lock_policyE2EE10_M_disposeEv,comdat
	.align 2
	.p2align 4,,15
	.weak	_ZNSt23_Sp_counted_ptr_inplaceIN8asiodnp324DefaultMasterApplicationESaIS1_ELN9__gnu_cxx12_Lock_policyE2EE10_M_disposeEv
	.type	_ZNSt23_Sp_counted_ptr_inplaceIN8asiodnp324DefaultMasterApplicationESaIS1_ELN9__gnu_cxx12_Lock_policyE2EE10_M_disposeEv, @function
_ZNSt23_Sp_counted_ptr_inplaceIN8asiodnp324DefaultMasterApplicationESaIS1_ELN9__gnu_cxx12_Lock_policyE2EE10_M_disposeEv:
.LFB4118:
	.cfi_startproc
	movq	%rdi, %rax
	leaq	16(%rdi), %rdi
	movq	16(%rax), %rax
	jmp	*32(%rax)
	.cfi_endproc
.LFE4118:
	.size	_ZNSt23_Sp_counted_ptr_inplaceIN8asiodnp324DefaultMasterApplicationESaIS1_ELN9__gnu_cxx12_Lock_policyE2EE10_M_disposeEv, .-_ZNSt23_Sp_counted_ptr_inplaceIN8asiodnp324DefaultMasterApplicationESaIS1_ELN9__gnu_cxx12_Lock_policyE2EE10_M_disposeEv
	.section	.text._ZNSt23_Sp_counted_ptr_inplaceIN8asiodnp318PrintingSOEHandlerESaIS1_ELN9__gnu_cxx12_Lock_policyE2EED2Ev,"axG",@progbits,_ZNSt23_Sp_counted_ptr_inplaceIN8asiodnp318PrintingSOEHandlerESaIS1_ELN9__gnu_cxx12_Lock_policyE2EED5Ev,comdat
	.align 2
	.p2align 4,,15
	.weak	_ZNSt23_Sp_counted_ptr_inplaceIN8asiodnp318PrintingSOEHandlerESaIS1_ELN9__gnu_cxx12_Lock_policyE2EED2Ev
	.type	_ZNSt23_Sp_counted_ptr_inplaceIN8asiodnp318PrintingSOEHandlerESaIS1_ELN9__gnu_cxx12_Lock_policyE2EED2Ev, @function
_ZNSt23_Sp_counted_ptr_inplaceIN8asiodnp318PrintingSOEHandlerESaIS1_ELN9__gnu_cxx12_Lock_policyE2EED2Ev:
.LFB4122:
	.cfi_startproc
	rep ret
	.cfi_endproc
.LFE4122:
	.size	_ZNSt23_Sp_counted_ptr_inplaceIN8asiodnp318PrintingSOEHandlerESaIS1_ELN9__gnu_cxx12_Lock_policyE2EED2Ev, .-_ZNSt23_Sp_counted_ptr_inplaceIN8asiodnp318PrintingSOEHandlerESaIS1_ELN9__gnu_cxx12_Lock_policyE2EED2Ev
	.weak	_ZNSt23_Sp_counted_ptr_inplaceIN8asiodnp318PrintingSOEHandlerESaIS1_ELN9__gnu_cxx12_Lock_policyE2EED1Ev
	.set	_ZNSt23_Sp_counted_ptr_inplaceIN8asiodnp318PrintingSOEHandlerESaIS1_ELN9__gnu_cxx12_Lock_policyE2EED1Ev,_ZNSt23_Sp_counted_ptr_inplaceIN8asiodnp318PrintingSOEHandlerESaIS1_ELN9__gnu_cxx12_Lock_policyE2EED2Ev
	.section	.text._ZNSt23_Sp_counted_ptr_inplaceIN8asiodnp318PrintingSOEHandlerESaIS1_ELN9__gnu_cxx12_Lock_policyE2EE10_M_disposeEv,"axG",@progbits,_ZNSt23_Sp_counted_ptr_inplaceIN8asiodnp318PrintingSOEHandlerESaIS1_ELN9__gnu_cxx12_Lock_policyE2EE10_M_disposeEv,comdat
	.align 2
	.p2align 4,,15
	.weak	_ZNSt23_Sp_counted_ptr_inplaceIN8asiodnp318PrintingSOEHandlerESaIS1_ELN9__gnu_cxx12_Lock_policyE2EE10_M_disposeEv
	.type	_ZNSt23_Sp_counted_ptr_inplaceIN8asiodnp318PrintingSOEHandlerESaIS1_ELN9__gnu_cxx12_Lock_policyE2EE10_M_disposeEv, @function
_ZNSt23_Sp_counted_ptr_inplaceIN8asiodnp318PrintingSOEHandlerESaIS1_ELN9__gnu_cxx12_Lock_policyE2EE10_M_disposeEv:
.LFB4125:
	.cfi_startproc
	rep ret
	.cfi_endproc
.LFE4125:
	.size	_ZNSt23_Sp_counted_ptr_inplaceIN8asiodnp318PrintingSOEHandlerESaIS1_ELN9__gnu_cxx12_Lock_policyE2EE10_M_disposeEv, .-_ZNSt23_Sp_counted_ptr_inplaceIN8asiodnp318PrintingSOEHandlerESaIS1_ELN9__gnu_cxx12_Lock_policyE2EE10_M_disposeEv
	.text
	.align 2
	.p2align 4,,15
	.globl	_ZN8asiodnp322DefaultListenCallbacks20GetFirstFrameTimeoutEv
	.type	_ZN8asiodnp322DefaultListenCallbacks20GetFirstFrameTimeoutEv, @function
_ZN8asiodnp322DefaultListenCallbacks20GetFirstFrameTimeoutEv:
.LFB3235:
	.cfi_startproc
	movl	$30, %edi
	jmp	_ZN7openpal12TimeDuration7SecondsEl@PLT
	.cfi_endproc
.LFE3235:
	.size	_ZN8asiodnp322DefaultListenCallbacks20GetFirstFrameTimeoutEv, .-_ZN8asiodnp322DefaultListenCallbacks20GetFirstFrameTimeoutEv
	.section	.text._ZNSt23_Sp_counted_ptr_inplaceIN8asiodnp318PrintingSOEHandlerESaIS1_ELN9__gnu_cxx12_Lock_policyE2EE14_M_get_deleterERKSt9type_info,"axG",@progbits,_ZNSt23_Sp_counted_ptr_inplaceIN8asiodnp318PrintingSOEHandlerESaIS1_ELN9__gnu_cxx12_Lock_policyE2EE14_M_get_deleterERKSt9type_info,comdat
	.align 2
	.p2align 4,,15
	.weak	_ZNSt23_Sp_counted_ptr_inplaceIN8asiodnp318PrintingSOEHandlerESaIS1_ELN9__gnu_cxx12_Lock_policyE2EE14_M_get_deleterERKSt9type_info
	.type	_ZNSt23_Sp_counted_ptr_inplaceIN8asiodnp318PrintingSOEHandlerESaIS1_ELN9__gnu_cxx12_Lock_policyE2EE14_M_get_deleterERKSt9type_info, @function
_ZNSt23_Sp_counted_ptr_inplaceIN8asiodnp318PrintingSOEHandlerESaIS1_ELN9__gnu_cxx12_Lock_policyE2EE14_M_get_deleterERKSt9type_info:
.LFB4127:
	.cfi_startproc
	pushq	%rbx
	.cfi_def_cfa_offset 16
	.cfi_offset 3, -16
	movq	%rdi, %rbx
	movq	8(%rsi), %rdi
	movq	_ZTSSt19_Sp_make_shared_tag@GOTPCREL(%rip), %rsi
	cmpq	%rsi, %rdi
	je	.L12
	cmpb	$42, (%rdi)
	je	.L15
	call	strcmp@PLT
	testl	%eax, %eax
	jne	.L15
.L12:
	leaq	16(%rbx), %rax
	popq	%rbx
	.cfi_remember_state
	.cfi_def_cfa_offset 8
	ret
	.p2align 4,,10
	.p2align 3
.L15:
	.cfi_restore_state
	xorl	%eax, %eax
	popq	%rbx
	.cfi_def_cfa_offset 8
	ret
	.cfi_endproc
.LFE4127:
	.size	_ZNSt23_Sp_counted_ptr_inplaceIN8asiodnp318PrintingSOEHandlerESaIS1_ELN9__gnu_cxx12_Lock_policyE2EE14_M_get_deleterERKSt9type_info, .-_ZNSt23_Sp_counted_ptr_inplaceIN8asiodnp318PrintingSOEHandlerESaIS1_ELN9__gnu_cxx12_Lock_policyE2EE14_M_get_deleterERKSt9type_info
	.section	.text._ZNSt23_Sp_counted_ptr_inplaceIN8asiodnp324DefaultMasterApplicationESaIS1_ELN9__gnu_cxx12_Lock_policyE2EE14_M_get_deleterERKSt9type_info,"axG",@progbits,_ZNSt23_Sp_counted_ptr_inplaceIN8asiodnp324DefaultMasterApplicationESaIS1_ELN9__gnu_cxx12_Lock_policyE2EE14_M_get_deleterERKSt9type_info,comdat
	.align 2
	.p2align 4,,15
	.weak	_ZNSt23_Sp_counted_ptr_inplaceIN8asiodnp324DefaultMasterApplicationESaIS1_ELN9__gnu_cxx12_Lock_policyE2EE14_M_get_deleterERKSt9type_info
	.type	_ZNSt23_Sp_counted_ptr_inplaceIN8asiodnp324DefaultMasterApplicationESaIS1_ELN9__gnu_cxx12_Lock_policyE2EE14_M_get_deleterERKSt9type_info, @function
_ZNSt23_Sp_counted_ptr_inplaceIN8asiodnp324DefaultMasterApplicationESaIS1_ELN9__gnu_cxx12_Lock_policyE2EE14_M_get_deleterERKSt9type_info:
.LFB4120:
	.cfi_startproc
	pushq	%rbx
	.cfi_def_cfa_offset 16
	.cfi_offset 3, -16
	movq	%rdi, %rbx
	movq	8(%rsi), %rdi
	movq	_ZTSSt19_Sp_make_shared_tag@GOTPCREL(%rip), %rsi
	cmpq	%rsi, %rdi
	je	.L18
	cmpb	$42, (%rdi)
	je	.L21
	call	strcmp@PLT
	testl	%eax, %eax
	jne	.L21
.L18:
	leaq	16(%rbx), %rax
	popq	%rbx
	.cfi_remember_state
	.cfi_def_cfa_offset 8
	ret
	.p2align 4,,10
	.p2align 3
.L21:
	.cfi_restore_state
	xorl	%eax, %eax
	popq	%rbx
	.cfi_def_cfa_offset 8
	ret
	.cfi_endproc
.LFE4120:
	.size	_ZNSt23_Sp_counted_ptr_inplaceIN8asiodnp324DefaultMasterApplicationESaIS1_ELN9__gnu_cxx12_Lock_policyE2EE14_M_get_deleterERKSt9type_info, .-_ZNSt23_Sp_counted_ptr_inplaceIN8asiodnp324DefaultMasterApplicationESaIS1_ELN9__gnu_cxx12_Lock_policyE2EE14_M_get_deleterERKSt9type_info
	.section	.text._ZN8asiodnp322DefaultListenCallbacksD0Ev,"axG",@progbits,_ZN8asiodnp322DefaultListenCallbacksD5Ev,comdat
	.align 2
	.p2align 4,,15
	.weak	_ZN8asiodnp322DefaultListenCallbacksD0Ev
	.type	_ZN8asiodnp322DefaultListenCallbacksD0Ev, @function
_ZN8asiodnp322DefaultListenCallbacksD0Ev:
.LFB3226:
	.cfi_startproc
	movl	$8, %esi
	jmp	_ZdlPvm@PLT
	.cfi_endproc
.LFE3226:
	.size	_ZN8asiodnp322DefaultListenCallbacksD0Ev, .-_ZN8asiodnp322DefaultListenCallbacksD0Ev
	.section	.text._ZNSt23_Sp_counted_ptr_inplaceIN8asiodnp318PrintingSOEHandlerESaIS1_ELN9__gnu_cxx12_Lock_policyE2EED0Ev,"axG",@progbits,_ZNSt23_Sp_counted_ptr_inplaceIN8asiodnp318PrintingSOEHandlerESaIS1_ELN9__gnu_cxx12_Lock_policyE2EED5Ev,comdat
	.align 2
	.p2align 4,,15
	.weak	_ZNSt23_Sp_counted_ptr_inplaceIN8asiodnp318PrintingSOEHandlerESaIS1_ELN9__gnu_cxx12_Lock_policyE2EED0Ev
	.type	_ZNSt23_Sp_counted_ptr_inplaceIN8asiodnp318PrintingSOEHandlerESaIS1_ELN9__gnu_cxx12_Lock_policyE2EED0Ev, @function
_ZNSt23_Sp_counted_ptr_inplaceIN8asiodnp318PrintingSOEHandlerESaIS1_ELN9__gnu_cxx12_Lock_policyE2EED0Ev:
.LFB4124:
	.cfi_startproc
	movl	$24, %esi
	jmp	_ZdlPvm@PLT
	.cfi_endproc
.LFE4124:
	.size	_ZNSt23_Sp_counted_ptr_inplaceIN8asiodnp318PrintingSOEHandlerESaIS1_ELN9__gnu_cxx12_Lock_policyE2EED0Ev, .-_ZNSt23_Sp_counted_ptr_inplaceIN8asiodnp318PrintingSOEHandlerESaIS1_ELN9__gnu_cxx12_Lock_policyE2EED0Ev
	.section	.text._ZNSt23_Sp_counted_ptr_inplaceIN8asiodnp324DefaultMasterApplicationESaIS1_ELN9__gnu_cxx12_Lock_policyE2EED0Ev,"axG",@progbits,_ZNSt23_Sp_counted_ptr_inplaceIN8asiodnp324DefaultMasterApplicationESaIS1_ELN9__gnu_cxx12_Lock_policyE2EED5Ev,comdat
	.align 2
	.p2align 4,,15
	.weak	_ZNSt23_Sp_counted_ptr_inplaceIN8asiodnp324DefaultMasterApplicationESaIS1_ELN9__gnu_cxx12_Lock_policyE2EED0Ev
	.type	_ZNSt23_Sp_counted_ptr_inplaceIN8asiodnp324DefaultMasterApplicationESaIS1_ELN9__gnu_cxx12_Lock_policyE2EED0Ev, @function
_ZNSt23_Sp_counted_ptr_inplaceIN8asiodnp324DefaultMasterApplicationESaIS1_ELN9__gnu_cxx12_Lock_policyE2EED0Ev:
.LFB4117:
	.cfi_startproc
	movl	$32, %esi
	jmp	_ZdlPvm@PLT
	.cfi_endproc
.LFE4117:
	.size	_ZNSt23_Sp_counted_ptr_inplaceIN8asiodnp324DefaultMasterApplicationESaIS1_ELN9__gnu_cxx12_Lock_policyE2EED0Ev, .-_ZNSt23_Sp_counted_ptr_inplaceIN8asiodnp324DefaultMasterApplicationESaIS1_ELN9__gnu_cxx12_Lock_policyE2EED0Ev
	.section	.text._ZNSt23_Sp_counted_ptr_inplaceIN8asiodnp324DefaultMasterApplicationESaIS1_ELN9__gnu_cxx12_Lock_policyE2EE10_M_destroyEv,"axG",@progbits,_ZNSt23_Sp_counted_ptr_inplaceIN8asiodnp324DefaultMasterApplicationESaIS1_ELN9__gnu_cxx12_Lock_policyE2EE10_M_destroyEv,comdat
	.align 2
	.p2align 4,,15
	.weak	_ZNSt23_Sp_counted_ptr_inplaceIN8asiodnp324DefaultMasterApplicationESaIS1_ELN9__gnu_cxx12_Lock_policyE2EE10_M_destroyEv
	.type	_ZNSt23_Sp_counted_ptr_inplaceIN8asiodnp324DefaultMasterApplicationESaIS1_ELN9__gnu_cxx12_Lock_policyE2EE10_M_destroyEv, @function
_ZNSt23_Sp_counted_ptr_inplaceIN8asiodnp324DefaultMasterApplicationESaIS1_ELN9__gnu_cxx12_Lock_policyE2EE10_M_destroyEv:
.LFB4119:
	.cfi_startproc
	jmp	_ZdlPv@PLT
	.cfi_endproc
.LFE4119:
	.size	_ZNSt23_Sp_counted_ptr_inplaceIN8asiodnp324DefaultMasterApplicationESaIS1_ELN9__gnu_cxx12_Lock_policyE2EE10_M_destroyEv, .-_ZNSt23_Sp_counted_ptr_inplaceIN8asiodnp324DefaultMasterApplicationESaIS1_ELN9__gnu_cxx12_Lock_policyE2EE10_M_destroyEv
	.section	.text._ZNSt23_Sp_counted_ptr_inplaceIN8asiodnp318PrintingSOEHandlerESaIS1_ELN9__gnu_cxx12_Lock_policyE2EE10_M_destroyEv,"axG",@progbits,_ZNSt23_Sp_counted_ptr_inplaceIN8asiodnp318PrintingSOEHandlerESaIS1_ELN9__gnu_cxx12_Lock_policyE2EE10_M_destroyEv,comdat
	.align 2
	.p2align 4,,15
	.weak	_ZNSt23_Sp_counted_ptr_inplaceIN8asiodnp318PrintingSOEHandlerESaIS1_ELN9__gnu_cxx12_Lock_policyE2EE10_M_destroyEv
	.type	_ZNSt23_Sp_counted_ptr_inplaceIN8asiodnp318PrintingSOEHandlerESaIS1_ELN9__gnu_cxx12_Lock_policyE2EE10_M_destroyEv, @function
_ZNSt23_Sp_counted_ptr_inplaceIN8asiodnp318PrintingSOEHandlerESaIS1_ELN9__gnu_cxx12_Lock_policyE2EE10_M_destroyEv:
.LFB4126:
	.cfi_startproc
	jmp	_ZdlPv@PLT
	.cfi_endproc
.LFE4126:
	.size	_ZNSt23_Sp_counted_ptr_inplaceIN8asiodnp318PrintingSOEHandlerESaIS1_ELN9__gnu_cxx12_Lock_policyE2EE10_M_destroyEv, .-_ZNSt23_Sp_counted_ptr_inplaceIN8asiodnp318PrintingSOEHandlerESaIS1_ELN9__gnu_cxx12_Lock_policyE2EE10_M_destroyEv
	.text
	.align 2
	.p2align 4,,15
	.globl	_ZN8asiodnp322DefaultListenCallbacksC2Ev
	.type	_ZN8asiodnp322DefaultListenCallbacksC2Ev, @function
_ZN8asiodnp322DefaultListenCallbacksC2Ev:
.LFB3231:
	.cfi_startproc
	movq	_ZTVN8asiodnp322DefaultListenCallbacksE@GOTPCREL(%rip), %rax
	addq	$16, %rax
	movq	%rax, (%rdi)
	ret
	.cfi_endproc
.LFE3231:
	.size	_ZN8asiodnp322DefaultListenCallbacksC2Ev, .-_ZN8asiodnp322DefaultListenCallbacksC2Ev
	.globl	_ZN8asiodnp322DefaultListenCallbacksC1Ev
	.set	_ZN8asiodnp322DefaultListenCallbacksC1Ev,_ZN8asiodnp322DefaultListenCallbacksC2Ev
	.section	.rodata.str1.1,"aMS",@progbits,1
.LC0:
	.string	"session-"
	.section	.rodata.str1.8,"aMS",@progbits,1
	.align 8
.LC1:
	.string	"basic_string::_M_construct null not valid"
	.text
	.align 2
	.p2align 4,,15
	.globl	_ZN8asiodnp322DefaultListenCallbacks17SessionIdToStringB5cxx11Em
	.type	_ZN8asiodnp322DefaultListenCallbacks17SessionIdToStringB5cxx11Em, @function
_ZN8asiodnp322DefaultListenCallbacks17SessionIdToStringB5cxx11Em:
.LFB3245:
	.cfi_startproc
	.cfi_personality 0x9b,DW.ref.__gxx_personality_v0
	.cfi_lsda 0x1b,.LLSDA3245
	pushq	%r15
	.cfi_def_cfa_offset 16
	.cfi_offset 15, -16
	pushq	%r14
	.cfi_def_cfa_offset 24
	.cfi_offset 14, -24
	pushq	%r13
	.cfi_def_cfa_offset 32
	.cfi_offset 13, -32
	pushq	%r12
	.cfi_def_cfa_offset 40
	.cfi_offset 12, -40
	pushq	%rbp
	.cfi_def_cfa_offset 48
	.cfi_offset 6, -48
	pushq	%rbx
	.cfi_def_cfa_offset 56
	.cfi_offset 3, -56
	movq	%rdi, %rbp
	subq	$488, %rsp
	.cfi_def_cfa_offset 544
	leaq	96(%rsp), %rbx
	movq	%rdx, (%rsp)
	movq	%fs:40, %rax
	movq	%rax, 472(%rsp)
	xorl	%eax, %eax
	leaq	112(%rbx), %rdi
	call	_ZNSt8ios_baseC2Ev@PLT
	movq	_ZTTNSt7__cxx1119basic_ostringstreamIcSt11char_traitsIcESaIcEEE@GOTPCREL(%rip), %r14
	movb	$0, 432(%rsp)
	xorl	%esi, %esi
	movq	_ZTVSt9basic_iosIcSt11char_traitsIcEE@GOTPCREL(%rip), %rax
	movq	$0, 424(%rsp)
	movb	$0, 433(%rsp)
	movq	$0, 440(%rsp)
	movq	8(%r14), %r12
	movq	16(%r14), %r15
	addq	$16, %rax
	movq	$0, 448(%rsp)
	movq	$0, 456(%rsp)
	movq	%rax, 208(%rsp)
	movq	$0, 464(%rsp)
	movq	-24(%r12), %rdi
	movq	%r12, 96(%rsp)
	addq	%rbx, %rdi
	movq	%r15, (%rdi)
.LEHB0:
	call	_ZNSt9basic_iosIcSt11char_traitsIcEE4initEPSt15basic_streambufIcS1_E@PLT
.LEHE0:
	movq	_ZTVNSt7__cxx1119basic_ostringstreamIcSt11char_traitsIcESaIcEEE@GOTPCREL(%rip), %r13
	pxor	%xmm0, %xmm0
	leaq	64(%rbx), %rdi
	leaq	24(%r13), %rax
	movaps	%xmm0, 112(%rsp)
	movq	%rax, 96(%rsp)
	leaq	64(%r13), %rax
	movaps	%xmm0, 128(%rsp)
	movaps	%xmm0, 144(%rsp)
	movq	%rax, 208(%rsp)
	movq	_ZTVSt15basic_streambufIcSt11char_traitsIcEE@GOTPCREL(%rip), %rax
	addq	$16, %rax
	movq	%rax, 104(%rsp)
	call	_ZNSt6localeC1Ev@PLT
	movq	_ZTVNSt7__cxx1115basic_stringbufIcSt11char_traitsIcESaIcEEE@GOTPCREL(%rip), %rax
	leaq	8(%rbx), %rsi
	leaq	112(%rbx), %rdi
	movl	$16, 168(%rsp)
	movq	$0, 184(%rsp)
	movb	$0, 192(%rsp)
	addq	$16, %rax
	movq	%rax, 104(%rsp)
	leaq	96(%rbx), %rax
	movq	%rax, 176(%rsp)
.LEHB1:
	call	_ZNSt9basic_iosIcSt11char_traitsIcEE4initEPSt15basic_streambufIcS1_E@PLT
.LEHE1:
	leaq	.LC0(%rip), %rsi
	movl	$8, %edx
	movq	%rbx, %rdi
.LEHB2:
	call	_ZSt16__ostream_insertIcSt11char_traitsIcEERSt13basic_ostreamIT_T0_ES6_PKS3_l@PLT
	movq	(%rsp), %rsi
	movq	%rbx, %rdi
	call	_ZNSo9_M_insertImEERSoT_@PLT
.LEHE2:
	leaq	16(%rbp), %rax
	movq	$0, 8(%rbp)
	movb	$0, 16(%rbp)
	movq	%rax, 8(%rsp)
	movq	%rax, 0(%rbp)
	movq	144(%rsp), %rax
	testq	%rax, %rax
	je	.L34
	movq	128(%rsp), %r15
	movq	136(%rsp), %r12
	cmpq	%r15, %rax
	ja	.L94
	leaq	32(%rsp), %rax
	testq	%r12, %r12
	movq	%rax, (%rsp)
	leaq	48(%rsp), %rax
	movq	%rax, 32(%rsp)
	jne	.L49
	testq	%r15, %r15
	jne	.L95
.L49:
	subq	%r12, %r15
	cmpq	$15, %r15
	movq	%r15, 24(%rsp)
	ja	.L96
	cmpq	$1, %r15
	jne	.L52
	movzbl	(%r12), %eax
	movb	%al, 48(%rsp)
	movq	(%rsp), %rax
	addq	$16, %rax
.L53:
	movq	%r15, 40(%rsp)
	movb	$0, (%rax,%r15)
	movq	(%rsp), %rax
	movq	32(%rsp), %rsi
	movq	0(%rbp), %rdi
	movq	40(%rsp), %rdx
	addq	$16, %rax
	cmpq	%rax, %rsi
	je	.L97
	cmpq	%rdi, 8(%rsp)
	movq	48(%rsp), %rax
	je	.L98
	testq	%rdi, %rdi
	movq	16(%rbp), %rcx
	movq	%rsi, 0(%rbp)
	movq	%rdx, 8(%rbp)
	movq	%rax, 16(%rbp)
	je	.L59
	movq	(%rsp), %rax
	movq	%rdi, 32(%rsp)
	movq	%rcx, 48(%rsp)
.L57:
	movq	$0, 40(%rsp)
	movb	$0, (%rdi)
	addq	$16, %rax
	movq	32(%rsp), %rdi
	cmpq	%rax, %rdi
	jne	.L93
	jmp	.L60
	.p2align 4,,10
	.p2align 3
.L94:
	leaq	64(%rsp), %rcx
	leaq	80(%rsp), %rdx
	testq	%r12, %r12
	movq	%rcx, (%rsp)
	movq	%rdx, 64(%rsp)
	je	.L99
	subq	%r12, %rax
	cmpq	$15, %rax
	movq	%rax, %r15
	movq	%rax, 16(%rsp)
	ja	.L100
	cmpq	$1, %rax
	jne	.L39
	movzbl	(%r12), %eax
	movb	%al, 80(%rsp)
.L40:
	movq	(%rsp), %rax
	movq	%r15, 72(%rsp)
	movb	$0, (%rdx,%r15)
	movq	64(%rsp), %rsi
	movq	0(%rbp), %rdi
	movq	72(%rsp), %rdx
	addq	$16, %rax
	cmpq	%rax, %rsi
	je	.L101
	cmpq	%rdi, 8(%rsp)
	movq	80(%rsp), %rax
	je	.L102
	testq	%rdi, %rdi
	movq	16(%rbp), %rcx
	movq	%rsi, 0(%rbp)
	movq	%rdx, 8(%rbp)
	movq	%rax, 16(%rbp)
	je	.L46
	movq	(%rsp), %rax
	movq	%rdi, 64(%rsp)
	movq	%rcx, 80(%rsp)
.L44:
	movq	$0, 72(%rsp)
	movb	$0, (%rdi)
	addq	$16, %rax
	movq	64(%rsp), %rdi
	cmpq	%rax, %rdi
	je	.L60
.L93:
	call	_ZdlPv@PLT
.L60:
	movq	8(%r14), %r12
	movq	16(%r14), %r15
.L48:
	leaq	64(%r13), %rax
	leaq	24(%r13), %rcx
	movq	176(%rsp), %rdi
	movq	%rax, 208(%rsp)
	movq	_ZTVNSt7__cxx1115basic_stringbufIcSt11char_traitsIcESaIcEEE@GOTPCREL(%rip), %rax
	movq	%rcx, (%rsp)
	movq	(%rsp), %xmm0
	addq	$16, %rax
	movq	%rax, (%rsp)
	leaq	96(%rbx), %rax
	movhps	(%rsp), %xmm0
	cmpq	%rax, %rdi
	movaps	%xmm0, 96(%rsp)
	je	.L64
	call	_ZdlPv@PLT
.L64:
	leaq	64(%rbx), %rdi
	movq	_ZTVSt15basic_streambufIcSt11char_traitsIcEE@GOTPCREL(%rip), %rax
	addq	$16, %rax
	movq	%rax, 104(%rsp)
	call	_ZNSt6localeD1Ev@PLT
	movq	-24(%r12), %rax
	movq	%r12, 96(%rsp)
	leaq	112(%rbx), %rdi
	movq	%r15, 96(%rsp,%rax)
	movq	_ZTVSt9basic_iosIcSt11char_traitsIcEE@GOTPCREL(%rip), %rax
	addq	$16, %rax
	movq	%rax, 208(%rsp)
	call	_ZNSt8ios_baseD2Ev@PLT
	movq	472(%rsp), %rcx
	xorq	%fs:40, %rcx
	movq	%rbp, %rax
	jne	.L103
	addq	$488, %rsp
	.cfi_remember_state
	.cfi_def_cfa_offset 56
	popq	%rbx
	.cfi_def_cfa_offset 48
	popq	%rbp
	.cfi_def_cfa_offset 40
	popq	%r12
	.cfi_def_cfa_offset 32
	popq	%r13
	.cfi_def_cfa_offset 24
	popq	%r14
	.cfi_def_cfa_offset 16
	popq	%r15
	.cfi_def_cfa_offset 8
	ret
	.p2align 4,,10
	.p2align 3
.L52:
	.cfi_restore_state
	movq	(%rsp), %rax
	addq	$16, %rax
	testq	%r15, %r15
	je	.L53
	jmp	.L51
	.p2align 4,,10
	.p2align 3
.L39:
	testq	%rax, %rax
	je	.L40
	movq	%rdx, %rax
	jmp	.L38
	.p2align 4,,10
	.p2align 3
.L34:
	leaq	80(%rbx), %rsi
	movq	%rbp, %rdi
.LEHB3:
	call	_ZNSt7__cxx1112basic_stringIcSt11char_traitsIcESaIcEE9_M_assignERKS4_@PLT
	jmp	.L48
	.p2align 4,,10
	.p2align 3
.L100:
	leaq	16(%rsp), %rsi
	movq	%rcx, %rdi
	xorl	%edx, %edx
	call	_ZNSt7__cxx1112basic_stringIcSt11char_traitsIcESaIcEE9_M_createERmm@PLT
	movq	16(%rsp), %rdx
	movq	%rax, 64(%rsp)
	movq	%rdx, 80(%rsp)
.L38:
	movq	%r15, %rdx
	movq	%r12, %rsi
	movq	%rax, %rdi
	call	memcpy@PLT
	movq	16(%rsp), %r15
	movq	64(%rsp), %rdx
	jmp	.L40
	.p2align 4,,10
	.p2align 3
.L96:
	movq	(%rsp), %rdi
	leaq	24(%rsp), %rsi
	xorl	%edx, %edx
	call	_ZNSt7__cxx1112basic_stringIcSt11char_traitsIcESaIcEE9_M_createERmm@PLT
.LEHE3:
	movq	24(%rsp), %rdx
	movq	%rax, 32(%rsp)
	movq	%rdx, 48(%rsp)
.L51:
	movq	%r15, %rdx
	movq	%r12, %rsi
	movq	%rax, %rdi
	call	memcpy@PLT
	movq	24(%rsp), %r15
	movq	32(%rsp), %rax
	jmp	.L53
	.p2align 4,,10
	.p2align 3
.L101:
	testq	%rdx, %rdx
	je	.L42
	cmpq	$1, %rdx
	jne	.L43
	movzbl	80(%rsp), %eax
	movb	%al, (%rdi)
	movq	72(%rsp), %rdx
	movq	0(%rbp), %rdi
.L42:
	movq	%rdx, 8(%rbp)
	movq	(%rsp), %rax
	movb	$0, (%rdi,%rdx)
	movq	64(%rsp), %rdi
	jmp	.L44
	.p2align 4,,10
	.p2align 3
.L97:
	testq	%rdx, %rdx
	je	.L55
	cmpq	$1, %rdx
	jne	.L56
	movzbl	48(%rsp), %eax
	movb	%al, (%rdi)
	movq	40(%rsp), %rdx
	movq	0(%rbp), %rdi
.L55:
	movq	%rdx, 8(%rbp)
	movq	(%rsp), %rax
	movb	$0, (%rdi,%rdx)
	movq	32(%rsp), %rdi
	jmp	.L57
	.p2align 4,,10
	.p2align 3
.L98:
	movq	%rsi, 0(%rbp)
	movq	%rdx, 8(%rbp)
	movq	%rax, 16(%rbp)
.L59:
	movq	(%rsp), %rax
	leaq	16(%rax), %rdi
	movq	%rdi, 32(%rsp)
	jmp	.L57
	.p2align 4,,10
	.p2align 3
.L102:
	movq	%rsi, 0(%rbp)
	movq	%rdx, 8(%rbp)
	movq	%rax, 16(%rbp)
.L46:
	movq	(%rsp), %rax
	leaq	16(%rax), %rdi
	movq	%rdi, 64(%rsp)
	jmp	.L44
	.p2align 4,,10
	.p2align 3
.L43:
	call	memcpy@PLT
	movq	72(%rsp), %rdx
	movq	0(%rbp), %rdi
	jmp	.L42
	.p2align 4,,10
	.p2align 3
.L56:
	call	memcpy@PLT
	movq	40(%rsp), %rdx
	movq	0(%rbp), %rdi
	jmp	.L55
.L103:
	call	__stack_chk_fail@PLT
.L68:
	movq	%rax, %r12
.L63:
	movq	%rbx, %rdi
	call	_ZNSt7__cxx1119basic_ostringstreamIcSt11char_traitsIcESaIcEED1Ev@PLT
	movq	%r12, %rdi
.LEHB4:
	call	_Unwind_Resume@PLT
.L70:
	movq	%rax, %rbp
	movq	_ZTVNSt7__cxx1115basic_stringbufIcSt11char_traitsIcESaIcEEE@GOTPCREL(%rip), %rax
	movq	176(%rsp), %rdi
	addq	$16, %rax
	movq	%rax, 104(%rsp)
	leaq	96(%rbx), %rax
	cmpq	%rax, %rdi
	je	.L32
	call	_ZdlPv@PLT
.L32:
	movq	_ZTVSt15basic_streambufIcSt11char_traitsIcEE@GOTPCREL(%rip), %rax
	leaq	64(%rbx), %rdi
	addq	$16, %rax
	movq	%rax, 104(%rsp)
	call	_ZNSt6localeD1Ev@PLT
	movq	-24(%r12), %rax
	movq	%r12, 96(%rsp)
	movq	%r15, 96(%rsp,%rax)
.L33:
	movq	_ZTVSt9basic_iosIcSt11char_traitsIcEE@GOTPCREL(%rip), %rax
	leaq	112(%rbx), %rdi
	addq	$16, %rax
	movq	%rax, 208(%rsp)
	call	_ZNSt8ios_baseD2Ev@PLT
	movq	%rbp, %rdi
	call	_Unwind_Resume@PLT
.LEHE4:
.L71:
	movq	0(%rbp), %rdi
	cmpq	%rdi, 8(%rsp)
	movq	%rax, %r12
	je	.L63
	call	_ZdlPv@PLT
	jmp	.L63
.L99:
	leaq	.LC1(%rip), %rdi
.LEHB5:
	call	_ZSt19__throw_logic_errorPKc@PLT
.L69:
	movq	%rax, %rbp
	jmp	.L33
.L95:
	leaq	.LC1(%rip), %rdi
	call	_ZSt19__throw_logic_errorPKc@PLT
.LEHE5:
	.cfi_endproc
.LFE3245:
	.globl	__gxx_personality_v0
	.section	.gcc_except_table,"a",@progbits
.LLSDA3245:
	.byte	0xff
	.byte	0xff
	.byte	0x1
	.uleb128 .LLSDACSE3245-.LLSDACSB3245
.LLSDACSB3245:
	.uleb128 .LEHB0-.LFB3245
	.uleb128 .LEHE0-.LEHB0
	.uleb128 .L69-.LFB3245
	.uleb128 0
	.uleb128 .LEHB1-.LFB3245
	.uleb128 .LEHE1-.LEHB1
	.uleb128 .L70-.LFB3245
	.uleb128 0
	.uleb128 .LEHB2-.LFB3245
	.uleb128 .LEHE2-.LEHB2
	.uleb128 .L68-.LFB3245
	.uleb128 0
	.uleb128 .LEHB3-.LFB3245
	.uleb128 .LEHE3-.LEHB3
	.uleb128 .L71-.LFB3245
	.uleb128 0
	.uleb128 .LEHB4-.LFB3245
	.uleb128 .LEHE4-.LEHB4
	.uleb128 0
	.uleb128 0
	.uleb128 .LEHB5-.LFB3245
	.uleb128 .LEHE5-.LEHB5
	.uleb128 .L71-.LFB3245
	.uleb128 0
.LLSDACSE3245:
	.text
	.size	_ZN8asiodnp322DefaultListenCallbacks17SessionIdToStringB5cxx11Em, .-_ZN8asiodnp322DefaultListenCallbacks17SessionIdToStringB5cxx11Em
	.section	.text._ZNSt16_Sp_counted_baseILN9__gnu_cxx12_Lock_policyE2EE10_M_releaseEv,"axG",@progbits,_ZNSt16_Sp_counted_baseILN9__gnu_cxx12_Lock_policyE2EE10_M_releaseEv,comdat
	.align 2
	.p2align 4,,15
	.weak	_ZNSt16_Sp_counted_baseILN9__gnu_cxx12_Lock_policyE2EE10_M_releaseEv
	.type	_ZNSt16_Sp_counted_baseILN9__gnu_cxx12_Lock_policyE2EE10_M_releaseEv, @function
_ZNSt16_Sp_counted_baseILN9__gnu_cxx12_Lock_policyE2EE10_M_releaseEv:
.LFB3695:
	.cfi_startproc
	cmpq	$0, _ZL28__gthrw___pthread_key_createPjPFvPvE@GOTPCREL(%rip)
	pushq	%rbx
	.cfi_def_cfa_offset 16
	.cfi_offset 3, -16
	movq	%rdi, %rbx
	je	.L105
	lock subl	$1, 8(%rdi)
	je	.L112
.L104:
	popq	%rbx
	.cfi_remember_state
	.cfi_def_cfa_offset 8
	ret
	.p2align 4,,10
	.p2align 3
.L105:
	.cfi_restore_state
	movl	8(%rdi), %eax
	leal	-1(%rax), %edx
	cmpl	$1, %eax
	movl	%edx, 8(%rdi)
	jne	.L104
	movq	(%rdi), %rax
	call	*16(%rax)
	movl	12(%rbx), %eax
	leal	-1(%rax), %edx
	movl	%edx, 12(%rbx)
	jmp	.L110
	.p2align 4,,10
	.p2align 3
.L112:
	movq	(%rdi), %rax
	call	*16(%rax)
	movl	$-1, %eax
	lock xaddl	%eax, 12(%rbx)
.L110:
	cmpl	$1, %eax
	jne	.L104
	movq	(%rbx), %rax
	movq	%rbx, %rdi
	popq	%rbx
	.cfi_def_cfa_offset 8
	movq	24(%rax), %rax
	jmp	*%rax
	.cfi_endproc
.LFE3695:
	.size	_ZNSt16_Sp_counted_baseILN9__gnu_cxx12_Lock_policyE2EE10_M_releaseEv, .-_ZNSt16_Sp_counted_baseILN9__gnu_cxx12_Lock_policyE2EE10_M_releaseEv
	.text
	.align 2
	.p2align 4,,15
	.globl	_ZN8asiodnp322DefaultListenCallbacks12OnFirstFrameEmRKN8opendnp316LinkHeaderFieldsERNS_16ISessionAcceptorE
	.type	_ZN8asiodnp322DefaultListenCallbacks12OnFirstFrameEmRKN8opendnp316LinkHeaderFieldsERNS_16ISessionAcceptorE, @function
_ZN8asiodnp322DefaultListenCallbacks12OnFirstFrameEmRKN8opendnp316LinkHeaderFieldsERNS_16ISessionAcceptorE:
.LFB3236:
	.cfi_startproc
	.cfi_personality 0x9b,DW.ref.__gxx_personality_v0
	.cfi_lsda 0x1b,.LLSDA3236
	pushq	%r15
	.cfi_def_cfa_offset 16
	.cfi_offset 15, -16
	pushq	%r14
	.cfi_def_cfa_offset 24
	.cfi_offset 14, -24
	movq	%rcx, %r14
	pushq	%r13
	.cfi_def_cfa_offset 32
	.cfi_offset 13, -32
	pushq	%r12
	.cfi_def_cfa_offset 40
	.cfi_offset 12, -40
	movabsq	$4294967297, %r15
	pushq	%rbp
	.cfi_def_cfa_offset 48
	.cfi_offset 6, -48
	pushq	%rbx
	.cfi_def_cfa_offset 56
	.cfi_offset 3, -56
	movq	%rdx, %rbx
	subq	$216, %rsp
	.cfi_def_cfa_offset 272
	movq	%rdi, (%rsp)
	movl	$5, %edi
	movq	%rsi, 8(%rsp)
	movq	%fs:40, %rax
	movq	%rax, 200(%rsp)
	xorl	%eax, %eax
.LEHB6:
	call	_ZN7openpal12TimeDuration7SecondsEl@PLT
	movb	$0, 88(%rsp)
	movq	%rax, 80(%rsp)
	movb	$1, 89(%rsp)
	movb	$0, 90(%rsp)
	call	_ZN8opendnp310ClassField15AllEventClassesEv@PLT
	movb	%al, 91(%rsp)
	call	_ZN8opendnp310ClassField10AllClassesEv@PLT
	movb	$1, 93(%rsp)
	movb	%al, 92(%rsp)
	call	_ZN8opendnp310ClassField4NoneEv@PLT
	movl	$5, %edi
	movb	%al, 94(%rsp)
	call	_ZN7openpal12TimeDuration7SecondsEl@PLT
	movl	$10, %edi
	movq	%rax, 96(%rsp)
	call	_ZN7openpal12TimeDuration7SecondsEl@PLT
	movq	%rax, 104(%rsp)
	movabsq	$8796093024256, %rax
	movl	$1, %edi
	movq	%rax, 112(%rsp)
	movabsq	$288230380446679040, %rax
	movb	$1, 120(%rsp)
	movb	$0, 121(%rsp)
	movq	%rax, 124(%rsp)
	call	_ZN7openpal12TimeDuration7SecondsEl@PLT
	movl	$1, %edi
	movq	%rax, 136(%rsp)
	call	_ZN7openpal12TimeDuration7MinutesEl@PLT
	movq	%rax, 144(%rsp)
	movzwl	4(%rbx), %eax
	movl	$24, %edi
	movw	%ax, 128(%rsp)
	movzwl	6(%rbx), %eax
	movw	%ax, 130(%rsp)
	call	_Znwm@PLT
.LEHE6:
	movq	%rax, %rbp
	movq	%r15, 8(%rax)
	movq	_ZTVSt23_Sp_counted_ptr_inplaceIN8asiodnp318PrintingSOEHandlerESaIS1_ELN9__gnu_cxx12_Lock_policyE2EE@GOTPCREL(%rip), %rax
	movl	$32, %edi
	addq	$16, %rax
	movq	%rax, 0(%rbp)
	movq	_ZTVN8asiodnp318PrintingSOEHandlerE@GOTPCREL(%rip), %rax
	addq	$16, %rax
	movq	%rax, 16(%rbp)
.LEHB7:
	call	_Znwm@PLT
.LEHE7:
	movq	%rax, %rbx
	movq	%r15, 8(%rax)
	movq	_ZTVSt23_Sp_counted_ptr_inplaceIN8asiodnp324DefaultMasterApplicationESaIS1_ELN9__gnu_cxx12_Lock_policyE2EE@GOTPCREL(%rip), %rax
	movq	_ZL28__gthrw___pthread_key_createPjPFvPvE@GOTPCREL(%rip), %r13
	leaq	8(%rbp), %rsi
	leaq	16(%rbp), %r12
	movq	%rbx, 72(%rsp)
	addq	$16, %rax
	movq	%rsi, 16(%rsp)
	movq	%rax, (%rbx)
	movq	_ZTVN8asiodnp324DefaultMasterApplicationE@GOTPCREL(%rip), %rax
	leaq	16(%rax), %rdx
	addq	$144, %rax
	testq	%r13, %r13
	movq	%rax, 24(%rbx)
	movq	(%r14), %rax
	movq	%rdx, 16(%rbx)
	movq	16(%rax), %r15
	leaq	16(%rbx), %rax
	movq	%rax, 64(%rsp)
	leaq	8(%rbx), %rax
	movq	%rax, 24(%rsp)
	jne	.L188
	addl	$1, 8(%rbp)
	movl	$2, 8(%rbx)
	movq	%r12, 48(%rsp)
	movq	%rbp, 56(%rsp)
.L115:
	leaq	160(%rsp), %r12
	movq	8(%rsp), %rdx
	movq	(%rsp), %rsi
	movq	%r12, %rdi
.LEHB8:
	call	_ZN8asiodnp322DefaultListenCallbacks17SessionIdToStringB5cxx11Em@PLT
.LEHE8:
	leaq	32(%rsp), %rdi
	leaq	48(%rsp), %rcx
	leaq	80(%rsp), %r9
	leaq	64(%rsp), %r8
	movq	%r12, %rdx
	movq	%r14, %rsi
.LEHB9:
	call	*%r15
.LEHE9:
	movq	160(%rsp), %rdi
	addq	$16, %r12
	cmpq	%r12, %rdi
	je	.L116
	call	_ZdlPv@PLT
.L116:
	movq	56(%rsp), %r12
	testq	%r12, %r12
	je	.L118
	testq	%r13, %r13
	je	.L119
	lock subl	$1, 8(%r12)
	je	.L189
.L118:
	movq	72(%rsp), %r12
	testq	%r12, %r12
	je	.L124
	testq	%r13, %r13
	je	.L125
	lock subl	$1, 8(%r12)
	je	.L190
.L124:
	movq	40(%rsp), %r12
	testq	%r12, %r12
	je	.L129
	testq	%r13, %r13
	je	.L130
	lock subl	$1, 8(%r12)
	je	.L191
.L149:
	movq	24(%rsp), %rcx
	lock subl	$1, (%rcx)
	je	.L192
.L138:
	testq	%r13, %r13
	je	.L152
.L151:
	movq	16(%rsp), %rcx
	lock subl	$1, (%rcx)
	je	.L193
.L113:
	movq	200(%rsp), %rax
	xorq	%fs:40, %rax
	jne	.L194
	addq	$216, %rsp
	.cfi_remember_state
	.cfi_def_cfa_offset 56
	popq	%rbx
	.cfi_def_cfa_offset 48
	popq	%rbp
	.cfi_def_cfa_offset 40
	popq	%r12
	.cfi_def_cfa_offset 32
	popq	%r13
	.cfi_def_cfa_offset 24
	popq	%r14
	.cfi_def_cfa_offset 16
	popq	%r15
	.cfi_def_cfa_offset 8
	ret
	.p2align 4,,10
	.p2align 3
.L191:
	.cfi_restore_state
	movq	(%r12), %rax
	movq	%r12, %rdi
	call	*16(%rax)
	lock subl	$1, 12(%r12)
	jne	.L149
.L155:
	movq	(%r12), %rax
	movq	%r12, %rdi
	call	*24(%rax)
	.p2align 4,,10
	.p2align 3
.L129:
	testq	%r13, %r13
	jne	.L149
.L150:
	movl	8(%rbx), %eax
	leal	-1(%rax), %edx
	cmpl	$1, %eax
	movl	%edx, 8(%rbx)
	je	.L195
.L152:
	movl	8(%rbp), %eax
	leal	-1(%rax), %edx
	cmpl	$1, %eax
	movl	%edx, 8(%rbp)
	jne	.L113
	movq	0(%rbp), %rax
	movq	%rbp, %rdi
	call	*16(%rax)
	movl	12(%rbp), %eax
	leal	-1(%rax), %edx
	movl	%edx, 12(%rbp)
.L161:
	cmpl	$1, %eax
	jne	.L113
	movq	0(%rbp), %rax
	movq	%rbp, %rdi
	call	*24(%rax)
	jmp	.L113
	.p2align 4,,10
	.p2align 3
.L125:
	movl	8(%r12), %eax
	leal	-1(%rax), %edx
	cmpl	$1, %eax
	movl	%edx, 8(%r12)
	jne	.L124
	movq	(%r12), %rax
	movq	%r12, %rdi
	call	*16(%rax)
	movl	12(%r12), %eax
	leal	-1(%rax), %edx
	movl	%edx, 12(%r12)
	jmp	.L154
	.p2align 4,,10
	.p2align 3
.L130:
	movl	8(%r12), %eax
	leal	-1(%rax), %edx
	cmpl	$1, %eax
	movl	%edx, 8(%r12)
	jne	.L150
	movq	(%r12), %rax
	movq	%r12, %rdi
	call	*16(%rax)
	movl	12(%r12), %eax
	leal	-1(%rax), %edx
	cmpl	$1, %eax
	movl	%edx, 12(%r12)
	jne	.L150
	jmp	.L155
	.p2align 4,,10
	.p2align 3
.L119:
	movl	8(%r12), %eax
	leal	-1(%rax), %edx
	cmpl	$1, %eax
	movl	%edx, 8(%r12)
	jne	.L118
	movq	(%r12), %rax
	movq	%r12, %rdi
	call	*16(%rax)
	movl	12(%r12), %eax
	leal	-1(%rax), %edx
	movl	%edx, 12(%r12)
	jmp	.L153
	.p2align 4,,10
	.p2align 3
.L188:
	lock addl	$1, (%rax)
	movq	%r12, 48(%rsp)
	movq	%rbp, 56(%rsp)
	lock addl	$1, (%rsi)
	jmp	.L115
	.p2align 4,,10
	.p2align 3
.L189:
	movq	(%r12), %rax
	movq	%r12, %rdi
	call	*16(%rax)
	movl	$-1, %eax
	lock xaddl	%eax, 12(%r12)
.L153:
	cmpl	$1, %eax
	jne	.L118
	movq	(%r12), %rax
	movq	%r12, %rdi
	call	*24(%rax)
	jmp	.L118
	.p2align 4,,10
	.p2align 3
.L190:
	movq	(%r12), %rax
	movq	%r12, %rdi
	call	*16(%rax)
	movl	$-1, %eax
	lock xaddl	%eax, 12(%r12)
.L154:
	cmpl	$1, %eax
	jne	.L124
	movq	(%r12), %rax
	movq	%r12, %rdi
	call	*24(%rax)
	jmp	.L124
	.p2align 4,,10
	.p2align 3
.L195:
	movq	(%rbx), %rax
	movq	%rbx, %rdi
	call	*16(%rax)
	movl	12(%rbx), %eax
	leal	-1(%rax), %edx
	cmpl	$1, %eax
	movl	%edx, 12(%rbx)
	jne	.L152
	.p2align 4,,10
	.p2align 3
.L158:
	movq	(%rbx), %rax
	movq	%rbx, %rdi
	call	*24(%rax)
	jmp	.L138
	.p2align 4,,10
	.p2align 3
.L193:
	movq	0(%rbp), %rax
	movq	%rbp, %rdi
	call	*16(%rax)
	movl	$-1, %eax
	lock xaddl	%eax, 12(%rbp)
	jmp	.L161
	.p2align 4,,10
	.p2align 3
.L192:
	movq	(%rbx), %rax
	movq	%rbx, %rdi
	call	*16(%rax)
	lock subl	$1, 12(%rbx)
	je	.L158
	jmp	.L151
.L194:
	call	__stack_chk_fail@PLT
.L164:
	movq	%rax, %r12
.L145:
	movq	56(%rsp), %rdi
	testq	%rdi, %rdi
	je	.L146
	call	_ZNSt16_Sp_counted_baseILN9__gnu_cxx12_Lock_policyE2EE10_M_releaseEv@PLT
.L146:
	movq	72(%rsp), %rdi
	testq	%rdi, %rdi
	je	.L147
	call	_ZNSt16_Sp_counted_baseILN9__gnu_cxx12_Lock_policyE2EE10_M_releaseEv@PLT
.L147:
	movq	%rbx, %rdi
	call	_ZNSt16_Sp_counted_baseILN9__gnu_cxx12_Lock_policyE2EE10_M_releaseEv@PLT
.L148:
	movq	%rbp, %rdi
	call	_ZNSt16_Sp_counted_baseILN9__gnu_cxx12_Lock_policyE2EE10_M_releaseEv@PLT
	movq	%r12, %rdi
.LEHB10:
	call	_Unwind_Resume@PLT
.LEHE10:
.L163:
	movq	%rax, %r12
	jmp	.L148
.L165:
	movq	160(%rsp), %rdi
	addq	$16, %r12
	movq	%rax, %r13
	cmpq	%r12, %rdi
	je	.L144
	call	_ZdlPv@PLT
.L144:
	movq	%r13, %r12
	jmp	.L145
	.cfi_endproc
.LFE3236:
	.section	.gcc_except_table
.LLSDA3236:
	.byte	0xff
	.byte	0xff
	.byte	0x1
	.uleb128 .LLSDACSE3236-.LLSDACSB3236
.LLSDACSB3236:
	.uleb128 .LEHB6-.LFB3236
	.uleb128 .LEHE6-.LEHB6
	.uleb128 0
	.uleb128 0
	.uleb128 .LEHB7-.LFB3236
	.uleb128 .LEHE7-.LEHB7
	.uleb128 .L163-.LFB3236
	.uleb128 0
	.uleb128 .LEHB8-.LFB3236
	.uleb128 .LEHE8-.LEHB8
	.uleb128 .L164-.LFB3236
	.uleb128 0
	.uleb128 .LEHB9-.LFB3236
	.uleb128 .LEHE9-.LEHB9
	.uleb128 .L165-.LFB3236
	.uleb128 0
	.uleb128 .LEHB10-.LFB3236
	.uleb128 .LEHE10-.LEHB10
	.uleb128 0
	.uleb128 0
.LLSDACSE3236:
	.text
	.size	_ZN8asiodnp322DefaultListenCallbacks12OnFirstFrameEmRKN8opendnp316LinkHeaderFieldsERNS_16ISessionAcceptorE, .-_ZN8asiodnp322DefaultListenCallbacks12OnFirstFrameEmRKN8opendnp316LinkHeaderFieldsERNS_16ISessionAcceptorE
	.section	.text.startup,"ax",@progbits
	.p2align 4,,15
	.type	_GLOBAL__sub_I_DefaultListenCallbacks.cpp, @function
_GLOBAL__sub_I_DefaultListenCallbacks.cpp:
.LFB4144:
	.cfi_startproc
	subq	$8, %rsp
	.cfi_def_cfa_offset 16
	movl	$5000, %edi
	call	_ZN7openpal12TimeDuration12MillisecondsEl@PLT
	leaq	_ZStL8__ioinit(%rip), %rdi
	call	_ZNSt8ios_base4InitC1Ev@PLT
	movq	_ZNSt8ios_base4InitD1Ev@GOTPCREL(%rip), %rdi
	leaq	__dso_handle(%rip), %rdx
	leaq	_ZStL8__ioinit(%rip), %rsi
	addq	$8, %rsp
	.cfi_def_cfa_offset 8
	jmp	__cxa_atexit@PLT
	.cfi_endproc
.LFE4144:
	.size	_GLOBAL__sub_I_DefaultListenCallbacks.cpp, .-_GLOBAL__sub_I_DefaultListenCallbacks.cpp
	.section	.init_array,"aw"
	.align 8
	.quad	_GLOBAL__sub_I_DefaultListenCallbacks.cpp
	.weak	_ZTSSt11_Mutex_baseILN9__gnu_cxx12_Lock_policyE2EE
	.section	.rodata._ZTSSt11_Mutex_baseILN9__gnu_cxx12_Lock_policyE2EE,"aG",@progbits,_ZTSSt11_Mutex_baseILN9__gnu_cxx12_Lock_policyE2EE,comdat
	.align 32
	.type	_ZTSSt11_Mutex_baseILN9__gnu_cxx12_Lock_policyE2EE, @object
	.size	_ZTSSt11_Mutex_baseILN9__gnu_cxx12_Lock_policyE2EE, 47
_ZTSSt11_Mutex_baseILN9__gnu_cxx12_Lock_policyE2EE:
	.string	"St11_Mutex_baseILN9__gnu_cxx12_Lock_policyE2EE"
	.weak	_ZTISt11_Mutex_baseILN9__gnu_cxx12_Lock_policyE2EE
	.section	.data.rel.ro._ZTISt11_Mutex_baseILN9__gnu_cxx12_Lock_policyE2EE,"awG",@progbits,_ZTISt11_Mutex_baseILN9__gnu_cxx12_Lock_policyE2EE,comdat
	.align 8
	.type	_ZTISt11_Mutex_baseILN9__gnu_cxx12_Lock_policyE2EE, @object
	.size	_ZTISt11_Mutex_baseILN9__gnu_cxx12_Lock_policyE2EE, 16
_ZTISt11_Mutex_baseILN9__gnu_cxx12_Lock_policyE2EE:
	.quad	_ZTVN10__cxxabiv117__class_type_infoE+16
	.quad	_ZTSSt11_Mutex_baseILN9__gnu_cxx12_Lock_policyE2EE
	.weak	_ZTSSt16_Sp_counted_baseILN9__gnu_cxx12_Lock_policyE2EE
	.section	.rodata._ZTSSt16_Sp_counted_baseILN9__gnu_cxx12_Lock_policyE2EE,"aG",@progbits,_ZTSSt16_Sp_counted_baseILN9__gnu_cxx12_Lock_policyE2EE,comdat
	.align 32
	.type	_ZTSSt16_Sp_counted_baseILN9__gnu_cxx12_Lock_policyE2EE, @object
	.size	_ZTSSt16_Sp_counted_baseILN9__gnu_cxx12_Lock_policyE2EE, 52
_ZTSSt16_Sp_counted_baseILN9__gnu_cxx12_Lock_policyE2EE:
	.string	"St16_Sp_counted_baseILN9__gnu_cxx12_Lock_policyE2EE"
	.weak	_ZTISt16_Sp_counted_baseILN9__gnu_cxx12_Lock_policyE2EE
	.section	.data.rel.ro._ZTISt16_Sp_counted_baseILN9__gnu_cxx12_Lock_policyE2EE,"awG",@progbits,_ZTISt16_Sp_counted_baseILN9__gnu_cxx12_Lock_policyE2EE,comdat
	.align 8
	.type	_ZTISt16_Sp_counted_baseILN9__gnu_cxx12_Lock_policyE2EE, @object
	.size	_ZTISt16_Sp_counted_baseILN9__gnu_cxx12_Lock_policyE2EE, 24
_ZTISt16_Sp_counted_baseILN9__gnu_cxx12_Lock_policyE2EE:
	.quad	_ZTVN10__cxxabiv120__si_class_type_infoE+16
	.quad	_ZTSSt16_Sp_counted_baseILN9__gnu_cxx12_Lock_policyE2EE
	.quad	_ZTISt11_Mutex_baseILN9__gnu_cxx12_Lock_policyE2EE
	.weak	_ZTSN8asiodnp316IListenCallbacksE
	.section	.rodata._ZTSN8asiodnp316IListenCallbacksE,"aG",@progbits,_ZTSN8asiodnp316IListenCallbacksE,comdat
	.align 16
	.type	_ZTSN8asiodnp316IListenCallbacksE, @object
	.size	_ZTSN8asiodnp316IListenCallbacksE, 30
_ZTSN8asiodnp316IListenCallbacksE:
	.string	"N8asiodnp316IListenCallbacksE"
	.weak	_ZTIN8asiodnp316IListenCallbacksE
	.section	.data.rel.ro._ZTIN8asiodnp316IListenCallbacksE,"awG",@progbits,_ZTIN8asiodnp316IListenCallbacksE,comdat
	.align 8
	.type	_ZTIN8asiodnp316IListenCallbacksE, @object
	.size	_ZTIN8asiodnp316IListenCallbacksE, 16
_ZTIN8asiodnp316IListenCallbacksE:
	.quad	_ZTVN10__cxxabiv117__class_type_infoE+16
	.quad	_ZTSN8asiodnp316IListenCallbacksE
	.weak	_ZTSN8asiodnp322DefaultListenCallbacksE
	.section	.rodata._ZTSN8asiodnp322DefaultListenCallbacksE,"aG",@progbits,_ZTSN8asiodnp322DefaultListenCallbacksE,comdat
	.align 32
	.type	_ZTSN8asiodnp322DefaultListenCallbacksE, @object
	.size	_ZTSN8asiodnp322DefaultListenCallbacksE, 36
_ZTSN8asiodnp322DefaultListenCallbacksE:
	.string	"N8asiodnp322DefaultListenCallbacksE"
	.weak	_ZTIN8asiodnp322DefaultListenCallbacksE
	.section	.data.rel.ro._ZTIN8asiodnp322DefaultListenCallbacksE,"awG",@progbits,_ZTIN8asiodnp322DefaultListenCallbacksE,comdat
	.align 8
	.type	_ZTIN8asiodnp322DefaultListenCallbacksE, @object
	.size	_ZTIN8asiodnp322DefaultListenCallbacksE, 24
_ZTIN8asiodnp322DefaultListenCallbacksE:
	.quad	_ZTVN10__cxxabiv120__si_class_type_infoE+16
	.quad	_ZTSN8asiodnp322DefaultListenCallbacksE
	.quad	_ZTIN8asiodnp316IListenCallbacksE
	.weak	_ZTSSt19_Sp_make_shared_tag
	.section	.rodata._ZTSSt19_Sp_make_shared_tag,"aG",@progbits,_ZTSSt19_Sp_make_shared_tag,comdat
	.align 16
	.type	_ZTSSt19_Sp_make_shared_tag, @object
	.size	_ZTSSt19_Sp_make_shared_tag, 24
_ZTSSt19_Sp_make_shared_tag:
	.string	"St19_Sp_make_shared_tag"
	.weak	_ZTSSt23_Sp_counted_ptr_inplaceIN8asiodnp318PrintingSOEHandlerESaIS1_ELN9__gnu_cxx12_Lock_policyE2EE
	.section	.rodata._ZTSSt23_Sp_counted_ptr_inplaceIN8asiodnp318PrintingSOEHandlerESaIS1_ELN9__gnu_cxx12_Lock_policyE2EE,"aG",@progbits,_ZTSSt23_Sp_counted_ptr_inplaceIN8asiodnp318PrintingSOEHandlerESaIS1_ELN9__gnu_cxx12_Lock_policyE2EE,comdat
	.align 32
	.type	_ZTSSt23_Sp_counted_ptr_inplaceIN8asiodnp318PrintingSOEHandlerESaIS1_ELN9__gnu_cxx12_Lock_policyE2EE, @object
	.size	_ZTSSt23_Sp_counted_ptr_inplaceIN8asiodnp318PrintingSOEHandlerESaIS1_ELN9__gnu_cxx12_Lock_policyE2EE, 97
_ZTSSt23_Sp_counted_ptr_inplaceIN8asiodnp318PrintingSOEHandlerESaIS1_ELN9__gnu_cxx12_Lock_policyE2EE:
	.string	"St23_Sp_counted_ptr_inplaceIN8asiodnp318PrintingSOEHandlerESaIS1_ELN9__gnu_cxx12_Lock_policyE2EE"
	.weak	_ZTISt23_Sp_counted_ptr_inplaceIN8asiodnp318PrintingSOEHandlerESaIS1_ELN9__gnu_cxx12_Lock_policyE2EE
	.section	.data.rel.ro._ZTISt23_Sp_counted_ptr_inplaceIN8asiodnp318PrintingSOEHandlerESaIS1_ELN9__gnu_cxx12_Lock_policyE2EE,"awG",@progbits,_ZTISt23_Sp_counted_ptr_inplaceIN8asiodnp318PrintingSOEHandlerESaIS1_ELN9__gnu_cxx12_Lock_policyE2EE,comdat
	.align 8
	.type	_ZTISt23_Sp_counted_ptr_inplaceIN8asiodnp318PrintingSOEHandlerESaIS1_ELN9__gnu_cxx12_Lock_policyE2EE, @object
	.size	_ZTISt23_Sp_counted_ptr_inplaceIN8asiodnp318PrintingSOEHandlerESaIS1_ELN9__gnu_cxx12_Lock_policyE2EE, 24
_ZTISt23_Sp_counted_ptr_inplaceIN8asiodnp318PrintingSOEHandlerESaIS1_ELN9__gnu_cxx12_Lock_policyE2EE:
	.quad	_ZTVN10__cxxabiv120__si_class_type_infoE+16
	.quad	_ZTSSt23_Sp_counted_ptr_inplaceIN8asiodnp318PrintingSOEHandlerESaIS1_ELN9__gnu_cxx12_Lock_policyE2EE
	.quad	_ZTISt16_Sp_counted_baseILN9__gnu_cxx12_Lock_policyE2EE
	.weak	_ZTSSt23_Sp_counted_ptr_inplaceIN8asiodnp324DefaultMasterApplicationESaIS1_ELN9__gnu_cxx12_Lock_policyE2EE
	.section	.rodata._ZTSSt23_Sp_counted_ptr_inplaceIN8asiodnp324DefaultMasterApplicationESaIS1_ELN9__gnu_cxx12_Lock_policyE2EE,"aG",@progbits,_ZTSSt23_Sp_counted_ptr_inplaceIN8asiodnp324DefaultMasterApplicationESaIS1_ELN9__gnu_cxx12_Lock_policyE2EE,comdat
	.align 32
	.type	_ZTSSt23_Sp_counted_ptr_inplaceIN8asiodnp324DefaultMasterApplicationESaIS1_ELN9__gnu_cxx12_Lock_policyE2EE, @object
	.size	_ZTSSt23_Sp_counted_ptr_inplaceIN8asiodnp324DefaultMasterApplicationESaIS1_ELN9__gnu_cxx12_Lock_policyE2EE, 103
_ZTSSt23_Sp_counted_ptr_inplaceIN8asiodnp324DefaultMasterApplicationESaIS1_ELN9__gnu_cxx12_Lock_policyE2EE:
	.string	"St23_Sp_counted_ptr_inplaceIN8asiodnp324DefaultMasterApplicationESaIS1_ELN9__gnu_cxx12_Lock_policyE2EE"
	.weak	_ZTISt23_Sp_counted_ptr_inplaceIN8asiodnp324DefaultMasterApplicationESaIS1_ELN9__gnu_cxx12_Lock_policyE2EE
	.section	.data.rel.ro._ZTISt23_Sp_counted_ptr_inplaceIN8asiodnp324DefaultMasterApplicationESaIS1_ELN9__gnu_cxx12_Lock_policyE2EE,"awG",@progbits,_ZTISt23_Sp_counted_ptr_inplaceIN8asiodnp324DefaultMasterApplicationESaIS1_ELN9__gnu_cxx12_Lock_policyE2EE,comdat
	.align 8
	.type	_ZTISt23_Sp_counted_ptr_inplaceIN8asiodnp324DefaultMasterApplicationESaIS1_ELN9__gnu_cxx12_Lock_policyE2EE, @object
	.size	_ZTISt23_Sp_counted_ptr_inplaceIN8asiodnp324DefaultMasterApplicationESaIS1_ELN9__gnu_cxx12_Lock_policyE2EE, 24
_ZTISt23_Sp_counted_ptr_inplaceIN8asiodnp324DefaultMasterApplicationESaIS1_ELN9__gnu_cxx12_Lock_policyE2EE:
	.quad	_ZTVN10__cxxabiv120__si_class_type_infoE+16
	.quad	_ZTSSt23_Sp_counted_ptr_inplaceIN8asiodnp324DefaultMasterApplicationESaIS1_ELN9__gnu_cxx12_Lock_policyE2EE
	.quad	_ZTISt16_Sp_counted_baseILN9__gnu_cxx12_Lock_policyE2EE
	.weak	_ZTVN8asiodnp322DefaultListenCallbacksE
	.section	.data.rel.ro._ZTVN8asiodnp322DefaultListenCallbacksE,"awG",@progbits,_ZTVN8asiodnp322DefaultListenCallbacksE,comdat
	.align 8
	.type	_ZTVN8asiodnp322DefaultListenCallbacksE, @object
	.size	_ZTVN8asiodnp322DefaultListenCallbacksE, 80
_ZTVN8asiodnp322DefaultListenCallbacksE:
	.quad	0
	.quad	_ZTIN8asiodnp322DefaultListenCallbacksE
	.quad	_ZN8asiodnp322DefaultListenCallbacksD1Ev
	.quad	_ZN8asiodnp322DefaultListenCallbacksD0Ev
	.quad	_ZN8asiodnp322DefaultListenCallbacks16AcceptConnectionEmRKNSt7__cxx1112basic_stringIcSt11char_traitsIcESaIcEEE
	.quad	_ZN8asiodnp322DefaultListenCallbacks17AcceptCertificateEmRKNS_8X509InfoE
	.quad	_ZN8asiodnp322DefaultListenCallbacks20GetFirstFrameTimeoutEv
	.quad	_ZN8asiodnp322DefaultListenCallbacks12OnFirstFrameEmRKN8opendnp316LinkHeaderFieldsERNS_16ISessionAcceptorE
	.quad	_ZN8asiodnp322DefaultListenCallbacks17OnConnectionCloseEmRKSt10shared_ptrINS_14IMasterSessionEE
	.quad	_ZN8asiodnp322DefaultListenCallbacks18OnCertificateErrorEmRKNS_8X509InfoEi
	.weak	_ZTVSt23_Sp_counted_ptr_inplaceIN8asiodnp318PrintingSOEHandlerESaIS1_ELN9__gnu_cxx12_Lock_policyE2EE
	.section	.data.rel.ro._ZTVSt23_Sp_counted_ptr_inplaceIN8asiodnp318PrintingSOEHandlerESaIS1_ELN9__gnu_cxx12_Lock_policyE2EE,"awG",@progbits,_ZTVSt23_Sp_counted_ptr_inplaceIN8asiodnp318PrintingSOEHandlerESaIS1_ELN9__gnu_cxx12_Lock_policyE2EE,comdat
	.align 8
	.type	_ZTVSt23_Sp_counted_ptr_inplaceIN8asiodnp318PrintingSOEHandlerESaIS1_ELN9__gnu_cxx12_Lock_policyE2EE, @object
	.size	_ZTVSt23_Sp_counted_ptr_inplaceIN8asiodnp318PrintingSOEHandlerESaIS1_ELN9__gnu_cxx12_Lock_policyE2EE, 56
_ZTVSt23_Sp_counted_ptr_inplaceIN8asiodnp318PrintingSOEHandlerESaIS1_ELN9__gnu_cxx12_Lock_policyE2EE:
	.quad	0
	.quad	_ZTISt23_Sp_counted_ptr_inplaceIN8asiodnp318PrintingSOEHandlerESaIS1_ELN9__gnu_cxx12_Lock_policyE2EE
	.quad	_ZNSt23_Sp_counted_ptr_inplaceIN8asiodnp318PrintingSOEHandlerESaIS1_ELN9__gnu_cxx12_Lock_policyE2EED1Ev
	.quad	_ZNSt23_Sp_counted_ptr_inplaceIN8asiodnp318PrintingSOEHandlerESaIS1_ELN9__gnu_cxx12_Lock_policyE2EED0Ev
	.quad	_ZNSt23_Sp_counted_ptr_inplaceIN8asiodnp318PrintingSOEHandlerESaIS1_ELN9__gnu_cxx12_Lock_policyE2EE10_M_disposeEv
	.quad	_ZNSt23_Sp_counted_ptr_inplaceIN8asiodnp318PrintingSOEHandlerESaIS1_ELN9__gnu_cxx12_Lock_policyE2EE10_M_destroyEv
	.quad	_ZNSt23_Sp_counted_ptr_inplaceIN8asiodnp318PrintingSOEHandlerESaIS1_ELN9__gnu_cxx12_Lock_policyE2EE14_M_get_deleterERKSt9type_info
	.weak	_ZTVSt23_Sp_counted_ptr_inplaceIN8asiodnp324DefaultMasterApplicationESaIS1_ELN9__gnu_cxx12_Lock_policyE2EE
	.section	.data.rel.ro._ZTVSt23_Sp_counted_ptr_inplaceIN8asiodnp324DefaultMasterApplicationESaIS1_ELN9__gnu_cxx12_Lock_policyE2EE,"awG",@progbits,_ZTVSt23_Sp_counted_ptr_inplaceIN8asiodnp324DefaultMasterApplicationESaIS1_ELN9__gnu_cxx12_Lock_policyE2EE,comdat
	.align 8
	.type	_ZTVSt23_Sp_counted_ptr_inplaceIN8asiodnp324DefaultMasterApplicationESaIS1_ELN9__gnu_cxx12_Lock_policyE2EE, @object
	.size	_ZTVSt23_Sp_counted_ptr_inplaceIN8asiodnp324DefaultMasterApplicationESaIS1_ELN9__gnu_cxx12_Lock_policyE2EE, 56
_ZTVSt23_Sp_counted_ptr_inplaceIN8asiodnp324DefaultMasterApplicationESaIS1_ELN9__gnu_cxx12_Lock_policyE2EE:
	.quad	0
	.quad	_ZTISt23_Sp_counted_ptr_inplaceIN8asiodnp324DefaultMasterApplicationESaIS1_ELN9__gnu_cxx12_Lock_policyE2EE
	.quad	_ZNSt23_Sp_counted_ptr_inplaceIN8asiodnp324DefaultMasterApplicationESaIS1_ELN9__gnu_cxx12_Lock_policyE2EED1Ev
	.quad	_ZNSt23_Sp_counted_ptr_inplaceIN8asiodnp324DefaultMasterApplicationESaIS1_ELN9__gnu_cxx12_Lock_policyE2EED0Ev
	.quad	_ZNSt23_Sp_counted_ptr_inplaceIN8asiodnp324DefaultMasterApplicationESaIS1_ELN9__gnu_cxx12_Lock_policyE2EE10_M_disposeEv
	.quad	_ZNSt23_Sp_counted_ptr_inplaceIN8asiodnp324DefaultMasterApplicationESaIS1_ELN9__gnu_cxx12_Lock_policyE2EE10_M_destroyEv
	.quad	_ZNSt23_Sp_counted_ptr_inplaceIN8asiodnp324DefaultMasterApplicationESaIS1_ELN9__gnu_cxx12_Lock_policyE2EE14_M_get_deleterERKSt9type_info
	.local	_ZStL8__ioinit
	.comm	_ZStL8__ioinit,1,1
	.weakref	_ZL28__gthrw___pthread_key_createPjPFvPvE,__pthread_key_create
	.hidden	DW.ref.__gxx_personality_v0
	.weak	DW.ref.__gxx_personality_v0
	.section	.data.rel.local.DW.ref.__gxx_personality_v0,"awG",@progbits,DW.ref.__gxx_personality_v0,comdat
	.align 8
	.type	DW.ref.__gxx_personality_v0, @object
	.size	DW.ref.__gxx_personality_v0, 8
DW.ref.__gxx_personality_v0:
	.quad	__gxx_personality_v0
	.hidden	__dso_handle
	.ident	"GCC: (Ubuntu 7.5.0-3ubuntu1~18.04) 7.5.0"
	.section	.note.GNU-stack,"",@progbits
