	.file	"DNP3Channel.cpp"
	.text
	.section	.rodata._ZNK4asio6detail15system_category4nameEv.str1.1,"aMS",@progbits,1
.LC0:
	.string	"asio.system"
	.section	.text._ZNK4asio6detail15system_category4nameEv,"axG",@progbits,_ZNK4asio6detail15system_category4nameEv,comdat
	.align 2
	.p2align 4,,15
	.weak	_ZNK4asio6detail15system_category4nameEv
	.type	_ZNK4asio6detail15system_category4nameEv, @function
_ZNK4asio6detail15system_category4nameEv:
.LFB3575:
	.cfi_startproc
	leaq	.LC0(%rip), %rax
	ret
	.cfi_endproc
.LFE3575:
	.size	_ZNK4asio6detail15system_category4nameEv, .-_ZNK4asio6detail15system_category4nameEv
	.section	.rodata._ZNK4asio5error6detail14netdb_category4nameEv.str1.1,"aMS",@progbits,1
.LC1:
	.string	"asio.netdb"
	.section	.text._ZNK4asio5error6detail14netdb_category4nameEv,"axG",@progbits,_ZNK4asio5error6detail14netdb_category4nameEv,comdat
	.align 2
	.p2align 4,,15
	.weak	_ZNK4asio5error6detail14netdb_category4nameEv
	.type	_ZNK4asio5error6detail14netdb_category4nameEv, @function
_ZNK4asio5error6detail14netdb_category4nameEv:
.LFB3615:
	.cfi_startproc
	leaq	.LC1(%rip), %rax
	ret
	.cfi_endproc
.LFE3615:
	.size	_ZNK4asio5error6detail14netdb_category4nameEv, .-_ZNK4asio5error6detail14netdb_category4nameEv
	.section	.rodata._ZNK4asio5error6detail17addrinfo_category4nameEv.str1.1,"aMS",@progbits,1
.LC2:
	.string	"asio.addrinfo"
	.section	.text._ZNK4asio5error6detail17addrinfo_category4nameEv,"axG",@progbits,_ZNK4asio5error6detail17addrinfo_category4nameEv,comdat
	.align 2
	.p2align 4,,15
	.weak	_ZNK4asio5error6detail17addrinfo_category4nameEv
	.type	_ZNK4asio5error6detail17addrinfo_category4nameEv, @function
_ZNK4asio5error6detail17addrinfo_category4nameEv:
.LFB3621:
	.cfi_startproc
	leaq	.LC2(%rip), %rax
	ret
	.cfi_endproc
.LFE3621:
	.size	_ZNK4asio5error6detail17addrinfo_category4nameEv, .-_ZNK4asio5error6detail17addrinfo_category4nameEv
	.section	.rodata._ZNK4asio5error6detail13misc_category4nameEv.str1.1,"aMS",@progbits,1
.LC3:
	.string	"asio.misc"
	.section	.text._ZNK4asio5error6detail13misc_category4nameEv,"axG",@progbits,_ZNK4asio5error6detail13misc_category4nameEv,comdat
	.align 2
	.p2align 4,,15
	.weak	_ZNK4asio5error6detail13misc_category4nameEv
	.type	_ZNK4asio5error6detail13misc_category4nameEv, @function
_ZNK4asio5error6detail13misc_category4nameEv:
.LFB3627:
	.cfi_startproc
	leaq	.LC3(%rip), %rax
	ret
	.cfi_endproc
.LFE3627:
	.size	_ZNK4asio5error6detail13misc_category4nameEv, .-_ZNK4asio5error6detail13misc_category4nameEv
	.section	.text._ZNSt13__future_base13_State_baseV217_M_complete_asyncEv,"axG",@progbits,_ZNSt13__future_base13_State_baseV217_M_complete_asyncEv,comdat
	.align 2
	.p2align 4,,15
	.weak	_ZNSt13__future_base13_State_baseV217_M_complete_asyncEv
	.type	_ZNSt13__future_base13_State_baseV217_M_complete_asyncEv, @function
_ZNSt13__future_base13_State_baseV217_M_complete_asyncEv:
.LFB7563:
	.cfi_startproc
	rep ret
	.cfi_endproc
.LFE7563:
	.size	_ZNSt13__future_base13_State_baseV217_M_complete_asyncEv, .-_ZNSt13__future_base13_State_baseV217_M_complete_asyncEv
	.section	.text._ZNKSt13__future_base13_State_baseV221_M_is_deferred_futureEv,"axG",@progbits,_ZNKSt13__future_base13_State_baseV221_M_is_deferred_futureEv,comdat
	.align 2
	.p2align 4,,15
	.weak	_ZNKSt13__future_base13_State_baseV221_M_is_deferred_futureEv
	.type	_ZNKSt13__future_base13_State_baseV221_M_is_deferred_futureEv, @function
_ZNKSt13__future_base13_State_baseV221_M_is_deferred_futureEv:
.LFB7564:
	.cfi_startproc
	xorl	%eax, %eax
	ret
	.cfi_endproc
.LFE7564:
	.size	_ZNKSt13__future_base13_State_baseV221_M_is_deferred_futureEv, .-_ZNKSt13__future_base13_State_baseV221_M_is_deferred_futureEv
	.section	.text._ZZSt9call_onceIMNSt13__future_base13_State_baseV2EFvPSt8functionIFSt10unique_ptrINS0_12_Result_baseENS4_8_DeleterEEvEEPbEJPS1_S9_SA_EEvRSt9once_flagOT_DpOT0_ENUlvE0_4_FUNEv,"axG",@progbits,_ZZSt9call_onceIMNSt13__future_base13_State_baseV2EFvPSt8functionIFSt10unique_ptrINS0_12_Result_baseENS4_8_DeleterEEvEEPbEJPS1_S9_SA_EEvRSt9once_flagOT_DpOT0_ENKUlvE0_clEv,comdat
	.p2align 4,,15
	.weak	_ZZSt9call_onceIMNSt13__future_base13_State_baseV2EFvPSt8functionIFSt10unique_ptrINS0_12_Result_baseENS4_8_DeleterEEvEEPbEJPS1_S9_SA_EEvRSt9once_flagOT_DpOT0_ENUlvE0_4_FUNEv
	.type	_ZZSt9call_onceIMNSt13__future_base13_State_baseV2EFvPSt8functionIFSt10unique_ptrINS0_12_Result_baseENS4_8_DeleterEEvEEPbEJPS1_S9_SA_EEvRSt9once_flagOT_DpOT0_ENUlvE0_4_FUNEv, @function
_ZZSt9call_onceIMNSt13__future_base13_State_baseV2EFvPSt8functionIFSt10unique_ptrINS0_12_Result_baseENS4_8_DeleterEEvEEPbEJPS1_S9_SA_EEvRSt9once_flagOT_DpOT0_ENUlvE0_4_FUNEv:
.LFB9291:
	.cfi_startproc
	subq	$8, %rsp
	.cfi_def_cfa_offset 16
	.byte	0x66
	leaq	_ZSt15__once_callable@tlsgd(%rip), %rdi
	.value	0x6666
	rex64
	call	__tls_get_addr@PLT
	movq	(%rax), %rax
	movq	16(%rax), %rdx
	movq	(%rax), %rcx
	movq	(%rdx), %rsi
	movq	24(%rax), %rdx
	movq	8(%rax), %rax
	movq	8(%rcx), %rdi
	movq	(%rdx), %rdx
	addq	(%rax), %rdi
	movq	(%rcx), %rax
	testb	$1, %al
	je	.L9
	movq	(%rdi), %rcx
	movq	-1(%rcx,%rax), %rax
.L9:
	addq	$8, %rsp
	.cfi_def_cfa_offset 8
	jmp	*%rax
	.cfi_endproc
.LFE9291:
	.size	_ZZSt9call_onceIMNSt13__future_base13_State_baseV2EFvPSt8functionIFSt10unique_ptrINS0_12_Result_baseENS4_8_DeleterEEvEEPbEJPS1_S9_SA_EEvRSt9once_flagOT_DpOT0_ENUlvE0_4_FUNEv, .-_ZZSt9call_onceIMNSt13__future_base13_State_baseV2EFvPSt8functionIFSt10unique_ptrINS0_12_Result_baseENS4_8_DeleterEEvEEPbEJPS1_S9_SA_EEvRSt9once_flagOT_DpOT0_ENUlvE0_4_FUNEv
	.section	.text._ZNSt15__exception_ptr12__dest_thunkISt12future_errorEEvPv,"axG",@progbits,_ZNSt15__exception_ptr12__dest_thunkISt12future_errorEEvPv,comdat
	.p2align 4,,15
	.weak	_ZNSt15__exception_ptr12__dest_thunkISt12future_errorEEvPv
	.type	_ZNSt15__exception_ptr12__dest_thunkISt12future_errorEEvPv, @function
_ZNSt15__exception_ptr12__dest_thunkISt12future_errorEEvPv:
.LFB10010:
	.cfi_startproc
	movq	(%rdi), %rax
	jmp	*(%rax)
	.cfi_endproc
.LFE10010:
	.size	_ZNSt15__exception_ptr12__dest_thunkISt12future_errorEEvPv, .-_ZNSt15__exception_ptr12__dest_thunkISt12future_errorEEvPv
	.text
	.p2align 4,,15
	.type	_ZNSt17_Function_handlerIFN8opendnp314LinkStatisticsEvEZN8asiodnp311DNP3Channel13GetStatisticsEvEUlvE_E9_M_invokeERKSt9_Any_data, @function
_ZNSt17_Function_handlerIFN8opendnp314LinkStatisticsEvEZN8asiodnp311DNP3Channel13GetStatisticsEvEUlvE_E9_M_invokeERKSt9_Any_data:
.LFB10288:
	.cfi_startproc
	movq	(%rsi), %rdx
	movq	%rdi, %rax
	movq	72(%rdx), %rdx
	movq	96(%rdx), %rcx
	movdqu	80(%rdx), %xmm0
	movq	%rcx, 16(%rdi)
	movq	264(%rdx), %rcx
	movups	%xmm0, (%rdi)
	movdqu	248(%rdx), %xmm0
	movl	272(%rdx), %edx
	movq	%rcx, 40(%rdi)
	movups	%xmm0, 24(%rdi)
	movl	%edx, 48(%rdi)
	ret
	.cfi_endproc
.LFE10288:
	.size	_ZNSt17_Function_handlerIFN8opendnp314LinkStatisticsEvEZN8asiodnp311DNP3Channel13GetStatisticsEvEUlvE_E9_M_invokeERKSt9_Any_data, .-_ZNSt17_Function_handlerIFN8opendnp314LinkStatisticsEvEZN8asiodnp311DNP3Channel13GetStatisticsEvEUlvE_E9_M_invokeERKSt9_Any_data
	.p2align 4,,15
	.type	_ZNSt14_Function_base13_Base_managerIZN8asiodnp311DNP3Channel13GetStatisticsEvEUlvE_E10_M_managerERSt9_Any_dataRKS5_St18_Manager_operation, @function
_ZNSt14_Function_base13_Base_managerIZN8asiodnp311DNP3Channel13GetStatisticsEvEUlvE_E10_M_managerERSt9_Any_dataRKS5_St18_Manager_operation:
.LFB10289:
	.cfi_startproc
	cmpl	$1, %edx
	je	.L18
	jb	.L19
	cmpl	$2, %edx
	jne	.L17
	movq	(%rsi), %rax
	movq	%rax, (%rdi)
.L17:
	xorl	%eax, %eax
	ret
	.p2align 4,,10
	.p2align 3
.L19:
	leaq	_ZTIZN8asiodnp311DNP3Channel13GetStatisticsEvEUlvE_(%rip), %rax
	movq	%rax, (%rdi)
	xorl	%eax, %eax
	ret
	.p2align 4,,10
	.p2align 3
.L18:
	movq	%rsi, (%rdi)
	xorl	%eax, %eax
	ret
	.cfi_endproc
.LFE10289:
	.size	_ZNSt14_Function_base13_Base_managerIZN8asiodnp311DNP3Channel13GetStatisticsEvEUlvE_E10_M_managerERSt9_Any_dataRKS5_St18_Manager_operation, .-_ZNSt14_Function_base13_Base_managerIZN8asiodnp311DNP3Channel13GetStatisticsEvEUlvE_E10_M_managerERSt9_Any_dataRKS5_St18_Manager_operation
	.p2align 4,,15
	.type	_ZNSt17_Function_handlerIFN7openpal10LogFiltersEvEZNK8asiodnp311DNP3Channel13GetLogFiltersEvEUlvE_E9_M_invokeERKSt9_Any_data, @function
_ZNSt17_Function_handlerIFN7openpal10LogFiltersEvEZNK8asiodnp311DNP3Channel13GetLogFiltersEvEUlvE_E9_M_invokeERKSt9_Any_data:
.LFB10309:
	.cfi_startproc
	movq	(%rdi), %rax
	movq	40(%rax), %rax
	movl	32(%rax), %eax
	ret
	.cfi_endproc
.LFE10309:
	.size	_ZNSt17_Function_handlerIFN7openpal10LogFiltersEvEZNK8asiodnp311DNP3Channel13GetLogFiltersEvEUlvE_E9_M_invokeERKSt9_Any_data, .-_ZNSt17_Function_handlerIFN7openpal10LogFiltersEvEZNK8asiodnp311DNP3Channel13GetLogFiltersEvEUlvE_E9_M_invokeERKSt9_Any_data
	.p2align 4,,15
	.type	_ZNSt14_Function_base13_Base_managerIZNK8asiodnp311DNP3Channel13GetLogFiltersEvEUlvE_E10_M_managerERSt9_Any_dataRKS5_St18_Manager_operation, @function
_ZNSt14_Function_base13_Base_managerIZNK8asiodnp311DNP3Channel13GetLogFiltersEvEUlvE_E10_M_managerERSt9_Any_dataRKS5_St18_Manager_operation:
.LFB10310:
	.cfi_startproc
	cmpl	$1, %edx
	je	.L24
	jb	.L25
	cmpl	$2, %edx
	jne	.L23
	movq	(%rsi), %rax
	movq	%rax, (%rdi)
.L23:
	xorl	%eax, %eax
	ret
	.p2align 4,,10
	.p2align 3
.L25:
	leaq	_ZTIZNK8asiodnp311DNP3Channel13GetLogFiltersEvEUlvE_(%rip), %rax
	movq	%rax, (%rdi)
	xorl	%eax, %eax
	ret
	.p2align 4,,10
	.p2align 3
.L24:
	movq	%rsi, (%rdi)
	xorl	%eax, %eax
	ret
	.cfi_endproc
.LFE10310:
	.size	_ZNSt14_Function_base13_Base_managerIZNK8asiodnp311DNP3Channel13GetLogFiltersEvEUlvE_E10_M_managerERSt9_Any_dataRKS5_St18_Manager_operation, .-_ZNSt14_Function_base13_Base_managerIZNK8asiodnp311DNP3Channel13GetLogFiltersEvEUlvE_E10_M_managerERSt9_Any_dataRKS5_St18_Manager_operation
	.section	.text._ZNSt17_Function_handlerIFSt10unique_ptrINSt13__future_base12_Result_baseENS2_8_DeleterEEvENS1_13_State_baseV27_SetterIN8opendnp314LinkStatisticsEOS9_EEE9_M_invokeERKSt9_Any_data,"axG",@progbits,_ZNSt17_Function_handlerIFSt10unique_ptrINSt13__future_base12_Result_baseENS2_8_DeleterEEvENS1_13_State_baseV27_SetterIN8opendnp314LinkStatisticsEOS9_EEE9_M_invokeERKSt9_Any_data,comdat
	.p2align 4,,15
	.weak	_ZNSt17_Function_handlerIFSt10unique_ptrINSt13__future_base12_Result_baseENS2_8_DeleterEEvENS1_13_State_baseV27_SetterIN8opendnp314LinkStatisticsEOS9_EEE9_M_invokeERKSt9_Any_data
	.type	_ZNSt17_Function_handlerIFSt10unique_ptrINSt13__future_base12_Result_baseENS2_8_DeleterEEvENS1_13_State_baseV27_SetterIN8opendnp314LinkStatisticsEOS9_EEE9_M_invokeERKSt9_Any_data, @function
_ZNSt17_Function_handlerIFSt10unique_ptrINSt13__future_base12_Result_baseENS2_8_DeleterEEvENS1_13_State_baseV27_SetterIN8opendnp314LinkStatisticsEOS9_EEE9_M_invokeERKSt9_Any_data:
.LFB11159:
	.cfi_startproc
	movq	(%rsi), %rdx
	movq	8(%rsi), %rcx
	movq	%rdi, %rax
	movq	16(%rdx), %rdx
	movdqu	(%rcx), %xmm0
	movups	%xmm0, 16(%rdx)
	movdqu	16(%rcx), %xmm0
	movups	%xmm0, 32(%rdx)
	movdqu	32(%rcx), %xmm0
	movups	%xmm0, 48(%rdx)
	movl	48(%rcx), %ecx
	movb	$1, 68(%rdx)
	movl	%ecx, 64(%rdx)
	movq	(%rsi), %rdx
	movq	16(%rdx), %rcx
	movq	$0, 16(%rdx)
	movq	%rcx, (%rdi)
	ret
	.cfi_endproc
.LFE11159:
	.size	_ZNSt17_Function_handlerIFSt10unique_ptrINSt13__future_base12_Result_baseENS2_8_DeleterEEvENS1_13_State_baseV27_SetterIN8opendnp314LinkStatisticsEOS9_EEE9_M_invokeERKSt9_Any_data, .-_ZNSt17_Function_handlerIFSt10unique_ptrINSt13__future_base12_Result_baseENS2_8_DeleterEEvENS1_13_State_baseV27_SetterIN8opendnp314LinkStatisticsEOS9_EEE9_M_invokeERKSt9_Any_data
	.section	.text._ZNSt14_Function_base13_Base_managerINSt13__future_base13_State_baseV27_SetterIN8opendnp314LinkStatisticsEOS5_EEE10_M_managerERSt9_Any_dataRKS9_St18_Manager_operation,"axG",@progbits,_ZNSt14_Function_base13_Base_managerINSt13__future_base13_State_baseV27_SetterIN8opendnp314LinkStatisticsEOS5_EEE10_M_managerERSt9_Any_dataRKS9_St18_Manager_operation,comdat
	.p2align 4,,15
	.weak	_ZNSt14_Function_base13_Base_managerINSt13__future_base13_State_baseV27_SetterIN8opendnp314LinkStatisticsEOS5_EEE10_M_managerERSt9_Any_dataRKS9_St18_Manager_operation
	.type	_ZNSt14_Function_base13_Base_managerINSt13__future_base13_State_baseV27_SetterIN8opendnp314LinkStatisticsEOS5_EEE10_M_managerERSt9_Any_dataRKS9_St18_Manager_operation, @function
_ZNSt14_Function_base13_Base_managerINSt13__future_base13_State_baseV27_SetterIN8opendnp314LinkStatisticsEOS5_EEE10_M_managerERSt9_Any_dataRKS9_St18_Manager_operation:
.LFB11160:
	.cfi_startproc
	cmpl	$1, %edx
	je	.L30
	jb	.L31
	cmpl	$2, %edx
	jne	.L29
	movdqu	(%rsi), %xmm0
	movups	%xmm0, (%rdi)
.L29:
	xorl	%eax, %eax
	ret
	.p2align 4,,10
	.p2align 3
.L31:
	movq	_ZTINSt13__future_base13_State_baseV27_SetterIN8opendnp314LinkStatisticsEOS3_EE@GOTPCREL(%rip), %rax
	movq	%rax, (%rdi)
	xorl	%eax, %eax
	ret
	.p2align 4,,10
	.p2align 3
.L30:
	movq	%rsi, (%rdi)
	xorl	%eax, %eax
	ret
	.cfi_endproc
.LFE11160:
	.size	_ZNSt14_Function_base13_Base_managerINSt13__future_base13_State_baseV27_SetterIN8opendnp314LinkStatisticsEOS5_EEE10_M_managerERSt9_Any_dataRKS9_St18_Manager_operation, .-_ZNSt14_Function_base13_Base_managerINSt13__future_base13_State_baseV27_SetterIN8opendnp314LinkStatisticsEOS5_EEE10_M_managerERSt9_Any_dataRKS9_St18_Manager_operation
	.section	.text._ZNSt17_Function_handlerIFSt10unique_ptrINSt13__future_base12_Result_baseENS2_8_DeleterEEvENS1_13_State_baseV27_SetterIN7openpal10LogFiltersEOS9_EEE9_M_invokeERKSt9_Any_data,"axG",@progbits,_ZNSt17_Function_handlerIFSt10unique_ptrINSt13__future_base12_Result_baseENS2_8_DeleterEEvENS1_13_State_baseV27_SetterIN7openpal10LogFiltersEOS9_EEE9_M_invokeERKSt9_Any_data,comdat
	.p2align 4,,15
	.weak	_ZNSt17_Function_handlerIFSt10unique_ptrINSt13__future_base12_Result_baseENS2_8_DeleterEEvENS1_13_State_baseV27_SetterIN7openpal10LogFiltersEOS9_EEE9_M_invokeERKSt9_Any_data
	.type	_ZNSt17_Function_handlerIFSt10unique_ptrINSt13__future_base12_Result_baseENS2_8_DeleterEEvENS1_13_State_baseV27_SetterIN7openpal10LogFiltersEOS9_EEE9_M_invokeERKSt9_Any_data, @function
_ZNSt17_Function_handlerIFSt10unique_ptrINSt13__future_base12_Result_baseENS2_8_DeleterEEvENS1_13_State_baseV27_SetterIN7openpal10LogFiltersEOS9_EEE9_M_invokeERKSt9_Any_data:
.LFB11190:
	.cfi_startproc
	movq	(%rsi), %rdx
	movq	8(%rsi), %rcx
	movq	%rdi, %rax
	movq	16(%rdx), %rdx
	movl	(%rcx), %ecx
	movb	$1, 20(%rdx)
	movl	%ecx, 16(%rdx)
	movq	(%rsi), %rdx
	movq	16(%rdx), %rcx
	movq	$0, 16(%rdx)
	movq	%rcx, (%rdi)
	ret
	.cfi_endproc
.LFE11190:
	.size	_ZNSt17_Function_handlerIFSt10unique_ptrINSt13__future_base12_Result_baseENS2_8_DeleterEEvENS1_13_State_baseV27_SetterIN7openpal10LogFiltersEOS9_EEE9_M_invokeERKSt9_Any_data, .-_ZNSt17_Function_handlerIFSt10unique_ptrINSt13__future_base12_Result_baseENS2_8_DeleterEEvENS1_13_State_baseV27_SetterIN7openpal10LogFiltersEOS9_EEE9_M_invokeERKSt9_Any_data
	.section	.text._ZNSt14_Function_base13_Base_managerINSt13__future_base13_State_baseV27_SetterIN7openpal10LogFiltersEOS5_EEE10_M_managerERSt9_Any_dataRKS9_St18_Manager_operation,"axG",@progbits,_ZNSt14_Function_base13_Base_managerINSt13__future_base13_State_baseV27_SetterIN7openpal10LogFiltersEOS5_EEE10_M_managerERSt9_Any_dataRKS9_St18_Manager_operation,comdat
	.p2align 4,,15
	.weak	_ZNSt14_Function_base13_Base_managerINSt13__future_base13_State_baseV27_SetterIN7openpal10LogFiltersEOS5_EEE10_M_managerERSt9_Any_dataRKS9_St18_Manager_operation
	.type	_ZNSt14_Function_base13_Base_managerINSt13__future_base13_State_baseV27_SetterIN7openpal10LogFiltersEOS5_EEE10_M_managerERSt9_Any_dataRKS9_St18_Manager_operation, @function
_ZNSt14_Function_base13_Base_managerINSt13__future_base13_State_baseV27_SetterIN7openpal10LogFiltersEOS5_EEE10_M_managerERSt9_Any_dataRKS9_St18_Manager_operation:
.LFB11191:
	.cfi_startproc
	cmpl	$1, %edx
	je	.L36
	jb	.L37
	cmpl	$2, %edx
	jne	.L35
	movdqu	(%rsi), %xmm0
	movups	%xmm0, (%rdi)
.L35:
	xorl	%eax, %eax
	ret
	.p2align 4,,10
	.p2align 3
.L37:
	movq	_ZTINSt13__future_base13_State_baseV27_SetterIN7openpal10LogFiltersEOS3_EE@GOTPCREL(%rip), %rax
	movq	%rax, (%rdi)
	xorl	%eax, %eax
	ret
	.p2align 4,,10
	.p2align 3
.L36:
	movq	%rsi, (%rdi)
	xorl	%eax, %eax
	ret
	.cfi_endproc
.LFE11191:
	.size	_ZNSt14_Function_base13_Base_managerINSt13__future_base13_State_baseV27_SetterIN7openpal10LogFiltersEOS5_EEE10_M_managerERSt9_Any_dataRKS9_St18_Manager_operation, .-_ZNSt14_Function_base13_Base_managerINSt13__future_base13_State_baseV27_SetterIN7openpal10LogFiltersEOS5_EEE10_M_managerERSt9_Any_dataRKS9_St18_Manager_operation
	.section	.text._ZNSt17_Function_handlerIFSt10unique_ptrINSt13__future_base12_Result_baseENS2_8_DeleterEEvENS1_13_State_baseV27_SetterIbObEEE9_M_invokeERKSt9_Any_data,"axG",@progbits,_ZNSt17_Function_handlerIFSt10unique_ptrINSt13__future_base12_Result_baseENS2_8_DeleterEEvENS1_13_State_baseV27_SetterIbObEEE9_M_invokeERKSt9_Any_data,comdat
	.p2align 4,,15
	.weak	_ZNSt17_Function_handlerIFSt10unique_ptrINSt13__future_base12_Result_baseENS2_8_DeleterEEvENS1_13_State_baseV27_SetterIbObEEE9_M_invokeERKSt9_Any_data
	.type	_ZNSt17_Function_handlerIFSt10unique_ptrINSt13__future_base12_Result_baseENS2_8_DeleterEEvENS1_13_State_baseV27_SetterIbObEEE9_M_invokeERKSt9_Any_data, @function
_ZNSt17_Function_handlerIFSt10unique_ptrINSt13__future_base12_Result_baseENS2_8_DeleterEEvENS1_13_State_baseV27_SetterIbObEEE9_M_invokeERKSt9_Any_data:
.LFB11537:
	.cfi_startproc
	movq	8(%rsi), %rcx
	movq	(%rsi), %rdx
	movq	%rdi, %rax
	movzbl	(%rcx), %ecx
	movq	16(%rdx), %rdx
	movb	$1, 17(%rdx)
	movb	%cl, 16(%rdx)
	movq	(%rsi), %rdx
	movq	16(%rdx), %rcx
	movq	$0, 16(%rdx)
	movq	%rcx, (%rdi)
	ret
	.cfi_endproc
.LFE11537:
	.size	_ZNSt17_Function_handlerIFSt10unique_ptrINSt13__future_base12_Result_baseENS2_8_DeleterEEvENS1_13_State_baseV27_SetterIbObEEE9_M_invokeERKSt9_Any_data, .-_ZNSt17_Function_handlerIFSt10unique_ptrINSt13__future_base12_Result_baseENS2_8_DeleterEEvENS1_13_State_baseV27_SetterIbObEEE9_M_invokeERKSt9_Any_data
	.section	.text._ZNSt14_Function_base13_Base_managerINSt13__future_base13_State_baseV27_SetterIbObEEE10_M_managerERSt9_Any_dataRKS7_St18_Manager_operation,"axG",@progbits,_ZNSt14_Function_base13_Base_managerINSt13__future_base13_State_baseV27_SetterIbObEEE10_M_managerERSt9_Any_dataRKS7_St18_Manager_operation,comdat
	.p2align 4,,15
	.weak	_ZNSt14_Function_base13_Base_managerINSt13__future_base13_State_baseV27_SetterIbObEEE10_M_managerERSt9_Any_dataRKS7_St18_Manager_operation
	.type	_ZNSt14_Function_base13_Base_managerINSt13__future_base13_State_baseV27_SetterIbObEEE10_M_managerERSt9_Any_dataRKS7_St18_Manager_operation, @function
_ZNSt14_Function_base13_Base_managerINSt13__future_base13_State_baseV27_SetterIbObEEE10_M_managerERSt9_Any_dataRKS7_St18_Manager_operation:
.LFB11538:
	.cfi_startproc
	cmpl	$1, %edx
	je	.L42
	jb	.L43
	cmpl	$2, %edx
	jne	.L41
	movdqu	(%rsi), %xmm0
	movups	%xmm0, (%rdi)
.L41:
	xorl	%eax, %eax
	ret
	.p2align 4,,10
	.p2align 3
.L43:
	movq	_ZTINSt13__future_base13_State_baseV27_SetterIbObEE@GOTPCREL(%rip), %rax
	movq	%rax, (%rdi)
	xorl	%eax, %eax
	ret
	.p2align 4,,10
	.p2align 3
.L42:
	movq	%rsi, (%rdi)
	xorl	%eax, %eax
	ret
	.cfi_endproc
.LFE11538:
	.size	_ZNSt14_Function_base13_Base_managerINSt13__future_base13_State_baseV27_SetterIbObEEE10_M_managerERSt9_Any_dataRKS7_St18_Manager_operation, .-_ZNSt14_Function_base13_Base_managerINSt13__future_base13_State_baseV27_SetterIbObEEE10_M_managerERSt9_Any_dataRKS7_St18_Manager_operation
	.section	.text._ZNSt13__future_base13_State_baseV2D2Ev,"axG",@progbits,_ZNSt13__future_base13_State_baseV2D5Ev,comdat
	.align 2
	.p2align 4,,15
	.weak	_ZNSt13__future_base13_State_baseV2D2Ev
	.type	_ZNSt13__future_base13_State_baseV2D2Ev, @function
_ZNSt13__future_base13_State_baseV2D2Ev:
.LFB12508:
	.cfi_startproc
	.cfi_personality 0x9b,DW.ref.__gxx_personality_v0
	.cfi_lsda 0x1b,.LLSDA12508
	movq	_ZTVNSt13__future_base13_State_baseV2E@GOTPCREL(%rip), %rax
	addq	$16, %rax
	movq	%rax, (%rdi)
	movq	8(%rdi), %rdi
	testq	%rdi, %rdi
	je	.L45
	movq	(%rdi), %rax
	jmp	*(%rax)
	.p2align 4,,10
	.p2align 3
.L45:
	rep ret
	.cfi_endproc
.LFE12508:
	.globl	__gxx_personality_v0
	.section	.gcc_except_table._ZNSt13__future_base13_State_baseV2D2Ev,"aG",@progbits,_ZNSt13__future_base13_State_baseV2D5Ev,comdat
.LLSDA12508:
	.byte	0xff
	.byte	0xff
	.byte	0x1
	.uleb128 .LLSDACSE12508-.LLSDACSB12508
.LLSDACSB12508:
.LLSDACSE12508:
	.section	.text._ZNSt13__future_base13_State_baseV2D2Ev,"axG",@progbits,_ZNSt13__future_base13_State_baseV2D5Ev,comdat
	.size	_ZNSt13__future_base13_State_baseV2D2Ev, .-_ZNSt13__future_base13_State_baseV2D2Ev
	.weak	_ZNSt13__future_base13_State_baseV2D1Ev
	.set	_ZNSt13__future_base13_State_baseV2D1Ev,_ZNSt13__future_base13_State_baseV2D2Ev
	.section	.text._ZN4asio6detail7tss_ptrINS0_10call_stackINS0_15task_io_serviceENS0_27task_io_service_thread_infoEE7contextEED2Ev,"axG",@progbits,_ZN4asio6detail7tss_ptrINS0_10call_stackINS0_15task_io_serviceENS0_27task_io_service_thread_infoEE7contextEED5Ev,comdat
	.align 2
	.p2align 4,,15
	.weak	_ZN4asio6detail7tss_ptrINS0_10call_stackINS0_15task_io_serviceENS0_27task_io_service_thread_infoEE7contextEED2Ev
	.type	_ZN4asio6detail7tss_ptrINS0_10call_stackINS0_15task_io_serviceENS0_27task_io_service_thread_infoEE7contextEED2Ev, @function
_ZN4asio6detail7tss_ptrINS0_10call_stackINS0_15task_io_serviceENS0_27task_io_service_thread_infoEE7contextEED2Ev:
.LFB12577:
	.cfi_startproc
	rep ret
	.cfi_endproc
.LFE12577:
	.size	_ZN4asio6detail7tss_ptrINS0_10call_stackINS0_15task_io_serviceENS0_27task_io_service_thread_infoEE7contextEED2Ev, .-_ZN4asio6detail7tss_ptrINS0_10call_stackINS0_15task_io_serviceENS0_27task_io_service_thread_infoEE7contextEED2Ev
	.weak	_ZN4asio6detail7tss_ptrINS0_10call_stackINS0_15task_io_serviceENS0_27task_io_service_thread_infoEE7contextEED1Ev
	.set	_ZN4asio6detail7tss_ptrINS0_10call_stackINS0_15task_io_serviceENS0_27task_io_service_thread_infoEE7contextEED1Ev,_ZN4asio6detail7tss_ptrINS0_10call_stackINS0_15task_io_serviceENS0_27task_io_service_thread_infoEE7contextEED2Ev
	.section	.text._ZN4asio6detail10service_idINS0_13epoll_reactorEED2Ev,"axG",@progbits,_ZN4asio6detail10service_idINS0_13epoll_reactorEED5Ev,comdat
	.align 2
	.p2align 4,,15
	.weak	_ZN4asio6detail10service_idINS0_13epoll_reactorEED2Ev
	.type	_ZN4asio6detail10service_idINS0_13epoll_reactorEED2Ev, @function
_ZN4asio6detail10service_idINS0_13epoll_reactorEED2Ev:
.LFB12580:
	.cfi_startproc
	rep ret
	.cfi_endproc
.LFE12580:
	.size	_ZN4asio6detail10service_idINS0_13epoll_reactorEED2Ev, .-_ZN4asio6detail10service_idINS0_13epoll_reactorEED2Ev
	.weak	_ZN4asio6detail10service_idINS0_13epoll_reactorEED1Ev
	.set	_ZN4asio6detail10service_idINS0_13epoll_reactorEED1Ev,_ZN4asio6detail10service_idINS0_13epoll_reactorEED2Ev
	.section	.text._ZN4asio6detail10service_idINS0_15task_io_serviceEED2Ev,"axG",@progbits,_ZN4asio6detail10service_idINS0_15task_io_serviceEED5Ev,comdat
	.align 2
	.p2align 4,,15
	.weak	_ZN4asio6detail10service_idINS0_15task_io_serviceEED2Ev
	.type	_ZN4asio6detail10service_idINS0_15task_io_serviceEED2Ev, @function
_ZN4asio6detail10service_idINS0_15task_io_serviceEED2Ev:
.LFB12583:
	.cfi_startproc
	rep ret
	.cfi_endproc
.LFE12583:
	.size	_ZN4asio6detail10service_idINS0_15task_io_serviceEED2Ev, .-_ZN4asio6detail10service_idINS0_15task_io_serviceEED2Ev
	.weak	_ZN4asio6detail10service_idINS0_15task_io_serviceEED1Ev
	.set	_ZN4asio6detail10service_idINS0_15task_io_serviceEED1Ev,_ZN4asio6detail10service_idINS0_15task_io_serviceEED2Ev
	.section	.text._ZN4asio6detail7tss_ptrINS0_10call_stackINS0_14strand_service11strand_implEhE7contextEED2Ev,"axG",@progbits,_ZN4asio6detail7tss_ptrINS0_10call_stackINS0_14strand_service11strand_implEhE7contextEED5Ev,comdat
	.align 2
	.p2align 4,,15
	.weak	_ZN4asio6detail7tss_ptrINS0_10call_stackINS0_14strand_service11strand_implEhE7contextEED2Ev
	.type	_ZN4asio6detail7tss_ptrINS0_10call_stackINS0_14strand_service11strand_implEhE7contextEED2Ev, @function
_ZN4asio6detail7tss_ptrINS0_10call_stackINS0_14strand_service11strand_implEhE7contextEED2Ev:
.LFB12586:
	.cfi_startproc
	rep ret
	.cfi_endproc
.LFE12586:
	.size	_ZN4asio6detail7tss_ptrINS0_10call_stackINS0_14strand_service11strand_implEhE7contextEED2Ev, .-_ZN4asio6detail7tss_ptrINS0_10call_stackINS0_14strand_service11strand_implEhE7contextEED2Ev
	.weak	_ZN4asio6detail7tss_ptrINS0_10call_stackINS0_14strand_service11strand_implEhE7contextEED1Ev
	.set	_ZN4asio6detail7tss_ptrINS0_10call_stackINS0_14strand_service11strand_implEhE7contextEED1Ev,_ZN4asio6detail7tss_ptrINS0_10call_stackINS0_14strand_service11strand_implEhE7contextEED2Ev
	.section	.text._ZN4asio6detail10service_idINS0_14strand_serviceEED2Ev,"axG",@progbits,_ZN4asio6detail10service_idINS0_14strand_serviceEED5Ev,comdat
	.align 2
	.p2align 4,,15
	.weak	_ZN4asio6detail10service_idINS0_14strand_serviceEED2Ev
	.type	_ZN4asio6detail10service_idINS0_14strand_serviceEED2Ev, @function
_ZN4asio6detail10service_idINS0_14strand_serviceEED2Ev:
.LFB12589:
	.cfi_startproc
	rep ret
	.cfi_endproc
.LFE12589:
	.size	_ZN4asio6detail10service_idINS0_14strand_serviceEED2Ev, .-_ZN4asio6detail10service_idINS0_14strand_serviceEED2Ev
	.weak	_ZN4asio6detail10service_idINS0_14strand_serviceEED1Ev
	.set	_ZN4asio6detail10service_idINS0_14strand_serviceEED1Ev,_ZN4asio6detail10service_idINS0_14strand_serviceEED2Ev
	.section	.text._ZNSt23_Sp_counted_ptr_inplaceIN8asiodnp315OutstationStackESaIS1_ELN9__gnu_cxx12_Lock_policyE2EED2Ev,"axG",@progbits,_ZNSt23_Sp_counted_ptr_inplaceIN8asiodnp315OutstationStackESaIS1_ELN9__gnu_cxx12_Lock_policyE2EED5Ev,comdat
	.align 2
	.p2align 4,,15
	.weak	_ZNSt23_Sp_counted_ptr_inplaceIN8asiodnp315OutstationStackESaIS1_ELN9__gnu_cxx12_Lock_policyE2EED2Ev
	.type	_ZNSt23_Sp_counted_ptr_inplaceIN8asiodnp315OutstationStackESaIS1_ELN9__gnu_cxx12_Lock_policyE2EED2Ev, @function
_ZNSt23_Sp_counted_ptr_inplaceIN8asiodnp315OutstationStackESaIS1_ELN9__gnu_cxx12_Lock_policyE2EED2Ev:
.LFB12592:
	.cfi_startproc
	rep ret
	.cfi_endproc
.LFE12592:
	.size	_ZNSt23_Sp_counted_ptr_inplaceIN8asiodnp315OutstationStackESaIS1_ELN9__gnu_cxx12_Lock_policyE2EED2Ev, .-_ZNSt23_Sp_counted_ptr_inplaceIN8asiodnp315OutstationStackESaIS1_ELN9__gnu_cxx12_Lock_policyE2EED2Ev
	.weak	_ZNSt23_Sp_counted_ptr_inplaceIN8asiodnp315OutstationStackESaIS1_ELN9__gnu_cxx12_Lock_policyE2EED1Ev
	.set	_ZNSt23_Sp_counted_ptr_inplaceIN8asiodnp315OutstationStackESaIS1_ELN9__gnu_cxx12_Lock_policyE2EED1Ev,_ZNSt23_Sp_counted_ptr_inplaceIN8asiodnp315OutstationStackESaIS1_ELN9__gnu_cxx12_Lock_policyE2EED2Ev
	.section	.text._ZNSt23_Sp_counted_ptr_inplaceIN8asiodnp311MasterStackESaIS1_ELN9__gnu_cxx12_Lock_policyE2EED2Ev,"axG",@progbits,_ZNSt23_Sp_counted_ptr_inplaceIN8asiodnp311MasterStackESaIS1_ELN9__gnu_cxx12_Lock_policyE2EED5Ev,comdat
	.align 2
	.p2align 4,,15
	.weak	_ZNSt23_Sp_counted_ptr_inplaceIN8asiodnp311MasterStackESaIS1_ELN9__gnu_cxx12_Lock_policyE2EED2Ev
	.type	_ZNSt23_Sp_counted_ptr_inplaceIN8asiodnp311MasterStackESaIS1_ELN9__gnu_cxx12_Lock_policyE2EED2Ev, @function
_ZNSt23_Sp_counted_ptr_inplaceIN8asiodnp311MasterStackESaIS1_ELN9__gnu_cxx12_Lock_policyE2EED2Ev:
.LFB12599:
	.cfi_startproc
	rep ret
	.cfi_endproc
.LFE12599:
	.size	_ZNSt23_Sp_counted_ptr_inplaceIN8asiodnp311MasterStackESaIS1_ELN9__gnu_cxx12_Lock_policyE2EED2Ev, .-_ZNSt23_Sp_counted_ptr_inplaceIN8asiodnp311MasterStackESaIS1_ELN9__gnu_cxx12_Lock_policyE2EED2Ev
	.weak	_ZNSt23_Sp_counted_ptr_inplaceIN8asiodnp311MasterStackESaIS1_ELN9__gnu_cxx12_Lock_policyE2EED1Ev
	.set	_ZNSt23_Sp_counted_ptr_inplaceIN8asiodnp311MasterStackESaIS1_ELN9__gnu_cxx12_Lock_policyE2EED1Ev,_ZNSt23_Sp_counted_ptr_inplaceIN8asiodnp311MasterStackESaIS1_ELN9__gnu_cxx12_Lock_policyE2EED2Ev
	.section	.text._ZNSt23_Sp_counted_ptr_inplaceIN8asiodnp311MasterStackESaIS1_ELN9__gnu_cxx12_Lock_policyE2EE10_M_disposeEv,"axG",@progbits,_ZNSt23_Sp_counted_ptr_inplaceIN8asiodnp311MasterStackESaIS1_ELN9__gnu_cxx12_Lock_policyE2EE10_M_disposeEv,comdat
	.align 2
	.p2align 4,,15
	.weak	_ZNSt23_Sp_counted_ptr_inplaceIN8asiodnp311MasterStackESaIS1_ELN9__gnu_cxx12_Lock_policyE2EE10_M_disposeEv
	.type	_ZNSt23_Sp_counted_ptr_inplaceIN8asiodnp311MasterStackESaIS1_ELN9__gnu_cxx12_Lock_policyE2EE10_M_disposeEv, @function
_ZNSt23_Sp_counted_ptr_inplaceIN8asiodnp311MasterStackESaIS1_ELN9__gnu_cxx12_Lock_policyE2EE10_M_disposeEv:
.LFB12602:
	.cfi_startproc
	movq	%rdi, %rax
	leaq	16(%rdi), %rdi
	movq	16(%rax), %rax
	jmp	*16(%rax)
	.cfi_endproc
.LFE12602:
	.size	_ZNSt23_Sp_counted_ptr_inplaceIN8asiodnp311MasterStackESaIS1_ELN9__gnu_cxx12_Lock_policyE2EE10_M_disposeEv, .-_ZNSt23_Sp_counted_ptr_inplaceIN8asiodnp311MasterStackESaIS1_ELN9__gnu_cxx12_Lock_policyE2EE10_M_disposeEv
	.section	.text._ZNSt23_Sp_counted_ptr_inplaceIN7asiopal15ResourceManagerESaIS1_ELN9__gnu_cxx12_Lock_policyE2EED2Ev,"axG",@progbits,_ZNSt23_Sp_counted_ptr_inplaceIN7asiopal15ResourceManagerESaIS1_ELN9__gnu_cxx12_Lock_policyE2EED5Ev,comdat
	.align 2
	.p2align 4,,15
	.weak	_ZNSt23_Sp_counted_ptr_inplaceIN7asiopal15ResourceManagerESaIS1_ELN9__gnu_cxx12_Lock_policyE2EED2Ev
	.type	_ZNSt23_Sp_counted_ptr_inplaceIN7asiopal15ResourceManagerESaIS1_ELN9__gnu_cxx12_Lock_policyE2EED2Ev, @function
_ZNSt23_Sp_counted_ptr_inplaceIN7asiopal15ResourceManagerESaIS1_ELN9__gnu_cxx12_Lock_policyE2EED2Ev:
.LFB12620:
	.cfi_startproc
	rep ret
	.cfi_endproc
.LFE12620:
	.size	_ZNSt23_Sp_counted_ptr_inplaceIN7asiopal15ResourceManagerESaIS1_ELN9__gnu_cxx12_Lock_policyE2EED2Ev, .-_ZNSt23_Sp_counted_ptr_inplaceIN7asiopal15ResourceManagerESaIS1_ELN9__gnu_cxx12_Lock_policyE2EED2Ev
	.weak	_ZNSt23_Sp_counted_ptr_inplaceIN7asiopal15ResourceManagerESaIS1_ELN9__gnu_cxx12_Lock_policyE2EED1Ev
	.set	_ZNSt23_Sp_counted_ptr_inplaceIN7asiopal15ResourceManagerESaIS1_ELN9__gnu_cxx12_Lock_policyE2EED1Ev,_ZNSt23_Sp_counted_ptr_inplaceIN7asiopal15ResourceManagerESaIS1_ELN9__gnu_cxx12_Lock_policyE2EED2Ev
	.section	.text._ZNSt23_Sp_counted_ptr_inplaceINSt13__future_base13_State_baseV2ESaIS1_ELN9__gnu_cxx12_Lock_policyE2EED2Ev,"axG",@progbits,_ZNSt23_Sp_counted_ptr_inplaceINSt13__future_base13_State_baseV2ESaIS1_ELN9__gnu_cxx12_Lock_policyE2EED5Ev,comdat
	.align 2
	.p2align 4,,15
	.weak	_ZNSt23_Sp_counted_ptr_inplaceINSt13__future_base13_State_baseV2ESaIS1_ELN9__gnu_cxx12_Lock_policyE2EED2Ev
	.type	_ZNSt23_Sp_counted_ptr_inplaceINSt13__future_base13_State_baseV2ESaIS1_ELN9__gnu_cxx12_Lock_policyE2EED2Ev, @function
_ZNSt23_Sp_counted_ptr_inplaceINSt13__future_base13_State_baseV2ESaIS1_ELN9__gnu_cxx12_Lock_policyE2EED2Ev:
.LFB12634:
	.cfi_startproc
	rep ret
	.cfi_endproc
.LFE12634:
	.size	_ZNSt23_Sp_counted_ptr_inplaceINSt13__future_base13_State_baseV2ESaIS1_ELN9__gnu_cxx12_Lock_policyE2EED2Ev, .-_ZNSt23_Sp_counted_ptr_inplaceINSt13__future_base13_State_baseV2ESaIS1_ELN9__gnu_cxx12_Lock_policyE2EED2Ev
	.weak	_ZNSt23_Sp_counted_ptr_inplaceINSt13__future_base13_State_baseV2ESaIS1_ELN9__gnu_cxx12_Lock_policyE2EED1Ev
	.set	_ZNSt23_Sp_counted_ptr_inplaceINSt13__future_base13_State_baseV2ESaIS1_ELN9__gnu_cxx12_Lock_policyE2EED1Ev,_ZNSt23_Sp_counted_ptr_inplaceINSt13__future_base13_State_baseV2ESaIS1_ELN9__gnu_cxx12_Lock_policyE2EED2Ev
	.section	.text._ZNSt23_Sp_counted_ptr_inplaceINSt13__future_base13_State_baseV2ESaIS1_ELN9__gnu_cxx12_Lock_policyE2EE10_M_disposeEv,"axG",@progbits,_ZNSt23_Sp_counted_ptr_inplaceINSt13__future_base13_State_baseV2ESaIS1_ELN9__gnu_cxx12_Lock_policyE2EE10_M_disposeEv,comdat
	.align 2
	.p2align 4,,15
	.weak	_ZNSt23_Sp_counted_ptr_inplaceINSt13__future_base13_State_baseV2ESaIS1_ELN9__gnu_cxx12_Lock_policyE2EE10_M_disposeEv
	.type	_ZNSt23_Sp_counted_ptr_inplaceINSt13__future_base13_State_baseV2ESaIS1_ELN9__gnu_cxx12_Lock_policyE2EE10_M_disposeEv, @function
_ZNSt23_Sp_counted_ptr_inplaceINSt13__future_base13_State_baseV2ESaIS1_ELN9__gnu_cxx12_Lock_policyE2EE10_M_disposeEv:
.LFB12637:
	.cfi_startproc
	movq	%rdi, %rax
	leaq	16(%rdi), %rdi
	movq	16(%rax), %rax
	jmp	*(%rax)
	.cfi_endproc
.LFE12637:
	.size	_ZNSt23_Sp_counted_ptr_inplaceINSt13__future_base13_State_baseV2ESaIS1_ELN9__gnu_cxx12_Lock_policyE2EE10_M_disposeEv, .-_ZNSt23_Sp_counted_ptr_inplaceINSt13__future_base13_State_baseV2ESaIS1_ELN9__gnu_cxx12_Lock_policyE2EE10_M_disposeEv
	.section	.text._ZNSt23_Sp_counted_ptr_inplaceIN7openpal6Logger8SettingsESaIS2_ELN9__gnu_cxx12_Lock_policyE2EED2Ev,"axG",@progbits,_ZNSt23_Sp_counted_ptr_inplaceIN7openpal6Logger8SettingsESaIS2_ELN9__gnu_cxx12_Lock_policyE2EED5Ev,comdat
	.align 2
	.p2align 4,,15
	.weak	_ZNSt23_Sp_counted_ptr_inplaceIN7openpal6Logger8SettingsESaIS2_ELN9__gnu_cxx12_Lock_policyE2EED2Ev
	.type	_ZNSt23_Sp_counted_ptr_inplaceIN7openpal6Logger8SettingsESaIS2_ELN9__gnu_cxx12_Lock_policyE2EED2Ev, @function
_ZNSt23_Sp_counted_ptr_inplaceIN7openpal6Logger8SettingsESaIS2_ELN9__gnu_cxx12_Lock_policyE2EED2Ev:
.LFB12648:
	.cfi_startproc
	rep ret
	.cfi_endproc
.LFE12648:
	.size	_ZNSt23_Sp_counted_ptr_inplaceIN7openpal6Logger8SettingsESaIS2_ELN9__gnu_cxx12_Lock_policyE2EED2Ev, .-_ZNSt23_Sp_counted_ptr_inplaceIN7openpal6Logger8SettingsESaIS2_ELN9__gnu_cxx12_Lock_policyE2EED2Ev
	.weak	_ZNSt23_Sp_counted_ptr_inplaceIN7openpal6Logger8SettingsESaIS2_ELN9__gnu_cxx12_Lock_policyE2EED1Ev
	.set	_ZNSt23_Sp_counted_ptr_inplaceIN7openpal6Logger8SettingsESaIS2_ELN9__gnu_cxx12_Lock_policyE2EED1Ev,_ZNSt23_Sp_counted_ptr_inplaceIN7openpal6Logger8SettingsESaIS2_ELN9__gnu_cxx12_Lock_policyE2EED2Ev
	.section	.text._ZNSt23_Sp_counted_ptr_inplaceIN7openpal6Logger8SettingsESaIS2_ELN9__gnu_cxx12_Lock_policyE2EE14_M_get_deleterERKSt9type_info,"axG",@progbits,_ZNSt23_Sp_counted_ptr_inplaceIN7openpal6Logger8SettingsESaIS2_ELN9__gnu_cxx12_Lock_policyE2EE14_M_get_deleterERKSt9type_info,comdat
	.align 2
	.p2align 4,,15
	.weak	_ZNSt23_Sp_counted_ptr_inplaceIN7openpal6Logger8SettingsESaIS2_ELN9__gnu_cxx12_Lock_policyE2EE14_M_get_deleterERKSt9type_info
	.type	_ZNSt23_Sp_counted_ptr_inplaceIN7openpal6Logger8SettingsESaIS2_ELN9__gnu_cxx12_Lock_policyE2EE14_M_get_deleterERKSt9type_info, @function
_ZNSt23_Sp_counted_ptr_inplaceIN7openpal6Logger8SettingsESaIS2_ELN9__gnu_cxx12_Lock_policyE2EE14_M_get_deleterERKSt9type_info:
.LFB12653:
	.cfi_startproc
	pushq	%rbx
	.cfi_def_cfa_offset 16
	.cfi_offset 3, -16
	movq	%rdi, %rbx
	movq	8(%rsi), %rdi
	movq	_ZTSSt19_Sp_make_shared_tag@GOTPCREL(%rip), %rsi
	cmpq	%rsi, %rdi
	je	.L60
	cmpb	$42, (%rdi)
	je	.L63
	call	strcmp@PLT
	testl	%eax, %eax
	jne	.L63
.L60:
	leaq	16(%rbx), %rax
	popq	%rbx
	.cfi_remember_state
	.cfi_def_cfa_offset 8
	ret
	.p2align 4,,10
	.p2align 3
.L63:
	.cfi_restore_state
	xorl	%eax, %eax
	popq	%rbx
	.cfi_def_cfa_offset 8
	ret
	.cfi_endproc
.LFE12653:
	.size	_ZNSt23_Sp_counted_ptr_inplaceIN7openpal6Logger8SettingsESaIS2_ELN9__gnu_cxx12_Lock_policyE2EE14_M_get_deleterERKSt9type_info, .-_ZNSt23_Sp_counted_ptr_inplaceIN7openpal6Logger8SettingsESaIS2_ELN9__gnu_cxx12_Lock_policyE2EE14_M_get_deleterERKSt9type_info
	.section	.text._ZNSt23_Sp_counted_ptr_inplaceINSt13__future_base13_State_baseV2ESaIS1_ELN9__gnu_cxx12_Lock_policyE2EE14_M_get_deleterERKSt9type_info,"axG",@progbits,_ZNSt23_Sp_counted_ptr_inplaceINSt13__future_base13_State_baseV2ESaIS1_ELN9__gnu_cxx12_Lock_policyE2EE14_M_get_deleterERKSt9type_info,comdat
	.align 2
	.p2align 4,,15
	.weak	_ZNSt23_Sp_counted_ptr_inplaceINSt13__future_base13_State_baseV2ESaIS1_ELN9__gnu_cxx12_Lock_policyE2EE14_M_get_deleterERKSt9type_info
	.type	_ZNSt23_Sp_counted_ptr_inplaceINSt13__future_base13_State_baseV2ESaIS1_ELN9__gnu_cxx12_Lock_policyE2EE14_M_get_deleterERKSt9type_info, @function
_ZNSt23_Sp_counted_ptr_inplaceINSt13__future_base13_State_baseV2ESaIS1_ELN9__gnu_cxx12_Lock_policyE2EE14_M_get_deleterERKSt9type_info:
.LFB12639:
	.cfi_startproc
	pushq	%rbx
	.cfi_def_cfa_offset 16
	.cfi_offset 3, -16
	movq	%rdi, %rbx
	movq	8(%rsi), %rdi
	movq	_ZTSSt19_Sp_make_shared_tag@GOTPCREL(%rip), %rsi
	cmpq	%rsi, %rdi
	je	.L66
	cmpb	$42, (%rdi)
	je	.L69
	call	strcmp@PLT
	testl	%eax, %eax
	jne	.L69
.L66:
	leaq	16(%rbx), %rax
	popq	%rbx
	.cfi_remember_state
	.cfi_def_cfa_offset 8
	ret
	.p2align 4,,10
	.p2align 3
.L69:
	.cfi_restore_state
	xorl	%eax, %eax
	popq	%rbx
	.cfi_def_cfa_offset 8
	ret
	.cfi_endproc
.LFE12639:
	.size	_ZNSt23_Sp_counted_ptr_inplaceINSt13__future_base13_State_baseV2ESaIS1_ELN9__gnu_cxx12_Lock_policyE2EE14_M_get_deleterERKSt9type_info, .-_ZNSt23_Sp_counted_ptr_inplaceINSt13__future_base13_State_baseV2ESaIS1_ELN9__gnu_cxx12_Lock_policyE2EE14_M_get_deleterERKSt9type_info
	.section	.text._ZNSt23_Sp_counted_ptr_inplaceIN7asiopal15ResourceManagerESaIS1_ELN9__gnu_cxx12_Lock_policyE2EE14_M_get_deleterERKSt9type_info,"axG",@progbits,_ZNSt23_Sp_counted_ptr_inplaceIN7asiopal15ResourceManagerESaIS1_ELN9__gnu_cxx12_Lock_policyE2EE14_M_get_deleterERKSt9type_info,comdat
	.align 2
	.p2align 4,,15
	.weak	_ZNSt23_Sp_counted_ptr_inplaceIN7asiopal15ResourceManagerESaIS1_ELN9__gnu_cxx12_Lock_policyE2EE14_M_get_deleterERKSt9type_info
	.type	_ZNSt23_Sp_counted_ptr_inplaceIN7asiopal15ResourceManagerESaIS1_ELN9__gnu_cxx12_Lock_policyE2EE14_M_get_deleterERKSt9type_info, @function
_ZNSt23_Sp_counted_ptr_inplaceIN7asiopal15ResourceManagerESaIS1_ELN9__gnu_cxx12_Lock_policyE2EE14_M_get_deleterERKSt9type_info:
.LFB12625:
	.cfi_startproc
	pushq	%rbx
	.cfi_def_cfa_offset 16
	.cfi_offset 3, -16
	movq	%rdi, %rbx
	movq	8(%rsi), %rdi
	movq	_ZTSSt19_Sp_make_shared_tag@GOTPCREL(%rip), %rsi
	cmpq	%rsi, %rdi
	je	.L72
	cmpb	$42, (%rdi)
	je	.L75
	call	strcmp@PLT
	testl	%eax, %eax
	jne	.L75
.L72:
	leaq	16(%rbx), %rax
	popq	%rbx
	.cfi_remember_state
	.cfi_def_cfa_offset 8
	ret
	.p2align 4,,10
	.p2align 3
.L75:
	.cfi_restore_state
	xorl	%eax, %eax
	popq	%rbx
	.cfi_def_cfa_offset 8
	ret
	.cfi_endproc
.LFE12625:
	.size	_ZNSt23_Sp_counted_ptr_inplaceIN7asiopal15ResourceManagerESaIS1_ELN9__gnu_cxx12_Lock_policyE2EE14_M_get_deleterERKSt9type_info, .-_ZNSt23_Sp_counted_ptr_inplaceIN7asiopal15ResourceManagerESaIS1_ELN9__gnu_cxx12_Lock_policyE2EE14_M_get_deleterERKSt9type_info
	.section	.text._ZNSt23_Sp_counted_ptr_inplaceIN8asiodnp311MasterStackESaIS1_ELN9__gnu_cxx12_Lock_policyE2EE14_M_get_deleterERKSt9type_info,"axG",@progbits,_ZNSt23_Sp_counted_ptr_inplaceIN8asiodnp311MasterStackESaIS1_ELN9__gnu_cxx12_Lock_policyE2EE14_M_get_deleterERKSt9type_info,comdat
	.align 2
	.p2align 4,,15
	.weak	_ZNSt23_Sp_counted_ptr_inplaceIN8asiodnp311MasterStackESaIS1_ELN9__gnu_cxx12_Lock_policyE2EE14_M_get_deleterERKSt9type_info
	.type	_ZNSt23_Sp_counted_ptr_inplaceIN8asiodnp311MasterStackESaIS1_ELN9__gnu_cxx12_Lock_policyE2EE14_M_get_deleterERKSt9type_info, @function
_ZNSt23_Sp_counted_ptr_inplaceIN8asiodnp311MasterStackESaIS1_ELN9__gnu_cxx12_Lock_policyE2EE14_M_get_deleterERKSt9type_info:
.LFB12604:
	.cfi_startproc
	pushq	%rbx
	.cfi_def_cfa_offset 16
	.cfi_offset 3, -16
	movq	%rdi, %rbx
	movq	8(%rsi), %rdi
	movq	_ZTSSt19_Sp_make_shared_tag@GOTPCREL(%rip), %rsi
	cmpq	%rsi, %rdi
	je	.L78
	cmpb	$42, (%rdi)
	je	.L81
	call	strcmp@PLT
	testl	%eax, %eax
	jne	.L81
.L78:
	leaq	16(%rbx), %rax
	popq	%rbx
	.cfi_remember_state
	.cfi_def_cfa_offset 8
	ret
	.p2align 4,,10
	.p2align 3
.L81:
	.cfi_restore_state
	xorl	%eax, %eax
	popq	%rbx
	.cfi_def_cfa_offset 8
	ret
	.cfi_endproc
.LFE12604:
	.size	_ZNSt23_Sp_counted_ptr_inplaceIN8asiodnp311MasterStackESaIS1_ELN9__gnu_cxx12_Lock_policyE2EE14_M_get_deleterERKSt9type_info, .-_ZNSt23_Sp_counted_ptr_inplaceIN8asiodnp311MasterStackESaIS1_ELN9__gnu_cxx12_Lock_policyE2EE14_M_get_deleterERKSt9type_info
	.section	.text._ZNSt23_Sp_counted_ptr_inplaceIN8asiodnp315OutstationStackESaIS1_ELN9__gnu_cxx12_Lock_policyE2EE14_M_get_deleterERKSt9type_info,"axG",@progbits,_ZNSt23_Sp_counted_ptr_inplaceIN8asiodnp315OutstationStackESaIS1_ELN9__gnu_cxx12_Lock_policyE2EE14_M_get_deleterERKSt9type_info,comdat
	.align 2
	.p2align 4,,15
	.weak	_ZNSt23_Sp_counted_ptr_inplaceIN8asiodnp315OutstationStackESaIS1_ELN9__gnu_cxx12_Lock_policyE2EE14_M_get_deleterERKSt9type_info
	.type	_ZNSt23_Sp_counted_ptr_inplaceIN8asiodnp315OutstationStackESaIS1_ELN9__gnu_cxx12_Lock_policyE2EE14_M_get_deleterERKSt9type_info, @function
_ZNSt23_Sp_counted_ptr_inplaceIN8asiodnp315OutstationStackESaIS1_ELN9__gnu_cxx12_Lock_policyE2EE14_M_get_deleterERKSt9type_info:
.LFB12597:
	.cfi_startproc
	pushq	%rbx
	.cfi_def_cfa_offset 16
	.cfi_offset 3, -16
	movq	%rdi, %rbx
	movq	8(%rsi), %rdi
	movq	_ZTSSt19_Sp_make_shared_tag@GOTPCREL(%rip), %rsi
	cmpq	%rsi, %rdi
	je	.L84
	cmpb	$42, (%rdi)
	je	.L87
	call	strcmp@PLT
	testl	%eax, %eax
	jne	.L87
.L84:
	leaq	16(%rbx), %rax
	popq	%rbx
	.cfi_remember_state
	.cfi_def_cfa_offset 8
	ret
	.p2align 4,,10
	.p2align 3
.L87:
	.cfi_restore_state
	xorl	%eax, %eax
	popq	%rbx
	.cfi_def_cfa_offset 8
	ret
	.cfi_endproc
.LFE12597:
	.size	_ZNSt23_Sp_counted_ptr_inplaceIN8asiodnp315OutstationStackESaIS1_ELN9__gnu_cxx12_Lock_policyE2EE14_M_get_deleterERKSt9type_info, .-_ZNSt23_Sp_counted_ptr_inplaceIN8asiodnp315OutstationStackESaIS1_ELN9__gnu_cxx12_Lock_policyE2EE14_M_get_deleterERKSt9type_info
	.section	.text._ZNSt13__future_base13_State_baseV2D0Ev,"axG",@progbits,_ZNSt13__future_base13_State_baseV2D5Ev,comdat
	.align 2
	.p2align 4,,15
	.weak	_ZNSt13__future_base13_State_baseV2D0Ev
	.type	_ZNSt13__future_base13_State_baseV2D0Ev, @function
_ZNSt13__future_base13_State_baseV2D0Ev:
.LFB12510:
	.cfi_startproc
	.cfi_personality 0x9b,DW.ref.__gxx_personality_v0
	.cfi_lsda 0x1b,.LLSDA12510
	movq	_ZTVNSt13__future_base13_State_baseV2E@GOTPCREL(%rip), %rax
	pushq	%rbx
	.cfi_def_cfa_offset 16
	.cfi_offset 3, -16
	movq	%rdi, %rbx
	addq	$16, %rax
	movq	%rax, (%rdi)
	movq	8(%rdi), %rdi
	testq	%rdi, %rdi
	je	.L90
	movq	(%rdi), %rax
	call	*(%rax)
.L90:
	movq	%rbx, %rdi
	movl	$32, %esi
	popq	%rbx
	.cfi_def_cfa_offset 8
	jmp	_ZdlPvm@PLT
	.cfi_endproc
.LFE12510:
	.section	.gcc_except_table._ZNSt13__future_base13_State_baseV2D0Ev,"aG",@progbits,_ZNSt13__future_base13_State_baseV2D5Ev,comdat
.LLSDA12510:
	.byte	0xff
	.byte	0xff
	.byte	0x1
	.uleb128 .LLSDACSE12510-.LLSDACSB12510
.LLSDACSB12510:
.LLSDACSE12510:
	.section	.text._ZNSt13__future_base13_State_baseV2D0Ev,"axG",@progbits,_ZNSt13__future_base13_State_baseV2D5Ev,comdat
	.size	_ZNSt13__future_base13_State_baseV2D0Ev, .-_ZNSt13__future_base13_State_baseV2D0Ev
	.section	.text._ZNSt23_Sp_counted_ptr_inplaceIN7openpal6Logger8SettingsESaIS2_ELN9__gnu_cxx12_Lock_policyE2EED0Ev,"axG",@progbits,_ZNSt23_Sp_counted_ptr_inplaceIN7openpal6Logger8SettingsESaIS2_ELN9__gnu_cxx12_Lock_policyE2EED5Ev,comdat
	.align 2
	.p2align 4,,15
	.weak	_ZNSt23_Sp_counted_ptr_inplaceIN7openpal6Logger8SettingsESaIS2_ELN9__gnu_cxx12_Lock_policyE2EED0Ev
	.type	_ZNSt23_Sp_counted_ptr_inplaceIN7openpal6Logger8SettingsESaIS2_ELN9__gnu_cxx12_Lock_policyE2EED0Ev, @function
_ZNSt23_Sp_counted_ptr_inplaceIN7openpal6Logger8SettingsESaIS2_ELN9__gnu_cxx12_Lock_policyE2EED0Ev:
.LFB12650:
	.cfi_startproc
	movl	$56, %esi
	jmp	_ZdlPvm@PLT
	.cfi_endproc
.LFE12650:
	.size	_ZNSt23_Sp_counted_ptr_inplaceIN7openpal6Logger8SettingsESaIS2_ELN9__gnu_cxx12_Lock_policyE2EED0Ev, .-_ZNSt23_Sp_counted_ptr_inplaceIN7openpal6Logger8SettingsESaIS2_ELN9__gnu_cxx12_Lock_policyE2EED0Ev
	.section	.text._ZNSt23_Sp_counted_ptr_inplaceINSt13__future_base13_State_baseV2ESaIS1_ELN9__gnu_cxx12_Lock_policyE2EED0Ev,"axG",@progbits,_ZNSt23_Sp_counted_ptr_inplaceINSt13__future_base13_State_baseV2ESaIS1_ELN9__gnu_cxx12_Lock_policyE2EED5Ev,comdat
	.align 2
	.p2align 4,,15
	.weak	_ZNSt23_Sp_counted_ptr_inplaceINSt13__future_base13_State_baseV2ESaIS1_ELN9__gnu_cxx12_Lock_policyE2EED0Ev
	.type	_ZNSt23_Sp_counted_ptr_inplaceINSt13__future_base13_State_baseV2ESaIS1_ELN9__gnu_cxx12_Lock_policyE2EED0Ev, @function
_ZNSt23_Sp_counted_ptr_inplaceINSt13__future_base13_State_baseV2ESaIS1_ELN9__gnu_cxx12_Lock_policyE2EED0Ev:
.LFB12636:
	.cfi_startproc
	movl	$48, %esi
	jmp	_ZdlPvm@PLT
	.cfi_endproc
.LFE12636:
	.size	_ZNSt23_Sp_counted_ptr_inplaceINSt13__future_base13_State_baseV2ESaIS1_ELN9__gnu_cxx12_Lock_policyE2EED0Ev, .-_ZNSt23_Sp_counted_ptr_inplaceINSt13__future_base13_State_baseV2ESaIS1_ELN9__gnu_cxx12_Lock_policyE2EED0Ev
	.section	.text._ZNSt23_Sp_counted_ptr_inplaceIN7asiopal15ResourceManagerESaIS1_ELN9__gnu_cxx12_Lock_policyE2EED0Ev,"axG",@progbits,_ZNSt23_Sp_counted_ptr_inplaceIN7asiopal15ResourceManagerESaIS1_ELN9__gnu_cxx12_Lock_policyE2EED5Ev,comdat
	.align 2
	.p2align 4,,15
	.weak	_ZNSt23_Sp_counted_ptr_inplaceIN7asiopal15ResourceManagerESaIS1_ELN9__gnu_cxx12_Lock_policyE2EED0Ev
	.type	_ZNSt23_Sp_counted_ptr_inplaceIN7asiopal15ResourceManagerESaIS1_ELN9__gnu_cxx12_Lock_policyE2EED0Ev, @function
_ZNSt23_Sp_counted_ptr_inplaceIN7asiopal15ResourceManagerESaIS1_ELN9__gnu_cxx12_Lock_policyE2EED0Ev:
.LFB12622:
	.cfi_startproc
	movl	$120, %esi
	jmp	_ZdlPvm@PLT
	.cfi_endproc
.LFE12622:
	.size	_ZNSt23_Sp_counted_ptr_inplaceIN7asiopal15ResourceManagerESaIS1_ELN9__gnu_cxx12_Lock_policyE2EED0Ev, .-_ZNSt23_Sp_counted_ptr_inplaceIN7asiopal15ResourceManagerESaIS1_ELN9__gnu_cxx12_Lock_policyE2EED0Ev
	.section	.text._ZNSt23_Sp_counted_ptr_inplaceIN8asiodnp311MasterStackESaIS1_ELN9__gnu_cxx12_Lock_policyE2EED0Ev,"axG",@progbits,_ZNSt23_Sp_counted_ptr_inplaceIN8asiodnp311MasterStackESaIS1_ELN9__gnu_cxx12_Lock_policyE2EED5Ev,comdat
	.align 2
	.p2align 4,,15
	.weak	_ZNSt23_Sp_counted_ptr_inplaceIN8asiodnp311MasterStackESaIS1_ELN9__gnu_cxx12_Lock_policyE2EED0Ev
	.type	_ZNSt23_Sp_counted_ptr_inplaceIN8asiodnp311MasterStackESaIS1_ELN9__gnu_cxx12_Lock_policyE2EED0Ev, @function
_ZNSt23_Sp_counted_ptr_inplaceIN8asiodnp311MasterStackESaIS1_ELN9__gnu_cxx12_Lock_policyE2EED0Ev:
.LFB12601:
	.cfi_startproc
	movl	$704, %esi
	jmp	_ZdlPvm@PLT
	.cfi_endproc
.LFE12601:
	.size	_ZNSt23_Sp_counted_ptr_inplaceIN8asiodnp311MasterStackESaIS1_ELN9__gnu_cxx12_Lock_policyE2EED0Ev, .-_ZNSt23_Sp_counted_ptr_inplaceIN8asiodnp311MasterStackESaIS1_ELN9__gnu_cxx12_Lock_policyE2EED0Ev
	.section	.text._ZNSt23_Sp_counted_ptr_inplaceIN8asiodnp315OutstationStackESaIS1_ELN9__gnu_cxx12_Lock_policyE2EED0Ev,"axG",@progbits,_ZNSt23_Sp_counted_ptr_inplaceIN8asiodnp315OutstationStackESaIS1_ELN9__gnu_cxx12_Lock_policyE2EED5Ev,comdat
	.align 2
	.p2align 4,,15
	.weak	_ZNSt23_Sp_counted_ptr_inplaceIN8asiodnp315OutstationStackESaIS1_ELN9__gnu_cxx12_Lock_policyE2EED0Ev
	.type	_ZNSt23_Sp_counted_ptr_inplaceIN8asiodnp315OutstationStackESaIS1_ELN9__gnu_cxx12_Lock_policyE2EED0Ev, @function
_ZNSt23_Sp_counted_ptr_inplaceIN8asiodnp315OutstationStackESaIS1_ELN9__gnu_cxx12_Lock_policyE2EED0Ev:
.LFB12594:
	.cfi_startproc
	movl	$1120, %esi
	jmp	_ZdlPvm@PLT
	.cfi_endproc
.LFE12594:
	.size	_ZNSt23_Sp_counted_ptr_inplaceIN8asiodnp315OutstationStackESaIS1_ELN9__gnu_cxx12_Lock_policyE2EED0Ev, .-_ZNSt23_Sp_counted_ptr_inplaceIN8asiodnp315OutstationStackESaIS1_ELN9__gnu_cxx12_Lock_policyE2EED0Ev
	.section	.text._ZN7openpal5ArrayIhjED2Ev,"axG",@progbits,_ZN7openpal5ArrayIhjED5Ev,comdat
	.align 2
	.p2align 4,,15
	.weak	_ZN7openpal5ArrayIhjED2Ev
	.type	_ZN7openpal5ArrayIhjED2Ev, @function
_ZN7openpal5ArrayIhjED2Ev:
.LFB9496:
	.cfi_startproc
	movq	_ZTVN7openpal5ArrayIhjEE@GOTPCREL(%rip), %rax
	addq	$16, %rax
	movq	%rax, (%rdi)
	movq	16(%rdi), %rdi
	testq	%rdi, %rdi
	je	.L100
	jmp	_ZdaPv@PLT
	.p2align 4,,10
	.p2align 3
.L100:
	rep ret
	.cfi_endproc
.LFE9496:
	.size	_ZN7openpal5ArrayIhjED2Ev, .-_ZN7openpal5ArrayIhjED2Ev
	.weak	_ZN7openpal5ArrayIhjED1Ev
	.set	_ZN7openpal5ArrayIhjED1Ev,_ZN7openpal5ArrayIhjED2Ev
	.section	.text._ZN7openpal5ArrayIhjED0Ev,"axG",@progbits,_ZN7openpal5ArrayIhjED5Ev,comdat
	.align 2
	.p2align 4,,15
	.weak	_ZN7openpal5ArrayIhjED0Ev
	.type	_ZN7openpal5ArrayIhjED0Ev, @function
_ZN7openpal5ArrayIhjED0Ev:
.LFB9498:
	.cfi_startproc
	movq	_ZTVN7openpal5ArrayIhjEE@GOTPCREL(%rip), %rax
	pushq	%rbx
	.cfi_def_cfa_offset 16
	.cfi_offset 3, -16
	movq	%rdi, %rbx
	addq	$16, %rax
	movq	%rax, (%rdi)
	movq	16(%rdi), %rdi
	testq	%rdi, %rdi
	je	.L103
	call	_ZdaPv@PLT
.L103:
	movq	%rbx, %rdi
	movl	$24, %esi
	popq	%rbx
	.cfi_def_cfa_offset 8
	jmp	_ZdlPvm@PLT
	.cfi_endproc
.LFE9498:
	.size	_ZN7openpal5ArrayIhjED0Ev, .-_ZN7openpal5ArrayIhjED0Ev
	.section	.text._ZN7openpal5ArrayIN8opendnp34CellINS1_19TimeAndIntervalSpecEEEtED2Ev,"axG",@progbits,_ZN7openpal5ArrayIN8opendnp34CellINS1_19TimeAndIntervalSpecEEEtED5Ev,comdat
	.align 2
	.p2align 4,,15
	.weak	_ZN7openpal5ArrayIN8opendnp34CellINS1_19TimeAndIntervalSpecEEEtED2Ev
	.type	_ZN7openpal5ArrayIN8opendnp34CellINS1_19TimeAndIntervalSpecEEEtED2Ev, @function
_ZN7openpal5ArrayIN8opendnp34CellINS1_19TimeAndIntervalSpecEEEtED2Ev:
.LFB12927:
	.cfi_startproc
	movq	_ZTVN7openpal5ArrayIN8opendnp34CellINS1_19TimeAndIntervalSpecEEEtEE@GOTPCREL(%rip), %rax
	addq	$16, %rax
	movq	%rax, (%rdi)
	movq	16(%rdi), %rdi
	testq	%rdi, %rdi
	je	.L108
	jmp	_ZdaPv@PLT
	.p2align 4,,10
	.p2align 3
.L108:
	rep ret
	.cfi_endproc
.LFE12927:
	.size	_ZN7openpal5ArrayIN8opendnp34CellINS1_19TimeAndIntervalSpecEEEtED2Ev, .-_ZN7openpal5ArrayIN8opendnp34CellINS1_19TimeAndIntervalSpecEEEtED2Ev
	.weak	_ZN7openpal5ArrayIN8opendnp34CellINS1_19TimeAndIntervalSpecEEEtED1Ev
	.set	_ZN7openpal5ArrayIN8opendnp34CellINS1_19TimeAndIntervalSpecEEEtED1Ev,_ZN7openpal5ArrayIN8opendnp34CellINS1_19TimeAndIntervalSpecEEEtED2Ev
	.section	.text._ZN7openpal5ArrayIN8opendnp34CellINS1_19TimeAndIntervalSpecEEEtED0Ev,"axG",@progbits,_ZN7openpal5ArrayIN8opendnp34CellINS1_19TimeAndIntervalSpecEEEtED5Ev,comdat
	.align 2
	.p2align 4,,15
	.weak	_ZN7openpal5ArrayIN8opendnp34CellINS1_19TimeAndIntervalSpecEEEtED0Ev
	.type	_ZN7openpal5ArrayIN8opendnp34CellINS1_19TimeAndIntervalSpecEEEtED0Ev, @function
_ZN7openpal5ArrayIN8opendnp34CellINS1_19TimeAndIntervalSpecEEEtED0Ev:
.LFB12929:
	.cfi_startproc
	movq	_ZTVN7openpal5ArrayIN8opendnp34CellINS1_19TimeAndIntervalSpecEEEtEE@GOTPCREL(%rip), %rax
	pushq	%rbx
	.cfi_def_cfa_offset 16
	.cfi_offset 3, -16
	movq	%rdi, %rbx
	addq	$16, %rax
	movq	%rax, (%rdi)
	movq	16(%rdi), %rdi
	testq	%rdi, %rdi
	je	.L111
	call	_ZdaPv@PLT
.L111:
	movq	%rbx, %rdi
	movl	$24, %esi
	popq	%rbx
	.cfi_def_cfa_offset 8
	jmp	_ZdlPvm@PLT
	.cfi_endproc
.LFE12929:
	.size	_ZN7openpal5ArrayIN8opendnp34CellINS1_19TimeAndIntervalSpecEEEtED0Ev, .-_ZN7openpal5ArrayIN8opendnp34CellINS1_19TimeAndIntervalSpecEEEtED0Ev
	.section	.text._ZN7openpal5ArrayIN8opendnp34CellINS1_22AnalogOutputStatusSpecEEEtED2Ev,"axG",@progbits,_ZN7openpal5ArrayIN8opendnp34CellINS1_22AnalogOutputStatusSpecEEEtED5Ev,comdat
	.align 2
	.p2align 4,,15
	.weak	_ZN7openpal5ArrayIN8opendnp34CellINS1_22AnalogOutputStatusSpecEEEtED2Ev
	.type	_ZN7openpal5ArrayIN8opendnp34CellINS1_22AnalogOutputStatusSpecEEEtED2Ev, @function
_ZN7openpal5ArrayIN8opendnp34CellINS1_22AnalogOutputStatusSpecEEEtED2Ev:
.LFB12923:
	.cfi_startproc
	movq	_ZTVN7openpal5ArrayIN8opendnp34CellINS1_22AnalogOutputStatusSpecEEEtEE@GOTPCREL(%rip), %rax
	addq	$16, %rax
	movq	%rax, (%rdi)
	movq	16(%rdi), %rdi
	testq	%rdi, %rdi
	je	.L116
	jmp	_ZdaPv@PLT
	.p2align 4,,10
	.p2align 3
.L116:
	rep ret
	.cfi_endproc
.LFE12923:
	.size	_ZN7openpal5ArrayIN8opendnp34CellINS1_22AnalogOutputStatusSpecEEEtED2Ev, .-_ZN7openpal5ArrayIN8opendnp34CellINS1_22AnalogOutputStatusSpecEEEtED2Ev
	.weak	_ZN7openpal5ArrayIN8opendnp34CellINS1_22AnalogOutputStatusSpecEEEtED1Ev
	.set	_ZN7openpal5ArrayIN8opendnp34CellINS1_22AnalogOutputStatusSpecEEEtED1Ev,_ZN7openpal5ArrayIN8opendnp34CellINS1_22AnalogOutputStatusSpecEEEtED2Ev
	.section	.text._ZN7openpal5ArrayIN8opendnp34CellINS1_22AnalogOutputStatusSpecEEEtED0Ev,"axG",@progbits,_ZN7openpal5ArrayIN8opendnp34CellINS1_22AnalogOutputStatusSpecEEEtED5Ev,comdat
	.align 2
	.p2align 4,,15
	.weak	_ZN7openpal5ArrayIN8opendnp34CellINS1_22AnalogOutputStatusSpecEEEtED0Ev
	.type	_ZN7openpal5ArrayIN8opendnp34CellINS1_22AnalogOutputStatusSpecEEEtED0Ev, @function
_ZN7openpal5ArrayIN8opendnp34CellINS1_22AnalogOutputStatusSpecEEEtED0Ev:
.LFB12925:
	.cfi_startproc
	movq	_ZTVN7openpal5ArrayIN8opendnp34CellINS1_22AnalogOutputStatusSpecEEEtEE@GOTPCREL(%rip), %rax
	pushq	%rbx
	.cfi_def_cfa_offset 16
	.cfi_offset 3, -16
	movq	%rdi, %rbx
	addq	$16, %rax
	movq	%rax, (%rdi)
	movq	16(%rdi), %rdi
	testq	%rdi, %rdi
	je	.L119
	call	_ZdaPv@PLT
.L119:
	movq	%rbx, %rdi
	movl	$24, %esi
	popq	%rbx
	.cfi_def_cfa_offset 8
	jmp	_ZdlPvm@PLT
	.cfi_endproc
.LFE12925:
	.size	_ZN7openpal5ArrayIN8opendnp34CellINS1_22AnalogOutputStatusSpecEEEtED0Ev, .-_ZN7openpal5ArrayIN8opendnp34CellINS1_22AnalogOutputStatusSpecEEEtED0Ev
	.section	.text._ZN7openpal5ArrayIN8opendnp34CellINS1_22BinaryOutputStatusSpecEEEtED2Ev,"axG",@progbits,_ZN7openpal5ArrayIN8opendnp34CellINS1_22BinaryOutputStatusSpecEEEtED5Ev,comdat
	.align 2
	.p2align 4,,15
	.weak	_ZN7openpal5ArrayIN8opendnp34CellINS1_22BinaryOutputStatusSpecEEEtED2Ev
	.type	_ZN7openpal5ArrayIN8opendnp34CellINS1_22BinaryOutputStatusSpecEEEtED2Ev, @function
_ZN7openpal5ArrayIN8opendnp34CellINS1_22BinaryOutputStatusSpecEEEtED2Ev:
.LFB12919:
	.cfi_startproc
	movq	_ZTVN7openpal5ArrayIN8opendnp34CellINS1_22BinaryOutputStatusSpecEEEtEE@GOTPCREL(%rip), %rax
	addq	$16, %rax
	movq	%rax, (%rdi)
	movq	16(%rdi), %rdi
	testq	%rdi, %rdi
	je	.L124
	jmp	_ZdaPv@PLT
	.p2align 4,,10
	.p2align 3
.L124:
	rep ret
	.cfi_endproc
.LFE12919:
	.size	_ZN7openpal5ArrayIN8opendnp34CellINS1_22BinaryOutputStatusSpecEEEtED2Ev, .-_ZN7openpal5ArrayIN8opendnp34CellINS1_22BinaryOutputStatusSpecEEEtED2Ev
	.weak	_ZN7openpal5ArrayIN8opendnp34CellINS1_22BinaryOutputStatusSpecEEEtED1Ev
	.set	_ZN7openpal5ArrayIN8opendnp34CellINS1_22BinaryOutputStatusSpecEEEtED1Ev,_ZN7openpal5ArrayIN8opendnp34CellINS1_22BinaryOutputStatusSpecEEEtED2Ev
	.section	.text._ZN7openpal5ArrayIN8opendnp34CellINS1_22BinaryOutputStatusSpecEEEtED0Ev,"axG",@progbits,_ZN7openpal5ArrayIN8opendnp34CellINS1_22BinaryOutputStatusSpecEEEtED5Ev,comdat
	.align 2
	.p2align 4,,15
	.weak	_ZN7openpal5ArrayIN8opendnp34CellINS1_22BinaryOutputStatusSpecEEEtED0Ev
	.type	_ZN7openpal5ArrayIN8opendnp34CellINS1_22BinaryOutputStatusSpecEEEtED0Ev, @function
_ZN7openpal5ArrayIN8opendnp34CellINS1_22BinaryOutputStatusSpecEEEtED0Ev:
.LFB12921:
	.cfi_startproc
	movq	_ZTVN7openpal5ArrayIN8opendnp34CellINS1_22BinaryOutputStatusSpecEEEtEE@GOTPCREL(%rip), %rax
	pushq	%rbx
	.cfi_def_cfa_offset 16
	.cfi_offset 3, -16
	movq	%rdi, %rbx
	addq	$16, %rax
	movq	%rax, (%rdi)
	movq	16(%rdi), %rdi
	testq	%rdi, %rdi
	je	.L127
	call	_ZdaPv@PLT
.L127:
	movq	%rbx, %rdi
	movl	$24, %esi
	popq	%rbx
	.cfi_def_cfa_offset 8
	jmp	_ZdlPvm@PLT
	.cfi_endproc
.LFE12921:
	.size	_ZN7openpal5ArrayIN8opendnp34CellINS1_22BinaryOutputStatusSpecEEEtED0Ev, .-_ZN7openpal5ArrayIN8opendnp34CellINS1_22BinaryOutputStatusSpecEEEtED0Ev
	.section	.text._ZN7openpal5ArrayIN8opendnp34CellINS1_17FrozenCounterSpecEEEtED2Ev,"axG",@progbits,_ZN7openpal5ArrayIN8opendnp34CellINS1_17FrozenCounterSpecEEEtED5Ev,comdat
	.align 2
	.p2align 4,,15
	.weak	_ZN7openpal5ArrayIN8opendnp34CellINS1_17FrozenCounterSpecEEEtED2Ev
	.type	_ZN7openpal5ArrayIN8opendnp34CellINS1_17FrozenCounterSpecEEEtED2Ev, @function
_ZN7openpal5ArrayIN8opendnp34CellINS1_17FrozenCounterSpecEEEtED2Ev:
.LFB12915:
	.cfi_startproc
	movq	_ZTVN7openpal5ArrayIN8opendnp34CellINS1_17FrozenCounterSpecEEEtEE@GOTPCREL(%rip), %rax
	addq	$16, %rax
	movq	%rax, (%rdi)
	movq	16(%rdi), %rdi
	testq	%rdi, %rdi
	je	.L132
	jmp	_ZdaPv@PLT
	.p2align 4,,10
	.p2align 3
.L132:
	rep ret
	.cfi_endproc
.LFE12915:
	.size	_ZN7openpal5ArrayIN8opendnp34CellINS1_17FrozenCounterSpecEEEtED2Ev, .-_ZN7openpal5ArrayIN8opendnp34CellINS1_17FrozenCounterSpecEEEtED2Ev
	.weak	_ZN7openpal5ArrayIN8opendnp34CellINS1_17FrozenCounterSpecEEEtED1Ev
	.set	_ZN7openpal5ArrayIN8opendnp34CellINS1_17FrozenCounterSpecEEEtED1Ev,_ZN7openpal5ArrayIN8opendnp34CellINS1_17FrozenCounterSpecEEEtED2Ev
	.section	.text._ZN7openpal5ArrayIN8opendnp34CellINS1_17FrozenCounterSpecEEEtED0Ev,"axG",@progbits,_ZN7openpal5ArrayIN8opendnp34CellINS1_17FrozenCounterSpecEEEtED5Ev,comdat
	.align 2
	.p2align 4,,15
	.weak	_ZN7openpal5ArrayIN8opendnp34CellINS1_17FrozenCounterSpecEEEtED0Ev
	.type	_ZN7openpal5ArrayIN8opendnp34CellINS1_17FrozenCounterSpecEEEtED0Ev, @function
_ZN7openpal5ArrayIN8opendnp34CellINS1_17FrozenCounterSpecEEEtED0Ev:
.LFB12917:
	.cfi_startproc
	movq	_ZTVN7openpal5ArrayIN8opendnp34CellINS1_17FrozenCounterSpecEEEtEE@GOTPCREL(%rip), %rax
	pushq	%rbx
	.cfi_def_cfa_offset 16
	.cfi_offset 3, -16
	movq	%rdi, %rbx
	addq	$16, %rax
	movq	%rax, (%rdi)
	movq	16(%rdi), %rdi
	testq	%rdi, %rdi
	je	.L135
	call	_ZdaPv@PLT
.L135:
	movq	%rbx, %rdi
	movl	$24, %esi
	popq	%rbx
	.cfi_def_cfa_offset 8
	jmp	_ZdlPvm@PLT
	.cfi_endproc
.LFE12917:
	.size	_ZN7openpal5ArrayIN8opendnp34CellINS1_17FrozenCounterSpecEEEtED0Ev, .-_ZN7openpal5ArrayIN8opendnp34CellINS1_17FrozenCounterSpecEEEtED0Ev
	.section	.text._ZN7openpal5ArrayIN8opendnp34CellINS1_11CounterSpecEEEtED2Ev,"axG",@progbits,_ZN7openpal5ArrayIN8opendnp34CellINS1_11CounterSpecEEEtED5Ev,comdat
	.align 2
	.p2align 4,,15
	.weak	_ZN7openpal5ArrayIN8opendnp34CellINS1_11CounterSpecEEEtED2Ev
	.type	_ZN7openpal5ArrayIN8opendnp34CellINS1_11CounterSpecEEEtED2Ev, @function
_ZN7openpal5ArrayIN8opendnp34CellINS1_11CounterSpecEEEtED2Ev:
.LFB12911:
	.cfi_startproc
	movq	_ZTVN7openpal5ArrayIN8opendnp34CellINS1_11CounterSpecEEEtEE@GOTPCREL(%rip), %rax
	addq	$16, %rax
	movq	%rax, (%rdi)
	movq	16(%rdi), %rdi
	testq	%rdi, %rdi
	je	.L140
	jmp	_ZdaPv@PLT
	.p2align 4,,10
	.p2align 3
.L140:
	rep ret
	.cfi_endproc
.LFE12911:
	.size	_ZN7openpal5ArrayIN8opendnp34CellINS1_11CounterSpecEEEtED2Ev, .-_ZN7openpal5ArrayIN8opendnp34CellINS1_11CounterSpecEEEtED2Ev
	.weak	_ZN7openpal5ArrayIN8opendnp34CellINS1_11CounterSpecEEEtED1Ev
	.set	_ZN7openpal5ArrayIN8opendnp34CellINS1_11CounterSpecEEEtED1Ev,_ZN7openpal5ArrayIN8opendnp34CellINS1_11CounterSpecEEEtED2Ev
	.section	.text._ZN7openpal5ArrayIN8opendnp34CellINS1_11CounterSpecEEEtED0Ev,"axG",@progbits,_ZN7openpal5ArrayIN8opendnp34CellINS1_11CounterSpecEEEtED5Ev,comdat
	.align 2
	.p2align 4,,15
	.weak	_ZN7openpal5ArrayIN8opendnp34CellINS1_11CounterSpecEEEtED0Ev
	.type	_ZN7openpal5ArrayIN8opendnp34CellINS1_11CounterSpecEEEtED0Ev, @function
_ZN7openpal5ArrayIN8opendnp34CellINS1_11CounterSpecEEEtED0Ev:
.LFB12913:
	.cfi_startproc
	movq	_ZTVN7openpal5ArrayIN8opendnp34CellINS1_11CounterSpecEEEtEE@GOTPCREL(%rip), %rax
	pushq	%rbx
	.cfi_def_cfa_offset 16
	.cfi_offset 3, -16
	movq	%rdi, %rbx
	addq	$16, %rax
	movq	%rax, (%rdi)
	movq	16(%rdi), %rdi
	testq	%rdi, %rdi
	je	.L143
	call	_ZdaPv@PLT
.L143:
	movq	%rbx, %rdi
	movl	$24, %esi
	popq	%rbx
	.cfi_def_cfa_offset 8
	jmp	_ZdlPvm@PLT
	.cfi_endproc
.LFE12913:
	.size	_ZN7openpal5ArrayIN8opendnp34CellINS1_11CounterSpecEEEtED0Ev, .-_ZN7openpal5ArrayIN8opendnp34CellINS1_11CounterSpecEEEtED0Ev
	.section	.text._ZN7openpal5ArrayIN8opendnp34CellINS1_10AnalogSpecEEEtED2Ev,"axG",@progbits,_ZN7openpal5ArrayIN8opendnp34CellINS1_10AnalogSpecEEEtED5Ev,comdat
	.align 2
	.p2align 4,,15
	.weak	_ZN7openpal5ArrayIN8opendnp34CellINS1_10AnalogSpecEEEtED2Ev
	.type	_ZN7openpal5ArrayIN8opendnp34CellINS1_10AnalogSpecEEEtED2Ev, @function
_ZN7openpal5ArrayIN8opendnp34CellINS1_10AnalogSpecEEEtED2Ev:
.LFB12907:
	.cfi_startproc
	movq	_ZTVN7openpal5ArrayIN8opendnp34CellINS1_10AnalogSpecEEEtEE@GOTPCREL(%rip), %rax
	addq	$16, %rax
	movq	%rax, (%rdi)
	movq	16(%rdi), %rdi
	testq	%rdi, %rdi
	je	.L148
	jmp	_ZdaPv@PLT
	.p2align 4,,10
	.p2align 3
.L148:
	rep ret
	.cfi_endproc
.LFE12907:
	.size	_ZN7openpal5ArrayIN8opendnp34CellINS1_10AnalogSpecEEEtED2Ev, .-_ZN7openpal5ArrayIN8opendnp34CellINS1_10AnalogSpecEEEtED2Ev
	.weak	_ZN7openpal5ArrayIN8opendnp34CellINS1_10AnalogSpecEEEtED1Ev
	.set	_ZN7openpal5ArrayIN8opendnp34CellINS1_10AnalogSpecEEEtED1Ev,_ZN7openpal5ArrayIN8opendnp34CellINS1_10AnalogSpecEEEtED2Ev
	.section	.text._ZN7openpal5ArrayIN8opendnp34CellINS1_10AnalogSpecEEEtED0Ev,"axG",@progbits,_ZN7openpal5ArrayIN8opendnp34CellINS1_10AnalogSpecEEEtED5Ev,comdat
	.align 2
	.p2align 4,,15
	.weak	_ZN7openpal5ArrayIN8opendnp34CellINS1_10AnalogSpecEEEtED0Ev
	.type	_ZN7openpal5ArrayIN8opendnp34CellINS1_10AnalogSpecEEEtED0Ev, @function
_ZN7openpal5ArrayIN8opendnp34CellINS1_10AnalogSpecEEEtED0Ev:
.LFB12909:
	.cfi_startproc
	movq	_ZTVN7openpal5ArrayIN8opendnp34CellINS1_10AnalogSpecEEEtEE@GOTPCREL(%rip), %rax
	pushq	%rbx
	.cfi_def_cfa_offset 16
	.cfi_offset 3, -16
	movq	%rdi, %rbx
	addq	$16, %rax
	movq	%rax, (%rdi)
	movq	16(%rdi), %rdi
	testq	%rdi, %rdi
	je	.L151
	call	_ZdaPv@PLT
.L151:
	movq	%rbx, %rdi
	movl	$24, %esi
	popq	%rbx
	.cfi_def_cfa_offset 8
	jmp	_ZdlPvm@PLT
	.cfi_endproc
.LFE12909:
	.size	_ZN7openpal5ArrayIN8opendnp34CellINS1_10AnalogSpecEEEtED0Ev, .-_ZN7openpal5ArrayIN8opendnp34CellINS1_10AnalogSpecEEEtED0Ev
	.section	.text._ZN7openpal5ArrayIN8opendnp34CellINS1_19DoubleBitBinarySpecEEEtED2Ev,"axG",@progbits,_ZN7openpal5ArrayIN8opendnp34CellINS1_19DoubleBitBinarySpecEEEtED5Ev,comdat
	.align 2
	.p2align 4,,15
	.weak	_ZN7openpal5ArrayIN8opendnp34CellINS1_19DoubleBitBinarySpecEEEtED2Ev
	.type	_ZN7openpal5ArrayIN8opendnp34CellINS1_19DoubleBitBinarySpecEEEtED2Ev, @function
_ZN7openpal5ArrayIN8opendnp34CellINS1_19DoubleBitBinarySpecEEEtED2Ev:
.LFB12903:
	.cfi_startproc
	movq	_ZTVN7openpal5ArrayIN8opendnp34CellINS1_19DoubleBitBinarySpecEEEtEE@GOTPCREL(%rip), %rax
	addq	$16, %rax
	movq	%rax, (%rdi)
	movq	16(%rdi), %rdi
	testq	%rdi, %rdi
	je	.L156
	jmp	_ZdaPv@PLT
	.p2align 4,,10
	.p2align 3
.L156:
	rep ret
	.cfi_endproc
.LFE12903:
	.size	_ZN7openpal5ArrayIN8opendnp34CellINS1_19DoubleBitBinarySpecEEEtED2Ev, .-_ZN7openpal5ArrayIN8opendnp34CellINS1_19DoubleBitBinarySpecEEEtED2Ev
	.weak	_ZN7openpal5ArrayIN8opendnp34CellINS1_19DoubleBitBinarySpecEEEtED1Ev
	.set	_ZN7openpal5ArrayIN8opendnp34CellINS1_19DoubleBitBinarySpecEEEtED1Ev,_ZN7openpal5ArrayIN8opendnp34CellINS1_19DoubleBitBinarySpecEEEtED2Ev
	.section	.text._ZN7openpal5ArrayIN8opendnp34CellINS1_19DoubleBitBinarySpecEEEtED0Ev,"axG",@progbits,_ZN7openpal5ArrayIN8opendnp34CellINS1_19DoubleBitBinarySpecEEEtED5Ev,comdat
	.align 2
	.p2align 4,,15
	.weak	_ZN7openpal5ArrayIN8opendnp34CellINS1_19DoubleBitBinarySpecEEEtED0Ev
	.type	_ZN7openpal5ArrayIN8opendnp34CellINS1_19DoubleBitBinarySpecEEEtED0Ev, @function
_ZN7openpal5ArrayIN8opendnp34CellINS1_19DoubleBitBinarySpecEEEtED0Ev:
.LFB12905:
	.cfi_startproc
	movq	_ZTVN7openpal5ArrayIN8opendnp34CellINS1_19DoubleBitBinarySpecEEEtEE@GOTPCREL(%rip), %rax
	pushq	%rbx
	.cfi_def_cfa_offset 16
	.cfi_offset 3, -16
	movq	%rdi, %rbx
	addq	$16, %rax
	movq	%rax, (%rdi)
	movq	16(%rdi), %rdi
	testq	%rdi, %rdi
	je	.L159
	call	_ZdaPv@PLT
.L159:
	movq	%rbx, %rdi
	movl	$24, %esi
	popq	%rbx
	.cfi_def_cfa_offset 8
	jmp	_ZdlPvm@PLT
	.cfi_endproc
.LFE12905:
	.size	_ZN7openpal5ArrayIN8opendnp34CellINS1_19DoubleBitBinarySpecEEEtED0Ev, .-_ZN7openpal5ArrayIN8opendnp34CellINS1_19DoubleBitBinarySpecEEEtED0Ev
	.section	.text._ZN7openpal5ArrayIN8opendnp34CellINS1_10BinarySpecEEEtED2Ev,"axG",@progbits,_ZN7openpal5ArrayIN8opendnp34CellINS1_10BinarySpecEEEtED5Ev,comdat
	.align 2
	.p2align 4,,15
	.weak	_ZN7openpal5ArrayIN8opendnp34CellINS1_10BinarySpecEEEtED2Ev
	.type	_ZN7openpal5ArrayIN8opendnp34CellINS1_10BinarySpecEEEtED2Ev, @function
_ZN7openpal5ArrayIN8opendnp34CellINS1_10BinarySpecEEEtED2Ev:
.LFB12899:
	.cfi_startproc
	movq	_ZTVN7openpal5ArrayIN8opendnp34CellINS1_10BinarySpecEEEtEE@GOTPCREL(%rip), %rax
	addq	$16, %rax
	movq	%rax, (%rdi)
	movq	16(%rdi), %rdi
	testq	%rdi, %rdi
	je	.L164
	jmp	_ZdaPv@PLT
	.p2align 4,,10
	.p2align 3
.L164:
	rep ret
	.cfi_endproc
.LFE12899:
	.size	_ZN7openpal5ArrayIN8opendnp34CellINS1_10BinarySpecEEEtED2Ev, .-_ZN7openpal5ArrayIN8opendnp34CellINS1_10BinarySpecEEEtED2Ev
	.weak	_ZN7openpal5ArrayIN8opendnp34CellINS1_10BinarySpecEEEtED1Ev
	.set	_ZN7openpal5ArrayIN8opendnp34CellINS1_10BinarySpecEEEtED1Ev,_ZN7openpal5ArrayIN8opendnp34CellINS1_10BinarySpecEEEtED2Ev
	.section	.text._ZN7openpal5ArrayIN8opendnp34CellINS1_10BinarySpecEEEtED0Ev,"axG",@progbits,_ZN7openpal5ArrayIN8opendnp34CellINS1_10BinarySpecEEEtED5Ev,comdat
	.align 2
	.p2align 4,,15
	.weak	_ZN7openpal5ArrayIN8opendnp34CellINS1_10BinarySpecEEEtED0Ev
	.type	_ZN7openpal5ArrayIN8opendnp34CellINS1_10BinarySpecEEEtED0Ev, @function
_ZN7openpal5ArrayIN8opendnp34CellINS1_10BinarySpecEEEtED0Ev:
.LFB12901:
	.cfi_startproc
	movq	_ZTVN7openpal5ArrayIN8opendnp34CellINS1_10BinarySpecEEEtEE@GOTPCREL(%rip), %rax
	pushq	%rbx
	.cfi_def_cfa_offset 16
	.cfi_offset 3, -16
	movq	%rdi, %rbx
	addq	$16, %rax
	movq	%rax, (%rdi)
	movq	16(%rdi), %rdi
	testq	%rdi, %rdi
	je	.L167
	call	_ZdaPv@PLT
.L167:
	movq	%rbx, %rdi
	movl	$24, %esi
	popq	%rbx
	.cfi_def_cfa_offset 8
	jmp	_ZdlPvm@PLT
	.cfi_endproc
.LFE12901:
	.size	_ZN7openpal5ArrayIN8opendnp34CellINS1_10BinarySpecEEEtED0Ev, .-_ZN7openpal5ArrayIN8opendnp34CellINS1_10BinarySpecEEEtED0Ev
	.section	.text._ZN7openpal5ArrayINS_8ListNodeIN8opendnp39SOERecordEEEjED2Ev,"axG",@progbits,_ZN7openpal5ArrayINS_8ListNodeIN8opendnp39SOERecordEEEjED5Ev,comdat
	.align 2
	.p2align 4,,15
	.weak	_ZN7openpal5ArrayINS_8ListNodeIN8opendnp39SOERecordEEEjED2Ev
	.type	_ZN7openpal5ArrayINS_8ListNodeIN8opendnp39SOERecordEEEjED2Ev, @function
_ZN7openpal5ArrayINS_8ListNodeIN8opendnp39SOERecordEEEjED2Ev:
.LFB12895:
	.cfi_startproc
	movq	_ZTVN7openpal5ArrayINS_8ListNodeIN8opendnp39SOERecordEEEjEE@GOTPCREL(%rip), %rax
	addq	$16, %rax
	movq	%rax, (%rdi)
	movq	16(%rdi), %rdi
	testq	%rdi, %rdi
	je	.L172
	jmp	_ZdaPv@PLT
	.p2align 4,,10
	.p2align 3
.L172:
	rep ret
	.cfi_endproc
.LFE12895:
	.size	_ZN7openpal5ArrayINS_8ListNodeIN8opendnp39SOERecordEEEjED2Ev, .-_ZN7openpal5ArrayINS_8ListNodeIN8opendnp39SOERecordEEEjED2Ev
	.weak	_ZN7openpal5ArrayINS_8ListNodeIN8opendnp39SOERecordEEEjED1Ev
	.set	_ZN7openpal5ArrayINS_8ListNodeIN8opendnp39SOERecordEEEjED1Ev,_ZN7openpal5ArrayINS_8ListNodeIN8opendnp39SOERecordEEEjED2Ev
	.section	.text._ZN7openpal5ArrayINS_8ListNodeIN8opendnp39SOERecordEEEjED0Ev,"axG",@progbits,_ZN7openpal5ArrayINS_8ListNodeIN8opendnp39SOERecordEEEjED5Ev,comdat
	.align 2
	.p2align 4,,15
	.weak	_ZN7openpal5ArrayINS_8ListNodeIN8opendnp39SOERecordEEEjED0Ev
	.type	_ZN7openpal5ArrayINS_8ListNodeIN8opendnp39SOERecordEEEjED0Ev, @function
_ZN7openpal5ArrayINS_8ListNodeIN8opendnp39SOERecordEEEjED0Ev:
.LFB12897:
	.cfi_startproc
	movq	_ZTVN7openpal5ArrayINS_8ListNodeIN8opendnp39SOERecordEEEjEE@GOTPCREL(%rip), %rax
	pushq	%rbx
	.cfi_def_cfa_offset 16
	.cfi_offset 3, -16
	movq	%rdi, %rbx
	addq	$16, %rax
	movq	%rax, (%rdi)
	movq	16(%rdi), %rdi
	testq	%rdi, %rdi
	je	.L175
	call	_ZdaPv@PLT
.L175:
	movq	%rbx, %rdi
	movl	$24, %esi
	popq	%rbx
	.cfi_def_cfa_offset 8
	jmp	_ZdlPvm@PLT
	.cfi_endproc
.LFE12897:
	.size	_ZN7openpal5ArrayINS_8ListNodeIN8opendnp39SOERecordEEEjED0Ev, .-_ZN7openpal5ArrayINS_8ListNodeIN8opendnp39SOERecordEEEjED0Ev
	.section	.text._ZNSt23_Sp_counted_ptr_inplaceIN8asiodnp315OutstationStackESaIS1_ELN9__gnu_cxx12_Lock_policyE2EE10_M_destroyEv,"axG",@progbits,_ZNSt23_Sp_counted_ptr_inplaceIN8asiodnp315OutstationStackESaIS1_ELN9__gnu_cxx12_Lock_policyE2EE10_M_destroyEv,comdat
	.align 2
	.p2align 4,,15
	.weak	_ZNSt23_Sp_counted_ptr_inplaceIN8asiodnp315OutstationStackESaIS1_ELN9__gnu_cxx12_Lock_policyE2EE10_M_destroyEv
	.type	_ZNSt23_Sp_counted_ptr_inplaceIN8asiodnp315OutstationStackESaIS1_ELN9__gnu_cxx12_Lock_policyE2EE10_M_destroyEv, @function
_ZNSt23_Sp_counted_ptr_inplaceIN8asiodnp315OutstationStackESaIS1_ELN9__gnu_cxx12_Lock_policyE2EE10_M_destroyEv:
.LFB12596:
	.cfi_startproc
	jmp	_ZdlPv@PLT
	.cfi_endproc
.LFE12596:
	.size	_ZNSt23_Sp_counted_ptr_inplaceIN8asiodnp315OutstationStackESaIS1_ELN9__gnu_cxx12_Lock_policyE2EE10_M_destroyEv, .-_ZNSt23_Sp_counted_ptr_inplaceIN8asiodnp315OutstationStackESaIS1_ELN9__gnu_cxx12_Lock_policyE2EE10_M_destroyEv
	.section	.text._ZNSt23_Sp_counted_ptr_inplaceIN8asiodnp311MasterStackESaIS1_ELN9__gnu_cxx12_Lock_policyE2EE10_M_destroyEv,"axG",@progbits,_ZNSt23_Sp_counted_ptr_inplaceIN8asiodnp311MasterStackESaIS1_ELN9__gnu_cxx12_Lock_policyE2EE10_M_destroyEv,comdat
	.align 2
	.p2align 4,,15
	.weak	_ZNSt23_Sp_counted_ptr_inplaceIN8asiodnp311MasterStackESaIS1_ELN9__gnu_cxx12_Lock_policyE2EE10_M_destroyEv
	.type	_ZNSt23_Sp_counted_ptr_inplaceIN8asiodnp311MasterStackESaIS1_ELN9__gnu_cxx12_Lock_policyE2EE10_M_destroyEv, @function
_ZNSt23_Sp_counted_ptr_inplaceIN8asiodnp311MasterStackESaIS1_ELN9__gnu_cxx12_Lock_policyE2EE10_M_destroyEv:
.LFB12603:
	.cfi_startproc
	jmp	_ZdlPv@PLT
	.cfi_endproc
.LFE12603:
	.size	_ZNSt23_Sp_counted_ptr_inplaceIN8asiodnp311MasterStackESaIS1_ELN9__gnu_cxx12_Lock_policyE2EE10_M_destroyEv, .-_ZNSt23_Sp_counted_ptr_inplaceIN8asiodnp311MasterStackESaIS1_ELN9__gnu_cxx12_Lock_policyE2EE10_M_destroyEv
	.section	.text._ZNSt23_Sp_counted_ptr_inplaceIN7asiopal15ResourceManagerESaIS1_ELN9__gnu_cxx12_Lock_policyE2EE10_M_destroyEv,"axG",@progbits,_ZNSt23_Sp_counted_ptr_inplaceIN7asiopal15ResourceManagerESaIS1_ELN9__gnu_cxx12_Lock_policyE2EE10_M_destroyEv,comdat
	.align 2
	.p2align 4,,15
	.weak	_ZNSt23_Sp_counted_ptr_inplaceIN7asiopal15ResourceManagerESaIS1_ELN9__gnu_cxx12_Lock_policyE2EE10_M_destroyEv
	.type	_ZNSt23_Sp_counted_ptr_inplaceIN7asiopal15ResourceManagerESaIS1_ELN9__gnu_cxx12_Lock_policyE2EE10_M_destroyEv, @function
_ZNSt23_Sp_counted_ptr_inplaceIN7asiopal15ResourceManagerESaIS1_ELN9__gnu_cxx12_Lock_policyE2EE10_M_destroyEv:
.LFB12624:
	.cfi_startproc
	jmp	_ZdlPv@PLT
	.cfi_endproc
.LFE12624:
	.size	_ZNSt23_Sp_counted_ptr_inplaceIN7asiopal15ResourceManagerESaIS1_ELN9__gnu_cxx12_Lock_policyE2EE10_M_destroyEv, .-_ZNSt23_Sp_counted_ptr_inplaceIN7asiopal15ResourceManagerESaIS1_ELN9__gnu_cxx12_Lock_policyE2EE10_M_destroyEv
	.section	.text._ZNSt23_Sp_counted_ptr_inplaceINSt13__future_base13_State_baseV2ESaIS1_ELN9__gnu_cxx12_Lock_policyE2EE10_M_destroyEv,"axG",@progbits,_ZNSt23_Sp_counted_ptr_inplaceINSt13__future_base13_State_baseV2ESaIS1_ELN9__gnu_cxx12_Lock_policyE2EE10_M_destroyEv,comdat
	.align 2
	.p2align 4,,15
	.weak	_ZNSt23_Sp_counted_ptr_inplaceINSt13__future_base13_State_baseV2ESaIS1_ELN9__gnu_cxx12_Lock_policyE2EE10_M_destroyEv
	.type	_ZNSt23_Sp_counted_ptr_inplaceINSt13__future_base13_State_baseV2ESaIS1_ELN9__gnu_cxx12_Lock_policyE2EE10_M_destroyEv, @function
_ZNSt23_Sp_counted_ptr_inplaceINSt13__future_base13_State_baseV2ESaIS1_ELN9__gnu_cxx12_Lock_policyE2EE10_M_destroyEv:
.LFB12638:
	.cfi_startproc
	jmp	_ZdlPv@PLT
	.cfi_endproc
.LFE12638:
	.size	_ZNSt23_Sp_counted_ptr_inplaceINSt13__future_base13_State_baseV2ESaIS1_ELN9__gnu_cxx12_Lock_policyE2EE10_M_destroyEv, .-_ZNSt23_Sp_counted_ptr_inplaceINSt13__future_base13_State_baseV2ESaIS1_ELN9__gnu_cxx12_Lock_policyE2EE10_M_destroyEv
	.section	.text._ZNSt23_Sp_counted_ptr_inplaceIN7openpal6Logger8SettingsESaIS2_ELN9__gnu_cxx12_Lock_policyE2EE10_M_destroyEv,"axG",@progbits,_ZNSt23_Sp_counted_ptr_inplaceIN7openpal6Logger8SettingsESaIS2_ELN9__gnu_cxx12_Lock_policyE2EE10_M_destroyEv,comdat
	.align 2
	.p2align 4,,15
	.weak	_ZNSt23_Sp_counted_ptr_inplaceIN7openpal6Logger8SettingsESaIS2_ELN9__gnu_cxx12_Lock_policyE2EE10_M_destroyEv
	.type	_ZNSt23_Sp_counted_ptr_inplaceIN7openpal6Logger8SettingsESaIS2_ELN9__gnu_cxx12_Lock_policyE2EE10_M_destroyEv, @function
_ZNSt23_Sp_counted_ptr_inplaceIN7openpal6Logger8SettingsESaIS2_ELN9__gnu_cxx12_Lock_policyE2EE10_M_destroyEv:
.LFB12652:
	.cfi_startproc
	jmp	_ZdlPv@PLT
	.cfi_endproc
.LFE12652:
	.size	_ZNSt23_Sp_counted_ptr_inplaceIN7openpal6Logger8SettingsESaIS2_ELN9__gnu_cxx12_Lock_policyE2EE10_M_destroyEv, .-_ZNSt23_Sp_counted_ptr_inplaceIN7openpal6Logger8SettingsESaIS2_ELN9__gnu_cxx12_Lock_policyE2EE10_M_destroyEv
	.section	.text._ZNSt23_Sp_counted_ptr_inplaceIN7openpal6Logger8SettingsESaIS2_ELN9__gnu_cxx12_Lock_policyE2EE10_M_disposeEv,"axG",@progbits,_ZNSt23_Sp_counted_ptr_inplaceIN7openpal6Logger8SettingsESaIS2_ELN9__gnu_cxx12_Lock_policyE2EE10_M_disposeEv,comdat
	.align 2
	.p2align 4,,15
	.weak	_ZNSt23_Sp_counted_ptr_inplaceIN7openpal6Logger8SettingsESaIS2_ELN9__gnu_cxx12_Lock_policyE2EE10_M_disposeEv
	.type	_ZNSt23_Sp_counted_ptr_inplaceIN7openpal6Logger8SettingsESaIS2_ELN9__gnu_cxx12_Lock_policyE2EE10_M_disposeEv, @function
_ZNSt23_Sp_counted_ptr_inplaceIN7openpal6Logger8SettingsESaIS2_ELN9__gnu_cxx12_Lock_policyE2EE10_M_disposeEv:
.LFB12651:
	.cfi_startproc
	movq	16(%rdi), %rdx
	leaq	32(%rdi), %rax
	cmpq	%rax, %rdx
	je	.L185
	movq	%rdx, %rdi
	jmp	_ZdlPv@PLT
	.p2align 4,,10
	.p2align 3
.L185:
	rep ret
	.cfi_endproc
.LFE12651:
	.size	_ZNSt23_Sp_counted_ptr_inplaceIN7openpal6Logger8SettingsESaIS2_ELN9__gnu_cxx12_Lock_policyE2EE10_M_disposeEv, .-_ZNSt23_Sp_counted_ptr_inplaceIN7openpal6Logger8SettingsESaIS2_ELN9__gnu_cxx12_Lock_policyE2EE10_M_disposeEv
	.section	.text._ZNSt13__future_base7_ResultIN8opendnp314LinkStatisticsEED2Ev,"axG",@progbits,_ZNSt13__future_base7_ResultIN8opendnp314LinkStatisticsEED5Ev,comdat
	.align 2
	.p2align 4,,15
	.weak	_ZNSt13__future_base7_ResultIN8opendnp314LinkStatisticsEED2Ev
	.type	_ZNSt13__future_base7_ResultIN8opendnp314LinkStatisticsEED2Ev, @function
_ZNSt13__future_base7_ResultIN8opendnp314LinkStatisticsEED2Ev:
.LFB12680:
	.cfi_startproc
	movq	_ZTVNSt13__future_base7_ResultIN8opendnp314LinkStatisticsEEE@GOTPCREL(%rip), %rax
	addq	$16, %rax
	movq	%rax, (%rdi)
	jmp	_ZNSt13__future_base12_Result_baseD2Ev@PLT
	.cfi_endproc
.LFE12680:
	.size	_ZNSt13__future_base7_ResultIN8opendnp314LinkStatisticsEED2Ev, .-_ZNSt13__future_base7_ResultIN8opendnp314LinkStatisticsEED2Ev
	.weak	_ZNSt13__future_base7_ResultIN8opendnp314LinkStatisticsEED1Ev
	.set	_ZNSt13__future_base7_ResultIN8opendnp314LinkStatisticsEED1Ev,_ZNSt13__future_base7_ResultIN8opendnp314LinkStatisticsEED2Ev
	.section	.text._ZNSt13__future_base7_ResultIN8opendnp314LinkStatisticsEED0Ev,"axG",@progbits,_ZNSt13__future_base7_ResultIN8opendnp314LinkStatisticsEED5Ev,comdat
	.align 2
	.p2align 4,,15
	.weak	_ZNSt13__future_base7_ResultIN8opendnp314LinkStatisticsEED0Ev
	.type	_ZNSt13__future_base7_ResultIN8opendnp314LinkStatisticsEED0Ev, @function
_ZNSt13__future_base7_ResultIN8opendnp314LinkStatisticsEED0Ev:
.LFB12682:
	.cfi_startproc
	movq	_ZTVNSt13__future_base7_ResultIN8opendnp314LinkStatisticsEEE@GOTPCREL(%rip), %rax
	pushq	%rbx
	.cfi_def_cfa_offset 16
	.cfi_offset 3, -16
	movq	%rdi, %rbx
	addq	$16, %rax
	movq	%rax, (%rdi)
	call	_ZNSt13__future_base12_Result_baseD2Ev@PLT
	movq	%rbx, %rdi
	movl	$72, %esi
	popq	%rbx
	.cfi_def_cfa_offset 8
	jmp	_ZdlPvm@PLT
	.cfi_endproc
.LFE12682:
	.size	_ZNSt13__future_base7_ResultIN8opendnp314LinkStatisticsEED0Ev, .-_ZNSt13__future_base7_ResultIN8opendnp314LinkStatisticsEED0Ev
	.section	.text._ZNSt13__future_base7_ResultIN7openpal10LogFiltersEED2Ev,"axG",@progbits,_ZNSt13__future_base7_ResultIN7openpal10LogFiltersEED5Ev,comdat
	.align 2
	.p2align 4,,15
	.weak	_ZNSt13__future_base7_ResultIN7openpal10LogFiltersEED2Ev
	.type	_ZNSt13__future_base7_ResultIN7openpal10LogFiltersEED2Ev, @function
_ZNSt13__future_base7_ResultIN7openpal10LogFiltersEED2Ev:
.LFB12675:
	.cfi_startproc
	movq	_ZTVNSt13__future_base7_ResultIN7openpal10LogFiltersEEE@GOTPCREL(%rip), %rax
	addq	$16, %rax
	movq	%rax, (%rdi)
	jmp	_ZNSt13__future_base12_Result_baseD2Ev@PLT
	.cfi_endproc
.LFE12675:
	.size	_ZNSt13__future_base7_ResultIN7openpal10LogFiltersEED2Ev, .-_ZNSt13__future_base7_ResultIN7openpal10LogFiltersEED2Ev
	.weak	_ZNSt13__future_base7_ResultIN7openpal10LogFiltersEED1Ev
	.set	_ZNSt13__future_base7_ResultIN7openpal10LogFiltersEED1Ev,_ZNSt13__future_base7_ResultIN7openpal10LogFiltersEED2Ev
	.section	.text._ZNSt13__future_base7_ResultIN7openpal10LogFiltersEED0Ev,"axG",@progbits,_ZNSt13__future_base7_ResultIN7openpal10LogFiltersEED5Ev,comdat
	.align 2
	.p2align 4,,15
	.weak	_ZNSt13__future_base7_ResultIN7openpal10LogFiltersEED0Ev
	.type	_ZNSt13__future_base7_ResultIN7openpal10LogFiltersEED0Ev, @function
_ZNSt13__future_base7_ResultIN7openpal10LogFiltersEED0Ev:
.LFB12677:
	.cfi_startproc
	movq	_ZTVNSt13__future_base7_ResultIN7openpal10LogFiltersEEE@GOTPCREL(%rip), %rax
	pushq	%rbx
	.cfi_def_cfa_offset 16
	.cfi_offset 3, -16
	movq	%rdi, %rbx
	addq	$16, %rax
	movq	%rax, (%rdi)
	call	_ZNSt13__future_base12_Result_baseD2Ev@PLT
	movq	%rbx, %rdi
	movl	$24, %esi
	popq	%rbx
	.cfi_def_cfa_offset 8
	jmp	_ZdlPvm@PLT
	.cfi_endproc
.LFE12677:
	.size	_ZNSt13__future_base7_ResultIN7openpal10LogFiltersEED0Ev, .-_ZNSt13__future_base7_ResultIN7openpal10LogFiltersEED0Ev
	.section	.text._ZNSt13__future_base7_ResultIbED2Ev,"axG",@progbits,_ZNSt13__future_base7_ResultIbED5Ev,comdat
	.align 2
	.p2align 4,,15
	.weak	_ZNSt13__future_base7_ResultIbED2Ev
	.type	_ZNSt13__future_base7_ResultIbED2Ev, @function
_ZNSt13__future_base7_ResultIbED2Ev:
.LFB12670:
	.cfi_startproc
	movq	_ZTVNSt13__future_base7_ResultIbEE@GOTPCREL(%rip), %rax
	addq	$16, %rax
	movq	%rax, (%rdi)
	jmp	_ZNSt13__future_base12_Result_baseD2Ev@PLT
	.cfi_endproc
.LFE12670:
	.size	_ZNSt13__future_base7_ResultIbED2Ev, .-_ZNSt13__future_base7_ResultIbED2Ev
	.weak	_ZNSt13__future_base7_ResultIbED1Ev
	.set	_ZNSt13__future_base7_ResultIbED1Ev,_ZNSt13__future_base7_ResultIbED2Ev
	.section	.text._ZNSt13__future_base7_ResultIbED0Ev,"axG",@progbits,_ZNSt13__future_base7_ResultIbED5Ev,comdat
	.align 2
	.p2align 4,,15
	.weak	_ZNSt13__future_base7_ResultIbED0Ev
	.type	_ZNSt13__future_base7_ResultIbED0Ev, @function
_ZNSt13__future_base7_ResultIbED0Ev:
.LFB12672:
	.cfi_startproc
	movq	_ZTVNSt13__future_base7_ResultIbEE@GOTPCREL(%rip), %rax
	pushq	%rbx
	.cfi_def_cfa_offset 16
	.cfi_offset 3, -16
	movq	%rdi, %rbx
	addq	$16, %rax
	movq	%rax, (%rdi)
	call	_ZNSt13__future_base12_Result_baseD2Ev@PLT
	movq	%rbx, %rdi
	movl	$24, %esi
	popq	%rbx
	.cfi_def_cfa_offset 8
	jmp	_ZdlPvm@PLT
	.cfi_endproc
.LFE12672:
	.size	_ZNSt13__future_base7_ResultIbED0Ev, .-_ZNSt13__future_base7_ResultIbED0Ev
	.section	.text._ZNSt13__future_base13_State_baseV29_M_do_setEPSt8functionIFSt10unique_ptrINS_12_Result_baseENS3_8_DeleterEEvEEPb,"axG",@progbits,_ZNSt13__future_base13_State_baseV29_M_do_setEPSt8functionIFSt10unique_ptrINS_12_Result_baseENS3_8_DeleterEEvEEPb,comdat
	.align 2
	.p2align 4,,15
	.weak	_ZNSt13__future_base13_State_baseV29_M_do_setEPSt8functionIFSt10unique_ptrINS_12_Result_baseENS3_8_DeleterEEvEEPb
	.type	_ZNSt13__future_base13_State_baseV29_M_do_setEPSt8functionIFSt10unique_ptrINS_12_Result_baseENS3_8_DeleterEEvEEPb, @function
_ZNSt13__future_base13_State_baseV29_M_do_setEPSt8functionIFSt10unique_ptrINS_12_Result_baseENS3_8_DeleterEEvEEPb:
.LFB7562:
	.cfi_startproc
	.cfi_personality 0x9b,DW.ref.__gxx_personality_v0
	.cfi_lsda 0x1b,.LLSDA7562
	pushq	%rbp
	.cfi_def_cfa_offset 16
	.cfi_offset 6, -16
	pushq	%rbx
	.cfi_def_cfa_offset 24
	.cfi_offset 3, -24
	subq	$24, %rsp
	.cfi_def_cfa_offset 48
	movq	%fs:40, %rcx
	movq	%rcx, 8(%rsp)
	xorl	%ecx, %ecx
	cmpq	$0, 16(%rsi)
	je	.L204
	movq	%rdi, %rbx
	movq	%rdx, %rbp
	movq	%rsp, %rdi
.LEHB0:
	call	*24(%rsi)
.LEHE0:
	movq	8(%rbx), %rdi
	movq	(%rsp), %rax
	movb	$1, 0(%rbp)
	testq	%rdi, %rdi
	movq	%rax, 8(%rbx)
	movq	%rdi, (%rsp)
	je	.L196
	movq	(%rdi), %rax
	call	*(%rax)
.L196:
	movq	8(%rsp), %rax
	xorq	%fs:40, %rax
	jne	.L205
	addq	$24, %rsp
	.cfi_remember_state
	.cfi_def_cfa_offset 24
	popq	%rbx
	.cfi_def_cfa_offset 16
	popq	%rbp
	.cfi_def_cfa_offset 8
	ret
.L204:
	.cfi_restore_state
.LEHB1:
	call	_ZSt25__throw_bad_function_callv@PLT
.LEHE1:
.L205:
	call	__stack_chk_fail@PLT
	.cfi_endproc
.LFE7562:
	.section	.gcc_except_table._ZNSt13__future_base13_State_baseV29_M_do_setEPSt8functionIFSt10unique_ptrINS_12_Result_baseENS3_8_DeleterEEvEEPb,"aG",@progbits,_ZNSt13__future_base13_State_baseV29_M_do_setEPSt8functionIFSt10unique_ptrINS_12_Result_baseENS3_8_DeleterEEvEEPb,comdat
.LLSDA7562:
	.byte	0xff
	.byte	0xff
	.byte	0x1
	.uleb128 .LLSDACSE7562-.LLSDACSB7562
.LLSDACSB7562:
	.uleb128 .LEHB0-.LFB7562
	.uleb128 .LEHE0-.LEHB0
	.uleb128 0
	.uleb128 0
	.uleb128 .LEHB1-.LFB7562
	.uleb128 .LEHE1-.LEHB1
	.uleb128 0
	.uleb128 0
.LLSDACSE7562:
	.section	.text._ZNSt13__future_base13_State_baseV29_M_do_setEPSt8functionIFSt10unique_ptrINS_12_Result_baseENS3_8_DeleterEEvEEPb,"axG",@progbits,_ZNSt13__future_base13_State_baseV29_M_do_setEPSt8functionIFSt10unique_ptrINS_12_Result_baseENS3_8_DeleterEEvEEPb,comdat
	.size	_ZNSt13__future_base13_State_baseV29_M_do_setEPSt8functionIFSt10unique_ptrINS_12_Result_baseENS3_8_DeleterEEvEEPb, .-_ZNSt13__future_base13_State_baseV29_M_do_setEPSt8functionIFSt10unique_ptrINS_12_Result_baseENS3_8_DeleterEEvEEPb
	.section	.text._ZN4asio6detail15system_categoryD2Ev,"axG",@progbits,_ZN4asio6detail15system_categoryD5Ev,comdat
	.align 2
	.p2align 4,,15
	.weak	_ZN4asio6detail15system_categoryD2Ev
	.type	_ZN4asio6detail15system_categoryD2Ev, @function
_ZN4asio6detail15system_categoryD2Ev:
.LFB12552:
	.cfi_startproc
	movq	_ZTVN4asio6detail15system_categoryE@GOTPCREL(%rip), %rax
	addq	$16, %rax
	movq	%rax, (%rdi)
	jmp	_ZNSt3_V214error_categoryD2Ev@PLT
	.cfi_endproc
.LFE12552:
	.size	_ZN4asio6detail15system_categoryD2Ev, .-_ZN4asio6detail15system_categoryD2Ev
	.weak	_ZN4asio6detail15system_categoryD1Ev
	.set	_ZN4asio6detail15system_categoryD1Ev,_ZN4asio6detail15system_categoryD2Ev
	.section	.text._ZN4asio6detail15system_categoryD0Ev,"axG",@progbits,_ZN4asio6detail15system_categoryD5Ev,comdat
	.align 2
	.p2align 4,,15
	.weak	_ZN4asio6detail15system_categoryD0Ev
	.type	_ZN4asio6detail15system_categoryD0Ev, @function
_ZN4asio6detail15system_categoryD0Ev:
.LFB12554:
	.cfi_startproc
	movq	_ZTVN4asio6detail15system_categoryE@GOTPCREL(%rip), %rax
	pushq	%rbx
	.cfi_def_cfa_offset 16
	.cfi_offset 3, -16
	movq	%rdi, %rbx
	addq	$16, %rax
	movq	%rax, (%rdi)
	call	_ZNSt3_V214error_categoryD2Ev@PLT
	movq	%rbx, %rdi
	movl	$8, %esi
	popq	%rbx
	.cfi_def_cfa_offset 8
	jmp	_ZdlPvm@PLT
	.cfi_endproc
.LFE12554:
	.size	_ZN4asio6detail15system_categoryD0Ev, .-_ZN4asio6detail15system_categoryD0Ev
	.section	.text._ZN4asio5error6detail14netdb_categoryD2Ev,"axG",@progbits,_ZN4asio5error6detail14netdb_categoryD5Ev,comdat
	.align 2
	.p2align 4,,15
	.weak	_ZN4asio5error6detail14netdb_categoryD2Ev
	.type	_ZN4asio5error6detail14netdb_categoryD2Ev, @function
_ZN4asio5error6detail14netdb_categoryD2Ev:
.LFB12540:
	.cfi_startproc
	movq	_ZTVN4asio5error6detail14netdb_categoryE@GOTPCREL(%rip), %rax
	addq	$16, %rax
	movq	%rax, (%rdi)
	jmp	_ZNSt3_V214error_categoryD2Ev@PLT
	.cfi_endproc
.LFE12540:
	.size	_ZN4asio5error6detail14netdb_categoryD2Ev, .-_ZN4asio5error6detail14netdb_categoryD2Ev
	.weak	_ZN4asio5error6detail14netdb_categoryD1Ev
	.set	_ZN4asio5error6detail14netdb_categoryD1Ev,_ZN4asio5error6detail14netdb_categoryD2Ev
	.section	.text._ZN4asio5error6detail14netdb_categoryD0Ev,"axG",@progbits,_ZN4asio5error6detail14netdb_categoryD5Ev,comdat
	.align 2
	.p2align 4,,15
	.weak	_ZN4asio5error6detail14netdb_categoryD0Ev
	.type	_ZN4asio5error6detail14netdb_categoryD0Ev, @function
_ZN4asio5error6detail14netdb_categoryD0Ev:
.LFB12542:
	.cfi_startproc
	movq	_ZTVN4asio5error6detail14netdb_categoryE@GOTPCREL(%rip), %rax
	pushq	%rbx
	.cfi_def_cfa_offset 16
	.cfi_offset 3, -16
	movq	%rdi, %rbx
	addq	$16, %rax
	movq	%rax, (%rdi)
	call	_ZNSt3_V214error_categoryD2Ev@PLT
	movq	%rbx, %rdi
	movl	$8, %esi
	popq	%rbx
	.cfi_def_cfa_offset 8
	jmp	_ZdlPvm@PLT
	.cfi_endproc
.LFE12542:
	.size	_ZN4asio5error6detail14netdb_categoryD0Ev, .-_ZN4asio5error6detail14netdb_categoryD0Ev
	.section	.text._ZN4asio5error6detail17addrinfo_categoryD2Ev,"axG",@progbits,_ZN4asio5error6detail17addrinfo_categoryD5Ev,comdat
	.align 2
	.p2align 4,,15
	.weak	_ZN4asio5error6detail17addrinfo_categoryD2Ev
	.type	_ZN4asio5error6detail17addrinfo_categoryD2Ev, @function
_ZN4asio5error6detail17addrinfo_categoryD2Ev:
.LFB12536:
	.cfi_startproc
	movq	_ZTVN4asio5error6detail17addrinfo_categoryE@GOTPCREL(%rip), %rax
	addq	$16, %rax
	movq	%rax, (%rdi)
	jmp	_ZNSt3_V214error_categoryD2Ev@PLT
	.cfi_endproc
.LFE12536:
	.size	_ZN4asio5error6detail17addrinfo_categoryD2Ev, .-_ZN4asio5error6detail17addrinfo_categoryD2Ev
	.weak	_ZN4asio5error6detail17addrinfo_categoryD1Ev
	.set	_ZN4asio5error6detail17addrinfo_categoryD1Ev,_ZN4asio5error6detail17addrinfo_categoryD2Ev
	.section	.text._ZN4asio5error6detail17addrinfo_categoryD0Ev,"axG",@progbits,_ZN4asio5error6detail17addrinfo_categoryD5Ev,comdat
	.align 2
	.p2align 4,,15
	.weak	_ZN4asio5error6detail17addrinfo_categoryD0Ev
	.type	_ZN4asio5error6detail17addrinfo_categoryD0Ev, @function
_ZN4asio5error6detail17addrinfo_categoryD0Ev:
.LFB12538:
	.cfi_startproc
	movq	_ZTVN4asio5error6detail17addrinfo_categoryE@GOTPCREL(%rip), %rax
	pushq	%rbx
	.cfi_def_cfa_offset 16
	.cfi_offset 3, -16
	movq	%rdi, %rbx
	addq	$16, %rax
	movq	%rax, (%rdi)
	call	_ZNSt3_V214error_categoryD2Ev@PLT
	movq	%rbx, %rdi
	movl	$8, %esi
	popq	%rbx
	.cfi_def_cfa_offset 8
	jmp	_ZdlPvm@PLT
	.cfi_endproc
.LFE12538:
	.size	_ZN4asio5error6detail17addrinfo_categoryD0Ev, .-_ZN4asio5error6detail17addrinfo_categoryD0Ev
	.section	.text._ZN4asio5error6detail13misc_categoryD2Ev,"axG",@progbits,_ZN4asio5error6detail13misc_categoryD5Ev,comdat
	.align 2
	.p2align 4,,15
	.weak	_ZN4asio5error6detail13misc_categoryD2Ev
	.type	_ZN4asio5error6detail13misc_categoryD2Ev, @function
_ZN4asio5error6detail13misc_categoryD2Ev:
.LFB12532:
	.cfi_startproc
	movq	_ZTVN4asio5error6detail13misc_categoryE@GOTPCREL(%rip), %rax
	addq	$16, %rax
	movq	%rax, (%rdi)
	jmp	_ZNSt3_V214error_categoryD2Ev@PLT
	.cfi_endproc
.LFE12532:
	.size	_ZN4asio5error6detail13misc_categoryD2Ev, .-_ZN4asio5error6detail13misc_categoryD2Ev
	.weak	_ZN4asio5error6detail13misc_categoryD1Ev
	.set	_ZN4asio5error6detail13misc_categoryD1Ev,_ZN4asio5error6detail13misc_categoryD2Ev
	.section	.text._ZN4asio5error6detail13misc_categoryD0Ev,"axG",@progbits,_ZN4asio5error6detail13misc_categoryD5Ev,comdat
	.align 2
	.p2align 4,,15
	.weak	_ZN4asio5error6detail13misc_categoryD0Ev
	.type	_ZN4asio5error6detail13misc_categoryD0Ev, @function
_ZN4asio5error6detail13misc_categoryD0Ev:
.LFB12534:
	.cfi_startproc
	movq	_ZTVN4asio5error6detail13misc_categoryE@GOTPCREL(%rip), %rax
	pushq	%rbx
	.cfi_def_cfa_offset 16
	.cfi_offset 3, -16
	movq	%rdi, %rbx
	addq	$16, %rax
	movq	%rax, (%rdi)
	call	_ZNSt3_V214error_categoryD2Ev@PLT
	movq	%rbx, %rdi
	movl	$8, %esi
	popq	%rbx
	.cfi_def_cfa_offset 8
	jmp	_ZdlPvm@PLT
	.cfi_endproc
.LFE12534:
	.size	_ZN4asio5error6detail13misc_categoryD0Ev, .-_ZN4asio5error6detail13misc_categoryD0Ev
	.section	.rodata.str1.1,"aMS",@progbits,1
.LC4:
	.string	"std::future_error: "
	.text
	.align 2
	.p2align 4,,15
	.type	_ZNSt13__future_base13_State_baseV216_M_break_promiseESt10unique_ptrINS_12_Result_baseENS2_8_DeleterEE.part.110, @function
_ZNSt13__future_base13_State_baseV216_M_break_promiseESt10unique_ptrINS_12_Result_baseENS2_8_DeleterEE.part.110:
.LFB13137:
	.cfi_startproc
	.cfi_personality 0x9b,DW.ref.__gxx_personality_v0
	.cfi_lsda 0x1b,.LLSDA13137
	pushq	%r15
	.cfi_def_cfa_offset 16
	.cfi_offset 15, -16
	pushq	%r14
	.cfi_def_cfa_offset 24
	.cfi_offset 14, -24
	pushq	%r13
	.cfi_def_cfa_offset 32
	.cfi_offset 13, -32
	pushq	%r12
	.cfi_def_cfa_offset 40
	.cfi_offset 12, -40
	movq	%rsi, %r13
	pushq	%rbp
	.cfi_def_cfa_offset 48
	.cfi_offset 6, -48
	pushq	%rbx
	.cfi_def_cfa_offset 56
	.cfi_offset 3, -56
	movq	%rdi, %rbx
	subq	$136, %rsp
	.cfi_def_cfa_offset 192
	movq	%fs:40, %rax
	movq	%rax, 120(%rsp)
	xorl	%eax, %eax
	call	_ZSt15future_categoryv@PLT
	movq	%rax, %r14
	movq	(%rax), %rax
	leaq	48(%rsp), %rbp
	movl	$4, %edx
	movq	%r14, %rsi
	movq	%rbp, %rdi
.LEHB2:
	call	*32(%rax)
.LEHE2:
	leaq	.LC4(%rip), %rcx
	movl	$19, %r8d
	xorl	%edx, %edx
	xorl	%esi, %esi
	movq	%rbp, %rdi
.LEHB3:
	call	_ZNSt7__cxx1112basic_stringIcSt11char_traitsIcESaIcEE10_M_replaceEmmPKcm@PLT
.LEHE3:
	leaq	80(%rsp), %r12
	leaq	16(%r12), %rdx
	movq	%rdx, 80(%rsp)
	movq	(%rax), %rcx
	leaq	16(%rax), %rdx
	cmpq	%rdx, %rcx
	je	.L234
	movq	%rcx, 80(%rsp)
	movq	16(%rax), %rcx
	movq	%rcx, 96(%rsp)
.L220:
	movq	8(%rax), %rcx
	leaq	16(%rsp), %r15
	movb	$0, 16(%rax)
	movq	%r12, %rsi
	movq	%r15, %rdi
	movq	%rcx, 88(%rsp)
	movq	%rdx, (%rax)
	movq	$0, 8(%rax)
.LEHB4:
	call	_ZNSt11logic_errorC2ERKNSt7__cxx1112basic_stringIcSt11char_traitsIcESaIcEEE@PLT
.LEHE4:
	movq	80(%rsp), %rdi
	addq	$16, %r12
	cmpq	%r12, %rdi
	je	.L221
	call	_ZdlPv@PLT
.L221:
	movq	48(%rsp), %rdi
	addq	$16, %rbp
	cmpq	%rbp, %rdi
	je	.L222
	call	_ZdlPv@PLT
.L222:
	movq	_ZTVSt12future_error@GOTPCREL(%rip), %rax
	movl	$32, %edi
	movl	$4, 32(%rsp)
	movq	%r14, 40(%rsp)
	leaq	16(%rax), %r12
	movq	%r12, 16(%rsp)
	call	__cxa_allocate_exception@PLT
	movq	_ZNSt15__exception_ptr12__dest_thunkISt12future_errorEEvPv@GOTPCREL(%rip), %rdx
	movq	_ZTISt12future_error@GOTPCREL(%rip), %rsi
	movq	%rax, %rbp
	movq	%rax, %rdi
	call	__cxa_init_primary_exception@PLT
	testq	%rbp, %rbp
	je	.L224
	movq	%r15, %rsi
	movq	%rbp, %rdi
	call	_ZNSt11logic_errorC2ERKS_@PLT
	movq	%r12, 0(%rbp)
	movdqa	32(%rsp), %xmm0
	movups	%xmm0, 16(%rbp)
.L224:
	leaq	8(%rsp), %r12
	movq	%rbp, %rsi
	movq	%rsp, %rbp
	movq	%r12, %rdi
	call	_ZNSt15__exception_ptr13exception_ptrC1EPv@PLT
	movq	0(%r13), %rax
	movq	%rbp, %rdi
	leaq	8(%rax), %rsi
	movq	8(%rsp), %rax
	movq	$0, 8(%rsp)
	movq	%rax, (%rsp)
	call	_ZNSt15__exception_ptr13exception_ptr4swapERS0_@PLT
	movq	%rbp, %rdi
	call	_ZNSt15__exception_ptr13exception_ptrD1Ev@PLT
	movq	%r12, %rdi
	call	_ZNSt15__exception_ptr13exception_ptrD1Ev@PLT
	movq	%r15, %rdi
	call	_ZNSt12future_errorD1Ev@PLT
	movq	8(%rbx), %rax
	movq	0(%r13), %rdx
	leaq	16(%rbx), %rdi
	movq	%rax, 0(%r13)
	movl	$1, %eax
	movq	%rdx, 8(%rbx)
	xchgl	(%rdi), %eax
	testl	%eax, %eax
	js	.L235
.L218:
	movq	120(%rsp), %rax
	xorq	%fs:40, %rax
	jne	.L236
	addq	$136, %rsp
	.cfi_remember_state
	.cfi_def_cfa_offset 56
	popq	%rbx
	.cfi_def_cfa_offset 48
	popq	%rbp
	.cfi_def_cfa_offset 40
	popq	%r12
	.cfi_def_cfa_offset 32
	popq	%r13
	.cfi_def_cfa_offset 24
	popq	%r14
	.cfi_def_cfa_offset 16
	popq	%r15
	.cfi_def_cfa_offset 8
	ret
	.p2align 4,,10
	.p2align 3
.L234:
	.cfi_restore_state
	movdqu	16(%rax), %xmm0
	movaps	%xmm0, 96(%rsp)
	jmp	.L220
	.p2align 4,,10
	.p2align 3
.L235:
.LEHB5:
	call	_ZNSt28__atomic_futex_unsigned_base19_M_futex_notify_allEPj@PLT
	jmp	.L218
.L236:
	call	__stack_chk_fail@PLT
.L232:
	movq	80(%rsp), %rdi
	addq	$16, %r12
	movq	%rax, %rbx
	cmpq	%r12, %rdi
	je	.L227
	call	_ZdlPv@PLT
.L227:
	movq	48(%rsp), %rdi
	addq	$16, %rbp
	cmpq	%rbp, %rdi
	je	.L228
	call	_ZdlPv@PLT
.L228:
	movq	%rbx, %rdi
	call	_Unwind_Resume@PLT
.LEHE5:
.L231:
	movq	%rax, %rbx
	jmp	.L227
	.cfi_endproc
.LFE13137:
	.section	.gcc_except_table,"a",@progbits
.LLSDA13137:
	.byte	0xff
	.byte	0xff
	.byte	0x1
	.uleb128 .LLSDACSE13137-.LLSDACSB13137
.LLSDACSB13137:
	.uleb128 .LEHB2-.LFB13137
	.uleb128 .LEHE2-.LEHB2
	.uleb128 0
	.uleb128 0
	.uleb128 .LEHB3-.LFB13137
	.uleb128 .LEHE3-.LEHB3
	.uleb128 .L231-.LFB13137
	.uleb128 0
	.uleb128 .LEHB4-.LFB13137
	.uleb128 .LEHE4-.LEHB4
	.uleb128 .L232-.LFB13137
	.uleb128 0
	.uleb128 .LEHB5-.LFB13137
	.uleb128 .LEHE5-.LEHB5
	.uleb128 0
	.uleb128 0
.LLSDACSE13137:
	.text
	.size	_ZNSt13__future_base13_State_baseV216_M_break_promiseESt10unique_ptrINS_12_Result_baseENS2_8_DeleterEE.part.110, .-_ZNSt13__future_base13_State_baseV216_M_break_promiseESt10unique_ptrINS_12_Result_baseENS2_8_DeleterEE.part.110
	.section	.text._ZNSt13__future_base7_ResultIbE10_M_destroyEv,"axG",@progbits,_ZNSt13__future_base7_ResultIbE10_M_destroyEv,comdat
	.align 2
	.p2align 4,,15
	.weak	_ZNSt13__future_base7_ResultIbE10_M_destroyEv
	.type	_ZNSt13__future_base7_ResultIbE10_M_destroyEv, @function
_ZNSt13__future_base7_ResultIbE10_M_destroyEv:
.LFB12668:
	.cfi_startproc
	movq	(%rdi), %rax
	movq	16(%rax), %rax
	cmpq	_ZNSt13__future_base7_ResultIbED0Ev@GOTPCREL(%rip), %rax
	jne	.L238
	movq	_ZTVNSt13__future_base7_ResultIbEE@GOTPCREL(%rip), %rax
	pushq	%rbx
	.cfi_def_cfa_offset 16
	.cfi_offset 3, -16
	movq	%rdi, %rbx
	addq	$16, %rax
	movq	%rax, (%rdi)
	call	_ZNSt13__future_base12_Result_baseD2Ev@PLT
	movq	%rbx, %rdi
	movl	$24, %esi
	popq	%rbx
	.cfi_restore 3
	.cfi_def_cfa_offset 8
	jmp	_ZdlPvm@PLT
	.p2align 4,,10
	.p2align 3
.L238:
	jmp	*%rax
	.cfi_endproc
.LFE12668:
	.size	_ZNSt13__future_base7_ResultIbE10_M_destroyEv, .-_ZNSt13__future_base7_ResultIbE10_M_destroyEv
	.section	.text._ZNSt13__future_base7_ResultIN7openpal10LogFiltersEE10_M_destroyEv,"axG",@progbits,_ZNSt13__future_base7_ResultIN7openpal10LogFiltersEE10_M_destroyEv,comdat
	.align 2
	.p2align 4,,15
	.weak	_ZNSt13__future_base7_ResultIN7openpal10LogFiltersEE10_M_destroyEv
	.type	_ZNSt13__future_base7_ResultIN7openpal10LogFiltersEE10_M_destroyEv, @function
_ZNSt13__future_base7_ResultIN7openpal10LogFiltersEE10_M_destroyEv:
.LFB12673:
	.cfi_startproc
	movq	(%rdi), %rax
	movq	16(%rax), %rax
	cmpq	_ZNSt13__future_base7_ResultIN7openpal10LogFiltersEED0Ev@GOTPCREL(%rip), %rax
	jne	.L243
	movq	_ZTVNSt13__future_base7_ResultIN7openpal10LogFiltersEEE@GOTPCREL(%rip), %rax
	pushq	%rbx
	.cfi_def_cfa_offset 16
	.cfi_offset 3, -16
	movq	%rdi, %rbx
	addq	$16, %rax
	movq	%rax, (%rdi)
	call	_ZNSt13__future_base12_Result_baseD2Ev@PLT
	movq	%rbx, %rdi
	movl	$24, %esi
	popq	%rbx
	.cfi_restore 3
	.cfi_def_cfa_offset 8
	jmp	_ZdlPvm@PLT
	.p2align 4,,10
	.p2align 3
.L243:
	jmp	*%rax
	.cfi_endproc
.LFE12673:
	.size	_ZNSt13__future_base7_ResultIN7openpal10LogFiltersEE10_M_destroyEv, .-_ZNSt13__future_base7_ResultIN7openpal10LogFiltersEE10_M_destroyEv
	.section	.text._ZNSt13__future_base7_ResultIN8opendnp314LinkStatisticsEE10_M_destroyEv,"axG",@progbits,_ZNSt13__future_base7_ResultIN8opendnp314LinkStatisticsEE10_M_destroyEv,comdat
	.align 2
	.p2align 4,,15
	.weak	_ZNSt13__future_base7_ResultIN8opendnp314LinkStatisticsEE10_M_destroyEv
	.type	_ZNSt13__future_base7_ResultIN8opendnp314LinkStatisticsEE10_M_destroyEv, @function
_ZNSt13__future_base7_ResultIN8opendnp314LinkStatisticsEE10_M_destroyEv:
.LFB12678:
	.cfi_startproc
	movq	(%rdi), %rax
	movq	16(%rax), %rax
	cmpq	_ZNSt13__future_base7_ResultIN8opendnp314LinkStatisticsEED0Ev@GOTPCREL(%rip), %rax
	jne	.L248
	movq	_ZTVNSt13__future_base7_ResultIN8opendnp314LinkStatisticsEEE@GOTPCREL(%rip), %rax
	pushq	%rbx
	.cfi_def_cfa_offset 16
	.cfi_offset 3, -16
	movq	%rdi, %rbx
	addq	$16, %rax
	movq	%rax, (%rdi)
	call	_ZNSt13__future_base12_Result_baseD2Ev@PLT
	movq	%rbx, %rdi
	movl	$72, %esi
	popq	%rbx
	.cfi_restore 3
	.cfi_def_cfa_offset 8
	jmp	_ZdlPvm@PLT
	.p2align 4,,10
	.p2align 3
.L248:
	jmp	*%rax
	.cfi_endproc
.LFE12678:
	.size	_ZNSt13__future_base7_ResultIN8opendnp314LinkStatisticsEE10_M_destroyEv, .-_ZNSt13__future_base7_ResultIN8opendnp314LinkStatisticsEE10_M_destroyEv
	.section	.text._ZN4asio6detail18completion_handlerIZN7asiopal8Executor10ReturnFromIbEET_RKSt8functionIFS5_vEEEUlvE_E11do_completeEPNS0_15task_io_serviceEPNS0_25task_io_service_operationERKSt10error_codem,"axG",@progbits,_ZN4asio6detail18completion_handlerIZN7asiopal8Executor10ReturnFromIbEET_RKSt8functionIFS5_vEEEUlvE_E11do_completeEPNS0_15task_io_serviceEPNS0_25task_io_service_operationERKSt10error_codem,comdat
	.p2align 4,,15
	.weak	_ZN4asio6detail18completion_handlerIZN7asiopal8Executor10ReturnFromIbEET_RKSt8functionIFS5_vEEEUlvE_E11do_completeEPNS0_15task_io_serviceEPNS0_25task_io_service_operationERKSt10error_codem
	.type	_ZN4asio6detail18completion_handlerIZN7asiopal8Executor10ReturnFromIbEET_RKSt8functionIFS5_vEEEUlvE_E11do_completeEPNS0_15task_io_serviceEPNS0_25task_io_service_operationERKSt10error_codem, @function
_ZN4asio6detail18completion_handlerIZN7asiopal8Executor10ReturnFromIbEET_RKSt8functionIFS5_vEEEUlvE_E11do_completeEPNS0_15task_io_serviceEPNS0_25task_io_service_operationERKSt10error_codem:
.LFB11980:
	.cfi_startproc
	.cfi_personality 0x9b,DW.ref.__gxx_personality_v0
	.cfi_lsda 0x1b,.LLSDA11980
	pushq	%r13
	.cfi_def_cfa_offset 16
	.cfi_offset 13, -16
	pushq	%r12
	.cfi_def_cfa_offset 24
	.cfi_offset 12, -24
	movq	%rdi, %r13
	pushq	%rbp
	.cfi_def_cfa_offset 32
	.cfi_offset 6, -32
	pushq	%rbx
	.cfi_def_cfa_offset 40
	.cfi_offset 3, -40
	movq	%rsi, %rbx
	subq	$152, %rsp
	.cfi_def_cfa_offset 192
	movq	24(%rsi), %r12
	movq	32(%rsi), %rbp
	movq	%fs:40, %rax
	movq	%rax, 136(%rsp)
	xorl	%eax, %eax
	.byte	0x66
	leaq	_ZN4asio6detail15keyword_tss_ptrINS0_10call_stackINS0_15task_io_serviceENS0_27task_io_service_thread_infoEE7contextEE6value_E@tlsgd(%rip), %rdi
	.value	0x6666
	rex64
	call	__tls_get_addr@PLT
	movq	(%rax), %rax
	testq	%rax, %rax
	je	.L253
	movq	8(%rax), %rax
	testq	%rax, %rax
	je	.L253
	cmpq	$0, (%rax)
	je	.L285
.L253:
	movq	%rbx, %rdi
	call	_ZdlPv@PLT
.L254:
	testq	%r13, %r13
	je	.L252
	cmpq	$0, 16(%rbp)
	je	.L286
	movq	%rbp, %rdi
.LEHB6:
	call	*24(%rbp)
.LEHE6:
	movq	(%r12), %rbx
	movb	%al, 22(%rsp)
	testq	%rbx, %rbx
	je	.L287
	leaq	22(%rsp), %rax
	movq	_ZNSt14_Function_base13_Base_managerINSt13__future_base13_State_baseV27_SetterIbObEEE10_M_managerERSt9_Any_dataRKS7_St18_Manager_operation@GOTPCREL(%rip), %xmm0
	movhps	_ZNSt17_Function_handlerIFSt10unique_ptrINSt13__future_base12_Result_baseENS2_8_DeleterEEvENS1_13_State_baseV27_SetterIbObEEE9_M_invokeERKSt9_Any_data@GOTPCREL(%rip), %xmm0
	leaq	96(%rsp), %rbp
	movq	%r12, 96(%rsp)
	movq	%rax, 104(%rsp)
	leaq	23(%rsp), %rax
	movb	$0, 23(%rsp)
	movaps	%xmm0, 112(%rsp)
	movq	%rax, 40(%rsp)
	movq	_ZNSt13__future_base13_State_baseV29_M_do_setEPSt8functionIFSt10unique_ptrINS_12_Result_baseENS3_8_DeleterEEvEEPb@GOTPCREL(%rip), %rax
	movq	%rax, 48(%rsp)
	leaq	48(%rsp), %rax
	movq	%rbp, 32(%rsp)
	movq	%rbx, 24(%rsp)
	movq	$0, 56(%rsp)
	movq	%rax, 8(%rsp)
	leaq	24(%rsp), %rax
	movq	8(%rsp), %xmm0
	movq	%rax, 8(%rsp)
	leaq	32(%rsp), %rax
	movhps	8(%rsp), %xmm0
	movq	%rax, 8(%rsp)
	leaq	40(%rsp), %rax
	movaps	%xmm0, 64(%rsp)
	movq	8(%rsp), %xmm0
	movq	%rax, 8(%rsp)
	movhps	8(%rsp), %xmm0
	movaps	%xmm0, 80(%rsp)
	.byte	0x66
	leaq	_ZSt15__once_callable@tlsgd(%rip), %rdi
	.value	0x6666
	rex64
	call	__tls_get_addr@PLT
	leaq	64(%rsp), %rdx
	movq	%rdx, (%rax)
	.byte	0x66
	leaq	_ZSt11__once_call@tlsgd(%rip), %rdi
	.value	0x6666
	rex64
	call	__tls_get_addr@PLT
	cmpq	$0, _ZL28__gthrw___pthread_key_createPjPFvPvE@GOTPCREL(%rip)
	movq	_ZZSt9call_onceIMNSt13__future_base13_State_baseV2EFvPSt8functionIFSt10unique_ptrINS0_12_Result_baseENS4_8_DeleterEEvEEPbEJPS1_S9_SA_EEvRSt9once_flagOT_DpOT0_ENUlvE0_4_FUNEv@GOTPCREL(%rip), %rdx
	leaq	24(%rbx), %rdi
	movq	%rdx, (%rax)
	je	.L269
	movq	__once_proxy@GOTPCREL(%rip), %rsi
.LEHB7:
	call	_ZL20__gthrw_pthread_oncePiPFvvE@PLT
	testl	%eax, %eax
	jne	.L258
	cmpb	$0, 23(%rsp)
	jne	.L288
	movl	$2, %edi
	call	_ZSt20__throw_future_errori@PLT
	.p2align 4,,10
	.p2align 3
.L288:
	leaq	16(%rbx), %rdi
	movl	$1, %eax
	xchgl	(%rdi), %eax
	testl	%eax, %eax
	jns	.L264
	call	_ZNSt28__atomic_futex_unsigned_base19_M_futex_notify_allEPj@PLT
.LEHE7:
.L264:
	movq	112(%rsp), %rax
	testq	%rax, %rax
	je	.L263
	movl	$3, %edx
	movq	%rbp, %rsi
	movq	%rbp, %rdi
	call	*%rax
.L263:
	sfence
.L252:
	movq	136(%rsp), %rax
	xorq	%fs:40, %rax
	jne	.L289
	addq	$152, %rsp
	.cfi_remember_state
	.cfi_def_cfa_offset 40
	popq	%rbx
	.cfi_def_cfa_offset 32
	popq	%rbp
	.cfi_def_cfa_offset 24
	popq	%r12
	.cfi_def_cfa_offset 16
	popq	%r13
	.cfi_def_cfa_offset 8
	ret
	.p2align 4,,10
	.p2align 3
.L285:
	.cfi_restore_state
	movzbl	40(%rbx), %edx
	movb	%dl, (%rbx)
	movq	%rbx, (%rax)
	jmp	.L254
.L271:
	movq	%rax, %rbx
	movq	112(%rsp), %rax
	testq	%rax, %rax
	je	.L266
	movl	$3, %edx
	movq	%rbp, %rsi
	movq	%rbp, %rdi
	call	*%rax
.L266:
	movq	%rbx, %rax
.L267:
	movq	%rax, %rdi
	sfence
.LEHB8:
	call	_Unwind_Resume@PLT
.LEHE8:
.L269:
	orl	$-1, %eax
.L258:
	movl	%eax, %edi
.LEHB9:
	call	_ZSt20__throw_system_errori@PLT
.LEHE9:
.L286:
.LEHB10:
	call	_ZSt25__throw_bad_function_callv@PLT
.L270:
	jmp	.L267
.L287:
	movl	$3, %edi
	call	_ZSt20__throw_future_errori@PLT
.LEHE10:
.L289:
	call	__stack_chk_fail@PLT
	.cfi_endproc
.LFE11980:
	.section	.gcc_except_table
.LLSDA11980:
	.byte	0xff
	.byte	0xff
	.byte	0x1
	.uleb128 .LLSDACSE11980-.LLSDACSB11980
.LLSDACSB11980:
	.uleb128 .LEHB6-.LFB11980
	.uleb128 .LEHE6-.LEHB6
	.uleb128 .L270-.LFB11980
	.uleb128 0
	.uleb128 .LEHB7-.LFB11980
	.uleb128 .LEHE7-.LEHB7
	.uleb128 .L271-.LFB11980
	.uleb128 0
	.uleb128 .LEHB8-.LFB11980
	.uleb128 .LEHE8-.LEHB8
	.uleb128 0
	.uleb128 0
	.uleb128 .LEHB9-.LFB11980
	.uleb128 .LEHE9-.LEHB9
	.uleb128 .L271-.LFB11980
	.uleb128 0
	.uleb128 .LEHB10-.LFB11980
	.uleb128 .LEHE10-.LEHB10
	.uleb128 .L270-.LFB11980
	.uleb128 0
.LLSDACSE11980:
	.section	.text._ZN4asio6detail18completion_handlerIZN7asiopal8Executor10ReturnFromIbEET_RKSt8functionIFS5_vEEEUlvE_E11do_completeEPNS0_15task_io_serviceEPNS0_25task_io_service_operationERKSt10error_codem,"axG",@progbits,_ZN4asio6detail18completion_handlerIZN7asiopal8Executor10ReturnFromIbEET_RKSt8functionIFS5_vEEEUlvE_E11do_completeEPNS0_15task_io_serviceEPNS0_25task_io_service_operationERKSt10error_codem,comdat
	.size	_ZN4asio6detail18completion_handlerIZN7asiopal8Executor10ReturnFromIbEET_RKSt8functionIFS5_vEEEUlvE_E11do_completeEPNS0_15task_io_serviceEPNS0_25task_io_service_operationERKSt10error_codem, .-_ZN4asio6detail18completion_handlerIZN7asiopal8Executor10ReturnFromIbEET_RKSt8functionIFS5_vEEEUlvE_E11do_completeEPNS0_15task_io_serviceEPNS0_25task_io_service_operationERKSt10error_codem
	.section	.text._ZN4asio6detail18completion_handlerIZN7asiopal8Executor10ReturnFromIN8opendnp314LinkStatisticsEEET_RKSt8functionIFS7_vEEEUlvE_E11do_completeEPNS0_15task_io_serviceEPNS0_25task_io_service_operationERKSt10error_codem,"axG",@progbits,_ZN4asio6detail18completion_handlerIZN7asiopal8Executor10ReturnFromIN8opendnp314LinkStatisticsEEET_RKSt8functionIFS7_vEEEUlvE_E11do_completeEPNS0_15task_io_serviceEPNS0_25task_io_service_operationERKSt10error_codem,comdat
	.p2align 4,,15
	.weak	_ZN4asio6detail18completion_handlerIZN7asiopal8Executor10ReturnFromIN8opendnp314LinkStatisticsEEET_RKSt8functionIFS7_vEEEUlvE_E11do_completeEPNS0_15task_io_serviceEPNS0_25task_io_service_operationERKSt10error_codem
	.type	_ZN4asio6detail18completion_handlerIZN7asiopal8Executor10ReturnFromIN8opendnp314LinkStatisticsEEET_RKSt8functionIFS7_vEEEUlvE_E11do_completeEPNS0_15task_io_serviceEPNS0_25task_io_service_operationERKSt10error_codem, @function
_ZN4asio6detail18completion_handlerIZN7asiopal8Executor10ReturnFromIN8opendnp314LinkStatisticsEEET_RKSt8functionIFS7_vEEEUlvE_E11do_completeEPNS0_15task_io_serviceEPNS0_25task_io_service_operationERKSt10error_codem:
.LFB11492:
	.cfi_startproc
	.cfi_personality 0x9b,DW.ref.__gxx_personality_v0
	.cfi_lsda 0x1b,.LLSDA11492
	pushq	%r13
	.cfi_def_cfa_offset 16
	.cfi_offset 13, -16
	pushq	%r12
	.cfi_def_cfa_offset 24
	.cfi_offset 12, -24
	movq	%rdi, %r13
	pushq	%rbp
	.cfi_def_cfa_offset 32
	.cfi_offset 6, -32
	pushq	%rbx
	.cfi_def_cfa_offset 40
	.cfi_offset 3, -40
	movq	%rsi, %rbx
	subq	$216, %rsp
	.cfi_def_cfa_offset 256
	movq	24(%rsi), %r12
	movq	32(%rsi), %rbp
	movq	%fs:40, %rax
	movq	%rax, 200(%rsp)
	xorl	%eax, %eax
	.byte	0x66
	leaq	_ZN4asio6detail15keyword_tss_ptrINS0_10call_stackINS0_15task_io_serviceENS0_27task_io_service_thread_infoEE7contextEE6value_E@tlsgd(%rip), %rdi
	.value	0x6666
	rex64
	call	__tls_get_addr@PLT
	movq	(%rax), %rax
	testq	%rax, %rax
	je	.L291
	movq	8(%rax), %rax
	testq	%rax, %rax
	je	.L291
	cmpq	$0, (%rax)
	je	.L323
.L291:
	movq	%rbx, %rdi
	call	_ZdlPv@PLT
.L292:
	testq	%r13, %r13
	je	.L290
	cmpq	$0, 16(%rbp)
	je	.L324
	leaq	96(%rsp), %r13
	movq	%rbp, %rsi
	movq	%r13, %rdi
.LEHB11:
	call	*24(%rbp)
.LEHE11:
	movq	(%r12), %rbx
	testq	%rbx, %rbx
	je	.L325
	leaq	23(%rsp), %rax
	movq	_ZNSt14_Function_base13_Base_managerINSt13__future_base13_State_baseV27_SetterIN8opendnp314LinkStatisticsEOS5_EEE10_M_managerERSt9_Any_dataRKS9_St18_Manager_operation@GOTPCREL(%rip), %xmm0
	movhps	_ZNSt17_Function_handlerIFSt10unique_ptrINSt13__future_base12_Result_baseENS2_8_DeleterEEvENS1_13_State_baseV27_SetterIN8opendnp314LinkStatisticsEOS9_EEE9_M_invokeERKSt9_Any_data@GOTPCREL(%rip), %xmm0
	leaq	160(%rsp), %rbp
	movq	%r12, 160(%rsp)
	movq	%rax, 40(%rsp)
	movq	_ZNSt13__future_base13_State_baseV29_M_do_setEPSt8functionIFSt10unique_ptrINS_12_Result_baseENS3_8_DeleterEEvEEPb@GOTPCREL(%rip), %rax
	movaps	%xmm0, 176(%rsp)
	movq	%r13, 168(%rsp)
	movb	$0, 23(%rsp)
	movq	%rax, 48(%rsp)
	leaq	48(%rsp), %rax
	movq	%rbp, 32(%rsp)
	movq	%rbx, 24(%rsp)
	movq	$0, 56(%rsp)
	movq	%rax, 8(%rsp)
	leaq	24(%rsp), %rax
	movq	8(%rsp), %xmm0
	movq	%rax, 8(%rsp)
	leaq	32(%rsp), %rax
	movhps	8(%rsp), %xmm0
	movq	%rax, 8(%rsp)
	leaq	40(%rsp), %rax
	movaps	%xmm0, 64(%rsp)
	movq	8(%rsp), %xmm0
	movq	%rax, 8(%rsp)
	movhps	8(%rsp), %xmm0
	movaps	%xmm0, 80(%rsp)
	.byte	0x66
	leaq	_ZSt15__once_callable@tlsgd(%rip), %rdi
	.value	0x6666
	rex64
	call	__tls_get_addr@PLT
	leaq	64(%rsp), %rdx
	movq	%rdx, (%rax)
	.byte	0x66
	leaq	_ZSt11__once_call@tlsgd(%rip), %rdi
	.value	0x6666
	rex64
	call	__tls_get_addr@PLT
	cmpq	$0, _ZL28__gthrw___pthread_key_createPjPFvPvE@GOTPCREL(%rip)
	movq	_ZZSt9call_onceIMNSt13__future_base13_State_baseV2EFvPSt8functionIFSt10unique_ptrINS0_12_Result_baseENS4_8_DeleterEEvEEPbEJPS1_S9_SA_EEvRSt9once_flagOT_DpOT0_ENUlvE0_4_FUNEv@GOTPCREL(%rip), %rdx
	leaq	24(%rbx), %rdi
	movq	%rdx, (%rax)
	je	.L307
	movq	__once_proxy@GOTPCREL(%rip), %rsi
.LEHB12:
	call	_ZL20__gthrw_pthread_oncePiPFvvE@PLT
	testl	%eax, %eax
	jne	.L296
	cmpb	$0, 23(%rsp)
	jne	.L326
	movl	$2, %edi
	call	_ZSt20__throw_future_errori@PLT
	.p2align 4,,10
	.p2align 3
.L326:
	leaq	16(%rbx), %rdi
	movl	$1, %eax
	xchgl	(%rdi), %eax
	testl	%eax, %eax
	jns	.L302
	call	_ZNSt28__atomic_futex_unsigned_base19_M_futex_notify_allEPj@PLT
.LEHE12:
.L302:
	movq	176(%rsp), %rax
	testq	%rax, %rax
	je	.L301
	movl	$3, %edx
	movq	%rbp, %rsi
	movq	%rbp, %rdi
	call	*%rax
.L301:
	sfence
.L290:
	movq	200(%rsp), %rax
	xorq	%fs:40, %rax
	jne	.L327
	addq	$216, %rsp
	.cfi_remember_state
	.cfi_def_cfa_offset 40
	popq	%rbx
	.cfi_def_cfa_offset 32
	popq	%rbp
	.cfi_def_cfa_offset 24
	popq	%r12
	.cfi_def_cfa_offset 16
	popq	%r13
	.cfi_def_cfa_offset 8
	ret
	.p2align 4,,10
	.p2align 3
.L323:
	.cfi_restore_state
	movzbl	40(%rbx), %edx
	movb	%dl, (%rbx)
	movq	%rbx, (%rax)
	jmp	.L292
.L309:
	movq	%rax, %rbx
	movq	176(%rsp), %rax
	testq	%rax, %rax
	je	.L304
	movl	$3, %edx
	movq	%rbp, %rsi
	movq	%rbp, %rdi
	call	*%rax
.L304:
	movq	%rbx, %rax
.L305:
	movq	%rax, %rdi
	sfence
.LEHB13:
	call	_Unwind_Resume@PLT
.LEHE13:
.L307:
	orl	$-1, %eax
.L296:
	movl	%eax, %edi
.LEHB14:
	call	_ZSt20__throw_system_errori@PLT
.LEHE14:
.L324:
.LEHB15:
	call	_ZSt25__throw_bad_function_callv@PLT
.L308:
	jmp	.L305
.L325:
	movl	$3, %edi
	call	_ZSt20__throw_future_errori@PLT
.LEHE15:
.L327:
	call	__stack_chk_fail@PLT
	.cfi_endproc
.LFE11492:
	.section	.gcc_except_table
.LLSDA11492:
	.byte	0xff
	.byte	0xff
	.byte	0x1
	.uleb128 .LLSDACSE11492-.LLSDACSB11492
.LLSDACSB11492:
	.uleb128 .LEHB11-.LFB11492
	.uleb128 .LEHE11-.LEHB11
	.uleb128 .L308-.LFB11492
	.uleb128 0
	.uleb128 .LEHB12-.LFB11492
	.uleb128 .LEHE12-.LEHB12
	.uleb128 .L309-.LFB11492
	.uleb128 0
	.uleb128 .LEHB13-.LFB11492
	.uleb128 .LEHE13-.LEHB13
	.uleb128 0
	.uleb128 0
	.uleb128 .LEHB14-.LFB11492
	.uleb128 .LEHE14-.LEHB14
	.uleb128 .L309-.LFB11492
	.uleb128 0
	.uleb128 .LEHB15-.LFB11492
	.uleb128 .LEHE15-.LEHB15
	.uleb128 .L308-.LFB11492
	.uleb128 0
.LLSDACSE11492:
	.section	.text._ZN4asio6detail18completion_handlerIZN7asiopal8Executor10ReturnFromIN8opendnp314LinkStatisticsEEET_RKSt8functionIFS7_vEEEUlvE_E11do_completeEPNS0_15task_io_serviceEPNS0_25task_io_service_operationERKSt10error_codem,"axG",@progbits,_ZN4asio6detail18completion_handlerIZN7asiopal8Executor10ReturnFromIN8opendnp314LinkStatisticsEEET_RKSt8functionIFS7_vEEEUlvE_E11do_completeEPNS0_15task_io_serviceEPNS0_25task_io_service_operationERKSt10error_codem,comdat
	.size	_ZN4asio6detail18completion_handlerIZN7asiopal8Executor10ReturnFromIN8opendnp314LinkStatisticsEEET_RKSt8functionIFS7_vEEEUlvE_E11do_completeEPNS0_15task_io_serviceEPNS0_25task_io_service_operationERKSt10error_codem, .-_ZN4asio6detail18completion_handlerIZN7asiopal8Executor10ReturnFromIN8opendnp314LinkStatisticsEEET_RKSt8functionIFS7_vEEEUlvE_E11do_completeEPNS0_15task_io_serviceEPNS0_25task_io_service_operationERKSt10error_codem
	.section	.text._ZN4asio6detail18completion_handlerIZN7asiopal8Executor10ReturnFromIN7openpal10LogFiltersEEET_RKSt8functionIFS7_vEEEUlvE_E11do_completeEPNS0_15task_io_serviceEPNS0_25task_io_service_operationERKSt10error_codem,"axG",@progbits,_ZN4asio6detail18completion_handlerIZN7asiopal8Executor10ReturnFromIN7openpal10LogFiltersEEET_RKSt8functionIFS7_vEEEUlvE_E11do_completeEPNS0_15task_io_serviceEPNS0_25task_io_service_operationERKSt10error_codem,comdat
	.p2align 4,,15
	.weak	_ZN4asio6detail18completion_handlerIZN7asiopal8Executor10ReturnFromIN7openpal10LogFiltersEEET_RKSt8functionIFS7_vEEEUlvE_E11do_completeEPNS0_15task_io_serviceEPNS0_25task_io_service_operationERKSt10error_codem
	.type	_ZN4asio6detail18completion_handlerIZN7asiopal8Executor10ReturnFromIN7openpal10LogFiltersEEET_RKSt8functionIFS7_vEEEUlvE_E11do_completeEPNS0_15task_io_serviceEPNS0_25task_io_service_operationERKSt10error_codem, @function
_ZN4asio6detail18completion_handlerIZN7asiopal8Executor10ReturnFromIN7openpal10LogFiltersEEET_RKSt8functionIFS7_vEEEUlvE_E11do_completeEPNS0_15task_io_serviceEPNS0_25task_io_service_operationERKSt10error_codem:
.LFB11519:
	.cfi_startproc
	.cfi_personality 0x9b,DW.ref.__gxx_personality_v0
	.cfi_lsda 0x1b,.LLSDA11519
	pushq	%r13
	.cfi_def_cfa_offset 16
	.cfi_offset 13, -16
	pushq	%r12
	.cfi_def_cfa_offset 24
	.cfi_offset 12, -24
	movq	%rdi, %r13
	pushq	%rbp
	.cfi_def_cfa_offset 32
	.cfi_offset 6, -32
	pushq	%rbx
	.cfi_def_cfa_offset 40
	.cfi_offset 3, -40
	movq	%rsi, %rbx
	subq	$152, %rsp
	.cfi_def_cfa_offset 192
	movq	24(%rsi), %r12
	movq	32(%rsi), %rbp
	movq	%fs:40, %rax
	movq	%rax, 136(%rsp)
	xorl	%eax, %eax
	.byte	0x66
	leaq	_ZN4asio6detail15keyword_tss_ptrINS0_10call_stackINS0_15task_io_serviceENS0_27task_io_service_thread_infoEE7contextEE6value_E@tlsgd(%rip), %rdi
	.value	0x6666
	rex64
	call	__tls_get_addr@PLT
	movq	(%rax), %rax
	testq	%rax, %rax
	je	.L329
	movq	8(%rax), %rax
	testq	%rax, %rax
	je	.L329
	cmpq	$0, (%rax)
	je	.L361
.L329:
	movq	%rbx, %rdi
	call	_ZdlPv@PLT
.L330:
	testq	%r13, %r13
	je	.L328
	cmpq	$0, 16(%rbp)
	je	.L362
	movq	%rbp, %rdi
.LEHB16:
	call	*24(%rbp)
.LEHE16:
	movq	(%r12), %rbx
	movl	%eax, 20(%rsp)
	testq	%rbx, %rbx
	je	.L363
	leaq	20(%rsp), %rax
	movq	_ZNSt14_Function_base13_Base_managerINSt13__future_base13_State_baseV27_SetterIN7openpal10LogFiltersEOS5_EEE10_M_managerERSt9_Any_dataRKS9_St18_Manager_operation@GOTPCREL(%rip), %xmm0
	movhps	_ZNSt17_Function_handlerIFSt10unique_ptrINSt13__future_base12_Result_baseENS2_8_DeleterEEvENS1_13_State_baseV27_SetterIN7openpal10LogFiltersEOS9_EEE9_M_invokeERKSt9_Any_data@GOTPCREL(%rip), %xmm0
	leaq	96(%rsp), %rbp
	movq	%r12, 96(%rsp)
	movq	%rax, 104(%rsp)
	leaq	19(%rsp), %rax
	movb	$0, 19(%rsp)
	movaps	%xmm0, 112(%rsp)
	movq	%rax, 40(%rsp)
	movq	_ZNSt13__future_base13_State_baseV29_M_do_setEPSt8functionIFSt10unique_ptrINS_12_Result_baseENS3_8_DeleterEEvEEPb@GOTPCREL(%rip), %rax
	movq	%rax, 48(%rsp)
	leaq	48(%rsp), %rax
	movq	%rbp, 32(%rsp)
	movq	%rbx, 24(%rsp)
	movq	$0, 56(%rsp)
	movq	%rax, 8(%rsp)
	leaq	24(%rsp), %rax
	movq	8(%rsp), %xmm0
	movq	%rax, 8(%rsp)
	leaq	32(%rsp), %rax
	movhps	8(%rsp), %xmm0
	movq	%rax, 8(%rsp)
	leaq	40(%rsp), %rax
	movaps	%xmm0, 64(%rsp)
	movq	8(%rsp), %xmm0
	movq	%rax, 8(%rsp)
	movhps	8(%rsp), %xmm0
	movaps	%xmm0, 80(%rsp)
	.byte	0x66
	leaq	_ZSt15__once_callable@tlsgd(%rip), %rdi
	.value	0x6666
	rex64
	call	__tls_get_addr@PLT
	leaq	64(%rsp), %rdx
	movq	%rdx, (%rax)
	.byte	0x66
	leaq	_ZSt11__once_call@tlsgd(%rip), %rdi
	.value	0x6666
	rex64
	call	__tls_get_addr@PLT
	cmpq	$0, _ZL28__gthrw___pthread_key_createPjPFvPvE@GOTPCREL(%rip)
	movq	_ZZSt9call_onceIMNSt13__future_base13_State_baseV2EFvPSt8functionIFSt10unique_ptrINS0_12_Result_baseENS4_8_DeleterEEvEEPbEJPS1_S9_SA_EEvRSt9once_flagOT_DpOT0_ENUlvE0_4_FUNEv@GOTPCREL(%rip), %rdx
	leaq	24(%rbx), %rdi
	movq	%rdx, (%rax)
	je	.L345
	movq	__once_proxy@GOTPCREL(%rip), %rsi
.LEHB17:
	call	_ZL20__gthrw_pthread_oncePiPFvvE@PLT
	testl	%eax, %eax
	jne	.L334
	cmpb	$0, 19(%rsp)
	jne	.L364
	movl	$2, %edi
	call	_ZSt20__throw_future_errori@PLT
	.p2align 4,,10
	.p2align 3
.L364:
	leaq	16(%rbx), %rdi
	movl	$1, %eax
	xchgl	(%rdi), %eax
	testl	%eax, %eax
	jns	.L340
	call	_ZNSt28__atomic_futex_unsigned_base19_M_futex_notify_allEPj@PLT
.LEHE17:
.L340:
	movq	112(%rsp), %rax
	testq	%rax, %rax
	je	.L339
	movl	$3, %edx
	movq	%rbp, %rsi
	movq	%rbp, %rdi
	call	*%rax
.L339:
	sfence
.L328:
	movq	136(%rsp), %rax
	xorq	%fs:40, %rax
	jne	.L365
	addq	$152, %rsp
	.cfi_remember_state
	.cfi_def_cfa_offset 40
	popq	%rbx
	.cfi_def_cfa_offset 32
	popq	%rbp
	.cfi_def_cfa_offset 24
	popq	%r12
	.cfi_def_cfa_offset 16
	popq	%r13
	.cfi_def_cfa_offset 8
	ret
	.p2align 4,,10
	.p2align 3
.L361:
	.cfi_restore_state
	movzbl	40(%rbx), %edx
	movb	%dl, (%rbx)
	movq	%rbx, (%rax)
	jmp	.L330
.L347:
	movq	%rax, %rbx
	movq	112(%rsp), %rax
	testq	%rax, %rax
	je	.L342
	movl	$3, %edx
	movq	%rbp, %rsi
	movq	%rbp, %rdi
	call	*%rax
.L342:
	movq	%rbx, %rax
.L343:
	movq	%rax, %rdi
	sfence
.LEHB18:
	call	_Unwind_Resume@PLT
.LEHE18:
.L345:
	orl	$-1, %eax
.L334:
	movl	%eax, %edi
.LEHB19:
	call	_ZSt20__throw_system_errori@PLT
.LEHE19:
.L362:
.LEHB20:
	call	_ZSt25__throw_bad_function_callv@PLT
.L346:
	jmp	.L343
.L363:
	movl	$3, %edi
	call	_ZSt20__throw_future_errori@PLT
.LEHE20:
.L365:
	call	__stack_chk_fail@PLT
	.cfi_endproc
.LFE11519:
	.section	.gcc_except_table
.LLSDA11519:
	.byte	0xff
	.byte	0xff
	.byte	0x1
	.uleb128 .LLSDACSE11519-.LLSDACSB11519
.LLSDACSB11519:
	.uleb128 .LEHB16-.LFB11519
	.uleb128 .LEHE16-.LEHB16
	.uleb128 .L346-.LFB11519
	.uleb128 0
	.uleb128 .LEHB17-.LFB11519
	.uleb128 .LEHE17-.LEHB17
	.uleb128 .L347-.LFB11519
	.uleb128 0
	.uleb128 .LEHB18-.LFB11519
	.uleb128 .LEHE18-.LEHB18
	.uleb128 0
	.uleb128 0
	.uleb128 .LEHB19-.LFB11519
	.uleb128 .LEHE19-.LEHB19
	.uleb128 .L347-.LFB11519
	.uleb128 0
	.uleb128 .LEHB20-.LFB11519
	.uleb128 .LEHE20-.LEHB20
	.uleb128 .L346-.LFB11519
	.uleb128 0
.LLSDACSE11519:
	.section	.text._ZN4asio6detail18completion_handlerIZN7asiopal8Executor10ReturnFromIN7openpal10LogFiltersEEET_RKSt8functionIFS7_vEEEUlvE_E11do_completeEPNS0_15task_io_serviceEPNS0_25task_io_service_operationERKSt10error_codem,"axG",@progbits,_ZN4asio6detail18completion_handlerIZN7asiopal8Executor10ReturnFromIN7openpal10LogFiltersEEET_RKSt8functionIFS7_vEEEUlvE_E11do_completeEPNS0_15task_io_serviceEPNS0_25task_io_service_operationERKSt10error_codem,comdat
	.size	_ZN4asio6detail18completion_handlerIZN7asiopal8Executor10ReturnFromIN7openpal10LogFiltersEEET_RKSt8functionIFS7_vEEEUlvE_E11do_completeEPNS0_15task_io_serviceEPNS0_25task_io_service_operationERKSt10error_codem, .-_ZN4asio6detail18completion_handlerIZN7asiopal8Executor10ReturnFromIN7openpal10LogFiltersEEET_RKSt8functionIFS7_vEEEUlvE_E11do_completeEPNS0_15task_io_serviceEPNS0_25task_io_service_operationERKSt10error_codem
	.section	.rodata.str1.8,"aMS",@progbits,1
	.align 8
.LC5:
	.string	"basic_string::_M_construct null not valid"
	.text
	.align 2
	.p2align 4,,15
	.type	_ZNSt7__cxx1112basic_stringIcSt11char_traitsIcESaIcEEC2EPKcRKS3_.isra.104, @function
_ZNSt7__cxx1112basic_stringIcSt11char_traitsIcESaIcEEC2EPKcRKS3_.isra.104:
.LFB13131:
	.cfi_startproc
	pushq	%r13
	.cfi_def_cfa_offset 16
	.cfi_offset 13, -16
	pushq	%r12
	.cfi_def_cfa_offset 24
	.cfi_offset 12, -24
	pushq	%rbp
	.cfi_def_cfa_offset 32
	.cfi_offset 6, -32
	pushq	%rbx
	.cfi_def_cfa_offset 40
	.cfi_offset 3, -40
	leaq	16(%rdi), %rbp
	subq	$24, %rsp
	.cfi_def_cfa_offset 64
	movq	%rbp, (%rdi)
	movq	%fs:40, %rax
	movq	%rax, 8(%rsp)
	xorl	%eax, %eax
	testq	%rsi, %rsi
	je	.L367
	movq	%rdi, %rbx
	movq	%rsi, %rdi
	movq	%rsi, %r12
	call	strlen@PLT
	cmpq	$15, %rax
	movq	%rax, %r13
	movq	%rax, (%rsp)
	ja	.L379
	cmpq	$1, %rax
	jne	.L371
	movzbl	(%r12), %edx
	movb	%dl, 16(%rbx)
.L372:
	movq	%rax, 8(%rbx)
	movb	$0, 0(%rbp,%rax)
	movq	8(%rsp), %rax
	xorq	%fs:40, %rax
	jne	.L380
	addq	$24, %rsp
	.cfi_remember_state
	.cfi_def_cfa_offset 40
	popq	%rbx
	.cfi_def_cfa_offset 32
	popq	%rbp
	.cfi_def_cfa_offset 24
	popq	%r12
	.cfi_def_cfa_offset 16
	popq	%r13
	.cfi_def_cfa_offset 8
	ret
	.p2align 4,,10
	.p2align 3
.L379:
	.cfi_restore_state
	movq	%rsp, %rsi
	xorl	%edx, %edx
	movq	%rbx, %rdi
	call	_ZNSt7__cxx1112basic_stringIcSt11char_traitsIcESaIcEE9_M_createERmm@PLT
	movq	%rax, %rbp
	movq	%rax, (%rbx)
	movq	(%rsp), %rax
	movq	%rax, 16(%rbx)
.L370:
	movq	%rbp, %rdi
	movq	%r13, %rdx
	movq	%r12, %rsi
	call	memcpy@PLT
	movq	(%rsp), %rax
	movq	(%rbx), %rbp
	jmp	.L372
	.p2align 4,,10
	.p2align 3
.L371:
	testq	%rax, %rax
	je	.L372
	jmp	.L370
.L380:
	call	__stack_chk_fail@PLT
.L367:
	leaq	.LC5(%rip), %rdi
	call	_ZSt19__throw_logic_errorPKc@PLT
	.cfi_endproc
.LFE13131:
	.size	_ZNSt7__cxx1112basic_stringIcSt11char_traitsIcESaIcEEC2EPKcRKS3_.isra.104, .-_ZNSt7__cxx1112basic_stringIcSt11char_traitsIcESaIcEEC2EPKcRKS3_.isra.104
	.section	.text._ZNK4asio6detail15system_category7messageB5cxx11Ei,"axG",@progbits,_ZNK4asio6detail15system_category7messageB5cxx11Ei,comdat
	.align 2
	.p2align 4,,15
	.weak	_ZNK4asio6detail15system_category7messageB5cxx11Ei
	.type	_ZNK4asio6detail15system_category7messageB5cxx11Ei, @function
_ZNK4asio6detail15system_category7messageB5cxx11Ei:
.LFB3576:
	.cfi_startproc
	pushq	%r13
	.cfi_def_cfa_offset 16
	.cfi_offset 13, -16
	pushq	%r12
	.cfi_def_cfa_offset 24
	.cfi_offset 12, -24
	pushq	%rbp
	.cfi_def_cfa_offset 32
	.cfi_offset 6, -32
	pushq	%rbx
	.cfi_def_cfa_offset 40
	.cfi_offset 3, -40
	leaq	16(%rdi), %rbp
	movq	%rdi, %rbx
	subq	$296, %rsp
	.cfi_def_cfa_offset 336
	movq	%fs:40, %rax
	movq	%rax, 280(%rsp)
	xorl	%eax, %eax
	cmpl	$125, %edx
	je	.L396
	pxor	%xmm0, %xmm0
	leaq	32(%rsp), %rdi
	movl	%edx, %r8d
	xorl	%eax, %eax
	movl	$30, %ecx
	leaq	16(%rsp), %rsi
	rep stosq
	movl	$256, %edx
	movl	%r8d, %edi
	movaps	%xmm0, 16(%rsp)
	call	strerror_r@PLT
	testq	%rax, %rax
	movq	%rax, %r12
	movq	%rbp, (%rbx)
	je	.L384
	movq	%rax, %rdi
	call	strlen@PLT
	cmpq	$15, %rax
	movq	%rax, %r13
	movq	%rax, 8(%rsp)
	ja	.L397
	cmpq	$1, %rax
	jne	.L388
	movzbl	(%r12), %edx
	movb	%dl, 16(%rbx)
.L389:
	movq	%rax, 8(%rbx)
	movb	$0, 0(%rbp,%rax)
.L381:
	movq	280(%rsp), %rcx
	xorq	%fs:40, %rcx
	movq	%rbx, %rax
	jne	.L398
	addq	$296, %rsp
	.cfi_remember_state
	.cfi_def_cfa_offset 40
	popq	%rbx
	.cfi_def_cfa_offset 32
	popq	%rbp
	.cfi_def_cfa_offset 24
	popq	%r12
	.cfi_def_cfa_offset 16
	popq	%r13
	.cfi_def_cfa_offset 8
	ret
	.p2align 4,,10
	.p2align 3
.L397:
	.cfi_restore_state
	leaq	8(%rsp), %rsi
	xorl	%edx, %edx
	movq	%rbx, %rdi
	call	_ZNSt7__cxx1112basic_stringIcSt11char_traitsIcESaIcEE9_M_createERmm@PLT
	movq	%rax, %rbp
	movq	%rax, (%rbx)
	movq	8(%rsp), %rax
	movq	%rax, 16(%rbx)
.L387:
	movq	%rbp, %rdi
	movq	%r13, %rdx
	movq	%r12, %rsi
	call	memcpy@PLT
	movq	8(%rsp), %rax
	movq	(%rbx), %rbp
	jmp	.L389
	.p2align 4,,10
	.p2align 3
.L396:
	leaq	8(%rsp), %rsi
	xorl	%edx, %edx
	movq	%rbp, (%rdi)
	movq	$18, 8(%rsp)
	call	_ZNSt7__cxx1112basic_stringIcSt11char_traitsIcESaIcEE9_M_createERmm@PLT
	movq	8(%rsp), %rdx
	movq	%rax, (%rbx)
	movdqa	.LC6(%rip), %xmm0
	movq	%rdx, 16(%rbx)
	movl	$11876, %edx
	movups	%xmm0, (%rax)
	movw	%dx, 16(%rax)
	movq	8(%rsp), %rax
	movq	(%rbx), %rdx
	movq	%rax, 8(%rbx)
	movb	$0, (%rdx,%rax)
	jmp	.L381
	.p2align 4,,10
	.p2align 3
.L388:
	testq	%rax, %rax
	je	.L389
	jmp	.L387
.L398:
	call	__stack_chk_fail@PLT
.L384:
	leaq	.LC5(%rip), %rdi
	call	_ZSt19__throw_logic_errorPKc@PLT
	.cfi_endproc
.LFE3576:
	.size	_ZNK4asio6detail15system_category7messageB5cxx11Ei, .-_ZNK4asio6detail15system_category7messageB5cxx11Ei
	.section	.text._ZNK4asio5error6detail17addrinfo_category7messageB5cxx11Ei,"axG",@progbits,_ZNK4asio5error6detail17addrinfo_category7messageB5cxx11Ei,comdat
	.align 2
	.p2align 4,,15
	.weak	_ZNK4asio5error6detail17addrinfo_category7messageB5cxx11Ei
	.type	_ZNK4asio5error6detail17addrinfo_category7messageB5cxx11Ei, @function
_ZNK4asio5error6detail17addrinfo_category7messageB5cxx11Ei:
.LFB3622:
	.cfi_startproc
	pushq	%rbx
	.cfi_def_cfa_offset 16
	.cfi_offset 3, -16
	movq	%rdi, %rbx
	subq	$16, %rsp
	.cfi_def_cfa_offset 32
	movq	%fs:40, %rax
	movq	%rax, 8(%rsp)
	xorl	%eax, %eax
	leaq	16(%rdi), %rax
	cmpl	$-8, %edx
	movq	%rax, (%rdi)
	je	.L405
	cmpl	$-7, %edx
	je	.L406
	xorl	%edx, %edx
	movq	%rsp, %rsi
	movq	$19, (%rsp)
	call	_ZNSt7__cxx1112basic_stringIcSt11char_traitsIcESaIcEE9_M_createERmm@PLT
	movq	(%rsp), %rdx
	movq	%rax, (%rbx)
	movdqa	.LC9(%rip), %xmm0
	movq	%rdx, 16(%rbx)
	movl	$28530, %edx
	movb	$114, 18(%rax)
	movups	%xmm0, (%rax)
	movw	%dx, 16(%rax)
	movq	(%rsp), %rax
	movq	(%rbx), %rdx
	movq	%rax, 8(%rbx)
	movb	$0, (%rdx,%rax)
.L399:
	movq	8(%rsp), %rcx
	xorq	%fs:40, %rcx
	movq	%rbx, %rax
	jne	.L407
	addq	$16, %rsp
	.cfi_remember_state
	.cfi_def_cfa_offset 16
	popq	%rbx
	.cfi_def_cfa_offset 8
	ret
	.p2align 4,,10
	.p2align 3
.L406:
	.cfi_restore_state
	xorl	%edx, %edx
	movq	%rsp, %rsi
	movq	$25, (%rsp)
	call	_ZNSt7__cxx1112basic_stringIcSt11char_traitsIcESaIcEE9_M_createERmm@PLT
	movq	(%rsp), %rdx
	movabsq	$7310593918082512243, %rcx
	movq	%rax, (%rbx)
	movdqa	.LC8(%rip), %xmm0
	movq	%rdx, 16(%rbx)
	movq	%rcx, 16(%rax)
	movups	%xmm0, (%rax)
	movb	$100, 24(%rax)
	movq	(%rsp), %rax
	movq	(%rbx), %rdx
	movq	%rax, 8(%rbx)
	movb	$0, (%rdx,%rax)
	jmp	.L399
	.p2align 4,,10
	.p2align 3
.L405:
	xorl	%edx, %edx
	movq	%rsp, %rsi
	movq	$17, (%rsp)
	call	_ZNSt7__cxx1112basic_stringIcSt11char_traitsIcESaIcEE9_M_createERmm@PLT
	movq	(%rsp), %rdx
	movq	%rax, (%rbx)
	movdqa	.LC7(%rip), %xmm0
	movq	%rdx, 16(%rbx)
	movb	$100, 16(%rax)
	movups	%xmm0, (%rax)
	movq	(%rsp), %rax
	movq	(%rbx), %rdx
	movq	%rax, 8(%rbx)
	movb	$0, (%rdx,%rax)
	jmp	.L399
.L407:
	call	__stack_chk_fail@PLT
	.cfi_endproc
.LFE3622:
	.size	_ZNK4asio5error6detail17addrinfo_category7messageB5cxx11Ei, .-_ZNK4asio5error6detail17addrinfo_category7messageB5cxx11Ei
	.section	.rodata._ZNK4asio5error6detail14netdb_category7messageB5cxx11Ei.str1.8,"aMS",@progbits,1
	.align 8
.LC10:
	.string	"Host not found (non-authoritative), try again later"
	.align 8
.LC11:
	.string	"The query is valid, but it does not have associated data"
	.align 8
.LC12:
	.string	"A non-recoverable error occurred during database lookup"
	.section	.text._ZNK4asio5error6detail14netdb_category7messageB5cxx11Ei,"axG",@progbits,_ZNK4asio5error6detail14netdb_category7messageB5cxx11Ei,comdat
	.align 2
	.p2align 4,,15
	.weak	_ZNK4asio5error6detail14netdb_category7messageB5cxx11Ei
	.type	_ZNK4asio5error6detail14netdb_category7messageB5cxx11Ei, @function
_ZNK4asio5error6detail14netdb_category7messageB5cxx11Ei:
.LFB3616:
	.cfi_startproc
	pushq	%rbx
	.cfi_def_cfa_offset 16
	.cfi_offset 3, -16
	movq	%rdi, %rbx
	subq	$16, %rsp
	.cfi_def_cfa_offset 32
	movq	%fs:40, %rax
	movq	%rax, 8(%rsp)
	xorl	%eax, %eax
	cmpl	$1, %edx
	je	.L416
	cmpl	$2, %edx
	je	.L417
	cmpl	$4, %edx
	je	.L418
	cmpl	$3, %edx
	je	.L419
	leaq	16(%rdi), %rax
	xorl	%edx, %edx
	movq	%rsp, %rsi
	movq	$16, (%rsp)
	movq	%rax, (%rdi)
	call	_ZNSt7__cxx1112basic_stringIcSt11char_traitsIcESaIcEE9_M_createERmm@PLT
	movq	(%rsp), %rdx
	movq	%rax, (%rbx)
	movdqa	.LC14(%rip), %xmm0
	movq	%rdx, 16(%rbx)
	movups	%xmm0, (%rax)
	movq	(%rsp), %rax
	movq	(%rbx), %rdx
	movq	%rax, 8(%rbx)
	movb	$0, (%rdx,%rax)
.L408:
	movq	8(%rsp), %rcx
	xorq	%fs:40, %rcx
	movq	%rbx, %rax
	jne	.L420
	addq	$16, %rsp
	.cfi_remember_state
	.cfi_def_cfa_offset 16
	popq	%rbx
	.cfi_def_cfa_offset 8
	ret
	.p2align 4,,10
	.p2align 3
.L419:
	.cfi_restore_state
	leaq	.LC12(%rip), %rsi
	call	_ZNSt7__cxx1112basic_stringIcSt11char_traitsIcESaIcEEC2EPKcRKS3_.isra.104
	jmp	.L408
	.p2align 4,,10
	.p2align 3
.L416:
	leaq	16(%rdi), %rax
	xorl	%edx, %edx
	movq	%rsp, %rsi
	movq	$30, (%rsp)
	movq	%rax, (%rdi)
	call	_ZNSt7__cxx1112basic_stringIcSt11char_traitsIcESaIcEE9_M_createERmm@PLT
	movq	(%rsp), %rdx
	movabsq	$8388361603773658465, %rcx
	movq	%rax, (%rbx)
	movdqa	.LC13(%rip), %xmm0
	movq	%rdx, 16(%rbx)
	movl	$10597, %edx
	movq	%rcx, 16(%rax)
	movups	%xmm0, (%rax)
	movl	$1986622561, 24(%rax)
	movw	%dx, 28(%rax)
	movq	(%rsp), %rax
	movq	(%rbx), %rdx
	movq	%rax, 8(%rbx)
	movb	$0, (%rdx,%rax)
	jmp	.L408
	.p2align 4,,10
	.p2align 3
.L417:
	leaq	.LC10(%rip), %rsi
	call	_ZNSt7__cxx1112basic_stringIcSt11char_traitsIcESaIcEEC2EPKcRKS3_.isra.104
	jmp	.L408
	.p2align 4,,10
	.p2align 3
.L418:
	leaq	.LC11(%rip), %rsi
	call	_ZNSt7__cxx1112basic_stringIcSt11char_traitsIcESaIcEEC2EPKcRKS3_.isra.104
	jmp	.L408
.L420:
	call	__stack_chk_fail@PLT
	.cfi_endproc
.LFE3616:
	.size	_ZNK4asio5error6detail14netdb_category7messageB5cxx11Ei, .-_ZNK4asio5error6detail14netdb_category7messageB5cxx11Ei
	.section	.rodata._ZNK4asio5error6detail13misc_category7messageB5cxx11Ei.str1.1,"aMS",@progbits,1
.LC15:
	.string	"End of file"
.LC16:
	.string	"Element not found"
	.section	.rodata._ZNK4asio5error6detail13misc_category7messageB5cxx11Ei.str1.8,"aMS",@progbits,1
	.align 8
.LC17:
	.string	"The descriptor does not fit into the select call's fd_set"
	.section	.text._ZNK4asio5error6detail13misc_category7messageB5cxx11Ei,"axG",@progbits,_ZNK4asio5error6detail13misc_category7messageB5cxx11Ei,comdat
	.align 2
	.p2align 4,,15
	.weak	_ZNK4asio5error6detail13misc_category7messageB5cxx11Ei
	.type	_ZNK4asio5error6detail13misc_category7messageB5cxx11Ei, @function
_ZNK4asio5error6detail13misc_category7messageB5cxx11Ei:
.LFB3628:
	.cfi_startproc
	cmpl	$1, %edx
	pushq	%rbx
	.cfi_def_cfa_offset 16
	.cfi_offset 3, -16
	movq	%rdi, %rbx
	je	.L428
	cmpl	$2, %edx
	je	.L429
	cmpl	$3, %edx
	je	.L430
	cmpl	$4, %edx
	je	.L431
	leaq	16(%rdi), %rax
	movabsq	$8316298233121436513, %rcx
	movl	$1919230051, 24(%rdi)
	movq	%rcx, 16(%rdi)
	movb	$114, 30(%rdi)
	movq	%rax, (%rdi)
	movl	$28530, %eax
	movq	$15, 8(%rdi)
	movw	%ax, 28(%rdi)
	movb	$0, 31(%rdi)
	movq	%rbx, %rax
	popq	%rbx
	.cfi_remember_state
	.cfi_def_cfa_offset 8
	ret
	.p2align 4,,10
	.p2align 3
.L431:
	.cfi_restore_state
	leaq	.LC17(%rip), %rsi
	call	_ZNSt7__cxx1112basic_stringIcSt11char_traitsIcESaIcEEC2EPKcRKS3_.isra.104
	movq	%rbx, %rax
	popq	%rbx
	.cfi_remember_state
	.cfi_def_cfa_offset 8
	ret
	.p2align 4,,10
	.p2align 3
.L428:
	.cfi_restore_state
	leaq	16(%rdi), %rax
	movabsq	$2340011850872286273, %rsi
	movl	$1852141679, 24(%rdi)
	movq	%rsi, 16(%rdi)
	movq	$12, 8(%rdi)
	movq	%rax, (%rdi)
	movb	$0, 28(%rdi)
	movq	%rbx, %rax
	popq	%rbx
	.cfi_remember_state
	.cfi_def_cfa_offset 8
	ret
	.p2align 4,,10
	.p2align 3
.L429:
	.cfi_restore_state
	leaq	.LC15(%rip), %rsi
	call	_ZNSt7__cxx1112basic_stringIcSt11char_traitsIcESaIcEEC2EPKcRKS3_.isra.104
	movq	%rbx, %rax
	popq	%rbx
	.cfi_remember_state
	.cfi_def_cfa_offset 8
	ret
	.p2align 4,,10
	.p2align 3
.L430:
	.cfi_restore_state
	leaq	.LC16(%rip), %rsi
	call	_ZNSt7__cxx1112basic_stringIcSt11char_traitsIcESaIcEEC2EPKcRKS3_.isra.104
	movq	%rbx, %rax
	popq	%rbx
	.cfi_def_cfa_offset 8
	ret
	.cfi_endproc
.LFE3628:
	.size	_ZNK4asio5error6detail13misc_category7messageB5cxx11Ei, .-_ZNK4asio5error6detail13misc_category7messageB5cxx11Ei
	.section	.text._ZSt20__throw_bad_weak_ptrv,"axG",@progbits,_ZSt20__throw_bad_weak_ptrv,comdat
	.p2align 4,,15
	.weak	_ZSt20__throw_bad_weak_ptrv
	.type	_ZSt20__throw_bad_weak_ptrv, @function
_ZSt20__throw_bad_weak_ptrv:
.LFB1826:
	.cfi_startproc
	movl	$8, %edi
	subq	$8, %rsp
	.cfi_def_cfa_offset 16
	call	__cxa_allocate_exception@PLT
	movq	_ZTVSt12bad_weak_ptr@GOTPCREL(%rip), %rdx
	movq	_ZTISt12bad_weak_ptr@GOTPCREL(%rip), %rsi
	movq	%rax, %rdi
	addq	$16, %rdx
	movq	%rdx, (%rax)
	movq	_ZNSt12bad_weak_ptrD1Ev@GOTPCREL(%rip), %rdx
	call	__cxa_throw@PLT
	.cfi_endproc
.LFE1826:
	.size	_ZSt20__throw_bad_weak_ptrv, .-_ZSt20__throw_bad_weak_ptrv
	.section	.text._ZN7openpal6LoggerD2Ev,"axG",@progbits,_ZN7openpal6LoggerD5Ev,comdat
	.align 2
	.p2align 4,,15
	.weak	_ZN7openpal6LoggerD2Ev
	.type	_ZN7openpal6LoggerD2Ev, @function
_ZN7openpal6LoggerD2Ev:
.LFB2781:
	.cfi_startproc
	pushq	%rbp
	.cfi_def_cfa_offset 16
	.cfi_offset 6, -16
	pushq	%rbx
	.cfi_def_cfa_offset 24
	.cfi_offset 3, -24
	movq	%rdi, %rbp
	subq	$8, %rsp
	.cfi_def_cfa_offset 32
	movq	24(%rdi), %rbx
	testq	%rbx, %rbx
	je	.L436
	cmpq	$0, _ZL28__gthrw___pthread_key_createPjPFvPvE@GOTPCREL(%rip)
	je	.L437
	lock subl	$1, 8(%rbx)
	je	.L450
.L436:
	movq	8(%rbp), %rbx
	testq	%rbx, %rbx
	je	.L434
	cmpq	$0, _ZL28__gthrw___pthread_key_createPjPFvPvE@GOTPCREL(%rip)
	je	.L443
	lock subl	$1, 8(%rbx)
	je	.L451
.L434:
	addq	$8, %rsp
	.cfi_remember_state
	.cfi_def_cfa_offset 24
	popq	%rbx
	.cfi_def_cfa_offset 16
	popq	%rbp
	.cfi_def_cfa_offset 8
	ret
	.p2align 4,,10
	.p2align 3
.L443:
	.cfi_restore_state
	movl	8(%rbx), %eax
	leal	-1(%rax), %edx
	cmpl	$1, %eax
	movl	%edx, 8(%rbx)
	jne	.L434
	movq	(%rbx), %rax
	movq	%rbx, %rdi
	call	*16(%rax)
	movl	12(%rbx), %eax
	leal	-1(%rax), %edx
	movl	%edx, 12(%rbx)
	jmp	.L448
	.p2align 4,,10
	.p2align 3
.L437:
	movl	8(%rbx), %eax
	leal	-1(%rax), %edx
	cmpl	$1, %eax
	movl	%edx, 8(%rbx)
	jne	.L436
	movq	(%rbx), %rax
	movq	%rbx, %rdi
	call	*16(%rax)
	movl	12(%rbx), %eax
	leal	-1(%rax), %edx
	movl	%edx, 12(%rbx)
	jmp	.L447
	.p2align 4,,10
	.p2align 3
.L451:
	movq	(%rbx), %rax
	movq	%rbx, %rdi
	call	*16(%rax)
	movl	$-1, %eax
	lock xaddl	%eax, 12(%rbx)
.L448:
	cmpl	$1, %eax
	jne	.L434
	movq	(%rbx), %rax
	movq	%rbx, %rdi
	movq	24(%rax), %rax
	addq	$8, %rsp
	.cfi_remember_state
	.cfi_def_cfa_offset 24
	popq	%rbx
	.cfi_def_cfa_offset 16
	popq	%rbp
	.cfi_def_cfa_offset 8
	jmp	*%rax
	.p2align 4,,10
	.p2align 3
.L450:
	.cfi_restore_state
	movq	(%rbx), %rax
	movq	%rbx, %rdi
	call	*16(%rax)
	movl	$-1, %eax
	lock xaddl	%eax, 12(%rbx)
.L447:
	cmpl	$1, %eax
	jne	.L436
	movq	(%rbx), %rax
	movq	%rbx, %rdi
	call	*24(%rax)
	jmp	.L436
	.cfi_endproc
.LFE2781:
	.size	_ZN7openpal6LoggerD2Ev, .-_ZN7openpal6LoggerD2Ev
	.weak	_ZN7openpal6LoggerD1Ev
	.set	_ZN7openpal6LoggerD1Ev,_ZN7openpal6LoggerD2Ev
	.section	.text._ZN4asio28asio_handler_is_continuationEz,"axG",@progbits,_ZN4asio28asio_handler_is_continuationEz,comdat
	.p2align 4,,15
	.weak	_ZN4asio28asio_handler_is_continuationEz
	.type	_ZN4asio28asio_handler_is_continuationEz, @function
_ZN4asio28asio_handler_is_continuationEz:
.LFB3375:
	.cfi_startproc
	xorl	%eax, %eax
	ret
	.cfi_endproc
.LFE3375:
	.size	_ZN4asio28asio_handler_is_continuationEz, .-_ZN4asio28asio_handler_is_continuationEz
	.section	.text._ZN4asio6detail14strand_service7do_postERPNS1_11strand_implEPNS0_25task_io_service_operationEb,"axG",@progbits,_ZN4asio6detail14strand_service7do_postERPNS1_11strand_implEPNS0_25task_io_service_operationEb,comdat
	.align 2
	.p2align 4,,15
	.weak	_ZN4asio6detail14strand_service7do_postERPNS1_11strand_implEPNS0_25task_io_service_operationEb
	.type	_ZN4asio6detail14strand_service7do_postERPNS1_11strand_implEPNS0_25task_io_service_operationEb, @function
_ZN4asio6detail14strand_service7do_postERPNS1_11strand_implEPNS0_25task_io_service_operationEb:
.LFB7290:
	.cfi_startproc
	pushq	%r13
	.cfi_def_cfa_offset 16
	.cfi_offset 13, -16
	pushq	%r12
	.cfi_def_cfa_offset 24
	.cfi_offset 12, -24
	movq	%rdi, %r13
	pushq	%rbp
	.cfi_def_cfa_offset 32
	.cfi_offset 6, -32
	pushq	%rbx
	.cfi_def_cfa_offset 40
	.cfi_offset 3, -40
	movq	%rsi, %rbp
	movq	%rdx, %rbx
	movl	%ecx, %r12d
	subq	$40, %rsp
	.cfi_def_cfa_offset 80
	movq	%fs:40, %rax
	movq	%rax, 24(%rsp)
	xorl	%eax, %eax
	movq	(%rsi), %rax
	leaq	24(%rax), %rdi
	call	pthread_mutex_lock@PLT
	movq	0(%rbp), %rdi
	cmpb	$0, 64(%rdi)
	je	.L454
	cmpq	$0, 80(%rdi)
	movq	$0, (%rbx)
	je	.L455
	movq	80(%rdi), %rax
	movq	%rbx, (%rax)
	movq	%rbx, 80(%rdi)
.L456:
	addq	$24, %rdi
	call	pthread_mutex_unlock@PLT
.L453:
	movq	24(%rsp), %rax
	xorq	%fs:40, %rax
	jne	.L487
	addq	$40, %rsp
	.cfi_remember_state
	.cfi_def_cfa_offset 40
	popq	%rbx
	.cfi_def_cfa_offset 32
	popq	%rbp
	.cfi_def_cfa_offset 24
	popq	%r12
	.cfi_def_cfa_offset 16
	popq	%r13
	.cfi_def_cfa_offset 8
	ret
	.p2align 4,,10
	.p2align 3
.L455:
	.cfi_restore_state
	movq	%rbx, 80(%rdi)
	movq	%rbx, 72(%rdi)
	jmp	.L456
	.p2align 4,,10
	.p2align 3
.L454:
	movb	$1, 64(%rdi)
	movq	0(%rbp), %rax
	leaq	24(%rax), %rdi
	call	pthread_mutex_unlock@PLT
	movq	0(%rbp), %rbp
	movq	$0, (%rbx)
	cmpq	$0, 96(%rbp)
	je	.L458
	movq	96(%rbp), %rax
	movq	%rbx, (%rax)
	movq	%rbx, 96(%rbp)
.L459:
	movq	40(%r13), %rbx
	cmpb	$0, 40(%rbx)
	jne	.L473
	testb	%r12b, %r12b
	je	.L460
.L473:
	.byte	0x66
	leaq	_ZN4asio6detail15keyword_tss_ptrINS0_10call_stackINS0_15task_io_serviceENS0_27task_io_service_thread_infoEE7contextEE6value_E@tlsgd(%rip), %rdi
	.value	0x6666
	rex64
	call	__tls_get_addr@PLT
	movq	(%rax), %rax
	testq	%rax, %rax
	jne	.L484
	jmp	.L460
	.p2align 4,,10
	.p2align 3
.L463:
	movq	16(%rax), %rax
	testq	%rax, %rax
	je	.L460
.L484:
	cmpq	(%rax), %rbx
	jne	.L463
	movq	8(%rax), %rax
	testq	%rax, %rax
	je	.L460
	addq	$1, 24(%rax)
	cmpq	$0, 16(%rax)
	movq	$0, 0(%rbp)
	je	.L466
	movq	16(%rax), %rdx
	movq	%rbp, (%rdx)
	movq	%rbp, 16(%rax)
	jmp	.L453
	.p2align 4,,10
	.p2align 3
.L460:
	lock addq	$1, 184(%rbx)
	leaq	48(%rbx), %r12
	movq	%r12, %rdi
	call	pthread_mutex_lock@PLT
	cmpq	$0, 200(%rbx)
	movq	$0, 0(%rbp)
	je	.L467
	movq	200(%rbx), %rax
	movq	%rbp, (%rax)
	movq	%rbp, 200(%rbx)
.L468:
	movq	136(%rbx), %rax
	orq	$1, %rax
	cmpq	$1, %rax
	movq	%rax, 136(%rbx)
	jne	.L488
	cmpb	$0, 176(%rbx)
	jne	.L471
	movq	144(%rbx), %rax
	testq	%rax, %rax
	je	.L471
	leaq	88(%rax), %rdx
	movb	$1, 176(%rbx)
	movl	96(%rax), %edi
	leaq	12(%rsp), %rcx
	movl	$3, %esi
	movl	$-2147483639, 12(%rsp)
	movq	%rdx, 16(%rsp)
	movl	88(%rax), %edx
	call	epoll_ctl@PLT
.L471:
	movq	%r12, %rdi
	call	pthread_mutex_unlock@PLT
	jmp	.L453
	.p2align 4,,10
	.p2align 3
.L458:
	movq	%rbx, 96(%rbp)
	movq	%rbx, 88(%rbp)
	jmp	.L459
	.p2align 4,,10
	.p2align 3
.L488:
	movq	%r12, %rdi
	call	pthread_mutex_unlock@PLT
	leaq	88(%rbx), %rdi
	call	pthread_cond_signal@PLT
	jmp	.L453
	.p2align 4,,10
	.p2align 3
.L466:
	movq	%rbp, 16(%rax)
	movq	%rbp, 8(%rax)
	jmp	.L453
	.p2align 4,,10
	.p2align 3
.L467:
	movq	%rbp, 200(%rbx)
	movq	%rbp, 192(%rbx)
	jmp	.L468
.L487:
	call	__stack_chk_fail@PLT
	.cfi_endproc
.LFE7290:
	.size	_ZN4asio6detail14strand_service7do_postERPNS1_11strand_implEPNS0_25task_io_service_operationEb, .-_ZN4asio6detail14strand_service7do_postERPNS1_11strand_implEPNS0_25task_io_service_operationEb
	.section	.text._ZNSt13__future_base13_State_baseV24waitEv,"axG",@progbits,_ZNSt13__future_base13_State_baseV24waitEv,comdat
	.align 2
	.p2align 4,,15
	.weak	_ZNSt13__future_base13_State_baseV24waitEv
	.type	_ZNSt13__future_base13_State_baseV24waitEv, @function
_ZNSt13__future_base13_State_baseV24waitEv:
.LFB7525:
	.cfi_startproc
	pushq	%rbp
	.cfi_def_cfa_offset 16
	.cfi_offset 6, -16
	pushq	%rbx
	.cfi_def_cfa_offset 24
	.cfi_offset 3, -24
	movq	%rdi, %rbp
	subq	$8, %rsp
	.cfi_def_cfa_offset 32
	movq	(%rdi), %rax
	call	*16(%rax)
	movl	16(%rbp), %edx
	andl	$2147483647, %edx
	cmpl	$1, %edx
	je	.L490
	leaq	16(%rbp), %rbx
	.p2align 4,,10
	.p2align 3
.L491:
	lock orl	$-2147483648, (%rbx)
	xorl	%ecx, %ecx
	xorl	%r9d, %r9d
	xorl	%r8d, %r8d
	orl	$-2147483648, %edx
	movq	%rbx, %rsi
	movq	%rbx, %rdi
	call	_ZNSt28__atomic_futex_unsigned_base19_M_futex_wait_untilEPjjbNSt6chrono8durationIlSt5ratioILl1ELl1EEEENS2_IlS3_ILl1ELl1000000000EEEE@PLT
	movl	(%rbx), %edx
	xorl	$1, %eax
	andl	$2147483647, %edx
	cmpl	$1, %edx
	sete	%cl
	orb	%cl, %al
	je	.L491
.L490:
	movq	8(%rbp), %rax
	addq	$8, %rsp
	.cfi_def_cfa_offset 24
	popq	%rbx
	.cfi_def_cfa_offset 16
	popq	%rbp
	.cfi_def_cfa_offset 8
	ret
	.cfi_endproc
.LFE7525:
	.size	_ZNSt13__future_base13_State_baseV24waitEv, .-_ZNSt13__future_base13_State_baseV24waitEv
	.section	.text._ZZSt9call_onceIMNSt13__future_base13_State_baseV2EFvPSt8functionIFSt10unique_ptrINS0_12_Result_baseENS4_8_DeleterEEvEEPbEJPS1_S9_SA_EEvRSt9once_flagOT_DpOT0_ENKUlvE0_clEv,"axG",@progbits,_ZZSt9call_onceIMNSt13__future_base13_State_baseV2EFvPSt8functionIFSt10unique_ptrINS0_12_Result_baseENS4_8_DeleterEEvEEPbEJPS1_S9_SA_EEvRSt9once_flagOT_DpOT0_ENKUlvE0_clEv,comdat
	.align 2
	.p2align 4,,15
	.weak	_ZZSt9call_onceIMNSt13__future_base13_State_baseV2EFvPSt8functionIFSt10unique_ptrINS0_12_Result_baseENS4_8_DeleterEEvEEPbEJPS1_S9_SA_EEvRSt9once_flagOT_DpOT0_ENKUlvE0_clEv
	.type	_ZZSt9call_onceIMNSt13__future_base13_State_baseV2EFvPSt8functionIFSt10unique_ptrINS0_12_Result_baseENS4_8_DeleterEEvEEPbEJPS1_S9_SA_EEvRSt9once_flagOT_DpOT0_ENKUlvE0_clEv, @function
_ZZSt9call_onceIMNSt13__future_base13_State_baseV2EFvPSt8functionIFSt10unique_ptrINS0_12_Result_baseENS4_8_DeleterEEvEEPbEJPS1_S9_SA_EEvRSt9once_flagOT_DpOT0_ENKUlvE0_clEv:
.LFB9290:
	.cfi_startproc
	subq	$8, %rsp
	.cfi_def_cfa_offset 16
	.byte	0x66
	leaq	_ZSt15__once_callable@tlsgd(%rip), %rdi
	.value	0x6666
	rex64
	call	__tls_get_addr@PLT
	movq	(%rax), %rax
	movq	16(%rax), %rdx
	movq	(%rax), %rcx
	movq	(%rdx), %rsi
	movq	24(%rax), %rdx
	movq	8(%rax), %rax
	movq	8(%rcx), %rdi
	movq	(%rdx), %rdx
	addq	(%rax), %rdi
	movq	(%rcx), %rax
	testb	$1, %al
	je	.L499
	movq	(%rdi), %rcx
	movq	-1(%rcx,%rax), %rax
.L499:
	addq	$8, %rsp
	.cfi_def_cfa_offset 8
	jmp	*%rax
	.cfi_endproc
.LFE9290:
	.size	_ZZSt9call_onceIMNSt13__future_base13_State_baseV2EFvPSt8functionIFSt10unique_ptrINS0_12_Result_baseENS4_8_DeleterEEvEEPbEJPS1_S9_SA_EEvRSt9once_flagOT_DpOT0_ENKUlvE0_clEv, .-_ZZSt9call_onceIMNSt13__future_base13_State_baseV2EFvPSt8functionIFSt10unique_ptrINS0_12_Result_baseENS4_8_DeleterEEvEEPbEJPS1_S9_SA_EEvRSt9once_flagOT_DpOT0_ENKUlvE0_clEv
	.section	.text._ZZZN8asiodnp311DNP3Channel8AddStackINS_11MasterStackEEESt10shared_ptrIT_ERKN8opendnp310LinkConfigERKS5_ENKUlvE_clEvENUlvE_D2Ev,"axG",@progbits,_ZZZN8asiodnp311DNP3Channel8AddStackINS_11MasterStackEEESt10shared_ptrIT_ERKN8opendnp310LinkConfigERKS5_ENKUlvE_clEvENUlvE_D5Ev,comdat
	.align 2
	.p2align 4,,15
	.weak	_ZZZN8asiodnp311DNP3Channel8AddStackINS_11MasterStackEEESt10shared_ptrIT_ERKN8opendnp310LinkConfigERKS5_ENKUlvE_clEvENUlvE_D2Ev
	.type	_ZZZN8asiodnp311DNP3Channel8AddStackINS_11MasterStackEEESt10shared_ptrIT_ERKN8opendnp310LinkConfigERKS5_ENKUlvE_clEvENUlvE_D2Ev, @function
_ZZZN8asiodnp311DNP3Channel8AddStackINS_11MasterStackEEESt10shared_ptrIT_ERKN8opendnp310LinkConfigERKS5_ENKUlvE_clEvENUlvE_D2Ev:
.LFB9622:
	.cfi_startproc
	pushq	%rbp
	.cfi_def_cfa_offset 16
	.cfi_offset 6, -16
	pushq	%rbx
	.cfi_def_cfa_offset 24
	.cfi_offset 3, -24
	movq	%rdi, %rbp
	subq	$8, %rsp
	.cfi_def_cfa_offset 32
	movq	32(%rdi), %rbx
	testq	%rbx, %rbx
	je	.L506
	cmpq	$0, _ZL28__gthrw___pthread_key_createPjPFvPvE@GOTPCREL(%rip)
	je	.L507
	lock subl	$1, 8(%rbx)
	je	.L520
.L506:
	movq	8(%rbp), %rbx
	testq	%rbx, %rbx
	je	.L504
	cmpq	$0, _ZL28__gthrw___pthread_key_createPjPFvPvE@GOTPCREL(%rip)
	je	.L513
	lock subl	$1, 8(%rbx)
	je	.L521
.L504:
	addq	$8, %rsp
	.cfi_remember_state
	.cfi_def_cfa_offset 24
	popq	%rbx
	.cfi_def_cfa_offset 16
	popq	%rbp
	.cfi_def_cfa_offset 8
	ret
	.p2align 4,,10
	.p2align 3
.L513:
	.cfi_restore_state
	movl	8(%rbx), %eax
	leal	-1(%rax), %edx
	cmpl	$1, %eax
	movl	%edx, 8(%rbx)
	jne	.L504
	movq	(%rbx), %rax
	movq	%rbx, %rdi
	call	*16(%rax)
	movl	12(%rbx), %eax
	leal	-1(%rax), %edx
	movl	%edx, 12(%rbx)
	jmp	.L518
	.p2align 4,,10
	.p2align 3
.L507:
	movl	8(%rbx), %eax
	leal	-1(%rax), %edx
	cmpl	$1, %eax
	movl	%edx, 8(%rbx)
	jne	.L506
	movq	(%rbx), %rax
	movq	%rbx, %rdi
	call	*16(%rax)
	movl	12(%rbx), %eax
	leal	-1(%rax), %edx
	movl	%edx, 12(%rbx)
	jmp	.L517
	.p2align 4,,10
	.p2align 3
.L521:
	movq	(%rbx), %rax
	movq	%rbx, %rdi
	call	*16(%rax)
	movl	$-1, %eax
	lock xaddl	%eax, 12(%rbx)
.L518:
	cmpl	$1, %eax
	jne	.L504
	movq	(%rbx), %rax
	movq	%rbx, %rdi
	movq	24(%rax), %rax
	addq	$8, %rsp
	.cfi_remember_state
	.cfi_def_cfa_offset 24
	popq	%rbx
	.cfi_def_cfa_offset 16
	popq	%rbp
	.cfi_def_cfa_offset 8
	jmp	*%rax
	.p2align 4,,10
	.p2align 3
.L520:
	.cfi_restore_state
	movq	(%rbx), %rax
	movq	%rbx, %rdi
	call	*16(%rax)
	movl	$-1, %eax
	lock xaddl	%eax, 12(%rbx)
.L517:
	cmpl	$1, %eax
	jne	.L506
	movq	(%rbx), %rax
	movq	%rbx, %rdi
	call	*24(%rax)
	jmp	.L506
	.cfi_endproc
.LFE9622:
	.size	_ZZZN8asiodnp311DNP3Channel8AddStackINS_11MasterStackEEESt10shared_ptrIT_ERKN8opendnp310LinkConfigERKS5_ENKUlvE_clEvENUlvE_D2Ev, .-_ZZZN8asiodnp311DNP3Channel8AddStackINS_11MasterStackEEESt10shared_ptrIT_ERKN8opendnp310LinkConfigERKS5_ENKUlvE_clEvENUlvE_D2Ev
	.weak	_ZZZN8asiodnp311DNP3Channel8AddStackINS_11MasterStackEEESt10shared_ptrIT_ERKN8opendnp310LinkConfigERKS5_ENKUlvE_clEvENUlvE_D1Ev
	.set	_ZZZN8asiodnp311DNP3Channel8AddStackINS_11MasterStackEEESt10shared_ptrIT_ERKN8opendnp310LinkConfigERKS5_ENKUlvE_clEvENUlvE_D1Ev,_ZZZN8asiodnp311DNP3Channel8AddStackINS_11MasterStackEEESt10shared_ptrIT_ERKN8opendnp310LinkConfigERKS5_ENKUlvE_clEvENUlvE_D2Ev
	.section	.text._ZZN8asiodnp311DNP3Channel8AddStackINS_11MasterStackEEESt10shared_ptrIT_ERKN8opendnp310LinkConfigERKS5_ENUlvE_D2Ev,"axG",@progbits,_ZZN8asiodnp311DNP3Channel8AddStackINS_11MasterStackEEESt10shared_ptrIT_ERKN8opendnp310LinkConfigERKS5_ENUlvE_D5Ev,comdat
	.align 2
	.p2align 4,,15
	.weak	_ZZN8asiodnp311DNP3Channel8AddStackINS_11MasterStackEEESt10shared_ptrIT_ERKN8opendnp310LinkConfigERKS5_ENUlvE_D2Ev
	.type	_ZZN8asiodnp311DNP3Channel8AddStackINS_11MasterStackEEESt10shared_ptrIT_ERKN8opendnp310LinkConfigERKS5_ENUlvE_D2Ev, @function
_ZZN8asiodnp311DNP3Channel8AddStackINS_11MasterStackEEESt10shared_ptrIT_ERKN8opendnp310LinkConfigERKS5_ENUlvE_D2Ev:
.LFB9634:
	.cfi_startproc
	pushq	%rbp
	.cfi_def_cfa_offset 16
	.cfi_offset 6, -16
	pushq	%rbx
	.cfi_def_cfa_offset 24
	.cfi_offset 3, -24
	movq	%rdi, %rbp
	subq	$8, %rsp
	.cfi_def_cfa_offset 32
	movq	32(%rdi), %rbx
	testq	%rbx, %rbx
	je	.L524
	cmpq	$0, _ZL28__gthrw___pthread_key_createPjPFvPvE@GOTPCREL(%rip)
	je	.L525
	lock subl	$1, 8(%rbx)
	je	.L538
.L524:
	movq	8(%rbp), %rbx
	testq	%rbx, %rbx
	je	.L522
	cmpq	$0, _ZL28__gthrw___pthread_key_createPjPFvPvE@GOTPCREL(%rip)
	je	.L531
	lock subl	$1, 8(%rbx)
	je	.L539
.L522:
	addq	$8, %rsp
	.cfi_remember_state
	.cfi_def_cfa_offset 24
	popq	%rbx
	.cfi_def_cfa_offset 16
	popq	%rbp
	.cfi_def_cfa_offset 8
	ret
	.p2align 4,,10
	.p2align 3
.L531:
	.cfi_restore_state
	movl	8(%rbx), %eax
	leal	-1(%rax), %edx
	cmpl	$1, %eax
	movl	%edx, 8(%rbx)
	jne	.L522
	movq	(%rbx), %rax
	movq	%rbx, %rdi
	call	*16(%rax)
	movl	12(%rbx), %eax
	leal	-1(%rax), %edx
	movl	%edx, 12(%rbx)
	jmp	.L536
	.p2align 4,,10
	.p2align 3
.L525:
	movl	8(%rbx), %eax
	leal	-1(%rax), %edx
	cmpl	$1, %eax
	movl	%edx, 8(%rbx)
	jne	.L524
	movq	(%rbx), %rax
	movq	%rbx, %rdi
	call	*16(%rax)
	movl	12(%rbx), %eax
	leal	-1(%rax), %edx
	movl	%edx, 12(%rbx)
	jmp	.L535
	.p2align 4,,10
	.p2align 3
.L539:
	movq	(%rbx), %rax
	movq	%rbx, %rdi
	call	*16(%rax)
	movl	$-1, %eax
	lock xaddl	%eax, 12(%rbx)
.L536:
	cmpl	$1, %eax
	jne	.L522
	movq	(%rbx), %rax
	movq	%rbx, %rdi
	movq	24(%rax), %rax
	addq	$8, %rsp
	.cfi_remember_state
	.cfi_def_cfa_offset 24
	popq	%rbx
	.cfi_def_cfa_offset 16
	popq	%rbp
	.cfi_def_cfa_offset 8
	jmp	*%rax
	.p2align 4,,10
	.p2align 3
.L538:
	.cfi_restore_state
	movq	(%rbx), %rax
	movq	%rbx, %rdi
	call	*16(%rax)
	movl	$-1, %eax
	lock xaddl	%eax, 12(%rbx)
.L535:
	cmpl	$1, %eax
	jne	.L524
	movq	(%rbx), %rax
	movq	%rbx, %rdi
	call	*24(%rax)
	jmp	.L524
	.cfi_endproc
.LFE9634:
	.size	_ZZN8asiodnp311DNP3Channel8AddStackINS_11MasterStackEEESt10shared_ptrIT_ERKN8opendnp310LinkConfigERKS5_ENUlvE_D2Ev, .-_ZZN8asiodnp311DNP3Channel8AddStackINS_11MasterStackEEESt10shared_ptrIT_ERKN8opendnp310LinkConfigERKS5_ENUlvE_D2Ev
	.weak	_ZZN8asiodnp311DNP3Channel8AddStackINS_11MasterStackEEESt10shared_ptrIT_ERKN8opendnp310LinkConfigERKS5_ENUlvE_D1Ev
	.set	_ZZN8asiodnp311DNP3Channel8AddStackINS_11MasterStackEEESt10shared_ptrIT_ERKN8opendnp310LinkConfigERKS5_ENUlvE_D1Ev,_ZZN8asiodnp311DNP3Channel8AddStackINS_11MasterStackEEESt10shared_ptrIT_ERKN8opendnp310LinkConfigERKS5_ENUlvE_D2Ev
	.section	.text._ZZZN8asiodnp311DNP3Channel8AddStackINS_15OutstationStackEEESt10shared_ptrIT_ERKN8opendnp310LinkConfigERKS5_ENKUlvE_clEvENUlvE_D2Ev,"axG",@progbits,_ZZZN8asiodnp311DNP3Channel8AddStackINS_15OutstationStackEEESt10shared_ptrIT_ERKN8opendnp310LinkConfigERKS5_ENKUlvE_clEvENUlvE_D5Ev,comdat
	.align 2
	.p2align 4,,15
	.weak	_ZZZN8asiodnp311DNP3Channel8AddStackINS_15OutstationStackEEESt10shared_ptrIT_ERKN8opendnp310LinkConfigERKS5_ENKUlvE_clEvENUlvE_D2Ev
	.type	_ZZZN8asiodnp311DNP3Channel8AddStackINS_15OutstationStackEEESt10shared_ptrIT_ERKN8opendnp310LinkConfigERKS5_ENKUlvE_clEvENUlvE_D2Ev, @function
_ZZZN8asiodnp311DNP3Channel8AddStackINS_15OutstationStackEEESt10shared_ptrIT_ERKN8opendnp310LinkConfigERKS5_ENKUlvE_clEvENUlvE_D2Ev:
.LFB9656:
	.cfi_startproc
	pushq	%rbp
	.cfi_def_cfa_offset 16
	.cfi_offset 6, -16
	pushq	%rbx
	.cfi_def_cfa_offset 24
	.cfi_offset 3, -24
	movq	%rdi, %rbp
	subq	$8, %rsp
	.cfi_def_cfa_offset 32
	movq	32(%rdi), %rbx
	testq	%rbx, %rbx
	je	.L542
	cmpq	$0, _ZL28__gthrw___pthread_key_createPjPFvPvE@GOTPCREL(%rip)
	je	.L543
	lock subl	$1, 8(%rbx)
	je	.L556
.L542:
	movq	8(%rbp), %rbx
	testq	%rbx, %rbx
	je	.L540
	cmpq	$0, _ZL28__gthrw___pthread_key_createPjPFvPvE@GOTPCREL(%rip)
	je	.L549
	lock subl	$1, 8(%rbx)
	je	.L557
.L540:
	addq	$8, %rsp
	.cfi_remember_state
	.cfi_def_cfa_offset 24
	popq	%rbx
	.cfi_def_cfa_offset 16
	popq	%rbp
	.cfi_def_cfa_offset 8
	ret
	.p2align 4,,10
	.p2align 3
.L549:
	.cfi_restore_state
	movl	8(%rbx), %eax
	leal	-1(%rax), %edx
	cmpl	$1, %eax
	movl	%edx, 8(%rbx)
	jne	.L540
	movq	(%rbx), %rax
	movq	%rbx, %rdi
	call	*16(%rax)
	movl	12(%rbx), %eax
	leal	-1(%rax), %edx
	movl	%edx, 12(%rbx)
	jmp	.L554
	.p2align 4,,10
	.p2align 3
.L543:
	movl	8(%rbx), %eax
	leal	-1(%rax), %edx
	cmpl	$1, %eax
	movl	%edx, 8(%rbx)
	jne	.L542
	movq	(%rbx), %rax
	movq	%rbx, %rdi
	call	*16(%rax)
	movl	12(%rbx), %eax
	leal	-1(%rax), %edx
	movl	%edx, 12(%rbx)
	jmp	.L553
	.p2align 4,,10
	.p2align 3
.L557:
	movq	(%rbx), %rax
	movq	%rbx, %rdi
	call	*16(%rax)
	movl	$-1, %eax
	lock xaddl	%eax, 12(%rbx)
.L554:
	cmpl	$1, %eax
	jne	.L540
	movq	(%rbx), %rax
	movq	%rbx, %rdi
	movq	24(%rax), %rax
	addq	$8, %rsp
	.cfi_remember_state
	.cfi_def_cfa_offset 24
	popq	%rbx
	.cfi_def_cfa_offset 16
	popq	%rbp
	.cfi_def_cfa_offset 8
	jmp	*%rax
	.p2align 4,,10
	.p2align 3
.L556:
	.cfi_restore_state
	movq	(%rbx), %rax
	movq	%rbx, %rdi
	call	*16(%rax)
	movl	$-1, %eax
	lock xaddl	%eax, 12(%rbx)
.L553:
	cmpl	$1, %eax
	jne	.L542
	movq	(%rbx), %rax
	movq	%rbx, %rdi
	call	*24(%rax)
	jmp	.L542
	.cfi_endproc
.LFE9656:
	.size	_ZZZN8asiodnp311DNP3Channel8AddStackINS_15OutstationStackEEESt10shared_ptrIT_ERKN8opendnp310LinkConfigERKS5_ENKUlvE_clEvENUlvE_D2Ev, .-_ZZZN8asiodnp311DNP3Channel8AddStackINS_15OutstationStackEEESt10shared_ptrIT_ERKN8opendnp310LinkConfigERKS5_ENKUlvE_clEvENUlvE_D2Ev
	.weak	_ZZZN8asiodnp311DNP3Channel8AddStackINS_15OutstationStackEEESt10shared_ptrIT_ERKN8opendnp310LinkConfigERKS5_ENKUlvE_clEvENUlvE_D1Ev
	.set	_ZZZN8asiodnp311DNP3Channel8AddStackINS_15OutstationStackEEESt10shared_ptrIT_ERKN8opendnp310LinkConfigERKS5_ENKUlvE_clEvENUlvE_D1Ev,_ZZZN8asiodnp311DNP3Channel8AddStackINS_15OutstationStackEEESt10shared_ptrIT_ERKN8opendnp310LinkConfigERKS5_ENKUlvE_clEvENUlvE_D2Ev
	.section	.text._ZZN8asiodnp311DNP3Channel8AddStackINS_15OutstationStackEEESt10shared_ptrIT_ERKN8opendnp310LinkConfigERKS5_ENUlvE_D2Ev,"axG",@progbits,_ZZN8asiodnp311DNP3Channel8AddStackINS_15OutstationStackEEESt10shared_ptrIT_ERKN8opendnp310LinkConfigERKS5_ENUlvE_D5Ev,comdat
	.align 2
	.p2align 4,,15
	.weak	_ZZN8asiodnp311DNP3Channel8AddStackINS_15OutstationStackEEESt10shared_ptrIT_ERKN8opendnp310LinkConfigERKS5_ENUlvE_D2Ev
	.type	_ZZN8asiodnp311DNP3Channel8AddStackINS_15OutstationStackEEESt10shared_ptrIT_ERKN8opendnp310LinkConfigERKS5_ENUlvE_D2Ev, @function
_ZZN8asiodnp311DNP3Channel8AddStackINS_15OutstationStackEEESt10shared_ptrIT_ERKN8opendnp310LinkConfigERKS5_ENUlvE_D2Ev:
.LFB9665:
	.cfi_startproc
	pushq	%rbp
	.cfi_def_cfa_offset 16
	.cfi_offset 6, -16
	pushq	%rbx
	.cfi_def_cfa_offset 24
	.cfi_offset 3, -24
	movq	%rdi, %rbp
	subq	$8, %rsp
	.cfi_def_cfa_offset 32
	movq	32(%rdi), %rbx
	testq	%rbx, %rbx
	je	.L560
	cmpq	$0, _ZL28__gthrw___pthread_key_createPjPFvPvE@GOTPCREL(%rip)
	je	.L561
	lock subl	$1, 8(%rbx)
	je	.L574
.L560:
	movq	8(%rbp), %rbx
	testq	%rbx, %rbx
	je	.L558
	cmpq	$0, _ZL28__gthrw___pthread_key_createPjPFvPvE@GOTPCREL(%rip)
	je	.L567
	lock subl	$1, 8(%rbx)
	je	.L575
.L558:
	addq	$8, %rsp
	.cfi_remember_state
	.cfi_def_cfa_offset 24
	popq	%rbx
	.cfi_def_cfa_offset 16
	popq	%rbp
	.cfi_def_cfa_offset 8
	ret
	.p2align 4,,10
	.p2align 3
.L567:
	.cfi_restore_state
	movl	8(%rbx), %eax
	leal	-1(%rax), %edx
	cmpl	$1, %eax
	movl	%edx, 8(%rbx)
	jne	.L558
	movq	(%rbx), %rax
	movq	%rbx, %rdi
	call	*16(%rax)
	movl	12(%rbx), %eax
	leal	-1(%rax), %edx
	movl	%edx, 12(%rbx)
	jmp	.L572
	.p2align 4,,10
	.p2align 3
.L561:
	movl	8(%rbx), %eax
	leal	-1(%rax), %edx
	cmpl	$1, %eax
	movl	%edx, 8(%rbx)
	jne	.L560
	movq	(%rbx), %rax
	movq	%rbx, %rdi
	call	*16(%rax)
	movl	12(%rbx), %eax
	leal	-1(%rax), %edx
	movl	%edx, 12(%rbx)
	jmp	.L571
	.p2align 4,,10
	.p2align 3
.L575:
	movq	(%rbx), %rax
	movq	%rbx, %rdi
	call	*16(%rax)
	movl	$-1, %eax
	lock xaddl	%eax, 12(%rbx)
.L572:
	cmpl	$1, %eax
	jne	.L558
	movq	(%rbx), %rax
	movq	%rbx, %rdi
	movq	24(%rax), %rax
	addq	$8, %rsp
	.cfi_remember_state
	.cfi_def_cfa_offset 24
	popq	%rbx
	.cfi_def_cfa_offset 16
	popq	%rbp
	.cfi_def_cfa_offset 8
	jmp	*%rax
	.p2align 4,,10
	.p2align 3
.L574:
	.cfi_restore_state
	movq	(%rbx), %rax
	movq	%rbx, %rdi
	call	*16(%rax)
	movl	$-1, %eax
	lock xaddl	%eax, 12(%rbx)
.L571:
	cmpl	$1, %eax
	jne	.L560
	movq	(%rbx), %rax
	movq	%rbx, %rdi
	call	*24(%rax)
	jmp	.L560
	.cfi_endproc
.LFE9665:
	.size	_ZZN8asiodnp311DNP3Channel8AddStackINS_15OutstationStackEEESt10shared_ptrIT_ERKN8opendnp310LinkConfigERKS5_ENUlvE_D2Ev, .-_ZZN8asiodnp311DNP3Channel8AddStackINS_15OutstationStackEEESt10shared_ptrIT_ERKN8opendnp310LinkConfigERKS5_ENUlvE_D2Ev
	.weak	_ZZN8asiodnp311DNP3Channel8AddStackINS_15OutstationStackEEESt10shared_ptrIT_ERKN8opendnp310LinkConfigERKS5_ENUlvE_D1Ev
	.set	_ZZN8asiodnp311DNP3Channel8AddStackINS_15OutstationStackEEESt10shared_ptrIT_ERKN8opendnp310LinkConfigERKS5_ENUlvE_D1Ev,_ZZN8asiodnp311DNP3Channel8AddStackINS_15OutstationStackEEESt10shared_ptrIT_ERKN8opendnp310LinkConfigERKS5_ENUlvE_D2Ev
	.section	.text._ZNSt16_Sp_counted_baseILN9__gnu_cxx12_Lock_policyE2EE10_M_releaseEv,"axG",@progbits,_ZNSt16_Sp_counted_baseILN9__gnu_cxx12_Lock_policyE2EE10_M_releaseEv,comdat
	.align 2
	.p2align 4,,15
	.weak	_ZNSt16_Sp_counted_baseILN9__gnu_cxx12_Lock_policyE2EE10_M_releaseEv
	.type	_ZNSt16_Sp_counted_baseILN9__gnu_cxx12_Lock_policyE2EE10_M_releaseEv, @function
_ZNSt16_Sp_counted_baseILN9__gnu_cxx12_Lock_policyE2EE10_M_releaseEv:
.LFB9789:
	.cfi_startproc
	cmpq	$0, _ZL28__gthrw___pthread_key_createPjPFvPvE@GOTPCREL(%rip)
	pushq	%rbx
	.cfi_def_cfa_offset 16
	.cfi_offset 3, -16
	movq	%rdi, %rbx
	je	.L577
	lock subl	$1, 8(%rdi)
	je	.L584
.L576:
	popq	%rbx
	.cfi_remember_state
	.cfi_def_cfa_offset 8
	ret
	.p2align 4,,10
	.p2align 3
.L577:
	.cfi_restore_state
	movl	8(%rdi), %eax
	leal	-1(%rax), %edx
	cmpl	$1, %eax
	movl	%edx, 8(%rdi)
	jne	.L576
	movq	(%rdi), %rax
	call	*16(%rax)
	movl	12(%rbx), %eax
	leal	-1(%rax), %edx
	movl	%edx, 12(%rbx)
	jmp	.L582
	.p2align 4,,10
	.p2align 3
.L584:
	movq	(%rdi), %rax
	call	*16(%rax)
	movl	$-1, %eax
	lock xaddl	%eax, 12(%rbx)
.L582:
	cmpl	$1, %eax
	jne	.L576
	movq	(%rbx), %rax
	movq	%rbx, %rdi
	popq	%rbx
	.cfi_def_cfa_offset 8
	movq	24(%rax), %rax
	jmp	*%rax
	.cfi_endproc
.LFE9789:
	.size	_ZNSt16_Sp_counted_baseILN9__gnu_cxx12_Lock_policyE2EE10_M_releaseEv, .-_ZNSt16_Sp_counted_baseILN9__gnu_cxx12_Lock_policyE2EE10_M_releaseEv
	.text
	.p2align 4,,15
	.type	_ZNSt14_Function_base13_Base_managerIZN8asiodnp311DNP3Channel8ShutdownEvEUlvE_E10_M_managerERSt9_Any_dataRKS5_St18_Manager_operation, @function
_ZNSt14_Function_base13_Base_managerIZN8asiodnp311DNP3Channel8ShutdownEvEUlvE_E10_M_managerERSt9_Any_dataRKS5_St18_Manager_operation:
.LFB10260:
	.cfi_startproc
	cmpl	$1, %edx
	je	.L587
	jb	.L588
	pushq	%rbp
	.cfi_def_cfa_offset 16
	.cfi_offset 6, -16
	pushq	%rbx
	.cfi_def_cfa_offset 24
	.cfi_offset 3, -24
	movq	%rdi, %rbx
	subq	$8, %rsp
	.cfi_def_cfa_offset 32
	cmpl	$2, %edx
	je	.L589
	cmpl	$3, %edx
	jne	.L586
	movq	(%rdi), %rbx
	testq	%rbx, %rbx
	je	.L586
	movq	8(%rbx), %rdi
	testq	%rdi, %rdi
	je	.L593
	call	_ZNSt16_Sp_counted_baseILN9__gnu_cxx12_Lock_policyE2EE10_M_releaseEv@PLT
.L593:
	movl	$16, %esi
	movq	%rbx, %rdi
	call	_ZdlPvm@PLT
.L586:
	addq	$8, %rsp
	.cfi_remember_state
	.cfi_def_cfa_offset 24
	xorl	%eax, %eax
	popq	%rbx
	.cfi_def_cfa_offset 16
	popq	%rbp
	.cfi_def_cfa_offset 8
	ret
	.p2align 4,,10
	.p2align 3
.L589:
	.cfi_restore_state
	movq	(%rsi), %rbp
	movl	$16, %edi
	call	_Znwm@PLT
	movq	0(%rbp), %rdx
	movq	%rdx, (%rax)
	movq	8(%rbp), %rdx
	testq	%rdx, %rdx
	movq	%rdx, 8(%rax)
	je	.L591
	cmpq	$0, _ZL28__gthrw___pthread_key_createPjPFvPvE@GOTPCREL(%rip)
	je	.L592
	lock addl	$1, 8(%rdx)
.L591:
	movq	%rax, (%rbx)
	addq	$8, %rsp
	.cfi_def_cfa_offset 24
	xorl	%eax, %eax
	popq	%rbx
	.cfi_def_cfa_offset 16
	popq	%rbp
	.cfi_def_cfa_offset 8
	ret
	.p2align 4,,10
	.p2align 3
.L588:
	.cfi_restore 3
	.cfi_restore 6
	leaq	_ZTIZN8asiodnp311DNP3Channel8ShutdownEvEUlvE_(%rip), %rax
	movq	%rax, (%rdi)
	xorl	%eax, %eax
	ret
	.p2align 4,,10
	.p2align 3
.L587:
	movq	(%rsi), %rax
	movq	%rax, (%rdi)
	xorl	%eax, %eax
	ret
	.p2align 4,,10
	.p2align 3
.L592:
	.cfi_def_cfa_offset 32
	.cfi_offset 3, -24
	.cfi_offset 6, -16
	addl	$1, 8(%rdx)
	jmp	.L591
	.cfi_endproc
.LFE10260:
	.size	_ZNSt14_Function_base13_Base_managerIZN8asiodnp311DNP3Channel8ShutdownEvEUlvE_E10_M_managerERSt9_Any_dataRKS5_St18_Manager_operation, .-_ZNSt14_Function_base13_Base_managerIZN8asiodnp311DNP3Channel8ShutdownEvEUlvE_E10_M_managerERSt9_Any_dataRKS5_St18_Manager_operation
	.section	.text._ZNSt17_Function_handlerIFbvEZZN8asiodnp311DNP3Channel8AddStackINS1_11MasterStackEEESt10shared_ptrIT_ERKN8opendnp310LinkConfigERKS7_ENKUlvE_clEvEUlvE_E9_M_invokeERKSt9_Any_data,"axG",@progbits,_ZNSt17_Function_handlerIFbvEZZN8asiodnp311DNP3Channel8AddStackINS1_11MasterStackEEESt10shared_ptrIT_ERKN8opendnp310LinkConfigERKS7_ENKUlvE_clEvEUlvE_E9_M_invokeERKSt9_Any_data,comdat
	.p2align 4,,15
	.weak	_ZNSt17_Function_handlerIFbvEZZN8asiodnp311DNP3Channel8AddStackINS1_11MasterStackEEESt10shared_ptrIT_ERKN8opendnp310LinkConfigERKS7_ENKUlvE_clEvEUlvE_E9_M_invokeERKSt9_Any_data
	.type	_ZNSt17_Function_handlerIFbvEZZN8asiodnp311DNP3Channel8AddStackINS1_11MasterStackEEESt10shared_ptrIT_ERKN8opendnp310LinkConfigERKS7_ENKUlvE_clEvEUlvE_E9_M_invokeERKSt9_Any_data, @function
_ZNSt17_Function_handlerIFbvEZZN8asiodnp311DNP3Channel8AddStackINS1_11MasterStackEEESt10shared_ptrIT_ERKN8opendnp310LinkConfigERKS7_ENKUlvE_clEvEUlvE_E9_M_invokeERKSt9_Any_data:
.LFB10896:
	.cfi_startproc
	.cfi_personality 0x9b,DW.ref.__gxx_personality_v0
	.cfi_lsda 0x1b,.LLSDA10896
	pushq	%rbx
	.cfi_def_cfa_offset 16
	.cfi_offset 3, -16
	subq	$48, %rsp
	.cfi_def_cfa_offset 64
	movq	%fs:40, %rax
	movq	%rax, 40(%rsp)
	xorl	%eax, %eax
	movq	(%rdi), %rax
	movq	24(%rax), %rdx
	movq	(%rax), %rsi
	movq	72(%rdx), %rdi
	leaq	16(%rax), %rdx
	movq	8(%rax), %rax
	leaq	16(%rsi), %rcx
	testq	%rsi, %rsi
	movl	$0, %esi
	cmove	%rsi, %rcx
	testq	%rax, %rax
	movq	%rax, 24(%rsp)
	movq	%rcx, 16(%rsp)
	je	.L609
	cmpq	$0, _ZL28__gthrw___pthread_key_createPjPFvPvE@GOTPCREL(%rip)
	jne	.L630
	addl	$1, 8(%rax)
.L609:
	leaq	16(%rsp), %rsi
.LEHB21:
	call	_ZN8asiodnp39IOHandler10AddContextERKSt10shared_ptrIN8opendnp312ILinkSessionEERKNS2_5RouteE@PLT
.LEHE21:
	movq	24(%rsp), %rbx
	testq	%rbx, %rbx
	je	.L607
	cmpq	$0, _ZL28__gthrw___pthread_key_createPjPFvPvE@GOTPCREL(%rip)
	je	.L613
	lock subl	$1, 8(%rbx)
	je	.L631
.L607:
	movq	40(%rsp), %rbx
	xorq	%fs:40, %rbx
	jne	.L632
	addq	$48, %rsp
	.cfi_remember_state
	.cfi_def_cfa_offset 16
	popq	%rbx
	.cfi_def_cfa_offset 8
	ret
	.p2align 4,,10
	.p2align 3
.L630:
	.cfi_restore_state
	lock addl	$1, 8(%rax)
	jmp	.L609
	.p2align 4,,10
	.p2align 3
.L613:
	movl	8(%rbx), %edx
	leal	-1(%rdx), %ecx
	cmpl	$1, %edx
	movl	%ecx, 8(%rbx)
	jne	.L607
	movq	(%rbx), %rdx
	movb	%al, 15(%rsp)
	movq	%rbx, %rdi
	call	*16(%rdx)
	movl	12(%rbx), %edx
	movzbl	15(%rsp), %eax
	leal	-1(%rdx), %ecx
	movl	%ecx, 12(%rbx)
	jmp	.L619
	.p2align 4,,10
	.p2align 3
.L631:
	movq	(%rbx), %rdx
	movb	%al, 15(%rsp)
	movq	%rbx, %rdi
	call	*16(%rdx)
	movl	$-1, %edx
	lock xaddl	%edx, 12(%rbx)
	movzbl	15(%rsp), %eax
.L619:
	cmpl	$1, %edx
	jne	.L607
	movq	(%rbx), %rdx
	movb	%al, 15(%rsp)
	movq	%rbx, %rdi
	call	*24(%rdx)
	movzbl	15(%rsp), %eax
	jmp	.L607
.L632:
	call	__stack_chk_fail@PLT
.L622:
	movq	24(%rsp), %rdi
	movq	%rax, %rbx
	testq	%rdi, %rdi
	je	.L618
	call	_ZNSt16_Sp_counted_baseILN9__gnu_cxx12_Lock_policyE2EE10_M_releaseEv@PLT
.L618:
	movq	%rbx, %rdi
.LEHB22:
	call	_Unwind_Resume@PLT
.LEHE22:
	.cfi_endproc
.LFE10896:
	.section	.gcc_except_table
.LLSDA10896:
	.byte	0xff
	.byte	0xff
	.byte	0x1
	.uleb128 .LLSDACSE10896-.LLSDACSB10896
.LLSDACSB10896:
	.uleb128 .LEHB21-.LFB10896
	.uleb128 .LEHE21-.LEHB21
	.uleb128 .L622-.LFB10896
	.uleb128 0
	.uleb128 .LEHB22-.LFB10896
	.uleb128 .LEHE22-.LEHB22
	.uleb128 0
	.uleb128 0
.LLSDACSE10896:
	.section	.text._ZNSt17_Function_handlerIFbvEZZN8asiodnp311DNP3Channel8AddStackINS1_11MasterStackEEESt10shared_ptrIT_ERKN8opendnp310LinkConfigERKS7_ENKUlvE_clEvEUlvE_E9_M_invokeERKSt9_Any_data,"axG",@progbits,_ZNSt17_Function_handlerIFbvEZZN8asiodnp311DNP3Channel8AddStackINS1_11MasterStackEEESt10shared_ptrIT_ERKN8opendnp310LinkConfigERKS7_ENKUlvE_clEvEUlvE_E9_M_invokeERKSt9_Any_data,comdat
	.size	_ZNSt17_Function_handlerIFbvEZZN8asiodnp311DNP3Channel8AddStackINS1_11MasterStackEEESt10shared_ptrIT_ERKN8opendnp310LinkConfigERKS7_ENKUlvE_clEvEUlvE_E9_M_invokeERKSt9_Any_data, .-_ZNSt17_Function_handlerIFbvEZZN8asiodnp311DNP3Channel8AddStackINS1_11MasterStackEEESt10shared_ptrIT_ERKN8opendnp310LinkConfigERKS7_ENKUlvE_clEvEUlvE_E9_M_invokeERKSt9_Any_data
	.section	.text._ZNSt17_Function_handlerIFbvEZZN8asiodnp311DNP3Channel8AddStackINS1_15OutstationStackEEESt10shared_ptrIT_ERKN8opendnp310LinkConfigERKS7_ENKUlvE_clEvEUlvE_E9_M_invokeERKSt9_Any_data,"axG",@progbits,_ZNSt17_Function_handlerIFbvEZZN8asiodnp311DNP3Channel8AddStackINS1_15OutstationStackEEESt10shared_ptrIT_ERKN8opendnp310LinkConfigERKS7_ENKUlvE_clEvEUlvE_E9_M_invokeERKSt9_Any_data,comdat
	.p2align 4,,15
	.weak	_ZNSt17_Function_handlerIFbvEZZN8asiodnp311DNP3Channel8AddStackINS1_15OutstationStackEEESt10shared_ptrIT_ERKN8opendnp310LinkConfigERKS7_ENKUlvE_clEvEUlvE_E9_M_invokeERKSt9_Any_data
	.type	_ZNSt17_Function_handlerIFbvEZZN8asiodnp311DNP3Channel8AddStackINS1_15OutstationStackEEESt10shared_ptrIT_ERKN8opendnp310LinkConfigERKS7_ENKUlvE_clEvEUlvE_E9_M_invokeERKSt9_Any_data, @function
_ZNSt17_Function_handlerIFbvEZZN8asiodnp311DNP3Channel8AddStackINS1_15OutstationStackEEESt10shared_ptrIT_ERKN8opendnp310LinkConfigERKS7_ENKUlvE_clEvEUlvE_E9_M_invokeERKSt9_Any_data:
.LFB10942:
	.cfi_startproc
	.cfi_personality 0x9b,DW.ref.__gxx_personality_v0
	.cfi_lsda 0x1b,.LLSDA10942
	pushq	%rbx
	.cfi_def_cfa_offset 16
	.cfi_offset 3, -16
	subq	$48, %rsp
	.cfi_def_cfa_offset 64
	movq	%fs:40, %rax
	movq	%rax, 40(%rsp)
	xorl	%eax, %eax
	movq	(%rdi), %rax
	movq	24(%rax), %rdx
	movq	(%rax), %rsi
	movq	72(%rdx), %rdi
	leaq	16(%rax), %rdx
	movq	8(%rax), %rax
	leaq	8(%rsi), %rcx
	testq	%rsi, %rsi
	movl	$0, %esi
	cmove	%rsi, %rcx
	testq	%rax, %rax
	movq	%rax, 24(%rsp)
	movq	%rcx, 16(%rsp)
	je	.L635
	cmpq	$0, _ZL28__gthrw___pthread_key_createPjPFvPvE@GOTPCREL(%rip)
	jne	.L656
	addl	$1, 8(%rax)
.L635:
	leaq	16(%rsp), %rsi
.LEHB23:
	call	_ZN8asiodnp39IOHandler10AddContextERKSt10shared_ptrIN8opendnp312ILinkSessionEERKNS2_5RouteE@PLT
.LEHE23:
	movq	24(%rsp), %rbx
	testq	%rbx, %rbx
	je	.L633
	cmpq	$0, _ZL28__gthrw___pthread_key_createPjPFvPvE@GOTPCREL(%rip)
	je	.L639
	lock subl	$1, 8(%rbx)
	je	.L657
.L633:
	movq	40(%rsp), %rbx
	xorq	%fs:40, %rbx
	jne	.L658
	addq	$48, %rsp
	.cfi_remember_state
	.cfi_def_cfa_offset 16
	popq	%rbx
	.cfi_def_cfa_offset 8
	ret
	.p2align 4,,10
	.p2align 3
.L656:
	.cfi_restore_state
	lock addl	$1, 8(%rax)
	jmp	.L635
	.p2align 4,,10
	.p2align 3
.L639:
	movl	8(%rbx), %edx
	leal	-1(%rdx), %ecx
	cmpl	$1, %edx
	movl	%ecx, 8(%rbx)
	jne	.L633
	movq	(%rbx), %rdx
	movb	%al, 15(%rsp)
	movq	%rbx, %rdi
	call	*16(%rdx)
	movl	12(%rbx), %edx
	movzbl	15(%rsp), %eax
	leal	-1(%rdx), %ecx
	movl	%ecx, 12(%rbx)
	jmp	.L645
	.p2align 4,,10
	.p2align 3
.L657:
	movq	(%rbx), %rdx
	movb	%al, 15(%rsp)
	movq	%rbx, %rdi
	call	*16(%rdx)
	movl	$-1, %edx
	lock xaddl	%edx, 12(%rbx)
	movzbl	15(%rsp), %eax
.L645:
	cmpl	$1, %edx
	jne	.L633
	movq	(%rbx), %rdx
	movb	%al, 15(%rsp)
	movq	%rbx, %rdi
	call	*24(%rdx)
	movzbl	15(%rsp), %eax
	jmp	.L633
.L658:
	call	__stack_chk_fail@PLT
.L648:
	movq	24(%rsp), %rdi
	movq	%rax, %rbx
	testq	%rdi, %rdi
	je	.L644
	call	_ZNSt16_Sp_counted_baseILN9__gnu_cxx12_Lock_policyE2EE10_M_releaseEv@PLT
.L644:
	movq	%rbx, %rdi
.LEHB24:
	call	_Unwind_Resume@PLT
.LEHE24:
	.cfi_endproc
.LFE10942:
	.section	.gcc_except_table
.LLSDA10942:
	.byte	0xff
	.byte	0xff
	.byte	0x1
	.uleb128 .LLSDACSE10942-.LLSDACSB10942
.LLSDACSB10942:
	.uleb128 .LEHB23-.LFB10942
	.uleb128 .LEHE23-.LEHB23
	.uleb128 .L648-.LFB10942
	.uleb128 0
	.uleb128 .LEHB24-.LFB10942
	.uleb128 .LEHE24-.LEHB24
	.uleb128 0
	.uleb128 0
.LLSDACSE10942:
	.section	.text._ZNSt17_Function_handlerIFbvEZZN8asiodnp311DNP3Channel8AddStackINS1_15OutstationStackEEESt10shared_ptrIT_ERKN8opendnp310LinkConfigERKS7_ENKUlvE_clEvEUlvE_E9_M_invokeERKSt9_Any_data,"axG",@progbits,_ZNSt17_Function_handlerIFbvEZZN8asiodnp311DNP3Channel8AddStackINS1_15OutstationStackEEESt10shared_ptrIT_ERKN8opendnp310LinkConfigERKS7_ENKUlvE_clEvEUlvE_E9_M_invokeERKSt9_Any_data,comdat
	.size	_ZNSt17_Function_handlerIFbvEZZN8asiodnp311DNP3Channel8AddStackINS1_15OutstationStackEEESt10shared_ptrIT_ERKN8opendnp310LinkConfigERKS7_ENKUlvE_clEvEUlvE_E9_M_invokeERKSt9_Any_data, .-_ZNSt17_Function_handlerIFbvEZZN8asiodnp311DNP3Channel8AddStackINS1_15OutstationStackEEESt10shared_ptrIT_ERKN8opendnp310LinkConfigERKS7_ENKUlvE_clEvEUlvE_E9_M_invokeERKSt9_Any_data
	.text
	.align 2
	.p2align 4,,15
	.globl	_ZN8asiodnp311DNP3Channel8ShutdownEv
	.type	_ZN8asiodnp311DNP3Channel8ShutdownEv, @function
_ZN8asiodnp311DNP3Channel8ShutdownEv:
.LFB8415:
	.cfi_startproc
	.cfi_personality 0x9b,DW.ref.__gxx_personality_v0
	.cfi_lsda 0x1b,.LLSDA8415
	pushq	%r12
	.cfi_def_cfa_offset 16
	.cfi_offset 12, -16
	pushq	%rbp
	.cfi_def_cfa_offset 24
	.cfi_offset 6, -24
	pushq	%rbx
	.cfi_def_cfa_offset 32
	.cfi_offset 3, -32
	subq	$64, %rsp
	.cfi_def_cfa_offset 96
	movq	16(%rdi), %rbx
	movq	%fs:40, %rax
	movq	%rax, 56(%rsp)
	xorl	%eax, %eax
	testq	%rbx, %rbx
	je	.L660
	movl	8(%rbx), %eax
	leaq	8(%rbx), %rdx
	testl	%eax, %eax
	je	.L660
.L695:
	leal	1(%rax), %ecx
	lock cmpxchgl	%ecx, (%rdx)
	jne	.L700
	cmpq	$0, _ZL28__gthrw___pthread_key_createPjPFvPvE@GOTPCREL(%rip)
	movq	8(%rdi), %rbp
	movq	56(%rdi), %r12
	jne	.L701
	addl	$1, 8(%rbx)
.L666:
	movl	$16, %edi
	movq	$0, 32(%rsp)
.LEHB25:
	call	_Znwm@PLT
.LEHE25:
	leaq	_ZNSt14_Function_base13_Base_managerIZN8asiodnp311DNP3Channel8ShutdownEvEUlvE_E10_M_managerERSt9_Any_dataRKS5_St18_Manager_operation(%rip), %rsi
	movq	%rbp, (%rax)
	leaq	16(%rsp), %rbp
	movq	%rbx, 8(%rax)
	movq	%r12, %rdi
	movq	%rax, 16(%rsp)
	leaq	_ZNSt17_Function_handlerIFvvEZN8asiodnp311DNP3Channel8ShutdownEvEUlvE_E9_M_invokeERKSt9_Any_data(%rip), %rax
	movq	%rsi, 8(%rsp)
	movq	8(%rsp), %xmm0
	movq	%rbp, %rsi
	movq	%rax, 8(%rsp)
	movhps	8(%rsp), %xmm0
	movaps	%xmm0, 32(%rsp)
.LEHB26:
	call	_ZN7asiopal8Executor18BlockUntilAndFlushERKSt8functionIFvvEE@PLT
.LEHE26:
	movq	32(%rsp), %rax
	testq	%rax, %rax
	je	.L671
	movl	$3, %edx
	movq	%rbp, %rsi
	movq	%rbp, %rdi
	call	*%rax
.L671:
	movq	%rbx, %rdi
	call	_ZNSt16_Sp_counted_baseILN9__gnu_cxx12_Lock_policyE2EE10_M_releaseEv@PLT
	movq	56(%rsp), %rax
	xorq	%fs:40, %rax
	jne	.L702
	addq	$64, %rsp
	.cfi_remember_state
	.cfi_def_cfa_offset 32
	popq	%rbx
	.cfi_def_cfa_offset 24
	popq	%rbp
	.cfi_def_cfa_offset 16
	popq	%r12
	.cfi_def_cfa_offset 8
	ret
	.p2align 4,,10
	.p2align 3
.L701:
	.cfi_restore_state
	lock addl	$1, (%rdx)
	jmp	.L666
.L700:
	testl	%eax, %eax
	jne	.L695
.L660:
.LEHB27:
	call	_ZSt20__throw_bad_weak_ptrv@PLT
.LEHE27:
.L702:
	call	__stack_chk_fail@PLT
.L675:
	movq	%rax, %r12
	movq	32(%rsp), %rax
	testq	%rax, %rax
	je	.L673
	movl	$3, %edx
	movq	%rbp, %rsi
	movq	%rbp, %rdi
	call	*%rax
.L673:
	movq	%r12, %rbp
.L670:
	movq	%rbx, %rdi
	call	_ZNSt16_Sp_counted_baseILN9__gnu_cxx12_Lock_policyE2EE10_M_releaseEv@PLT
	movq	%rbp, %rdi
.LEHB28:
	call	_Unwind_Resume@PLT
.LEHE28:
.L676:
	movq	%rax, %rbp
	movq	32(%rsp), %rax
	testq	%rax, %rax
	je	.L669
	leaq	16(%rsp), %rdi
	movl	$3, %edx
	movq	%rdi, %rsi
	call	*%rax
.L669:
	movq	%rbx, %rdi
	call	_ZNSt16_Sp_counted_baseILN9__gnu_cxx12_Lock_policyE2EE10_M_releaseEv@PLT
	jmp	.L670
	.cfi_endproc
.LFE8415:
	.section	.gcc_except_table
.LLSDA8415:
	.byte	0xff
	.byte	0xff
	.byte	0x1
	.uleb128 .LLSDACSE8415-.LLSDACSB8415
.LLSDACSB8415:
	.uleb128 .LEHB25-.LFB8415
	.uleb128 .LEHE25-.LEHB25
	.uleb128 .L676-.LFB8415
	.uleb128 0
	.uleb128 .LEHB26-.LFB8415
	.uleb128 .LEHE26-.LEHB26
	.uleb128 .L675-.LFB8415
	.uleb128 0
	.uleb128 .LEHB27-.LFB8415
	.uleb128 .LEHE27-.LEHB27
	.uleb128 0
	.uleb128 0
	.uleb128 .LEHB28-.LFB8415
	.uleb128 .LEHE28-.LEHB28
	.uleb128 0
	.uleb128 0
.LLSDACSE8415:
	.text
	.size	_ZN8asiodnp311DNP3Channel8ShutdownEv, .-_ZN8asiodnp311DNP3Channel8ShutdownEv
	.align 2
	.p2align 4,,15
	.globl	_ZN8asiodnp311DNP3Channel12ShutdownImplEv
	.type	_ZN8asiodnp311DNP3Channel12ShutdownImplEv, @function
_ZN8asiodnp311DNP3Channel12ShutdownImplEv:
.LFB8435:
	.cfi_startproc
	.cfi_personality 0x9b,DW.ref.__gxx_personality_v0
	.cfi_lsda 0x1b,.LLSDA8435
	pushq	%r13
	.cfi_def_cfa_offset 16
	.cfi_offset 13, -16
	pushq	%r12
	.cfi_def_cfa_offset 24
	.cfi_offset 12, -24
	pushq	%rbp
	.cfi_def_cfa_offset 32
	.cfi_offset 6, -32
	pushq	%rbx
	.cfi_def_cfa_offset 40
	.cfi_offset 3, -40
	subq	$40, %rsp
	.cfi_def_cfa_offset 80
	movq	%fs:40, %rax
	movq	%rax, 24(%rsp)
	xorl	%eax, %eax
	cmpq	$0, 104(%rdi)
	je	.L703
	movq	%rdi, %rbx
	movq	72(%rdi), %rdi
.LEHB29:
	call	_ZN8asiodnp39IOHandler8ShutdownEv@PLT
	movq	80(%rbx), %rdi
	movq	$0, 72(%rbx)
	movq	$0, 80(%rbx)
	testq	%rdi, %rdi
	je	.L705
	call	_ZNSt16_Sp_counted_baseILN9__gnu_cxx12_Lock_policyE2EE10_M_releaseEv@PLT
.L705:
	movq	104(%rbx), %rdi
	call	_ZN7asiopal15ResourceManager8ShutdownEv@PLT
.LEHE29:
	movq	112(%rbx), %rdi
	movq	$0, 104(%rbx)
	movq	$0, 112(%rbx)
	testq	%rdi, %rdi
	je	.L706
	call	_ZNSt16_Sp_counted_baseILN9__gnu_cxx12_Lock_policyE2EE10_M_releaseEv@PLT
.L706:
	movq	16(%rbx), %rbp
	testq	%rbp, %rbp
	je	.L707
	movl	8(%rbp), %eax
	leaq	8(%rbp), %rdx
	testl	%eax, %eax
	je	.L707
.L751:
	leal	1(%rax), %ecx
	lock cmpxchgl	%ecx, (%rdx)
	jne	.L754
	cmpq	$0, _ZL28__gthrw___pthread_key_createPjPFvPvE@GOTPCREL(%rip)
	movq	8(%rbx), %rax
	movq	56(%rbx), %rsi
	movq	%rbp, 8(%rsp)
	movq	%rax, (%rsp)
	jne	.L755
	addl	$1, 8(%rbp)
.L713:
	movq	%rsp, %rdi
	xorl	%eax, %eax
	movq	40(%rsi), %r12
	leaq	48(%rsi), %r13
	call	_ZN4asio28asio_handler_is_continuationEz@PLT
	movl	%eax, %ebx
	.byte	0x66
	leaq	_ZN4asio6detail15keyword_tss_ptrINS0_10call_stackINS0_15task_io_serviceENS0_27task_io_service_thread_infoEE7contextEE6value_E@tlsgd(%rip), %rdi
	.value	0x6666
	rex64
	call	__tls_get_addr@PLT
	movq	(%rax), %rax
	testq	%rax, %rax
	je	.L714
	movq	8(%rax), %rax
	testq	%rax, %rax
	je	.L714
	movq	(%rax), %rdx
	testq	%rdx, %rdx
	je	.L714
	movq	$0, (%rax)
	movzbl	(%rdx), %eax
	cmpb	$39, %al
	jbe	.L715
	movb	%al, 40(%rdx)
.L716:
	leaq	_ZN4asio6detail18completion_handlerIZN8asiodnp311DNP3Channel12ShutdownImplEvEUlvE_E11do_completeEPNS0_15task_io_serviceEPNS0_25task_io_service_operationERKSt10error_codem(%rip), %rax
	pxor	%xmm0, %xmm0
	movq	$0, (%rdx)
	movq	%r12, %rdi
	movl	$0, 16(%rdx)
	movq	%rax, 8(%rdx)
	movq	(%rsp), %rax
	movzbl	%bl, %ecx
	movq	%r13, %rsi
	movq	%rax, 24(%rdx)
	movq	8(%rsp), %rax
	movaps	%xmm0, (%rsp)
	movq	%rax, 32(%rdx)
	call	_ZN4asio6detail14strand_service7do_postERPNS1_11strand_implEPNS0_25task_io_service_operationEb@PLT
	movq	8(%rsp), %rdi
	testq	%rdi, %rdi
	je	.L721
	call	_ZNSt16_Sp_counted_baseILN9__gnu_cxx12_Lock_policyE2EE10_M_releaseEv@PLT
.L721:
	movq	%rbp, %rdi
	call	_ZNSt16_Sp_counted_baseILN9__gnu_cxx12_Lock_policyE2EE10_M_releaseEv@PLT
.L703:
	movq	24(%rsp), %rax
	xorq	%fs:40, %rax
	jne	.L756
	addq	$40, %rsp
	.cfi_remember_state
	.cfi_def_cfa_offset 40
	popq	%rbx
	.cfi_def_cfa_offset 32
	popq	%rbp
	.cfi_def_cfa_offset 24
	popq	%r12
	.cfi_def_cfa_offset 16
	popq	%r13
	.cfi_def_cfa_offset 8
	ret
	.p2align 4,,10
	.p2align 3
.L755:
	.cfi_restore_state
	lock addl	$1, (%rdx)
	jmp	.L713
	.p2align 4,,10
	.p2align 3
.L715:
	movq	%rdx, %rdi
	call	_ZdlPv@PLT
.L714:
	movl	$41, %edi
.LEHB30:
	call	_Znwm@PLT
.LEHE30:
	movq	%rax, %rdx
	movb	$40, 40(%rax)
	jmp	.L716
.L756:
	call	__stack_chk_fail@PLT
.L754:
	testl	%eax, %eax
	jne	.L751
.L707:
.LEHB31:
	call	_ZSt20__throw_bad_weak_ptrv@PLT
.L723:
	movq	8(%rsp), %rdi
	movq	%rax, %rbx
	testq	%rdi, %rdi
	je	.L719
	call	_ZNSt16_Sp_counted_baseILN9__gnu_cxx12_Lock_policyE2EE10_M_releaseEv@PLT
.L719:
	movq	%rbp, %rdi
	call	_ZNSt16_Sp_counted_baseILN9__gnu_cxx12_Lock_policyE2EE10_M_releaseEv@PLT
	movq	%rbx, %rdi
	call	_Unwind_Resume@PLT
.LEHE31:
	.cfi_endproc
.LFE8435:
	.section	.gcc_except_table
.LLSDA8435:
	.byte	0xff
	.byte	0xff
	.byte	0x1
	.uleb128 .LLSDACSE8435-.LLSDACSB8435
.LLSDACSB8435:
	.uleb128 .LEHB29-.LFB8435
	.uleb128 .LEHE29-.LEHB29
	.uleb128 0
	.uleb128 0
	.uleb128 .LEHB30-.LFB8435
	.uleb128 .LEHE30-.LEHB30
	.uleb128 .L723-.LFB8435
	.uleb128 0
	.uleb128 .LEHB31-.LFB8435
	.uleb128 .LEHE31-.LEHB31
	.uleb128 0
	.uleb128 0
.LLSDACSE8435:
	.text
	.size	_ZN8asiodnp311DNP3Channel12ShutdownImplEv, .-_ZN8asiodnp311DNP3Channel12ShutdownImplEv
	.p2align 4,,15
	.type	_ZNSt17_Function_handlerIFvvEZN8asiodnp311DNP3Channel8ShutdownEvEUlvE_E9_M_invokeERKSt9_Any_data, @function
_ZNSt17_Function_handlerIFvvEZN8asiodnp311DNP3Channel8ShutdownEvEUlvE_E9_M_invokeERKSt9_Any_data:
.LFB10259:
	.cfi_startproc
	movq	(%rdi), %rax
	movq	(%rax), %rdi
	jmp	_ZN8asiodnp311DNP3Channel12ShutdownImplEv@PLT
	.cfi_endproc
.LFE10259:
	.size	_ZNSt17_Function_handlerIFvvEZN8asiodnp311DNP3Channel8ShutdownEvEUlvE_E9_M_invokeERKSt9_Any_data, .-_ZNSt17_Function_handlerIFvvEZN8asiodnp311DNP3Channel8ShutdownEvEUlvE_E9_M_invokeERKSt9_Any_data
	.align 2
	.p2align 4,,15
	.globl	_ZN8asiodnp311DNP3Channel13SetLogFiltersERKN7openpal10LogFiltersE
	.type	_ZN8asiodnp311DNP3Channel13SetLogFiltersERKN7openpal10LogFiltersE, @function
_ZN8asiodnp311DNP3Channel13SetLogFiltersERKN7openpal10LogFiltersE:
.LFB8459:
	.cfi_startproc
	.cfi_personality 0x9b,DW.ref.__gxx_personality_v0
	.cfi_lsda 0x1b,.LLSDA8459
	pushq	%r13
	.cfi_def_cfa_offset 16
	.cfi_offset 13, -16
	pushq	%r12
	.cfi_def_cfa_offset 24
	.cfi_offset 12, -24
	pushq	%rbp
	.cfi_def_cfa_offset 32
	.cfi_offset 6, -32
	pushq	%rbx
	.cfi_def_cfa_offset 40
	.cfi_offset 3, -40
	subq	$56, %rsp
	.cfi_def_cfa_offset 96
	movq	16(%rdi), %rbx
	movq	%fs:40, %rax
	movq	%rax, 40(%rsp)
	xorl	%eax, %eax
	testq	%rbx, %rbx
	je	.L759
	movl	8(%rbx), %eax
	leaq	8(%rbx), %rdx
	testl	%eax, %eax
	je	.L759
.L796:
	leal	1(%rax), %ecx
	lock cmpxchgl	%ecx, (%rdx)
	jne	.L800
	cmpq	$0, _ZL28__gthrw___pthread_key_createPjPFvPvE@GOTPCREL(%rip)
	movq	8(%rdi), %rcx
	movl	(%rsi), %eax
	movq	%rbx, 8(%rsp)
	movq	56(%rdi), %rsi
	movq	%rcx, (%rsp)
	jne	.L801
	addl	$1, 8(%rbx)
.L765:
	movl	%eax, 16(%rsp)
	movq	%rsp, %rdi
	xorl	%eax, %eax
	movq	40(%rsi), %r12
	leaq	48(%rsi), %r13
	call	_ZN4asio28asio_handler_is_continuationEz@PLT
	movl	%eax, %ebp
	.byte	0x66
	leaq	_ZN4asio6detail15keyword_tss_ptrINS0_10call_stackINS0_15task_io_serviceENS0_27task_io_service_thread_infoEE7contextEE6value_E@tlsgd(%rip), %rdi
	.value	0x6666
	rex64
	call	__tls_get_addr@PLT
	movq	(%rax), %rax
	testq	%rax, %rax
	je	.L766
	movq	8(%rax), %rax
	testq	%rax, %rax
	je	.L766
	movq	(%rax), %rdx
	testq	%rdx, %rdx
	je	.L766
	movq	$0, (%rax)
	movzbl	(%rdx), %eax
	cmpb	$47, %al
	jbe	.L767
	movb	%al, 48(%rdx)
	jmp	.L768
	.p2align 4,,10
	.p2align 3
.L767:
	movq	%rdx, %rdi
	call	_ZdlPv@PLT
.L766:
	movl	$49, %edi
.LEHB32:
	call	_Znwm@PLT
.LEHE32:
	movq	%rax, %rdx
	movb	$48, 48(%rax)
.L768:
	leaq	_ZN4asio6detail18completion_handlerIZN8asiodnp311DNP3Channel13SetLogFiltersERKN7openpal10LogFiltersEEUlvE_E11do_completeEPNS0_15task_io_serviceEPNS0_25task_io_service_operationERKSt10error_codem(%rip), %rax
	pxor	%xmm0, %xmm0
	movq	$0, (%rdx)
	movq	%r12, %rdi
	movl	$0, 16(%rdx)
	movq	%rax, 8(%rdx)
	movq	(%rsp), %rax
	movzbl	%bpl, %ecx
	movq	%r13, %rsi
	movq	%rax, 24(%rdx)
	movq	8(%rsp), %rax
	movaps	%xmm0, (%rsp)
	movq	%rax, 32(%rdx)
	movl	16(%rsp), %eax
	movl	%eax, 40(%rdx)
	call	_ZN4asio6detail14strand_service7do_postERPNS1_11strand_implEPNS0_25task_io_service_operationEb@PLT
	movq	8(%rsp), %rdi
	testq	%rdi, %rdi
	je	.L772
	call	_ZNSt16_Sp_counted_baseILN9__gnu_cxx12_Lock_policyE2EE10_M_releaseEv@PLT
.L772:
	movq	%rbx, %rdi
	call	_ZNSt16_Sp_counted_baseILN9__gnu_cxx12_Lock_policyE2EE10_M_releaseEv@PLT
	movq	40(%rsp), %rax
	xorq	%fs:40, %rax
	jne	.L802
	addq	$56, %rsp
	.cfi_remember_state
	.cfi_def_cfa_offset 40
	popq	%rbx
	.cfi_def_cfa_offset 32
	popq	%rbp
	.cfi_def_cfa_offset 24
	popq	%r12
	.cfi_def_cfa_offset 16
	popq	%r13
	.cfi_def_cfa_offset 8
	ret
	.p2align 4,,10
	.p2align 3
.L801:
	.cfi_restore_state
	lock addl	$1, (%rdx)
	jmp	.L765
.L800:
	testl	%eax, %eax
	jne	.L796
.L759:
.LEHB33:
	call	_ZSt20__throw_bad_weak_ptrv@PLT
.L802:
	call	__stack_chk_fail@PLT
.L774:
	movq	8(%rsp), %rdi
	movq	%rax, %rbp
	testq	%rdi, %rdi
	je	.L770
	call	_ZNSt16_Sp_counted_baseILN9__gnu_cxx12_Lock_policyE2EE10_M_releaseEv@PLT
.L770:
	movq	%rbx, %rdi
	call	_ZNSt16_Sp_counted_baseILN9__gnu_cxx12_Lock_policyE2EE10_M_releaseEv@PLT
	movq	%rbp, %rdi
	call	_Unwind_Resume@PLT
.LEHE33:
	.cfi_endproc
.LFE8459:
	.section	.gcc_except_table
.LLSDA8459:
	.byte	0xff
	.byte	0xff
	.byte	0x1
	.uleb128 .LLSDACSE8459-.LLSDACSB8459
.LLSDACSB8459:
	.uleb128 .LEHB32-.LFB8459
	.uleb128 .LEHE32-.LEHB32
	.uleb128 .L774-.LFB8459
	.uleb128 0
	.uleb128 .LEHB33-.LFB8459
	.uleb128 .LEHE33-.LEHB33
	.uleb128 0
	.uleb128 0
.LLSDACSE8459:
	.text
	.size	_ZN8asiodnp311DNP3Channel13SetLogFiltersERKN7openpal10LogFiltersE, .-_ZN8asiodnp311DNP3Channel13SetLogFiltersERKN7openpal10LogFiltersE
	.align 2
	.p2align 4,,15
	.globl	_ZN8asiodnp311DNP3ChannelC2ERKN7openpal6LoggerERKSt10shared_ptrIN7asiopal8ExecutorEERKS5_INS_9IOHandlerEERKS5_INS6_16IResourceManagerEE
	.type	_ZN8asiodnp311DNP3ChannelC2ERKN7openpal6LoggerERKSt10shared_ptrIN7asiopal8ExecutorEERKS5_INS_9IOHandlerEERKS5_INS6_16IResourceManagerEE, @function
_ZN8asiodnp311DNP3ChannelC2ERKN7openpal6LoggerERKSt10shared_ptrIN7asiopal8ExecutorEERKS5_INS_9IOHandlerEERKS5_INS6_16IResourceManagerEE:
.LFB8409:
	.cfi_startproc
	.cfi_personality 0x9b,DW.ref.__gxx_personality_v0
	.cfi_lsda 0x1b,.LLSDA8409
	pushq	%rbp
	.cfi_def_cfa_offset 16
	.cfi_offset 6, -16
	pushq	%rbx
	.cfi_def_cfa_offset 24
	.cfi_offset 3, -24
	movq	%rdi, %rbx
	subq	$8, %rsp
	.cfi_def_cfa_offset 32
	movq	_ZTVN8asiodnp311DNP3ChannelE@GOTPCREL(%rip), %rax
	movq	$0, 8(%rdi)
	movq	$0, 16(%rdi)
	addq	$16, %rax
	movq	%rax, (%rdi)
	movq	(%rsi), %rax
	movq	%rax, 24(%rdi)
	movq	8(%rsi), %rax
	testq	%rax, %rax
	movq	%rax, 32(%rdi)
	je	.L804
	cmpq	$0, _ZL28__gthrw___pthread_key_createPjPFvPvE@GOTPCREL(%rip)
	jne	.L870
	addl	$1, 8(%rax)
	movq	16(%rsi), %rax
	movq	%rax, 40(%rdi)
	movq	24(%rsi), %rax
	testq	%rax, %rax
	movq	%rax, 48(%rdi)
	je	.L867
.L808:
	addl	$1, 8(%rax)
.L867:
	movq	(%rdx), %rax
	movq	%rax, 56(%rbx)
	movq	8(%rdx), %rax
	testq	%rax, %rax
	movq	%rax, 64(%rbx)
	je	.L812
.L813:
	addl	$1, 8(%rax)
	movq	(%rcx), %rax
	movq	%rax, 72(%rbx)
	movq	8(%rcx), %rax
	testq	%rax, %rax
	movq	%rax, 80(%rbx)
	je	.L815
.L816:
	addl	$1, 8(%rax)
	movq	(%r8), %rax
	movq	%rax, 88(%rbx)
	movq	8(%r8), %rax
	testq	%rax, %rax
	movq	%rax, 96(%rbx)
	je	.L818
.L819:
	addl	$1, 8(%rax)
.L818:
	movq	$0, 104(%rbx)
	movq	$0, 112(%rbx)
	movl	$120, %edi
.LEHB34:
	call	_Znwm@PLT
.LEHE34:
	movq	%rax, %rdx
	movabsq	$4294967297, %rax
	movl	$13, %ecx
	movq	%rax, 8(%rdx)
	leaq	16(%rdx), %rdi
	movq	_ZTVSt23_Sp_counted_ptr_inplaceIN7asiopal15ResourceManagerESaIS1_ELN9__gnu_cxx12_Lock_policyE2EE@GOTPCREL(%rip), %rax
	movq	_ZTISt19_Sp_make_shared_tag@GOTPCREL(%rip), %rsi
	movq	%rdx, 112(%rbx)
	addq	$16, %rax
	movq	%rax, (%rdx)
	xorl	%eax, %eax
	rep stosq
	movq	_ZTVN7asiopal15ResourceManagerE@GOTPCREL(%rip), %rax
	movq	%rdx, %rdi
	addq	$16, %rax
	movq	%rax, 16(%rdx)
	leaq	80(%rdx), %rax
	movq	%rax, 96(%rdx)
	movq	%rax, 104(%rdx)
	call	_ZNSt23_Sp_counted_ptr_inplaceIN7asiopal15ResourceManagerESaIS1_ELN9__gnu_cxx12_Lock_policyE2EE14_M_get_deleterERKSt9type_info@PLT
	movq	%rax, 104(%rbx)
	addq	$8, %rsp
	.cfi_remember_state
	.cfi_def_cfa_offset 24
	popq	%rbx
	.cfi_def_cfa_offset 16
	popq	%rbp
	.cfi_def_cfa_offset 8
	ret
	.p2align 4,,10
	.p2align 3
.L870:
	.cfi_restore_state
	lock addl	$1, 8(%rax)
	movq	16(%rsi), %rax
	movq	24(%rsi), %rsi
	testq	%rsi, %rsi
	movq	%rax, 40(%rdi)
	movq	%rsi, 48(%rdi)
	leaq	8(%rsi), %rax
	je	.L871
.L830:
	lock addl	$1, (%rax)
	movq	(%rdx), %rax
	movq	8(%rdx), %rdx
	testq	%rdx, %rdx
	movq	%rax, 56(%rbx)
	movq	%rdx, 64(%rbx)
	leaq	8(%rdx), %rax
	je	.L812
.L831:
	lock addl	$1, (%rax)
	movq	8(%rcx), %rdx
	movq	(%rcx), %rax
	testq	%rdx, %rdx
	movq	%rax, 72(%rbx)
	movq	%rdx, 80(%rbx)
	leaq	8(%rdx), %rax
	je	.L815
.L832:
	lock addl	$1, (%rax)
	movq	8(%r8), %rdx
	movq	(%r8), %rax
	testq	%rdx, %rdx
	movq	%rax, 88(%rbx)
	movq	%rdx, 96(%rbx)
	leaq	8(%rdx), %rax
	je	.L818
.L833:
	lock addl	$1, (%rax)
	jmp	.L818
	.p2align 4,,10
	.p2align 3
.L804:
	movq	16(%rsi), %rax
	movq	%rax, 40(%rdi)
	movq	24(%rsi), %rax
	testq	%rax, %rax
	movq	%rax, 48(%rdi)
	je	.L810
	cmpq	$0, _ZL28__gthrw___pthread_key_createPjPFvPvE@GOTPCREL(%rip)
	je	.L808
	addq	$8, %rax
	jmp	.L830
	.p2align 4,,10
	.p2align 3
.L871:
	movq	(%rdx), %rax
	movq	%rax, 56(%rdi)
	movq	8(%rdx), %rax
	testq	%rax, %rax
	movq	%rax, 64(%rdi)
	jne	.L834
	.p2align 4,,10
	.p2align 3
.L812:
	movq	(%rcx), %rax
	movq	%rax, 72(%rbx)
	movq	8(%rcx), %rax
	testq	%rax, %rax
	movq	%rax, 80(%rbx)
	jne	.L872
.L815:
	movq	(%r8), %rax
	movq	%rax, 88(%rbx)
	movq	8(%r8), %rax
	testq	%rax, %rax
	movq	%rax, 96(%rbx)
	je	.L818
	cmpq	$0, _ZL28__gthrw___pthread_key_createPjPFvPvE@GOTPCREL(%rip)
	je	.L819
	addq	$8, %rax
	jmp	.L833
	.p2align 4,,10
	.p2align 3
.L872:
	cmpq	$0, _ZL28__gthrw___pthread_key_createPjPFvPvE@GOTPCREL(%rip)
	je	.L816
	addq	$8, %rax
	jmp	.L832
	.p2align 4,,10
	.p2align 3
.L810:
	movq	(%rdx), %rax
	movq	%rax, 56(%rdi)
	movq	8(%rdx), %rax
	testq	%rax, %rax
	movq	%rax, 64(%rdi)
	je	.L812
	cmpq	$0, _ZL28__gthrw___pthread_key_createPjPFvPvE@GOTPCREL(%rip)
	je	.L813
.L834:
	addq	$8, %rax
	jmp	.L831
.L835:
	movq	96(%rbx), %rdi
	movq	%rax, %rbp
	testq	%rdi, %rdi
	je	.L822
	call	_ZNSt16_Sp_counted_baseILN9__gnu_cxx12_Lock_policyE2EE10_M_releaseEv@PLT
.L822:
	movq	80(%rbx), %rdi
	testq	%rdi, %rdi
	je	.L823
	call	_ZNSt16_Sp_counted_baseILN9__gnu_cxx12_Lock_policyE2EE10_M_releaseEv@PLT
.L823:
	movq	64(%rbx), %rdi
	testq	%rdi, %rdi
	je	.L824
	call	_ZNSt16_Sp_counted_baseILN9__gnu_cxx12_Lock_policyE2EE10_M_releaseEv@PLT
.L824:
	leaq	24(%rbx), %rdi
	call	_ZN7openpal6LoggerD1Ev@PLT
	movq	16(%rbx), %rdi
	testq	%rdi, %rdi
	je	.L826
	cmpq	$0, _ZL28__gthrw___pthread_key_createPjPFvPvE@GOTPCREL(%rip)
	leaq	12(%rdi), %rdx
	je	.L827
	orl	$-1, %eax
	lock xaddl	%eax, (%rdx)
.L828:
	subl	$1, %eax
	jne	.L826
	movq	(%rdi), %rax
	call	*24(%rax)
.L826:
	movq	%rbp, %rdi
.LEHB35:
	call	_Unwind_Resume@PLT
.LEHE35:
.L827:
	movl	12(%rdi), %eax
	leal	-1(%rax), %edx
	movl	%edx, 12(%rdi)
	jmp	.L828
	.cfi_endproc
.LFE8409:
	.section	.gcc_except_table
.LLSDA8409:
	.byte	0xff
	.byte	0xff
	.byte	0x1
	.uleb128 .LLSDACSE8409-.LLSDACSB8409
.LLSDACSB8409:
	.uleb128 .LEHB34-.LFB8409
	.uleb128 .LEHE34-.LEHB34
	.uleb128 .L835-.LFB8409
	.uleb128 0
	.uleb128 .LEHB35-.LFB8409
	.uleb128 .LEHE35-.LEHB35
	.uleb128 0
	.uleb128 0
.LLSDACSE8409:
	.text
	.size	_ZN8asiodnp311DNP3ChannelC2ERKN7openpal6LoggerERKSt10shared_ptrIN7asiopal8ExecutorEERKS5_INS_9IOHandlerEERKS5_INS6_16IResourceManagerEE, .-_ZN8asiodnp311DNP3ChannelC2ERKN7openpal6LoggerERKSt10shared_ptrIN7asiopal8ExecutorEERKS5_INS_9IOHandlerEERKS5_INS6_16IResourceManagerEE
	.globl	_ZN8asiodnp311DNP3ChannelC1ERKN7openpal6LoggerERKSt10shared_ptrIN7asiopal8ExecutorEERKS5_INS_9IOHandlerEERKS5_INS6_16IResourceManagerEE
	.set	_ZN8asiodnp311DNP3ChannelC1ERKN7openpal6LoggerERKSt10shared_ptrIN7asiopal8ExecutorEERKS5_INS_9IOHandlerEERKS5_INS6_16IResourceManagerEE,_ZN8asiodnp311DNP3ChannelC2ERKN7openpal6LoggerERKSt10shared_ptrIN7asiopal8ExecutorEERKS5_INS_9IOHandlerEERKS5_INS6_16IResourceManagerEE
	.p2align 4,,15
	.type	_ZN4asio6detail18completion_handlerIZN8asiodnp311DNP3Channel13SetLogFiltersERKN7openpal10LogFiltersEEUlvE_E11do_completeEPNS0_15task_io_serviceEPNS0_25task_io_service_operationERKSt10error_codem, @function
_ZN4asio6detail18completion_handlerIZN8asiodnp311DNP3Channel13SetLogFiltersERKN7openpal10LogFiltersEEUlvE_E11do_completeEPNS0_15task_io_serviceEPNS0_25task_io_service_operationERKSt10error_codem:
.LFB11210:
	.cfi_startproc
	.cfi_personality 0x9b,DW.ref.__gxx_personality_v0
	pushq	%r14
	.cfi_def_cfa_offset 16
	.cfi_offset 14, -16
	pushq	%r13
	.cfi_def_cfa_offset 24
	.cfi_offset 13, -24
	pushq	%r12
	.cfi_def_cfa_offset 32
	.cfi_offset 12, -32
	pushq	%rbp
	.cfi_def_cfa_offset 40
	.cfi_offset 6, -40
	movq	%rdi, %r12
	pushq	%rbx
	.cfi_def_cfa_offset 48
	.cfi_offset 3, -48
	movq	24(%rsi), %r14
	movq	%rsi, %rbx
	movq	32(%rsi), %rbp
	movl	40(%rsi), %r13d
	.byte	0x66
	leaq	_ZN4asio6detail15keyword_tss_ptrINS0_10call_stackINS0_15task_io_serviceENS0_27task_io_service_thread_infoEE7contextEE6value_E@tlsgd(%rip), %rdi
	.value	0x6666
	rex64
	call	__tls_get_addr@PLT
	movq	(%rax), %rax
	testq	%rax, %rax
	je	.L874
	movq	8(%rax), %rax
	testq	%rax, %rax
	je	.L874
	cmpq	$0, (%rax)
	je	.L888
.L874:
	movq	%rbx, %rdi
	call	_ZdlPv@PLT
.L875:
	testq	%r12, %r12
	je	.L876
	movq	40(%r14), %rax
	movl	%r13d, 32(%rax)
	sfence
.L876:
	testq	%rbp, %rbp
	je	.L873
	popq	%rbx
	.cfi_remember_state
	.cfi_def_cfa_offset 40
	movq	%rbp, %rdi
	popq	%rbp
	.cfi_def_cfa_offset 32
	popq	%r12
	.cfi_def_cfa_offset 24
	popq	%r13
	.cfi_def_cfa_offset 16
	popq	%r14
	.cfi_def_cfa_offset 8
	jmp	_ZNSt16_Sp_counted_baseILN9__gnu_cxx12_Lock_policyE2EE10_M_releaseEv@PLT
	.p2align 4,,10
	.p2align 3
.L873:
	.cfi_restore_state
	popq	%rbx
	.cfi_remember_state
	.cfi_def_cfa_offset 40
	popq	%rbp
	.cfi_def_cfa_offset 32
	popq	%r12
	.cfi_def_cfa_offset 24
	popq	%r13
	.cfi_def_cfa_offset 16
	popq	%r14
	.cfi_def_cfa_offset 8
	ret
	.p2align 4,,10
	.p2align 3
.L888:
	.cfi_restore_state
	movzbl	48(%rbx), %edx
	movb	%dl, (%rbx)
	movq	%rbx, (%rax)
	jmp	.L875
	.cfi_endproc
.LFE11210:
	.size	_ZN4asio6detail18completion_handlerIZN8asiodnp311DNP3Channel13SetLogFiltersERKN7openpal10LogFiltersEEUlvE_E11do_completeEPNS0_15task_io_serviceEPNS0_25task_io_service_operationERKSt10error_codem, .-_ZN4asio6detail18completion_handlerIZN8asiodnp311DNP3Channel13SetLogFiltersERKN7openpal10LogFiltersEEUlvE_E11do_completeEPNS0_15task_io_serviceEPNS0_25task_io_service_operationERKSt10error_codem
	.align 2
	.p2align 4,,15
	.globl	_ZN8asiodnp311DNP3ChannelD2Ev
	.type	_ZN8asiodnp311DNP3ChannelD2Ev, @function
_ZN8asiodnp311DNP3ChannelD2Ev:
.LFB8412:
	.cfi_startproc
	.cfi_personality 0x9b,DW.ref.__gxx_personality_v0
	.cfi_lsda 0x1b,.LLSDA8412
	movq	_ZTVN8asiodnp311DNP3ChannelE@GOTPCREL(%rip), %rax
	pushq	%rbx
	.cfi_def_cfa_offset 16
	.cfi_offset 3, -16
	movq	%rdi, %rbx
	addq	$16, %rax
	movq	%rax, (%rdi)
	call	_ZN8asiodnp311DNP3Channel12ShutdownImplEv@PLT
	movq	112(%rbx), %rdi
	testq	%rdi, %rdi
	je	.L890
	call	_ZNSt16_Sp_counted_baseILN9__gnu_cxx12_Lock_policyE2EE10_M_releaseEv@PLT
.L890:
	movq	96(%rbx), %rdi
	testq	%rdi, %rdi
	je	.L891
	call	_ZNSt16_Sp_counted_baseILN9__gnu_cxx12_Lock_policyE2EE10_M_releaseEv@PLT
.L891:
	movq	80(%rbx), %rdi
	testq	%rdi, %rdi
	je	.L892
	call	_ZNSt16_Sp_counted_baseILN9__gnu_cxx12_Lock_policyE2EE10_M_releaseEv@PLT
.L892:
	movq	64(%rbx), %rdi
	testq	%rdi, %rdi
	je	.L893
	call	_ZNSt16_Sp_counted_baseILN9__gnu_cxx12_Lock_policyE2EE10_M_releaseEv@PLT
.L893:
	movq	48(%rbx), %rdi
	testq	%rdi, %rdi
	je	.L894
	call	_ZNSt16_Sp_counted_baseILN9__gnu_cxx12_Lock_policyE2EE10_M_releaseEv@PLT
.L894:
	movq	32(%rbx), %rdi
	testq	%rdi, %rdi
	je	.L895
	call	_ZNSt16_Sp_counted_baseILN9__gnu_cxx12_Lock_policyE2EE10_M_releaseEv@PLT
.L895:
	movq	16(%rbx), %rdi
	testq	%rdi, %rdi
	je	.L889
	cmpq	$0, _ZL28__gthrw___pthread_key_createPjPFvPvE@GOTPCREL(%rip)
	je	.L898
	movl	$-1, %eax
	lock xaddl	%eax, 12(%rdi)
	cmpl	$1, %eax
	je	.L920
.L889:
	popq	%rbx
	.cfi_remember_state
	.cfi_def_cfa_offset 8
	ret
	.p2align 4,,10
	.p2align 3
.L898:
	.cfi_restore_state
	movl	12(%rdi), %eax
	leal	-1(%rax), %edx
	cmpl	$1, %eax
	movl	%edx, 12(%rdi)
	jne	.L889
.L920:
	movq	(%rdi), %rax
	popq	%rbx
	.cfi_def_cfa_offset 8
	movq	24(%rax), %rax
	jmp	*%rax
	.cfi_endproc
.LFE8412:
	.section	.gcc_except_table
.LLSDA8412:
	.byte	0xff
	.byte	0xff
	.byte	0x1
	.uleb128 .LLSDACSE8412-.LLSDACSB8412
.LLSDACSB8412:
.LLSDACSE8412:
	.text
	.size	_ZN8asiodnp311DNP3ChannelD2Ev, .-_ZN8asiodnp311DNP3ChannelD2Ev
	.globl	_ZN8asiodnp311DNP3ChannelD1Ev
	.set	_ZN8asiodnp311DNP3ChannelD1Ev,_ZN8asiodnp311DNP3ChannelD2Ev
	.align 2
	.p2align 4,,15
	.globl	_ZN8asiodnp311DNP3ChannelD0Ev
	.type	_ZN8asiodnp311DNP3ChannelD0Ev, @function
_ZN8asiodnp311DNP3ChannelD0Ev:
.LFB8414:
	.cfi_startproc
	pushq	%rbx
	.cfi_def_cfa_offset 16
	.cfi_offset 3, -16
	movq	%rdi, %rbx
	call	_ZN8asiodnp311DNP3ChannelD1Ev@PLT
	movq	%rbx, %rdi
	movl	$120, %esi
	popq	%rbx
	.cfi_def_cfa_offset 8
	jmp	_ZdlPvm@PLT
	.cfi_endproc
.LFE8414:
	.size	_ZN8asiodnp311DNP3ChannelD0Ev, .-_ZN8asiodnp311DNP3ChannelD0Ev
	.section	.text._ZNSt14_Function_base13_Base_managerIZZN8asiodnp311DNP3Channel8AddStackINS1_11MasterStackEEESt10shared_ptrIT_ERKN8opendnp310LinkConfigERKS7_ENKUlvE_clEvEUlvE_E10_M_managerERSt9_Any_dataRKSH_St18_Manager_operation,"axG",@progbits,_ZNSt14_Function_base13_Base_managerIZZN8asiodnp311DNP3Channel8AddStackINS1_11MasterStackEEESt10shared_ptrIT_ERKN8opendnp310LinkConfigERKS7_ENKUlvE_clEvEUlvE_E10_M_managerERSt9_Any_dataRKSH_St18_Manager_operation,comdat
	.p2align 4,,15
	.weak	_ZNSt14_Function_base13_Base_managerIZZN8asiodnp311DNP3Channel8AddStackINS1_11MasterStackEEESt10shared_ptrIT_ERKN8opendnp310LinkConfigERKS7_ENKUlvE_clEvEUlvE_E10_M_managerERSt9_Any_dataRKSH_St18_Manager_operation
	.type	_ZNSt14_Function_base13_Base_managerIZZN8asiodnp311DNP3Channel8AddStackINS1_11MasterStackEEESt10shared_ptrIT_ERKN8opendnp310LinkConfigERKS7_ENKUlvE_clEvEUlvE_E10_M_managerERSt9_Any_dataRKSH_St18_Manager_operation, @function
_ZNSt14_Function_base13_Base_managerIZZN8asiodnp311DNP3Channel8AddStackINS1_11MasterStackEEESt10shared_ptrIT_ERKN8opendnp310LinkConfigERKS7_ENKUlvE_clEvEUlvE_E10_M_managerERSt9_Any_dataRKSH_St18_Manager_operation:
.LFB10897:
	.cfi_startproc
	cmpl	$1, %edx
	je	.L925
	jb	.L926
	pushq	%rbp
	.cfi_def_cfa_offset 16
	.cfi_offset 6, -16
	pushq	%rbx
	.cfi_def_cfa_offset 24
	.cfi_offset 3, -24
	movq	%rdi, %rbx
	subq	$8, %rsp
	.cfi_def_cfa_offset 32
	cmpl	$2, %edx
	je	.L927
	cmpl	$3, %edx
	jne	.L943
	movq	(%rdi), %rbx
	testq	%rbx, %rbx
	je	.L943
	movq	32(%rbx), %rdi
	testq	%rdi, %rdi
	je	.L935
	call	_ZNSt16_Sp_counted_baseILN9__gnu_cxx12_Lock_policyE2EE10_M_releaseEv@PLT
.L935:
	movq	8(%rbx), %rdi
	testq	%rdi, %rdi
	je	.L936
	call	_ZNSt16_Sp_counted_baseILN9__gnu_cxx12_Lock_policyE2EE10_M_releaseEv@PLT
.L936:
	movl	$40, %esi
	movq	%rbx, %rdi
	call	_ZdlPvm@PLT
.L943:
	addq	$8, %rsp
	.cfi_remember_state
	.cfi_def_cfa_offset 24
	xorl	%eax, %eax
	popq	%rbx
	.cfi_def_cfa_offset 16
	popq	%rbp
	.cfi_def_cfa_offset 8
	ret
	.p2align 4,,10
	.p2align 3
.L927:
	.cfi_restore_state
	movq	(%rsi), %rbp
	movl	$40, %edi
	call	_Znwm@PLT
	movq	0(%rbp), %rdx
	movq	%rdx, (%rax)
	movq	8(%rbp), %rdx
	testq	%rdx, %rdx
	movq	%rdx, 8(%rax)
	je	.L929
	cmpq	$0, _ZL28__gthrw___pthread_key_createPjPFvPvE@GOTPCREL(%rip)
	je	.L930
	lock addl	$1, 8(%rdx)
	movl	16(%rbp), %edx
	movq	32(%rbp), %rcx
	movl	%edx, 16(%rax)
	movq	24(%rbp), %rdx
	testq	%rcx, %rcx
	movq	%rcx, 32(%rax)
	movq	%rdx, 24(%rax)
	leaq	8(%rcx), %rdx
	je	.L932
.L937:
	lock addl	$1, (%rdx)
.L932:
	movq	%rax, (%rbx)
	addq	$8, %rsp
	.cfi_def_cfa_offset 24
	xorl	%eax, %eax
	popq	%rbx
	.cfi_def_cfa_offset 16
	popq	%rbp
	.cfi_def_cfa_offset 8
	ret
	.p2align 4,,10
	.p2align 3
.L926:
	.cfi_restore 3
	.cfi_restore 6
	movq	_ZTIZZN8asiodnp311DNP3Channel8AddStackINS_11MasterStackEEESt10shared_ptrIT_ERKN8opendnp310LinkConfigERKS5_ENKUlvE_clEvEUlvE_@GOTPCREL(%rip), %rax
	movq	%rax, (%rdi)
	xorl	%eax, %eax
	ret
	.p2align 4,,10
	.p2align 3
.L925:
	movq	(%rsi), %rax
	movq	%rax, (%rdi)
	xorl	%eax, %eax
	ret
	.p2align 4,,10
	.p2align 3
.L929:
	.cfi_def_cfa_offset 32
	.cfi_offset 3, -24
	.cfi_offset 6, -16
	movl	16(%rbp), %edx
	movl	%edx, 16(%rax)
	movq	24(%rbp), %rdx
	movq	%rdx, 24(%rax)
	movq	32(%rbp), %rdx
	testq	%rdx, %rdx
	movq	%rdx, 32(%rax)
	je	.L932
	cmpq	$0, _ZL28__gthrw___pthread_key_createPjPFvPvE@GOTPCREL(%rip)
	je	.L933
	addq	$8, %rdx
	jmp	.L937
	.p2align 4,,10
	.p2align 3
.L930:
	addl	$1, 8(%rdx)
	movl	16(%rbp), %edx
	movl	%edx, 16(%rax)
	movq	24(%rbp), %rdx
	movq	%rdx, 24(%rax)
	movq	32(%rbp), %rdx
	testq	%rdx, %rdx
	movq	%rdx, 32(%rax)
	je	.L932
.L933:
	addl	$1, 8(%rdx)
	jmp	.L932
	.cfi_endproc
.LFE10897:
	.size	_ZNSt14_Function_base13_Base_managerIZZN8asiodnp311DNP3Channel8AddStackINS1_11MasterStackEEESt10shared_ptrIT_ERKN8opendnp310LinkConfigERKS7_ENKUlvE_clEvEUlvE_E10_M_managerERSt9_Any_dataRKSH_St18_Manager_operation, .-_ZNSt14_Function_base13_Base_managerIZZN8asiodnp311DNP3Channel8AddStackINS1_11MasterStackEEESt10shared_ptrIT_ERKN8opendnp310LinkConfigERKS7_ENKUlvE_clEvEUlvE_E10_M_managerERSt9_Any_dataRKSH_St18_Manager_operation
	.section	.text._ZNSt14_Function_base13_Base_managerIZZN8asiodnp311DNP3Channel8AddStackINS1_15OutstationStackEEESt10shared_ptrIT_ERKN8opendnp310LinkConfigERKS7_ENKUlvE_clEvEUlvE_E10_M_managerERSt9_Any_dataRKSH_St18_Manager_operation,"axG",@progbits,_ZNSt14_Function_base13_Base_managerIZZN8asiodnp311DNP3Channel8AddStackINS1_15OutstationStackEEESt10shared_ptrIT_ERKN8opendnp310LinkConfigERKS7_ENKUlvE_clEvEUlvE_E10_M_managerERSt9_Any_dataRKSH_St18_Manager_operation,comdat
	.p2align 4,,15
	.weak	_ZNSt14_Function_base13_Base_managerIZZN8asiodnp311DNP3Channel8AddStackINS1_15OutstationStackEEESt10shared_ptrIT_ERKN8opendnp310LinkConfigERKS7_ENKUlvE_clEvEUlvE_E10_M_managerERSt9_Any_dataRKSH_St18_Manager_operation
	.type	_ZNSt14_Function_base13_Base_managerIZZN8asiodnp311DNP3Channel8AddStackINS1_15OutstationStackEEESt10shared_ptrIT_ERKN8opendnp310LinkConfigERKS7_ENKUlvE_clEvEUlvE_E10_M_managerERSt9_Any_dataRKSH_St18_Manager_operation, @function
_ZNSt14_Function_base13_Base_managerIZZN8asiodnp311DNP3Channel8AddStackINS1_15OutstationStackEEESt10shared_ptrIT_ERKN8opendnp310LinkConfigERKS7_ENKUlvE_clEvEUlvE_E10_M_managerERSt9_Any_dataRKSH_St18_Manager_operation:
.LFB10943:
	.cfi_startproc
	cmpl	$1, %edx
	je	.L960
	jb	.L961
	pushq	%rbp
	.cfi_def_cfa_offset 16
	.cfi_offset 6, -16
	pushq	%rbx
	.cfi_def_cfa_offset 24
	.cfi_offset 3, -24
	movq	%rdi, %rbx
	subq	$8, %rsp
	.cfi_def_cfa_offset 32
	cmpl	$2, %edx
	je	.L962
	cmpl	$3, %edx
	jne	.L978
	movq	(%rdi), %rbx
	testq	%rbx, %rbx
	je	.L978
	movq	32(%rbx), %rdi
	testq	%rdi, %rdi
	je	.L970
	call	_ZNSt16_Sp_counted_baseILN9__gnu_cxx12_Lock_policyE2EE10_M_releaseEv@PLT
.L970:
	movq	8(%rbx), %rdi
	testq	%rdi, %rdi
	je	.L971
	call	_ZNSt16_Sp_counted_baseILN9__gnu_cxx12_Lock_policyE2EE10_M_releaseEv@PLT
.L971:
	movl	$40, %esi
	movq	%rbx, %rdi
	call	_ZdlPvm@PLT
.L978:
	addq	$8, %rsp
	.cfi_remember_state
	.cfi_def_cfa_offset 24
	xorl	%eax, %eax
	popq	%rbx
	.cfi_def_cfa_offset 16
	popq	%rbp
	.cfi_def_cfa_offset 8
	ret
	.p2align 4,,10
	.p2align 3
.L962:
	.cfi_restore_state
	movq	(%rsi), %rbp
	movl	$40, %edi
	call	_Znwm@PLT
	movq	0(%rbp), %rdx
	movq	%rdx, (%rax)
	movq	8(%rbp), %rdx
	testq	%rdx, %rdx
	movq	%rdx, 8(%rax)
	je	.L964
	cmpq	$0, _ZL28__gthrw___pthread_key_createPjPFvPvE@GOTPCREL(%rip)
	je	.L965
	lock addl	$1, 8(%rdx)
	movl	16(%rbp), %edx
	movq	32(%rbp), %rcx
	movl	%edx, 16(%rax)
	movq	24(%rbp), %rdx
	testq	%rcx, %rcx
	movq	%rcx, 32(%rax)
	movq	%rdx, 24(%rax)
	leaq	8(%rcx), %rdx
	je	.L967
.L972:
	lock addl	$1, (%rdx)
.L967:
	movq	%rax, (%rbx)
	addq	$8, %rsp
	.cfi_def_cfa_offset 24
	xorl	%eax, %eax
	popq	%rbx
	.cfi_def_cfa_offset 16
	popq	%rbp
	.cfi_def_cfa_offset 8
	ret
	.p2align 4,,10
	.p2align 3
.L961:
	.cfi_restore 3
	.cfi_restore 6
	movq	_ZTIZZN8asiodnp311DNP3Channel8AddStackINS_15OutstationStackEEESt10shared_ptrIT_ERKN8opendnp310LinkConfigERKS5_ENKUlvE_clEvEUlvE_@GOTPCREL(%rip), %rax
	movq	%rax, (%rdi)
	xorl	%eax, %eax
	ret
	.p2align 4,,10
	.p2align 3
.L960:
	movq	(%rsi), %rax
	movq	%rax, (%rdi)
	xorl	%eax, %eax
	ret
	.p2align 4,,10
	.p2align 3
.L964:
	.cfi_def_cfa_offset 32
	.cfi_offset 3, -24
	.cfi_offset 6, -16
	movl	16(%rbp), %edx
	movl	%edx, 16(%rax)
	movq	24(%rbp), %rdx
	movq	%rdx, 24(%rax)
	movq	32(%rbp), %rdx
	testq	%rdx, %rdx
	movq	%rdx, 32(%rax)
	je	.L967
	cmpq	$0, _ZL28__gthrw___pthread_key_createPjPFvPvE@GOTPCREL(%rip)
	je	.L968
	addq	$8, %rdx
	jmp	.L972
	.p2align 4,,10
	.p2align 3
.L965:
	addl	$1, 8(%rdx)
	movl	16(%rbp), %edx
	movl	%edx, 16(%rax)
	movq	24(%rbp), %rdx
	movq	%rdx, 24(%rax)
	movq	32(%rbp), %rdx
	testq	%rdx, %rdx
	movq	%rdx, 32(%rax)
	je	.L967
.L968:
	addl	$1, 8(%rdx)
	jmp	.L967
	.cfi_endproc
.LFE10943:
	.size	_ZNSt14_Function_base13_Base_managerIZZN8asiodnp311DNP3Channel8AddStackINS1_15OutstationStackEEESt10shared_ptrIT_ERKN8opendnp310LinkConfigERKS7_ENKUlvE_clEvEUlvE_E10_M_managerERSt9_Any_dataRKSH_St18_Manager_operation, .-_ZNSt14_Function_base13_Base_managerIZZN8asiodnp311DNP3Channel8AddStackINS1_15OutstationStackEEESt10shared_ptrIT_ERKN8opendnp310LinkConfigERKS7_ENKUlvE_clEvEUlvE_E10_M_managerERSt9_Any_dataRKSH_St18_Manager_operation
	.text
	.p2align 4,,15
	.type	_ZN4asio6detail18completion_handlerIZN8asiodnp311DNP3Channel12ShutdownImplEvEUlvE_E11do_completeEPNS0_15task_io_serviceEPNS0_25task_io_service_operationERKSt10error_codem, @function
_ZN4asio6detail18completion_handlerIZN8asiodnp311DNP3Channel12ShutdownImplEvEUlvE_E11do_completeEPNS0_15task_io_serviceEPNS0_25task_io_service_operationERKSt10error_codem:
.LFB11143:
	.cfi_startproc
	.cfi_personality 0x9b,DW.ref.__gxx_personality_v0
	.cfi_lsda 0x1b,.LLSDA11143
	pushq	%r13
	.cfi_def_cfa_offset 16
	.cfi_offset 13, -16
	pushq	%r12
	.cfi_def_cfa_offset 24
	.cfi_offset 12, -24
	movq	%rdi, %r13
	pushq	%rbp
	.cfi_def_cfa_offset 32
	.cfi_offset 6, -32
	pushq	%rbx
	.cfi_def_cfa_offset 40
	.cfi_offset 3, -40
	movq	%rsi, %rbp
	subq	$40, %rsp
	.cfi_def_cfa_offset 80
	movq	24(%rsi), %r12
	movq	32(%rsi), %rbx
	movq	%fs:40, %rax
	movq	%rax, 24(%rsp)
	xorl	%eax, %eax
	.byte	0x66
	leaq	_ZN4asio6detail15keyword_tss_ptrINS0_10call_stackINS0_15task_io_serviceENS0_27task_io_service_thread_infoEE7contextEE6value_E@tlsgd(%rip), %rdi
	.value	0x6666
	rex64
	call	__tls_get_addr@PLT
	movq	(%rax), %rax
	testq	%rax, %rax
	je	.L994
	movq	8(%rax), %rax
	testq	%rax, %rax
	je	.L994
	cmpq	$0, (%rax)
	je	.L1033
.L994:
	movq	%rbp, %rdi
	call	_ZdlPv@PLT
.L995:
	testq	%r13, %r13
	je	.L996
	movq	88(%r12), %rdi
	testq	%rbx, %rbx
	movq	(%rdi), %rax
	movq	%r12, (%rsp)
	movq	%rbx, 8(%rsp)
	movq	16(%rax), %rax
	je	.L997
	cmpq	$0, _ZL28__gthrw___pthread_key_createPjPFvPvE@GOTPCREL(%rip)
	jne	.L1034
	addl	$1, 8(%rbx)
.L997:
	movq	%rsp, %rsi
.LEHB36:
	call	*%rax
.LEHE36:
	movq	8(%rsp), %rdi
	testq	%rdi, %rdi
	je	.L999
	call	_ZNSt16_Sp_counted_baseILN9__gnu_cxx12_Lock_policyE2EE10_M_releaseEv@PLT
.L999:
	movq	96(%r12), %rdi
	movq	$0, 88(%r12)
	movq	$0, 96(%r12)
	testq	%rdi, %rdi
	je	.L1000
	call	_ZNSt16_Sp_counted_baseILN9__gnu_cxx12_Lock_policyE2EE10_M_releaseEv@PLT
.L1000:
	sfence
.L996:
	testq	%rbx, %rbx
	je	.L993
	movq	%rbx, %rdi
	call	_ZNSt16_Sp_counted_baseILN9__gnu_cxx12_Lock_policyE2EE10_M_releaseEv@PLT
.L993:
	movq	24(%rsp), %rax
	xorq	%fs:40, %rax
	jne	.L1035
	addq	$40, %rsp
	.cfi_remember_state
	.cfi_def_cfa_offset 40
	popq	%rbx
	.cfi_def_cfa_offset 32
	popq	%rbp
	.cfi_def_cfa_offset 24
	popq	%r12
	.cfi_def_cfa_offset 16
	popq	%r13
	.cfi_def_cfa_offset 8
	ret
	.p2align 4,,10
	.p2align 3
.L1034:
	.cfi_restore_state
	lock addl	$1, 8(%rbx)
	jmp	.L997
	.p2align 4,,10
	.p2align 3
.L1033:
	movzbl	40(%rbp), %edx
	movb	%dl, 0(%rbp)
	movq	%rbp, (%rax)
	jmp	.L995
.L1035:
	call	__stack_chk_fail@PLT
.L1007:
	movq	8(%rsp), %rdi
	movq	%rax, %rbp
	testq	%rdi, %rdi
	je	.L1002
	call	_ZNSt16_Sp_counted_baseILN9__gnu_cxx12_Lock_policyE2EE10_M_releaseEv@PLT
.L1002:
	testq	%rbx, %rbx
	sfence
	je	.L1004
	movq	%rbx, %rdi
	call	_ZNSt16_Sp_counted_baseILN9__gnu_cxx12_Lock_policyE2EE10_M_releaseEv@PLT
.L1004:
	movq	%rbp, %rdi
.LEHB37:
	call	_Unwind_Resume@PLT
.LEHE37:
	.cfi_endproc
.LFE11143:
	.section	.gcc_except_table
.LLSDA11143:
	.byte	0xff
	.byte	0xff
	.byte	0x1
	.uleb128 .LLSDACSE11143-.LLSDACSB11143
.LLSDACSB11143:
	.uleb128 .LEHB36-.LFB11143
	.uleb128 .LEHE36-.LEHB36
	.uleb128 .L1007-.LFB11143
	.uleb128 0
	.uleb128 .LEHB37-.LFB11143
	.uleb128 .LEHE37-.LEHB37
	.uleb128 0
	.uleb128 0
.LLSDACSE11143:
	.text
	.size	_ZN4asio6detail18completion_handlerIZN8asiodnp311DNP3Channel12ShutdownImplEvEUlvE_E11do_completeEPNS0_15task_io_serviceEPNS0_25task_io_service_operationERKSt10error_codem, .-_ZN4asio6detail18completion_handlerIZN8asiodnp311DNP3Channel12ShutdownImplEvEUlvE_E11do_completeEPNS0_15task_io_serviceEPNS0_25task_io_service_operationERKSt10error_codem
	.section	.text._ZNSt7promiseIN8opendnp314LinkStatisticsEED2Ev,"axG",@progbits,_ZNSt7promiseIN8opendnp314LinkStatisticsEED5Ev,comdat
	.align 2
	.p2align 4,,15
	.weak	_ZNSt7promiseIN8opendnp314LinkStatisticsEED2Ev
	.type	_ZNSt7promiseIN8opendnp314LinkStatisticsEED2Ev, @function
_ZNSt7promiseIN8opendnp314LinkStatisticsEED2Ev:
.LFB10295:
	.cfi_startproc
	.cfi_personality 0x9b,DW.ref.__gxx_personality_v0
	.cfi_lsda 0x1b,.LLSDA10295
	pushq	%rbp
	.cfi_def_cfa_offset 16
	.cfi_offset 6, -16
	pushq	%rbx
	.cfi_def_cfa_offset 24
	.cfi_offset 3, -24
	movq	%rdi, %rbx
	subq	$24, %rsp
	.cfi_def_cfa_offset 48
	movq	%fs:40, %rax
	movq	%rax, 8(%rsp)
	xorl	%eax, %eax
	movq	(%rdi), %rax
	testq	%rax, %rax
	je	.L1059
	movq	8(%rdi), %rdi
	testq	%rdi, %rdi
	je	.L1039
	movl	8(%rdi), %edx
	cmpl	$1, %edx
	je	.L1059
.L1039:
	movq	16(%rbx), %rdx
	movq	$0, 16(%rbx)
	testq	%rdx, %rdx
	movq	%rdx, (%rsp)
	je	.L1042
	movq	%rax, %rdi
	movq	%rsp, %rsi
	call	_ZNSt13__future_base13_State_baseV216_M_break_promiseESt10unique_ptrINS_12_Result_baseENS2_8_DeleterEE.part.110
	movq	(%rsp), %rdi
	testq	%rdi, %rdi
	je	.L1059
	movq	(%rdi), %rax
	call	*(%rax)
.L1059:
	movq	16(%rbx), %rbp
	testq	%rbp, %rbp
	je	.L1060
	movq	0(%rbp), %rax
	movq	(%rax), %rdx
	cmpq	_ZNSt13__future_base7_ResultIN8opendnp314LinkStatisticsEE10_M_destroyEv@GOTPCREL(%rip), %rdx
	jne	.L1045
	movq	16(%rax), %rax
	cmpq	_ZNSt13__future_base7_ResultIN8opendnp314LinkStatisticsEED0Ev@GOTPCREL(%rip), %rax
	jne	.L1046
	movq	_ZTVNSt13__future_base7_ResultIN8opendnp314LinkStatisticsEEE@GOTPCREL(%rip), %rax
	movq	%rbp, %rdi
	addq	$16, %rax
	movq	%rax, 0(%rbp)
	call	_ZNSt13__future_base12_Result_baseD2Ev@PLT
	movq	%rbp, %rdi
	movl	$72, %esi
	call	_ZdlPvm@PLT
	movq	8(%rbx), %rdi
.L1042:
	testq	%rdi, %rdi
	je	.L1036
	call	_ZNSt16_Sp_counted_baseILN9__gnu_cxx12_Lock_policyE2EE10_M_releaseEv@PLT
.L1036:
	movq	8(%rsp), %rax
	xorq	%fs:40, %rax
	jne	.L1061
	addq	$24, %rsp
	.cfi_remember_state
	.cfi_def_cfa_offset 24
	popq	%rbx
	.cfi_def_cfa_offset 16
	popq	%rbp
	.cfi_def_cfa_offset 8
	ret
	.p2align 4,,10
	.p2align 3
.L1045:
	.cfi_restore_state
	movq	%rbp, %rdi
	call	*%rdx
.L1060:
	movq	8(%rbx), %rdi
	jmp	.L1042
	.p2align 4,,10
	.p2align 3
.L1046:
	movq	%rbp, %rdi
	call	*%rax
	movq	8(%rbx), %rdi
	jmp	.L1042
.L1061:
	call	__stack_chk_fail@PLT
	.cfi_endproc
.LFE10295:
	.section	.gcc_except_table
.LLSDA10295:
	.byte	0xff
	.byte	0xff
	.byte	0x1
	.uleb128 .LLSDACSE10295-.LLSDACSB10295
.LLSDACSB10295:
.LLSDACSE10295:
	.section	.text._ZNSt7promiseIN8opendnp314LinkStatisticsEED2Ev,"axG",@progbits,_ZNSt7promiseIN8opendnp314LinkStatisticsEED5Ev,comdat
	.size	_ZNSt7promiseIN8opendnp314LinkStatisticsEED2Ev, .-_ZNSt7promiseIN8opendnp314LinkStatisticsEED2Ev
	.weak	_ZNSt7promiseIN8opendnp314LinkStatisticsEED1Ev
	.set	_ZNSt7promiseIN8opendnp314LinkStatisticsEED1Ev,_ZNSt7promiseIN8opendnp314LinkStatisticsEED2Ev
	.text
	.align 2
	.p2align 4,,15
	.globl	_ZN8asiodnp311DNP3Channel13GetStatisticsEv
	.type	_ZN8asiodnp311DNP3Channel13GetStatisticsEv, @function
_ZN8asiodnp311DNP3Channel13GetStatisticsEv:
.LFB8449:
	.cfi_startproc
	.cfi_personality 0x9b,DW.ref.__gxx_personality_v0
	.cfi_lsda 0x1b,.LLSDA8449
	pushq	%r15
	.cfi_def_cfa_offset 16
	.cfi_offset 15, -16
	pushq	%r14
	.cfi_def_cfa_offset 24
	.cfi_offset 14, -24
	leaq	_ZNSt14_Function_base13_Base_managerIZN8asiodnp311DNP3Channel13GetStatisticsEvEUlvE_E10_M_managerERSt9_Any_dataRKS5_St18_Manager_operation(%rip), %rcx
	pushq	%r13
	.cfi_def_cfa_offset 32
	.cfi_offset 13, -32
	pushq	%r12
	.cfi_def_cfa_offset 40
	.cfi_offset 12, -40
	movq	%rsi, %r12
	pushq	%rbp
	.cfi_def_cfa_offset 48
	.cfi_offset 6, -48
	pushq	%rbx
	.cfi_def_cfa_offset 56
	.cfi_offset 3, -56
	movq	%rdi, %rbx
	subq	$168, %rsp
	.cfi_def_cfa_offset 224
	movq	56(%rsi), %r14
	movq	%fs:40, %rax
	movq	%rax, 152(%rsp)
	xorl	%eax, %eax
	leaq	_ZNSt17_Function_handlerIFN8opendnp314LinkStatisticsEvEZN8asiodnp311DNP3Channel13GetStatisticsEvEUlvE_E9_M_invokeERKSt9_Any_data(%rip), %rax
	movq	%rcx, 8(%rsp)
	movq	%rsi, 112(%rsp)
	movq	8(%rsp), %xmm0
	movq	48(%r14), %rbp
	movq	%rax, 8(%rsp)
	movhps	8(%rsp), %xmm0
	movaps	%xmm0, 128(%rsp)
	.byte	0x66
	leaq	_ZN4asio6detail15keyword_tss_ptrINS0_10call_stackINS0_14strand_service11strand_implEhE7contextEE6value_E@tlsgd(%rip), %rdi
	.value	0x6666
	rex64
	call	__tls_get_addr@PLT
	movq	(%rax), %rax
	testq	%rax, %rax
	jne	.L1151
	jmp	.L1063
	.p2align 4,,10
	.p2align 3
.L1065:
	movq	16(%rax), %rax
	testq	%rax, %rax
	je	.L1063
.L1151:
	cmpq	(%rax), %rbp
	jne	.L1065
	cmpq	$0, 8(%rax)
	je	.L1063
	movq	72(%r12), %rax
	leaq	112(%rsp), %rbp
	movq	96(%rax), %rdx
	movdqu	80(%rax), %xmm0
	movq	%rdx, 16(%rbx)
	movq	264(%rax), %rdx
	movups	%xmm0, (%rbx)
	movdqu	248(%rax), %xmm0
	movl	272(%rax), %eax
	movq	%rdx, 40(%rbx)
	movups	%xmm0, 24(%rbx)
	movl	%eax, 48(%rbx)
	leaq	_ZNSt14_Function_base13_Base_managerIZN8asiodnp311DNP3Channel13GetStatisticsEvEUlvE_E10_M_managerERSt9_Any_dataRKS5_St18_Manager_operation(%rip), %rax
.L1068:
	movl	$3, %edx
	movq	%rbp, %rsi
	movq	%rbp, %rdi
	call	*%rax
.L1062:
	movq	152(%rsp), %rsi
	xorq	%fs:40, %rsi
	movq	%rbx, %rax
	jne	.L1162
	addq	$168, %rsp
	.cfi_remember_state
	.cfi_def_cfa_offset 56
	popq	%rbx
	.cfi_def_cfa_offset 48
	popq	%rbp
	.cfi_def_cfa_offset 40
	popq	%r12
	.cfi_def_cfa_offset 32
	popq	%r13
	.cfi_def_cfa_offset 24
	popq	%r14
	.cfi_def_cfa_offset 16
	popq	%r15
	.cfi_def_cfa_offset 8
	ret
	.p2align 4,,10
	.p2align 3
.L1063:
	.cfi_restore_state
	movl	$48, %edi
	movq	$0, 48(%rsp)
	movq	$0, 56(%rsp)
.LEHB38:
	call	_Znwm@PLT
.LEHE38:
	movq	_ZTVSt23_Sp_counted_ptr_inplaceINSt13__future_base13_State_baseV2ESaIS1_ELN9__gnu_cxx12_Lock_policyE2EE@GOTPCREL(%rip), %rdx
	movabsq	$4294967297, %rcx
	movq	$0, 24(%rax)
	movq	%rcx, 8(%rax)
	movl	$0, 32(%rax)
	movl	$72, %edi
	movb	$0, 36(%rax)
	movl	$0, 40(%rax)
	addq	$16, %rdx
	movq	%rax, 56(%rsp)
	addq	$16, %rax
	movq	%rdx, -16(%rax)
	movq	_ZTVNSt13__future_base13_State_baseV2E@GOTPCREL(%rip), %rdx
	addq	$16, %rdx
	movq	%rdx, (%rax)
	movq	%rax, 48(%rsp)
.LEHB39:
	call	_Znwm@PLT
.LEHE39:
	movq	%rax, %rdi
	movq	%rax, %rbp
	call	_ZNSt13__future_base12_Result_baseC2Ev@PLT
	movq	_ZTVNSt13__future_base7_ResultIN8opendnp314LinkStatisticsEEE@GOTPCREL(%rip), %rax
	movq	56(%rsp), %r13
	movb	$0, 68(%rbp)
	movq	%rbp, 64(%rsp)
	movq	48(%rsp), %r12
	addq	$16, %rax
	testq	%r13, %r13
	movq	%rax, 0(%rbp)
	je	.L1070
	cmpq	$0, _ZL28__gthrw___pthread_key_createPjPFvPvE@GOTPCREL(%rip)
	je	.L1074
	lock addl	$1, 8(%r13)
.L1070:
	testq	%r12, %r12
	je	.L1163
	movl	$1, %eax
	xchgb	20(%r12), %al
	testb	%al, %al
	jne	.L1164
	leaq	48(%rsp), %rax
	leaq	112(%rsp), %rbp
	movq	%rax, 8(%rsp)
	movq	40(%r14), %rax
	movq	%rbp, 16(%rsp)
	movq	8(%rsp), %xmm0
	movhps	16(%rsp), %xmm0
	movq	%rax, 16(%rsp)
	leaq	48(%r14), %rax
	leaq	80(%rsp), %r14
	movaps	%xmm0, 80(%rsp)
	movq	%rax, 24(%rsp)
	movq	%r14, %rdi
	xorl	%eax, %eax
	call	_ZN4asio28asio_handler_is_continuationEz@PLT
	movl	%eax, %r15d
	.byte	0x66
	leaq	_ZN4asio6detail15keyword_tss_ptrINS0_10call_stackINS0_15task_io_serviceENS0_27task_io_service_thread_infoEE7contextEE6value_E@tlsgd(%rip), %rdi
	.value	0x6666
	rex64
	call	__tls_get_addr@PLT
	movq	(%rax), %rax
	testq	%rax, %rax
	je	.L1080
	movq	8(%rax), %rax
	testq	%rax, %rax
	je	.L1080
	movq	(%rax), %rdx
	testq	%rdx, %rdx
	je	.L1080
	movq	$0, (%rax)
	movzbl	(%rdx), %eax
	cmpb	$39, %al
	jbe	.L1081
	movb	%al, 40(%rdx)
.L1082:
	movdqa	80(%rsp), %xmm0
	movzbl	%r15b, %ecx
	movq	_ZN4asio6detail18completion_handlerIZN7asiopal8Executor10ReturnFromIN8opendnp314LinkStatisticsEEET_RKSt8functionIFS7_vEEEUlvE_E11do_completeEPNS0_15task_io_serviceEPNS0_25task_io_service_operationERKSt10error_codem@GOTPCREL(%rip), %rax
	movq	16(%rsp), %rdi
	movups	%xmm0, 24(%rdx)
	movq	24(%rsp), %rsi
	movq	$0, (%rdx)
	movq	%rax, 8(%rdx)
	movl	$0, 16(%rdx)
	call	_ZN4asio6detail14strand_service7do_postERPNS1_11strand_implEPNS0_25task_io_service_operationEb@PLT
	movq	%r12, %rdi
.LEHB40:
	call	_ZNSt13__future_base13_State_baseV24waitEv@PLT
.LEHE40:
	movq	%r12, %rdi
.LEHB41:
	call	_ZNSt13__future_base13_State_baseV24waitEv@PLT
.LEHE41:
	leaq	8(%rax), %r12
	movq	%r14, %rsi
	movq	%rax, %r15
	movq	$0, 80(%rsp)
	movq	%r12, %rdi
	call	_ZNSt15__exception_ptreqERKNS_13exception_ptrES2_@PLT
	movq	%r14, %rdi
	movb	%al, 16(%rsp)
	call	_ZNSt15__exception_ptr13exception_ptrD1Ev@PLT
	movzbl	16(%rsp), %eax
	testb	%al, %al
	je	.L1165
	movdqu	16(%r15), %xmm0
	testq	%r13, %r13
	movl	64(%r15), %eax
	movups	%xmm0, (%rbx)
	movdqu	32(%r15), %xmm0
	movl	%eax, 48(%rbx)
	movups	%xmm0, 16(%rbx)
	movdqu	48(%r15), %xmm0
	movups	%xmm0, 32(%rbx)
	je	.L1085
	movq	%r13, %rdi
	call	_ZNSt16_Sp_counted_baseILN9__gnu_cxx12_Lock_policyE2EE10_M_releaseEv@PLT
.L1085:
	movq	48(%rsp), %rax
	testq	%rax, %rax
	je	.L1156
	movq	56(%rsp), %rdi
	testq	%rdi, %rdi
	je	.L1091
	movl	8(%rdi), %edx
	cmpl	$1, %edx
	je	.L1156
.L1091:
	movq	64(%rsp), %rdx
	movq	$0, 64(%rsp)
	testq	%rdx, %rdx
	movq	%rdx, 80(%rsp)
	je	.L1094
	movq	%rax, %rdi
	movq	%r14, %rsi
	call	_ZNSt13__future_base13_State_baseV216_M_break_promiseESt10unique_ptrINS_12_Result_baseENS2_8_DeleterEE.part.110
	movq	80(%rsp), %rdi
	testq	%rdi, %rdi
	je	.L1156
	movq	(%rdi), %rax
	call	*(%rax)
.L1156:
	movq	64(%rsp), %r12
	testq	%r12, %r12
	je	.L1157
	movq	(%r12), %rax
	movq	(%rax), %rdx
	cmpq	_ZNSt13__future_base7_ResultIN8opendnp314LinkStatisticsEE10_M_destroyEv@GOTPCREL(%rip), %rdx
	jne	.L1097
	movq	16(%rax), %rax
	cmpq	_ZNSt13__future_base7_ResultIN8opendnp314LinkStatisticsEED0Ev@GOTPCREL(%rip), %rax
	jne	.L1098
	movq	_ZTVNSt13__future_base7_ResultIN8opendnp314LinkStatisticsEEE@GOTPCREL(%rip), %rax
	movq	%r12, %rdi
	addq	$16, %rax
	movq	%rax, (%r12)
	call	_ZNSt13__future_base12_Result_baseD2Ev@PLT
	movq	%r12, %rdi
	movl	$72, %esi
	call	_ZdlPvm@PLT
	movq	56(%rsp), %rdi
.L1094:
	testq	%rdi, %rdi
	je	.L1099
	call	_ZNSt16_Sp_counted_baseILN9__gnu_cxx12_Lock_policyE2EE10_M_releaseEv@PLT
.L1099:
	movq	128(%rsp), %rax
	testq	%rax, %rax
	jne	.L1068
	jmp	.L1062
.L1081:
	movq	%rdx, %rdi
	call	_ZdlPv@PLT
.L1080:
	movl	$41, %edi
.LEHB42:
	call	_Znwm@PLT
.LEHE42:
	movq	%rax, %rdx
	movb	$40, 40(%rax)
	jmp	.L1082
	.p2align 4,,10
	.p2align 3
.L1074:
	addl	$1, 8(%r13)
	jmp	.L1070
.L1097:
	movq	%r12, %rdi
	call	*%rdx
.L1157:
	movq	56(%rsp), %rdi
	jmp	.L1094
.L1098:
	movq	%r12, %rdi
	call	*%rax
	movq	56(%rsp), %rdi
	jmp	.L1094
.L1162:
	call	__stack_chk_fail@PLT
.L1106:
	movq	%rax, %rbx
.L1073:
	movq	128(%rsp), %rax
	testq	%rax, %rax
	je	.L1103
	leaq	112(%rsp), %rdi
	movl	$3, %edx
	movq	%rdi, %rsi
	call	*%rax
.L1103:
	movq	%rbx, %rdi
.LEHB43:
	call	_Unwind_Resume@PLT
.LEHE43:
.L1163:
	movl	$3, %edi
.LEHB44:
	call	_ZSt20__throw_future_errori@PLT
.L1108:
	movq	56(%rsp), %rdi
	movq	%rax, %rbx
	testq	%rdi, %rdi
	je	.L1073
	call	_ZNSt16_Sp_counted_baseILN9__gnu_cxx12_Lock_policyE2EE10_M_releaseEv@PLT
	jmp	.L1073
.L1109:
	testq	%r13, %r13
	movq	%rax, %rbx
	je	.L1078
	movq	%r13, %rdi
	call	_ZNSt16_Sp_counted_baseILN9__gnu_cxx12_Lock_policyE2EE10_M_releaseEv@PLT
.L1078:
	leaq	48(%rsp), %rax
	movq	%rax, 8(%rsp)
.L1079:
	movq	8(%rsp), %rdi
	call	_ZNSt7promiseIN8opendnp314LinkStatisticsEED1Ev@PLT
	jmp	.L1073
.L1164:
	movl	$1, %edi
	call	_ZSt20__throw_future_errori@PLT
.LEHE44:
.L1165:
	leaq	40(%rsp), %rbp
	movq	%r12, %rsi
	movq	%rbp, %rdi
	call	_ZNSt15__exception_ptr13exception_ptrC1ERKS0_@PLT
	movq	%rbp, %rdi
.LEHB45:
	call	_ZSt17rethrow_exceptionNSt15__exception_ptr13exception_ptrE@PLT
.LEHE45:
.L1110:
.L1161:
	movq	%rax, %rbx
.L1160:
	testq	%r13, %r13
	je	.L1079
	movq	%r13, %rdi
	call	_ZNSt16_Sp_counted_baseILN9__gnu_cxx12_Lock_policyE2EE10_M_releaseEv@PLT
	jmp	.L1079
.L1107:
	jmp	.L1161
.L1111:
	movq	%rbp, %rdi
	movq	%rax, %rbx
	call	_ZNSt15__exception_ptr13exception_ptrD1Ev@PLT
	jmp	.L1160
	.cfi_endproc
.LFE8449:
	.section	.gcc_except_table
.LLSDA8449:
	.byte	0xff
	.byte	0xff
	.byte	0x1
	.uleb128 .LLSDACSE8449-.LLSDACSB8449
.LLSDACSB8449:
	.uleb128 .LEHB38-.LFB8449
	.uleb128 .LEHE38-.LEHB38
	.uleb128 .L1106-.LFB8449
	.uleb128 0
	.uleb128 .LEHB39-.LFB8449
	.uleb128 .LEHE39-.LEHB39
	.uleb128 .L1108-.LFB8449
	.uleb128 0
	.uleb128 .LEHB40-.LFB8449
	.uleb128 .LEHE40-.LEHB40
	.uleb128 .L1107-.LFB8449
	.uleb128 0
	.uleb128 .LEHB41-.LFB8449
	.uleb128 .LEHE41-.LEHB41
	.uleb128 .L1110-.LFB8449
	.uleb128 0
	.uleb128 .LEHB42-.LFB8449
	.uleb128 .LEHE42-.LEHB42
	.uleb128 .L1107-.LFB8449
	.uleb128 0
	.uleb128 .LEHB43-.LFB8449
	.uleb128 .LEHE43-.LEHB43
	.uleb128 0
	.uleb128 0
	.uleb128 .LEHB44-.LFB8449
	.uleb128 .LEHE44-.LEHB44
	.uleb128 .L1109-.LFB8449
	.uleb128 0
	.uleb128 .LEHB45-.LFB8449
	.uleb128 .LEHE45-.LEHB45
	.uleb128 .L1111-.LFB8449
	.uleb128 0
.LLSDACSE8449:
	.text
	.size	_ZN8asiodnp311DNP3Channel13GetStatisticsEv, .-_ZN8asiodnp311DNP3Channel13GetStatisticsEv
	.section	.text._ZNSt7promiseIN7openpal10LogFiltersEED2Ev,"axG",@progbits,_ZNSt7promiseIN7openpal10LogFiltersEED5Ev,comdat
	.align 2
	.p2align 4,,15
	.weak	_ZNSt7promiseIN7openpal10LogFiltersEED2Ev
	.type	_ZNSt7promiseIN7openpal10LogFiltersEED2Ev, @function
_ZNSt7promiseIN7openpal10LogFiltersEED2Ev:
.LFB10316:
	.cfi_startproc
	.cfi_personality 0x9b,DW.ref.__gxx_personality_v0
	.cfi_lsda 0x1b,.LLSDA10316
	pushq	%rbp
	.cfi_def_cfa_offset 16
	.cfi_offset 6, -16
	pushq	%rbx
	.cfi_def_cfa_offset 24
	.cfi_offset 3, -24
	movq	%rdi, %rbx
	subq	$24, %rsp
	.cfi_def_cfa_offset 48
	movq	%fs:40, %rax
	movq	%rax, 8(%rsp)
	xorl	%eax, %eax
	movq	(%rdi), %rax
	testq	%rax, %rax
	je	.L1189
	movq	8(%rdi), %rdi
	testq	%rdi, %rdi
	je	.L1169
	movl	8(%rdi), %edx
	cmpl	$1, %edx
	je	.L1189
.L1169:
	movq	16(%rbx), %rdx
	movq	$0, 16(%rbx)
	testq	%rdx, %rdx
	movq	%rdx, (%rsp)
	je	.L1172
	movq	%rax, %rdi
	movq	%rsp, %rsi
	call	_ZNSt13__future_base13_State_baseV216_M_break_promiseESt10unique_ptrINS_12_Result_baseENS2_8_DeleterEE.part.110
	movq	(%rsp), %rdi
	testq	%rdi, %rdi
	je	.L1189
	movq	(%rdi), %rax
	call	*(%rax)
.L1189:
	movq	16(%rbx), %rbp
	testq	%rbp, %rbp
	je	.L1190
	movq	0(%rbp), %rax
	movq	(%rax), %rdx
	cmpq	_ZNSt13__future_base7_ResultIN7openpal10LogFiltersEE10_M_destroyEv@GOTPCREL(%rip), %rdx
	jne	.L1175
	movq	16(%rax), %rax
	cmpq	_ZNSt13__future_base7_ResultIN7openpal10LogFiltersEED0Ev@GOTPCREL(%rip), %rax
	jne	.L1176
	movq	_ZTVNSt13__future_base7_ResultIN7openpal10LogFiltersEEE@GOTPCREL(%rip), %rax
	movq	%rbp, %rdi
	addq	$16, %rax
	movq	%rax, 0(%rbp)
	call	_ZNSt13__future_base12_Result_baseD2Ev@PLT
	movq	%rbp, %rdi
	movl	$24, %esi
	call	_ZdlPvm@PLT
	movq	8(%rbx), %rdi
.L1172:
	testq	%rdi, %rdi
	je	.L1166
	call	_ZNSt16_Sp_counted_baseILN9__gnu_cxx12_Lock_policyE2EE10_M_releaseEv@PLT
.L1166:
	movq	8(%rsp), %rax
	xorq	%fs:40, %rax
	jne	.L1191
	addq	$24, %rsp
	.cfi_remember_state
	.cfi_def_cfa_offset 24
	popq	%rbx
	.cfi_def_cfa_offset 16
	popq	%rbp
	.cfi_def_cfa_offset 8
	ret
	.p2align 4,,10
	.p2align 3
.L1175:
	.cfi_restore_state
	movq	%rbp, %rdi
	call	*%rdx
.L1190:
	movq	8(%rbx), %rdi
	jmp	.L1172
	.p2align 4,,10
	.p2align 3
.L1176:
	movq	%rbp, %rdi
	call	*%rax
	movq	8(%rbx), %rdi
	jmp	.L1172
.L1191:
	call	__stack_chk_fail@PLT
	.cfi_endproc
.LFE10316:
	.section	.gcc_except_table
.LLSDA10316:
	.byte	0xff
	.byte	0xff
	.byte	0x1
	.uleb128 .LLSDACSE10316-.LLSDACSB10316
.LLSDACSB10316:
.LLSDACSE10316:
	.section	.text._ZNSt7promiseIN7openpal10LogFiltersEED2Ev,"axG",@progbits,_ZNSt7promiseIN7openpal10LogFiltersEED5Ev,comdat
	.size	_ZNSt7promiseIN7openpal10LogFiltersEED2Ev, .-_ZNSt7promiseIN7openpal10LogFiltersEED2Ev
	.weak	_ZNSt7promiseIN7openpal10LogFiltersEED1Ev
	.set	_ZNSt7promiseIN7openpal10LogFiltersEED1Ev,_ZNSt7promiseIN7openpal10LogFiltersEED2Ev
	.text
	.align 2
	.p2align 4,,15
	.globl	_ZNK8asiodnp311DNP3Channel13GetLogFiltersEv
	.type	_ZNK8asiodnp311DNP3Channel13GetLogFiltersEv, @function
_ZNK8asiodnp311DNP3Channel13GetLogFiltersEv:
.LFB8454:
	.cfi_startproc
	.cfi_personality 0x9b,DW.ref.__gxx_personality_v0
	.cfi_lsda 0x1b,.LLSDA8454
	pushq	%r15
	.cfi_def_cfa_offset 16
	.cfi_offset 15, -16
	pushq	%r14
	.cfi_def_cfa_offset 24
	.cfi_offset 14, -24
	leaq	_ZNSt14_Function_base13_Base_managerIZNK8asiodnp311DNP3Channel13GetLogFiltersEvEUlvE_E10_M_managerERSt9_Any_dataRKS5_St18_Manager_operation(%rip), %rcx
	pushq	%r13
	.cfi_def_cfa_offset 32
	.cfi_offset 13, -32
	pushq	%r12
	.cfi_def_cfa_offset 40
	.cfi_offset 12, -40
	pushq	%rbp
	.cfi_def_cfa_offset 48
	.cfi_offset 6, -48
	pushq	%rbx
	.cfi_def_cfa_offset 56
	.cfi_offset 3, -56
	movq	%rdi, %rbp
	subq	$152, %rsp
	.cfi_def_cfa_offset 208
	movq	56(%rdi), %r13
	movq	%fs:40, %rax
	movq	%rax, 136(%rsp)
	xorl	%eax, %eax
	leaq	_ZNSt17_Function_handlerIFN7openpal10LogFiltersEvEZNK8asiodnp311DNP3Channel13GetLogFiltersEvEUlvE_E9_M_invokeERKSt9_Any_data(%rip), %rax
	movq	%rcx, (%rsp)
	movq	%rdi, 96(%rsp)
	movq	(%rsp), %xmm0
	movq	48(%r13), %rbx
	movq	%rax, (%rsp)
	movhps	(%rsp), %xmm0
	movaps	%xmm0, 112(%rsp)
	.byte	0x66
	leaq	_ZN4asio6detail15keyword_tss_ptrINS0_10call_stackINS0_14strand_service11strand_implEhE7contextEE6value_E@tlsgd(%rip), %rdi
	.value	0x6666
	rex64
	call	__tls_get_addr@PLT
	movq	(%rax), %rax
	testq	%rax, %rax
	jne	.L1281
	jmp	.L1193
	.p2align 4,,10
	.p2align 3
.L1195:
	movq	16(%rax), %rax
	testq	%rax, %rax
	je	.L1193
.L1281:
	cmpq	(%rax), %rbx
	jne	.L1195
	cmpq	$0, 8(%rax)
	je	.L1193
	movq	40(%rbp), %rax
	leaq	96(%rsp), %rbx
	movl	32(%rax), %ebp
	leaq	_ZNSt14_Function_base13_Base_managerIZNK8asiodnp311DNP3Channel13GetLogFiltersEvEUlvE_E10_M_managerERSt9_Any_dataRKS5_St18_Manager_operation(%rip), %rax
.L1198:
	movl	$3, %edx
	movq	%rbx, %rsi
	movq	%rbx, %rdi
	call	*%rax
.L1230:
	movq	136(%rsp), %rsi
	xorq	%fs:40, %rsi
	movl	%ebp, %eax
	jne	.L1293
	addq	$152, %rsp
	.cfi_remember_state
	.cfi_def_cfa_offset 56
	popq	%rbx
	.cfi_def_cfa_offset 48
	popq	%rbp
	.cfi_def_cfa_offset 40
	popq	%r12
	.cfi_def_cfa_offset 32
	popq	%r13
	.cfi_def_cfa_offset 24
	popq	%r14
	.cfi_def_cfa_offset 16
	popq	%r15
	.cfi_def_cfa_offset 8
	ret
	.p2align 4,,10
	.p2align 3
.L1193:
	.cfi_restore_state
	movl	$48, %edi
	movq	$0, 32(%rsp)
	movq	$0, 40(%rsp)
.LEHB46:
	call	_Znwm@PLT
.LEHE46:
	movq	_ZTVSt23_Sp_counted_ptr_inplaceINSt13__future_base13_State_baseV2ESaIS1_ELN9__gnu_cxx12_Lock_policyE2EE@GOTPCREL(%rip), %rdx
	movabsq	$4294967297, %rsi
	movq	$0, 24(%rax)
	movq	%rsi, 8(%rax)
	movl	$0, 32(%rax)
	movl	$24, %edi
	movb	$0, 36(%rax)
	movl	$0, 40(%rax)
	addq	$16, %rdx
	movq	%rax, 40(%rsp)
	addq	$16, %rax
	movq	%rdx, -16(%rax)
	movq	_ZTVNSt13__future_base13_State_baseV2E@GOTPCREL(%rip), %rdx
	addq	$16, %rdx
	movq	%rdx, (%rax)
	movq	%rax, 32(%rsp)
.LEHB47:
	call	_Znwm@PLT
.LEHE47:
	movq	%rax, %rdi
	movq	%rax, %rbx
	call	_ZNSt13__future_base12_Result_baseC2Ev@PLT
	movq	_ZTVNSt13__future_base7_ResultIN7openpal10LogFiltersEEE@GOTPCREL(%rip), %rax
	movq	40(%rsp), %r12
	movb	$0, 20(%rbx)
	movq	%rbx, 48(%rsp)
	movq	32(%rsp), %rbp
	addq	$16, %rax
	testq	%r12, %r12
	movq	%rax, (%rbx)
	je	.L1200
	cmpq	$0, _ZL28__gthrw___pthread_key_createPjPFvPvE@GOTPCREL(%rip)
	je	.L1204
	lock addl	$1, 8(%r12)
.L1200:
	testq	%rbp, %rbp
	je	.L1294
	movl	$1, %eax
	xchgb	20(%rbp), %al
	testb	%al, %al
	jne	.L1295
	leaq	32(%rsp), %rax
	leaq	96(%rsp), %rbx
	movq	40(%r13), %r15
	movq	%rax, (%rsp)
	movq	%rbx, 8(%rsp)
	leaq	48(%r13), %rax
	movq	(%rsp), %xmm0
	leaq	64(%rsp), %r13
	movhps	8(%rsp), %xmm0
	movq	%rax, 8(%rsp)
	xorl	%eax, %eax
	movq	%r13, %rdi
	movaps	%xmm0, 64(%rsp)
	call	_ZN4asio28asio_handler_is_continuationEz@PLT
	movl	%eax, %r14d
	.byte	0x66
	leaq	_ZN4asio6detail15keyword_tss_ptrINS0_10call_stackINS0_15task_io_serviceENS0_27task_io_service_thread_infoEE7contextEE6value_E@tlsgd(%rip), %rdi
	.value	0x6666
	rex64
	call	__tls_get_addr@PLT
	movq	(%rax), %rax
	testq	%rax, %rax
	je	.L1210
	movq	8(%rax), %rax
	testq	%rax, %rax
	je	.L1210
	movq	(%rax), %rdx
	testq	%rdx, %rdx
	je	.L1210
	movq	$0, (%rax)
	movzbl	(%rdx), %eax
	cmpb	$39, %al
	jbe	.L1211
	movb	%al, 40(%rdx)
.L1212:
	movdqa	64(%rsp), %xmm0
	movq	%r15, %rdi
	movzbl	%r14b, %ecx
	movq	_ZN4asio6detail18completion_handlerIZN7asiopal8Executor10ReturnFromIN7openpal10LogFiltersEEET_RKSt8functionIFS7_vEEEUlvE_E11do_completeEPNS0_15task_io_serviceEPNS0_25task_io_service_operationERKSt10error_codem@GOTPCREL(%rip), %rax
	movq	8(%rsp), %rsi
	movups	%xmm0, 24(%rdx)
	movq	$0, (%rdx)
	movl	$0, 16(%rdx)
	movq	%rax, 8(%rdx)
	call	_ZN4asio6detail14strand_service7do_postERPNS1_11strand_implEPNS0_25task_io_service_operationEb@PLT
	movq	%rbp, %rdi
.LEHB48:
	call	_ZNSt13__future_base13_State_baseV24waitEv@PLT
.LEHE48:
	movq	%rbp, %rdi
.LEHB49:
	call	_ZNSt13__future_base13_State_baseV24waitEv@PLT
.LEHE49:
	leaq	8(%rax), %r14
	movq	%r13, %rsi
	movq	%rax, %rbp
	movq	$0, 64(%rsp)
	movq	%r14, %rdi
	call	_ZNSt15__exception_ptreqERKNS_13exception_ptrES2_@PLT
	movq	%r13, %rdi
	movl	%eax, %r15d
	call	_ZNSt15__exception_ptr13exception_ptrD1Ev@PLT
	testb	%r15b, %r15b
	je	.L1296
	testq	%r12, %r12
	movl	16(%rbp), %ebp
	je	.L1215
	movq	%r12, %rdi
	call	_ZNSt16_Sp_counted_baseILN9__gnu_cxx12_Lock_policyE2EE10_M_releaseEv@PLT
.L1215:
	movq	32(%rsp), %rax
	testq	%rax, %rax
	je	.L1287
	movq	40(%rsp), %rdi
	testq	%rdi, %rdi
	je	.L1221
	movl	8(%rdi), %edx
	cmpl	$1, %edx
	je	.L1287
.L1221:
	movq	48(%rsp), %rdx
	movq	$0, 48(%rsp)
	testq	%rdx, %rdx
	movq	%rdx, 64(%rsp)
	je	.L1224
	movq	%rax, %rdi
	movq	%r13, %rsi
	call	_ZNSt13__future_base13_State_baseV216_M_break_promiseESt10unique_ptrINS_12_Result_baseENS2_8_DeleterEE.part.110
	movq	64(%rsp), %rdi
	testq	%rdi, %rdi
	je	.L1287
	movq	(%rdi), %rax
	call	*(%rax)
.L1287:
	movq	48(%rsp), %r12
	testq	%r12, %r12
	je	.L1288
	movq	(%r12), %rax
	movq	(%rax), %rdx
	cmpq	_ZNSt13__future_base7_ResultIN7openpal10LogFiltersEE10_M_destroyEv@GOTPCREL(%rip), %rdx
	jne	.L1227
	movq	16(%rax), %rax
	cmpq	_ZNSt13__future_base7_ResultIN7openpal10LogFiltersEED0Ev@GOTPCREL(%rip), %rax
	jne	.L1228
	movq	_ZTVNSt13__future_base7_ResultIN7openpal10LogFiltersEEE@GOTPCREL(%rip), %rax
	movq	%r12, %rdi
	addq	$16, %rax
	movq	%rax, (%r12)
	call	_ZNSt13__future_base12_Result_baseD2Ev@PLT
	movq	%r12, %rdi
	movl	$24, %esi
	call	_ZdlPvm@PLT
	movq	40(%rsp), %rdi
.L1224:
	testq	%rdi, %rdi
	je	.L1229
	call	_ZNSt16_Sp_counted_baseILN9__gnu_cxx12_Lock_policyE2EE10_M_releaseEv@PLT
.L1229:
	movq	112(%rsp), %rax
	testq	%rax, %rax
	jne	.L1198
	jmp	.L1230
.L1211:
	movq	%rdx, %rdi
	call	_ZdlPv@PLT
.L1210:
	movl	$41, %edi
.LEHB50:
	call	_Znwm@PLT
.LEHE50:
	movq	%rax, %rdx
	movb	$40, 40(%rax)
	jmp	.L1212
	.p2align 4,,10
	.p2align 3
.L1204:
	addl	$1, 8(%r12)
	jmp	.L1200
.L1227:
	movq	%r12, %rdi
	call	*%rdx
.L1288:
	movq	40(%rsp), %rdi
	jmp	.L1224
.L1228:
	movq	%r12, %rdi
	call	*%rax
	movq	40(%rsp), %rdi
	jmp	.L1224
.L1293:
	call	__stack_chk_fail@PLT
.L1236:
	movq	%rax, %rbx
.L1203:
	movq	112(%rsp), %rax
	testq	%rax, %rax
	je	.L1233
	leaq	96(%rsp), %rdi
	movl	$3, %edx
	movq	%rdi, %rsi
	call	*%rax
.L1233:
	movq	%rbx, %rdi
.LEHB51:
	call	_Unwind_Resume@PLT
.LEHE51:
.L1294:
	movl	$3, %edi
.LEHB52:
	call	_ZSt20__throw_future_errori@PLT
.L1238:
	movq	40(%rsp), %rdi
	movq	%rax, %rbx
	testq	%rdi, %rdi
	je	.L1203
	call	_ZNSt16_Sp_counted_baseILN9__gnu_cxx12_Lock_policyE2EE10_M_releaseEv@PLT
	jmp	.L1203
.L1239:
	testq	%r12, %r12
	movq	%rax, %rbx
	je	.L1208
	movq	%r12, %rdi
	call	_ZNSt16_Sp_counted_baseILN9__gnu_cxx12_Lock_policyE2EE10_M_releaseEv@PLT
.L1208:
	leaq	32(%rsp), %rax
	movq	%rax, (%rsp)
.L1209:
	movq	(%rsp), %rdi
	call	_ZNSt7promiseIN7openpal10LogFiltersEED1Ev@PLT
	jmp	.L1203
.L1295:
	movl	$1, %edi
	call	_ZSt20__throw_future_errori@PLT
.LEHE52:
.L1296:
	leaq	24(%rsp), %rbp
	movq	%r14, %rsi
	movq	%rbp, %rdi
	call	_ZNSt15__exception_ptr13exception_ptrC1ERKS0_@PLT
	movq	%rbp, %rdi
.LEHB53:
	call	_ZSt17rethrow_exceptionNSt15__exception_ptr13exception_ptrE@PLT
.LEHE53:
.L1240:
.L1292:
	movq	%rax, %rbx
.L1291:
	testq	%r12, %r12
	je	.L1209
	movq	%r12, %rdi
	call	_ZNSt16_Sp_counted_baseILN9__gnu_cxx12_Lock_policyE2EE10_M_releaseEv@PLT
	jmp	.L1209
.L1237:
	jmp	.L1292
.L1241:
	movq	%rbp, %rdi
	movq	%rax, %rbx
	call	_ZNSt15__exception_ptr13exception_ptrD1Ev@PLT
	jmp	.L1291
	.cfi_endproc
.LFE8454:
	.section	.gcc_except_table
.LLSDA8454:
	.byte	0xff
	.byte	0xff
	.byte	0x1
	.uleb128 .LLSDACSE8454-.LLSDACSB8454
.LLSDACSB8454:
	.uleb128 .LEHB46-.LFB8454
	.uleb128 .LEHE46-.LEHB46
	.uleb128 .L1236-.LFB8454
	.uleb128 0
	.uleb128 .LEHB47-.LFB8454
	.uleb128 .LEHE47-.LEHB47
	.uleb128 .L1238-.LFB8454
	.uleb128 0
	.uleb128 .LEHB48-.LFB8454
	.uleb128 .LEHE48-.LEHB48
	.uleb128 .L1237-.LFB8454
	.uleb128 0
	.uleb128 .LEHB49-.LFB8454
	.uleb128 .LEHE49-.LEHB49
	.uleb128 .L1240-.LFB8454
	.uleb128 0
	.uleb128 .LEHB50-.LFB8454
	.uleb128 .LEHE50-.LEHB50
	.uleb128 .L1237-.LFB8454
	.uleb128 0
	.uleb128 .LEHB51-.LFB8454
	.uleb128 .LEHE51-.LEHB51
	.uleb128 0
	.uleb128 0
	.uleb128 .LEHB52-.LFB8454
	.uleb128 .LEHE52-.LEHB52
	.uleb128 .L1239-.LFB8454
	.uleb128 0
	.uleb128 .LEHB53-.LFB8454
	.uleb128 .LEHE53-.LEHB53
	.uleb128 .L1241-.LFB8454
	.uleb128 0
.LLSDACSE8454:
	.text
	.size	_ZNK8asiodnp311DNP3Channel13GetLogFiltersEv, .-_ZNK8asiodnp311DNP3Channel13GetLogFiltersEv
	.section	.text._ZNSt7promiseIbED2Ev,"axG",@progbits,_ZNSt7promiseIbED5Ev,comdat
	.align 2
	.p2align 4,,15
	.weak	_ZNSt7promiseIbED2Ev
	.type	_ZNSt7promiseIbED2Ev, @function
_ZNSt7promiseIbED2Ev:
.LFB10903:
	.cfi_startproc
	.cfi_personality 0x9b,DW.ref.__gxx_personality_v0
	.cfi_lsda 0x1b,.LLSDA10903
	pushq	%rbp
	.cfi_def_cfa_offset 16
	.cfi_offset 6, -16
	pushq	%rbx
	.cfi_def_cfa_offset 24
	.cfi_offset 3, -24
	movq	%rdi, %rbx
	subq	$24, %rsp
	.cfi_def_cfa_offset 48
	movq	%fs:40, %rax
	movq	%rax, 8(%rsp)
	xorl	%eax, %eax
	movq	(%rdi), %rax
	testq	%rax, %rax
	je	.L1320
	movq	8(%rdi), %rdi
	testq	%rdi, %rdi
	je	.L1300
	movl	8(%rdi), %edx
	cmpl	$1, %edx
	je	.L1320
.L1300:
	movq	16(%rbx), %rdx
	movq	$0, 16(%rbx)
	testq	%rdx, %rdx
	movq	%rdx, (%rsp)
	je	.L1303
	movq	%rax, %rdi
	movq	%rsp, %rsi
	call	_ZNSt13__future_base13_State_baseV216_M_break_promiseESt10unique_ptrINS_12_Result_baseENS2_8_DeleterEE.part.110
	movq	(%rsp), %rdi
	testq	%rdi, %rdi
	je	.L1320
	movq	(%rdi), %rax
	call	*(%rax)
.L1320:
	movq	16(%rbx), %rbp
	testq	%rbp, %rbp
	je	.L1321
	movq	0(%rbp), %rax
	movq	(%rax), %rdx
	cmpq	_ZNSt13__future_base7_ResultIbE10_M_destroyEv@GOTPCREL(%rip), %rdx
	jne	.L1306
	movq	16(%rax), %rax
	cmpq	_ZNSt13__future_base7_ResultIbED0Ev@GOTPCREL(%rip), %rax
	jne	.L1307
	movq	_ZTVNSt13__future_base7_ResultIbEE@GOTPCREL(%rip), %rax
	movq	%rbp, %rdi
	addq	$16, %rax
	movq	%rax, 0(%rbp)
	call	_ZNSt13__future_base12_Result_baseD2Ev@PLT
	movq	%rbp, %rdi
	movl	$24, %esi
	call	_ZdlPvm@PLT
	movq	8(%rbx), %rdi
.L1303:
	testq	%rdi, %rdi
	je	.L1297
	call	_ZNSt16_Sp_counted_baseILN9__gnu_cxx12_Lock_policyE2EE10_M_releaseEv@PLT
.L1297:
	movq	8(%rsp), %rax
	xorq	%fs:40, %rax
	jne	.L1322
	addq	$24, %rsp
	.cfi_remember_state
	.cfi_def_cfa_offset 24
	popq	%rbx
	.cfi_def_cfa_offset 16
	popq	%rbp
	.cfi_def_cfa_offset 8
	ret
	.p2align 4,,10
	.p2align 3
.L1306:
	.cfi_restore_state
	movq	%rbp, %rdi
	call	*%rdx
.L1321:
	movq	8(%rbx), %rdi
	jmp	.L1303
	.p2align 4,,10
	.p2align 3
.L1307:
	movq	%rbp, %rdi
	call	*%rax
	movq	8(%rbx), %rdi
	jmp	.L1303
.L1322:
	call	__stack_chk_fail@PLT
	.cfi_endproc
.LFE10903:
	.section	.gcc_except_table
.LLSDA10903:
	.byte	0xff
	.byte	0xff
	.byte	0x1
	.uleb128 .LLSDACSE10903-.LLSDACSB10903
.LLSDACSB10903:
.LLSDACSE10903:
	.section	.text._ZNSt7promiseIbED2Ev,"axG",@progbits,_ZNSt7promiseIbED5Ev,comdat
	.size	_ZNSt7promiseIbED2Ev, .-_ZNSt7promiseIbED2Ev
	.weak	_ZNSt7promiseIbED1Ev
	.set	_ZNSt7promiseIbED1Ev,_ZNSt7promiseIbED2Ev
	.section	.text._ZN7asiopal8Executor10ReturnFromIbEET_RKSt8functionIFS2_vEE,"axG",@progbits,_ZN7asiopal8Executor10ReturnFromIbEET_RKSt8functionIFS2_vEE,comdat
	.align 2
	.p2align 4,,15
	.weak	_ZN7asiopal8Executor10ReturnFromIbEET_RKSt8functionIFS2_vEE
	.type	_ZN7asiopal8Executor10ReturnFromIbEET_RKSt8functionIFS2_vEE, @function
_ZN7asiopal8Executor10ReturnFromIbEET_RKSt8functionIFS2_vEE:
.LFB10346:
	.cfi_startproc
	.cfi_personality 0x9b,DW.ref.__gxx_personality_v0
	.cfi_lsda 0x1b,.LLSDA10346
	pushq	%r15
	.cfi_def_cfa_offset 16
	.cfi_offset 15, -16
	pushq	%r14
	.cfi_def_cfa_offset 24
	.cfi_offset 14, -24
	pushq	%r13
	.cfi_def_cfa_offset 32
	.cfi_offset 13, -32
	pushq	%r12
	.cfi_def_cfa_offset 40
	.cfi_offset 12, -40
	movq	%rsi, %r13
	pushq	%rbp
	.cfi_def_cfa_offset 48
	.cfi_offset 6, -48
	pushq	%rbx
	.cfi_def_cfa_offset 56
	.cfi_offset 3, -56
	movq	%rdi, %r12
	subq	$104, %rsp
	.cfi_def_cfa_offset 160
	movq	48(%rdi), %rbx
	movq	%fs:40, %rax
	movq	%rax, 88(%rsp)
	xorl	%eax, %eax
	.byte	0x66
	leaq	_ZN4asio6detail15keyword_tss_ptrINS0_10call_stackINS0_14strand_service11strand_implEhE7contextEE6value_E@tlsgd(%rip), %rdi
	.value	0x6666
	rex64
	call	__tls_get_addr@PLT
	movq	(%rax), %rax
	testq	%rax, %rax
	jne	.L1387
	jmp	.L1324
	.p2align 4,,10
	.p2align 3
.L1326:
	movq	16(%rax), %rax
	testq	%rax, %rax
	je	.L1324
.L1387:
	cmpq	(%rax), %rbx
	jne	.L1326
	cmpq	$0, 8(%rax)
	je	.L1324
	cmpq	$0, 16(%r13)
	je	.L1396
	movq	%r13, %rdi
.LEHB54:
	call	*24(%r13)
.L1323:
	movq	88(%rsp), %rcx
	xorq	%fs:40, %rcx
	jne	.L1397
	addq	$104, %rsp
	.cfi_remember_state
	.cfi_def_cfa_offset 56
	popq	%rbx
	.cfi_def_cfa_offset 48
	popq	%rbp
	.cfi_def_cfa_offset 40
	popq	%r12
	.cfi_def_cfa_offset 32
	popq	%r13
	.cfi_def_cfa_offset 24
	popq	%r14
	.cfi_def_cfa_offset 16
	popq	%r15
	.cfi_def_cfa_offset 8
	ret
	.p2align 4,,10
	.p2align 3
.L1324:
	.cfi_restore_state
	movl	$48, %edi
	movq	$0, 32(%rsp)
	movq	$0, 40(%rsp)
	call	_Znwm@PLT
.LEHE54:
	movq	_ZTVSt23_Sp_counted_ptr_inplaceINSt13__future_base13_State_baseV2ESaIS1_ELN9__gnu_cxx12_Lock_policyE2EE@GOTPCREL(%rip), %rdx
	movabsq	$4294967297, %rsi
	movq	$0, 24(%rax)
	movq	%rsi, 8(%rax)
	movl	$0, 32(%rax)
	movl	$24, %edi
	movb	$0, 36(%rax)
	movl	$0, 40(%rax)
	addq	$16, %rdx
	movq	%rax, 40(%rsp)
	addq	$16, %rax
	movq	%rdx, -16(%rax)
	movq	_ZTVNSt13__future_base13_State_baseV2E@GOTPCREL(%rip), %rdx
	addq	$16, %rdx
	movq	%rdx, (%rax)
	movq	%rax, 32(%rsp)
.LEHB55:
	call	_Znwm@PLT
.LEHE55:
	movq	%rax, %rdi
	movq	%rax, %rbx
	call	_ZNSt13__future_base12_Result_baseC2Ev@PLT
	movq	_ZTVNSt13__future_base7_ResultIbEE@GOTPCREL(%rip), %rax
	movq	40(%rsp), %rbp
	movb	$0, 17(%rbx)
	movq	%rbx, 48(%rsp)
	addq	$16, %rax
	testq	%rbp, %rbp
	movq	%rax, (%rbx)
	movq	32(%rsp), %rbx
	je	.L1332
	cmpq	$0, _ZL28__gthrw___pthread_key_createPjPFvPvE@GOTPCREL(%rip)
	je	.L1335
	lock addl	$1, 8(%rbp)
.L1332:
	testq	%rbx, %rbx
	je	.L1398
	movl	$1, %eax
	xchgb	20(%rbx), %al
	testb	%al, %al
	jne	.L1399
	leaq	48(%r12), %rax
	movq	40(%r12), %r15
	leaq	64(%rsp), %r12
	leaq	32(%rsp), %r14
	movq	%r13, 72(%rsp)
	movq	%rax, 8(%rsp)
	movq	%r12, %rdi
	xorl	%eax, %eax
	movq	%r14, 64(%rsp)
	call	_ZN4asio28asio_handler_is_continuationEz@PLT
	movl	%eax, %r13d
	.byte	0x66
	leaq	_ZN4asio6detail15keyword_tss_ptrINS0_10call_stackINS0_15task_io_serviceENS0_27task_io_service_thread_infoEE7contextEE6value_E@tlsgd(%rip), %rdi
	.value	0x6666
	rex64
	call	__tls_get_addr@PLT
	movq	(%rax), %rax
	testq	%rax, %rax
	je	.L1341
	movq	8(%rax), %rax
	testq	%rax, %rax
	je	.L1341
	movq	(%rax), %rdx
	testq	%rdx, %rdx
	je	.L1341
	movq	$0, (%rax)
	movzbl	(%rdx), %eax
	cmpb	$39, %al
	jbe	.L1342
	movb	%al, 40(%rdx)
.L1343:
	movdqa	64(%rsp), %xmm0
	movq	%r15, %rdi
	movzbl	%r13b, %ecx
	movq	_ZN4asio6detail18completion_handlerIZN7asiopal8Executor10ReturnFromIbEET_RKSt8functionIFS5_vEEEUlvE_E11do_completeEPNS0_15task_io_serviceEPNS0_25task_io_service_operationERKSt10error_codem@GOTPCREL(%rip), %rax
	movq	8(%rsp), %rsi
	movups	%xmm0, 24(%rdx)
	movq	$0, (%rdx)
	movl	$0, 16(%rdx)
	movq	%rax, 8(%rdx)
	call	_ZN4asio6detail14strand_service7do_postERPNS1_11strand_implEPNS0_25task_io_service_operationEb@PLT
	movq	%rbx, %rdi
.LEHB56:
	call	_ZNSt13__future_base13_State_baseV24waitEv@PLT
.LEHE56:
	movq	%rbx, %rdi
.LEHB57:
	call	_ZNSt13__future_base13_State_baseV24waitEv@PLT
.LEHE57:
	leaq	8(%rax), %r13
	movq	%r12, %rsi
	movq	%rax, %rbx
	movq	$0, 64(%rsp)
	movq	%r13, %rdi
	call	_ZNSt15__exception_ptreqERKNS_13exception_ptrES2_@PLT
	movq	%r12, %rdi
	movl	%eax, %r15d
	call	_ZNSt15__exception_ptr13exception_ptrD1Ev@PLT
	testb	%r15b, %r15b
	je	.L1400
	testq	%rbp, %rbp
	movzbl	16(%rbx), %eax
	je	.L1346
	movq	%rbp, %rdi
	movb	%al, 8(%rsp)
	call	_ZNSt16_Sp_counted_baseILN9__gnu_cxx12_Lock_policyE2EE10_M_releaseEv@PLT
	movzbl	8(%rsp), %eax
.L1346:
	movq	%r14, %rdi
	movb	%al, 8(%rsp)
	call	_ZNSt7promiseIbED1Ev@PLT
	movzbl	8(%rsp), %eax
	jmp	.L1323
.L1342:
	movq	%rdx, %rdi
	call	_ZdlPv@PLT
.L1341:
	movl	$41, %edi
.LEHB58:
	call	_Znwm@PLT
.LEHE58:
	movq	%rax, %rdx
	movb	$40, 40(%rax)
	jmp	.L1343
	.p2align 4,,10
	.p2align 3
.L1335:
	addl	$1, 8(%rbp)
	jmp	.L1332
.L1397:
	call	__stack_chk_fail@PLT
.L1400:
	leaq	24(%rsp), %r12
	movq	%r13, %rsi
	movq	%r12, %rdi
	call	_ZNSt15__exception_ptr13exception_ptrC1ERKS0_@PLT
	movq	%r12, %rdi
.LEHB59:
	call	_ZSt17rethrow_exceptionNSt15__exception_ptr13exception_ptrE@PLT
.LEHE59:
.L1357:
.L1395:
	movq	%rax, %rbx
.L1394:
	testq	%rbp, %rbp
	je	.L1340
	movq	%rbp, %rdi
	call	_ZNSt16_Sp_counted_baseILN9__gnu_cxx12_Lock_policyE2EE10_M_releaseEv@PLT
.L1340:
	movq	%r14, %rdi
	call	_ZNSt7promiseIbED1Ev@PLT
.L1392:
	movq	%rbx, %rdi
.LEHB60:
	call	_Unwind_Resume@PLT
.LEHE60:
.L1354:
	jmp	.L1395
.L1358:
	movq	%r12, %rdi
	movq	%rax, %rbx
	call	_ZNSt15__exception_ptr13exception_ptrD1Ev@PLT
	jmp	.L1394
.L1399:
	movl	$1, %edi
.LEHB61:
	call	_ZSt20__throw_future_errori@PLT
.L1398:
	movl	$3, %edi
	call	_ZSt20__throw_future_errori@PLT
.LEHE61:
.L1355:
	testq	%rbp, %rbp
	movq	%rax, %rbx
	je	.L1339
	movq	%rbp, %rdi
	call	_ZNSt16_Sp_counted_baseILN9__gnu_cxx12_Lock_policyE2EE10_M_releaseEv@PLT
.L1339:
	leaq	32(%rsp), %r14
	jmp	.L1340
.L1356:
	movq	40(%rsp), %rdi
	movq	%rax, %rbx
	testq	%rdi, %rdi
	je	.L1392
	call	_ZNSt16_Sp_counted_baseILN9__gnu_cxx12_Lock_policyE2EE10_M_releaseEv@PLT
	jmp	.L1392
.L1396:
.LEHB62:
	call	_ZSt25__throw_bad_function_callv@PLT
.LEHE62:
	.cfi_endproc
.LFE10346:
	.section	.gcc_except_table
.LLSDA10346:
	.byte	0xff
	.byte	0xff
	.byte	0x1
	.uleb128 .LLSDACSE10346-.LLSDACSB10346
.LLSDACSB10346:
	.uleb128 .LEHB54-.LFB10346
	.uleb128 .LEHE54-.LEHB54
	.uleb128 0
	.uleb128 0
	.uleb128 .LEHB55-.LFB10346
	.uleb128 .LEHE55-.LEHB55
	.uleb128 .L1356-.LFB10346
	.uleb128 0
	.uleb128 .LEHB56-.LFB10346
	.uleb128 .LEHE56-.LEHB56
	.uleb128 .L1354-.LFB10346
	.uleb128 0
	.uleb128 .LEHB57-.LFB10346
	.uleb128 .LEHE57-.LEHB57
	.uleb128 .L1357-.LFB10346
	.uleb128 0
	.uleb128 .LEHB58-.LFB10346
	.uleb128 .LEHE58-.LEHB58
	.uleb128 .L1354-.LFB10346
	.uleb128 0
	.uleb128 .LEHB59-.LFB10346
	.uleb128 .LEHE59-.LEHB59
	.uleb128 .L1358-.LFB10346
	.uleb128 0
	.uleb128 .LEHB60-.LFB10346
	.uleb128 .LEHE60-.LEHB60
	.uleb128 0
	.uleb128 0
	.uleb128 .LEHB61-.LFB10346
	.uleb128 .LEHE61-.LEHB61
	.uleb128 .L1355-.LFB10346
	.uleb128 0
	.uleb128 .LEHB62-.LFB10346
	.uleb128 .LEHE62-.LEHB62
	.uleb128 0
	.uleb128 0
.LLSDACSE10346:
	.section	.text._ZN7asiopal8Executor10ReturnFromIbEET_RKSt8functionIFS2_vEE,"axG",@progbits,_ZN7asiopal8Executor10ReturnFromIbEET_RKSt8functionIFS2_vEE,comdat
	.size	_ZN7asiopal8Executor10ReturnFromIbEET_RKSt8functionIFS2_vEE, .-_ZN7asiopal8Executor10ReturnFromIbEET_RKSt8functionIFS2_vEE
	.section	.text._ZNSt8_Rb_treeISt10shared_ptrIN7asiopal9IResourceEES3_St9_IdentityIS3_ESt4lessIS3_ESaIS3_EE16_M_insert_uniqueIS3_EESt4pairISt17_Rb_tree_iteratorIS3_EbEOT_,"axG",@progbits,_ZNSt8_Rb_treeISt10shared_ptrIN7asiopal9IResourceEES3_St9_IdentityIS3_ESt4lessIS3_ESaIS3_EE16_M_insert_uniqueIS3_EESt4pairISt17_Rb_tree_iteratorIS3_EbEOT_,comdat
	.align 2
	.p2align 4,,15
	.weak	_ZNSt8_Rb_treeISt10shared_ptrIN7asiopal9IResourceEES3_St9_IdentityIS3_ESt4lessIS3_ESaIS3_EE16_M_insert_uniqueIS3_EESt4pairISt17_Rb_tree_iteratorIS3_EbEOT_
	.type	_ZNSt8_Rb_treeISt10shared_ptrIN7asiopal9IResourceEES3_St9_IdentityIS3_ESt4lessIS3_ESaIS3_EE16_M_insert_uniqueIS3_EESt4pairISt17_Rb_tree_iteratorIS3_EbEOT_, @function
_ZNSt8_Rb_treeISt10shared_ptrIN7asiopal9IResourceEES3_St9_IdentityIS3_ESt4lessIS3_ESaIS3_EE16_M_insert_uniqueIS3_EESt4pairISt17_Rb_tree_iteratorIS3_EbEOT_:
.LFB11260:
	.cfi_startproc
	pushq	%r15
	.cfi_def_cfa_offset 16
	.cfi_offset 15, -16
	pushq	%r14
	.cfi_def_cfa_offset 24
	.cfi_offset 14, -24
	leaq	8(%rdi), %r14
	pushq	%r13
	.cfi_def_cfa_offset 32
	.cfi_offset 13, -32
	pushq	%r12
	.cfi_def_cfa_offset 40
	.cfi_offset 12, -40
	movq	%rsi, %r12
	pushq	%rbp
	.cfi_def_cfa_offset 48
	.cfi_offset 6, -48
	pushq	%rbx
	.cfi_def_cfa_offset 56
	.cfi_offset 3, -56
	movq	%rdi, %rbp
	subq	$8, %rsp
	.cfi_def_cfa_offset 64
	movq	16(%rdi), %rbx
	testq	%rbx, %rbx
	je	.L1412
	movq	(%rsi), %r8
	jmp	.L1403
	.p2align 4,,10
	.p2align 3
.L1420:
	movq	16(%rbx), %rax
	movl	$1, %r9d
	testq	%rax, %rax
	je	.L1404
.L1421:
	movq	%rax, %rbx
.L1403:
	movq	32(%rbx), %rdi
	cmpq	%r8, %rdi
	ja	.L1420
	movq	24(%rbx), %rax
	xorl	%r9d, %r9d
	testq	%rax, %rax
	jne	.L1421
.L1404:
	testb	%r9b, %r9b
	movq	%rbx, %r13
	jne	.L1402
	cmpq	%rdi, %r8
	ja	.L1408
.L1418:
	addq	$8, %rsp
	.cfi_remember_state
	.cfi_def_cfa_offset 56
	movq	%rbx, %rax
	xorl	%edx, %edx
	popq	%rbx
	.cfi_def_cfa_offset 48
	popq	%rbp
	.cfi_def_cfa_offset 40
	popq	%r12
	.cfi_def_cfa_offset 32
	popq	%r13
	.cfi_def_cfa_offset 24
	popq	%r14
	.cfi_def_cfa_offset 16
	popq	%r15
	.cfi_def_cfa_offset 8
	ret
	.p2align 4,,10
	.p2align 3
.L1412:
	.cfi_restore_state
	movq	%r14, %rbx
.L1402:
	cmpq	%rbx, 24(%rbp)
	je	.L1414
	movq	%rbx, %rdi
	movq	%rbx, %r13
	call	_ZSt18_Rb_tree_decrementPSt18_Rb_tree_node_base@PLT
	movq	(%r12), %r8
	movq	32(%rax), %rdi
	movq	%rax, %rbx
	cmpq	%rdi, %r8
	jbe	.L1418
.L1408:
	cmpq	%r13, %r14
	movl	$1, %r15d
	jne	.L1422
.L1409:
	movl	$48, %edi
	call	_Znwm@PLT
	movq	%rax, %rbx
	movq	(%r12), %rax
	movq	%r13, %rdx
	movq	$0, (%r12)
	movq	%r14, %rcx
	movq	%rbx, %rsi
	movl	%r15d, %edi
	movq	%rax, 32(%rbx)
	movq	8(%r12), %rax
	movq	$0, 8(%r12)
	movq	%rax, 40(%rbx)
	call	_ZSt29_Rb_tree_insert_and_rebalancebPSt18_Rb_tree_node_baseS0_RS_@PLT
	addq	$1, 40(%rbp)
	addq	$8, %rsp
	.cfi_remember_state
	.cfi_def_cfa_offset 56
	movq	%rbx, %rax
	movl	$1, %edx
	popq	%rbx
	.cfi_def_cfa_offset 48
	popq	%rbp
	.cfi_def_cfa_offset 40
	popq	%r12
	.cfi_def_cfa_offset 32
	popq	%r13
	.cfi_def_cfa_offset 24
	popq	%r14
	.cfi_def_cfa_offset 16
	popq	%r15
	.cfi_def_cfa_offset 8
	ret
	.p2align 4,,10
	.p2align 3
.L1414:
	.cfi_restore_state
	movq	%rbx, %r13
	movl	$1, %r15d
	cmpq	%r13, %r14
	je	.L1409
.L1422:
	xorl	%r15d, %r15d
	movq	(%r12), %rax
	cmpq	%rax, 32(%r13)
	seta	%r15b
	jmp	.L1409
	.cfi_endproc
.LFE11260:
	.size	_ZNSt8_Rb_treeISt10shared_ptrIN7asiopal9IResourceEES3_St9_IdentityIS3_ESt4lessIS3_ESaIS3_EE16_M_insert_uniqueIS3_EESt4pairISt17_Rb_tree_iteratorIS3_EbEOT_, .-_ZNSt8_Rb_treeISt10shared_ptrIN7asiopal9IResourceEES3_St9_IdentityIS3_ESt4lessIS3_ESaIS3_EE16_M_insert_uniqueIS3_EESt4pairISt17_Rb_tree_iteratorIS3_EbEOT_
	.text
	.align 2
	.p2align 4,,15
	.globl	_ZN8asiodnp311DNP3Channel9AddMasterERKNSt7__cxx1112basic_stringIcSt11char_traitsIcESaIcEEESt10shared_ptrIN8opendnp311ISOEHandlerEES9_INSA_18IMasterApplicationEERKNS_17MasterStackConfigE
	.type	_ZN8asiodnp311DNP3Channel9AddMasterERKNSt7__cxx1112basic_stringIcSt11char_traitsIcESaIcEEESt10shared_ptrIN8opendnp311ISOEHandlerEES9_INSA_18IMasterApplicationEERKNS_17MasterStackConfigE, @function
_ZN8asiodnp311DNP3Channel9AddMasterERKNSt7__cxx1112basic_stringIcSt11char_traitsIcESaIcEEESt10shared_ptrIN8opendnp311ISOEHandlerEES9_INSA_18IMasterApplicationEERKNS_17MasterStackConfigE:
.LFB8467:
	.cfi_startproc
	.cfi_personality 0x9b,DW.ref.__gxx_personality_v0
	.cfi_lsda 0x1b,.LLSDA8467
	pushq	%rbp
	.cfi_def_cfa_offset 16
	.cfi_offset 6, -16
	movq	%rsp, %rbp
	.cfi_def_cfa_register 6
	pushq	%r15
	pushq	%r14
	pushq	%r13
	pushq	%r12
	.cfi_offset 15, -24
	.cfi_offset 14, -32
	.cfi_offset 13, -40
	.cfi_offset 12, -48
	movq	%r9, %r14
	pushq	%rbx
	movq	%rsi, %r12
	subq	$248, %rsp
	.cfi_offset 3, -56
	movq	%rdi, -288(%rbp)
	movq	%rdx, -248(%rbp)
	movq	%fs:40, %rax
	movq	%rax, -56(%rbp)
	xorl	%eax, %eax
	movq	72(%rsi), %rax
	movq	%rcx, -272(%rbp)
	movq	%r8, -280(%rbp)
	leaq	648(%rax), %r15
	movq	104(%rsi), %rax
	movq	%rax, -192(%rbp)
	movq	112(%rsi), %rax
	testq	%rax, %rax
	movq	%rax, -184(%rbp)
	je	.L1424
	cmpq	$0, _ZL28__gthrw___pthread_key_createPjPFvPvE@GOTPCREL(%rip)
	jne	.L1654
	addl	$1, 8(%rax)
.L1424:
	leaq	56(%r12), %rax
	movl	$56, %edi
	movq	40(%r12), %r13
	movq	%rax, -256(%rbp)
.LEHB63:
	call	_Znwm@PLT
.LEHE63:
	movq	%rax, %rbx
	movabsq	$4294967297, %rax
	movq	-248(%rbp), %rcx
	movq	%rax, 8(%rbx)
	movq	_ZTVSt23_Sp_counted_ptr_inplaceIN7openpal6Logger8SettingsESaIS2_ELN9__gnu_cxx12_Lock_policyE2EE@GOTPCREL(%rip), %rax
	movq	8(%rcx), %rsi
	addq	$16, %rax
	movq	%rax, (%rbx)
	movl	32(%r13), %eax
	movq	(%rcx), %r13
	movq	%rsi, -248(%rbp)
	movl	%eax, -264(%rbp)
	leaq	32(%rbx), %rax
	addq	%r13, %rsi
	movq	%rax, 16(%rbx)
	je	.L1426
	testq	%r13, %r13
	je	.L1655
.L1426:
	movq	-248(%rbp), %rcx
	cmpq	$15, %rcx
	movq	%rcx, -144(%rbp)
	ja	.L1656
	cmpq	$1, -248(%rbp)
	jne	.L1429
	movzbl	0(%r13), %edx
	leaq	-144(%rbp), %rsi
	movq	%rsi, -256(%rbp)
	movq	%rcx, %rsi
	movb	%dl, 32(%rbx)
.L1430:
	movq	%rsi, 24(%rbx)
	movb	$0, (%rax,%rsi)
	movq	%rbx, %rdi
	movl	-264(%rbp), %eax
	movq	_ZTISt19_Sp_make_shared_tag@GOTPCREL(%rip), %rsi
	movl	%eax, 48(%rbx)
	movq	(%rbx), %rax
	call	*32(%rax)
	movq	24(%r12), %rdx
	movq	%rdx, -144(%rbp)
	movq	32(%r12), %rdx
	testq	%rdx, %rdx
	movq	%rdx, -136(%rbp)
	je	.L1657
	movq	_ZL28__gthrw___pthread_key_createPjPFvPvE@GOTPCREL(%rip), %rcx
	testq	%rcx, %rcx
	movq	%rcx, -248(%rbp)
	je	.L1433
	lock addl	$1, 8(%rdx)
	movq	%rax, -128(%rbp)
	leaq	8(%rbx), %rax
	movq	%rbx, -120(%rbp)
.L1434:
	lock addl	$1, (%rax)
.L1436:
	movq	%rbx, %rdi
	call	_ZNSt16_Sp_counted_baseILN9__gnu_cxx12_Lock_policyE2EE10_M_releaseEv@PLT
	movl	$704, %edi
.LEHB64:
	call	_Znwm@PLT
.LEHE64:
	movq	%rax, %rbx
	movabsq	$4294967297, %rax
	leaq	-192(%rbp), %r13
	movq	%rax, 8(%rbx)
	movq	_ZTVSt23_Sp_counted_ptr_inplaceIN8asiodnp311MasterStackESaIS1_ELN9__gnu_cxx12_Lock_policyE2EE@GOTPCREL(%rip), %rax
	subq	$8, %rsp
	movq	-280(%rbp), %r8
	movq	-272(%rbp), %rcx
	leaq	16(%rbx), %rdi
	movq	-256(%rbp), %rsi
	leaq	72(%r12), %r9
	leaq	56(%r12), %rdx
	addq	$16, %rax
	movq	%rax, (%rbx)
	pushq	%r15
	pushq	%r14
	pushq	%r13
.LEHB65:
	.cfi_escape 0x2e,0x20
	call	_ZN8asiodnp311MasterStackC1ERKN7openpal6LoggerERKSt10shared_ptrIN7asiopal8ExecutorEERKS5_IN8opendnp311ISOEHandlerEERKS5_INSB_18IMasterApplicationEERKS5_INS_9IOHandlerEERKS5_INS6_16IResourceManagerEERKNS_17MasterStackConfigERNSB_9ITaskLockE@PLT
.LEHE65:
	movq	(%rbx), %rax
	addq	$32, %rsp
	movq	_ZTISt19_Sp_make_shared_tag@GOTPCREL(%rip), %rsi
	movq	%rbx, %rdi
	call	*32(%rax)
	testq	%rax, %rax
	movq	%rax, %r15
	je	.L1438
	movq	48(%rax), %rdi
	testq	%rdi, %rdi
	je	.L1441
	movl	8(%rdi), %eax
	testl	%eax, %eax
	jne	.L1438
.L1441:
	cmpq	$0, -248(%rbp)
	movq	%r15, 40(%r15)
	je	.L1658
	lock addl	$1, 12(%rbx)
	movq	48(%r15), %rdi
	testq	%rdi, %rdi
	je	.L1444
	movl	$-1, %eax
	lock xaddl	%eax, 12(%rdi)
.L1513:
	cmpl	$1, %eax
	jne	.L1444
	movq	(%rdi), %rax
	call	*24(%rax)
	.p2align 4,,10
	.p2align 3
.L1444:
	movq	%rbx, 48(%r15)
.L1438:
	movq	152(%r15), %rdi
	leaq	24(%r15), %rsi
.LEHB66:
	.cfi_escape 0x2e,0
	call	_ZN8opendnp39LinkLayer9SetRouterERNS_7ILinkTxE@PLT
.LEHE66:
	movq	-120(%rbp), %rdi
	testq	%rdi, %rdi
	je	.L1448
	call	_ZNSt16_Sp_counted_baseILN9__gnu_cxx12_Lock_policyE2EE10_M_releaseEv@PLT
.L1448:
	movq	-136(%rbp), %rdi
	testq	%rdi, %rdi
	je	.L1449
	call	_ZNSt16_Sp_counted_baseILN9__gnu_cxx12_Lock_policyE2EE10_M_releaseEv@PLT
.L1449:
	movq	-184(%rbp), %rdi
	testq	%rdi, %rdi
	je	.L1450
	call	_ZNSt16_Sp_counted_baseILN9__gnu_cxx12_Lock_policyE2EE10_M_releaseEv@PLT
.L1450:
	cmpq	$0, -248(%rbp)
	movq	%r15, -240(%rbp)
	movq	%rbx, -232(%rbp)
	je	.L1649
	lock addl	$1, 8(%rbx)
.L1451:
	movzwl	48(%r14), %eax
	movzwl	50(%r14), %edx
	movw	%ax, -222(%rbp)
	movq	16(%r12), %rax
	movw	%dx, -224(%rbp)
	testq	%rax, %rax
	movq	%rax, -208(%rbp)
	je	.L1452
	leaq	8(%rax), %rdx
	movl	8(%rax), %eax
	testl	%eax, %eax
	je	.L1453
	leal	1(%rax), %ecx
	lock cmpxchgl	%ecx, (%rdx)
	jne	.L1659
.L1454:
	cmpq	$0, -248(%rbp)
	movq	8(%r12), %rax
	movq	104(%r12), %r12
	movq	%rax, -216(%rbp)
	leaq	8(%r12), %r15
	je	.L1457
	movq	%r15, %rdi
	call	_ZL26__gthrw_pthread_mutex_lockP15pthread_mutex_t@PLT
	testl	%eax, %eax
	jne	.L1660
	cmpb	$0, 48(%r12)
	jne	.L1661
.L1519:
	movq	-232(%rbp), %rdx
	movq	-240(%rbp), %rcx
	testq	%rdx, %rdx
	movq	%rcx, -192(%rbp)
	movq	%rdx, -184(%rbp)
	je	.L1459
	cmpq	$0, -248(%rbp)
	jne	.L1662
	movl	-224(%rbp), %eax
	addl	$1, 8(%rdx)
	movq	-216(%rbp), %rsi
	movl	%eax, -176(%rbp)
	movq	-208(%rbp), %rax
	movq	%rsi, -168(%rbp)
	testq	%rax, %rax
	movq	%rax, -160(%rbp)
	je	.L1663
	addl	$1, 8(%rax)
	movq	56(%rsi), %r14
	movq	%rdx, -136(%rbp)
	movq	%rcx, -144(%rbp)
	addl	$1, 8(%rdx)
	movl	-176(%rbp), %edx
	movq	%rsi, -120(%rbp)
	movq	%rax, -112(%rbp)
	movl	%edx, -128(%rbp)
.L1472:
	addl	$1, 8(%rax)
.L1471:
	movl	$40, %edi
	movq	$0, -80(%rbp)
.LEHB67:
	call	_Znwm@PLT
.LEHE67:
	movq	-144(%rbp), %rdx
	movq	%rdx, (%rax)
	movq	-136(%rbp), %rdx
	testq	%rdx, %rdx
	movq	%rdx, 8(%rax)
	je	.L1473
	cmpq	$0, -248(%rbp)
	je	.L1474
	lock addl	$1, 8(%rdx)
	movl	-128(%rbp), %edx
	movq	-112(%rbp), %rcx
	movl	%edx, 16(%rax)
	movq	-120(%rbp), %rdx
	testq	%rcx, %rcx
	movq	%rcx, 32(%rax)
	movq	%rdx, 24(%rax)
	leaq	8(%rcx), %rdx
	je	.L1476
.L1517:
	lock addl	$1, (%rdx)
.L1476:
	movq	%rax, -96(%rbp)
	movq	_ZNSt14_Function_base13_Base_managerIZZN8asiodnp311DNP3Channel8AddStackINS1_11MasterStackEEESt10shared_ptrIT_ERKN8opendnp310LinkConfigERKS7_ENKUlvE_clEvEUlvE_E10_M_managerERSt9_Any_dataRKSH_St18_Manager_operation@GOTPCREL(%rip), %xmm0
	leaq	-96(%rbp), %rax
	movhps	_ZNSt17_Function_handlerIFbvEZZN8asiodnp311DNP3Channel8AddStackINS1_11MasterStackEEESt10shared_ptrIT_ERKN8opendnp310LinkConfigERKS7_ENKUlvE_clEvEUlvE_E9_M_invokeERKSt9_Any_data@GOTPCREL(%rip), %xmm0
	movq	%r14, %rdi
	movq	%rax, %rsi
	movq	%rax, -264(%rbp)
	movaps	%xmm0, -80(%rbp)
.LEHB68:
	call	_ZN7asiopal8Executor10ReturnFromIbEET_RKSt8functionIFS2_vEE@PLT
.LEHE68:
	xorl	%r13d, %r13d
	xorl	%r14d, %r14d
	testb	%al, %al
	jne	.L1664
.L1483:
	movq	-80(%rbp), %rax
	testq	%rax, %rax
	je	.L1485
	movq	-264(%rbp), %rdi
	movl	$3, %edx
	movq	%rdi, %rsi
	call	*%rax
.L1485:
	movq	-112(%rbp), %rdi
	testq	%rdi, %rdi
	je	.L1486
	call	_ZNSt16_Sp_counted_baseILN9__gnu_cxx12_Lock_policyE2EE10_M_releaseEv@PLT
.L1486:
	movq	-136(%rbp), %rdi
	testq	%rdi, %rdi
	je	.L1487
	call	_ZNSt16_Sp_counted_baseILN9__gnu_cxx12_Lock_policyE2EE10_M_releaseEv@PLT
.L1487:
	movq	-160(%rbp), %rdi
	testq	%rdi, %rdi
	je	.L1488
	call	_ZNSt16_Sp_counted_baseILN9__gnu_cxx12_Lock_policyE2EE10_M_releaseEv@PLT
.L1488:
	movq	-184(%rbp), %rdi
	testq	%rdi, %rdi
	je	.L1489
	call	_ZNSt16_Sp_counted_baseILN9__gnu_cxx12_Lock_policyE2EE10_M_releaseEv@PLT
.L1489:
	testq	%r14, %r14
	je	.L1491
	leaq	8(%r14), %rax
	testq	%r13, %r13
	movq	%r13, -136(%rbp)
	movq	%rax, -144(%rbp)
	je	.L1495
	cmpq	$0, -248(%rbp)
	je	.L1496
	lock addl	$1, 8(%r13)
.L1495:
	movq	-256(%rbp), %rsi
	leaq	56(%r12), %rdi
.LEHB69:
	call	_ZNSt8_Rb_treeISt10shared_ptrIN7asiopal9IResourceEES3_St9_IdentityIS3_ESt4lessIS3_ESaIS3_EE16_M_insert_uniqueIS3_EESt4pairISt17_Rb_tree_iteratorIS3_EbEOT_@PLT
.LEHE69:
	movq	-136(%rbp), %rdi
	testq	%rdi, %rdi
	je	.L1491
	call	_ZNSt16_Sp_counted_baseILN9__gnu_cxx12_Lock_policyE2EE10_M_releaseEv@PLT
.L1491:
	cmpq	$0, -248(%rbp)
	jne	.L1518
	jmp	.L1498
	.p2align 4,,10
	.p2align 3
.L1654:
	lock addl	$1, 8(%rax)
	jmp	.L1424
	.p2align 4,,10
	.p2align 3
.L1457:
	cmpb	$0, 48(%r12)
	je	.L1519
	xorl	%r14d, %r14d
	xorl	%r13d, %r13d
.L1498:
	movq	-208(%rbp), %rdi
	testq	%rdi, %rdi
	je	.L1504
	call	_ZNSt16_Sp_counted_baseILN9__gnu_cxx12_Lock_policyE2EE10_M_releaseEv@PLT
.L1504:
	movq	-232(%rbp), %rdi
	testq	%rdi, %rdi
	je	.L1505
	call	_ZNSt16_Sp_counted_baseILN9__gnu_cxx12_Lock_policyE2EE10_M_releaseEv@PLT
.L1505:
	movq	-288(%rbp), %rax
	movq	%rbx, %rdi
	movq	%r14, (%rax)
	movq	%r13, 8(%rax)
	movq	%rax, %r14
	call	_ZNSt16_Sp_counted_baseILN9__gnu_cxx12_Lock_policyE2EE10_M_releaseEv@PLT
	movq	-56(%rbp), %rbx
	xorq	%fs:40, %rbx
	movq	%r14, %rax
	jne	.L1665
	leaq	-40(%rbp), %rsp
	popq	%rbx
	popq	%r12
	popq	%r13
	popq	%r14
	popq	%r15
	popq	%rbp
	.cfi_remember_state
	.cfi_def_cfa 7, 8
	ret
	.p2align 4,,10
	.p2align 3
.L1433:
	.cfi_restore_state
	addl	$1, 8(%rdx)
	movq	%rax, -128(%rbp)
	movq	%rbx, -120(%rbp)
.L1435:
	addl	$1, 8(%rbx)
	jmp	.L1436
	.p2align 4,,10
	.p2align 3
.L1649:
	addl	$1, 8(%rbx)
	jmp	.L1451
	.p2align 4,,10
	.p2align 3
.L1656:
	leaq	-144(%rbp), %rax
	leaq	16(%rbx), %rdi
	xorl	%edx, %edx
	movq	%rax, %rsi
	movq	%rax, -256(%rbp)
.LEHB70:
	call	_ZNSt7__cxx1112basic_stringIcSt11char_traitsIcESaIcEE9_M_createERmm@PLT
	movq	-144(%rbp), %rdx
	movq	%rax, 16(%rbx)
	movq	%rdx, 32(%rbx)
	movq	-248(%rbp), %rdx
.L1428:
	movq	%r13, %rsi
	movq	%rax, %rdi
	call	memcpy@PLT
	movq	-144(%rbp), %rax
	movq	%rax, -248(%rbp)
	movq	16(%rbx), %rax
	movq	-248(%rbp), %rsi
	jmp	.L1430
	.p2align 4,,10
	.p2align 3
.L1657:
	movq	%rax, -128(%rbp)
	movq	_ZL28__gthrw___pthread_key_createPjPFvPvE@GOTPCREL(%rip), %rax
	movq	%rbx, -120(%rbp)
	testq	%rax, %rax
	movq	%rax, -248(%rbp)
	je	.L1435
	leaq	8(%rbx), %rax
	jmp	.L1434
	.p2align 4,,10
	.p2align 3
.L1661:
	xorl	%r14d, %r14d
	xorl	%r13d, %r13d
.L1518:
	movq	%r15, %rdi
	call	_ZL28__gthrw_pthread_mutex_unlockP15pthread_mutex_t@PLT
	jmp	.L1498
	.p2align 4,,10
	.p2align 3
.L1429:
	cmpq	$0, -248(%rbp)
	leaq	-144(%rbp), %rdx
	movq	%rdx, -256(%rbp)
	jne	.L1666
	movq	%rcx, %rsi
	jmp	.L1430
	.p2align 4,,10
	.p2align 3
.L1662:
	lock addl	$1, 8(%rdx)
	movq	-208(%rbp), %rdx
	movl	-224(%rbp), %esi
	movq	-216(%rbp), %rcx
	testq	%rdx, %rdx
	movl	%esi, -176(%rbp)
	movq	%rdx, -160(%rbp)
	movq	%rcx, -168(%rbp)
	leaq	8(%rdx), %rax
	je	.L1667
.L1514:
	lock addl	$1, (%rax)
	movq	-216(%rbp), %rax
	movq	-184(%rbp), %rdx
	movq	56(%rax), %r14
	movq	-192(%rbp), %rax
	testq	%rdx, %rdx
	movq	%rdx, -136(%rbp)
	movq	%rax, -144(%rbp)
	leaq	8(%rdx), %rax
	je	.L1668
.L1515:
	lock addl	$1, (%rax)
	movl	-176(%rbp), %eax
	movq	-160(%rbp), %rdx
	movl	%eax, -128(%rbp)
	movq	-168(%rbp), %rax
	testq	%rdx, %rdx
	movq	%rdx, -112(%rbp)
	movq	%rax, -120(%rbp)
	leaq	8(%rdx), %rax
	je	.L1471
.L1516:
	lock addl	$1, (%rax)
	jmp	.L1471
	.p2align 4,,10
	.p2align 3
.L1658:
	addl	$1, 12(%rbx)
	testq	%rdi, %rdi
	je	.L1444
	movl	12(%rdi), %eax
	leal	-1(%rax), %edx
	movl	%edx, 12(%rdi)
	jmp	.L1513
	.p2align 4,,10
	.p2align 3
.L1474:
	addl	$1, 8(%rdx)
	movl	-128(%rbp), %edx
	movl	%edx, 16(%rax)
	movq	-120(%rbp), %rdx
	movq	%rdx, 24(%rax)
	movq	-112(%rbp), %rdx
	testq	%rdx, %rdx
	movq	%rdx, 32(%rax)
	je	.L1476
.L1477:
	addl	$1, 8(%rdx)
	jmp	.L1476
	.p2align 4,,10
	.p2align 3
.L1664:
	movq	-232(%rbp), %r13
	movq	-240(%rbp), %r14
	testq	%r13, %r13
	je	.L1483
	cmpq	$0, -248(%rbp)
	jne	.L1669
	addl	$1, 8(%r13)
	jmp	.L1483
	.p2align 4,,10
	.p2align 3
.L1473:
	movl	-128(%rbp), %edx
	movl	%edx, 16(%rax)
	movq	-120(%rbp), %rdx
	movq	%rdx, 24(%rax)
	movq	-112(%rbp), %rdx
	testq	%rdx, %rdx
	movq	%rdx, 32(%rax)
	je	.L1476
	cmpq	$0, -248(%rbp)
	je	.L1477
	addq	$8, %rdx
	jmp	.L1517
	.p2align 4,,10
	.p2align 3
.L1459:
	movq	-208(%rbp), %rax
	movl	-224(%rbp), %esi
	movq	-216(%rbp), %rdx
	testq	%rax, %rax
	movl	%esi, -176(%rbp)
	movq	%rax, -160(%rbp)
	movq	%rdx, -168(%rbp)
	je	.L1465
	cmpq	$0, -248(%rbp)
	jne	.L1670
	addl	$1, 8(%rax)
	movq	56(%rdx), %r14
	movq	%rcx, -144(%rbp)
	movl	-176(%rbp), %ecx
	movq	$0, -136(%rbp)
	movq	%rdx, -120(%rbp)
	movq	%rax, -112(%rbp)
	movl	%ecx, -128(%rbp)
	jmp	.L1472
	.p2align 4,,10
	.p2align 3
.L1496:
	addl	$1, 8(%r13)
	jmp	.L1495
	.p2align 4,,10
	.p2align 3
.L1669:
	lock addl	$1, 8(%r13)
	jmp	.L1483
	.p2align 4,,10
	.p2align 3
.L1670:
	addq	$8, %rax
	jmp	.L1514
.L1655:
	leaq	.LC5(%rip), %rdi
	call	_ZSt19__throw_logic_errorPKc@PLT
.LEHE70:
.L1531:
	movq	%rax, %r14
	movq	%rbx, %rdi
	movq	%r14, %rbx
	call	_ZdlPv@PLT
.L1432:
	movq	-184(%rbp), %rdi
	testq	%rdi, %rdi
	je	.L1509
	call	_ZNSt16_Sp_counted_baseILN9__gnu_cxx12_Lock_policyE2EE10_M_releaseEv@PLT
.L1509:
	movq	%rbx, %rdi
.LEHB71:
	call	_Unwind_Resume@PLT
.LEHE71:
	.p2align 4,,10
	.p2align 3
.L1663:
	movl	-176(%rbp), %eax
	movq	56(%rsi), %r14
	movq	%rcx, -144(%rbp)
	movq	%rdx, -136(%rbp)
	addl	$1, 8(%rdx)
	movq	%rsi, -120(%rbp)
	movl	%eax, -128(%rbp)
	movq	$0, -112(%rbp)
	jmp	.L1471
	.p2align 4,,10
	.p2align 3
.L1668:
	movl	-176(%rbp), %edx
	movq	-160(%rbp), %rax
	movl	%edx, -128(%rbp)
	movq	-168(%rbp), %rdx
	testq	%rax, %rax
	movq	%rax, -112(%rbp)
	movq	%rdx, -120(%rbp)
	je	.L1471
	cmpq	$0, -248(%rbp)
	je	.L1472
	addq	$8, %rax
	jmp	.L1516
	.p2align 4,,10
	.p2align 3
.L1667:
	movq	-184(%rbp), %rax
	movq	-192(%rbp), %rdx
	movq	56(%rcx), %r14
	testq	%rax, %rax
	movq	%rdx, -144(%rbp)
	movq	%rax, -136(%rbp)
	je	.L1469
	addq	$8, %rax
	jmp	.L1515
	.p2align 4,,10
	.p2align 3
.L1465:
	movq	56(%rdx), %r14
	movq	%rcx, -144(%rbp)
	movq	$0, -136(%rbp)
	movl	%esi, -128(%rbp)
	movq	%rdx, -120(%rbp)
	movq	$0, -112(%rbp)
	jmp	.L1471
.L1452:
.LEHB72:
	call	_ZSt20__throw_bad_weak_ptrv@PLT
.LEHE72:
.L1534:
	movq	-232(%rbp), %rdi
	movq	%rax, %r14
	testq	%rdi, %rdi
	je	.L1508
	call	_ZNSt16_Sp_counted_baseILN9__gnu_cxx12_Lock_policyE2EE10_M_releaseEv@PLT
.L1508:
	movq	%rbx, %rdi
	call	_ZNSt16_Sp_counted_baseILN9__gnu_cxx12_Lock_policyE2EE10_M_releaseEv@PLT
	movq	%r14, %rdi
.LEHB73:
	call	_Unwind_Resume@PLT
.LEHE73:
.L1453:
.LEHB74:
	call	_ZSt20__throw_bad_weak_ptrv@PLT
.LEHE74:
.L1659:
	movq	-248(%rbp), %rsi
.L1455:
	testl	%eax, %eax
	je	.L1453
	leal	1(%rax), %ecx
	lock cmpxchgl	%ecx, (%rdx)
	jne	.L1455
	movq	%rsi, -248(%rbp)
	jmp	.L1454
.L1665:
	call	__stack_chk_fail@PLT
.L1660:
	movl	%eax, %edi
.LEHB75:
	call	_ZSt20__throw_system_errori@PLT
.LEHE75:
.L1535:
	movq	%rax, %r14
.L1503:
	leaq	-240(%rbp), %rdi
	call	_ZZN8asiodnp311DNP3Channel8AddStackINS_11MasterStackEEESt10shared_ptrIT_ERKN8opendnp310LinkConfigERKS5_ENUlvE_D1Ev@PLT
	jmp	.L1508
.L1536:
	movq	-136(%rbp), %rdi
	movq	%rax, %r12
	testq	%rdi, %rdi
	je	.L1500
	call	_ZNSt16_Sp_counted_baseILN9__gnu_cxx12_Lock_policyE2EE10_M_releaseEv@PLT
.L1500:
	testq	%r13, %r13
	je	.L1494
	movq	%r13, %rdi
	call	_ZNSt16_Sp_counted_baseILN9__gnu_cxx12_Lock_policyE2EE10_M_releaseEv@PLT
.L1494:
	cmpq	$0, -248(%rbp)
	je	.L1502
	movq	%r15, %rdi
	call	_ZL28__gthrw_pthread_mutex_unlockP15pthread_mutex_t@PLT
.L1502:
	movq	%r12, %r14
	jmp	.L1503
.L1537:
	movq	%rax, %r12
	movq	-80(%rbp), %rax
	testq	%rax, %rax
	je	.L1482
	movq	-264(%rbp), %rdi
	movl	$3, %edx
	movq	%rdi, %rsi
	call	*%rax
.L1482:
	movq	-256(%rbp), %rdi
	call	_ZZZN8asiodnp311DNP3Channel8AddStackINS_11MasterStackEEESt10shared_ptrIT_ERKN8opendnp310LinkConfigERKS5_ENKUlvE_clEvENUlvE_D1Ev@PLT
	movq	%r13, %rdi
	call	_ZZZN8asiodnp311DNP3Channel8AddStackINS_11MasterStackEEESt10shared_ptrIT_ERKN8opendnp310LinkConfigERKS5_ENKUlvE_clEvENUlvE_D1Ev@PLT
	jmp	.L1494
.L1538:
	movq	%rax, %r12
	movq	-80(%rbp), %rax
	testq	%rax, %rax
	je	.L1482
	leaq	-96(%rbp), %rdi
	movl	$3, %edx
	movq	%rdi, %rsi
	call	*%rax
	jmp	.L1482
.L1532:
	movq	%rax, %r14
	movq	%rbx, %rdi
	movq	%r14, %rbx
	call	_ZNSt16_Sp_counted_baseILN9__gnu_cxx12_Lock_policyE2EE10_M_releaseEv@PLT
.L1440:
	movq	-256(%rbp), %rdi
	call	_ZN7openpal6LoggerD1Ev@PLT
	jmp	.L1432
.L1533:
	movq	%rax, %r14
	movq	%rbx, %rdi
	call	_ZdlPv@PLT
	movq	%r14, %rbx
	jmp	.L1440
.L1529:
	movq	%rax, %rbx
	jmp	.L1432
.L1530:
	movq	%rax, %rbx
	jmp	.L1440
.L1666:
	movq	%rcx, %rdx
	jmp	.L1428
.L1469:
	movl	%esi, -128(%rbp)
	movq	%rcx, -120(%rbp)
	movq	$0, -112(%rbp)
	jmp	.L1471
	.cfi_endproc
.LFE8467:
	.section	.gcc_except_table
.LLSDA8467:
	.byte	0xff
	.byte	0xff
	.byte	0x1
	.uleb128 .LLSDACSE8467-.LLSDACSB8467
.LLSDACSB8467:
	.uleb128 .LEHB63-.LFB8467
