	.file	"EmptyResponseTask.cpp"
	.text
	.section	.text._ZNK8opendnp311IMasterTask10IsAuthTaskEv,"axG",@progbits,_ZNK8opendnp311IMasterTask10IsAuthTaskEv,comdat
	.align 2
	.p2align 4,,15
	.weak	_ZNK8opendnp311IMasterTask10IsAuthTaskEv
	.type	_ZNK8opendnp311IMasterTask10IsAuthTaskEv, @function
_ZNK8opendnp311IMasterTask10IsAuthTaskEv:
.LFB2362:
	.cfi_startproc
	xorl	%eax, %eax
	ret
	.cfi_endproc
.LFE2362:
	.size	_ZNK8opendnp311IMasterTask10IsAuthTaskEv, .-_ZNK8opendnp311IMasterTask10IsAuthTaskEv
	.section	.text._ZN8opendnp311IMasterTask10InitializeEv,"axG",@progbits,_ZN8opendnp311IMasterTask10InitializeEv,comdat
	.align 2
	.p2align 4,,15
	.weak	_ZN8opendnp311IMasterTask10InitializeEv
	.type	_ZN8opendnp311IMasterTask10InitializeEv, @function
_ZN8opendnp311IMasterTask10InitializeEv:
.LFB2363:
	.cfi_startproc
	rep ret
	.cfi_endproc
.LFE2363:
	.size	_ZN8opendnp311IMasterTask10InitializeEv, .-_ZN8opendnp311IMasterTask10InitializeEv
	.section	.text._ZNK8opendnp321SimpleRequestTaskBase11IsRecurringEv,"axG",@progbits,_ZNK8opendnp321SimpleRequestTaskBase11IsRecurringEv,comdat
	.align 2
	.p2align 4,,15
	.weak	_ZNK8opendnp321SimpleRequestTaskBase11IsRecurringEv
	.type	_ZNK8opendnp321SimpleRequestTaskBase11IsRecurringEv, @function
_ZNK8opendnp321SimpleRequestTaskBase11IsRecurringEv:
.LFB2364:
	.cfi_startproc
	xorl	%eax, %eax
	ret
	.cfi_endproc
.LFE2364:
	.size	_ZNK8opendnp321SimpleRequestTaskBase11IsRecurringEv, .-_ZNK8opendnp321SimpleRequestTaskBase11IsRecurringEv
	.section	.text._ZNK8opendnp321SimpleRequestTaskBase8PriorityEv,"axG",@progbits,_ZNK8opendnp321SimpleRequestTaskBase8PriorityEv,comdat
	.align 2
	.p2align 4,,15
	.weak	_ZNK8opendnp321SimpleRequestTaskBase8PriorityEv
	.type	_ZNK8opendnp321SimpleRequestTaskBase8PriorityEv, @function
_ZNK8opendnp321SimpleRequestTaskBase8PriorityEv:
.LFB2365:
	.cfi_startproc
	movl	92(%rdi), %eax
	ret
	.cfi_endproc
.LFE2365:
	.size	_ZNK8opendnp321SimpleRequestTaskBase8PriorityEv, .-_ZNK8opendnp321SimpleRequestTaskBase8PriorityEv
	.section	.text._ZNK8opendnp321SimpleRequestTaskBase19BlocksLowerPriorityEv,"axG",@progbits,_ZNK8opendnp321SimpleRequestTaskBase19BlocksLowerPriorityEv,comdat
	.align 2
	.p2align 4,,15
	.weak	_ZNK8opendnp321SimpleRequestTaskBase19BlocksLowerPriorityEv
	.type	_ZNK8opendnp321SimpleRequestTaskBase19BlocksLowerPriorityEv, @function
_ZNK8opendnp321SimpleRequestTaskBase19BlocksLowerPriorityEv:
.LFB2366:
	.cfi_startproc
	xorl	%eax, %eax
	ret
	.cfi_endproc
.LFE2366:
	.size	_ZNK8opendnp321SimpleRequestTaskBase19BlocksLowerPriorityEv, .-_ZNK8opendnp321SimpleRequestTaskBase19BlocksLowerPriorityEv
	.section	.text._ZNK8opendnp321SimpleRequestTaskBase9IsEnabledEv,"axG",@progbits,_ZNK8opendnp321SimpleRequestTaskBase9IsEnabledEv,comdat
	.align 2
	.p2align 4,,15
	.weak	_ZNK8opendnp321SimpleRequestTaskBase9IsEnabledEv
	.type	_ZNK8opendnp321SimpleRequestTaskBase9IsEnabledEv, @function
_ZNK8opendnp321SimpleRequestTaskBase9IsEnabledEv:
.LFB2367:
	.cfi_startproc
	movl	$1, %eax
	ret
	.cfi_endproc
.LFE2367:
	.size	_ZNK8opendnp321SimpleRequestTaskBase9IsEnabledEv, .-_ZNK8opendnp321SimpleRequestTaskBase9IsEnabledEv
	.section	.text._ZNK8opendnp321SimpleRequestTaskBase11GetTaskTypeEv,"axG",@progbits,_ZNK8opendnp321SimpleRequestTaskBase11GetTaskTypeEv,comdat
	.align 2
	.p2align 4,,15
	.weak	_ZNK8opendnp321SimpleRequestTaskBase11GetTaskTypeEv
	.type	_ZNK8opendnp321SimpleRequestTaskBase11GetTaskTypeEv, @function
_ZNK8opendnp321SimpleRequestTaskBase11GetTaskTypeEv:
.LFB2368:
	.cfi_startproc
	movl	$7, %eax
	ret
	.cfi_endproc
.LFE2368:
	.size	_ZNK8opendnp321SimpleRequestTaskBase11GetTaskTypeEv, .-_ZNK8opendnp321SimpleRequestTaskBase11GetTaskTypeEv
	.section	.text._ZNK8opendnp317EmptyResponseTask4NameEv,"axG",@progbits,_ZNK8opendnp317EmptyResponseTask4NameEv,comdat
	.align 2
	.p2align 4,,15
	.weak	_ZNK8opendnp317EmptyResponseTask4NameEv
	.type	_ZNK8opendnp317EmptyResponseTask4NameEv, @function
_ZNK8opendnp317EmptyResponseTask4NameEv:
.LFB2369:
	.cfi_startproc
	movq	128(%rdi), %rax
	ret
	.cfi_endproc
.LFE2369:
	.size	_ZNK8opendnp317EmptyResponseTask4NameEv, .-_ZNK8opendnp317EmptyResponseTask4NameEv
	.text
	.align 2
	.p2align 4,,15
	.globl	_ZN8opendnp317EmptyResponseTask15ProcessResponseERKNS_18APDUResponseHeaderERKN7openpal6RSliceE
	.type	_ZN8opendnp317EmptyResponseTask15ProcessResponseERKNS_18APDUResponseHeaderERKN7openpal6RSliceE, @function
_ZN8opendnp317EmptyResponseTask15ProcessResponseERKNS_18APDUResponseHeaderERKN7openpal6RSliceE:
.LFB2381:
	.cfi_startproc
	subq	$8, %rsp
	.cfi_def_cfa_offset 16
	call	_ZN8opendnp311IMasterTask20ValidateNullResponseERKNS_18APDUResponseHeaderERKN7openpal6RSliceE@PLT
	testb	%al, %al
	setne	%al
	addq	$8, %rsp
	.cfi_def_cfa_offset 8
	addl	%eax, %eax
	ret
	.cfi_endproc
.LFE2381:
	.size	_ZN8opendnp317EmptyResponseTask15ProcessResponseERKNS_18APDUResponseHeaderERKN7openpal6RSliceE, .-_ZN8opendnp317EmptyResponseTask15ProcessResponseERKNS_18APDUResponseHeaderERKN7openpal6RSliceE
	.section	.text._ZN8opendnp317EmptyResponseTask14OnTaskCompleteENS_14TaskCompletionEN7openpal18MonotonicTimestampE,"axG",@progbits,_ZN8opendnp317EmptyResponseTask14OnTaskCompleteENS_14TaskCompletionEN7openpal18MonotonicTimestampE,comdat
	.align 2
	.p2align 4,,15
	.weak	_ZN8opendnp317EmptyResponseTask14OnTaskCompleteENS_14TaskCompletionEN7openpal18MonotonicTimestampE
	.type	_ZN8opendnp317EmptyResponseTask14OnTaskCompleteENS_14TaskCompletionEN7openpal18MonotonicTimestampE, @function
_ZN8opendnp317EmptyResponseTask14OnTaskCompleteENS_14TaskCompletionEN7openpal18MonotonicTimestampE:
.LFB2370:
	.cfi_startproc
	subq	$8, %rsp
	.cfi_def_cfa_offset 16
	call	_ZN7openpal18MonotonicTimestamp3MaxEv@PLT
	addq	$8, %rsp
	.cfi_def_cfa_offset 8
	movq	%rax, %rdx
	xorl	%eax, %eax
	ret
	.cfi_endproc
.LFE2370:
	.size	_ZN8opendnp317EmptyResponseTask14OnTaskCompleteENS_14TaskCompletionEN7openpal18MonotonicTimestampE, .-_ZN8opendnp317EmptyResponseTask14OnTaskCompleteENS_14TaskCompletionEN7openpal18MonotonicTimestampE
	.section	.text._ZN8opendnp317EmptyResponseTaskD0Ev,"axG",@progbits,_ZN8opendnp317EmptyResponseTaskD5Ev,comdat
	.align 2
	.p2align 4,,15
	.weak	_ZN8opendnp317EmptyResponseTaskD0Ev
	.type	_ZN8opendnp317EmptyResponseTaskD0Ev, @function
_ZN8opendnp317EmptyResponseTaskD0Ev:
.LFB3008:
	.cfi_startproc
	.cfi_personality 0x9b,DW.ref.__gxx_personality_v0
	.cfi_lsda 0x1b,.LLSDA3008
	movq	_ZTVN8opendnp317EmptyResponseTaskE@GOTPCREL(%rip), %rax
	pushq	%rbx
	.cfi_def_cfa_offset 16
	.cfi_offset 3, -16
	movq	%rdi, %rbx
	addq	$16, %rax
	movq	%rax, (%rdi)
	movq	128(%rdi), %rdi
	leaq	144(%rbx), %rax
	cmpq	%rax, %rdi
	je	.L17
	call	_ZdlPv@PLT
.L17:
	movq	_ZTVN8opendnp321SimpleRequestTaskBaseE@GOTPCREL(%rip), %rax
	addq	$16, %rax
	movq	%rax, (%rbx)
	movq	112(%rbx), %rax
	testq	%rax, %rax
	je	.L18
	leaq	96(%rbx), %rdi
	movl	$3, %edx
	movq	%rdi, %rsi
	call	*%rax
.L18:
	movq	%rbx, %rdi
	call	_ZN8opendnp311IMasterTaskD2Ev@PLT
	movq	%rbx, %rdi
	movl	$160, %esi
	popq	%rbx
	.cfi_def_cfa_offset 8
	jmp	_ZdlPvm@PLT
	.cfi_endproc
.LFE3008:
	.globl	__gxx_personality_v0
	.section	.gcc_except_table._ZN8opendnp317EmptyResponseTaskD0Ev,"aG",@progbits,_ZN8opendnp317EmptyResponseTaskD5Ev,comdat
.LLSDA3008:
	.byte	0xff
	.byte	0xff
	.byte	0x1
	.uleb128 .LLSDACSE3008-.LLSDACSB3008
.LLSDACSB3008:
.LLSDACSE3008:
	.section	.text._ZN8opendnp317EmptyResponseTaskD0Ev,"axG",@progbits,_ZN8opendnp317EmptyResponseTaskD5Ev,comdat
	.size	_ZN8opendnp317EmptyResponseTaskD0Ev, .-_ZN8opendnp317EmptyResponseTaskD0Ev
	.section	.text._ZN8opendnp317EmptyResponseTaskD2Ev,"axG",@progbits,_ZN8opendnp317EmptyResponseTaskD5Ev,comdat
	.align 2
	.p2align 4,,15
	.weak	_ZN8opendnp317EmptyResponseTaskD2Ev
	.type	_ZN8opendnp317EmptyResponseTaskD2Ev, @function
_ZN8opendnp317EmptyResponseTaskD2Ev:
.LFB3006:
	.cfi_startproc
	.cfi_personality 0x9b,DW.ref.__gxx_personality_v0
	.cfi_lsda 0x1b,.LLSDA3006
	movq	_ZTVN8opendnp317EmptyResponseTaskE@GOTPCREL(%rip), %rax
	pushq	%rbx
	.cfi_def_cfa_offset 16
	.cfi_offset 3, -16
	movq	%rdi, %rbx
	addq	$16, %rax
	movq	%rax, (%rdi)
	movq	128(%rdi), %rdi
	leaq	144(%rbx), %rax
	cmpq	%rax, %rdi
	je	.L24
	call	_ZdlPv@PLT
.L24:
	movq	_ZTVN8opendnp321SimpleRequestTaskBaseE@GOTPCREL(%rip), %rax
	addq	$16, %rax
	movq	%rax, (%rbx)
	movq	112(%rbx), %rax
	testq	%rax, %rax
	je	.L25
	leaq	96(%rbx), %rdi
	movl	$3, %edx
	movq	%rdi, %rsi
	call	*%rax
.L25:
	movq	%rbx, %rdi
	popq	%rbx
	.cfi_def_cfa_offset 8
	jmp	_ZN8opendnp311IMasterTaskD2Ev@PLT
	.cfi_endproc
.LFE3006:
	.section	.gcc_except_table._ZN8opendnp317EmptyResponseTaskD2Ev,"aG",@progbits,_ZN8opendnp317EmptyResponseTaskD5Ev,comdat
.LLSDA3006:
	.byte	0xff
	.byte	0xff
	.byte	0x1
	.uleb128 .LLSDACSE3006-.LLSDACSB3006
.LLSDACSB3006:
.LLSDACSE3006:
	.section	.text._ZN8opendnp317EmptyResponseTaskD2Ev,"axG",@progbits,_ZN8opendnp317EmptyResponseTaskD5Ev,comdat
	.size	_ZN8opendnp317EmptyResponseTaskD2Ev, .-_ZN8opendnp317EmptyResponseTaskD2Ev
	.weak	_ZN8opendnp317EmptyResponseTaskD1Ev
	.set	_ZN8opendnp317EmptyResponseTaskD1Ev,_ZN8opendnp317EmptyResponseTaskD2Ev
	.section	.text._ZN7openpal6LoggerD2Ev,"axG",@progbits,_ZN7openpal6LoggerD5Ev,comdat
	.align 2
	.p2align 4,,15
	.weak	_ZN7openpal6LoggerD2Ev
	.type	_ZN7openpal6LoggerD2Ev, @function
_ZN7openpal6LoggerD2Ev:
.LFB1967:
	.cfi_startproc
	pushq	%rbp
	.cfi_def_cfa_offset 16
	.cfi_offset 6, -16
	pushq	%rbx
	.cfi_def_cfa_offset 24
	.cfi_offset 3, -24
	movq	%rdi, %rbp
	subq	$8, %rsp
	.cfi_def_cfa_offset 32
	movq	24(%rdi), %rbx
	testq	%rbx, %rbx
	je	.L32
	cmpq	$0, _ZL28__gthrw___pthread_key_createPjPFvPvE@GOTPCREL(%rip)
	je	.L33
	lock subl	$1, 8(%rbx)
	je	.L46
.L32:
	movq	8(%rbp), %rbx
	testq	%rbx, %rbx
	je	.L30
	cmpq	$0, _ZL28__gthrw___pthread_key_createPjPFvPvE@GOTPCREL(%rip)
	je	.L39
	lock subl	$1, 8(%rbx)
	je	.L47
.L30:
	addq	$8, %rsp
	.cfi_remember_state
	.cfi_def_cfa_offset 24
	popq	%rbx
	.cfi_def_cfa_offset 16
	popq	%rbp
	.cfi_def_cfa_offset 8
	ret
	.p2align 4,,10
	.p2align 3
.L39:
	.cfi_restore_state
	movl	8(%rbx), %eax
	leal	-1(%rax), %edx
	cmpl	$1, %eax
	movl	%edx, 8(%rbx)
	jne	.L30
	movq	(%rbx), %rax
	movq	%rbx, %rdi
	call	*16(%rax)
	movl	12(%rbx), %eax
	leal	-1(%rax), %edx
	movl	%edx, 12(%rbx)
	jmp	.L44
	.p2align 4,,10
	.p2align 3
.L33:
	movl	8(%rbx), %eax
	leal	-1(%rax), %edx
	cmpl	$1, %eax
	movl	%edx, 8(%rbx)
	jne	.L32
	movq	(%rbx), %rax
	movq	%rbx, %rdi
	call	*16(%rax)
	movl	12(%rbx), %eax
	leal	-1(%rax), %edx
	movl	%edx, 12(%rbx)
	jmp	.L43
	.p2align 4,,10
	.p2align 3
.L47:
	movq	(%rbx), %rax
	movq	%rbx, %rdi
	call	*16(%rax)
	movl	$-1, %eax
	lock xaddl	%eax, 12(%rbx)
.L44:
	cmpl	$1, %eax
	jne	.L30
	movq	(%rbx), %rax
	movq	%rbx, %rdi
	movq	24(%rax), %rax
	addq	$8, %rsp
	.cfi_remember_state
	.cfi_def_cfa_offset 24
	popq	%rbx
	.cfi_def_cfa_offset 16
	popq	%rbp
	.cfi_def_cfa_offset 8
	jmp	*%rax
	.p2align 4,,10
	.p2align 3
.L46:
	.cfi_restore_state
	movq	(%rbx), %rax
	movq	%rbx, %rdi
	call	*16(%rax)
	movl	$-1, %eax
	lock xaddl	%eax, 12(%rbx)
.L43:
	cmpl	$1, %eax
	jne	.L32
	movq	(%rbx), %rax
	movq	%rbx, %rdi
	call	*24(%rax)
	jmp	.L32
	.cfi_endproc
.LFE1967:
	.size	_ZN7openpal6LoggerD2Ev, .-_ZN7openpal6LoggerD2Ev
	.weak	_ZN7openpal6LoggerD1Ev
	.set	_ZN7openpal6LoggerD1Ev,_ZN7openpal6LoggerD2Ev
	.section	.rodata.str1.8,"aMS",@progbits,1
	.align 8
.LC0:
	.string	"basic_string::_M_construct null not valid"
	.text
	.align 2
	.p2align 4,,15
	.globl	_ZN8opendnp317EmptyResponseTaskC2ERNS_18IMasterApplicationERKNSt7__cxx1112basic_stringIcSt11char_traitsIcESaIcEEENS_12FunctionCodeERKSt8functionIFbRNS_12HeaderWriterEEEN7openpal6LoggerERKNS_10TaskConfigE
	.type	_ZN8opendnp317EmptyResponseTaskC2ERNS_18IMasterApplicationERKNSt7__cxx1112basic_stringIcSt11char_traitsIcESaIcEEENS_12FunctionCodeERKSt8functionIFbRNS_12HeaderWriterEEEN7openpal6LoggerERKNS_10TaskConfigE, @function
_ZN8opendnp317EmptyResponseTaskC2ERNS_18IMasterApplicationERKNSt7__cxx1112basic_stringIcSt11char_traitsIcESaIcEEENS_12FunctionCodeERKSt8functionIFbRNS_12HeaderWriterEEEN7openpal6LoggerERKNS_10TaskConfigE:
.LFB2379:
	.cfi_startproc
	.cfi_personality 0x9b,DW.ref.__gxx_personality_v0
	.cfi_lsda 0x1b,.LLSDA2379
	pushq	%rbp
	.cfi_def_cfa_offset 16
	.cfi_offset 6, -16
	movq	%rsp, %rbp
	.cfi_def_cfa_register 6
	pushq	%r14
	pushq	%r13
	pushq	%r12
	pushq	%rbx
	.cfi_offset 14, -24
	.cfi_offset 13, -32
	.cfi_offset 12, -40
	.cfi_offset 3, -48
	movq	%rdx, %r12
	movq	%rdi, %rbx
	movl	%ecx, %edx
	subq	$48, %rsp
	movq	16(%rbp), %rcx
	movq	%fs:40, %rax
	movq	%rax, -40(%rbp)
	xorl	%eax, %eax
	movq	(%r9), %rax
	movq	%rax, -80(%rbp)
	movq	8(%r9), %rax
	testq	%rax, %rax
	movq	%rax, -72(%rbp)
	je	.L49
	cmpq	$0, _ZL28__gthrw___pthread_key_createPjPFvPvE@GOTPCREL(%rip)
	jne	.L101
	addl	$1, 8(%rax)
	movq	16(%r9), %rax
	movq	%rax, -64(%rbp)
	movq	24(%r9), %rax
	testq	%rax, %rax
	movq	%rax, -56(%rbp)
	je	.L52
.L53:
	addl	$1, 8(%rax)
.L52:
	leaq	-80(%rbp), %r13
	subq	$8, %rsp
	movq	%rbx, %rdi
	pushq	%rcx
	movl	$110, %ecx
	movq	%r13, %r9
.LEHB0:
	.cfi_escape 0x2e,0x10
	call	_ZN8opendnp321SimpleRequestTaskBaseC2ERNS_18IMasterApplicationENS_12FunctionCodeEiRKSt8functionIFbRNS_12HeaderWriterEEEN7openpal6LoggerERKNS_10TaskConfigE@PLT
.LEHE0:
	popq	%rax
	movq	-56(%rbp), %rax
	popq	%rdx
	testq	%rax, %rax
	movq	%rax, %r14
	je	.L56
	cmpq	$0, _ZL28__gthrw___pthread_key_createPjPFvPvE@GOTPCREL(%rip)
	je	.L57
	lock subl	$1, 8(%rax)
	je	.L102
.L56:
	movq	-72(%rbp), %rax
	testq	%rax, %rax
	movq	%rax, %r14
	je	.L62
	cmpq	$0, _ZL28__gthrw___pthread_key_createPjPFvPvE@GOTPCREL(%rip)
	je	.L63
	movl	$-1, %edx
	lock xaddl	%edx, 8(%rax)
	cmpl	$1, %edx
	je	.L103
.L62:
	movq	_ZTVN8opendnp317EmptyResponseTaskE@GOTPCREL(%rip), %rax
	addq	$16, %rax
	movq	%rax, (%rbx)
	leaq	144(%rbx), %rax
	movq	%rax, 128(%rbx)
	movq	(%r12), %r14
	movq	8(%r12), %rsi
	movq	%rsi, %r12
	addq	%r14, %rsi
	je	.L67
	testq	%r14, %r14
	je	.L104
.L67:
	cmpq	$15, %r12
	movq	%r12, -80(%rbp)
	ja	.L105
	cmpq	$1, %r12
	jne	.L70
	movzbl	(%r14), %edx
	movb	%dl, 144(%rbx)
.L71:
	movq	%r12, 136(%rbx)
	movb	$0, (%rax,%r12)
	movq	-40(%rbp), %rax
	xorq	%fs:40, %rax
	jne	.L106
	leaq	-32(%rbp), %rsp
	popq	%rbx
	popq	%r12
	popq	%r13
	popq	%r14
	popq	%rbp
	.cfi_remember_state
	.cfi_def_cfa 7, 8
	ret
	.p2align 4,,10
	.p2align 3
.L101:
	.cfi_restore_state
	lock addl	$1, 8(%rax)
	movq	24(%r9), %rdi
	movq	16(%r9), %rax
	testq	%rdi, %rdi
	movq	%rax, -64(%rbp)
	movq	%rdi, -56(%rbp)
	leaq	8(%rdi), %rax
	je	.L52
.L75:
	lock addl	$1, (%rax)
	jmp	.L52
	.p2align 4,,10
	.p2align 3
.L105:
	leaq	128(%rbx), %rdi
	xorl	%edx, %edx
	movq	%r13, %rsi
.LEHB1:
	.cfi_escape 0x2e,0
	call	_ZNSt7__cxx1112basic_stringIcSt11char_traitsIcESaIcEE9_M_createERmm@PLT
	movq	-80(%rbp), %rdx
	movq	%rax, 128(%rbx)
	movq	%rdx, 144(%rbx)
.L69:
	movq	%r12, %rdx
	movq	%r14, %rsi
	movq	%rax, %rdi
	call	memcpy@PLT
	movq	-80(%rbp), %rax
	movq	%rax, %r12
	movq	128(%rbx), %rax
	jmp	.L71
	.p2align 4,,10
	.p2align 3
.L49:
	movq	16(%r9), %rax
	movq	%rax, -64(%rbp)
	movq	24(%r9), %rax
	testq	%rax, %rax
	movq	%rax, -56(%rbp)
	je	.L52
	cmpq	$0, _ZL28__gthrw___pthread_key_createPjPFvPvE@GOTPCREL(%rip)
	je	.L53
	addq	$8, %rax
	jmp	.L75
	.p2align 4,,10
	.p2align 3
.L63:
	movl	8(%rax), %eax
	leal	-1(%rax), %edx
	cmpl	$1, %eax
	movl	%edx, 8(%r14)
	jne	.L62
	movq	(%r14), %rax
	movq	%r14, %rdi
	call	*16(%rax)
	movl	12(%r14), %eax
	leal	-1(%rax), %edx
	movl	%edx, 12(%r14)
.L77:
	cmpl	$1, %eax
	jne	.L62
	movq	(%r14), %rax
	movq	%r14, %rdi
	call	*24(%rax)
	jmp	.L62
	.p2align 4,,10
	.p2align 3
.L57:
	movl	8(%rax), %eax
	leal	-1(%rax), %edx
	cmpl	$1, %eax
	movl	%edx, 8(%r14)
	jne	.L56
	movq	(%r14), %rax
	movq	%r14, %rdi
	call	*16(%rax)
	movl	12(%r14), %eax
	leal	-1(%rax), %edx
	movl	%edx, 12(%r14)
.L76:
	cmpl	$1, %eax
	jne	.L56
	movq	(%r14), %rax
	movq	%r14, %rdi
	call	*24(%rax)
	jmp	.L56
	.p2align 4,,10
	.p2align 3
.L70:
	testq	%r12, %r12
	je	.L71
	jmp	.L69
	.p2align 4,,10
	.p2align 3
.L103:
	movq	(%r14), %rax
	movq	%r14, %rdi
	call	*16(%rax)
	movl	$-1, %eax
	lock xaddl	%eax, 12(%r14)
	jmp	.L77
	.p2align 4,,10
	.p2align 3
.L102:
	movq	(%rax), %rax
	movq	%r14, %rdi
	call	*16(%rax)
	movl	$-1, %eax
	lock xaddl	%eax, 12(%r14)
	jmp	.L76
.L106:
	call	__stack_chk_fail@PLT
.L104:
	leaq	.LC0(%rip), %rdi
	call	_ZSt19__throw_logic_errorPKc@PLT
.LEHE1:
.L80:
	movq	%rax, %r14
	movq	_ZTVN8opendnp321SimpleRequestTaskBaseE@GOTPCREL(%rip), %rax
	addq	$16, %rax
	movq	%rax, (%rbx)
	movq	112(%rbx), %rax
	testq	%rax, %rax
	je	.L74
	leaq	96(%rbx), %rdi
	movl	$3, %edx
	movq	%rdi, %rsi
	call	*%rax
.L74:
	movq	%rbx, %rdi
	call	_ZN8opendnp311IMasterTaskD2Ev@PLT
	movq	%r14, %rdi
.LEHB2:
	call	_Unwind_Resume@PLT
.L79:
	movq	%rax, %rbx
	movq	%r13, %rdi
	call	_ZN7openpal6LoggerD1Ev@PLT
	movq	%rbx, %rdi
	call	_Unwind_Resume@PLT
.LEHE2:
	.cfi_endproc
.LFE2379:
	.section	.gcc_except_table,"a",@progbits
.LLSDA2379:
	.byte	0xff
	.byte	0xff
	.byte	0x1
	.uleb128 .LLSDACSE2379-.LLSDACSB2379
.LLSDACSB2379:
	.uleb128 .LEHB0-.LFB2379
	.uleb128 .LEHE0-.LEHB0
	.uleb128 .L79-.LFB2379
	.uleb128 0
	.uleb128 .LEHB1-.LFB2379
	.uleb128 .LEHE1-.LEHB1
	.uleb128 .L80-.LFB2379
	.uleb128 0
	.uleb128 .LEHB2-.LFB2379
	.uleb128 .LEHE2-.LEHB2
	.uleb128 0
	.uleb128 0
.LLSDACSE2379:
	.text
	.size	_ZN8opendnp317EmptyResponseTaskC2ERNS_18IMasterApplicationERKNSt7__cxx1112basic_stringIcSt11char_traitsIcESaIcEEENS_12FunctionCodeERKSt8functionIFbRNS_12HeaderWriterEEEN7openpal6LoggerERKNS_10TaskConfigE, .-_ZN8opendnp317EmptyResponseTaskC2ERNS_18IMasterApplicationERKNSt7__cxx1112basic_stringIcSt11char_traitsIcESaIcEEENS_12FunctionCodeERKSt8functionIFbRNS_12HeaderWriterEEEN7openpal6LoggerERKNS_10TaskConfigE
	.globl	_ZN8opendnp317EmptyResponseTaskC1ERNS_18IMasterApplicationERKNSt7__cxx1112basic_stringIcSt11char_traitsIcESaIcEEENS_12FunctionCodeERKSt8functionIFbRNS_12HeaderWriterEEEN7openpal6LoggerERKNS_10TaskConfigE
	.set	_ZN8opendnp317EmptyResponseTaskC1ERNS_18IMasterApplicationERKNSt7__cxx1112basic_stringIcSt11char_traitsIcESaIcEEENS_12FunctionCodeERKSt8functionIFbRNS_12HeaderWriterEEEN7openpal6LoggerERKNS_10TaskConfigE,_ZN8opendnp317EmptyResponseTaskC2ERNS_18IMasterApplicationERKNSt7__cxx1112basic_stringIcSt11char_traitsIcESaIcEEENS_12FunctionCodeERKSt8functionIFbRNS_12HeaderWriterEEEN7openpal6LoggerERKNS_10TaskConfigE
	.weak	_ZTSN8opendnp317EmptyResponseTaskE
	.section	.rodata._ZTSN8opendnp317EmptyResponseTaskE,"aG",@progbits,_ZTSN8opendnp317EmptyResponseTaskE,comdat
	.align 16
	.type	_ZTSN8opendnp317EmptyResponseTaskE, @object
	.size	_ZTSN8opendnp317EmptyResponseTaskE, 31
_ZTSN8opendnp317EmptyResponseTaskE:
	.string	"N8opendnp317EmptyResponseTaskE"
	.weak	_ZTIN8opendnp317EmptyResponseTaskE
	.section	.data.rel.ro._ZTIN8opendnp317EmptyResponseTaskE,"awG",@progbits,_ZTIN8opendnp317EmptyResponseTaskE,comdat
	.align 8
	.type	_ZTIN8opendnp317EmptyResponseTaskE, @object
	.size	_ZTIN8opendnp317EmptyResponseTaskE, 24
_ZTIN8opendnp317EmptyResponseTaskE:
	.quad	_ZTVN10__cxxabiv120__si_class_type_infoE+16
	.quad	_ZTSN8opendnp317EmptyResponseTaskE
	.quad	_ZTIN8opendnp321SimpleRequestTaskBaseE
	.weak	_ZTVN8opendnp317EmptyResponseTaskE
	.section	.data.rel.ro._ZTVN8opendnp317EmptyResponseTaskE,"awG",@progbits,_ZTVN8opendnp317EmptyResponseTaskE,comdat
	.align 8
	.type	_ZTVN8opendnp317EmptyResponseTaskE, @object
	.size	_ZTVN8opendnp317EmptyResponseTaskE, 120
_ZTVN8opendnp317EmptyResponseTaskE:
	.quad	0
	.quad	_ZTIN8opendnp317EmptyResponseTaskE
	.quad	_ZN8opendnp317EmptyResponseTaskD1Ev
	.quad	_ZN8opendnp317EmptyResponseTaskD0Ev
	.quad	_ZNK8opendnp311IMasterTask10IsAuthTaskEv
	.quad	_ZNK8opendnp317EmptyResponseTask4NameEv
	.quad	_ZNK8opendnp321SimpleRequestTaskBase8PriorityEv
	.quad	_ZNK8opendnp321SimpleRequestTaskBase19BlocksLowerPriorityEv
	.quad	_ZNK8opendnp321SimpleRequestTaskBase11IsRecurringEv
	.quad	_ZN8opendnp321SimpleRequestTaskBase12BuildRequestERNS_11APDURequestEh
	.quad	_ZN8opendnp311IMasterTask10InitializeEv
	.quad	_ZN8opendnp317EmptyResponseTask15ProcessResponseERKNS_18APDUResponseHeaderERKN7openpal6RSliceE
	.quad	_ZN8opendnp317EmptyResponseTask14OnTaskCompleteENS_14TaskCompletionEN7openpal18MonotonicTimestampE
	.quad	_ZNK8opendnp321SimpleRequestTaskBase9IsEnabledEv
	.quad	_ZNK8opendnp321SimpleRequestTaskBase11GetTaskTypeEv
	.weakref	_ZL28__gthrw___pthread_key_createPjPFvPvE,__pthread_key_create
	.hidden	DW.ref.__gxx_personality_v0
	.weak	DW.ref.__gxx_personality_v0
	.section	.data.rel.local.DW.ref.__gxx_personality_v0,"awG",@progbits,DW.ref.__gxx_personality_v0,comdat
	.align 8
	.type	DW.ref.__gxx_personality_v0, @object
	.size	DW.ref.__gxx_personality_v0, 8
DW.ref.__gxx_personality_v0:
	.quad	__gxx_personality_v0
	.ident	"GCC: (Ubuntu 7.5.0-3ubuntu1~18.04) 7.5.0"
	.section	.note.GNU-stack,"",@progbits
