	.file	"EnableUnsolicitedTask.cpp"
	.text
	.section	.text._ZNK8opendnp311IMasterTask10IsAuthTaskEv,"axG",@progbits,_ZNK8opendnp311IMasterTask10IsAuthTaskEv,comdat
	.align 2
	.p2align 4,,15
	.weak	_ZNK8opendnp311IMasterTask10IsAuthTaskEv
	.type	_ZNK8opendnp311IMasterTask10IsAuthTaskEv, @function
_ZNK8opendnp311IMasterTask10IsAuthTaskEv:
.LFB2363:
	.cfi_startproc
	xorl	%eax, %eax
	ret
	.cfi_endproc
.LFE2363:
	.size	_ZNK8opendnp311IMasterTask10IsAuthTaskEv, .-_ZNK8opendnp311IMasterTask10IsAuthTaskEv
	.section	.text._ZN8opendnp311IMasterTask10InitializeEv,"axG",@progbits,_ZN8opendnp311IMasterTask10InitializeEv,comdat
	.align 2
	.p2align 4,,15
	.weak	_ZN8opendnp311IMasterTask10InitializeEv
	.type	_ZN8opendnp311IMasterTask10InitializeEv, @function
_ZN8opendnp311IMasterTask10InitializeEv:
.LFB2364:
	.cfi_startproc
	rep ret
	.cfi_endproc
.LFE2364:
	.size	_ZN8opendnp311IMasterTask10InitializeEv, .-_ZN8opendnp311IMasterTask10InitializeEv
	.section	.text._ZNK8opendnp321EnableUnsolicitedTask11IsRecurringEv,"axG",@progbits,_ZNK8opendnp321EnableUnsolicitedTask11IsRecurringEv,comdat
	.align 2
	.p2align 4,,15
	.weak	_ZNK8opendnp321EnableUnsolicitedTask11IsRecurringEv
	.type	_ZNK8opendnp321EnableUnsolicitedTask11IsRecurringEv, @function
_ZNK8opendnp321EnableUnsolicitedTask11IsRecurringEv:
.LFB2365:
	.cfi_startproc
	movl	$1, %eax
	ret
	.cfi_endproc
.LFE2365:
	.size	_ZNK8opendnp321EnableUnsolicitedTask11IsRecurringEv, .-_ZNK8opendnp321EnableUnsolicitedTask11IsRecurringEv
	.section	.rodata._ZNK8opendnp321EnableUnsolicitedTask4NameEv.str1.1,"aMS",@progbits,1
.LC0:
	.string	"Enable Unsolicited"
	.section	.text._ZNK8opendnp321EnableUnsolicitedTask4NameEv,"axG",@progbits,_ZNK8opendnp321EnableUnsolicitedTask4NameEv,comdat
	.align 2
	.p2align 4,,15
	.weak	_ZNK8opendnp321EnableUnsolicitedTask4NameEv
	.type	_ZNK8opendnp321EnableUnsolicitedTask4NameEv, @function
_ZNK8opendnp321EnableUnsolicitedTask4NameEv:
.LFB2366:
	.cfi_startproc
	leaq	.LC0(%rip), %rax
	ret
	.cfi_endproc
.LFE2366:
	.size	_ZNK8opendnp321EnableUnsolicitedTask4NameEv, .-_ZNK8opendnp321EnableUnsolicitedTask4NameEv
	.section	.text._ZNK8opendnp321EnableUnsolicitedTask8PriorityEv,"axG",@progbits,_ZNK8opendnp321EnableUnsolicitedTask8PriorityEv,comdat
	.align 2
	.p2align 4,,15
	.weak	_ZNK8opendnp321EnableUnsolicitedTask8PriorityEv
	.type	_ZNK8opendnp321EnableUnsolicitedTask8PriorityEv, @function
_ZNK8opendnp321EnableUnsolicitedTask8PriorityEv:
.LFB2367:
	.cfi_startproc
	movl	$170, %eax
	ret
	.cfi_endproc
.LFE2367:
	.size	_ZNK8opendnp321EnableUnsolicitedTask8PriorityEv, .-_ZNK8opendnp321EnableUnsolicitedTask8PriorityEv
	.section	.text._ZNK8opendnp321EnableUnsolicitedTask19BlocksLowerPriorityEv,"axG",@progbits,_ZNK8opendnp321EnableUnsolicitedTask19BlocksLowerPriorityEv,comdat
	.align 2
	.p2align 4,,15
	.weak	_ZNK8opendnp321EnableUnsolicitedTask19BlocksLowerPriorityEv
	.type	_ZNK8opendnp321EnableUnsolicitedTask19BlocksLowerPriorityEv, @function
_ZNK8opendnp321EnableUnsolicitedTask19BlocksLowerPriorityEv:
.LFB2368:
	.cfi_startproc
	movl	$1, %eax
	ret
	.cfi_endproc
.LFE2368:
	.size	_ZNK8opendnp321EnableUnsolicitedTask19BlocksLowerPriorityEv, .-_ZNK8opendnp321EnableUnsolicitedTask19BlocksLowerPriorityEv
	.section	.text._ZNK8opendnp321EnableUnsolicitedTask11GetTaskTypeEv,"axG",@progbits,_ZNK8opendnp321EnableUnsolicitedTask11GetTaskTypeEv,comdat
	.align 2
	.p2align 4,,15
	.weak	_ZNK8opendnp321EnableUnsolicitedTask11GetTaskTypeEv
	.type	_ZNK8opendnp321EnableUnsolicitedTask11GetTaskTypeEv, @function
_ZNK8opendnp321EnableUnsolicitedTask11GetTaskTypeEv:
.LFB2369:
	.cfi_startproc
	movl	$5, %eax
	ret
	.cfi_endproc
.LFE2369:
	.size	_ZNK8opendnp321EnableUnsolicitedTask11GetTaskTypeEv, .-_ZNK8opendnp321EnableUnsolicitedTask11GetTaskTypeEv
	.text
	.align 2
	.p2align 4,,15
	.globl	_ZN8opendnp321EnableUnsolicitedTask12BuildRequestERNS_11APDURequestEh
	.type	_ZN8opendnp321EnableUnsolicitedTask12BuildRequestERNS_11APDURequestEh, @function
_ZN8opendnp321EnableUnsolicitedTask12BuildRequestERNS_11APDURequestEh:
.LFB2936:
	.cfi_startproc
	pushq	%rbp
	.cfi_def_cfa_offset 16
	.cfi_offset 6, -16
	pushq	%rbx
	.cfi_def_cfa_offset 24
	.cfi_offset 3, -24
	addq	$88, %rdi
	movq	%rsi, %rbp
	movl	%edx, %ebx
	subq	$24, %rsp
	.cfi_def_cfa_offset 48
	movq	%fs:40, %rax
	movq	%rax, 8(%rsp)
	xorl	%eax, %eax
	call	_ZNK8opendnp310ClassField16OnlyEventClassesEv@PLT
	leaq	7(%rsp), %rsi
	movzbl	%bl, %edx
	movq	%rbp, %rdi
	movb	%al, 7(%rsp)
	call	_ZN8opendnp35build17EnableUnsolicitedERNS_11APDURequestERKNS_10ClassFieldEh@PLT
	movq	8(%rsp), %rcx
	xorq	%fs:40, %rcx
	jne	.L12
	addq	$24, %rsp
	.cfi_remember_state
	.cfi_def_cfa_offset 24
	movl	$1, %eax
	popq	%rbx
	.cfi_def_cfa_offset 16
	popq	%rbp
	.cfi_def_cfa_offset 8
	ret
.L12:
	.cfi_restore_state
	call	__stack_chk_fail@PLT
	.cfi_endproc
.LFE2936:
	.size	_ZN8opendnp321EnableUnsolicitedTask12BuildRequestERNS_11APDURequestEh, .-_ZN8opendnp321EnableUnsolicitedTask12BuildRequestERNS_11APDURequestEh
	.align 2
	.p2align 4,,15
	.globl	_ZNK8opendnp321EnableUnsolicitedTask9IsEnabledEv
	.type	_ZNK8opendnp321EnableUnsolicitedTask9IsEnabledEv, @function
_ZNK8opendnp321EnableUnsolicitedTask9IsEnabledEv:
.LFB2937:
	.cfi_startproc
	addq	$88, %rdi
	jmp	_ZNK8opendnp310ClassField13HasEventClassEv@PLT
	.cfi_endproc
.LFE2937:
	.size	_ZNK8opendnp321EnableUnsolicitedTask9IsEnabledEv, .-_ZNK8opendnp321EnableUnsolicitedTask9IsEnabledEv
	.align 2
	.p2align 4,,15
	.globl	_ZN8opendnp321EnableUnsolicitedTask15ProcessResponseERKNS_18APDUResponseHeaderERKN7openpal6RSliceE
	.type	_ZN8opendnp321EnableUnsolicitedTask15ProcessResponseERKNS_18APDUResponseHeaderERKN7openpal6RSliceE, @function
_ZN8opendnp321EnableUnsolicitedTask15ProcessResponseERKNS_18APDUResponseHeaderERKN7openpal6RSliceE:
.LFB2938:
	.cfi_startproc
	subq	$8, %rsp
	.cfi_def_cfa_offset 16
	call	_ZN8opendnp311IMasterTask20ValidateNullResponseERKNS_18APDUResponseHeaderERKN7openpal6RSliceE@PLT
	testb	%al, %al
	setne	%al
	addq	$8, %rsp
	.cfi_def_cfa_offset 8
	addl	%eax, %eax
	ret
	.cfi_endproc
.LFE2938:
	.size	_ZN8opendnp321EnableUnsolicitedTask15ProcessResponseERKNS_18APDUResponseHeaderERKN7openpal6RSliceE, .-_ZN8opendnp321EnableUnsolicitedTask15ProcessResponseERKNS_18APDUResponseHeaderERKN7openpal6RSliceE
	.section	.text._ZN8opendnp321EnableUnsolicitedTaskD2Ev,"axG",@progbits,_ZN8opendnp321EnableUnsolicitedTaskD5Ev,comdat
	.align 2
	.p2align 4,,15
	.weak	_ZN8opendnp321EnableUnsolicitedTaskD2Ev
	.type	_ZN8opendnp321EnableUnsolicitedTaskD2Ev, @function
_ZN8opendnp321EnableUnsolicitedTaskD2Ev:
.LFB3604:
	.cfi_startproc
	movq	_ZTVN8opendnp321EnableUnsolicitedTaskE@GOTPCREL(%rip), %rax
	addq	$16, %rax
	movq	%rax, (%rdi)
	jmp	_ZN8opendnp311IMasterTaskD2Ev@PLT
	.cfi_endproc
.LFE3604:
	.size	_ZN8opendnp321EnableUnsolicitedTaskD2Ev, .-_ZN8opendnp321EnableUnsolicitedTaskD2Ev
	.weak	_ZN8opendnp321EnableUnsolicitedTaskD1Ev
	.set	_ZN8opendnp321EnableUnsolicitedTaskD1Ev,_ZN8opendnp321EnableUnsolicitedTaskD2Ev
	.section	.text._ZN8opendnp321EnableUnsolicitedTaskD0Ev,"axG",@progbits,_ZN8opendnp321EnableUnsolicitedTaskD5Ev,comdat
	.align 2
	.p2align 4,,15
	.weak	_ZN8opendnp321EnableUnsolicitedTaskD0Ev
	.type	_ZN8opendnp321EnableUnsolicitedTaskD0Ev, @function
_ZN8opendnp321EnableUnsolicitedTaskD0Ev:
.LFB3606:
	.cfi_startproc
	movq	_ZTVN8opendnp321EnableUnsolicitedTaskE@GOTPCREL(%rip), %rax
	pushq	%rbx
	.cfi_def_cfa_offset 16
	.cfi_offset 3, -16
	movq	%rdi, %rbx
	addq	$16, %rax
	movq	%rax, (%rdi)
	call	_ZN8opendnp311IMasterTaskD2Ev@PLT
	movq	%rbx, %rdi
	movl	$104, %esi
	popq	%rbx
	.cfi_def_cfa_offset 8
	jmp	_ZdlPvm@PLT
	.cfi_endproc
.LFE3606:
	.size	_ZN8opendnp321EnableUnsolicitedTaskD0Ev, .-_ZN8opendnp321EnableUnsolicitedTaskD0Ev
	.text
	.align 2
	.p2align 4,,15
	.globl	_ZN8opendnp321EnableUnsolicitedTask14OnTaskCompleteENS_14TaskCompletionEN7openpal18MonotonicTimestampE
	.type	_ZN8opendnp321EnableUnsolicitedTask14OnTaskCompleteENS_14TaskCompletionEN7openpal18MonotonicTimestampE, @function
_ZN8opendnp321EnableUnsolicitedTask14OnTaskCompleteENS_14TaskCompletionEN7openpal18MonotonicTimestampE:
.LFB2939:
	.cfi_startproc
	subq	$40, %rsp
	.cfi_def_cfa_offset 48
	movq	%fs:40, %rax
	movq	%rax, 24(%rsp)
	xorl	%eax, %eax
	cmpb	$2, %sil
	movq	%rdx, 8(%rsp)
	je	.L23
	cmpb	$-1, %sil
	je	.L24
	cmpb	$1, %sil
	je	.L30
	call	_ZN7openpal18MonotonicTimestamp3MaxEv@PLT
	movq	%rax, %rdx
	xorl	%eax, %eax
.L26:
	movq	24(%rsp), %rcx
	xorq	%fs:40, %rcx
	jne	.L31
	addq	$40, %rsp
	.cfi_remember_state
	.cfi_def_cfa_offset 8
	ret
	.p2align 4,,10
	.p2align 3
.L30:
	.cfi_restore_state
	call	_ZN7openpal18MonotonicTimestamp3MaxEv@PLT
	movq	%rax, %rdx
	movl	$1, %eax
	jmp	.L26
	.p2align 4,,10
	.p2align 3
.L24:
	leaq	16(%rsp), %rdi
	xorl	%esi, %esi
	call	_ZN7openpal18MonotonicTimestampC1El@PLT
	xorl	%eax, %eax
	movq	16(%rsp), %rdx
	jmp	.L26
	.p2align 4,,10
	.p2align 3
.L23:
	leaq	96(%rdi), %rsi
	leaq	8(%rsp), %rdi
	call	_ZNK7openpal18MonotonicTimestamp3AddERKNS_12TimeDurationE@PLT
	movq	%rax, %rdx
	xorl	%eax, %eax
	jmp	.L26
.L31:
	call	__stack_chk_fail@PLT
	.cfi_endproc
.LFE2939:
	.size	_ZN8opendnp321EnableUnsolicitedTask14OnTaskCompleteENS_14TaskCompletionEN7openpal18MonotonicTimestampE, .-_ZN8opendnp321EnableUnsolicitedTask14OnTaskCompleteENS_14TaskCompletionEN7openpal18MonotonicTimestampE
	.section	.text._ZN7openpal6LoggerD2Ev,"axG",@progbits,_ZN7openpal6LoggerD5Ev,comdat
	.align 2
	.p2align 4,,15
	.weak	_ZN7openpal6LoggerD2Ev
	.type	_ZN7openpal6LoggerD2Ev, @function
_ZN7openpal6LoggerD2Ev:
.LFB1968:
	.cfi_startproc
	pushq	%rbp
	.cfi_def_cfa_offset 16
	.cfi_offset 6, -16
	pushq	%rbx
	.cfi_def_cfa_offset 24
	.cfi_offset 3, -24
	movq	%rdi, %rbp
	subq	$8, %rsp
	.cfi_def_cfa_offset 32
	movq	24(%rdi), %rbx
	testq	%rbx, %rbx
	je	.L34
	cmpq	$0, _ZL28__gthrw___pthread_key_createPjPFvPvE@GOTPCREL(%rip)
	je	.L35
	lock subl	$1, 8(%rbx)
	je	.L48
.L34:
	movq	8(%rbp), %rbx
	testq	%rbx, %rbx
	je	.L32
	cmpq	$0, _ZL28__gthrw___pthread_key_createPjPFvPvE@GOTPCREL(%rip)
	je	.L41
	lock subl	$1, 8(%rbx)
	je	.L49
.L32:
	addq	$8, %rsp
	.cfi_remember_state
	.cfi_def_cfa_offset 24
	popq	%rbx
	.cfi_def_cfa_offset 16
	popq	%rbp
	.cfi_def_cfa_offset 8
	ret
	.p2align 4,,10
	.p2align 3
.L41:
	.cfi_restore_state
	movl	8(%rbx), %eax
	leal	-1(%rax), %edx
	cmpl	$1, %eax
	movl	%edx, 8(%rbx)
	jne	.L32
	movq	(%rbx), %rax
	movq	%rbx, %rdi
	call	*16(%rax)
	movl	12(%rbx), %eax
	leal	-1(%rax), %edx
	movl	%edx, 12(%rbx)
	jmp	.L46
	.p2align 4,,10
	.p2align 3
.L35:
	movl	8(%rbx), %eax
	leal	-1(%rax), %edx
	cmpl	$1, %eax
	movl	%edx, 8(%rbx)
	jne	.L34
	movq	(%rbx), %rax
	movq	%rbx, %rdi
	call	*16(%rax)
	movl	12(%rbx), %eax
	leal	-1(%rax), %edx
	movl	%edx, 12(%rbx)
	jmp	.L45
	.p2align 4,,10
	.p2align 3
.L49:
	movq	(%rbx), %rax
	movq	%rbx, %rdi
	call	*16(%rax)
	movl	$-1, %eax
	lock xaddl	%eax, 12(%rbx)
.L46:
	cmpl	$1, %eax
	jne	.L32
	movq	(%rbx), %rax
	movq	%rbx, %rdi
	movq	24(%rax), %rax
	addq	$8, %rsp
	.cfi_remember_state
	.cfi_def_cfa_offset 24
	popq	%rbx
	.cfi_def_cfa_offset 16
	popq	%rbp
	.cfi_def_cfa_offset 8
	jmp	*%rax
	.p2align 4,,10
	.p2align 3
.L48:
	.cfi_restore_state
	movq	(%rbx), %rax
	movq	%rbx, %rdi
	call	*16(%rax)
	movl	$-1, %eax
	lock xaddl	%eax, 12(%rbx)
.L45:
	cmpl	$1, %eax
	jne	.L34
	movq	(%rbx), %rax
	movq	%rbx, %rdi
	call	*24(%rax)
	jmp	.L34
	.cfi_endproc
.LFE1968:
	.size	_ZN7openpal6LoggerD2Ev, .-_ZN7openpal6LoggerD2Ev
	.weak	_ZN7openpal6LoggerD1Ev
	.set	_ZN7openpal6LoggerD1Ev,_ZN7openpal6LoggerD2Ev
	.text
	.align 2
	.p2align 4,,15
	.globl	_ZN8opendnp321EnableUnsolicitedTaskC2ERNS_18IMasterApplicationENS_10ClassFieldEN7openpal12TimeDurationENS4_6LoggerE
	.type	_ZN8opendnp321EnableUnsolicitedTaskC2ERNS_18IMasterApplicationENS_10ClassFieldEN7openpal12TimeDurationENS4_6LoggerE, @function
_ZN8opendnp321EnableUnsolicitedTaskC2ERNS_18IMasterApplicationENS_10ClassFieldEN7openpal12TimeDurationENS4_6LoggerE:
.LFB2934:
	.cfi_startproc
	.cfi_personality 0x9b,DW.ref.__gxx_personality_v0
	.cfi_lsda 0x1b,.LLSDA2934
	pushq	%r14
	.cfi_def_cfa_offset 16
	.cfi_offset 14, -16
	pushq	%r13
	.cfi_def_cfa_offset 24
	.cfi_offset 13, -24
	movq	%rcx, %r13
	pushq	%r12
	.cfi_def_cfa_offset 32
	.cfi_offset 12, -32
	pushq	%rbp
	.cfi_def_cfa_offset 40
	.cfi_offset 6, -40
	movl	%edx, %r12d
	pushq	%rbx
	.cfi_def_cfa_offset 48
	.cfi_offset 3, -48
	movq	%rsi, %rbp
	movq	%rdi, %rbx
	subq	$64, %rsp
	.cfi_def_cfa_offset 112
	movq	%fs:40, %rax
	movq	%rax, 56(%rsp)
	xorl	%eax, %eax
	movq	(%r8), %rax
	movq	%rax, 16(%rsp)
	movq	8(%r8), %rax
	testq	%rax, %rax
	movq	%rax, 24(%rsp)
	je	.L51
	cmpq	$0, _ZL28__gthrw___pthread_key_createPjPFvPvE@GOTPCREL(%rip)
	jne	.L83
	addl	$1, 8(%rax)
	movq	16(%r8), %rax
	movq	%rax, 32(%rsp)
	movq	24(%r8), %rax
	testq	%rax, %rax
	movq	%rax, 40(%rsp)
	je	.L54
.L55:
	addl	$1, 8(%rax)
.L54:
	leaq	8(%rsp), %rdi
	xorl	%esi, %esi
	leaq	16(%rsp), %r14
.LEHB0:
	call	_ZN7openpal18MonotonicTimestampC1El@PLT
	leaq	16(%rsp), %r14
	movq	8(%rsp), %rdx
	movl	$4294967295, %r8d
	xorl	%r9d, %r9d
	movq	%rbp, %rsi
	movq	%rbx, %rdi
	movq	%r14, %rcx
	call	_ZN8opendnp311IMasterTaskC2ERNS_18IMasterApplicationEN7openpal18MonotonicTimestampENS3_6LoggerENS_10TaskConfigE@PLT
.LEHE0:
	movq	40(%rsp), %rbp
	testq	%rbp, %rbp
	je	.L58
	cmpq	$0, _ZL28__gthrw___pthread_key_createPjPFvPvE@GOTPCREL(%rip)
	je	.L59
	lock subl	$1, 8(%rbp)
	je	.L84
.L58:
	movq	24(%rsp), %rbp
	testq	%rbp, %rbp
	je	.L64
	cmpq	$0, _ZL28__gthrw___pthread_key_createPjPFvPvE@GOTPCREL(%rip)
	je	.L65
	lock subl	$1, 8(%rbp)
	je	.L85
.L64:
	movq	_ZTVN8opendnp321EnableUnsolicitedTaskE@GOTPCREL(%rip), %rax
	movb	%r12b, 88(%rbx)
	movq	%r13, 96(%rbx)
	addq	$16, %rax
	movq	%rax, (%rbx)
	movq	56(%rsp), %rax
	xorq	%fs:40, %rax
	jne	.L86
	addq	$64, %rsp
	.cfi_remember_state
	.cfi_def_cfa_offset 48
	popq	%rbx
	.cfi_def_cfa_offset 40
	popq	%rbp
	.cfi_def_cfa_offset 32
	popq	%r12
	.cfi_def_cfa_offset 24
	popq	%r13
	.cfi_def_cfa_offset 16
	popq	%r14
	.cfi_def_cfa_offset 8
	ret
	.p2align 4,,10
	.p2align 3
.L83:
	.cfi_restore_state
	lock addl	$1, 8(%rax)
	movq	24(%r8), %rdx
	movq	16(%r8), %rax
	testq	%rdx, %rdx
	movq	%rax, 32(%rsp)
	movq	%rdx, 40(%rsp)
	leaq	8(%rdx), %rax
	je	.L54
.L70:
	lock addl	$1, (%rax)
	jmp	.L54
	.p2align 4,,10
	.p2align 3
.L51:
	movq	16(%r8), %rax
	movq	%rax, 32(%rsp)
	movq	24(%r8), %rax
	testq	%rax, %rax
	movq	%rax, 40(%rsp)
	je	.L54
	cmpq	$0, _ZL28__gthrw___pthread_key_createPjPFvPvE@GOTPCREL(%rip)
	je	.L55
	addq	$8, %rax
	jmp	.L70
	.p2align 4,,10
	.p2align 3
.L65:
	movl	8(%rbp), %eax
	leal	-1(%rax), %edx
	cmpl	$1, %eax
	movl	%edx, 8(%rbp)
	jne	.L64
	movq	0(%rbp), %rax
	movq	%rbp, %rdi
	call	*16(%rax)
	movl	12(%rbp), %eax
	leal	-1(%rax), %edx
	movl	%edx, 12(%rbp)
.L72:
	cmpl	$1, %eax
	jne	.L64
	movq	0(%rbp), %rax
	movq	%rbp, %rdi
	call	*24(%rax)
	jmp	.L64
	.p2align 4,,10
	.p2align 3
.L59:
	movl	8(%rbp), %eax
	leal	-1(%rax), %edx
	cmpl	$1, %eax
	movl	%edx, 8(%rbp)
	jne	.L58
	movq	0(%rbp), %rax
	movq	%rbp, %rdi
	call	*16(%rax)
	movl	12(%rbp), %eax
	leal	-1(%rax), %edx
	movl	%edx, 12(%rbp)
.L71:
	cmpl	$1, %eax
	jne	.L58
	movq	0(%rbp), %rax
	movq	%rbp, %rdi
	call	*24(%rax)
	jmp	.L58
	.p2align 4,,10
	.p2align 3
.L85:
	movq	0(%rbp), %rax
	movq	%rbp, %rdi
	call	*16(%rax)
	movl	$-1, %eax
	lock xaddl	%eax, 12(%rbp)
	jmp	.L72
	.p2align 4,,10
	.p2align 3
.L84:
	movq	0(%rbp), %rax
	movq	%rbp, %rdi
	call	*16(%rax)
	movl	$-1, %eax
	lock xaddl	%eax, 12(%rbp)
	jmp	.L71
.L86:
	call	__stack_chk_fail@PLT
.L74:
	movq	%rax, %rbx
	movq	%r14, %rdi
	call	_ZN7openpal6LoggerD1Ev@PLT
	movq	%rbx, %rdi
.LEHB1:
	call	_Unwind_Resume@PLT
.LEHE1:
	.cfi_endproc
.LFE2934:
	.globl	__gxx_personality_v0
	.section	.gcc_except_table,"a",@progbits
.LLSDA2934:
	.byte	0xff
	.byte	0xff
	.byte	0x1
	.uleb128 .LLSDACSE2934-.LLSDACSB2934
.LLSDACSB2934:
	.uleb128 .LEHB0-.LFB2934
	.uleb128 .LEHE0-.LEHB0
	.uleb128 .L74-.LFB2934
	.uleb128 0
	.uleb128 .LEHB1-.LFB2934
	.uleb128 .LEHE1-.LEHB1
	.uleb128 0
	.uleb128 0
.LLSDACSE2934:
	.text
	.size	_ZN8opendnp321EnableUnsolicitedTaskC2ERNS_18IMasterApplicationENS_10ClassFieldEN7openpal12TimeDurationENS4_6LoggerE, .-_ZN8opendnp321EnableUnsolicitedTaskC2ERNS_18IMasterApplicationENS_10ClassFieldEN7openpal12TimeDurationENS4_6LoggerE
	.globl	_ZN8opendnp321EnableUnsolicitedTaskC1ERNS_18IMasterApplicationENS_10ClassFieldEN7openpal12TimeDurationENS4_6LoggerE
	.set	_ZN8opendnp321EnableUnsolicitedTaskC1ERNS_18IMasterApplicationENS_10ClassFieldEN7openpal12TimeDurationENS4_6LoggerE,_ZN8opendnp321EnableUnsolicitedTaskC2ERNS_18IMasterApplicationENS_10ClassFieldEN7openpal12TimeDurationENS4_6LoggerE
	.section	.text.startup,"ax",@progbits
	.p2align 4,,15
	.type	_GLOBAL__sub_I_EnableUnsolicitedTask.cpp, @function
_GLOBAL__sub_I_EnableUnsolicitedTask.cpp:
.LFB3638:
	.cfi_startproc
	movl	$5000, %edi
	jmp	_ZN7openpal12TimeDuration12MillisecondsEl@PLT
	.cfi_endproc
.LFE3638:
	.size	_GLOBAL__sub_I_EnableUnsolicitedTask.cpp, .-_GLOBAL__sub_I_EnableUnsolicitedTask.cpp
	.section	.init_array,"aw"
	.align 8
	.quad	_GLOBAL__sub_I_EnableUnsolicitedTask.cpp
	.weak	_ZTSN8opendnp321EnableUnsolicitedTaskE
	.section	.rodata._ZTSN8opendnp321EnableUnsolicitedTaskE,"aG",@progbits,_ZTSN8opendnp321EnableUnsolicitedTaskE,comdat
	.align 32
	.type	_ZTSN8opendnp321EnableUnsolicitedTaskE, @object
	.size	_ZTSN8opendnp321EnableUnsolicitedTaskE, 35
_ZTSN8opendnp321EnableUnsolicitedTaskE:
	.string	"N8opendnp321EnableUnsolicitedTaskE"
	.weak	_ZTIN8opendnp321EnableUnsolicitedTaskE
	.section	.data.rel.ro._ZTIN8opendnp321EnableUnsolicitedTaskE,"awG",@progbits,_ZTIN8opendnp321EnableUnsolicitedTaskE,comdat
	.align 8
	.type	_ZTIN8opendnp321EnableUnsolicitedTaskE, @object
	.size	_ZTIN8opendnp321EnableUnsolicitedTaskE, 24
_ZTIN8opendnp321EnableUnsolicitedTaskE:
	.quad	_ZTVN10__cxxabiv120__si_class_type_infoE+16
	.quad	_ZTSN8opendnp321EnableUnsolicitedTaskE
	.quad	_ZTIN8opendnp311IMasterTaskE
	.weak	_ZTVN8opendnp321EnableUnsolicitedTaskE
	.section	.data.rel.ro._ZTVN8opendnp321EnableUnsolicitedTaskE,"awG",@progbits,_ZTVN8opendnp321EnableUnsolicitedTaskE,comdat
	.align 8
	.type	_ZTVN8opendnp321EnableUnsolicitedTaskE, @object
	.size	_ZTVN8opendnp321EnableUnsolicitedTaskE, 120
_ZTVN8opendnp321EnableUnsolicitedTaskE:
	.quad	0
	.quad	_ZTIN8opendnp321EnableUnsolicitedTaskE
	.quad	_ZN8opendnp321EnableUnsolicitedTaskD1Ev
	.quad	_ZN8opendnp321EnableUnsolicitedTaskD0Ev
	.quad	_ZNK8opendnp311IMasterTask10IsAuthTaskEv
	.quad	_ZNK8opendnp321EnableUnsolicitedTask4NameEv
	.quad	_ZNK8opendnp321EnableUnsolicitedTask8PriorityEv
	.quad	_ZNK8opendnp321EnableUnsolicitedTask19BlocksLowerPriorityEv
	.quad	_ZNK8opendnp321EnableUnsolicitedTask11IsRecurringEv
	.quad	_ZN8opendnp321EnableUnsolicitedTask12BuildRequestERNS_11APDURequestEh
	.quad	_ZN8opendnp311IMasterTask10InitializeEv
	.quad	_ZN8opendnp321EnableUnsolicitedTask15ProcessResponseERKNS_18APDUResponseHeaderERKN7openpal6RSliceE
	.quad	_ZN8opendnp321EnableUnsolicitedTask14OnTaskCompleteENS_14TaskCompletionEN7openpal18MonotonicTimestampE
	.quad	_ZNK8opendnp321EnableUnsolicitedTask9IsEnabledEv
	.quad	_ZNK8opendnp321EnableUnsolicitedTask11GetTaskTypeEv
	.weakref	_ZL28__gthrw___pthread_key_createPjPFvPvE,__pthread_key_create
	.hidden	DW.ref.__gxx_personality_v0
	.weak	DW.ref.__gxx_personality_v0
	.section	.data.rel.local.DW.ref.__gxx_personality_v0,"awG",@progbits,DW.ref.__gxx_personality_v0,comdat
	.align 8
	.type	DW.ref.__gxx_personality_v0, @object
	.size	DW.ref.__gxx_personality_v0, 8
DW.ref.__gxx_personality_v0:
	.quad	__gxx_personality_v0
	.ident	"GCC: (Ubuntu 7.5.0-3ubuntu1~18.04) 7.5.0"
	.section	.note.GNU-stack,"",@progbits
