	.file	"Executor.cpp"
	.text
	.section	.rodata._ZNK4asio6detail15system_category4nameEv.str1.1,"aMS",@progbits,1
.LC0:
	.string	"asio.system"
	.section	.text._ZNK4asio6detail15system_category4nameEv,"axG",@progbits,_ZNK4asio6detail15system_category4nameEv,comdat
	.align 2
	.p2align 4,,15
	.weak	_ZNK4asio6detail15system_category4nameEv
	.type	_ZNK4asio6detail15system_category4nameEv, @function
_ZNK4asio6detail15system_category4nameEv:
.LFB2305:
	.cfi_startproc
	leaq	.LC0(%rip), %rax
	ret
	.cfi_endproc
.LFE2305:
	.size	_ZNK4asio6detail15system_category4nameEv, .-_ZNK4asio6detail15system_category4nameEv
	.section	.rodata._ZNK4asio5error6detail14netdb_category4nameEv.str1.1,"aMS",@progbits,1
.LC1:
	.string	"asio.netdb"
	.section	.text._ZNK4asio5error6detail14netdb_category4nameEv,"axG",@progbits,_ZNK4asio5error6detail14netdb_category4nameEv,comdat
	.align 2
	.p2align 4,,15
	.weak	_ZNK4asio5error6detail14netdb_category4nameEv
	.type	_ZNK4asio5error6detail14netdb_category4nameEv, @function
_ZNK4asio5error6detail14netdb_category4nameEv:
.LFB2345:
	.cfi_startproc
	leaq	.LC1(%rip), %rax
	ret
	.cfi_endproc
.LFE2345:
	.size	_ZNK4asio5error6detail14netdb_category4nameEv, .-_ZNK4asio5error6detail14netdb_category4nameEv
	.section	.rodata._ZNK4asio5error6detail17addrinfo_category4nameEv.str1.1,"aMS",@progbits,1
.LC2:
	.string	"asio.addrinfo"
	.section	.text._ZNK4asio5error6detail17addrinfo_category4nameEv,"axG",@progbits,_ZNK4asio5error6detail17addrinfo_category4nameEv,comdat
	.align 2
	.p2align 4,,15
	.weak	_ZNK4asio5error6detail17addrinfo_category4nameEv
	.type	_ZNK4asio5error6detail17addrinfo_category4nameEv, @function
_ZNK4asio5error6detail17addrinfo_category4nameEv:
.LFB2351:
	.cfi_startproc
	leaq	.LC2(%rip), %rax
	ret
	.cfi_endproc
.LFE2351:
	.size	_ZNK4asio5error6detail17addrinfo_category4nameEv, .-_ZNK4asio5error6detail17addrinfo_category4nameEv
	.section	.rodata._ZNK4asio5error6detail13misc_category4nameEv.str1.1,"aMS",@progbits,1
.LC3:
	.string	"asio.misc"
	.section	.text._ZNK4asio5error6detail13misc_category4nameEv,"axG",@progbits,_ZNK4asio5error6detail13misc_category4nameEv,comdat
	.align 2
	.p2align 4,,15
	.weak	_ZNK4asio5error6detail13misc_category4nameEv
	.type	_ZNK4asio5error6detail13misc_category4nameEv, @function
_ZNK4asio5error6detail13misc_category4nameEv:
.LFB2357:
	.cfi_startproc
	leaq	.LC3(%rip), %rax
	ret
	.cfi_endproc
.LFE2357:
	.size	_ZNK4asio5error6detail13misc_category4nameEv, .-_ZNK4asio5error6detail13misc_category4nameEv
	.section	.text._ZN4asio10io_service7service12fork_serviceENS0_10fork_eventE,"axG",@progbits,_ZN4asio10io_service7service12fork_serviceENS0_10fork_eventE,comdat
	.align 2
	.p2align 4,,15
	.weak	_ZN4asio10io_service7service12fork_serviceENS0_10fork_eventE
	.type	_ZN4asio10io_service7service12fork_serviceENS0_10fork_eventE, @function
_ZN4asio10io_service7service12fork_serviceENS0_10fork_eventE:
.LFB3308:
	.cfi_startproc
	rep ret
	.cfi_endproc
.LFE3308:
	.size	_ZN4asio10io_service7service12fork_serviceENS0_10fork_eventE, .-_ZN4asio10io_service7service12fork_serviceENS0_10fork_eventE
	.section	.text._ZNSt13__future_base13_State_baseV217_M_complete_asyncEv,"axG",@progbits,_ZNSt13__future_base13_State_baseV217_M_complete_asyncEv,comdat
	.align 2
	.p2align 4,,15
	.weak	_ZNSt13__future_base13_State_baseV217_M_complete_asyncEv
	.type	_ZNSt13__future_base13_State_baseV217_M_complete_asyncEv, @function
_ZNSt13__future_base13_State_baseV217_M_complete_asyncEv:
.LFB6584:
	.cfi_startproc
	rep ret
	.cfi_endproc
.LFE6584:
	.size	_ZNSt13__future_base13_State_baseV217_M_complete_asyncEv, .-_ZNSt13__future_base13_State_baseV217_M_complete_asyncEv
	.section	.text._ZNKSt13__future_base13_State_baseV221_M_is_deferred_futureEv,"axG",@progbits,_ZNKSt13__future_base13_State_baseV221_M_is_deferred_futureEv,comdat
	.align 2
	.p2align 4,,15
	.weak	_ZNKSt13__future_base13_State_baseV221_M_is_deferred_futureEv
	.type	_ZNKSt13__future_base13_State_baseV221_M_is_deferred_futureEv, @function
_ZNKSt13__future_base13_State_baseV221_M_is_deferred_futureEv:
.LFB6585:
	.cfi_startproc
	xorl	%eax, %eax
	ret
	.cfi_endproc
.LFE6585:
	.size	_ZNKSt13__future_base13_State_baseV221_M_is_deferred_futureEv, .-_ZNKSt13__future_base13_State_baseV221_M_is_deferred_futureEv
	.section	.text._ZZSt9call_onceIMNSt13__future_base13_State_baseV2EFvPSt8functionIFSt10unique_ptrINS0_12_Result_baseENS4_8_DeleterEEvEEPbEJPS1_S9_SA_EEvRSt9once_flagOT_DpOT0_ENUlvE0_4_FUNEv,"axG",@progbits,_ZZSt9call_onceIMNSt13__future_base13_State_baseV2EFvPSt8functionIFSt10unique_ptrINS0_12_Result_baseENS4_8_DeleterEEvEEPbEJPS1_S9_SA_EEvRSt9once_flagOT_DpOT0_ENKUlvE0_clEv,comdat
	.p2align 4,,15
	.weak	_ZZSt9call_onceIMNSt13__future_base13_State_baseV2EFvPSt8functionIFSt10unique_ptrINS0_12_Result_baseENS4_8_DeleterEEvEEPbEJPS1_S9_SA_EEvRSt9once_flagOT_DpOT0_ENUlvE0_4_FUNEv
	.type	_ZZSt9call_onceIMNSt13__future_base13_State_baseV2EFvPSt8functionIFSt10unique_ptrINS0_12_Result_baseENS4_8_DeleterEEvEEPbEJPS1_S9_SA_EEvRSt9once_flagOT_DpOT0_ENUlvE0_4_FUNEv, @function
_ZZSt9call_onceIMNSt13__future_base13_State_baseV2EFvPSt8functionIFSt10unique_ptrINS0_12_Result_baseENS4_8_DeleterEEvEEPbEJPS1_S9_SA_EEvRSt9once_flagOT_DpOT0_ENUlvE0_4_FUNEv:
.LFB7492:
	.cfi_startproc
	subq	$8, %rsp
	.cfi_def_cfa_offset 16
	.byte	0x66
	leaq	_ZSt15__once_callable@tlsgd(%rip), %rdi
	.value	0x6666
	rex64
	call	__tls_get_addr@PLT
	movq	(%rax), %rax
	movq	16(%rax), %rdx
	movq	(%rax), %rcx
	movq	(%rdx), %rsi
	movq	24(%rax), %rdx
	movq	8(%rax), %rax
	movq	8(%rcx), %rdi
	movq	(%rdx), %rdx
	addq	(%rax), %rdi
	movq	(%rcx), %rax
	testb	$1, %al
	je	.L10
	movq	(%rdi), %rcx
	movq	-1(%rcx,%rax), %rax
.L10:
	addq	$8, %rsp
	.cfi_def_cfa_offset 8
	jmp	*%rax
	.cfi_endproc
.LFE7492:
	.size	_ZZSt9call_onceIMNSt13__future_base13_State_baseV2EFvPSt8functionIFSt10unique_ptrINS0_12_Result_baseENS4_8_DeleterEEvEEPbEJPS1_S9_SA_EEvRSt9once_flagOT_DpOT0_ENUlvE0_4_FUNEv, .-_ZZSt9call_onceIMNSt13__future_base13_State_baseV2EFvPSt8functionIFSt10unique_ptrINS0_12_Result_baseENS4_8_DeleterEEvEEPbEJPS1_S9_SA_EEvRSt9once_flagOT_DpOT0_ENUlvE0_4_FUNEv
	.section	.text._ZNSt15__exception_ptr12__dest_thunkISt12future_errorEEvPv,"axG",@progbits,_ZNSt15__exception_ptr12__dest_thunkISt12future_errorEEvPv,comdat
	.p2align 4,,15
	.weak	_ZNSt15__exception_ptr12__dest_thunkISt12future_errorEEvPv
	.type	_ZNSt15__exception_ptr12__dest_thunkISt12future_errorEEvPv, @function
_ZNSt15__exception_ptr12__dest_thunkISt12future_errorEEvPv:
.LFB7934:
	.cfi_startproc
	movq	(%rdi), %rax
	jmp	*(%rax)
	.cfi_endproc
.LFE7934:
	.size	_ZNSt15__exception_ptr12__dest_thunkISt12future_errorEEvPv, .-_ZNSt15__exception_ptr12__dest_thunkISt12future_errorEEvPv
	.text
	.p2align 4,,15
	.type	_ZNSt17_Function_handlerIFvvEZN7asiopal8Executor18BlockUntilAndFlushERKSt8functionIS0_EEUlvE_E9_M_invokeERKSt9_Any_data, @function
_ZNSt17_Function_handlerIFvvEZN7asiopal8Executor18BlockUntilAndFlushERKSt8functionIS0_EEUlvE_E9_M_invokeERKSt9_Any_data:
.LFB8107:
	.cfi_startproc
	rep ret
	.cfi_endproc
.LFE8107:
	.size	_ZNSt17_Function_handlerIFvvEZN7asiopal8Executor18BlockUntilAndFlushERKSt8functionIS0_EEUlvE_E9_M_invokeERKSt9_Any_data, .-_ZNSt17_Function_handlerIFvvEZN7asiopal8Executor18BlockUntilAndFlushERKSt8functionIS0_EEUlvE_E9_M_invokeERKSt9_Any_data
	.p2align 4,,15
	.type	_ZNSt14_Function_base13_Base_managerIZN7asiopal8Executor18BlockUntilAndFlushERKSt8functionIFvvEEEUlvE_E10_M_managerERSt9_Any_dataRKSA_St18_Manager_operation, @function
_ZNSt14_Function_base13_Base_managerIZN7asiopal8Executor18BlockUntilAndFlushERKSt8functionIFvvEEEUlvE_E10_M_managerERSt9_Any_dataRKSA_St18_Manager_operation:
.LFB8108:
	.cfi_startproc
	testl	%edx, %edx
	je	.L19
	cmpl	$1, %edx
	jne	.L18
	movq	%rsi, (%rdi)
.L18:
	xorl	%eax, %eax
	ret
	.p2align 4,,10
	.p2align 3
.L19:
	leaq	_ZTIZN7asiopal8Executor18BlockUntilAndFlushERKSt8functionIFvvEEEUlvE_(%rip), %rax
	movq	%rax, (%rdi)
	xorl	%eax, %eax
	ret
	.cfi_endproc
.LFE8108:
	.size	_ZNSt14_Function_base13_Base_managerIZN7asiopal8Executor18BlockUntilAndFlushERKSt8functionIFvvEEEUlvE_E10_M_managerERSt9_Any_dataRKSA_St18_Manager_operation, .-_ZNSt14_Function_base13_Base_managerIZN7asiopal8Executor18BlockUntilAndFlushERKSt8functionIFvvEEEUlvE_E10_M_managerERSt9_Any_dataRKSA_St18_Manager_operation
	.section	.text._ZNSt17_Function_handlerIFSt10unique_ptrINSt13__future_base12_Result_baseENS2_8_DeleterEEvENS1_13_State_baseV27_SetterIbObEEE9_M_invokeERKSt9_Any_data,"axG",@progbits,_ZNSt17_Function_handlerIFSt10unique_ptrINSt13__future_base12_Result_baseENS2_8_DeleterEEvENS1_13_State_baseV27_SetterIbObEEE9_M_invokeERKSt9_Any_data,comdat
	.p2align 4,,15
	.weak	_ZNSt17_Function_handlerIFSt10unique_ptrINSt13__future_base12_Result_baseENS2_8_DeleterEEvENS1_13_State_baseV27_SetterIbObEEE9_M_invokeERKSt9_Any_data
	.type	_ZNSt17_Function_handlerIFSt10unique_ptrINSt13__future_base12_Result_baseENS2_8_DeleterEEvENS1_13_State_baseV27_SetterIbObEEE9_M_invokeERKSt9_Any_data, @function
_ZNSt17_Function_handlerIFSt10unique_ptrINSt13__future_base12_Result_baseENS2_8_DeleterEEvENS1_13_State_baseV27_SetterIbObEEE9_M_invokeERKSt9_Any_data:
.LFB8358:
	.cfi_startproc
	movq	8(%rsi), %rcx
	movq	(%rsi), %rdx
	movq	%rdi, %rax
	movzbl	(%rcx), %ecx
	movq	16(%rdx), %rdx
	movb	$1, 17(%rdx)
	movb	%cl, 16(%rdx)
	movq	(%rsi), %rdx
	movq	16(%rdx), %rcx
	movq	$0, 16(%rdx)
	movq	%rcx, (%rdi)
	ret
	.cfi_endproc
.LFE8358:
	.size	_ZNSt17_Function_handlerIFSt10unique_ptrINSt13__future_base12_Result_baseENS2_8_DeleterEEvENS1_13_State_baseV27_SetterIbObEEE9_M_invokeERKSt9_Any_data, .-_ZNSt17_Function_handlerIFSt10unique_ptrINSt13__future_base12_Result_baseENS2_8_DeleterEEvENS1_13_State_baseV27_SetterIbObEEE9_M_invokeERKSt9_Any_data
	.section	.text._ZNSt14_Function_base13_Base_managerINSt13__future_base13_State_baseV27_SetterIbObEEE10_M_managerERSt9_Any_dataRKS7_St18_Manager_operation,"axG",@progbits,_ZNSt14_Function_base13_Base_managerINSt13__future_base13_State_baseV27_SetterIbObEEE10_M_managerERSt9_Any_dataRKS7_St18_Manager_operation,comdat
	.p2align 4,,15
	.weak	_ZNSt14_Function_base13_Base_managerINSt13__future_base13_State_baseV27_SetterIbObEEE10_M_managerERSt9_Any_dataRKS7_St18_Manager_operation
	.type	_ZNSt14_Function_base13_Base_managerINSt13__future_base13_State_baseV27_SetterIbObEEE10_M_managerERSt9_Any_dataRKS7_St18_Manager_operation, @function
_ZNSt14_Function_base13_Base_managerINSt13__future_base13_State_baseV27_SetterIbObEEE10_M_managerERSt9_Any_dataRKS7_St18_Manager_operation:
.LFB8359:
	.cfi_startproc
	cmpl	$1, %edx
	je	.L24
	jb	.L25
	cmpl	$2, %edx
	jne	.L23
	movdqu	(%rsi), %xmm0
	movups	%xmm0, (%rdi)
.L23:
	xorl	%eax, %eax
	ret
	.p2align 4,,10
	.p2align 3
.L25:
	movq	_ZTINSt13__future_base13_State_baseV27_SetterIbObEE@GOTPCREL(%rip), %rax
	movq	%rax, (%rdi)
	xorl	%eax, %eax
	ret
	.p2align 4,,10
	.p2align 3
.L24:
	movq	%rsi, (%rdi)
	xorl	%eax, %eax
	ret
	.cfi_endproc
.LFE8359:
	.size	_ZNSt14_Function_base13_Base_managerINSt13__future_base13_State_baseV27_SetterIbObEEE10_M_managerERSt9_Any_dataRKS7_St18_Manager_operation, .-_ZNSt14_Function_base13_Base_managerINSt13__future_base13_State_baseV27_SetterIbObEEE10_M_managerERSt9_Any_dataRKS7_St18_Manager_operation
	.section	.text._ZNSt13__future_base13_State_baseV2D2Ev,"axG",@progbits,_ZNSt13__future_base13_State_baseV2D5Ev,comdat
	.align 2
	.p2align 4,,15
	.weak	_ZNSt13__future_base13_State_baseV2D2Ev
	.type	_ZNSt13__future_base13_State_baseV2D2Ev, @function
_ZNSt13__future_base13_State_baseV2D2Ev:
.LFB9193:
	.cfi_startproc
	.cfi_personality 0x9b,DW.ref.__gxx_personality_v0
	.cfi_lsda 0x1b,.LLSDA9193
	movq	_ZTVNSt13__future_base13_State_baseV2E@GOTPCREL(%rip), %rax
	addq	$16, %rax
	movq	%rax, (%rdi)
	movq	8(%rdi), %rdi
	testq	%rdi, %rdi
	je	.L27
	movq	(%rdi), %rax
	jmp	*(%rax)
	.p2align 4,,10
	.p2align 3
.L27:
	rep ret
	.cfi_endproc
.LFE9193:
	.globl	__gxx_personality_v0
	.section	.gcc_except_table._ZNSt13__future_base13_State_baseV2D2Ev,"aG",@progbits,_ZNSt13__future_base13_State_baseV2D5Ev,comdat
.LLSDA9193:
	.byte	0xff
	.byte	0xff
	.byte	0x1
	.uleb128 .LLSDACSE9193-.LLSDACSB9193
.LLSDACSB9193:
.LLSDACSE9193:
	.section	.text._ZNSt13__future_base13_State_baseV2D2Ev,"axG",@progbits,_ZNSt13__future_base13_State_baseV2D5Ev,comdat
	.size	_ZNSt13__future_base13_State_baseV2D2Ev, .-_ZNSt13__future_base13_State_baseV2D2Ev
	.weak	_ZNSt13__future_base13_State_baseV2D1Ev
	.set	_ZNSt13__future_base13_State_baseV2D1Ev,_ZNSt13__future_base13_State_baseV2D2Ev
	.section	.text._ZN4asio6detail7tss_ptrINS0_10call_stackINS0_15task_io_serviceENS0_27task_io_service_thread_infoEE7contextEED2Ev,"axG",@progbits,_ZN4asio6detail7tss_ptrINS0_10call_stackINS0_15task_io_serviceENS0_27task_io_service_thread_infoEE7contextEED5Ev,comdat
	.align 2
	.p2align 4,,15
	.weak	_ZN4asio6detail7tss_ptrINS0_10call_stackINS0_15task_io_serviceENS0_27task_io_service_thread_infoEE7contextEED2Ev
	.type	_ZN4asio6detail7tss_ptrINS0_10call_stackINS0_15task_io_serviceENS0_27task_io_service_thread_infoEE7contextEED2Ev, @function
_ZN4asio6detail7tss_ptrINS0_10call_stackINS0_15task_io_serviceENS0_27task_io_service_thread_infoEE7contextEED2Ev:
.LFB9258:
	.cfi_startproc
	rep ret
	.cfi_endproc
.LFE9258:
	.size	_ZN4asio6detail7tss_ptrINS0_10call_stackINS0_15task_io_serviceENS0_27task_io_service_thread_infoEE7contextEED2Ev, .-_ZN4asio6detail7tss_ptrINS0_10call_stackINS0_15task_io_serviceENS0_27task_io_service_thread_infoEE7contextEED2Ev
	.weak	_ZN4asio6detail7tss_ptrINS0_10call_stackINS0_15task_io_serviceENS0_27task_io_service_thread_infoEE7contextEED1Ev
	.set	_ZN4asio6detail7tss_ptrINS0_10call_stackINS0_15task_io_serviceENS0_27task_io_service_thread_infoEE7contextEED1Ev,_ZN4asio6detail7tss_ptrINS0_10call_stackINS0_15task_io_serviceENS0_27task_io_service_thread_infoEE7contextEED2Ev
	.section	.text._ZN4asio6detail10service_idINS0_13epoll_reactorEED2Ev,"axG",@progbits,_ZN4asio6detail10service_idINS0_13epoll_reactorEED5Ev,comdat
	.align 2
	.p2align 4,,15
	.weak	_ZN4asio6detail10service_idINS0_13epoll_reactorEED2Ev
	.type	_ZN4asio6detail10service_idINS0_13epoll_reactorEED2Ev, @function
_ZN4asio6detail10service_idINS0_13epoll_reactorEED2Ev:
.LFB9261:
	.cfi_startproc
	rep ret
	.cfi_endproc
.LFE9261:
	.size	_ZN4asio6detail10service_idINS0_13epoll_reactorEED2Ev, .-_ZN4asio6detail10service_idINS0_13epoll_reactorEED2Ev
	.weak	_ZN4asio6detail10service_idINS0_13epoll_reactorEED1Ev
	.set	_ZN4asio6detail10service_idINS0_13epoll_reactorEED1Ev,_ZN4asio6detail10service_idINS0_13epoll_reactorEED2Ev
	.section	.text._ZN4asio6detail10service_idINS0_15task_io_serviceEED2Ev,"axG",@progbits,_ZN4asio6detail10service_idINS0_15task_io_serviceEED5Ev,comdat
	.align 2
	.p2align 4,,15
	.weak	_ZN4asio6detail10service_idINS0_15task_io_serviceEED2Ev
	.type	_ZN4asio6detail10service_idINS0_15task_io_serviceEED2Ev, @function
_ZN4asio6detail10service_idINS0_15task_io_serviceEED2Ev:
.LFB9264:
	.cfi_startproc
	rep ret
	.cfi_endproc
.LFE9264:
	.size	_ZN4asio6detail10service_idINS0_15task_io_serviceEED2Ev, .-_ZN4asio6detail10service_idINS0_15task_io_serviceEED2Ev
	.weak	_ZN4asio6detail10service_idINS0_15task_io_serviceEED1Ev
	.set	_ZN4asio6detail10service_idINS0_15task_io_serviceEED1Ev,_ZN4asio6detail10service_idINS0_15task_io_serviceEED2Ev
	.section	.text._ZN4asio6detail7tss_ptrINS0_10call_stackINS0_14strand_service11strand_implEhE7contextEED2Ev,"axG",@progbits,_ZN4asio6detail7tss_ptrINS0_10call_stackINS0_14strand_service11strand_implEhE7contextEED5Ev,comdat
	.align 2
	.p2align 4,,15
	.weak	_ZN4asio6detail7tss_ptrINS0_10call_stackINS0_14strand_service11strand_implEhE7contextEED2Ev
	.type	_ZN4asio6detail7tss_ptrINS0_10call_stackINS0_14strand_service11strand_implEhE7contextEED2Ev, @function
_ZN4asio6detail7tss_ptrINS0_10call_stackINS0_14strand_service11strand_implEhE7contextEED2Ev:
.LFB9267:
	.cfi_startproc
	rep ret
	.cfi_endproc
.LFE9267:
	.size	_ZN4asio6detail7tss_ptrINS0_10call_stackINS0_14strand_service11strand_implEhE7contextEED2Ev, .-_ZN4asio6detail7tss_ptrINS0_10call_stackINS0_14strand_service11strand_implEhE7contextEED2Ev
	.weak	_ZN4asio6detail7tss_ptrINS0_10call_stackINS0_14strand_service11strand_implEhE7contextEED1Ev
	.set	_ZN4asio6detail7tss_ptrINS0_10call_stackINS0_14strand_service11strand_implEhE7contextEED1Ev,_ZN4asio6detail7tss_ptrINS0_10call_stackINS0_14strand_service11strand_implEhE7contextEED2Ev
	.section	.text._ZN4asio6detail10service_idINS0_14strand_serviceEED2Ev,"axG",@progbits,_ZN4asio6detail10service_idINS0_14strand_serviceEED5Ev,comdat
	.align 2
	.p2align 4,,15
	.weak	_ZN4asio6detail10service_idINS0_14strand_serviceEED2Ev
	.type	_ZN4asio6detail10service_idINS0_14strand_serviceEED2Ev, @function
_ZN4asio6detail10service_idINS0_14strand_serviceEED2Ev:
.LFB9270:
	.cfi_startproc
	rep ret
	.cfi_endproc
.LFE9270:
	.size	_ZN4asio6detail10service_idINS0_14strand_serviceEED2Ev, .-_ZN4asio6detail10service_idINS0_14strand_serviceEED2Ev
	.weak	_ZN4asio6detail10service_idINS0_14strand_serviceEED1Ev
	.set	_ZN4asio6detail10service_idINS0_14strand_serviceEED1Ev,_ZN4asio6detail10service_idINS0_14strand_serviceEED2Ev
	.section	.text._ZNSt23_Sp_counted_ptr_inplaceIN7asiopal5TimerESaIS1_ELN9__gnu_cxx12_Lock_policyE2EED2Ev,"axG",@progbits,_ZNSt23_Sp_counted_ptr_inplaceIN7asiopal5TimerESaIS1_ELN9__gnu_cxx12_Lock_policyE2EED5Ev,comdat
	.align 2
	.p2align 4,,15
	.weak	_ZNSt23_Sp_counted_ptr_inplaceIN7asiopal5TimerESaIS1_ELN9__gnu_cxx12_Lock_policyE2EED2Ev
	.type	_ZNSt23_Sp_counted_ptr_inplaceIN7asiopal5TimerESaIS1_ELN9__gnu_cxx12_Lock_policyE2EED2Ev, @function
_ZNSt23_Sp_counted_ptr_inplaceIN7asiopal5TimerESaIS1_ELN9__gnu_cxx12_Lock_policyE2EED2Ev:
.LFB9273:
	.cfi_startproc
	rep ret
	.cfi_endproc
.LFE9273:
	.size	_ZNSt23_Sp_counted_ptr_inplaceIN7asiopal5TimerESaIS1_ELN9__gnu_cxx12_Lock_policyE2EED2Ev, .-_ZNSt23_Sp_counted_ptr_inplaceIN7asiopal5TimerESaIS1_ELN9__gnu_cxx12_Lock_policyE2EED2Ev
	.weak	_ZNSt23_Sp_counted_ptr_inplaceIN7asiopal5TimerESaIS1_ELN9__gnu_cxx12_Lock_policyE2EED1Ev
	.set	_ZNSt23_Sp_counted_ptr_inplaceIN7asiopal5TimerESaIS1_ELN9__gnu_cxx12_Lock_policyE2EED1Ev,_ZNSt23_Sp_counted_ptr_inplaceIN7asiopal5TimerESaIS1_ELN9__gnu_cxx12_Lock_policyE2EED2Ev
	.section	.text._ZNSt23_Sp_counted_ptr_inplaceINSt13__future_base13_State_baseV2ESaIS1_ELN9__gnu_cxx12_Lock_policyE2EED2Ev,"axG",@progbits,_ZNSt23_Sp_counted_ptr_inplaceINSt13__future_base13_State_baseV2ESaIS1_ELN9__gnu_cxx12_Lock_policyE2EED5Ev,comdat
	.align 2
	.p2align 4,,15
	.weak	_ZNSt23_Sp_counted_ptr_inplaceINSt13__future_base13_State_baseV2ESaIS1_ELN9__gnu_cxx12_Lock_policyE2EED2Ev
	.type	_ZNSt23_Sp_counted_ptr_inplaceINSt13__future_base13_State_baseV2ESaIS1_ELN9__gnu_cxx12_Lock_policyE2EED2Ev, @function
_ZNSt23_Sp_counted_ptr_inplaceINSt13__future_base13_State_baseV2ESaIS1_ELN9__gnu_cxx12_Lock_policyE2EED2Ev:
.LFB9287:
	.cfi_startproc
	rep ret
	.cfi_endproc
.LFE9287:
	.size	_ZNSt23_Sp_counted_ptr_inplaceINSt13__future_base13_State_baseV2ESaIS1_ELN9__gnu_cxx12_Lock_policyE2EED2Ev, .-_ZNSt23_Sp_counted_ptr_inplaceINSt13__future_base13_State_baseV2ESaIS1_ELN9__gnu_cxx12_Lock_policyE2EED2Ev
	.weak	_ZNSt23_Sp_counted_ptr_inplaceINSt13__future_base13_State_baseV2ESaIS1_ELN9__gnu_cxx12_Lock_policyE2EED1Ev
	.set	_ZNSt23_Sp_counted_ptr_inplaceINSt13__future_base13_State_baseV2ESaIS1_ELN9__gnu_cxx12_Lock_policyE2EED1Ev,_ZNSt23_Sp_counted_ptr_inplaceINSt13__future_base13_State_baseV2ESaIS1_ELN9__gnu_cxx12_Lock_policyE2EED2Ev
	.section	.text._ZNSt23_Sp_counted_ptr_inplaceINSt13__future_base13_State_baseV2ESaIS1_ELN9__gnu_cxx12_Lock_policyE2EE10_M_disposeEv,"axG",@progbits,_ZNSt23_Sp_counted_ptr_inplaceINSt13__future_base13_State_baseV2ESaIS1_ELN9__gnu_cxx12_Lock_policyE2EE10_M_disposeEv,comdat
	.align 2
	.p2align 4,,15
	.weak	_ZNSt23_Sp_counted_ptr_inplaceINSt13__future_base13_State_baseV2ESaIS1_ELN9__gnu_cxx12_Lock_policyE2EE10_M_disposeEv
	.type	_ZNSt23_Sp_counted_ptr_inplaceINSt13__future_base13_State_baseV2ESaIS1_ELN9__gnu_cxx12_Lock_policyE2EE10_M_disposeEv, @function
_ZNSt23_Sp_counted_ptr_inplaceINSt13__future_base13_State_baseV2ESaIS1_ELN9__gnu_cxx12_Lock_policyE2EE10_M_disposeEv:
.LFB9290:
	.cfi_startproc
	movq	%rdi, %rax
	leaq	16(%rdi), %rdi
	movq	16(%rax), %rax
	jmp	*(%rax)
	.cfi_endproc
.LFE9290:
	.size	_ZNSt23_Sp_counted_ptr_inplaceINSt13__future_base13_State_baseV2ESaIS1_ELN9__gnu_cxx12_Lock_policyE2EE10_M_disposeEv, .-_ZNSt23_Sp_counted_ptr_inplaceINSt13__future_base13_State_baseV2ESaIS1_ELN9__gnu_cxx12_Lock_policyE2EE10_M_disposeEv
	.section	.text._ZNSt13__future_base13_State_baseV2D0Ev,"axG",@progbits,_ZNSt13__future_base13_State_baseV2D5Ev,comdat
	.align 2
	.p2align 4,,15
	.weak	_ZNSt13__future_base13_State_baseV2D0Ev
	.type	_ZNSt13__future_base13_State_baseV2D0Ev, @function
_ZNSt13__future_base13_State_baseV2D0Ev:
.LFB9195:
	.cfi_startproc
	.cfi_personality 0x9b,DW.ref.__gxx_personality_v0
	.cfi_lsda 0x1b,.LLSDA9195
	movq	_ZTVNSt13__future_base13_State_baseV2E@GOTPCREL(%rip), %rax
	pushq	%rbx
	.cfi_def_cfa_offset 16
	.cfi_offset 3, -16
	movq	%rdi, %rbx
	addq	$16, %rax
	movq	%rax, (%rdi)
	movq	8(%rdi), %rdi
	testq	%rdi, %rdi
	je	.L38
	movq	(%rdi), %rax
	call	*(%rax)
.L38:
	movq	%rbx, %rdi
	movl	$32, %esi
	popq	%rbx
	.cfi_def_cfa_offset 8
	jmp	_ZdlPvm@PLT
	.cfi_endproc
.LFE9195:
	.section	.gcc_except_table._ZNSt13__future_base13_State_baseV2D0Ev,"aG",@progbits,_ZNSt13__future_base13_State_baseV2D5Ev,comdat
.LLSDA9195:
	.byte	0xff
	.byte	0xff
	.byte	0x1
	.uleb128 .LLSDACSE9195-.LLSDACSB9195
.LLSDACSB9195:
.LLSDACSE9195:
	.section	.text._ZNSt13__future_base13_State_baseV2D0Ev,"axG",@progbits,_ZNSt13__future_base13_State_baseV2D5Ev,comdat
	.size	_ZNSt13__future_base13_State_baseV2D0Ev, .-_ZNSt13__future_base13_State_baseV2D0Ev
	.section	.text._ZNSt23_Sp_counted_ptr_inplaceINSt13__future_base13_State_baseV2ESaIS1_ELN9__gnu_cxx12_Lock_policyE2EED0Ev,"axG",@progbits,_ZNSt23_Sp_counted_ptr_inplaceINSt13__future_base13_State_baseV2ESaIS1_ELN9__gnu_cxx12_Lock_policyE2EED5Ev,comdat
	.align 2
	.p2align 4,,15
	.weak	_ZNSt23_Sp_counted_ptr_inplaceINSt13__future_base13_State_baseV2ESaIS1_ELN9__gnu_cxx12_Lock_policyE2EED0Ev
	.type	_ZNSt23_Sp_counted_ptr_inplaceINSt13__future_base13_State_baseV2ESaIS1_ELN9__gnu_cxx12_Lock_policyE2EED0Ev, @function
_ZNSt23_Sp_counted_ptr_inplaceINSt13__future_base13_State_baseV2ESaIS1_ELN9__gnu_cxx12_Lock_policyE2EED0Ev:
.LFB9289:
	.cfi_startproc
	movl	$48, %esi
	jmp	_ZdlPvm@PLT
	.cfi_endproc
.LFE9289:
	.size	_ZNSt23_Sp_counted_ptr_inplaceINSt13__future_base13_State_baseV2ESaIS1_ELN9__gnu_cxx12_Lock_policyE2EED0Ev, .-_ZNSt23_Sp_counted_ptr_inplaceINSt13__future_base13_State_baseV2ESaIS1_ELN9__gnu_cxx12_Lock_policyE2EED0Ev
	.section	.text._ZNSt23_Sp_counted_ptr_inplaceIN7asiopal5TimerESaIS1_ELN9__gnu_cxx12_Lock_policyE2EED0Ev,"axG",@progbits,_ZNSt23_Sp_counted_ptr_inplaceIN7asiopal5TimerESaIS1_ELN9__gnu_cxx12_Lock_policyE2EED5Ev,comdat
	.align 2
	.p2align 4,,15
	.weak	_ZNSt23_Sp_counted_ptr_inplaceIN7asiopal5TimerESaIS1_ELN9__gnu_cxx12_Lock_policyE2EED0Ev
	.type	_ZNSt23_Sp_counted_ptr_inplaceIN7asiopal5TimerESaIS1_ELN9__gnu_cxx12_Lock_policyE2EED0Ev, @function
_ZNSt23_Sp_counted_ptr_inplaceIN7asiopal5TimerESaIS1_ELN9__gnu_cxx12_Lock_policyE2EED0Ev:
.LFB9275:
	.cfi_startproc
	movl	$88, %esi
	jmp	_ZdlPvm@PLT
	.cfi_endproc
.LFE9275:
	.size	_ZNSt23_Sp_counted_ptr_inplaceIN7asiopal5TimerESaIS1_ELN9__gnu_cxx12_Lock_policyE2EED0Ev, .-_ZNSt23_Sp_counted_ptr_inplaceIN7asiopal5TimerESaIS1_ELN9__gnu_cxx12_Lock_policyE2EED0Ev
	.section	.text._ZN4asio6detail15system_categoryD2Ev,"axG",@progbits,_ZN4asio6detail15system_categoryD5Ev,comdat
	.align 2
	.p2align 4,,15
	.weak	_ZN4asio6detail15system_categoryD2Ev
	.type	_ZN4asio6detail15system_categoryD2Ev, @function
_ZN4asio6detail15system_categoryD2Ev:
.LFB9237:
	.cfi_startproc
	movq	_ZTVN4asio6detail15system_categoryE@GOTPCREL(%rip), %rax
	addq	$16, %rax
	movq	%rax, (%rdi)
	jmp	_ZNSt3_V214error_categoryD2Ev@PLT
	.cfi_endproc
.LFE9237:
	.size	_ZN4asio6detail15system_categoryD2Ev, .-_ZN4asio6detail15system_categoryD2Ev
	.weak	_ZN4asio6detail15system_categoryD1Ev
	.set	_ZN4asio6detail15system_categoryD1Ev,_ZN4asio6detail15system_categoryD2Ev
	.section	.text._ZN4asio6detail15system_categoryD0Ev,"axG",@progbits,_ZN4asio6detail15system_categoryD5Ev,comdat
	.align 2
	.p2align 4,,15
	.weak	_ZN4asio6detail15system_categoryD0Ev
	.type	_ZN4asio6detail15system_categoryD0Ev, @function
_ZN4asio6detail15system_categoryD0Ev:
.LFB9239:
	.cfi_startproc
	movq	_ZTVN4asio6detail15system_categoryE@GOTPCREL(%rip), %rax
	pushq	%rbx
	.cfi_def_cfa_offset 16
	.cfi_offset 3, -16
	movq	%rdi, %rbx
	addq	$16, %rax
	movq	%rax, (%rdi)
	call	_ZNSt3_V214error_categoryD2Ev@PLT
	movq	%rbx, %rdi
	movl	$8, %esi
	popq	%rbx
	.cfi_def_cfa_offset 8
	jmp	_ZdlPvm@PLT
	.cfi_endproc
.LFE9239:
	.size	_ZN4asio6detail15system_categoryD0Ev, .-_ZN4asio6detail15system_categoryD0Ev
	.section	.text._ZN4asio5error6detail14netdb_categoryD2Ev,"axG",@progbits,_ZN4asio5error6detail14netdb_categoryD5Ev,comdat
	.align 2
	.p2align 4,,15
	.weak	_ZN4asio5error6detail14netdb_categoryD2Ev
	.type	_ZN4asio5error6detail14netdb_categoryD2Ev, @function
_ZN4asio5error6detail14netdb_categoryD2Ev:
.LFB9225:
	.cfi_startproc
	movq	_ZTVN4asio5error6detail14netdb_categoryE@GOTPCREL(%rip), %rax
	addq	$16, %rax
	movq	%rax, (%rdi)
	jmp	_ZNSt3_V214error_categoryD2Ev@PLT
	.cfi_endproc
.LFE9225:
	.size	_ZN4asio5error6detail14netdb_categoryD2Ev, .-_ZN4asio5error6detail14netdb_categoryD2Ev
	.weak	_ZN4asio5error6detail14netdb_categoryD1Ev
	.set	_ZN4asio5error6detail14netdb_categoryD1Ev,_ZN4asio5error6detail14netdb_categoryD2Ev
	.section	.text._ZN4asio5error6detail14netdb_categoryD0Ev,"axG",@progbits,_ZN4asio5error6detail14netdb_categoryD5Ev,comdat
	.align 2
	.p2align 4,,15
	.weak	_ZN4asio5error6detail14netdb_categoryD0Ev
	.type	_ZN4asio5error6detail14netdb_categoryD0Ev, @function
_ZN4asio5error6detail14netdb_categoryD0Ev:
.LFB9227:
	.cfi_startproc
	movq	_ZTVN4asio5error6detail14netdb_categoryE@GOTPCREL(%rip), %rax
	pushq	%rbx
	.cfi_def_cfa_offset 16
	.cfi_offset 3, -16
	movq	%rdi, %rbx
	addq	$16, %rax
	movq	%rax, (%rdi)
	call	_ZNSt3_V214error_categoryD2Ev@PLT
	movq	%rbx, %rdi
	movl	$8, %esi
	popq	%rbx
	.cfi_def_cfa_offset 8
	jmp	_ZdlPvm@PLT
	.cfi_endproc
.LFE9227:
	.size	_ZN4asio5error6detail14netdb_categoryD0Ev, .-_ZN4asio5error6detail14netdb_categoryD0Ev
	.section	.text._ZN4asio5error6detail17addrinfo_categoryD2Ev,"axG",@progbits,_ZN4asio5error6detail17addrinfo_categoryD5Ev,comdat
	.align 2
	.p2align 4,,15
	.weak	_ZN4asio5error6detail17addrinfo_categoryD2Ev
	.type	_ZN4asio5error6detail17addrinfo_categoryD2Ev, @function
_ZN4asio5error6detail17addrinfo_categoryD2Ev:
.LFB9221:
	.cfi_startproc
	movq	_ZTVN4asio5error6detail17addrinfo_categoryE@GOTPCREL(%rip), %rax
	addq	$16, %rax
	movq	%rax, (%rdi)
	jmp	_ZNSt3_V214error_categoryD2Ev@PLT
	.cfi_endproc
.LFE9221:
	.size	_ZN4asio5error6detail17addrinfo_categoryD2Ev, .-_ZN4asio5error6detail17addrinfo_categoryD2Ev
	.weak	_ZN4asio5error6detail17addrinfo_categoryD1Ev
	.set	_ZN4asio5error6detail17addrinfo_categoryD1Ev,_ZN4asio5error6detail17addrinfo_categoryD2Ev
	.section	.text._ZN4asio5error6detail17addrinfo_categoryD0Ev,"axG",@progbits,_ZN4asio5error6detail17addrinfo_categoryD5Ev,comdat
	.align 2
	.p2align 4,,15
	.weak	_ZN4asio5error6detail17addrinfo_categoryD0Ev
	.type	_ZN4asio5error6detail17addrinfo_categoryD0Ev, @function
_ZN4asio5error6detail17addrinfo_categoryD0Ev:
.LFB9223:
	.cfi_startproc
	movq	_ZTVN4asio5error6detail17addrinfo_categoryE@GOTPCREL(%rip), %rax
	pushq	%rbx
	.cfi_def_cfa_offset 16
	.cfi_offset 3, -16
	movq	%rdi, %rbx
	addq	$16, %rax
	movq	%rax, (%rdi)
	call	_ZNSt3_V214error_categoryD2Ev@PLT
	movq	%rbx, %rdi
	movl	$8, %esi
	popq	%rbx
	.cfi_def_cfa_offset 8
	jmp	_ZdlPvm@PLT
	.cfi_endproc
.LFE9223:
	.size	_ZN4asio5error6detail17addrinfo_categoryD0Ev, .-_ZN4asio5error6detail17addrinfo_categoryD0Ev
	.section	.text._ZN4asio5error6detail13misc_categoryD2Ev,"axG",@progbits,_ZN4asio5error6detail13misc_categoryD5Ev,comdat
	.align 2
	.p2align 4,,15
	.weak	_ZN4asio5error6detail13misc_categoryD2Ev
	.type	_ZN4asio5error6detail13misc_categoryD2Ev, @function
_ZN4asio5error6detail13misc_categoryD2Ev:
.LFB9217:
	.cfi_startproc
	movq	_ZTVN4asio5error6detail13misc_categoryE@GOTPCREL(%rip), %rax
	addq	$16, %rax
	movq	%rax, (%rdi)
	jmp	_ZNSt3_V214error_categoryD2Ev@PLT
	.cfi_endproc
.LFE9217:
	.size	_ZN4asio5error6detail13misc_categoryD2Ev, .-_ZN4asio5error6detail13misc_categoryD2Ev
	.weak	_ZN4asio5error6detail13misc_categoryD1Ev
	.set	_ZN4asio5error6detail13misc_categoryD1Ev,_ZN4asio5error6detail13misc_categoryD2Ev
	.section	.text._ZN4asio5error6detail13misc_categoryD0Ev,"axG",@progbits,_ZN4asio5error6detail13misc_categoryD5Ev,comdat
	.align 2
	.p2align 4,,15
	.weak	_ZN4asio5error6detail13misc_categoryD0Ev
	.type	_ZN4asio5error6detail13misc_categoryD0Ev, @function
_ZN4asio5error6detail13misc_categoryD0Ev:
.LFB9219:
	.cfi_startproc
	movq	_ZTVN4asio5error6detail13misc_categoryE@GOTPCREL(%rip), %rax
	pushq	%rbx
	.cfi_def_cfa_offset 16
	.cfi_offset 3, -16
	movq	%rdi, %rbx
	addq	$16, %rax
	movq	%rax, (%rdi)
	call	_ZNSt3_V214error_categoryD2Ev@PLT
	movq	%rbx, %rdi
	movl	$8, %esi
	popq	%rbx
	.cfi_def_cfa_offset 8
	jmp	_ZdlPvm@PLT
	.cfi_endproc
.LFE9219:
	.size	_ZN4asio5error6detail13misc_categoryD0Ev, .-_ZN4asio5error6detail13misc_categoryD0Ev
	.section	.text._ZNSt23_Sp_counted_ptr_inplaceIN7asiopal5TimerESaIS1_ELN9__gnu_cxx12_Lock_policyE2EE10_M_destroyEv,"axG",@progbits,_ZNSt23_Sp_counted_ptr_inplaceIN7asiopal5TimerESaIS1_ELN9__gnu_cxx12_Lock_policyE2EE10_M_destroyEv,comdat
	.align 2
	.p2align 4,,15
	.weak	_ZNSt23_Sp_counted_ptr_inplaceIN7asiopal5TimerESaIS1_ELN9__gnu_cxx12_Lock_policyE2EE10_M_destroyEv
	.type	_ZNSt23_Sp_counted_ptr_inplaceIN7asiopal5TimerESaIS1_ELN9__gnu_cxx12_Lock_policyE2EE10_M_destroyEv, @function
_ZNSt23_Sp_counted_ptr_inplaceIN7asiopal5TimerESaIS1_ELN9__gnu_cxx12_Lock_policyE2EE10_M_destroyEv:
.LFB9277:
	.cfi_startproc
	jmp	_ZdlPv@PLT
	.cfi_endproc
.LFE9277:
	.size	_ZNSt23_Sp_counted_ptr_inplaceIN7asiopal5TimerESaIS1_ELN9__gnu_cxx12_Lock_policyE2EE10_M_destroyEv, .-_ZNSt23_Sp_counted_ptr_inplaceIN7asiopal5TimerESaIS1_ELN9__gnu_cxx12_Lock_policyE2EE10_M_destroyEv
	.section	.text._ZNSt23_Sp_counted_ptr_inplaceINSt13__future_base13_State_baseV2ESaIS1_ELN9__gnu_cxx12_Lock_policyE2EE10_M_destroyEv,"axG",@progbits,_ZNSt23_Sp_counted_ptr_inplaceINSt13__future_base13_State_baseV2ESaIS1_ELN9__gnu_cxx12_Lock_policyE2EE10_M_destroyEv,comdat
	.align 2
	.p2align 4,,15
	.weak	_ZNSt23_Sp_counted_ptr_inplaceINSt13__future_base13_State_baseV2ESaIS1_ELN9__gnu_cxx12_Lock_policyE2EE10_M_destroyEv
	.type	_ZNSt23_Sp_counted_ptr_inplaceINSt13__future_base13_State_baseV2ESaIS1_ELN9__gnu_cxx12_Lock_policyE2EE10_M_destroyEv, @function
_ZNSt23_Sp_counted_ptr_inplaceINSt13__future_base13_State_baseV2ESaIS1_ELN9__gnu_cxx12_Lock_policyE2EE10_M_destroyEv:
.LFB9291:
	.cfi_startproc
	jmp	_ZdlPv@PLT
	.cfi_endproc
.LFE9291:
	.size	_ZNSt23_Sp_counted_ptr_inplaceINSt13__future_base13_State_baseV2ESaIS1_ELN9__gnu_cxx12_Lock_policyE2EE10_M_destroyEv, .-_ZNSt23_Sp_counted_ptr_inplaceINSt13__future_base13_State_baseV2ESaIS1_ELN9__gnu_cxx12_Lock_policyE2EE10_M_destroyEv
	.section	.text._ZNSt23_Sp_counted_ptr_inplaceINSt13__future_base13_State_baseV2ESaIS1_ELN9__gnu_cxx12_Lock_policyE2EE14_M_get_deleterERKSt9type_info,"axG",@progbits,_ZNSt23_Sp_counted_ptr_inplaceINSt13__future_base13_State_baseV2ESaIS1_ELN9__gnu_cxx12_Lock_policyE2EE14_M_get_deleterERKSt9type_info,comdat
	.align 2
	.p2align 4,,15
	.weak	_ZNSt23_Sp_counted_ptr_inplaceINSt13__future_base13_State_baseV2ESaIS1_ELN9__gnu_cxx12_Lock_policyE2EE14_M_get_deleterERKSt9type_info
	.type	_ZNSt23_Sp_counted_ptr_inplaceINSt13__future_base13_State_baseV2ESaIS1_ELN9__gnu_cxx12_Lock_policyE2EE14_M_get_deleterERKSt9type_info, @function
_ZNSt23_Sp_counted_ptr_inplaceINSt13__future_base13_State_baseV2ESaIS1_ELN9__gnu_cxx12_Lock_policyE2EE14_M_get_deleterERKSt9type_info:
.LFB9292:
	.cfi_startproc
	pushq	%rbx
	.cfi_def_cfa_offset 16
	.cfi_offset 3, -16
	movq	%rdi, %rbx
	movq	8(%rsi), %rdi
	movq	_ZTSSt19_Sp_make_shared_tag@GOTPCREL(%rip), %rsi
	cmpq	%rsi, %rdi
	je	.L60
	cmpb	$42, (%rdi)
	je	.L63
	call	strcmp@PLT
	testl	%eax, %eax
	jne	.L63
.L60:
	leaq	16(%rbx), %rax
	popq	%rbx
	.cfi_remember_state
	.cfi_def_cfa_offset 8
	ret
	.p2align 4,,10
	.p2align 3
.L63:
	.cfi_restore_state
	xorl	%eax, %eax
	popq	%rbx
	.cfi_def_cfa_offset 8
	ret
	.cfi_endproc
.LFE9292:
	.size	_ZNSt23_Sp_counted_ptr_inplaceINSt13__future_base13_State_baseV2ESaIS1_ELN9__gnu_cxx12_Lock_policyE2EE14_M_get_deleterERKSt9type_info, .-_ZNSt23_Sp_counted_ptr_inplaceINSt13__future_base13_State_baseV2ESaIS1_ELN9__gnu_cxx12_Lock_policyE2EE14_M_get_deleterERKSt9type_info
	.section	.text._ZNSt23_Sp_counted_ptr_inplaceIN7asiopal5TimerESaIS1_ELN9__gnu_cxx12_Lock_policyE2EE14_M_get_deleterERKSt9type_info,"axG",@progbits,_ZNSt23_Sp_counted_ptr_inplaceIN7asiopal5TimerESaIS1_ELN9__gnu_cxx12_Lock_policyE2EE14_M_get_deleterERKSt9type_info,comdat
	.align 2
	.p2align 4,,15
	.weak	_ZNSt23_Sp_counted_ptr_inplaceIN7asiopal5TimerESaIS1_ELN9__gnu_cxx12_Lock_policyE2EE14_M_get_deleterERKSt9type_info
	.type	_ZNSt23_Sp_counted_ptr_inplaceIN7asiopal5TimerESaIS1_ELN9__gnu_cxx12_Lock_policyE2EE14_M_get_deleterERKSt9type_info, @function
_ZNSt23_Sp_counted_ptr_inplaceIN7asiopal5TimerESaIS1_ELN9__gnu_cxx12_Lock_policyE2EE14_M_get_deleterERKSt9type_info:
.LFB9278:
	.cfi_startproc
	pushq	%rbx
	.cfi_def_cfa_offset 16
	.cfi_offset 3, -16
	movq	%rdi, %rbx
	movq	8(%rsi), %rdi
	movq	_ZTSSt19_Sp_make_shared_tag@GOTPCREL(%rip), %rsi
	cmpq	%rsi, %rdi
	je	.L66
	cmpb	$42, (%rdi)
	je	.L69
	call	strcmp@PLT
	testl	%eax, %eax
	jne	.L69
.L66:
	leaq	16(%rbx), %rax
	popq	%rbx
	.cfi_remember_state
	.cfi_def_cfa_offset 8
	ret
	.p2align 4,,10
	.p2align 3
.L69:
	.cfi_restore_state
	xorl	%eax, %eax
	popq	%rbx
	.cfi_def_cfa_offset 8
	ret
	.cfi_endproc
.LFE9278:
	.size	_ZNSt23_Sp_counted_ptr_inplaceIN7asiopal5TimerESaIS1_ELN9__gnu_cxx12_Lock_policyE2EE14_M_get_deleterERKSt9type_info, .-_ZNSt23_Sp_counted_ptr_inplaceIN7asiopal5TimerESaIS1_ELN9__gnu_cxx12_Lock_policyE2EE14_M_get_deleterERKSt9type_info
	.section	.text._ZNSt13__future_base7_ResultIbED2Ev,"axG",@progbits,_ZNSt13__future_base7_ResultIbED5Ev,comdat
	.align 2
	.p2align 4,,15
	.weak	_ZNSt13__future_base7_ResultIbED2Ev
	.type	_ZNSt13__future_base7_ResultIbED2Ev, @function
_ZNSt13__future_base7_ResultIbED2Ev:
.LFB9309:
	.cfi_startproc
	movq	_ZTVNSt13__future_base7_ResultIbEE@GOTPCREL(%rip), %rax
	addq	$16, %rax
	movq	%rax, (%rdi)
	jmp	_ZNSt13__future_base12_Result_baseD2Ev@PLT
	.cfi_endproc
.LFE9309:
	.size	_ZNSt13__future_base7_ResultIbED2Ev, .-_ZNSt13__future_base7_ResultIbED2Ev
	.weak	_ZNSt13__future_base7_ResultIbED1Ev
	.set	_ZNSt13__future_base7_ResultIbED1Ev,_ZNSt13__future_base7_ResultIbED2Ev
	.section	.text._ZNSt13__future_base7_ResultIbED0Ev,"axG",@progbits,_ZNSt13__future_base7_ResultIbED5Ev,comdat
	.align 2
	.p2align 4,,15
	.weak	_ZNSt13__future_base7_ResultIbED0Ev
	.type	_ZNSt13__future_base7_ResultIbED0Ev, @function
_ZNSt13__future_base7_ResultIbED0Ev:
.LFB9311:
	.cfi_startproc
	movq	_ZTVNSt13__future_base7_ResultIbEE@GOTPCREL(%rip), %rax
	pushq	%rbx
	.cfi_def_cfa_offset 16
	.cfi_offset 3, -16
	movq	%rdi, %rbx
	addq	$16, %rax
	movq	%rax, (%rdi)
	call	_ZNSt13__future_base12_Result_baseD2Ev@PLT
	movq	%rbx, %rdi
	movl	$24, %esi
	popq	%rbx
	.cfi_def_cfa_offset 8
	jmp	_ZdlPvm@PLT
	.cfi_endproc
.LFE9311:
	.size	_ZNSt13__future_base7_ResultIbED0Ev, .-_ZNSt13__future_base7_ResultIbED0Ev
	.text
	.align 2
	.p2align 4,,15
	.globl	_ZN7asiopal8Executor7GetTimeEv
	.type	_ZN7asiopal8Executor7GetTimeEv, @function
_ZN7asiopal8Executor7GetTimeEv:
.LFB6827:
	.cfi_startproc
	subq	$24, %rsp
	.cfi_def_cfa_offset 32
	movq	%fs:40, %rax
	movq	%rax, 8(%rsp)
	xorl	%eax, %eax
	call	_ZNSt6chrono3_V212steady_clock3nowEv@PLT
	movq	%rsp, %rdi
	movq	%rax, (%rsp)
	call	_ZN7asiopal15TimeConversions7ConvertERKNSt6chrono10time_pointINS1_3_V212steady_clockENS1_8durationIlSt5ratioILl1ELl1000000000EEEEEE@PLT
	movq	8(%rsp), %rdx
	xorq	%fs:40, %rdx
	jne	.L77
	addq	$24, %rsp
	.cfi_remember_state
	.cfi_def_cfa_offset 8
	ret
.L77:
	.cfi_restore_state
	call	__stack_chk_fail@PLT
	.cfi_endproc
.LFE6827:
	.size	_ZN7asiopal8Executor7GetTimeEv, .-_ZN7asiopal8Executor7GetTimeEv
	.section	.text._ZNSt13__future_base13_State_baseV29_M_do_setEPSt8functionIFSt10unique_ptrINS_12_Result_baseENS3_8_DeleterEEvEEPb,"axG",@progbits,_ZNSt13__future_base13_State_baseV29_M_do_setEPSt8functionIFSt10unique_ptrINS_12_Result_baseENS3_8_DeleterEEvEEPb,comdat
	.align 2
	.p2align 4,,15
	.weak	_ZNSt13__future_base13_State_baseV29_M_do_setEPSt8functionIFSt10unique_ptrINS_12_Result_baseENS3_8_DeleterEEvEEPb
	.type	_ZNSt13__future_base13_State_baseV29_M_do_setEPSt8functionIFSt10unique_ptrINS_12_Result_baseENS3_8_DeleterEEvEEPb, @function
_ZNSt13__future_base13_State_baseV29_M_do_setEPSt8functionIFSt10unique_ptrINS_12_Result_baseENS3_8_DeleterEEvEEPb:
.LFB6583:
	.cfi_startproc
	.cfi_personality 0x9b,DW.ref.__gxx_personality_v0
	.cfi_lsda 0x1b,.LLSDA6583
	pushq	%rbp
	.cfi_def_cfa_offset 16
	.cfi_offset 6, -16
	pushq	%rbx
	.cfi_def_cfa_offset 24
	.cfi_offset 3, -24
	subq	$24, %rsp
	.cfi_def_cfa_offset 48
	movq	%fs:40, %rcx
	movq	%rcx, 8(%rsp)
	xorl	%ecx, %ecx
	cmpq	$0, 16(%rsi)
	je	.L86
	movq	%rdi, %rbx
	movq	%rdx, %rbp
	movq	%rsp, %rdi
.LEHB0:
	call	*24(%rsi)
.LEHE0:
	movq	8(%rbx), %rdi
	movq	(%rsp), %rax
	movb	$1, 0(%rbp)
	testq	%rdi, %rdi
	movq	%rax, 8(%rbx)
	movq	%rdi, (%rsp)
	je	.L78
	movq	(%rdi), %rax
	call	*(%rax)
.L78:
	movq	8(%rsp), %rax
	xorq	%fs:40, %rax
	jne	.L87
	addq	$24, %rsp
	.cfi_remember_state
	.cfi_def_cfa_offset 24
	popq	%rbx
	.cfi_def_cfa_offset 16
	popq	%rbp
	.cfi_def_cfa_offset 8
	ret
.L86:
	.cfi_restore_state
.LEHB1:
	call	_ZSt25__throw_bad_function_callv@PLT
.LEHE1:
.L87:
	call	__stack_chk_fail@PLT
	.cfi_endproc
.LFE6583:
	.section	.gcc_except_table._ZNSt13__future_base13_State_baseV29_M_do_setEPSt8functionIFSt10unique_ptrINS_12_Result_baseENS3_8_DeleterEEvEEPb,"aG",@progbits,_ZNSt13__future_base13_State_baseV29_M_do_setEPSt8functionIFSt10unique_ptrINS_12_Result_baseENS3_8_DeleterEEvEEPb,comdat
.LLSDA6583:
	.byte	0xff
	.byte	0xff
	.byte	0x1
	.uleb128 .LLSDACSE6583-.LLSDACSB6583
.LLSDACSB6583:
	.uleb128 .LEHB0-.LFB6583
	.uleb128 .LEHE0-.LEHB0
	.uleb128 0
	.uleb128 0
	.uleb128 .LEHB1-.LFB6583
	.uleb128 .LEHE1-.LEHB1
	.uleb128 0
	.uleb128 0
.LLSDACSE6583:
	.section	.text._ZNSt13__future_base13_State_baseV29_M_do_setEPSt8functionIFSt10unique_ptrINS_12_Result_baseENS3_8_DeleterEEvEEPb,"axG",@progbits,_ZNSt13__future_base13_State_baseV29_M_do_setEPSt8functionIFSt10unique_ptrINS_12_Result_baseENS3_8_DeleterEEvEEPb,comdat
	.size	_ZNSt13__future_base13_State_baseV29_M_do_setEPSt8functionIFSt10unique_ptrINS_12_Result_baseENS3_8_DeleterEEvEEPb, .-_ZNSt13__future_base13_State_baseV29_M_do_setEPSt8functionIFSt10unique_ptrINS_12_Result_baseENS3_8_DeleterEEvEEPb
	.section	.text._ZNSt13__future_base7_ResultIbE10_M_destroyEv,"axG",@progbits,_ZNSt13__future_base7_ResultIbE10_M_destroyEv,comdat
	.align 2
	.p2align 4,,15
	.weak	_ZNSt13__future_base7_ResultIbE10_M_destroyEv
	.type	_ZNSt13__future_base7_ResultIbE10_M_destroyEv, @function
_ZNSt13__future_base7_ResultIbE10_M_destroyEv:
.LFB9307:
	.cfi_startproc
	movq	(%rdi), %rax
	movq	16(%rax), %rax
	cmpq	_ZNSt13__future_base7_ResultIbED0Ev@GOTPCREL(%rip), %rax
	jne	.L89
	movq	_ZTVNSt13__future_base7_ResultIbEE@GOTPCREL(%rip), %rax
	pushq	%rbx
	.cfi_def_cfa_offset 16
	.cfi_offset 3, -16
	movq	%rdi, %rbx
	addq	$16, %rax
	movq	%rax, (%rdi)
	call	_ZNSt13__future_base12_Result_baseD2Ev@PLT
	movq	%rbx, %rdi
	movl	$24, %esi
	popq	%rbx
	.cfi_restore 3
	.cfi_def_cfa_offset 8
	jmp	_ZdlPvm@PLT
	.p2align 4,,10
	.p2align 3
.L89:
	jmp	*%rax
	.cfi_endproc
.LFE9307:
	.size	_ZNSt13__future_base7_ResultIbE10_M_destroyEv, .-_ZNSt13__future_base7_ResultIbE10_M_destroyEv
	.section	.text._ZN4asio6detail14strand_serviceD0Ev,"axG",@progbits,_ZN4asio6detail14strand_serviceD5Ev,comdat
	.align 2
	.p2align 4,,15
	.weak	_ZN4asio6detail14strand_serviceD0Ev
	.type	_ZN4asio6detail14strand_serviceD0Ev, @function
_ZN4asio6detail14strand_serviceD0Ev:
.LFB9199:
	.cfi_startproc
	.cfi_personality 0x9b,DW.ref.__gxx_personality_v0
	.cfi_lsda 0x1b,.LLSDA9199
	pushq	%r15
	.cfi_def_cfa_offset 16
	.cfi_offset 15, -16
	pushq	%r14
	.cfi_def_cfa_offset 24
	.cfi_offset 14, -24
	pushq	%r13
	.cfi_def_cfa_offset 32
	.cfi_offset 13, -32
	pushq	%r12
	.cfi_def_cfa_offset 40
	.cfi_offset 12, -40
	leaq	80(%rdi), %r12
	pushq	%rbp
	.cfi_def_cfa_offset 48
	.cfi_offset 6, -48
	pushq	%rbx
	.cfi_def_cfa_offset 56
	.cfi_offset 3, -56
	leaq	1624(%rdi), %rbp
	movq	%rdi, %r13
	subq	$56, %rsp
	.cfi_def_cfa_offset 112
	movq	%fs:40, %rax
	movq	%rax, 40(%rsp)
	xorl	%eax, %eax
	movq	_ZTVN4asio6detail14strand_serviceE@GOTPCREL(%rip), %rax
	leaq	16(%rsp), %rbx
	addq	$16, %rax
	movq	%rax, (%rdi)
	.p2align 4,,10
	.p2align 3
.L103:
	movq	0(%rbp), %r15
	testq	%r15, %r15
	je	.L94
	movq	88(%r15), %rsi
	testq	%rsi, %rsi
	movq	%rsi, 8(%rsp)
	je	.L95
	call	_ZNSt3_V215system_categoryEv@PLT
	movq	8(%rsp), %rsi
	movq	%rax, %r14
	jmp	.L96
	.p2align 4,,10
	.p2align 3
.L97:
	movq	$0, (%rsi)
	movq	8(%rsi), %rax
	xorl	%ecx, %ecx
	xorl	%edi, %edi
	movl	$0, 16(%rsp)
	movq	%r14, 24(%rsp)
	movq	%rbx, %rdx
	call	*%rax
	movq	88(%r15), %rsi
	testq	%rsi, %rsi
	je	.L95
.L96:
	movq	(%rsi), %rax
	testq	%rax, %rax
	movq	%rax, 88(%r15)
	jne	.L97
	movq	$0, 96(%r15)
	jmp	.L97
	.p2align 4,,10
	.p2align 3
.L99:
	leaq	24(%r15), %rdi
	call	pthread_mutex_destroy@PLT
	movl	$104, %esi
	movq	%r15, %rdi
	call	_ZdlPvm@PLT
.L94:
	subq	$8, %rbp
	cmpq	%r12, %rbp
	jne	.L103
	leaq	48(%r13), %rdi
	call	pthread_mutex_destroy@PLT
	movl	$1640, %esi
	movq	%r13, %rdi
	call	_ZdlPvm@PLT
	movq	40(%rsp), %rax
	xorq	%fs:40, %rax
	jne	.L124
	addq	$56, %rsp
	.cfi_remember_state
	.cfi_def_cfa_offset 56
	popq	%rbx
	.cfi_def_cfa_offset 48
	popq	%rbp
	.cfi_def_cfa_offset 40
	popq	%r12
	.cfi_def_cfa_offset 32
	popq	%r13
	.cfi_def_cfa_offset 24
	popq	%r14
	.cfi_def_cfa_offset 16
	popq	%r15
	.cfi_def_cfa_offset 8
	ret
	.p2align 4,,10
	.p2align 3
.L95:
	.cfi_restore_state
	movq	72(%r15), %rsi
	testq	%rsi, %rsi
	movq	%rsi, 8(%rsp)
	je	.L99
	call	_ZNSt3_V215system_categoryEv@PLT
	movq	8(%rsp), %rsi
	movq	%rax, %r14
	jmp	.L100
	.p2align 4,,10
	.p2align 3
.L101:
	movq	$0, (%rsi)
	movq	8(%rsi), %rax
	xorl	%ecx, %ecx
	xorl	%edi, %edi
	movl	$0, 16(%rsp)
	movq	%r14, 24(%rsp)
	movq	%rbx, %rdx
	call	*%rax
	movq	72(%r15), %rsi
	testq	%rsi, %rsi
	je	.L99
.L100:
	movq	(%rsi), %rax
	testq	%rax, %rax
	movq	%rax, 72(%r15)
	jne	.L101
	movq	$0, 80(%r15)
	jmp	.L101
.L124:
	call	__stack_chk_fail@PLT
	.cfi_endproc
.LFE9199:
	.section	.gcc_except_table._ZN4asio6detail14strand_serviceD0Ev,"aG",@progbits,_ZN4asio6detail14strand_serviceD5Ev,comdat
.LLSDA9199:
	.byte	0xff
	.byte	0xff
	.byte	0x1
	.uleb128 .LLSDACSE9199-.LLSDACSB9199
.LLSDACSB9199:
.LLSDACSE9199:
	.section	.text._ZN4asio6detail14strand_serviceD0Ev,"axG",@progbits,_ZN4asio6detail14strand_serviceD5Ev,comdat
	.size	_ZN4asio6detail14strand_serviceD0Ev, .-_ZN4asio6detail14strand_serviceD0Ev
	.section	.text._ZN4asio6detail14strand_serviceD2Ev,"axG",@progbits,_ZN4asio6detail14strand_serviceD5Ev,comdat
	.align 2
	.p2align 4,,15
	.weak	_ZN4asio6detail14strand_serviceD2Ev
	.type	_ZN4asio6detail14strand_serviceD2Ev, @function
_ZN4asio6detail14strand_serviceD2Ev:
.LFB9197:
	.cfi_startproc
	.cfi_personality 0x9b,DW.ref.__gxx_personality_v0
	.cfi_lsda 0x1b,.LLSDA9197
	pushq	%r15
	.cfi_def_cfa_offset 16
	.cfi_offset 15, -16
	pushq	%r14
	.cfi_def_cfa_offset 24
	.cfi_offset 14, -24
	pushq	%r13
	.cfi_def_cfa_offset 32
	.cfi_offset 13, -32
	pushq	%r12
	.cfi_def_cfa_offset 40
	.cfi_offset 12, -40
	leaq	80(%rdi), %r13
	pushq	%rbp
	.cfi_def_cfa_offset 48
	.cfi_offset 6, -48
	pushq	%rbx
	.cfi_def_cfa_offset 56
	.cfi_offset 3, -56
	leaq	1624(%rdi), %rbp
	movq	%rdi, %r12
	subq	$56, %rsp
	.cfi_def_cfa_offset 112
	movq	%fs:40, %rax
	movq	%rax, 40(%rsp)
	xorl	%eax, %eax
	movq	_ZTVN4asio6detail14strand_serviceE@GOTPCREL(%rip), %rax
	leaq	16(%rsp), %rbx
	addq	$16, %rax
	movq	%rax, (%rdi)
	.p2align 4,,10
	.p2align 3
.L135:
	movq	0(%rbp), %r15
	testq	%r15, %r15
	je	.L126
	movq	88(%r15), %rsi
	testq	%rsi, %rsi
	movq	%rsi, 8(%rsp)
	je	.L127
	call	_ZNSt3_V215system_categoryEv@PLT
	movq	8(%rsp), %rsi
	movq	%rax, %r14
	jmp	.L128
	.p2align 4,,10
	.p2align 3
.L129:
	movq	$0, (%rsi)
	movq	8(%rsi), %rax
	xorl	%ecx, %ecx
	xorl	%edi, %edi
	movl	$0, 16(%rsp)
	movq	%r14, 24(%rsp)
	movq	%rbx, %rdx
	call	*%rax
	movq	88(%r15), %rsi
	testq	%rsi, %rsi
	je	.L127
.L128:
	movq	(%rsi), %rax
	testq	%rax, %rax
	movq	%rax, 88(%r15)
	jne	.L129
	movq	$0, 96(%r15)
	jmp	.L129
	.p2align 4,,10
	.p2align 3
.L131:
	leaq	24(%r15), %rdi
	call	pthread_mutex_destroy@PLT
	movl	$104, %esi
	movq	%r15, %rdi
	call	_ZdlPvm@PLT
.L126:
	subq	$8, %rbp
	cmpq	%r13, %rbp
	jne	.L135
	leaq	48(%r12), %rdi
	call	pthread_mutex_destroy@PLT
	movq	40(%rsp), %rax
	xorq	%fs:40, %rax
	jne	.L156
	addq	$56, %rsp
	.cfi_remember_state
	.cfi_def_cfa_offset 56
	popq	%rbx
	.cfi_def_cfa_offset 48
	popq	%rbp
	.cfi_def_cfa_offset 40
	popq	%r12
	.cfi_def_cfa_offset 32
	popq	%r13
	.cfi_def_cfa_offset 24
	popq	%r14
	.cfi_def_cfa_offset 16
	popq	%r15
	.cfi_def_cfa_offset 8
	ret
	.p2align 4,,10
	.p2align 3
.L127:
	.cfi_restore_state
	movq	72(%r15), %rsi
	testq	%rsi, %rsi
	movq	%rsi, 8(%rsp)
	je	.L131
	call	_ZNSt3_V215system_categoryEv@PLT
	movq	8(%rsp), %rsi
	movq	%rax, %r14
	jmp	.L132
	.p2align 4,,10
	.p2align 3
.L133:
	movq	$0, (%rsi)
	movq	8(%rsi), %rax
	xorl	%ecx, %ecx
	xorl	%edi, %edi
	movl	$0, 16(%rsp)
	movq	%r14, 24(%rsp)
	movq	%rbx, %rdx
	call	*%rax
	movq	72(%r15), %rsi
	testq	%rsi, %rsi
	je	.L131
.L132:
	movq	(%rsi), %rax
	testq	%rax, %rax
	movq	%rax, 72(%r15)
	jne	.L133
	movq	$0, 80(%r15)
	jmp	.L133
.L156:
	call	__stack_chk_fail@PLT
	.cfi_endproc
.LFE9197:
	.section	.gcc_except_table._ZN4asio6detail14strand_serviceD2Ev,"aG",@progbits,_ZN4asio6detail14strand_serviceD5Ev,comdat
.LLSDA9197:
	.byte	0xff
	.byte	0xff
	.byte	0x1
	.uleb128 .LLSDACSE9197-.LLSDACSB9197
.LLSDACSB9197:
.LLSDACSE9197:
	.section	.text._ZN4asio6detail14strand_serviceD2Ev,"axG",@progbits,_ZN4asio6detail14strand_serviceD5Ev,comdat
	.size	_ZN4asio6detail14strand_serviceD2Ev, .-_ZN4asio6detail14strand_serviceD2Ev
	.weak	_ZN4asio6detail14strand_serviceD1Ev
	.set	_ZN4asio6detail14strand_serviceD1Ev,_ZN4asio6detail14strand_serviceD2Ev
	.text
	.align 2
	.p2align 4,,15
	.type	_ZN4asio6detail13epoll_reactor12cancel_timerINS0_18chrono_time_traitsINSt6chrono3_V212steady_clockENS_11wait_traitsIS6_EEEEEEmRNS0_11timer_queueIT_EERNSC_14per_timer_dataEm.constprop.205, @function
_ZN4asio6detail13epoll_reactor12cancel_timerINS0_18chrono_time_traitsINSt6chrono3_V212steady_clockENS_11wait_traitsIS6_EEEEEEmRNS0_11timer_queueIT_EERNSC_14per_timer_dataEm.constprop.205:
.LFB9565:
	.cfi_startproc
	pushq	%r15
	.cfi_def_cfa_offset 16
	.cfi_offset 15, -16
	pushq	%r14
	.cfi_def_cfa_offset 24
	.cfi_offset 14, -24
	movq	%rdi, %rax
	pushq	%r13
	.cfi_def_cfa_offset 32
	.cfi_offset 13, -32
	pushq	%r12
	.cfi_def_cfa_offset 40
	.cfi_offset 12, -40
	addq	$48, %rax
	pushq	%rbp
	.cfi_def_cfa_offset 48
	.cfi_offset 6, -48
	pushq	%rbx
	.cfi_def_cfa_offset 56
	.cfi_offset 3, -56
	movq	%rdx, %r14
	subq	$72, %rsp
	.cfi_def_cfa_offset 128
	movq	%rdi, 16(%rsp)
	movq	%rax, %rdi
	movq	%rsi, 24(%rsp)
	movq	%fs:40, %rcx
	movq	%rcx, 56(%rsp)
	xorl	%ecx, %ecx
	movq	%rax, 8(%rsp)
	call	pthread_mutex_lock@PLT
	cmpq	$0, 32(%r14)
	je	.L245
.L158:
	movq	(%r14), %r15
	xorl	%r13d, %r13d
	xorl	%r12d, %r12d
	xorl	%ebx, %ebx
	jmp	.L167
	.p2align 4,,10
	.p2align 3
.L243:
	movq	_ZZN4asio15system_categoryEvE8instance@GOTPCREL(%rip), %rbp
.L162:
	movq	(%r14), %rdx
	xorl	%eax, %eax
	movl	$125, 24(%r15)
	movq	%rbp, 32(%r15)
	testq	%rdx, %rdx
	je	.L164
	movq	(%rdx), %rax
	testq	%rax, %rax
	movq	%rax, (%r14)
	je	.L246
.L165:
	movq	$0, (%rdx)
.L164:
	testq	%r13, %r13
	movq	$0, (%r15)
	je	.L196
	addq	$1, %rbx
	movq	%r15, 0(%r13)
	movq	%r15, %r13
	cmpq	$-1, %rbx
	je	.L247
.L197:
	movq	%rax, %r15
.L167:
	testq	%r15, %r15
	je	.L160
	movq	_ZGVZN4asio15system_categoryEvE8instance@GOTPCREL(%rip), %rbp
	movzbl	0(%rbp), %eax
	testb	%al, %al
	jne	.L243
	movq	%rbp, %rdi
	call	__cxa_guard_acquire@PLT
	testl	%eax, %eax
	je	.L243
	movq	%rbp, %rdi
	call	__cxa_guard_release@PLT
	movq	_ZZN4asio15system_categoryEvE8instance@GOTPCREL(%rip), %rbp
	movq	_ZN4asio6detail15system_categoryD1Ev@GOTPCREL(%rip), %rdi
	leaq	__dso_handle(%rip), %rdx
	movq	%rbp, %rsi
	call	__cxa_atexit@PLT
	jmp	.L162
	.p2align 4,,10
	.p2align 3
.L196:
	addq	$1, %rbx
	movq	%r15, %r12
	movq	%r15, %r13
	cmpq	$-1, %rbx
	jne	.L197
.L247:
	testq	%rax, %rax
	je	.L160
.L168:
	movq	8(%rsp), %rdi
	call	pthread_mutex_unlock@PLT
	movq	16(%rsp), %rax
	testq	%r12, %r12
	movq	40(%rax), %rbp
	je	.L157
	cmpb	$0, 40(%rbp)
	je	.L182
	.byte	0x66
	leaq	_ZN4asio6detail15keyword_tss_ptrINS0_10call_stackINS0_15task_io_serviceENS0_27task_io_service_thread_infoEE7contextEE6value_E@tlsgd(%rip), %rdi
	.value	0x6666
	rex64
	call	__tls_get_addr@PLT
	movq	(%rax), %rax
	testq	%rax, %rax
	jne	.L236
	jmp	.L182
	.p2align 4,,10
	.p2align 3
.L184:
	movq	16(%rax), %rax
	testq	%rax, %rax
	je	.L182
.L236:
	cmpq	(%rax), %rbp
	jne	.L184
	movq	8(%rax), %rax
	testq	%rax, %rax
	je	.L182
	movq	16(%rax), %rdx
	testq	%rdx, %rdx
	je	.L187
	movq	%r12, (%rdx)
.L188:
	movq	%r15, 16(%rax)
.L157:
	movq	56(%rsp), %rcx
	xorq	%fs:40, %rcx
	movq	%rbx, %rax
	jne	.L248
	addq	$72, %rsp
	.cfi_remember_state
	.cfi_def_cfa_offset 56
	popq	%rbx
	.cfi_def_cfa_offset 48
	popq	%rbp
	.cfi_def_cfa_offset 40
	popq	%r12
	.cfi_def_cfa_offset 32
	popq	%r13
	.cfi_def_cfa_offset 24
	popq	%r14
	.cfi_def_cfa_offset 16
	popq	%r15
	.cfi_def_cfa_offset 8
	ret
	.p2align 4,,10
	.p2align 3
.L246:
	.cfi_restore_state
	movq	$0, 8(%r14)
	jmp	.L165
	.p2align 4,,10
	.p2align 3
.L182:
	leaq	48(%rbp), %r13
	movq	%r13, %rdi
	call	pthread_mutex_lock@PLT
	movq	200(%rbp), %rax
	testq	%rax, %rax
	je	.L189
	movq	%r12, (%rax)
.L190:
	movq	136(%rbp), %rax
	movq	%r15, 200(%rbp)
	orq	$1, %rax
	cmpq	$1, %rax
	movq	%rax, 136(%rbp)
	jne	.L249
	cmpb	$0, 176(%rbp)
	jne	.L193
	movq	144(%rbp), %rax
	testq	%rax, %rax
	je	.L193
	leaq	88(%rax), %rdx
	movb	$1, 176(%rbp)
	movl	96(%rax), %edi
	leaq	44(%rsp), %rcx
	movl	$3, %esi
	movl	$-2147483639, 44(%rsp)
	movq	%rdx, 48(%rsp)
	movl	88(%rax), %edx
	call	epoll_ctl@PLT
.L193:
	movq	%r13, %rdi
	call	pthread_mutex_unlock@PLT
	jmp	.L157
	.p2align 4,,10
	.p2align 3
.L245:
	movq	24(%rsp), %rax
	cmpq	16(%rax), %r14
	je	.L158
	movq	8(%rsp), %rdi
	xorl	%ebx, %ebx
	call	pthread_mutex_unlock@PLT
	jmp	.L157
	.p2align 4,,10
	.p2align 3
.L249:
	movq	%r13, %rdi
	call	pthread_mutex_unlock@PLT
	leaq	88(%rbp), %rdi
	call	pthread_cond_signal@PLT
	jmp	.L157
	.p2align 4,,10
	.p2align 3
.L160:
	movq	24(%rsp), %rax
	movq	32(%rax), %rdi
	movq	24(%rax), %rax
	cmpq	%rax, %rdi
	je	.L170
	movq	16(%r14), %rdx
	movq	%rdi, %rsi
	subq	%rax, %rsi
	sarq	$4, %rsi
	cmpq	%rsi, %rdx
	jnb	.L170
	subq	$1, %rsi
	subq	$16, %rdi
	cmpq	%rsi, %rdx
	je	.L250
	movq	%rdx, %r10
	movq	%rsi, %r9
	movq	24(%rsp), %rcx
	salq	$4, %r10
	salq	$4, %r9
	addq	%rax, %r10
	addq	%rax, %r9
	testq	%rdx, %rdx
	movq	(%r10), %r11
	movq	8(%r10), %rbp
	movdqu	(%r9), %xmm0
	movups	%xmm0, (%r10)
	movq	%r11, (%r9)
	movq	%rbp, 8(%r9)
	movq	8(%r10), %r11
	movq	%rdx, 16(%r11)
	movq	%rsi, 16(%rbp)
	movq	%rdi, 32(%rcx)
	je	.L173
	leaq	-1(%rdx), %r9
	movq	(%r10), %rbp
	shrq	%r9
	movq	%r9, %rsi
	salq	$4, %rsi
	addq	%rax, %rsi
	cmpq	%rbp, (%rsi)
	jg	.L174
.L173:
	subq	%rax, %rdi
	leaq	1(%rdx,%rdx), %r9
	sarq	$4, %rdi
	cmpq	%rdi, %r9
	movq	%rdi, %r8
	jnb	.L170
	movq	(%r10), %rcx
	jmp	.L176
	.p2align 4,,10
	.p2align 3
.L251:
	leaq	16(%rax,%rsi), %rsi
	movq	(%rsi), %rbp
	cmpq	%r11, %rbp
	jg	.L199
	movq	%rbp, %r11
	movq	%rsi, %r10
.L175:
	movq	%rdx, %rsi
	salq	$4, %rsi
	addq	%rax, %rsi
	cmpq	%rcx, %r11
	jg	.L170
	movq	8(%rsi), %r9
	movdqu	(%r10), %xmm0
	movups	%xmm0, (%rsi)
	movq	%r9, 8(%r10)
	movq	%rcx, (%r10)
	movq	8(%rsi), %rsi
	movq	%rdx, 16(%rsi)
	movq	%rdi, 16(%r9)
	leaq	1(%rdi,%rdi), %r9
	movq	%rdi, %rdx
	cmpq	%r8, %r9
	jnb	.L170
.L176:
	movq	%r9, %rsi
	leaq	1(%r9), %rdi
	salq	$4, %rsi
	leaq	(%rax,%rsi), %r10
	cmpq	%r8, %rdi
	movq	(%r10), %r11
	jne	.L251
.L199:
	movq	%r9, %rdi
	jmp	.L175
.L250:
	movq	24(%rsp), %rax
	movq	%rdi, 32(%rax)
	.p2align 4,,10
	.p2align 3
.L170:
	movq	24(%rsp), %rcx
	movq	24(%r14), %rax
	cmpq	16(%rcx), %r14
	je	.L252
.L178:
	movq	32(%r14), %rdx
	testq	%rdx, %rdx
	je	.L179
	movq	%rax, 24(%rdx)
	movq	24(%r14), %rax
.L179:
	testq	%rax, %rax
	je	.L180
	movq	%rdx, 32(%rax)
.L180:
	movq	$0, 24(%r14)
	movq	$0, 32(%r14)
	movq	%r13, %r15
	jmp	.L168
	.p2align 4,,10
	.p2align 3
.L187:
	movq	%r12, 8(%rax)
	jmp	.L188
	.p2align 4,,10
	.p2align 3
.L189:
	movq	%r12, 192(%rbp)
	jmp	.L190
.L235:
	leaq	-1(%r9), %rcx
	movq	%r9, %r10
	salq	$4, %r10
	shrq	%rcx
	addq	%rax, %r10
	movq	%rcx, %rsi
	movq	(%r10), %rbp
	salq	$4, %rsi
	addq	%rax, %rsi
	cmpq	%rbp, (%rsi)
	jle	.L170
	movq	8(%r10), %r11
	movq	%r9, %rdx
	movq	%rcx, %r9
.L174:
	movdqu	(%rsi), %xmm0
	testq	%r9, %r9
	movups	%xmm0, (%r10)
	movq	%rbp, (%rsi)
	movq	%r11, 8(%rsi)
	movq	8(%r10), %rcx
	movq	%rdx, 16(%rcx)
	movq	%r9, 16(%r11)
	jne	.L235
	jmp	.L170
	.p2align 4,,10
	.p2align 3
.L252:
	movq	%rax, 16(%rcx)
	jmp	.L178
.L248:
	call	__stack_chk_fail@PLT
	.cfi_endproc
.LFE9565:
	.size	_ZN4asio6detail13epoll_reactor12cancel_timerINS0_18chrono_time_traitsINSt6chrono3_V212steady_clockENS_11wait_traitsIS6_EEEEEEmRNS0_11timer_queueIT_EERNSC_14per_timer_dataEm.constprop.205, .-_ZN4asio6detail13epoll_reactor12cancel_timerINS0_18chrono_time_traitsINSt6chrono3_V212steady_clockENS_11wait_traitsIS6_EEEEEEmRNS0_11timer_queueIT_EERNSC_14per_timer_dataEm.constprop.205
	.section	.text._ZNSt23_Sp_counted_ptr_inplaceIN7asiopal5TimerESaIS1_ELN9__gnu_cxx12_Lock_policyE2EE10_M_disposeEv,"axG",@progbits,_ZNSt23_Sp_counted_ptr_inplaceIN7asiopal5TimerESaIS1_ELN9__gnu_cxx12_Lock_policyE2EE10_M_disposeEv,comdat
	.align 2
	.p2align 4,,15
	.weak	_ZNSt23_Sp_counted_ptr_inplaceIN7asiopal5TimerESaIS1_ELN9__gnu_cxx12_Lock_policyE2EE10_M_disposeEv
	.type	_ZNSt23_Sp_counted_ptr_inplaceIN7asiopal5TimerESaIS1_ELN9__gnu_cxx12_Lock_policyE2EE10_M_disposeEv, @function
_ZNSt23_Sp_counted_ptr_inplaceIN7asiopal5TimerESaIS1_ELN9__gnu_cxx12_Lock_policyE2EE10_M_disposeEv:
.LFB9276:
	.cfi_startproc
	.cfi_personality 0x9b,DW.ref.__gxx_personality_v0
	.cfi_lsda 0x1b,.LLSDA9276
	pushq	%r12
	.cfi_def_cfa_offset 16
	.cfi_offset 12, -16
	pushq	%rbp
	.cfi_def_cfa_offset 24
	.cfi_offset 6, -24
	pushq	%rbx
	.cfi_def_cfa_offset 32
	.cfi_offset 3, -32
	movq	%rdi, %rbx
	subq	$32, %rsp
	.cfi_def_cfa_offset 64
	movq	24(%rdi), %r12
	movq	%fs:40, %rax
	movq	%rax, 24(%rsp)
	xorl	%eax, %eax
	movq	_ZTVN7asiopal5TimerE@GOTPCREL(%rip), %rax
	addq	$16, %rax
	movq	%rax, 16(%rdi)
	call	_ZNSt3_V215system_categoryEv@PLT
	cmpb	$0, 40(%rbx)
	movq	%rax, %rbp
	je	.L254
	movq	88(%r12), %rdi
	leaq	48(%rbx), %rdx
	leaq	40(%r12), %rsi
	call	_ZN4asio6detail13epoll_reactor12cancel_timerINS0_18chrono_time_traitsINSt6chrono3_V212steady_clockENS_11wait_traitsIS6_EEEEEEmRNS0_11timer_queueIT_EERNSC_14per_timer_dataEm.constprop.205
	movb	$0, 40(%rbx)
.L254:
	movq	48(%rbx), %rsi
	testq	%rsi, %rsi
	je	.L253
	movq	%rsp, %r12
	jmp	.L256
	.p2align 4,,10
	.p2align 3
.L257:
	movq	$0, (%rsi)
	movq	8(%rsi), %rax
	xorl	%ecx, %ecx
	xorl	%edi, %edi
	movl	$0, (%rsp)
	movq	%rbp, 8(%rsp)
	movq	%r12, %rdx
	call	*%rax
	movq	48(%rbx), %rsi
	testq	%rsi, %rsi
	je	.L253
.L256:
	movq	(%rsi), %rax
	testq	%rax, %rax
	movq	%rax, 48(%rbx)
	jne	.L257
	movq	$0, 56(%rbx)
	jmp	.L257
	.p2align 4,,10
	.p2align 3
.L253:
	movq	24(%rsp), %rax
	xorq	%fs:40, %rax
	jne	.L268
	addq	$32, %rsp
	.cfi_remember_state
	.cfi_def_cfa_offset 32
	popq	%rbx
	.cfi_def_cfa_offset 24
	popq	%rbp
	.cfi_def_cfa_offset 16
	popq	%r12
	.cfi_def_cfa_offset 8
	ret
.L268:
	.cfi_restore_state
	call	__stack_chk_fail@PLT
	.cfi_endproc
.LFE9276:
	.section	.gcc_except_table._ZNSt23_Sp_counted_ptr_inplaceIN7asiopal5TimerESaIS1_ELN9__gnu_cxx12_Lock_policyE2EE10_M_disposeEv,"aG",@progbits,_ZNSt23_Sp_counted_ptr_inplaceIN7asiopal5TimerESaIS1_ELN9__gnu_cxx12_Lock_policyE2EE10_M_disposeEv,comdat
.LLSDA9276:
	.byte	0xff
	.byte	0xff
	.byte	0x1
	.uleb128 .LLSDACSE9276-.LLSDACSB9276
.LLSDACSB9276:
.LLSDACSE9276:
	.section	.text._ZNSt23_Sp_counted_ptr_inplaceIN7asiopal5TimerESaIS1_ELN9__gnu_cxx12_Lock_policyE2EE10_M_disposeEv,"axG",@progbits,_ZNSt23_Sp_counted_ptr_inplaceIN7asiopal5TimerESaIS1_ELN9__gnu_cxx12_Lock_policyE2EE10_M_disposeEv,comdat
	.size	_ZNSt23_Sp_counted_ptr_inplaceIN7asiopal5TimerESaIS1_ELN9__gnu_cxx12_Lock_policyE2EE10_M_disposeEv, .-_ZNSt23_Sp_counted_ptr_inplaceIN7asiopal5TimerESaIS1_ELN9__gnu_cxx12_Lock_policyE2EE10_M_disposeEv
	.text
	.p2align 4,,15
	.type	_ZN4asio6detail18completion_handlerIZN7asiopal8Executor10BlockUntilERKSt8functionIFvvEEEUlvE_E11do_completeEPNS0_15task_io_serviceEPNS0_25task_io_service_operationERKSt10error_codem, @function
_ZN4asio6detail18completion_handlerIZN7asiopal8Executor10BlockUntilERKSt8functionIFvvEEEUlvE_E11do_completeEPNS0_15task_io_serviceEPNS0_25task_io_service_operationERKSt10error_codem:
.LFB8544:
	.cfi_startproc
	.cfi_personality 0x9b,DW.ref.__gxx_personality_v0
	.cfi_lsda 0x1b,.LLSDA8544
	pushq	%r13
	.cfi_def_cfa_offset 16
	.cfi_offset 13, -16
	pushq	%r12
	.cfi_def_cfa_offset 24
	.cfi_offset 12, -24
	movq	%rdi, %r13
	pushq	%rbp
	.cfi_def_cfa_offset 32
	.cfi_offset 6, -32
	pushq	%rbx
	.cfi_def_cfa_offset 40
	.cfi_offset 3, -40
	movq	%rsi, %rbx
	subq	$152, %rsp
	.cfi_def_cfa_offset 192
	movq	24(%rsi), %rbp
	movq	32(%rsi), %r12
	movq	%fs:40, %rax
	movq	%rax, 136(%rsp)
	xorl	%eax, %eax
	.byte	0x66
	leaq	_ZN4asio6detail15keyword_tss_ptrINS0_10call_stackINS0_15task_io_serviceENS0_27task_io_service_thread_infoEE7contextEE6value_E@tlsgd(%rip), %rdi
	.value	0x6666
	rex64
	call	__tls_get_addr@PLT
	movq	(%rax), %rax
	testq	%rax, %rax
	je	.L270
	movq	8(%rax), %rax
	testq	%rax, %rax
	je	.L270
	cmpq	$0, (%rax)
	je	.L302
.L270:
	movq	%rbx, %rdi
	call	_ZdlPv@PLT
.L271:
	testq	%r13, %r13
	je	.L269
	cmpq	$0, 16(%rbp)
	je	.L303
	movq	%rbp, %rdi
.LEHB2:
	call	*24(%rbp)
.LEHE2:
	movq	(%r12), %rbx
	movb	$1, 22(%rsp)
	testq	%rbx, %rbx
	je	.L304
	leaq	22(%rsp), %rax
	movq	_ZNSt14_Function_base13_Base_managerINSt13__future_base13_State_baseV27_SetterIbObEEE10_M_managerERSt9_Any_dataRKS7_St18_Manager_operation@GOTPCREL(%rip), %xmm0
	movhps	_ZNSt17_Function_handlerIFSt10unique_ptrINSt13__future_base12_Result_baseENS2_8_DeleterEEvENS1_13_State_baseV27_SetterIbObEEE9_M_invokeERKSt9_Any_data@GOTPCREL(%rip), %xmm0
	leaq	96(%rsp), %rbp
	movq	%r12, 96(%rsp)
	movq	%rax, 104(%rsp)
	leaq	23(%rsp), %rax
	movb	$0, 23(%rsp)
	movaps	%xmm0, 112(%rsp)
	movq	%rax, 40(%rsp)
	movq	_ZNSt13__future_base13_State_baseV29_M_do_setEPSt8functionIFSt10unique_ptrINS_12_Result_baseENS3_8_DeleterEEvEEPb@GOTPCREL(%rip), %rax
	movq	%rax, 48(%rsp)
	leaq	48(%rsp), %rax
	movq	%rbp, 32(%rsp)
	movq	%rbx, 24(%rsp)
	movq	$0, 56(%rsp)
	movq	%rax, 8(%rsp)
	leaq	24(%rsp), %rax
	movq	8(%rsp), %xmm0
	movq	%rax, 8(%rsp)
	leaq	32(%rsp), %rax
	movhps	8(%rsp), %xmm0
	movq	%rax, 8(%rsp)
	leaq	40(%rsp), %rax
	movaps	%xmm0, 64(%rsp)
	movq	8(%rsp), %xmm0
	movq	%rax, 8(%rsp)
	movhps	8(%rsp), %xmm0
	movaps	%xmm0, 80(%rsp)
	.byte	0x66
	leaq	_ZSt15__once_callable@tlsgd(%rip), %rdi
	.value	0x6666
	rex64
	call	__tls_get_addr@PLT
	leaq	64(%rsp), %rdx
	movq	%rdx, (%rax)
	.byte	0x66
	leaq	_ZSt11__once_call@tlsgd(%rip), %rdi
	.value	0x6666
	rex64
	call	__tls_get_addr@PLT
	cmpq	$0, _ZL28__gthrw___pthread_key_createPjPFvPvE@GOTPCREL(%rip)
	movq	_ZZSt9call_onceIMNSt13__future_base13_State_baseV2EFvPSt8functionIFSt10unique_ptrINS0_12_Result_baseENS4_8_DeleterEEvEEPbEJPS1_S9_SA_EEvRSt9once_flagOT_DpOT0_ENUlvE0_4_FUNEv@GOTPCREL(%rip), %rdx
	leaq	24(%rbx), %rdi
	movq	%rdx, (%rax)
	je	.L286
	movq	__once_proxy@GOTPCREL(%rip), %rsi
.LEHB3:
	call	_ZL20__gthrw_pthread_oncePiPFvvE@PLT
	testl	%eax, %eax
	jne	.L275
	cmpb	$0, 23(%rsp)
	jne	.L305
	movl	$2, %edi
	call	_ZSt20__throw_future_errori@PLT
	.p2align 4,,10
	.p2align 3
.L305:
	leaq	16(%rbx), %rdi
	movl	$1, %eax
	xchgl	(%rdi), %eax
	testl	%eax, %eax
	jns	.L281
	call	_ZNSt28__atomic_futex_unsigned_base19_M_futex_notify_allEPj@PLT
.LEHE3:
.L281:
	movq	112(%rsp), %rax
	testq	%rax, %rax
	je	.L280
	movl	$3, %edx
	movq	%rbp, %rsi
	movq	%rbp, %rdi
	call	*%rax
.L280:
	sfence
.L269:
	movq	136(%rsp), %rax
	xorq	%fs:40, %rax
	jne	.L306
	addq	$152, %rsp
	.cfi_remember_state
	.cfi_def_cfa_offset 40
	popq	%rbx
	.cfi_def_cfa_offset 32
	popq	%rbp
	.cfi_def_cfa_offset 24
	popq	%r12
	.cfi_def_cfa_offset 16
	popq	%r13
	.cfi_def_cfa_offset 8
	ret
	.p2align 4,,10
	.p2align 3
.L302:
	.cfi_restore_state
	movzbl	40(%rbx), %edx
	movb	%dl, (%rbx)
	movq	%rbx, (%rax)
	jmp	.L271
.L288:
	movq	%rax, %rbx
	movq	112(%rsp), %rax
	testq	%rax, %rax
	je	.L283
	movl	$3, %edx
	movq	%rbp, %rsi
	movq	%rbp, %rdi
	call	*%rax
.L283:
	movq	%rbx, %rax
.L284:
	movq	%rax, %rdi
	sfence
.LEHB4:
	call	_Unwind_Resume@PLT
.LEHE4:
.L286:
	orl	$-1, %eax
.L275:
	movl	%eax, %edi
.LEHB5:
	call	_ZSt20__throw_system_errori@PLT
.LEHE5:
.L303:
.LEHB6:
	call	_ZSt25__throw_bad_function_callv@PLT
.L287:
	jmp	.L284
.L304:
	movl	$3, %edi
	call	_ZSt20__throw_future_errori@PLT
.LEHE6:
.L306:
	call	__stack_chk_fail@PLT
	.cfi_endproc
.LFE8544:
	.section	.gcc_except_table,"a",@progbits
.LLSDA8544:
	.byte	0xff
	.byte	0xff
	.byte	0x1
	.uleb128 .LLSDACSE8544-.LLSDACSB8544
.LLSDACSB8544:
	.uleb128 .LEHB2-.LFB8544
	.uleb128 .LEHE2-.LEHB2
	.uleb128 .L287-.LFB8544
	.uleb128 0
	.uleb128 .LEHB3-.LFB8544
	.uleb128 .LEHE3-.LEHB3
	.uleb128 .L288-.LFB8544
	.uleb128 0
	.uleb128 .LEHB4-.LFB8544
	.uleb128 .LEHE4-.LEHB4
	.uleb128 0
	.uleb128 0
	.uleb128 .LEHB5-.LFB8544
	.uleb128 .LEHE5-.LEHB5
	.uleb128 .L288-.LFB8544
	.uleb128 0
	.uleb128 .LEHB6-.LFB8544
	.uleb128 .LEHE6-.LEHB6
	.uleb128 .L287-.LFB8544
	.uleb128 0
.LLSDACSE8544:
	.text
	.size	_ZN4asio6detail18completion_handlerIZN7asiopal8Executor10BlockUntilERKSt8functionIFvvEEEUlvE_E11do_completeEPNS0_15task_io_serviceEPNS0_25task_io_service_operationERKSt10error_codem, .-_ZN4asio6detail18completion_handlerIZN7asiopal8Executor10BlockUntilERKSt8functionIFvvEEEUlvE_E11do_completeEPNS0_15task_io_serviceEPNS0_25task_io_service_operationERKSt10error_codem
	.section	.text._ZN4asio6detail14strand_service16shutdown_serviceEv,"axG",@progbits,_ZN4asio6detail14strand_service16shutdown_serviceEv,comdat
	.align 2
	.p2align 4,,15
	.weak	_ZN4asio6detail14strand_service16shutdown_serviceEv
	.type	_ZN4asio6detail14strand_service16shutdown_serviceEv, @function
_ZN4asio6detail14strand_service16shutdown_serviceEv:
.LFB6307:
	.cfi_startproc
	.cfi_personality 0x9b,DW.ref.__gxx_personality_v0
	.cfi_lsda 0x1b,.LLSDA6307
	pushq	%r12
	.cfi_def_cfa_offset 16
	.cfi_offset 12, -16
	pushq	%rbp
	.cfi_def_cfa_offset 24
	.cfi_offset 6, -24
	leaq	48(%rdi), %rbp
	pushq	%rbx
	.cfi_def_cfa_offset 32
	.cfi_offset 3, -32
	movq	%rdi, %rbx
	movq	%rbp, %rdi
	subq	$48, %rsp
	.cfi_def_cfa_offset 80
	movq	%fs:40, %rax
	movq	%rax, 40(%rsp)
	xorl	%eax, %eax
	call	pthread_mutex_lock@PLT
	leaq	88(%rbx), %rdx
	leaq	1632(%rbx), %r8
	xorl	%ecx, %ecx
	xorl	%esi, %esi
	jmp	.L312
	.p2align 4,,10
	.p2align 3
.L334:
	movq	%rdi, (%rcx)
.L310:
	movq	80(%rax), %rcx
	movq	$0, 72(%rax)
	movq	$0, 80(%rax)
.L309:
	movq	88(%rax), %rdi
	testq	%rdi, %rdi
	je	.L308
	testq	%rcx, %rcx
	je	.L317
	movq	%rdi, (%rcx)
.L311:
	movq	96(%rax), %rcx
	movq	$0, 88(%rax)
	movq	$0, 96(%rax)
.L308:
	addq	$8, %rdx
	cmpq	%r8, %rdx
	je	.L333
.L312:
	movq	(%rdx), %rax
	testq	%rax, %rax
	je	.L308
	movq	72(%rax), %rdi
	testq	%rdi, %rdi
	je	.L309
	testq	%rcx, %rcx
	jne	.L334
	movq	%rdi, %rsi
	jmp	.L310
	.p2align 4,,10
	.p2align 3
.L317:
	movq	%rdi, %rsi
	jmp	.L311
	.p2align 4,,10
	.p2align 3
.L333:
	movq	%rbp, %rdi
	movq	%rsi, 8(%rsp)
	call	pthread_mutex_unlock@PLT
	movq	8(%rsp), %rsi
	testq	%rsi, %rsi
	je	.L307
	call	_ZNSt3_V215system_categoryEv@PLT
	movq	8(%rsp), %rsi
	leaq	16(%rsp), %rbp
	movq	%rax, %r12
	.p2align 4,,10
	.p2align 3
.L314:
	movq	(%rsi), %rbx
	movq	8(%rsi), %rax
	xorl	%ecx, %ecx
	movq	$0, (%rsi)
	xorl	%edi, %edi
	movl	$0, 16(%rsp)
	movq	%r12, 24(%rsp)
	movq	%rbp, %rdx
	call	*%rax
	testq	%rbx, %rbx
	movq	%rbx, %rsi
	jne	.L314
.L307:
	movq	40(%rsp), %rax
	xorq	%fs:40, %rax
	jne	.L335
	addq	$48, %rsp
	.cfi_remember_state
	.cfi_def_cfa_offset 32
	popq	%rbx
	.cfi_def_cfa_offset 24
	popq	%rbp
	.cfi_def_cfa_offset 16
	popq	%r12
	.cfi_def_cfa_offset 8
	ret
.L335:
	.cfi_restore_state
	call	__stack_chk_fail@PLT
	.cfi_endproc
.LFE6307:
	.section	.gcc_except_table
.LLSDA6307:
	.byte	0xff
	.byte	0xff
	.byte	0x1
	.uleb128 .LLSDACSE6307-.LLSDACSB6307
.LLSDACSB6307:
.LLSDACSE6307:
	.section	.text._ZN4asio6detail14strand_service16shutdown_serviceEv,"axG",@progbits,_ZN4asio6detail14strand_service16shutdown_serviceEv,comdat
	.size	_ZN4asio6detail14strand_service16shutdown_serviceEv, .-_ZN4asio6detail14strand_service16shutdown_serviceEv
	.section	.text._ZN7asiopal8ExecutorD0Ev,"axG",@progbits,_ZN7asiopal8ExecutorD5Ev,comdat
	.align 2
	.p2align 4,,15
	.weak	_ZN7asiopal8ExecutorD0Ev
	.type	_ZN7asiopal8ExecutorD0Ev, @function
_ZN7asiopal8ExecutorD0Ev:
.LFB9187:
	.cfi_startproc
	pushq	%rbp
	.cfi_def_cfa_offset 16
	.cfi_offset 6, -16
	pushq	%rbx
	.cfi_def_cfa_offset 24
	.cfi_offset 3, -24
	movq	%rdi, %rbx
	subq	$8, %rsp
	.cfi_def_cfa_offset 32
	movq	_ZTVN7asiopal8ExecutorE@GOTPCREL(%rip), %rax
	movq	32(%rdi), %rbp
	addq	$16, %rax
	testq	%rbp, %rbp
	movq	%rax, (%rdi)
	je	.L338
	cmpq	$0, _ZL28__gthrw___pthread_key_createPjPFvPvE@GOTPCREL(%rip)
	je	.L339
	lock subl	$1, 8(%rbp)
	je	.L350
.L338:
	movq	16(%rbx), %rdi
	testq	%rdi, %rdi
	je	.L344
	cmpq	$0, _ZL28__gthrw___pthread_key_createPjPFvPvE@GOTPCREL(%rip)
	je	.L345
	movl	$-1, %eax
	lock xaddl	%eax, 12(%rdi)
	cmpl	$1, %eax
	je	.L351
.L344:
	addq	$8, %rsp
	.cfi_remember_state
	.cfi_def_cfa_offset 24
	movq	%rbx, %rdi
	movl	$56, %esi
	popq	%rbx
	.cfi_def_cfa_offset 16
	popq	%rbp
	.cfi_def_cfa_offset 8
	jmp	_ZdlPvm@PLT
	.p2align 4,,10
	.p2align 3
.L345:
	.cfi_restore_state
	movl	12(%rdi), %eax
	leal	-1(%rax), %edx
	cmpl	$1, %eax
	movl	%edx, 12(%rdi)
	jne	.L344
.L351:
	movq	(%rdi), %rax
	call	*24(%rax)
	jmp	.L344
	.p2align 4,,10
	.p2align 3
.L339:
	movl	8(%rbp), %eax
	leal	-1(%rax), %edx
	cmpl	$1, %eax
	movl	%edx, 8(%rbp)
	jne	.L338
	movq	0(%rbp), %rax
	movq	%rbp, %rdi
	call	*16(%rax)
	movl	12(%rbp), %eax
	leal	-1(%rax), %edx
	movl	%edx, 12(%rbp)
	jmp	.L348
	.p2align 4,,10
	.p2align 3
.L350:
	movq	0(%rbp), %rax
	movq	%rbp, %rdi
	call	*16(%rax)
	movl	$-1, %eax
	lock xaddl	%eax, 12(%rbp)
.L348:
	cmpl	$1, %eax
	jne	.L338
	movq	0(%rbp), %rax
	movq	%rbp, %rdi
	call	*24(%rax)
	jmp	.L338
	.cfi_endproc
.LFE9187:
	.size	_ZN7asiopal8ExecutorD0Ev, .-_ZN7asiopal8ExecutorD0Ev
	.section	.text._ZN7asiopal8ExecutorD2Ev,"axG",@progbits,_ZN7asiopal8ExecutorD5Ev,comdat
	.align 2
	.p2align 4,,15
	.weak	_ZN7asiopal8ExecutorD2Ev
	.type	_ZN7asiopal8ExecutorD2Ev, @function
_ZN7asiopal8ExecutorD2Ev:
.LFB9185:
	.cfi_startproc
	pushq	%rbp
	.cfi_def_cfa_offset 16
	.cfi_offset 6, -16
	pushq	%rbx
	.cfi_def_cfa_offset 24
	.cfi_offset 3, -24
	movq	%rdi, %rbp
	subq	$8, %rsp
	.cfi_def_cfa_offset 32
	movq	_ZTVN7asiopal8ExecutorE@GOTPCREL(%rip), %rax
	movq	32(%rdi), %rbx
	addq	$16, %rax
	testq	%rbx, %rbx
	movq	%rax, (%rdi)
	je	.L354
	cmpq	$0, _ZL28__gthrw___pthread_key_createPjPFvPvE@GOTPCREL(%rip)
	je	.L355
	lock subl	$1, 8(%rbx)
	je	.L366
.L354:
	movq	16(%rbp), %rdi
	testq	%rdi, %rdi
	je	.L352
	cmpq	$0, _ZL28__gthrw___pthread_key_createPjPFvPvE@GOTPCREL(%rip)
	je	.L361
	movl	$-1, %eax
	lock xaddl	%eax, 12(%rdi)
	cmpl	$1, %eax
	je	.L367
.L352:
	addq	$8, %rsp
	.cfi_remember_state
	.cfi_def_cfa_offset 24
	popq	%rbx
	.cfi_def_cfa_offset 16
	popq	%rbp
	.cfi_def_cfa_offset 8
	ret
	.p2align 4,,10
	.p2align 3
.L361:
	.cfi_restore_state
	movl	12(%rdi), %eax
	leal	-1(%rax), %edx
	cmpl	$1, %eax
	movl	%edx, 12(%rdi)
	jne	.L352
.L367:
	movq	(%rdi), %rax
	movq	24(%rax), %rax
	addq	$8, %rsp
	.cfi_remember_state
	.cfi_def_cfa_offset 24
	popq	%rbx
	.cfi_def_cfa_offset 16
	popq	%rbp
	.cfi_def_cfa_offset 8
	jmp	*%rax
	.p2align 4,,10
	.p2align 3
.L355:
	.cfi_restore_state
	movl	8(%rbx), %eax
	leal	-1(%rax), %edx
	cmpl	$1, %eax
	movl	%edx, 8(%rbx)
	jne	.L354
	movq	(%rbx), %rax
	movq	%rbx, %rdi
	call	*16(%rax)
	movl	12(%rbx), %eax
	leal	-1(%rax), %edx
	movl	%edx, 12(%rbx)
	jmp	.L364
	.p2align 4,,10
	.p2align 3
.L366:
	movq	(%rbx), %rax
	movq	%rbx, %rdi
	call	*16(%rax)
	movl	$-1, %eax
	lock xaddl	%eax, 12(%rbx)
.L364:
	cmpl	$1, %eax
	jne	.L354
	movq	(%rbx), %rax
	movq	%rbx, %rdi
	call	*24(%rax)
	jmp	.L354
	.cfi_endproc
.LFE9185:
	.size	_ZN7asiopal8ExecutorD2Ev, .-_ZN7asiopal8ExecutorD2Ev
	.weak	_ZN7asiopal8ExecutorD1Ev
	.set	_ZN7asiopal8ExecutorD1Ev,_ZN7asiopal8ExecutorD2Ev
	.section	.text.unlikely,"ax",@progbits
	.align 2
	.type	_ZZN7asiopal8Executor4PostERKSt8functionIFvvEEENUlvE_D2Ev, @function
_ZZN7asiopal8Executor4PostERKSt8functionIFvvEEENUlvE_D2Ev:
.LFB6882:
	.cfi_startproc
	.cfi_personality 0x9b,DW.ref.__gxx_personality_v0
	.cfi_lsda 0x1b,.LLSDA6882
	pushq	%rbp
	.cfi_def_cfa_offset 16
	.cfi_offset 6, -16
	pushq	%rbx
	.cfi_def_cfa_offset 24
	.cfi_offset 3, -24
	movq	%rdi, %rbp
	subq	$8, %rsp
	.cfi_def_cfa_offset 32
	movq	40(%rdi), %rbx
	testq	%rbx, %rbx
	je	.L370
	cmpq	$0, _ZL28__gthrw___pthread_key_createPjPFvPvE@GOTPCREL(%rip)
	je	.L371
	lock decl	8(%rbx)
	jne	.L370
	jmp	.L378
.L371:
	movl	8(%rbx), %eax
	leal	-1(%rax), %edx
	decl	%eax
	movl	%edx, 8(%rbx)
	jne	.L370
	jmp	.L379
.L378:
	movq	(%rbx), %rax
	movq	%rbx, %rdi
	call	*16(%rax)
	orl	$-1, %eax
	lock xaddl	%eax, 12(%rbx)
.L376:
	decl	%eax
	jne	.L370
	movq	(%rbx), %rax
	movq	%rbx, %rdi
	call	*24(%rax)
.L370:
	movq	16(%rbp), %rax
	testq	%rax, %rax
	je	.L368
	popq	%rcx
	.cfi_remember_state
	.cfi_def_cfa_offset 24
	movq	%rbp, %rsi
	movq	%rbp, %rdi
	movl	$3, %edx
	popq	%rbx
	.cfi_def_cfa_offset 16
	popq	%rbp
	.cfi_def_cfa_offset 8
	jmp	*%rax
.L379:
	.cfi_restore_state
	movq	(%rbx), %rax
	movq	%rbx, %rdi
	call	*16(%rax)
	movl	12(%rbx), %eax
	leal	-1(%rax), %edx
	movl	%edx, 12(%rbx)
	jmp	.L376
.L368:
	popq	%rax
	.cfi_def_cfa_offset 24
	popq	%rbx
	.cfi_def_cfa_offset 16
	popq	%rbp
	.cfi_def_cfa_offset 8
	ret
	.cfi_endproc
.LFE6882:
	.section	.gcc_except_table
.LLSDA6882:
	.byte	0xff
	.byte	0xff
	.byte	0x1
	.uleb128 .LLSDACSE6882-.LLSDACSB6882
.LLSDACSB6882:
.LLSDACSE6882:
	.section	.text.unlikely
	.size	_ZZN7asiopal8Executor4PostERKSt8functionIFvvEEENUlvE_D2Ev, .-_ZZN7asiopal8Executor4PostERKSt8functionIFvvEEENUlvE_D2Ev
	.set	_ZZN7asiopal8Executor4PostERKSt8functionIFvvEEENUlvE_D1Ev,_ZZN7asiopal8Executor4PostERKSt8functionIFvvEEENUlvE_D2Ev
	.section	.rodata._ZNK4asio6detail15system_category7messageB5cxx11Ei.str1.8,"aMS",@progbits,1
	.align 8
.LC4:
	.string	"basic_string::_M_construct null not valid"
	.section	.text._ZNK4asio6detail15system_category7messageB5cxx11Ei,"axG",@progbits,_ZNK4asio6detail15system_category7messageB5cxx11Ei,comdat
	.align 2
	.p2align 4,,15
	.weak	_ZNK4asio6detail15system_category7messageB5cxx11Ei
	.type	_ZNK4asio6detail15system_category7messageB5cxx11Ei, @function
_ZNK4asio6detail15system_category7messageB5cxx11Ei:
.LFB2306:
	.cfi_startproc
	pushq	%r13
	.cfi_def_cfa_offset 16
	.cfi_offset 13, -16
	pushq	%r12
	.cfi_def_cfa_offset 24
	.cfi_offset 12, -24
	pushq	%rbp
	.cfi_def_cfa_offset 32
	.cfi_offset 6, -32
	pushq	%rbx
	.cfi_def_cfa_offset 40
	.cfi_offset 3, -40
	leaq	16(%rdi), %rbp
	movq	%rdi, %rbx
	subq	$296, %rsp
	.cfi_def_cfa_offset 336
	movq	%fs:40, %rax
	movq	%rax, 280(%rsp)
	xorl	%eax, %eax
	cmpl	$125, %edx
	je	.L395
	pxor	%xmm0, %xmm0
	leaq	32(%rsp), %rdi
	movl	%edx, %r8d
	xorl	%eax, %eax
	movl	$30, %ecx
	leaq	16(%rsp), %rsi
	rep stosq
	movl	$256, %edx
	movl	%r8d, %edi
	movaps	%xmm0, 16(%rsp)
	call	strerror_r@PLT
	testq	%rax, %rax
	movq	%rax, %r12
	movq	%rbp, (%rbx)
	je	.L383
	movq	%rax, %rdi
	call	strlen@PLT
	cmpq	$15, %rax
	movq	%rax, %r13
	movq	%rax, 8(%rsp)
	ja	.L396
	cmpq	$1, %rax
	jne	.L387
	movzbl	(%r12), %edx
	movb	%dl, 16(%rbx)
.L388:
	movq	%rax, 8(%rbx)
	movb	$0, 0(%rbp,%rax)
.L380:
	movq	280(%rsp), %rcx
	xorq	%fs:40, %rcx
	movq	%rbx, %rax
	jne	.L397
	addq	$296, %rsp
	.cfi_remember_state
	.cfi_def_cfa_offset 40
	popq	%rbx
	.cfi_def_cfa_offset 32
	popq	%rbp
	.cfi_def_cfa_offset 24
	popq	%r12
	.cfi_def_cfa_offset 16
	popq	%r13
	.cfi_def_cfa_offset 8
	ret
	.p2align 4,,10
	.p2align 3
.L396:
	.cfi_restore_state
	leaq	8(%rsp), %rsi
	xorl	%edx, %edx
	movq	%rbx, %rdi
	call	_ZNSt7__cxx1112basic_stringIcSt11char_traitsIcESaIcEE9_M_createERmm@PLT
	movq	%rax, %rbp
	movq	%rax, (%rbx)
	movq	8(%rsp), %rax
	movq	%rax, 16(%rbx)
.L386:
	movq	%rbp, %rdi
	movq	%r13, %rdx
	movq	%r12, %rsi
	call	memcpy@PLT
	movq	8(%rsp), %rax
	movq	(%rbx), %rbp
	jmp	.L388
	.p2align 4,,10
	.p2align 3
.L395:
	leaq	8(%rsp), %rsi
	xorl	%edx, %edx
	movq	%rbp, (%rdi)
	movq	$18, 8(%rsp)
	call	_ZNSt7__cxx1112basic_stringIcSt11char_traitsIcESaIcEE9_M_createERmm@PLT
	movq	8(%rsp), %rdx
	movq	%rax, (%rbx)
	movdqa	.LC5(%rip), %xmm0
	movq	%rdx, 16(%rbx)
	movl	$11876, %edx
	movups	%xmm0, (%rax)
	movw	%dx, 16(%rax)
	movq	8(%rsp), %rax
	movq	(%rbx), %rdx
	movq	%rax, 8(%rbx)
	movb	$0, (%rdx,%rax)
	jmp	.L380
	.p2align 4,,10
	.p2align 3
.L387:
	testq	%rax, %rax
	je	.L388
	jmp	.L386
.L397:
	call	__stack_chk_fail@PLT
.L383:
	leaq	.LC4(%rip), %rdi
	call	_ZSt19__throw_logic_errorPKc@PLT
	.cfi_endproc
.LFE2306:
	.size	_ZNK4asio6detail15system_category7messageB5cxx11Ei, .-_ZNK4asio6detail15system_category7messageB5cxx11Ei
	.section	.text._ZNK4asio5error6detail17addrinfo_category7messageB5cxx11Ei,"axG",@progbits,_ZNK4asio5error6detail17addrinfo_category7messageB5cxx11Ei,comdat
	.align 2
	.p2align 4,,15
	.weak	_ZNK4asio5error6detail17addrinfo_category7messageB5cxx11Ei
	.type	_ZNK4asio5error6detail17addrinfo_category7messageB5cxx11Ei, @function
_ZNK4asio5error6detail17addrinfo_category7messageB5cxx11Ei:
.LFB2352:
	.cfi_startproc
	pushq	%rbx
	.cfi_def_cfa_offset 16
	.cfi_offset 3, -16
	movq	%rdi, %rbx
	subq	$16, %rsp
	.cfi_def_cfa_offset 32
	movq	%fs:40, %rax
	movq	%rax, 8(%rsp)
	xorl	%eax, %eax
	leaq	16(%rdi), %rax
	cmpl	$-8, %edx
	movq	%rax, (%rdi)
	je	.L404
	cmpl	$-7, %edx
	je	.L405
	xorl	%edx, %edx
	movq	%rsp, %rsi
	movq	$19, (%rsp)
	call	_ZNSt7__cxx1112basic_stringIcSt11char_traitsIcESaIcEE9_M_createERmm@PLT
	movq	(%rsp), %rdx
	movq	%rax, (%rbx)
	movdqa	.LC8(%rip), %xmm0
	movq	%rdx, 16(%rbx)
	movl	$28530, %edx
	movb	$114, 18(%rax)
	movups	%xmm0, (%rax)
	movw	%dx, 16(%rax)
	movq	(%rsp), %rax
	movq	(%rbx), %rdx
	movq	%rax, 8(%rbx)
	movb	$0, (%rdx,%rax)
.L398:
	movq	8(%rsp), %rcx
	xorq	%fs:40, %rcx
	movq	%rbx, %rax
	jne	.L406
	addq	$16, %rsp
	.cfi_remember_state
	.cfi_def_cfa_offset 16
	popq	%rbx
	.cfi_def_cfa_offset 8
	ret
	.p2align 4,,10
	.p2align 3
.L405:
	.cfi_restore_state
	xorl	%edx, %edx
	movq	%rsp, %rsi
	movq	$25, (%rsp)
	call	_ZNSt7__cxx1112basic_stringIcSt11char_traitsIcESaIcEE9_M_createERmm@PLT
	movq	(%rsp), %rdx
	movabsq	$7310593918082512243, %rcx
	movq	%rax, (%rbx)
	movdqa	.LC7(%rip), %xmm0
	movq	%rdx, 16(%rbx)
	movq	%rcx, 16(%rax)
	movups	%xmm0, (%rax)
	movb	$100, 24(%rax)
	movq	(%rsp), %rax
	movq	(%rbx), %rdx
	movq	%rax, 8(%rbx)
	movb	$0, (%rdx,%rax)
	jmp	.L398
	.p2align 4,,10
	.p2align 3
.L404:
	xorl	%edx, %edx
	movq	%rsp, %rsi
	movq	$17, (%rsp)
	call	_ZNSt7__cxx1112basic_stringIcSt11char_traitsIcESaIcEE9_M_createERmm@PLT
	movq	(%rsp), %rdx
	movq	%rax, (%rbx)
	movdqa	.LC6(%rip), %xmm0
	movq	%rdx, 16(%rbx)
	movb	$100, 16(%rax)
	movups	%xmm0, (%rax)
	movq	(%rsp), %rax
	movq	(%rbx), %rdx
	movq	%rax, 8(%rbx)
	movb	$0, (%rdx,%rax)
	jmp	.L398
.L406:
	call	__stack_chk_fail@PLT
	.cfi_endproc
.LFE2352:
	.size	_ZNK4asio5error6detail17addrinfo_category7messageB5cxx11Ei, .-_ZNK4asio5error6detail17addrinfo_category7messageB5cxx11Ei
	.section	.text.unlikely
	.align 2
	.type	_ZZN7asiopal8Executor5StartERKNSt6chrono10time_pointINS1_3_V212steady_clockENS1_8durationIlSt5ratioILl1ELl1000000000EEEEEERKSt8functionIFvvEEENUlRKSt10error_codeE_D2Ev, @function
_ZZN7asiopal8Executor5StartERKNSt6chrono10time_pointINS1_3_V212steady_clockENS1_8durationIlSt5ratioILl1ELl1000000000EEEEEERKSt8functionIFvvEEENUlRKSt10error_codeE_D2Ev:
.LFB6862:
	.cfi_startproc
	.cfi_personality 0x9b,DW.ref.__gxx_personality_v0
	.cfi_lsda 0x1b,.LLSDA6862
	pushq	%rbp
	.cfi_def_cfa_offset 16
	.cfi_offset 6, -16
	pushq	%rbx
	.cfi_def_cfa_offset 24
	.cfi_offset 3, -24
	movq	%rdi, %rbp
	subq	$8, %rsp
	.cfi_def_cfa_offset 32
	movq	56(%rdi), %rbx
	testq	%rbx, %rbx
	je	.L409
	cmpq	$0, _ZL28__gthrw___pthread_key_createPjPFvPvE@GOTPCREL(%rip)
	je	.L410
	lock decl	8(%rbx)
	jne	.L409
	jmp	.L427
.L410:
	movl	8(%rbx), %eax
	leal	-1(%rax), %edx
	decl	%eax
	movl	%edx, 8(%rbx)
	jne	.L409
	jmp	.L428
.L427:
	movq	(%rbx), %rax
	movq	%rbx, %rdi
	call	*16(%rax)
	orl	$-1, %eax
	lock xaddl	%eax, 12(%rbx)
.L421:
	decl	%eax
	jne	.L409
	movq	(%rbx), %rax
	movq	%rbx, %rdi
	call	*24(%rax)
.L409:
	movq	32(%rbp), %rax
	testq	%rax, %rax
	je	.L414
	leaq	16(%rbp), %rdi
	movl	$3, %edx
	movq	%rdi, %rsi
	call	*%rax
.L414:
	movq	8(%rbp), %rbx
	testq	%rbx, %rbx
	je	.L407
	cmpq	$0, _ZL28__gthrw___pthread_key_createPjPFvPvE@GOTPCREL(%rip)
	je	.L417
	lock decl	8(%rbx)
	jne	.L407
	movq	(%rbx), %rax
	movq	%rbx, %rdi
	call	*16(%rax)
	orl	$-1, %eax
	lock xaddl	%eax, 12(%rbx)
	jmp	.L422
.L417:
	movl	8(%rbx), %eax
	leal	-1(%rax), %edx
	decl	%eax
	movl	%edx, 8(%rbx)
	jne	.L407
	movq	(%rbx), %rax
	movq	%rbx, %rdi
	call	*16(%rax)
	movl	12(%rbx), %eax
	leal	-1(%rax), %edx
	movl	%edx, 12(%rbx)
.L422:
	decl	%eax
	jne	.L407
	movq	(%rbx), %rax
	movq	%rbx, %rdi
	movq	24(%rax), %rax
	popq	%rdx
	.cfi_remember_state
	.cfi_def_cfa_offset 24
	popq	%rbx
	.cfi_def_cfa_offset 16
	popq	%rbp
	.cfi_def_cfa_offset 8
	jmp	*%rax
.L428:
	.cfi_restore_state
	movq	(%rbx), %rax
	movq	%rbx, %rdi
	call	*16(%rax)
	movl	12(%rbx), %eax
	leal	-1(%rax), %edx
	movl	%edx, 12(%rbx)
	jmp	.L421
.L407:
	popq	%rax
	.cfi_def_cfa_offset 24
	popq	%rbx
	.cfi_def_cfa_offset 16
	popq	%rbp
	.cfi_def_cfa_offset 8
	ret
	.cfi_endproc
.LFE6862:
	.section	.gcc_except_table
.LLSDA6862:
	.byte	0xff
	.byte	0xff
	.byte	0x1
	.uleb128 .LLSDACSE6862-.LLSDACSB6862
.LLSDACSB6862:
.LLSDACSE6862:
	.section	.text.unlikely
	.size	_ZZN7asiopal8Executor5StartERKNSt6chrono10time_pointINS1_3_V212steady_clockENS1_8durationIlSt5ratioILl1ELl1000000000EEEEEERKSt8functionIFvvEEENUlRKSt10error_codeE_D2Ev, .-_ZZN7asiopal8Executor5StartERKNSt6chrono10time_pointINS1_3_V212steady_clockENS1_8durationIlSt5ratioILl1ELl1000000000EEEEEERKSt8functionIFvvEEENUlRKSt10error_codeE_D2Ev
	.set	_ZZN7asiopal8Executor5StartERKNSt6chrono10time_pointINS1_3_V212steady_clockENS1_8durationIlSt5ratioILl1ELl1000000000EEEEEERKSt8functionIFvvEEENUlRKSt10error_codeE_D1Ev,_ZZN7asiopal8Executor5StartERKNSt6chrono10time_pointINS1_3_V212steady_clockENS1_8durationIlSt5ratioILl1ELl1000000000EEEEEERKSt8functionIFvvEEENUlRKSt10error_codeE_D2Ev
	.section	.text._ZNK4asio5error6detail14netdb_category7messageB5cxx11Ei,"axG",@progbits,_ZNK4asio5error6detail14netdb_category7messageB5cxx11Ei,comdat
	.align 2
	.p2align 4,,15
	.weak	_ZNK4asio5error6detail14netdb_category7messageB5cxx11Ei
	.type	_ZNK4asio5error6detail14netdb_category7messageB5cxx11Ei, @function
_ZNK4asio5error6detail14netdb_category7messageB5cxx11Ei:
.LFB2346:
	.cfi_startproc
	pushq	%rbx
	.cfi_def_cfa_offset 16
	.cfi_offset 3, -16
	movq	%rdi, %rbx
	subq	$16, %rsp
	.cfi_def_cfa_offset 32
	movq	%fs:40, %rax
	movq	%rax, 8(%rsp)
	xorl	%eax, %eax
	leaq	16(%rdi), %rax
	cmpl	$1, %edx
	movq	%rax, (%rdi)
	je	.L437
	cmpl	$2, %edx
	je	.L438
	cmpl	$4, %edx
	je	.L439
	cmpl	$3, %edx
	je	.L440
	xorl	%edx, %edx
	movq	%rsp, %rsi
	movq	$16, (%rsp)
	call	_ZNSt7__cxx1112basic_stringIcSt11char_traitsIcESaIcEE9_M_createERmm@PLT
	movq	(%rsp), %rdx
	movq	%rax, (%rbx)
	movdqa	.LC18(%rip), %xmm0
	movq	%rdx, 16(%rbx)
	movups	%xmm0, (%rax)
	movq	(%rsp), %rax
	movq	(%rbx), %rdx
	movq	%rax, 8(%rbx)
	movb	$0, (%rdx,%rax)
.L429:
	movq	8(%rsp), %rcx
	xorq	%fs:40, %rcx
	movq	%rbx, %rax
	jne	.L441
	addq	$16, %rsp
	.cfi_remember_state
	.cfi_def_cfa_offset 16
	popq	%rbx
	.cfi_def_cfa_offset 8
	ret
	.p2align 4,,10
	.p2align 3
.L440:
	.cfi_restore_state
	xorl	%edx, %edx
	movq	%rsp, %rsi
	movq	$55, (%rsp)
	call	_ZNSt7__cxx1112basic_stringIcSt11char_traitsIcESaIcEE9_M_createERmm@PLT
	movq	(%rsp), %rdx
	movq	%rax, (%rbx)
	movdqa	.LC15(%rip), %xmm0
	movq	%rdx, 16(%rbx)
	movl	$30059, %edx
	movl	$1869573152, 48(%rax)
	movups	%xmm0, (%rax)
	movw	%dx, 52(%rax)
	movb	$112, 54(%rax)
	movdqa	.LC16(%rip), %xmm0
	movups	%xmm0, 16(%rax)
	movdqa	.LC17(%rip), %xmm0
	movups	%xmm0, 32(%rax)
	movq	(%rsp), %rax
	movq	(%rbx), %rdx
	movq	%rax, 8(%rbx)
	movb	$0, (%rdx,%rax)
	jmp	.L429
	.p2align 4,,10
	.p2align 3
.L437:
	movq	%rsp, %rsi
	xorl	%edx, %edx
	movq	$30, (%rsp)
	call	_ZNSt7__cxx1112basic_stringIcSt11char_traitsIcESaIcEE9_M_createERmm@PLT
	movq	(%rsp), %rdx
	movabsq	$8388361603773658465, %rcx
	movl	$10597, %esi
	movdqa	.LC9(%rip), %xmm0
	movq	%rax, (%rbx)
	movq	%rdx, 16(%rbx)
	movq	%rcx, 16(%rax)
	movups	%xmm0, (%rax)
	movl	$1986622561, 24(%rax)
	movw	%si, 28(%rax)
	movq	(%rsp), %rax
	movq	(%rbx), %rdx
	movq	%rax, 8(%rbx)
	movb	$0, (%rdx,%rax)
	jmp	.L429
	.p2align 4,,10
	.p2align 3
.L438:
	xorl	%edx, %edx
	movq	%rsp, %rsi
	movq	$51, (%rsp)
	call	_ZNSt7__cxx1112basic_stringIcSt11char_traitsIcESaIcEE9_M_createERmm@PLT
	movq	(%rsp), %rdx
	movq	%rax, (%rbx)
	movl	$25972, %ecx
	movdqa	.LC9(%rip), %xmm0
	movq	%rdx, 16(%rbx)
	movw	%cx, 48(%rax)
	movups	%xmm0, (%rax)
	movb	$114, 50(%rax)
	movdqa	.LC10(%rip), %xmm0
	movups	%xmm0, 16(%rax)
	movdqa	.LC11(%rip), %xmm0
	movups	%xmm0, 32(%rax)
	movq	(%rsp), %rax
	movq	(%rbx), %rdx
	movq	%rax, 8(%rbx)
	movb	$0, (%rdx,%rax)
	jmp	.L429
	.p2align 4,,10
	.p2align 3
.L439:
	xorl	%edx, %edx
	movq	%rsp, %rsi
	movq	$56, (%rsp)
	call	_ZNSt7__cxx1112basic_stringIcSt11char_traitsIcESaIcEE9_M_createERmm@PLT
	movq	(%rsp), %rdx
	movq	%rax, (%rbx)
	movabsq	$7022344801645520244, %rcx
	movdqa	.LC12(%rip), %xmm0
	movq	%rdx, 16(%rbx)
	movq	%rcx, 48(%rax)
	movups	%xmm0, (%rax)
	movdqa	.LC13(%rip), %xmm0
	movups	%xmm0, 16(%rax)
	movdqa	.LC14(%rip), %xmm0
	movups	%xmm0, 32(%rax)
	movq	(%rsp), %rax
	movq	(%rbx), %rdx
	movq	%rax, 8(%rbx)
	movb	$0, (%rdx,%rax)
	jmp	.L429
.L441:
	call	__stack_chk_fail@PLT
	.cfi_endproc
.LFE2346:
	.size	_ZNK4asio5error6detail14netdb_category7messageB5cxx11Ei, .-_ZNK4asio5error6detail14netdb_category7messageB5cxx11Ei
	.section	.text._ZNK4asio5error6detail13misc_category7messageB5cxx11Ei,"axG",@progbits,_ZNK4asio5error6detail13misc_category7messageB5cxx11Ei,comdat
	.align 2
	.p2align 4,,15
	.weak	_ZNK4asio5error6detail13misc_category7messageB5cxx11Ei
	.type	_ZNK4asio5error6detail13misc_category7messageB5cxx11Ei, @function
_ZNK4asio5error6detail13misc_category7messageB5cxx11Ei:
.LFB2358:
	.cfi_startproc
	pushq	%rbx
	.cfi_def_cfa_offset 16
	.cfi_offset 3, -16
	movq	%rdi, %rbx
	subq	$16, %rsp
	.cfi_def_cfa_offset 32
	movq	%fs:40, %rax
	movq	%rax, 8(%rsp)
	xorl	%eax, %eax
	leaq	16(%rdi), %rax
	cmpl	$1, %edx
	movq	%rax, (%rdi)
	je	.L450
	cmpl	$2, %edx
	je	.L451
	cmpl	$3, %edx
	je	.L452
	cmpl	$4, %edx
	je	.L453
	movabsq	$8316298233121436513, %rsi
	movl	$28530, %edx
	movq	%rsi, 16(%rdi)
	movl	$1919230051, 8(%rax)
	movw	%dx, 12(%rax)
	movb	$114, 14(%rax)
	movq	$15, 8(%rdi)
	movb	$0, 31(%rdi)
.L442:
	movq	8(%rsp), %rcx
	xorq	%fs:40, %rcx
	movq	%rbx, %rax
	jne	.L454
	addq	$16, %rsp
	.cfi_remember_state
	.cfi_def_cfa_offset 16
	popq	%rbx
	.cfi_def_cfa_offset 8
	ret
	.p2align 4,,10
	.p2align 3
.L453:
	.cfi_restore_state
	xorl	%edx, %edx
	movq	%rsp, %rsi
	movq	$57, (%rsp)
	call	_ZNSt7__cxx1112basic_stringIcSt11char_traitsIcESaIcEE9_M_createERmm@PLT
	movq	(%rsp), %rdx
	movq	%rax, (%rbx)
	movabsq	$7310291504967217959, %rdi
	movdqa	.LC20(%rip), %xmm0
	movq	%rdx, 16(%rbx)
	movq	%rdi, 48(%rax)
	movups	%xmm0, (%rax)
	movb	$116, 56(%rax)
	movdqa	.LC21(%rip), %xmm0
	movups	%xmm0, 16(%rax)
	movdqa	.LC22(%rip), %xmm0
	movups	%xmm0, 32(%rax)
	movq	(%rsp), %rax
	movq	(%rbx), %rdx
	movq	%rax, 8(%rbx)
	movb	$0, (%rdx,%rax)
	jmp	.L442
	.p2align 4,,10
	.p2align 3
.L450:
	movabsq	$2340011850872286273, %rcx
	movq	%rcx, 16(%rdi)
	movl	$1852141679, 8(%rax)
	movq	$12, 8(%rdi)
	movb	$0, 28(%rdi)
	jmp	.L442
	.p2align 4,,10
	.p2align 3
.L451:
	movabsq	$7358994418594246213, %rcx
	movq	%rcx, 16(%rdi)
	movl	$27753, %ecx
	movb	$101, 10(%rax)
	movw	%cx, 8(%rax)
	movq	$11, 8(%rdi)
	movb	$0, 27(%rdi)
	jmp	.L442
	.p2align 4,,10
	.p2align 3
.L452:
	xorl	%edx, %edx
	movq	%rsp, %rsi
	movq	$17, (%rsp)
	call	_ZNSt7__cxx1112basic_stringIcSt11char_traitsIcESaIcEE9_M_createERmm@PLT
	movq	(%rsp), %rdx
	movq	%rax, (%rbx)
	movdqa	.LC19(%rip), %xmm0
	movq	%rdx, 16(%rbx)
	movb	$100, 16(%rax)
	movups	%xmm0, (%rax)
	movq	(%rsp), %rax
	movq	(%rbx), %rdx
	movq	%rax, 8(%rbx)
	movb	$0, (%rdx,%rax)
	jmp	.L442
.L454:
	call	__stack_chk_fail@PLT
	.cfi_endproc
.LFE2358:
	.size	_ZNK4asio5error6detail13misc_category7messageB5cxx11Ei, .-_ZNK4asio5error6detail13misc_category7messageB5cxx11Ei
	.section	.text.unlikely
	.align 2
	.type	_ZN4asio6detail18completion_handlerIZN7asiopal8Executor4PostERKSt8functionIFvvEEEUlvE_E3ptr5resetEv.isra.104, @function
_ZN4asio6detail18completion_handlerIZN7asiopal8Executor4PostERKSt8functionIFvvEEEUlvE_E3ptr5resetEv.isra.104:
.LFB9463:
	.cfi_startproc
	.cfi_personality 0x9b,DW.ref.__gxx_personality_v0
	.cfi_lsda 0x1b,.LLSDA9463
	pushq	%r14
	.cfi_def_cfa_offset 16
	.cfi_offset 14, -16
	pushq	%r13
	.cfi_def_cfa_offset 24
	.cfi_offset 13, -24
	movq	%rdi, %r13
	pushq	%r12
	.cfi_def_cfa_offset 32
	.cfi_offset 12, -32
	pushq	%rbp
	.cfi_def_cfa_offset 40
	.cfi_offset 6, -40
	pushq	%rbx
	.cfi_def_cfa_offset 48
	.cfi_offset 3, -48
	movq	(%rsi), %rbp
	testq	%rbp, %rbp
	je	.L456
	movq	64(%rbp), %rbx
	movq	%rsi, %r14
	leaq	24(%rbp), %r12
	testq	%rbx, %rbx
	je	.L458
	cmpq	$0, _ZL28__gthrw___pthread_key_createPjPFvPvE@GOTPCREL(%rip)
	je	.L459
	lock decl	8(%rbx)
	jne	.L458
	jmp	.L484
.L459:
	movl	8(%rbx), %eax
	leal	-1(%rax), %edx
	decl	%eax
	movl	%edx, 8(%rbx)
	jne	.L458
	jmp	.L485
.L484:
	movq	(%rbx), %rax
	movq	%rbx, %rdi
	call	*16(%rax)
	orl	$-1, %eax
	lock xaddl	%eax, 12(%rbx)
.L467:
	decl	%eax
	jne	.L458
	movq	(%rbx), %rax
	movq	%rbx, %rdi
	call	*24(%rax)
.L458:
	movq	40(%rbp), %rax
	testq	%rax, %rax
	je	.L463
	movl	$3, %edx
	movq	%r12, %rsi
	movq	%r12, %rdi
	call	*%rax
.L463:
	movq	$0, (%r14)
.L456:
	movq	0(%r13), %rbx
	testq	%rbx, %rbx
	je	.L455
	.byte	0x66
	leaq	_ZN4asio6detail15keyword_tss_ptrINS0_10call_stackINS0_15task_io_serviceENS0_27task_io_service_thread_infoEE7contextEE6value_E@tlsgd(%rip), %rdi
	.value	0x6666
	rex64
	call	__tls_get_addr@PLT
	movq	(%rax), %rax
	testq	%rax, %rax
	je	.L465
	movq	8(%rax), %rax
	testq	%rax, %rax
	je	.L465
	cmpq	$0, (%rax)
	jne	.L465
	movb	72(%rbx), %dl
	movb	%dl, (%rbx)
	movq	%rbx, (%rax)
	jmp	.L466
.L465:
	movq	%rbx, %rdi
	call	_ZdlPv@PLT
.L466:
	movq	$0, 0(%r13)
	jmp	.L455
.L485:
	movq	(%rbx), %rax
	movq	%rbx, %rdi
	call	*16(%rax)
	movl	12(%rbx), %eax
	leal	-1(%rax), %edx
	movl	%edx, 12(%rbx)
	jmp	.L467
.L455:
	popq	%rbx
	.cfi_def_cfa_offset 40
	popq	%rbp
	.cfi_def_cfa_offset 32
	popq	%r12
	.cfi_def_cfa_offset 24
	popq	%r13
	.cfi_def_cfa_offset 16
	popq	%r14
	.cfi_def_cfa_offset 8
	ret
	.cfi_endproc
.LFE9463:
	.section	.gcc_except_table
.LLSDA9463:
	.byte	0xff
	.byte	0xff
	.byte	0x1
	.uleb128 .LLSDACSE9463-.LLSDACSB9463
.LLSDACSB9463:
.LLSDACSE9463:
	.section	.text.unlikely
	.size	_ZN4asio6detail18completion_handlerIZN7asiopal8Executor4PostERKSt8functionIFvvEEEUlvE_E3ptr5resetEv.isra.104, .-_ZN4asio6detail18completion_handlerIZN7asiopal8Executor4PostERKSt8functionIFvvEEEUlvE_E3ptr5resetEv.isra.104
	.text
	.p2align 4,,15
	.type	_ZN4asio6detail18completion_handlerIZN7asiopal8Executor4PostERKSt8functionIFvvEEEUlvE_E11do_completeEPNS0_15task_io_serviceEPNS0_25task_io_service_operationERKSt10error_codem, @function
_ZN4asio6detail18completion_handlerIZN7asiopal8Executor4PostERKSt8functionIFvvEEEUlvE_E11do_completeEPNS0_15task_io_serviceEPNS0_25task_io_service_operationERKSt10error_codem:
.LFB8518:
	.cfi_startproc
	.cfi_personality 0x9b,DW.ref.__gxx_personality_v0
	.cfi_lsda 0x1b,.LLSDA8518
	pushq	%r14
	.cfi_def_cfa_offset 16
	.cfi_offset 14, -16
	pushq	%r13
	.cfi_def_cfa_offset 24
	.cfi_offset 13, -24
	movq	%rdi, %r13
	pushq	%r12
	.cfi_def_cfa_offset 32
	.cfi_offset 12, -32
	pushq	%rbp
	.cfi_def_cfa_offset 40
	.cfi_offset 6, -40
	pushq	%rbx
	.cfi_def_cfa_offset 48
	.cfi_offset 3, -48
	movq	%rsi, %rbx
	addq	$24, %rsi
	subq	$96, %rsp
	.cfi_def_cfa_offset 144
	movq	%fs:40, %rax
	movq	%rax, 88(%rsp)
	xorl	%eax, %eax
	movq	40(%rbx), %rax
	movq	%rsi, (%rsp)
	movq	%rbx, 8(%rsp)
	movq	%rbx, 16(%rsp)
	movq	$0, 48(%rsp)
	testq	%rax, %rax
	je	.L487
	leaq	32(%rsp), %rbp
	movl	$2, %edx
	movq	%rbp, %rdi
.LEHB7:
	call	*%rax
.LEHE7:
	movq	56(%rbx), %rax
	movq	16(%rsp), %r12
	movdqu	40(%rbx), %xmm0
	movq	$0, 56(%rbx)
	movq	%rbp, (%rsp)
	movq	%rax, 64(%rsp)
	movq	64(%rbx), %rax
	testq	%r12, %r12
	movaps	%xmm0, 48(%rsp)
	movq	$0, 64(%rbx)
	movq	%rax, 72(%rsp)
	je	.L489
.L488:
	movq	64(%r12), %rbx
	leaq	24(%r12), %r14
	testq	%rbx, %rbx
	je	.L494
	cmpq	$0, _ZL28__gthrw___pthread_key_createPjPFvPvE@GOTPCREL(%rip)
	je	.L495
	lock subl	$1, 8(%rbx)
	je	.L566
.L494:
	movq	40(%r12), %rax
	testq	%rax, %rax
	je	.L499
	movl	$3, %edx
	movq	%r14, %rsi
	movq	%r14, %rdi
	call	*%rax
.L499:
	movq	$0, 16(%rsp)
.L489:
	movq	8(%rsp), %rbx
	testq	%rbx, %rbx
	je	.L500
	.byte	0x66
	leaq	_ZN4asio6detail15keyword_tss_ptrINS0_10call_stackINS0_15task_io_serviceENS0_27task_io_service_thread_infoEE7contextEE6value_E@tlsgd(%rip), %rdi
	.value	0x6666
	rex64
	call	__tls_get_addr@PLT
	movq	(%rax), %rax
	testq	%rax, %rax
	je	.L501
	movq	8(%rax), %rax
	testq	%rax, %rax
	je	.L501
	cmpq	$0, (%rax)
	je	.L567
.L501:
	movq	%rbx, %rdi
	call	_ZdlPv@PLT
.L502:
	movq	$0, 8(%rsp)
.L500:
	testq	%r13, %r13
	je	.L503
	cmpq	$0, 48(%rsp)
	je	.L568
	movq	%rbp, %rdi
.LEHB8:
	call	*56(%rsp)
.LEHE8:
	sfence
.L503:
	movq	72(%rsp), %rbx
	testq	%rbx, %rbx
	je	.L506
	cmpq	$0, _ZL28__gthrw___pthread_key_createPjPFvPvE@GOTPCREL(%rip)
	je	.L507
	lock subl	$1, 8(%rbx)
	je	.L569
.L506:
	movq	48(%rsp), %rax
	testq	%rax, %rax
	je	.L511
	movl	$3, %edx
	movq	%rbp, %rsi
	movq	%rbp, %rdi
	call	*%rax
.L511:
	movq	16(%rsp), %rbx
	testq	%rbx, %rbx
	je	.L512
	movq	64(%rbx), %rbp
	leaq	24(%rbx), %r12
	testq	%rbp, %rbp
	je	.L514
	cmpq	$0, _ZL28__gthrw___pthread_key_createPjPFvPvE@GOTPCREL(%rip)
	je	.L515
	lock subl	$1, 8(%rbp)
	je	.L570
.L514:
	movq	40(%rbx), %rax
	testq	%rax, %rax
	je	.L519
	movl	$3, %edx
	movq	%r12, %rsi
	movq	%r12, %rdi
	call	*%rax
.L519:
	movq	$0, 16(%rsp)
.L512:
	movq	8(%rsp), %rbx
	testq	%rbx, %rbx
	je	.L486
	.byte	0x66
	leaq	_ZN4asio6detail15keyword_tss_ptrINS0_10call_stackINS0_15task_io_serviceENS0_27task_io_service_thread_infoEE7contextEE6value_E@tlsgd(%rip), %rdi
	.value	0x6666
	rex64
	call	__tls_get_addr@PLT
	movq	(%rax), %rax
	testq	%rax, %rax
	je	.L521
	movq	8(%rax), %rax
	testq	%rax, %rax
	je	.L521
	cmpq	$0, (%rax)
	je	.L571
.L521:
	movq	%rbx, %rdi
	call	_ZdlPv@PLT
.L486:
	movq	88(%rsp), %rax
	xorq	%fs:40, %rax
	jne	.L572
	addq	$96, %rsp
	.cfi_remember_state
	.cfi_def_cfa_offset 48
	popq	%rbx
	.cfi_def_cfa_offset 40
	popq	%rbp
	.cfi_def_cfa_offset 32
	popq	%r12
	.cfi_def_cfa_offset 24
	popq	%r13
	.cfi_def_cfa_offset 16
	popq	%r14
	.cfi_def_cfa_offset 8
	ret
	.p2align 4,,10
	.p2align 3
.L507:
	.cfi_restore_state
	movl	8(%rbx), %eax
	leal	-1(%rax), %edx
	cmpl	$1, %eax
	movl	%edx, 8(%rbx)
	jne	.L506
	movq	(%rbx), %rax
	movq	%rbx, %rdi
	call	*16(%rax)
	movl	12(%rbx), %eax
	leal	-1(%rax), %edx
	movl	%edx, 12(%rbx)
	jmp	.L524
	.p2align 4,,10
	.p2align 3
.L571:
	movzbl	72(%rbx), %edx
	movb	%dl, (%rbx)
	movq	%rbx, (%rax)
	jmp	.L486
	.p2align 4,,10
	.p2align 3
.L567:
	movzbl	72(%rbx), %edx
	movb	%dl, (%rbx)
	movq	%rbx, (%rax)
	jmp	.L502
	.p2align 4,,10
	.p2align 3
.L515:
	movl	8(%rbp), %eax
	leal	-1(%rax), %edx
	cmpl	$1, %eax
	movl	%edx, 8(%rbp)
	jne	.L514
	movq	0(%rbp), %rax
	movq	%rbp, %rdi
	call	*16(%rax)
	movl	12(%rbp), %eax
	leal	-1(%rax), %edx
	movl	%edx, 12(%rbp)
	jmp	.L525
	.p2align 4,,10
	.p2align 3
.L495:
	movl	8(%rbx), %eax
	leal	-1(%rax), %edx
	cmpl	$1, %eax
	movl	%edx, 8(%rbx)
	jne	.L494
	movq	(%rbx), %rax
	movq	%rbx, %rdi
	call	*16(%rax)
	movl	12(%rbx), %eax
	leal	-1(%rax), %edx
	movl	%edx, 12(%rbx)
	jmp	.L523
	.p2align 4,,10
	.p2align 3
.L569:
	movq	(%rbx), %rax
	movq	%rbx, %rdi
	call	*16(%rax)
	movl	$-1, %eax
	lock xaddl	%eax, 12(%rbx)
.L524:
	cmpl	$1, %eax
	jne	.L506
	movq	(%rbx), %rax
	movq	%rbx, %rdi
	call	*24(%rax)
	jmp	.L506
	.p2align 4,,10
	.p2align 3
.L487:
	movq	56(%rbx), %rax
	leaq	32(%rsp), %rbp
	movq	$0, 56(%rbx)
	movq	%rbx, %r12
	movq	%rbp, (%rsp)
	movq	%rax, 64(%rsp)
	movq	64(%rbx), %rax
	movq	$0, 64(%rbx)
	movq	%rax, 72(%rsp)
	jmp	.L488
	.p2align 4,,10
	.p2align 3
.L570:
	movq	0(%rbp), %rax
	movq	%rbp, %rdi
	call	*16(%rax)
	movl	$-1, %eax
	lock xaddl	%eax, 12(%rbp)
.L525:
	cmpl	$1, %eax
	jne	.L514
	movq	0(%rbp), %rax
	movq	%rbp, %rdi
	call	*24(%rax)
	jmp	.L514
	.p2align 4,,10
	.p2align 3
.L566:
	movq	(%rbx), %rax
	movq	%rbx, %rdi
	call	*16(%rax)
	movl	$-1, %eax
	lock xaddl	%eax, 12(%rbx)
.L523:
	cmpl	$1, %eax
	jne	.L494
	movq	(%rbx), %rax
	movq	%rbx, %rdi
	call	*24(%rax)
	jmp	.L494
.L572:
	call	__stack_chk_fail@PLT
.L568:
.LEHB9:
	call	_ZSt25__throw_bad_function_callv@PLT
.LEHE9:
.L527:
	movq	%rbp, %rdi
	movq	%rax, %rbx
	sfence
	call	_ZZN7asiopal8Executor4PostERKSt8functionIFvvEEENUlvE_D1Ev
.L492:
	movq	%rsp, %rax
	leaq	8(%rax), %rdi
	leaq	16(%rax), %rsi
	call	_ZN4asio6detail18completion_handlerIZN7asiopal8Executor4PostERKSt8functionIFvvEEEUlvE_E3ptr5resetEv.isra.104
	movq	%rbx, %rdi
.LEHB10:
	call	_Unwind_Resume@PLT
.LEHE10:
.L528:
	movq	%rax, %rbx
	movq	48(%rsp), %rax
	testq	%rax, %rax
	je	.L492
	movl	$3, %edx
	movq	%rbp, %rsi
	movq	%rbp, %rdi
	call	*%rax
	jmp	.L492
	.cfi_endproc
.LFE8518:
	.section	.gcc_except_table
.LLSDA8518:
	.byte	0xff
	.byte	0xff
	.byte	0x1
	.uleb128 .LLSDACSE8518-.LLSDACSB8518
.LLSDACSB8518:
	.uleb128 .LEHB7-.LFB8518
	.uleb128 .LEHE7-.LEHB7
	.uleb128 .L528-.LFB8518
	.uleb128 0
	.uleb128 .LEHB8-.LFB8518
	.uleb128 .LEHE8-.LEHB8
	.uleb128 .L527-.LFB8518
	.uleb128 0
	.uleb128 .LEHB9-.LFB8518
	.uleb128 .LEHE9-.LEHB9
	.uleb128 .L527-.LFB8518
	.uleb128 0
	.uleb128 .LEHB10-.LFB8518
	.uleb128 .LEHE10-.LEHB10
	.uleb128 0
	.uleb128 0
.LLSDACSE8518:
	.text
	.size	_ZN4asio6detail18completion_handlerIZN7asiopal8Executor4PostERKSt8functionIFvvEEEUlvE_E11do_completeEPNS0_15task_io_serviceEPNS0_25task_io_service_operationERKSt10error_codem, .-_ZN4asio6detail18completion_handlerIZN7asiopal8Executor4PostERKSt8functionIFvvEEEUlvE_E11do_completeEPNS0_15task_io_serviceEPNS0_25task_io_service_operationERKSt10error_codem
	.section	.text.unlikely
	.align 2
	.type	_ZN4asio6detail18completion_handlerINS0_7binder1IZN7asiopal8Executor5StartERKNSt6chrono10time_pointINS5_3_V212steady_clockENS5_8durationIlSt5ratioILl1ELl1000000000EEEEEERKSt8functionIFvvEEEUlRKSt10error_codeE_SL_EEE3ptr5resetEv.isra.105, @function
_ZN4asio6detail18completion_handlerINS0_7binder1IZN7asiopal8Executor5StartERKNSt6chrono10time_pointINS5_3_V212steady_clockENS5_8durationIlSt5ratioILl1ELl1000000000EEEEEERKSt8functionIFvvEEEUlRKSt10error_codeE_SL_EEE3ptr5resetEv.isra.105:
.LFB9464:
	.cfi_startproc
	.cfi_personality 0x9b,DW.ref.__gxx_personality_v0
	.cfi_lsda 0x1b,.LLSDA9464
	pushq	%r13
	.cfi_def_cfa_offset 16
	.cfi_offset 13, -16
	pushq	%r12
	.cfi_def_cfa_offset 24
	.cfi_offset 12, -24
	pushq	%rbp
	.cfi_def_cfa_offset 32
	.cfi_offset 6, -32
	pushq	%rbx
	.cfi_def_cfa_offset 40
	.cfi_offset 3, -40
	movq	%rdi, %rbp
	subq	$8, %rsp
	.cfi_def_cfa_offset 48
	movq	(%rsi), %r13
	testq	%r13, %r13
	je	.L574
	movq	80(%r13), %rbx
	movq	%rsi, %r12
	testq	%rbx, %rbx
	je	.L576
	cmpq	$0, _ZL28__gthrw___pthread_key_createPjPFvPvE@GOTPCREL(%rip)
	je	.L577
	lock decl	8(%rbx)
	jne	.L576
	jmp	.L609
.L577:
	movl	8(%rbx), %eax
	leal	-1(%rax), %edx
	decl	%eax
	movl	%edx, 8(%rbx)
	jne	.L576
	jmp	.L610
.L609:
	movq	(%rbx), %rax
	movq	%rbx, %rdi
	call	*16(%rax)
	orl	$-1, %eax
	lock xaddl	%eax, 12(%rbx)
.L591:
	decl	%eax
	jne	.L576
	movq	(%rbx), %rax
	movq	%rbx, %rdi
	call	*24(%rax)
.L576:
	movq	56(%r13), %rax
	testq	%rax, %rax
	je	.L581
	leaq	40(%r13), %rdi
	movl	$3, %edx
	movq	%rdi, %rsi
	call	*%rax
.L581:
	movq	32(%r13), %rbx
	testq	%rbx, %rbx
	je	.L583
	cmpq	$0, _ZL28__gthrw___pthread_key_createPjPFvPvE@GOTPCREL(%rip)
	je	.L584
	lock decl	8(%rbx)
	jne	.L583
	jmp	.L611
.L584:
	movl	8(%rbx), %eax
	leal	-1(%rax), %edx
	decl	%eax
	movl	%edx, 8(%rbx)
	jne	.L583
	jmp	.L612
.L611:
	movq	(%rbx), %rax
	movq	%rbx, %rdi
	call	*16(%rax)
	orl	$-1, %eax
	lock xaddl	%eax, 12(%rbx)
.L592:
	decl	%eax
	jne	.L583
	movq	(%rbx), %rax
	movq	%rbx, %rdi
	call	*24(%rax)
.L583:
	movq	$0, (%r12)
.L574:
	movq	0(%rbp), %rbx
	testq	%rbx, %rbx
	je	.L573
	.byte	0x66
	leaq	_ZN4asio6detail15keyword_tss_ptrINS0_10call_stackINS0_15task_io_serviceENS0_27task_io_service_thread_infoEE7contextEE6value_E@tlsgd(%rip), %rdi
	.value	0x6666
	rex64
	call	__tls_get_addr@PLT
	movq	(%rax), %rax
	testq	%rax, %rax
	je	.L589
	movq	8(%rax), %rax
	testq	%rax, %rax
	je	.L589
	cmpq	$0, (%rax)
	jne	.L589
	movb	104(%rbx), %dl
	movb	%dl, (%rbx)
	movq	%rbx, (%rax)
	jmp	.L590
.L589:
	movq	%rbx, %rdi
	call	_ZdlPv@PLT
.L590:
	movq	$0, 0(%rbp)
	jmp	.L573
.L610:
	movq	(%rbx), %rax
	movq	%rbx, %rdi
	call	*16(%rax)
	movl	12(%rbx), %eax
	leal	-1(%rax), %edx
	movl	%edx, 12(%rbx)
	jmp	.L591
.L612:
	movq	(%rbx), %rax
	movq	%rbx, %rdi
	call	*16(%rax)
	movl	12(%rbx), %eax
	leal	-1(%rax), %edx
	movl	%edx, 12(%rbx)
	jmp	.L592
.L573:
	popq	%rax
	.cfi_def_cfa_offset 40
	popq	%rbx
	.cfi_def_cfa_offset 32
	popq	%rbp
	.cfi_def_cfa_offset 24
	popq	%r12
	.cfi_def_cfa_offset 16
	popq	%r13
	.cfi_def_cfa_offset 8
	ret
	.cfi_endproc
.LFE9464:
	.section	.gcc_except_table
.LLSDA9464:
	.byte	0xff
	.byte	0xff
	.byte	0x1
	.uleb128 .LLSDACSE9464-.LLSDACSB9464
.LLSDACSB9464:
.LLSDACSE9464:
	.section	.text.unlikely
	.size	_ZN4asio6detail18completion_handlerINS0_7binder1IZN7asiopal8Executor5StartERKNSt6chrono10time_pointINS5_3_V212steady_clockENS5_8durationIlSt5ratioILl1ELl1000000000EEEEEERKSt8functionIFvvEEEUlRKSt10error_codeE_SL_EEE3ptr5resetEv.isra.105, .-_ZN4asio6detail18completion_handlerINS0_7binder1IZN7asiopal8Executor5StartERKNSt6chrono10time_pointINS5_3_V212steady_clockENS5_8durationIlSt5ratioILl1ELl1000000000EEEEEERKSt8functionIFvvEEEUlRKSt10error_codeE_SL_EEE3ptr5resetEv.isra.105
	.align 2
	.type	_ZN4asio6detail12wait_handlerINS0_15wrapped_handlerINS_10io_service6strandEZN7asiopal8Executor5StartERKNSt6chrono10time_pointINS7_3_V212steady_clockENS7_8durationIlSt5ratioILl1ELl1000000000EEEEEERKSt8functionIFvvEEEUlRKSt10error_codeE_NS0_26is_continuation_if_runningEEEE3ptr5resetEv.isra.122, @function
_ZN4asio6detail12wait_handlerINS0_15wrapped_handlerINS_10io_service6strandEZN7asiopal8Executor5StartERKNSt6chrono10time_pointINS7_3_V212steady_clockENS7_8durationIlSt5ratioILl1ELl1000000000EEEEEERKSt8functionIFvvEEEUlRKSt10error_codeE_NS0_26is_continuation_if_runningEEEE3ptr5resetEv.isra.122:
.LFB9481:
	.cfi_startproc
	.cfi_personality 0x9b,DW.ref.__gxx_personality_v0
	.cfi_lsda 0x1b,.LLSDA9481
	pushq	%r13
	.cfi_def_cfa_offset 16
	.cfi_offset 13, -16
	pushq	%r12
	.cfi_def_cfa_offset 24
	.cfi_offset 12, -24
	pushq	%rbp
	.cfi_def_cfa_offset 32
	.cfi_offset 6, -32
	pushq	%rbx
	.cfi_def_cfa_offset 40
	.cfi_offset 3, -40
	movq	%rdi, %rbp
	subq	$8, %rsp
	.cfi_def_cfa_offset 48
	movq	(%rsi), %r13
	testq	%r13, %r13
	je	.L614
	movq	112(%r13), %rbx
	movq	%rsi, %r12
	testq	%rbx, %rbx
	je	.L616
	cmpq	$0, _ZL28__gthrw___pthread_key_createPjPFvPvE@GOTPCREL(%rip)
	je	.L617
	lock decl	8(%rbx)
	jne	.L616
	jmp	.L649
.L617:
	movl	8(%rbx), %eax
	leal	-1(%rax), %edx
	decl	%eax
	movl	%edx, 8(%rbx)
	jne	.L616
	jmp	.L650
.L649:
	movq	(%rbx), %rax
	movq	%rbx, %rdi
	call	*16(%rax)
	orl	$-1, %eax
	lock xaddl	%eax, 12(%rbx)
.L631:
	decl	%eax
	jne	.L616
	movq	(%rbx), %rax
	movq	%rbx, %rdi
	call	*24(%rax)
.L616:
	movq	88(%r13), %rax
	testq	%rax, %rax
	je	.L621
	leaq	72(%r13), %rdi
	movl	$3, %edx
	movq	%rdi, %rsi
	call	*%rax
.L621:
	movq	64(%r13), %rbx
	testq	%rbx, %rbx
	je	.L623
	cmpq	$0, _ZL28__gthrw___pthread_key_createPjPFvPvE@GOTPCREL(%rip)
	je	.L624
	lock decl	8(%rbx)
	jne	.L623
	jmp	.L651
.L624:
	movl	8(%rbx), %eax
	leal	-1(%rax), %edx
	decl	%eax
	movl	%edx, 8(%rbx)
	jne	.L623
	jmp	.L652
.L651:
	movq	(%rbx), %rax
	movq	%rbx, %rdi
	call	*16(%rax)
	orl	$-1, %eax
	lock xaddl	%eax, 12(%rbx)
.L632:
	decl	%eax
	jne	.L623
	movq	(%rbx), %rax
	movq	%rbx, %rdi
	call	*24(%rax)
.L623:
	movq	$0, (%r12)
.L614:
	movq	0(%rbp), %rbx
	testq	%rbx, %rbx
	je	.L613
	.byte	0x66
	leaq	_ZN4asio6detail15keyword_tss_ptrINS0_10call_stackINS0_15task_io_serviceENS0_27task_io_service_thread_infoEE7contextEE6value_E@tlsgd(%rip), %rdi
	.value	0x6666
	rex64
	call	__tls_get_addr@PLT
	movq	(%rax), %rax
	testq	%rax, %rax
	je	.L629
	movq	8(%rax), %rax
	testq	%rax, %rax
	je	.L629
	cmpq	$0, (%rax)
	jne	.L629
	movb	120(%rbx), %dl
	movb	%dl, (%rbx)
	movq	%rbx, (%rax)
	jmp	.L630
.L629:
	movq	%rbx, %rdi
	call	_ZdlPv@PLT
.L630:
	movq	$0, 0(%rbp)
	jmp	.L613
.L650:
	movq	(%rbx), %rax
	movq	%rbx, %rdi
	call	*16(%rax)
	movl	12(%rbx), %eax
	leal	-1(%rax), %edx
	movl	%edx, 12(%rbx)
	jmp	.L631
.L652:
	movq	(%rbx), %rax
	movq	%rbx, %rdi
	call	*16(%rax)
	movl	12(%rbx), %eax
	leal	-1(%rax), %edx
	movl	%edx, 12(%rbx)
	jmp	.L632
.L613:
	popq	%rax
	.cfi_def_cfa_offset 40
	popq	%rbx
	.cfi_def_cfa_offset 32
	popq	%rbp
	.cfi_def_cfa_offset 24
	popq	%r12
	.cfi_def_cfa_offset 16
	popq	%r13
	.cfi_def_cfa_offset 8
	ret
	.cfi_endproc
.LFE9481:
	.section	.gcc_except_table
.LLSDA9481:
	.byte	0xff
	.byte	0xff
	.byte	0x1
	.uleb128 .LLSDACSE9481-.LLSDACSB9481
.LLSDACSB9481:
.LLSDACSE9481:
	.section	.text.unlikely
	.size	_ZN4asio6detail12wait_handlerINS0_15wrapped_handlerINS_10io_service6strandEZN7asiopal8Executor5StartERKNSt6chrono10time_pointINS7_3_V212steady_clockENS7_8durationIlSt5ratioILl1ELl1000000000EEEEEERKSt8functionIFvvEEEUlRKSt10error_codeE_NS0_26is_continuation_if_runningEEEE3ptr5resetEv.isra.122, .-_ZN4asio6detail12wait_handlerINS0_15wrapped_handlerINS_10io_service6strandEZN7asiopal8Executor5StartERKNSt6chrono10time_pointINS7_3_V212steady_clockENS7_8durationIlSt5ratioILl1ELl1000000000EEEEEERKSt8functionIFvvEEEUlRKSt10error_codeE_NS0_26is_continuation_if_runningEEEE3ptr5resetEv.isra.122
	.align 2
	.type	_ZN4asio6detail18completion_handlerINS0_17rewrapped_handlerINS0_7binder1INS0_15wrapped_handlerINS_10io_service6strandEZN7asiopal8Executor5StartERKNSt6chrono10time_pointINS9_3_V212steady_clockENS9_8durationIlSt5ratioILl1ELl1000000000EEEEEERKSt8functionIFvvEEEUlRKSt10error_codeE_NS0_26is_continuation_if_runningEEESP_EESS_EEE3ptr5resetEv.isra.106, @function
_ZN4asio6detail18completion_handlerINS0_17rewrapped_handlerINS0_7binder1INS0_15wrapped_handlerINS_10io_service6strandEZN7asiopal8Executor5StartERKNSt6chrono10time_pointINS9_3_V212steady_clockENS9_8durationIlSt5ratioILl1ELl1000000000EEEEEERKSt8functionIFvvEEEUlRKSt10error_codeE_NS0_26is_continuation_if_runningEEESP_EESS_EEE3ptr5resetEv.isra.106:
.LFB9465:
	.cfi_startproc
	.cfi_personality 0x9b,DW.ref.__gxx_personality_v0
	.cfi_lsda 0x1b,.LLSDA9465
	pushq	%r13
	.cfi_def_cfa_offset 16
	.cfi_offset 13, -16
	pushq	%r12
	.cfi_def_cfa_offset 24
	.cfi_offset 12, -24
	pushq	%rbp
	.cfi_def_cfa_offset 32
	.cfi_offset 6, -32
	pushq	%rbx
	.cfi_def_cfa_offset 40
	.cfi_offset 3, -40
	movq	%rdi, %rbp
	subq	$8, %rsp
	.cfi_def_cfa_offset 48
	movq	(%rsi), %r13
	testq	%r13, %r13
	je	.L654
	movq	160(%r13), %rbx
	movq	%rsi, %r12
	testq	%rbx, %rbx
	je	.L656
	cmpq	$0, _ZL28__gthrw___pthread_key_createPjPFvPvE@GOTPCREL(%rip)
	je	.L657
	lock decl	8(%rbx)
	jne	.L656
	jmp	.L707
.L657:
	movl	8(%rbx), %eax
	leal	-1(%rax), %edx
	decl	%eax
	movl	%edx, 8(%rbx)
	jne	.L656
	jmp	.L708
.L707:
	movq	(%rbx), %rax
	movq	%rbx, %rdi
	call	*16(%rax)
	orl	$-1, %eax
	lock xaddl	%eax, 12(%rbx)
.L684:
	decl	%eax
	jne	.L656
	movq	(%rbx), %rax
	movq	%rbx, %rdi
	call	*24(%rax)
.L656:
	movq	136(%r13), %rax
	testq	%rax, %rax
	je	.L661
	leaq	120(%r13), %rdi
	movl	$3, %edx
	movq	%rdi, %rsi
	call	*%rax
.L661:
	movq	112(%r13), %rbx
	testq	%rbx, %rbx
	je	.L663
	cmpq	$0, _ZL28__gthrw___pthread_key_createPjPFvPvE@GOTPCREL(%rip)
	je	.L664
	lock decl	8(%rbx)
	jne	.L663
	jmp	.L709
.L664:
	movl	8(%rbx), %eax
	leal	-1(%rax), %edx
	decl	%eax
	movl	%edx, 8(%rbx)
	jne	.L663
	jmp	.L710
.L709:
	movq	(%rbx), %rax
	movq	%rbx, %rdi
	call	*16(%rax)
	orl	$-1, %eax
	lock xaddl	%eax, 12(%rbx)
.L685:
	decl	%eax
	jne	.L663
	movq	(%rbx), %rax
	movq	%rbx, %rdi
	call	*24(%rax)
.L663:
	movq	80(%r13), %rbx
	testq	%rbx, %rbx
	je	.L669
	cmpq	$0, _ZL28__gthrw___pthread_key_createPjPFvPvE@GOTPCREL(%rip)
	je	.L670
	lock decl	8(%rbx)
	jne	.L669
	jmp	.L711
.L670:
	movl	8(%rbx), %eax
	leal	-1(%rax), %edx
	decl	%eax
	movl	%edx, 8(%rbx)
	jne	.L669
	jmp	.L712
.L711:
	movq	(%rbx), %rax
	movq	%rbx, %rdi
	call	*16(%rax)
	orl	$-1, %eax
	lock xaddl	%eax, 12(%rbx)
.L686:
	decl	%eax
	jne	.L669
	movq	(%rbx), %rax
	movq	%rbx, %rdi
	call	*24(%rax)
.L669:
	movq	56(%r13), %rax
	testq	%rax, %rax
	je	.L674
	leaq	40(%r13), %rdi
	movl	$3, %edx
	movq	%rdi, %rsi
	call	*%rax
.L674:
	movq	32(%r13), %rbx
	testq	%rbx, %rbx
	je	.L676
	cmpq	$0, _ZL28__gthrw___pthread_key_createPjPFvPvE@GOTPCREL(%rip)
	je	.L677
	lock decl	8(%rbx)
	jne	.L676
	jmp	.L713
.L677:
	movl	8(%rbx), %eax
	leal	-1(%rax), %edx
	decl	%eax
	movl	%edx, 8(%rbx)
	jne	.L676
	jmp	.L714
.L713:
	movq	(%rbx), %rax
	movq	%rbx, %rdi
	call	*16(%rax)
	orl	$-1, %eax
	lock xaddl	%eax, 12(%rbx)
.L687:
	decl	%eax
	jne	.L676
	movq	(%rbx), %rax
	movq	%rbx, %rdi
	call	*24(%rax)
.L676:
	movq	$0, (%r12)
.L654:
	movq	0(%rbp), %rbx
	testq	%rbx, %rbx
	je	.L653
	.byte	0x66
	leaq	_ZN4asio6detail15keyword_tss_ptrINS0_10call_stackINS0_15task_io_serviceENS0_27task_io_service_thread_infoEE7contextEE6value_E@tlsgd(%rip), %rdi
	.value	0x6666
	rex64
	call	__tls_get_addr@PLT
	movq	(%rax), %rax
	testq	%rax, %rax
	je	.L682
	movq	8(%rax), %rax
	testq	%rax, %rax
	je	.L682
	cmpq	$0, (%rax)
	jne	.L682
	movb	184(%rbx), %dl
	movb	%dl, (%rbx)
	movq	%rbx, (%rax)
	jmp	.L683
.L682:
	movq	%rbx, %rdi
	call	_ZdlPv@PLT
.L683:
	movq	$0, 0(%rbp)
	jmp	.L653
.L708:
	movq	(%rbx), %rax
	movq	%rbx, %rdi
	call	*16(%rax)
	movl	12(%rbx), %eax
	leal	-1(%rax), %edx
	movl	%edx, 12(%rbx)
	jmp	.L684
.L710:
	movq	(%rbx), %rax
	movq	%rbx, %rdi
	call	*16(%rax)
	movl	12(%rbx), %eax
	leal	-1(%rax), %edx
	movl	%edx, 12(%rbx)
	jmp	.L685
.L712:
	movq	(%rbx), %rax
	movq	%rbx, %rdi
	call	*16(%rax)
	movl	12(%rbx), %eax
	leal	-1(%rax), %edx
	movl	%edx, 12(%rbx)
	jmp	.L686
.L714:
	movq	(%rbx), %rax
	movq	%rbx, %rdi
	call	*16(%rax)
	movl	12(%rbx), %eax
	leal	-1(%rax), %edx
	movl	%edx, 12(%rbx)
	jmp	.L687
.L653:
	popq	%rax
	.cfi_def_cfa_offset 40
	popq	%rbx
	.cfi_def_cfa_offset 32
	popq	%rbp
	.cfi_def_cfa_offset 24
	popq	%r12
	.cfi_def_cfa_offset 16
	popq	%r13
	.cfi_def_cfa_offset 8
	ret
	.cfi_endproc
.LFE9465:
	.section	.gcc_except_table
.LLSDA9465:
	.byte	0xff
	.byte	0xff
	.byte	0x1
	.uleb128 .LLSDACSE9465-.LLSDACSB9465
.LLSDACSB9465:
.LLSDACSE9465:
	.section	.text.unlikely
	.size	_ZN4asio6detail18completion_handlerINS0_17rewrapped_handlerINS0_7binder1INS0_15wrapped_handlerINS_10io_service6strandEZN7asiopal8Executor5StartERKNSt6chrono10time_pointINS9_3_V212steady_clockENS9_8durationIlSt5ratioILl1ELl1000000000EEEEEERKSt8functionIFvvEEEUlRKSt10error_codeE_NS0_26is_continuation_if_runningEEESP_EESS_EEE3ptr5resetEv.isra.106, .-_ZN4asio6detail18completion_handlerINS0_17rewrapped_handlerINS0_7binder1INS0_15wrapped_handlerINS_10io_service6strandEZN7asiopal8Executor5StartERKNSt6chrono10time_pointINS9_3_V212steady_clockENS9_8durationIlSt5ratioILl1ELl1000000000EEEEEERKSt8functionIFvvEEEUlRKSt10error_codeE_NS0_26is_continuation_if_runningEEESP_EESS_EEE3ptr5resetEv.isra.106
	.section	.text._ZSt20__throw_bad_weak_ptrv,"axG",@progbits,_ZSt20__throw_bad_weak_ptrv,comdat
	.p2align 4,,15
	.weak	_ZSt20__throw_bad_weak_ptrv
	.type	_ZSt20__throw_bad_weak_ptrv, @function
_ZSt20__throw_bad_weak_ptrv:
.LFB1670:
	.cfi_startproc
	movl	$8, %edi
	subq	$8, %rsp
	.cfi_def_cfa_offset 16
	call	__cxa_allocate_exception@PLT
	movq	_ZTVSt12bad_weak_ptr@GOTPCREL(%rip), %rdx
	movq	_ZTISt12bad_weak_ptr@GOTPCREL(%rip), %rsi
	movq	%rax, %rdi
	addq	$16, %rdx
	movq	%rdx, (%rax)
	movq	_ZNSt12bad_weak_ptrD1Ev@GOTPCREL(%rip), %rdx
	call	__cxa_throw@PLT
	.cfi_endproc
.LFE1670:
	.size	_ZSt20__throw_bad_weak_ptrv, .-_ZSt20__throw_bad_weak_ptrv
	.section	.text._ZN4asio28asio_handler_is_continuationEz,"axG",@progbits,_ZN4asio28asio_handler_is_continuationEz,comdat
	.p2align 4,,15
	.weak	_ZN4asio28asio_handler_is_continuationEz
	.type	_ZN4asio28asio_handler_is_continuationEz, @function
_ZN4asio28asio_handler_is_continuationEz:
.LFB2105:
	.cfi_startproc
	xorl	%eax, %eax
	ret
	.cfi_endproc
.LFE2105:
	.size	_ZN4asio28asio_handler_is_continuationEz, .-_ZN4asio28asio_handler_is_continuationEz
	.text
	.align 2
	.p2align 4,,15
	.globl	_ZN7asiopal8Executor4PostERKSt8functionIFvvEE
	.type	_ZN7asiopal8Executor4PostERKSt8functionIFvvEE, @function
_ZN7asiopal8Executor4PostERKSt8functionIFvvEE:
.LFB6879:
	.cfi_startproc
	.cfi_personality 0x9b,DW.ref.__gxx_personality_v0
	.cfi_lsda 0x1b,.LLSDA6879
	pushq	%r15
	.cfi_def_cfa_offset 16
	.cfi_offset 15, -16
	pushq	%r14
	.cfi_def_cfa_offset 24
	.cfi_offset 14, -24
	pushq	%r13
	.cfi_def_cfa_offset 32
	.cfi_offset 13, -32
	pushq	%r12
	.cfi_def_cfa_offset 40
	.cfi_offset 12, -40
	pushq	%rbp
	.cfi_def_cfa_offset 48
	.cfi_offset 6, -48
	pushq	%rbx
	.cfi_def_cfa_offset 56
	.cfi_offset 3, -56
	movq	%rdi, %rbp
	subq	$168, %rsp
	.cfi_def_cfa_offset 224
	movq	%fs:40, %rax
	movq	%rax, 152(%rsp)
	xorl	%eax, %eax
	movq	16(%rsi), %rax
	movq	$0, 64(%rsp)
	testq	%rax, %rax
	je	.L719
	leaq	48(%rsp), %r13
	movq	%rsi, %rbx
	movl	$2, %edx
	movq	%r13, %rdi
.LEHB11:
	call	*%rax
.LEHE11:
	movdqu	16(%rbx), %xmm0
	movaps	%xmm0, 64(%rsp)
.L719:
	movq	16(%rbp), %rax
	testq	%rax, %rax
	movq	%rax, 88(%rsp)
	je	.L722
	leaq	8(%rax), %rdx
	movl	8(%rax), %eax
	testl	%eax, %eax
	je	.L723
.L838:
	leal	1(%rax), %ecx
	lock cmpxchgl	%ecx, (%rdx)
	jne	.L845
	movq	64(%rsp), %rcx
	movq	8(%rbp), %rax
	leaq	96(%rsp), %r12
	movq	$0, 112(%rsp)
	testq	%rcx, %rcx
	movq	%rax, 80(%rsp)
	je	.L727
	leaq	48(%rsp), %r13
	leaq	96(%rsp), %r12
	movl	$2, %edx
	movq	%r13, %rsi
	movq	%r12, %rdi
.LEHB12:
	call	*%rcx
.LEHE12:
	movdqa	64(%rsp), %xmm0
	movq	80(%rsp), %rax
	movaps	%xmm0, 112(%rsp)
.L727:
	movq	%rax, 128(%rsp)
	movq	88(%rsp), %rax
	testq	%rax, %rax
	movq	%rax, 136(%rsp)
	je	.L731
	cmpq	$0, _ZL28__gthrw___pthread_key_createPjPFvPvE@GOTPCREL(%rip)
	jne	.L846
	addl	$1, 8(%rax)
.L731:
	movq	%r12, %rdi
	xorl	%eax, %eax
	movq	40(%rbp), %r13
	call	_ZN4asio28asio_handler_is_continuationEz@PLT
	pxor	%xmm0, %xmm0
	movl	%eax, %r14d
	movq	%r12, 16(%rsp)
	movups	%xmm0, 24(%rsp)
	.byte	0x66
	leaq	_ZN4asio6detail15keyword_tss_ptrINS0_10call_stackINS0_15task_io_serviceENS0_27task_io_service_thread_infoEE7contextEE6value_E@tlsgd(%rip), %rdi
	.value	0x6666
	rex64
	call	__tls_get_addr@PLT
	movq	(%rax), %rax
	testq	%rax, %rax
	je	.L733
	movq	8(%rax), %rax
	testq	%rax, %rax
	je	.L733
	movq	(%rax), %rbx
	testq	%rbx, %rbx
	je	.L733
	movq	$0, (%rax)
	movzbl	(%rbx), %eax
	cmpb	$71, %al
	jbe	.L734
	movb	%al, 72(%rbx)
	jmp	.L735
	.p2align 4,,10
	.p2align 3
.L734:
	movq	%rbx, %rdi
	call	_ZdlPv@PLT
.L733:
	movl	$73, %edi
.LEHB13:
	call	_Znwm@PLT
.LEHE13:
	movq	%rax, %rbx
	movb	$72, 72(%rax)
.L735:
	leaq	_ZN4asio6detail18completion_handlerIZN7asiopal8Executor4PostERKSt8functionIFvvEEEUlvE_E11do_completeEPNS0_15task_io_serviceEPNS0_25task_io_service_operationERKSt10error_codem(%rip), %rax
	movq	%rbx, 24(%rsp)
	movl	$0, 16(%rbx)
	movq	$0, (%rbx)
	movq	$0, 40(%rbx)
	movq	%rax, 8(%rbx)
	movq	112(%rsp), %rax
	testq	%rax, %rax
	je	.L736
	leaq	24(%rbx), %r15
	movl	$2, %edx
	movq	%r12, %rsi
	movq	%r15, %rdi
.LEHB14:
	call	*%rax
.LEHE14:
	movdqa	112(%rsp), %xmm0
	movups	%xmm0, 40(%rbx)
.L736:
	movq	128(%rsp), %rax
	pxor	%xmm0, %xmm0
	movq	%rax, 56(%rbx)
	movq	136(%rsp), %rax
	movq	%rbx, 32(%rsp)
	movaps	%xmm0, 128(%rsp)
	movq	%rax, 64(%rbx)
	movq	48(%rbp), %rax
	leaq	24(%rax), %rdi
	call	pthread_mutex_lock@PLT
	movq	48(%rbp), %rdi
	cmpb	$0, 64(%rdi)
	je	.L740
	cmpq	$0, 80(%rdi)
	movq	$0, (%rbx)
	je	.L741
	movq	80(%rdi), %rax
	movq	%rbx, (%rax)
	movq	%rbx, 80(%rdi)
.L742:
	addq	$24, %rdi
	call	pthread_mutex_unlock@PLT
.L743:
	movq	136(%rsp), %rbx
	testq	%rbx, %rbx
	je	.L759
	cmpq	$0, _ZL28__gthrw___pthread_key_createPjPFvPvE@GOTPCREL(%rip)
	je	.L760
	lock subl	$1, 8(%rbx)
	je	.L847
	.p2align 4,,10
	.p2align 3
.L759:
	movq	112(%rsp), %rax
	testq	%rax, %rax
	je	.L764
	movl	$3, %edx
	movq	%r12, %rsi
	movq	%r12, %rdi
	call	*%rax
.L764:
	movq	88(%rsp), %rbx
	testq	%rbx, %rbx
	je	.L766
	cmpq	$0, _ZL28__gthrw___pthread_key_createPjPFvPvE@GOTPCREL(%rip)
	je	.L767
	lock subl	$1, 8(%rbx)
	je	.L848
.L766:
	movq	64(%rsp), %rax
	testq	%rax, %rax
	je	.L718
	leaq	48(%rsp), %rdi
	movl	$3, %edx
	movq	%rdi, %rsi
	call	*%rax
.L718:
	movq	152(%rsp), %rax
	xorq	%fs:40, %rax
	jne	.L849
	addq	$168, %rsp
	.cfi_remember_state
	.cfi_def_cfa_offset 56
	popq	%rbx
	.cfi_def_cfa_offset 48
	popq	%rbp
	.cfi_def_cfa_offset 40
	popq	%r12
	.cfi_def_cfa_offset 32
	popq	%r13
	.cfi_def_cfa_offset 24
	popq	%r14
	.cfi_def_cfa_offset 16
	popq	%r15
	.cfi_def_cfa_offset 8
	ret
	.p2align 4,,10
	.p2align 3
.L846:
	.cfi_restore_state
	lock addl	$1, 8(%rax)
	jmp	.L731
	.p2align 4,,10
	.p2align 3
.L741:
	movq	%rbx, 80(%rdi)
	movq	%rbx, 72(%rdi)
	jmp	.L742
	.p2align 4,,10
	.p2align 3
.L740:
	movb	$1, 64(%rdi)
	movq	48(%rbp), %rax
	leaq	24(%rax), %rdi
	call	pthread_mutex_unlock@PLT
	movq	48(%rbp), %rbp
	movq	$0, (%rbx)
	cmpq	$0, 96(%rbp)
	je	.L744
	movq	96(%rbp), %rax
	movq	%rbx, (%rax)
	movq	%rbx, 96(%rbp)
.L745:
	movq	40(%r13), %rbx
	cmpb	$0, 40(%rbx)
	jne	.L783
	testb	%r14b, %r14b
	je	.L746
.L783:
	.byte	0x66
	leaq	_ZN4asio6detail15keyword_tss_ptrINS0_10call_stackINS0_15task_io_serviceENS0_27task_io_service_thread_infoEE7contextEE6value_E@tlsgd(%rip), %rdi
	.value	0x6666
	rex64
	call	__tls_get_addr@PLT
	movq	(%rax), %rax
	testq	%rax, %rax
	jne	.L840
	jmp	.L746
	.p2align 4,,10
	.p2align 3
.L749:
	movq	16(%rax), %rax
	testq	%rax, %rax
	je	.L746
.L840:
	cmpq	(%rax), %rbx
	jne	.L749
	movq	8(%rax), %rax
	testq	%rax, %rax
	je	.L746
	addq	$1, 24(%rax)
	cmpq	$0, 16(%rax)
	movq	$0, 0(%rbp)
	je	.L752
	movq	16(%rax), %rdx
	movq	%rbp, (%rdx)
	movq	%rbp, 16(%rax)
	jmp	.L743
	.p2align 4,,10
	.p2align 3
.L760:
	movl	8(%rbx), %eax
	leal	-1(%rax), %edx
	cmpl	$1, %eax
	movl	%edx, 8(%rbx)
	jne	.L759
	movq	(%rbx), %rax
	movq	%rbx, %rdi
	call	*16(%rax)
	movl	12(%rbx), %eax
	leal	-1(%rax), %edx
	movl	%edx, 12(%rbx)
	jmp	.L775
	.p2align 4,,10
	.p2align 3
.L767:
	movl	8(%rbx), %eax
	leal	-1(%rax), %edx
	cmpl	$1, %eax
	movl	%edx, 8(%rbx)
	jne	.L766
	movq	(%rbx), %rax
	movq	%rbx, %rdi
	call	*16(%rax)
	movl	12(%rbx), %eax
	leal	-1(%rax), %edx
	movl	%edx, 12(%rbx)
	jmp	.L776
	.p2align 4,,10
	.p2align 3
.L746:
	lock addq	$1, 184(%rbx)
	leaq	48(%rbx), %r13
	movq	%r13, %rdi
	call	pthread_mutex_lock@PLT
	cmpq	$0, 200(%rbx)
	movq	$0, 0(%rbp)
	je	.L753
	movq	200(%rbx), %rax
	movq	%rbp, (%rax)
	movq	%rbp, 200(%rbx)
.L754:
	movq	136(%rbx), %rax
	orq	$1, %rax
	cmpq	$1, %rax
	movq	%rax, 136(%rbx)
	jne	.L850
	cmpb	$0, 176(%rbx)
	jne	.L757
	movq	144(%rbx), %rax
	testq	%rax, %rax
	je	.L757
	leaq	88(%rax), %rdx
	movb	$1, 176(%rbx)
	movl	96(%rax), %edi
	leaq	4(%rsp), %rcx
	movl	$3, %esi
	movl	$-2147483639, 4(%rsp)
	movq	%rdx, 8(%rsp)
	movl	88(%rax), %edx
	call	epoll_ctl@PLT
.L757:
	movq	%r13, %rdi
	call	pthread_mutex_unlock@PLT
	jmp	.L743
	.p2align 4,,10
	.p2align 3
.L744:
	movq	%rbx, 96(%rbp)
	movq	%rbx, 88(%rbp)
	jmp	.L745
	.p2align 4,,10
	.p2align 3
.L850:
	movq	%r13, %rdi
	call	pthread_mutex_unlock@PLT
	leaq	88(%rbx), %rdi
	call	pthread_cond_signal@PLT
	jmp	.L743
	.p2align 4,,10
	.p2align 3
.L752:
	movq	%rbp, 16(%rax)
	movq	%rbp, 8(%rax)
	jmp	.L743
	.p2align 4,,10
	.p2align 3
.L847:
	movq	(%rbx), %rax
	movq	%rbx, %rdi
	call	*16(%rax)
	movl	$-1, %eax
	lock xaddl	%eax, 12(%rbx)
.L775:
	cmpl	$1, %eax
	jne	.L759
	movq	(%rbx), %rax
	movq	%rbx, %rdi
	call	*24(%rax)
	jmp	.L759
	.p2align 4,,10
	.p2align 3
.L848:
	movq	(%rbx), %rax
	movq	%rbx, %rdi
	call	*16(%rax)
	movl	$-1, %eax
	lock xaddl	%eax, 12(%rbx)
.L776:
	cmpl	$1, %eax
	jne	.L766
	movq	(%rbx), %rax
	movq	%rbx, %rdi
	call	*24(%rax)
	jmp	.L766
	.p2align 4,,10
	.p2align 3
.L753:
	movq	%rbp, 200(%rbx)
	movq	%rbp, 192(%rbx)
	jmp	.L754
.L845:
	testl	%eax, %eax
	jne	.L838
.L723:
.LEHB15:
	call	_ZSt20__throw_bad_weak_ptrv@PLT
.LEHE15:
.L778:
	movq	%rax, %rbx
	movq	64(%rsp), %rax
	testq	%rax, %rax
	je	.L844
	leaq	48(%rsp), %rdi
	movl	$3, %edx
	movq	%rdi, %rsi
	call	*%rax
.L844:
	movq	%rbx, %rdi
.LEHB16:
	call	_Unwind_Resume@PLT
.LEHE16:
.L722:
.LEHB17:
	call	_ZSt20__throw_bad_weak_ptrv@PLT
.LEHE17:
.L849:
	call	__stack_chk_fail@PLT
.L782:
	movq	%rax, %rbp
	movq	40(%rbx), %rax
	testq	%rax, %rax
	je	.L738
	movl	$3, %edx
	movq	%r15, %rsi
	movq	%r15, %rdi
	call	*%rax
.L738:
	leaq	32(%rsp), %rsi
	leaq	24(%rsp), %rdi
	movq	%rbp, %rbx
	call	_ZN4asio6detail18completion_handlerIZN7asiopal8Executor4PostERKSt8functionIFvvEEEUlvE_E3ptr5resetEv.isra.104
.L739:
	leaq	48(%rsp), %r13
	movq	%r12, %rdi
	call	_ZZN7asiopal8Executor4PostERKSt8functionIFvvEEENUlvE_D1Ev
.L730:
	movq	%r13, %rdi
	call	_ZZN7asiopal8Executor4PostERKSt8functionIFvvEEENUlvE_D1Ev
	jmp	.L844
.L780:
	movq	%rax, %rbx
	jmp	.L739
.L779:
	movq	%rax, %rbx
	movq	64(%rsp), %rax
	testq	%rax, %rax
	je	.L844
	movl	$3, %edx
	movq	%r13, %rsi
	movq	%r13, %rdi
	call	*%rax
	jmp	.L844
.L781:
	movq	%rax, %rbx
	movq	112(%rsp), %rax
	testq	%rax, %rax
	je	.L730
	movl	$3, %edx
	movq	%r12, %rsi
	movq	%r12, %rdi
	call	*%rax
	jmp	.L730
	.cfi_endproc
.LFE6879:
	.section	.gcc_except_table
.LLSDA6879:
	.byte	0xff
	.byte	0xff
	.byte	0x1
	.uleb128 .LLSDACSE6879-.LLSDACSB6879
.LLSDACSB6879:
	.uleb128 .LEHB11-.LFB6879
	.uleb128 .LEHE11-.LEHB11
	.uleb128 .L779-.LFB6879
	.uleb128 0
	.uleb128 .LEHB12-.LFB6879
	.uleb128 .LEHE12-.LEHB12
	.uleb128 .L781-.LFB6879
	.uleb128 0
	.uleb128 .LEHB13-.LFB6879
	.uleb128 .LEHE13-.LEHB13
	.uleb128 .L780-.LFB6879
	.uleb128 0
	.uleb128 .LEHB14-.LFB6879
	.uleb128 .LEHE14-.LEHB14
	.uleb128 .L782-.LFB6879
	.uleb128 0
	.uleb128 .LEHB15-.LFB6879
	.uleb128 .LEHE15-.LEHB15
	.uleb128 .L778-.LFB6879
	.uleb128 0
	.uleb128 .LEHB16-.LFB6879
	.uleb128 .LEHE16-.LEHB16
	.uleb128 0
	.uleb128 0
	.uleb128 .LEHB17-.LFB6879
	.uleb128 .LEHE17-.LEHB17
	.uleb128 .L778-.LFB6879
	.uleb128 0
.LLSDACSE6879:
	.text
	.size	_ZN7asiopal8Executor4PostERKSt8functionIFvvEE, .-_ZN7asiopal8Executor4PostERKSt8functionIFvvEE
	.section	.rodata._ZNSt12system_errorC2ESt10error_codePKc.str1.1,"aMS",@progbits,1
.LC23:
	.string	": "
	.section	.text._ZNSt12system_errorC2ESt10error_codePKc,"axG",@progbits,_ZNSt12system_errorC5ESt10error_codePKc,comdat
	.align 2
	.p2align 4,,15
	.weak	_ZNSt12system_errorC2ESt10error_codePKc
	.type	_ZNSt12system_errorC2ESt10error_codePKc, @function
_ZNSt12system_errorC2ESt10error_codePKc:
.LFB2246:
	.cfi_startproc
	.cfi_personality 0x9b,DW.ref.__gxx_personality_v0
	.cfi_lsda 0x1b,.LLSDA2246
	pushq	%r15
	.cfi_def_cfa_offset 16
	.cfi_offset 15, -16
	pushq	%r14
	.cfi_def_cfa_offset 24
	.cfi_offset 14, -24
	movq	%rdx, %r14
	pushq	%r13
	.cfi_def_cfa_offset 32
	.cfi_offset 13, -32
	pushq	%r12
	.cfi_def_cfa_offset 40
	.cfi_offset 12, -40
	movq	%rdi, %r13
	pushq	%rbp
	.cfi_def_cfa_offset 48
	.cfi_offset 6, -48
	pushq	%rbx
	.cfi_def_cfa_offset 56
	.cfi_offset 3, -56
	movq	%rcx, %r12
	movq	%rsi, %r15
	subq	$120, %rsp
	.cfi_def_cfa_offset 176
	movq	%fs:40, %rax
	movq	%rax, 104(%rsp)
	xorl	%eax, %eax
	movq	(%rdx), %rax
	leaq	64(%rsp), %rbx
	movl	%esi, %edx
	movq	%r14, %rsi
	movq	%rbx, %rdi
.LEHB18:
	call	*32(%rax)
.LEHE18:
	leaq	.LC23(%rip), %rcx
	movl	$2, %r8d
	xorl	%edx, %edx
	xorl	%esi, %esi
	movq	%rbx, %rdi
.LEHB19:
	call	_ZNSt7__cxx1112basic_stringIcSt11char_traitsIcESaIcEE10_M_replaceEmmPKcm@PLT
.LEHE19:
	leaq	32(%rsp), %rbp
	leaq	16(%rbp), %rdx
	movq	%rdx, 32(%rsp)
	movq	(%rax), %rcx
	leaq	16(%rax), %rdx
	cmpq	%rdx, %rcx
	je	.L871
	movq	%rcx, 32(%rsp)
	movq	16(%rax), %rcx
	movq	%rcx, 48(%rsp)
.L853:
	movq	8(%rax), %rcx
	movq	%r12, %rdi
	movb	$0, 16(%rax)
	movq	%rcx, 40(%rsp)
	movq	%rdx, (%rax)
	movq	$0, 8(%rax)
	call	strlen@PLT
	movq	%r12, %rcx
	movq	%rax, %r8
	xorl	%edx, %edx
	xorl	%esi, %esi
	movq	%rbp, %rdi
.LEHB20:
	call	_ZNSt7__cxx1112basic_stringIcSt11char_traitsIcESaIcEE10_M_replaceEmmPKcm@PLT
.LEHE20:
	movq	%rsp, %r12
	leaq	16(%r12), %rdx
	movq	%rdx, (%rsp)
	movq	(%rax), %rcx
	leaq	16(%rax), %rdx
	cmpq	%rdx, %rcx
	je	.L872
	movq	%rcx, (%rsp)
	movq	16(%rax), %rcx
	movq	%rcx, 16(%rsp)
.L855:
	movq	8(%rax), %rcx
	movb	$0, 16(%rax)
	movq	%r12, %rsi
	movq	%r13, %rdi
	movq	%rcx, 8(%rsp)
	movq	%rdx, (%rax)
	movq	$0, 8(%rax)
.LEHB21:
	call	_ZNSt13runtime_errorC2ERKNSt7__cxx1112basic_stringIcSt11char_traitsIcESaIcEEE@PLT
.LEHE21:
	movq	(%rsp), %rdi
	addq	$16, %r12
	cmpq	%r12, %rdi
	je	.L856
	call	_ZdlPv@PLT
.L856:
	movq	32(%rsp), %rdi
	addq	$16, %rbp
	cmpq	%rbp, %rdi
	je	.L857
	call	_ZdlPv@PLT
.L857:
	movq	64(%rsp), %rdi
	addq	$16, %rbx
	cmpq	%rbx, %rdi
	je	.L858
	call	_ZdlPv@PLT
.L858:
	movq	_ZTVSt12system_error@GOTPCREL(%rip), %rax
	movq	%r15, 16(%r13)
	movq	%r14, 24(%r13)
	addq	$16, %rax
	movq	%rax, 0(%r13)
	movq	104(%rsp), %rax
	xorq	%fs:40, %rax
	jne	.L873
	addq	$120, %rsp
	.cfi_remember_state
	.cfi_def_cfa_offset 56
	popq	%rbx
	.cfi_def_cfa_offset 48
	popq	%rbp
	.cfi_def_cfa_offset 40
	popq	%r12
	.cfi_def_cfa_offset 32
	popq	%r13
	.cfi_def_cfa_offset 24
	popq	%r14
	.cfi_def_cfa_offset 16
	popq	%r15
	.cfi_def_cfa_offset 8
	ret
	.p2align 4,,10
	.p2align 3
.L871:
	.cfi_restore_state
	movdqu	16(%rax), %xmm0
	movaps	%xmm0, 48(%rsp)
	jmp	.L853
	.p2align 4,,10
	.p2align 3
.L872:
	movdqu	16(%rax), %xmm0
	movaps	%xmm0, 16(%rsp)
	jmp	.L855
.L873:
	call	__stack_chk_fail@PLT
.L868:
	movq	(%rsp), %rdi
	addq	$16, %r12
	movq	%rax, %r13
	cmpq	%r12, %rdi
	je	.L860
	call	_ZdlPv@PLT
.L860:
	movq	%r13, %r12
.L861:
	movq	32(%rsp), %rdi
	addq	$16, %rbp
	cmpq	%rbp, %rdi
	je	.L863
	call	_ZdlPv@PLT
.L863:
	movq	64(%rsp), %rdi
	addq	$16, %rbx
	cmpq	%rbx, %rdi
	je	.L864
	call	_ZdlPv@PLT
.L864:
	movq	%r12, %rdi
.LEHB22:
	call	_Unwind_Resume@PLT
.LEHE22:
.L866:
	movq	%rax, %r12
	jmp	.L863
.L867:
	movq	%rax, %r12
	jmp	.L861
	.cfi_endproc
.LFE2246:
	.section	.gcc_except_table
.LLSDA2246:
	.byte	0xff
	.byte	0xff
	.byte	0x1
	.uleb128 .LLSDACSE2246-.LLSDACSB2246
.LLSDACSB2246:
	.uleb128 .LEHB18-.LFB2246
	.uleb128 .LEHE18-.LEHB18
	.uleb128 0
	.uleb128 0
	.uleb128 .LEHB19-.LFB2246
	.uleb128 .LEHE19-.LEHB19
	.uleb128 .L866-.LFB2246
	.uleb128 0
	.uleb128 .LEHB20-.LFB2246
	.uleb128 .LEHE20-.LEHB20
	.uleb128 .L867-.LFB2246
	.uleb128 0
	.uleb128 .LEHB21-.LFB2246
	.uleb128 .LEHE21-.LEHB21
	.uleb128 .L868-.LFB2246
	.uleb128 0
	.uleb128 .LEHB22-.LFB2246
	.uleb128 .LEHE22-.LEHB22
	.uleb128 0
	.uleb128 0
.LLSDACSE2246:
	.section	.text._ZNSt12system_errorC2ESt10error_codePKc,"axG",@progbits,_ZNSt12system_errorC5ESt10error_codePKc,comdat
	.size	_ZNSt12system_errorC2ESt10error_codePKc, .-_ZNSt12system_errorC2ESt10error_codePKc
	.weak	_ZNSt12system_errorC1ESt10error_codePKc
	.set	_ZNSt12system_errorC1ESt10error_codePKc,_ZNSt12system_errorC2ESt10error_codePKc
	.section	.text._ZN4asio6detail14do_throw_errorERKSt10error_codePKc,"axG",@progbits,_ZN4asio6detail14do_throw_errorERKSt10error_codePKc,comdat
	.p2align 4,,15
	.weak	_ZN4asio6detail14do_throw_errorERKSt10error_codePKc
	.type	_ZN4asio6detail14do_throw_errorERKSt10error_codePKc, @function
_ZN4asio6detail14do_throw_errorERKSt10error_codePKc:
.LFB2339:
	.cfi_startproc
	.cfi_personality 0x9b,DW.ref.__gxx_personality_v0
	.cfi_lsda 0x1b,.LLSDA2339
	pushq	%rbp
	.cfi_def_cfa_offset 16
	.cfi_offset 6, -16
	pushq	%rbx
	.cfi_def_cfa_offset 24
	.cfi_offset 3, -24
	movq	%rsi, %rcx
	subq	$56, %rsp
	.cfi_def_cfa_offset 80
	movq	8(%rdi), %rdx
	movl	(%rdi), %esi
	movq	%rsp, %rbp
	movq	%rbp, %rdi
	movq	%fs:40, %rax
	movq	%rax, 40(%rsp)
	xorl	%eax, %eax
.LEHB23:
	call	_ZNSt12system_errorC1ESt10error_codePKc@PLT
.LEHE23:
	movl	$32, %edi
	call	__cxa_allocate_exception@PLT
	movq	%rbp, %rsi
	movq	%rax, %rdi
	movq	%rax, %rbx
	call	_ZNSt13runtime_errorC2ERKS_@PLT
	movq	_ZTVSt12system_error@GOTPCREL(%rip), %rax
	movq	_ZNSt12system_errorD1Ev@GOTPCREL(%rip), %rdx
	movq	%rbx, %rdi
	movdqa	16(%rsp), %xmm0
	movq	_ZTISt12system_error@GOTPCREL(%rip), %rsi
	movups	%xmm0, 16(%rbx)
	addq	$16, %rax
	movq	%rax, (%rbx)
.LEHB24:
	call	__cxa_throw@PLT
.LEHE24:
.L877:
	movq	%rax, %rbx
	movq	%rbp, %rdi
	call	_ZNSt12system_errorD1Ev@PLT
	movq	%rbx, %rdi
.LEHB25:
	call	_Unwind_Resume@PLT
.LEHE25:
	.cfi_endproc
.LFE2339:
	.section	.gcc_except_table
.LLSDA2339:
	.byte	0xff
	.byte	0xff
	.byte	0x1
	.uleb128 .LLSDACSE2339-.LLSDACSB2339
.LLSDACSB2339:
	.uleb128 .LEHB23-.LFB2339
	.uleb128 .LEHE23-.LEHB23
	.uleb128 0
	.uleb128 0
	.uleb128 .LEHB24-.LFB2339
	.uleb128 .LEHE24-.LEHB24
	.uleb128 .L877-.LFB2339
	.uleb128 0
	.uleb128 .LEHB25-.LFB2339
	.uleb128 .LEHE25-.LEHB25
	.uleb128 0
	.uleb128 0
.LLSDACSE2339:
	.section	.text._ZN4asio6detail14do_throw_errorERKSt10error_codePKc,"axG",@progbits,_ZN4asio6detail14do_throw_errorERKSt10error_codePKc,comdat
	.size	_ZN4asio6detail14do_throw_errorERKSt10error_codePKc, .-_ZN4asio6detail14do_throw_errorERKSt10error_codePKc
	.section	.text._ZN4asio6detail14strand_service16on_dispatch_exitD2Ev,"axG",@progbits,_ZN4asio6detail14strand_service16on_dispatch_exitD5Ev,comdat
	.align 2
	.p2align 4,,15
	.weak	_ZN4asio6detail14strand_service16on_dispatch_exitD2Ev
	.type	_ZN4asio6detail14strand_service16on_dispatch_exitD2Ev, @function
_ZN4asio6detail14strand_service16on_dispatch_exitD2Ev:
.LFB6293:
	.cfi_startproc
	pushq	%r12
	.cfi_def_cfa_offset 16
	.cfi_offset 12, -16
	pushq	%rbp
	.cfi_def_cfa_offset 24
	.cfi_offset 6, -24
	movq	%rdi, %rbp
	pushq	%rbx
	.cfi_def_cfa_offset 32
	.cfi_offset 3, -32
	subq	$32, %rsp
	.cfi_def_cfa_offset 64
	movq	%fs:40, %rax
	movq	%rax, 24(%rsp)
	xorl	%eax, %eax
	movq	8(%rdi), %rax
	leaq	24(%rax), %rdi
	call	pthread_mutex_lock@PLT
	movq	8(%rbp), %rax
	movq	72(%rax), %rbx
	testq	%rbx, %rbx
	je	.L913
	movq	96(%rax), %rdx
	testq	%rdx, %rdx
	je	.L882
	movq	%rbx, (%rdx)
	movq	88(%rax), %rbx
.L883:
	movq	80(%rax), %rdx
	movq	$0, 72(%rax)
	movq	$0, 80(%rax)
	movq	%rdx, 96(%rax)
.L881:
	testq	%rbx, %rbx
	setne	64(%rax)
	movq	8(%rbp), %rax
	leaq	24(%rax), %rdi
	call	pthread_mutex_unlock@PLT
	testq	%rbx, %rbx
	jne	.L914
.L879:
	movq	24(%rsp), %rax
	xorq	%fs:40, %rax
	jne	.L915
	addq	$32, %rsp
	.cfi_remember_state
	.cfi_def_cfa_offset 32
	popq	%rbx
	.cfi_def_cfa_offset 24
	popq	%rbp
	.cfi_def_cfa_offset 16
	popq	%r12
	.cfi_def_cfa_offset 8
	ret
	.p2align 4,,10
	.p2align 3
.L882:
	.cfi_restore_state
	movq	%rbx, 88(%rax)
	jmp	.L883
	.p2align 4,,10
	.p2align 3
.L914:
	movq	0(%rbp), %rbx
	movq	8(%rbp), %rbp
	cmpb	$0, 40(%rbx)
	je	.L885
	.byte	0x66
	leaq	_ZN4asio6detail15keyword_tss_ptrINS0_10call_stackINS0_15task_io_serviceENS0_27task_io_service_thread_infoEE7contextEE6value_E@tlsgd(%rip), %rdi
	.value	0x6666
	rex64
	call	__tls_get_addr@PLT
	movq	(%rax), %rax
	testq	%rax, %rax
	jne	.L910
	jmp	.L885
	.p2align 4,,10
	.p2align 3
.L887:
	movq	16(%rax), %rax
	testq	%rax, %rax
	je	.L885
.L910:
	cmpq	(%rax), %rbx
	jne	.L887
	movq	8(%rax), %rax
	testq	%rax, %rax
	je	.L885
	addq	$1, 24(%rax)
	cmpq	$0, 16(%rax)
	movq	$0, 0(%rbp)
	je	.L890
	movq	16(%rax), %rdx
	movq	%rbp, (%rdx)
	movq	%rbp, 16(%rax)
	jmp	.L879
	.p2align 4,,10
	.p2align 3
.L885:
	lock addq	$1, 184(%rbx)
	leaq	48(%rbx), %r12
	movq	%r12, %rdi
	call	pthread_mutex_lock@PLT
	cmpq	$0, 200(%rbx)
	movq	$0, 0(%rbp)
	je	.L891
	movq	200(%rbx), %rax
	movq	%rbp, (%rax)
	movq	%rbp, 200(%rbx)
.L892:
	movq	136(%rbx), %rax
	orq	$1, %rax
	cmpq	$1, %rax
	movq	%rax, 136(%rbx)
	jne	.L916
	cmpb	$0, 176(%rbx)
	jne	.L895
	movq	144(%rbx), %rax
	testq	%rax, %rax
	je	.L895
	leaq	88(%rax), %rdx
	movb	$1, 176(%rbx)
	movl	96(%rax), %edi
	leaq	12(%rsp), %rcx
	movl	$3, %esi
	movl	$-2147483639, 12(%rsp)
	movq	%rdx, 16(%rsp)
	movl	88(%rax), %edx
	call	epoll_ctl@PLT
.L895:
	movq	%r12, %rdi
	call	pthread_mutex_unlock@PLT
	jmp	.L879
	.p2align 4,,10
	.p2align 3
.L913:
	movq	88(%rax), %rbx
	jmp	.L881
	.p2align 4,,10
	.p2align 3
.L891:
	movq	%rbp, 200(%rbx)
	movq	%rbp, 192(%rbx)
	jmp	.L892
	.p2align 4,,10
	.p2align 3
.L916:
	movq	%r12, %rdi
	call	pthread_mutex_unlock@PLT
	leaq	88(%rbx), %rdi
	call	pthread_cond_signal@PLT
	jmp	.L879
	.p2align 4,,10
	.p2align 3
.L890:
	movq	%rbp, 16(%rax)
	movq	%rbp, 8(%rax)
	jmp	.L879
.L915:
	call	__stack_chk_fail@PLT
	.cfi_endproc
.LFE6293:
	.size	_ZN4asio6detail14strand_service16on_dispatch_exitD2Ev, .-_ZN4asio6detail14strand_service16on_dispatch_exitD2Ev
	.weak	_ZN4asio6detail14strand_service16on_dispatch_exitD1Ev
	.set	_ZN4asio6detail14strand_service16on_dispatch_exitD1Ev,_ZN4asio6detail14strand_service16on_dispatch_exitD2Ev
	.section	.text._ZN4asio6detail14strand_service19on_do_complete_exitD2Ev,"axG",@progbits,_ZN4asio6detail14strand_service19on_do_complete_exitD5Ev,comdat
	.align 2
	.p2align 4,,15
	.weak	_ZN4asio6detail14strand_service19on_do_complete_exitD2Ev
	.type	_ZN4asio6detail14strand_service19on_do_complete_exitD2Ev, @function
_ZN4asio6detail14strand_service19on_do_complete_exitD2Ev:
.LFB6298:
	.cfi_startproc
	pushq	%r12
	.cfi_def_cfa_offset 16
	.cfi_offset 12, -16
	pushq	%rbp
	.cfi_def_cfa_offset 24
	.cfi_offset 6, -24
	movq	%rdi, %rbp
	pushq	%rbx
	.cfi_def_cfa_offset 32
	.cfi_offset 3, -32
	subq	$32, %rsp
	.cfi_def_cfa_offset 64
	movq	%fs:40, %rax
	movq	%rax, 24(%rsp)
	xorl	%eax, %eax
	movq	8(%rdi), %rax
	leaq	24(%rax), %rdi
	call	pthread_mutex_lock@PLT
	movq	8(%rbp), %rax
	movq	72(%rax), %rbx
	testq	%rbx, %rbx
	je	.L951
	movq	96(%rax), %rdx
	testq	%rdx, %rdx
	je	.L920
	movq	%rbx, (%rdx)
	movq	88(%rax), %rbx
.L921:
	movq	80(%rax), %rdx
	movq	$0, 72(%rax)
	movq	$0, 80(%rax)
	movq	%rdx, 96(%rax)
.L919:
	testq	%rbx, %rbx
	setne	64(%rax)
	movq	8(%rbp), %rax
	leaq	24(%rax), %rdi
	call	pthread_mutex_unlock@PLT
	testq	%rbx, %rbx
	jne	.L952
.L917:
	movq	24(%rsp), %rax
	xorq	%fs:40, %rax
	jne	.L953
	addq	$32, %rsp
	.cfi_remember_state
	.cfi_def_cfa_offset 32
	popq	%rbx
	.cfi_def_cfa_offset 24
	popq	%rbp
	.cfi_def_cfa_offset 16
	popq	%r12
	.cfi_def_cfa_offset 8
	ret
	.p2align 4,,10
	.p2align 3
.L920:
	.cfi_restore_state
	movq	%rbx, 88(%rax)
	jmp	.L921
	.p2align 4,,10
	.p2align 3
.L952:
	.byte	0x66
	leaq	_ZN4asio6detail15keyword_tss_ptrINS0_10call_stackINS0_15task_io_serviceENS0_27task_io_service_thread_infoEE7contextEE6value_E@tlsgd(%rip), %rdi
	.value	0x6666
	rex64
	call	__tls_get_addr@PLT
	movq	0(%rbp), %rbx
	movq	8(%rbp), %rbp
	movq	(%rax), %rax
	testq	%rax, %rax
	jne	.L948
	jmp	.L923
	.p2align 4,,10
	.p2align 3
.L925:
	movq	16(%rax), %rax
	testq	%rax, %rax
	je	.L923
.L948:
	cmpq	(%rax), %rbx
	jne	.L925
	movq	8(%rax), %rax
	testq	%rax, %rax
	je	.L923
	addq	$1, 24(%rax)
	cmpq	$0, 16(%rax)
	movq	$0, 0(%rbp)
	je	.L928
	movq	16(%rax), %rdx
	movq	%rbp, (%rdx)
	movq	%rbp, 16(%rax)
	jmp	.L917
	.p2align 4,,10
	.p2align 3
.L951:
	movq	88(%rax), %rbx
	jmp	.L919
	.p2align 4,,10
	.p2align 3
.L923:
	lock addq	$1, 184(%rbx)
	leaq	48(%rbx), %r12
	movq	%r12, %rdi
	call	pthread_mutex_lock@PLT
	cmpq	$0, 200(%rbx)
	movq	$0, 0(%rbp)
	je	.L929
	movq	200(%rbx), %rax
	movq	%rbp, (%rax)
	movq	%rbp, 200(%rbx)
.L930:
	movq	136(%rbx), %rax
	orq	$1, %rax
	cmpq	$1, %rax
	movq	%rax, 136(%rbx)
	jne	.L954
	cmpb	$0, 176(%rbx)
	jne	.L933
	movq	144(%rbx), %rax
	testq	%rax, %rax
	je	.L933
	leaq	88(%rax), %rdx
	movb	$1, 176(%rbx)
	movl	96(%rax), %edi
	leaq	12(%rsp), %rcx
	movl	$3, %esi
	movl	$-2147483639, 12(%rsp)
	movq	%rdx, 16(%rsp)
	movl	88(%rax), %edx
	call	epoll_ctl@PLT
.L933:
	movq	%r12, %rdi
	call	pthread_mutex_unlock@PLT
	jmp	.L917
	.p2align 4,,10
	.p2align 3
.L928:
	movq	%rbp, 16(%rax)
	movq	%rbp, 8(%rax)
	jmp	.L917
	.p2align 4,,10
	.p2align 3
.L954:
	movq	%r12, %rdi
	call	pthread_mutex_unlock@PLT
	leaq	88(%rbx), %rdi
	call	pthread_cond_signal@PLT
	jmp	.L917
	.p2align 4,,10
	.p2align 3
.L929:
	movq	%rbp, 200(%rbx)
	movq	%rbp, 192(%rbx)
	jmp	.L930
.L953:
	call	__stack_chk_fail@PLT
	.cfi_endproc
.LFE6298:
	.size	_ZN4asio6detail14strand_service19on_do_complete_exitD2Ev, .-_ZN4asio6detail14strand_service19on_do_complete_exitD2Ev
	.weak	_ZN4asio6detail14strand_service19on_do_complete_exitD1Ev
	.set	_ZN4asio6detail14strand_service19on_do_complete_exitD1Ev,_ZN4asio6detail14strand_service19on_do_complete_exitD2Ev
	.section	.text._ZN4asio6detail14strand_service11do_completeEPNS0_15task_io_serviceEPNS0_25task_io_service_operationERKSt10error_codem,"axG",@progbits,_ZN4asio6detail14strand_service11do_completeEPNS0_15task_io_serviceEPNS0_25task_io_service_operationERKSt10error_codem,comdat
	.align 2
	.p2align 4,,15
	.weak	_ZN4asio6detail14strand_service11do_completeEPNS0_15task_io_serviceEPNS0_25task_io_service_operationERKSt10error_codem
	.type	_ZN4asio6detail14strand_service11do_completeEPNS0_15task_io_serviceEPNS0_25task_io_service_operationERKSt10error_codem, @function
_ZN4asio6detail14strand_service11do_completeEPNS0_15task_io_serviceEPNS0_25task_io_service_operationERKSt10error_codem:
.LFB6312:
	.cfi_startproc
	.cfi_personality 0x9b,DW.ref.__gxx_personality_v0
	.cfi_lsda 0x1b,.LLSDA6312
	pushq	%r12
	.cfi_def_cfa_offset 16
	.cfi_offset 12, -16
	pushq	%rbp
	.cfi_def_cfa_offset 24
	.cfi_offset 6, -24
	pushq	%rbx
	.cfi_def_cfa_offset 32
	.cfi_offset 3, -32
	subq	$80, %rsp
	.cfi_def_cfa_offset 112
	movq	%fs:40, %rax
	movq	%rax, 72(%rsp)
	xorl	%eax, %eax
	testq	%rdi, %rdi
	je	.L955
	movq	%rdi, %rbp
	movq	%rsi, %rbx
	movq	%rdx, %r12
	movq	%rsi, 48(%rsp)
	.byte	0x66
	leaq	_ZN4asio6detail15keyword_tss_ptrINS0_10call_stackINS0_14strand_service11strand_implEhE7contextEE6value_E@tlsgd(%rip), %rdi
	.value	0x6666
	rex64
	call	__tls_get_addr@PLT
	movq	%rbp, 8(%rsp)
	movq	(%rax), %rdx
	movq	8(%rsp), %xmm0
	movq	%rbx, 8(%rsp)
	movhps	8(%rsp), %xmm0
	movq	%rdx, 64(%rsp)
	leaq	48(%rsp), %rdx
	movaps	%xmm0, 32(%rsp)
	movq	%rdx, 56(%rsp)
	movq	%rdx, (%rax)
	jmp	.L959
	.p2align 4,,10
	.p2align 3
.L958:
	movq	$0, (%rax)
	xorl	%ecx, %ecx
	movq	%r12, %rdx
	movq	%rax, %rsi
	movq	%rbp, %rdi
.LEHB26:
	call	*8(%rax)
.LEHE26:
.L959:
	movq	88(%rbx), %rax
	testq	%rax, %rax
	je	.L957
	movq	(%rax), %rdx
	testq	%rdx, %rdx
	movq	%rdx, 88(%rbx)
	jne	.L958
	movq	$0, 96(%rbx)
	jmp	.L958
	.p2align 4,,10
	.p2align 3
.L957:
	movq	40(%rsp), %rax
	leaq	24(%rax), %rdi
	call	pthread_mutex_lock@PLT
	movq	40(%rsp), %rdi
	movq	72(%rdi), %rbx
	testq	%rbx, %rbx
	je	.L998
	movq	96(%rdi), %rax
	testq	%rax, %rax
	je	.L962
	movq	%rbx, (%rax)
	movq	88(%rdi), %rbx
.L963:
	movq	80(%rdi), %rax
	movq	$0, 72(%rdi)
	movq	$0, 80(%rdi)
	movq	%rax, 96(%rdi)
.L961:
	testq	%rbx, %rbx
	setne	64(%rdi)
	addq	$24, %rdi
	call	pthread_mutex_unlock@PLT
	testq	%rbx, %rbx
	jne	.L999
.L964:
	.byte	0x66
	leaq	_ZN4asio6detail15keyword_tss_ptrINS0_10call_stackINS0_14strand_service11strand_implEhE7contextEE6value_E@tlsgd(%rip), %rdi
	.value	0x6666
	rex64
	call	__tls_get_addr@PLT
	movq	64(%rsp), %rdx
	movq	%rdx, (%rax)
.L955:
	movq	72(%rsp), %rax
	xorq	%fs:40, %rax
	jne	.L1000
	addq	$80, %rsp
	.cfi_remember_state
	.cfi_def_cfa_offset 32
	popq	%rbx
	.cfi_def_cfa_offset 24
	popq	%rbp
	.cfi_def_cfa_offset 16
	popq	%r12
	.cfi_def_cfa_offset 8
	ret
	.p2align 4,,10
	.p2align 3
.L999:
	.cfi_restore_state
	.byte	0x66
	leaq	_ZN4asio6detail15keyword_tss_ptrINS0_10call_stackINS0_15task_io_serviceENS0_27task_io_service_thread_infoEE7contextEE6value_E@tlsgd(%rip), %rdi
	.value	0x6666
	rex64
	call	__tls_get_addr@PLT
	movq	32(%rsp), %rbx
	movq	40(%rsp), %rbp
	movq	(%rax), %rax
	testq	%rax, %rax
	jne	.L995
	jmp	.L965
	.p2align 4,,10
	.p2align 3
.L967:
	movq	16(%rax), %rax
	testq	%rax, %rax
	je	.L965
.L995:
	cmpq	(%rax), %rbx
	jne	.L967
	movq	8(%rax), %rax
	testq	%rax, %rax
	je	.L965
	addq	$1, 24(%rax)
	cmpq	$0, 16(%rax)
	movq	$0, 0(%rbp)
	je	.L970
	movq	16(%rax), %rdx
	movq	%rbp, (%rdx)
	movq	%rbp, 16(%rax)
	jmp	.L964
	.p2align 4,,10
	.p2align 3
.L998:
	movq	88(%rdi), %rbx
	jmp	.L961
	.p2align 4,,10
	.p2align 3
.L962:
	movq	%rbx, 88(%rdi)
	jmp	.L963
	.p2align 4,,10
	.p2align 3
.L965:
	lock addq	$1, 184(%rbx)
	leaq	48(%rbx), %r12
	movq	%r12, %rdi
	call	pthread_mutex_lock@PLT
	cmpq	$0, 200(%rbx)
	movq	$0, 0(%rbp)
	je	.L971
	movq	200(%rbx), %rax
	movq	%rbp, (%rax)
	movq	%rbp, 200(%rbx)
.L972:
	movq	136(%rbx), %rax
	orq	$1, %rax
	cmpq	$1, %rax
	movq	%rax, 136(%rbx)
	jne	.L1001
	cmpb	$0, 176(%rbx)
	jne	.L975
	movq	144(%rbx), %rax
	testq	%rax, %rax
	je	.L975
	leaq	88(%rax), %rdx
	movb	$1, 176(%rbx)
	movl	96(%rax), %edi
	leaq	20(%rsp), %rcx
	movl	$3, %esi
	movl	$-2147483639, 20(%rsp)
	movq	%rdx, 24(%rsp)
	movl	88(%rax), %edx
	call	epoll_ctl@PLT
.L975:
	movq	%r12, %rdi
	call	pthread_mutex_unlock@PLT
	jmp	.L964
	.p2align 4,,10
	.p2align 3
.L970:
	movq	%rbp, 16(%rax)
	movq	%rbp, 8(%rax)
	jmp	.L964
.L1001:
	movq	%r12, %rdi
	call	pthread_mutex_unlock@PLT
	leaq	88(%rbx), %rdi
	call	pthread_cond_signal@PLT
	jmp	.L964
.L971:
	movq	%rbp, 200(%rbx)
	movq	%rbp, 192(%rbx)
	jmp	.L972
.L1000:
	call	__stack_chk_fail@PLT
.L978:
	leaq	32(%rsp), %rdi
	movq	%rax, %rbx
	call	_ZN4asio6detail14strand_service19on_do_complete_exitD1Ev@PLT
	.byte	0x66
	leaq	_ZN4asio6detail15keyword_tss_ptrINS0_10call_stackINS0_14strand_service11strand_implEhE7contextEE6value_E@tlsgd(%rip), %rdi
	.value	0x6666
	rex64
	call	__tls_get_addr@PLT
	movq	64(%rsp), %rdx
	movq	%rbx, %rdi
	movq	%rdx, (%rax)
.LEHB27:
	call	_Unwind_Resume@PLT
.LEHE27:
	.cfi_endproc
.LFE6312:
	.section	.gcc_except_table
.LLSDA6312:
	.byte	0xff
	.byte	0xff
	.byte	0x1
	.uleb128 .LLSDACSE6312-.LLSDACSB6312
.LLSDACSB6312:
	.uleb128 .LEHB26-.LFB6312
	.uleb128 .LEHE26-.LEHB26
	.uleb128 .L978-.LFB6312
	.uleb128 0
	.uleb128 .LEHB27-.LFB6312
	.uleb128 .LEHE27-.LEHB27
	.uleb128 0
	.uleb128 0
.LLSDACSE6312:
	.section	.text._ZN4asio6detail14strand_service11do_completeEPNS0_15task_io_serviceEPNS0_25task_io_service_operationERKSt10error_codem,"axG",@progbits,_ZN4asio6detail14strand_service11do_completeEPNS0_15task_io_serviceEPNS0_25task_io_service_operationERKSt10error_codem,comdat
	.size	_ZN4asio6detail14strand_service11do_completeEPNS0_15task_io_serviceEPNS0_25task_io_service_operationERKSt10error_codem, .-_ZN4asio6detail14strand_service11do_completeEPNS0_15task_io_serviceEPNS0_25task_io_service_operationERKSt10error_codem
	.section	.text._ZZSt9call_onceIMNSt13__future_base13_State_baseV2EFvPSt8functionIFSt10unique_ptrINS0_12_Result_baseENS4_8_DeleterEEvEEPbEJPS1_S9_SA_EEvRSt9once_flagOT_DpOT0_ENKUlvE0_clEv,"axG",@progbits,_ZZSt9call_onceIMNSt13__future_base13_State_baseV2EFvPSt8functionIFSt10unique_ptrINS0_12_Result_baseENS4_8_DeleterEEvEEPbEJPS1_S9_SA_EEvRSt9once_flagOT_DpOT0_ENKUlvE0_clEv,comdat
	.align 2
	.p2align 4,,15
	.weak	_ZZSt9call_onceIMNSt13__future_base13_State_baseV2EFvPSt8functionIFSt10unique_ptrINS0_12_Result_baseENS4_8_DeleterEEvEEPbEJPS1_S9_SA_EEvRSt9once_flagOT_DpOT0_ENKUlvE0_clEv
	.type	_ZZSt9call_onceIMNSt13__future_base13_State_baseV2EFvPSt8functionIFSt10unique_ptrINS0_12_Result_baseENS4_8_DeleterEEvEEPbEJPS1_S9_SA_EEvRSt9once_flagOT_DpOT0_ENKUlvE0_clEv, @function
_ZZSt9call_onceIMNSt13__future_base13_State_baseV2EFvPSt8functionIFSt10unique_ptrINS0_12_Result_baseENS4_8_DeleterEEvEEPbEJPS1_S9_SA_EEvRSt9once_flagOT_DpOT0_ENKUlvE0_clEv:
.LFB7491:
	.cfi_startproc
	subq	$8, %rsp
	.cfi_def_cfa_offset 16
	.byte	0x66
	leaq	_ZSt15__once_callable@tlsgd(%rip), %rdi
	.value	0x6666
	rex64
	call	__tls_get_addr@PLT
	movq	(%rax), %rax
	movq	16(%rax), %rdx
	movq	(%rax), %rcx
	movq	(%rdx), %rsi
	movq	24(%rax), %rdx
	movq	8(%rax), %rax
	movq	8(%rcx), %rdi
	movq	(%rdx), %rdx
	addq	(%rax), %rdi
	movq	(%rcx), %rax
	testb	$1, %al
	je	.L1003
	movq	(%rdi), %rcx
	movq	-1(%rcx,%rax), %rax
.L1003:
	addq	$8, %rsp
	.cfi_def_cfa_offset 8
	jmp	*%rax
	.cfi_endproc
.LFE7491:
	.size	_ZZSt9call_onceIMNSt13__future_base13_State_baseV2EFvPSt8functionIFSt10unique_ptrINS0_12_Result_baseENS4_8_DeleterEEvEEPbEJPS1_S9_SA_EEvRSt9once_flagOT_DpOT0_ENKUlvE0_clEv, .-_ZZSt9call_onceIMNSt13__future_base13_State_baseV2EFvPSt8functionIFSt10unique_ptrINS0_12_Result_baseENS4_8_DeleterEEvEEPbEJPS1_S9_SA_EEvRSt9once_flagOT_DpOT0_ENKUlvE0_clEv
	.section	.rodata._ZNSt7promiseIbED2Ev.str1.1,"aMS",@progbits,1
.LC24:
	.string	"std::future_error: "
	.section	.text._ZNSt7promiseIbED2Ev,"axG",@progbits,_ZNSt7promiseIbED5Ev,comdat
	.align 2
	.p2align 4,,15
	.weak	_ZNSt7promiseIbED2Ev
	.type	_ZNSt7promiseIbED2Ev, @function
_ZNSt7promiseIbED2Ev:
.LFB7657:
	.cfi_startproc
	.cfi_personality 0x9b,DW.ref.__gxx_personality_v0
	.cfi_lsda 0x1b,.LLSDA7657
	pushq	%r15
	.cfi_def_cfa_offset 16
	.cfi_offset 15, -16
	pushq	%r14
	.cfi_def_cfa_offset 24
	.cfi_offset 14, -24
	pushq	%r13
	.cfi_def_cfa_offset 32
	.cfi_offset 13, -32
	pushq	%r12
	.cfi_def_cfa_offset 40
	.cfi_offset 12, -40
	pushq	%rbp
	.cfi_def_cfa_offset 48
	.cfi_offset 6, -48
	pushq	%rbx
	.cfi_def_cfa_offset 56
	.cfi_offset 3, -56
	movq	%rdi, %rbx
	subq	$152, %rsp
	.cfi_def_cfa_offset 208
	movq	(%rdi), %rbp
	movq	%fs:40, %rax
	movq	%rax, 136(%rsp)
	xorl	%eax, %eax
	testq	%rbp, %rbp
	je	.L1049
	movq	8(%rdi), %r12
	testq	%r12, %r12
	je	.L1011
	movl	8(%r12), %eax
	cmpl	$1, %eax
	je	.L1049
.L1011:
	movq	16(%rbx), %r14
	movq	$0, 16(%rbx)
	testq	%r14, %r14
	je	.L1013
	call	_ZSt15future_categoryv@PLT
	movq	%rax, %r15
	movq	(%rax), %rax
	leaq	64(%rsp), %r12
	movl	$4, %edx
	movq	%r15, %rsi
	movq	%r12, %rdi
	call	*32(%rax)
	leaq	.LC24(%rip), %rcx
	movl	$19, %r8d
	xorl	%edx, %edx
	xorl	%esi, %esi
	movq	%r12, %rdi
.LEHB28:
	call	_ZNSt7__cxx1112basic_stringIcSt11char_traitsIcESaIcEE10_M_replaceEmmPKcm@PLT
.LEHE28:
	leaq	96(%rsp), %r13
	leaq	16(%r13), %rdx
	movq	%rdx, 96(%rsp)
	movq	(%rax), %rcx
	leaq	16(%rax), %rdx
	cmpq	%rdx, %rcx
	je	.L1051
	movq	%rcx, 96(%rsp)
	movq	16(%rax), %rcx
	movq	%rcx, 112(%rsp)
.L1015:
	movq	8(%rax), %rcx
	movb	$0, 16(%rax)
	movq	%r13, %rsi
	movq	%rcx, 104(%rsp)
	movq	%rdx, (%rax)
	movq	$0, 8(%rax)
	leaq	32(%rsp), %rax
	movq	%rax, %rdi
	movq	%rax, 8(%rsp)
.LEHB29:
	call	_ZNSt11logic_errorC2ERKNSt7__cxx1112basic_stringIcSt11char_traitsIcESaIcEEE@PLT
.LEHE29:
	movq	96(%rsp), %rdi
	addq	$16, %r13
	cmpq	%r13, %rdi
	je	.L1016
	call	_ZdlPv@PLT
.L1016:
	movq	64(%rsp), %rdi
	addq	$16, %r12
	cmpq	%r12, %rdi
	je	.L1017
	call	_ZdlPv@PLT
.L1017:
	movq	_ZTVSt12future_error@GOTPCREL(%rip), %rax
	movl	$32, %edi
	movl	$4, 48(%rsp)
	movq	%r15, 56(%rsp)
	leaq	16(%rax), %r12
	movq	%r12, 32(%rsp)
	call	__cxa_allocate_exception@PLT
	movq	_ZNSt15__exception_ptr12__dest_thunkISt12future_errorEEvPv@GOTPCREL(%rip), %rdx
	movq	_ZTISt12future_error@GOTPCREL(%rip), %rsi
	movq	%rax, %r13
	movq	%rax, %rdi
	call	__cxa_init_primary_exception@PLT
	testq	%r13, %r13
	je	.L1019
	movq	8(%rsp), %rsi
	movq	%r13, %rdi
	call	_ZNSt11logic_errorC2ERKS_@PLT
	movq	%r12, 0(%r13)
	movdqa	48(%rsp), %xmm0
	movups	%xmm0, 16(%r13)
.L1019:
	leaq	16(%rsp), %r12
	movq	%r13, %rsi
	leaq	24(%rsp), %r13
	movq	%r12, %rdi
	call	_ZNSt15__exception_ptr13exception_ptrC1EPv@PLT
	movq	16(%rsp), %rax
	leaq	8(%r14), %rsi
	movq	%r13, %rdi
	movq	$0, 16(%rsp)
	movq	%rax, 24(%rsp)
	call	_ZNSt15__exception_ptr13exception_ptr4swapERS0_@PLT
	movq	%r13, %rdi
	call	_ZNSt15__exception_ptr13exception_ptrD1Ev@PLT
	movq	%r12, %rdi
	call	_ZNSt15__exception_ptr13exception_ptrD1Ev@PLT
	movq	8(%rsp), %rdi
	call	_ZNSt12future_errorD1Ev@PLT
	movq	8(%rbp), %r12
	leaq	16(%rbp), %rdi
	movl	$1, %eax
	movq	%r14, 8(%rbp)
	xchgl	(%rdi), %eax
	testl	%eax, %eax
	js	.L1052
.L1024:
	testq	%r12, %r12
	je	.L1049
	movq	(%r12), %rax
	movq	%r12, %rdi
	call	*(%rax)
.L1049:
	movq	16(%rbx), %rbp
	testq	%rbp, %rbp
	je	.L1050
	movq	0(%rbp), %rax
	movq	(%rax), %rdx
	cmpq	_ZNSt13__future_base7_ResultIbE10_M_destroyEv@GOTPCREL(%rip), %rdx
	jne	.L1027
	movq	16(%rax), %rax
	cmpq	_ZNSt13__future_base7_ResultIbED0Ev@GOTPCREL(%rip), %rax
	jne	.L1028
	movq	_ZTVNSt13__future_base7_ResultIbEE@GOTPCREL(%rip), %rax
	movq	%rbp, %rdi
	addq	$16, %rax
	movq	%rax, 0(%rbp)
	call	_ZNSt13__future_base12_Result_baseD2Ev@PLT
	movl	$24, %esi
	movq	%rbp, %rdi
	call	_ZdlPvm@PLT
	movq	8(%rbx), %r12
.L1013:
	testq	%r12, %r12
	je	.L1008
	cmpq	$0, _ZL28__gthrw___pthread_key_createPjPFvPvE@GOTPCREL(%rip)
	je	.L1031
	lock subl	$1, 8(%r12)
	je	.L1053
.L1008:
	movq	136(%rsp), %rax
	xorq	%fs:40, %rax
	jne	.L1054
	addq	$152, %rsp
	.cfi_remember_state
	.cfi_def_cfa_offset 56
	popq	%rbx
	.cfi_def_cfa_offset 48
	popq	%rbp
	.cfi_def_cfa_offset 40
	popq	%r12
	.cfi_def_cfa_offset 32
	popq	%r13
	.cfi_def_cfa_offset 24
	popq	%r14
	.cfi_def_cfa_offset 16
	popq	%r15
	.cfi_def_cfa_offset 8
	ret
	.p2align 4,,10
	.p2align 3
.L1031:
	.cfi_restore_state
	movl	8(%r12), %eax
	leal	-1(%rax), %edx
	cmpl	$1, %eax
	movl	%edx, 8(%r12)
	jne	.L1008
	movq	(%r12), %rax
	movq	%r12, %rdi
	call	*16(%rax)
	movl	12(%r12), %eax
	leal	-1(%rax), %edx
	movl	%edx, 12(%r12)
	jmp	.L1035
	.p2align 4,,10
	.p2align 3
.L1027:
	movq	%rbp, %rdi
	call	*%rdx
.L1050:
	movq	8(%rbx), %r12
	jmp	.L1013
	.p2align 4,,10
	.p2align 3
.L1053:
	movq	(%r12), %rax
	movq	%r12, %rdi
	call	*16(%rax)
	movl	$-1, %eax
	lock xaddl	%eax, 12(%r12)
.L1035:
	cmpl	$1, %eax
	jne	.L1008
	movq	(%r12), %rax
	movq	%r12, %rdi
	call	*24(%rax)
	jmp	.L1008
	.p2align 4,,10
	.p2align 3
.L1028:
	movq	%rbp, %rdi
	call	*%rax
	movq	8(%rbx), %r12
	jmp	.L1013
	.p2align 4,,10
	.p2align 3
.L1051:
	movdqu	16(%rax), %xmm0
	movaps	%xmm0, 112(%rsp)
	jmp	.L1015
	.p2align 4,,10
	.p2align 3
.L1052:
	call	_ZNSt28__atomic_futex_unsigned_base19_M_futex_notify_allEPj@PLT
	jmp	.L1024
.L1054:
	call	__stack_chk_fail@PLT
.L1037:
.L1022:
	movq	64(%rsp), %rdi
	addq	$16, %r12
	cmpq	%r12, %rdi
	je	.L1023
	call	_ZdlPv@PLT
.L1023:
	call	_ZSt9terminatev@PLT
.L1038:
	movq	96(%rsp), %rdi
	addq	$16, %r13
	cmpq	%r13, %rdi
	je	.L1022
	call	_ZdlPv@PLT
	jmp	.L1022
	.cfi_endproc
.LFE7657:
	.section	.gcc_except_table
.LLSDA7657:
	.byte	0xff
	.byte	0xff
	.byte	0x1
	.uleb128 .LLSDACSE7657-.LLSDACSB7657
.LLSDACSB7657:
	.uleb128 .LEHB28-.LFB7657
	.uleb128 .LEHE28-.LEHB28
	.uleb128 .L1037-.LFB7657
	.uleb128 0
	.uleb128 .LEHB29-.LFB7657
	.uleb128 .LEHE29-.LEHB29
	.uleb128 .L1038-.LFB7657
	.uleb128 0
.LLSDACSE7657:
	.section	.text._ZNSt7promiseIbED2Ev,"axG",@progbits,_ZNSt7promiseIbED5Ev,comdat
	.size	_ZNSt7promiseIbED2Ev, .-_ZNSt7promiseIbED2Ev
	.weak	_ZNSt7promiseIbED1Ev
	.set	_ZNSt7promiseIbED1Ev,_ZNSt7promiseIbED2Ev
	.section	.text._ZNSt16_Sp_counted_baseILN9__gnu_cxx12_Lock_policyE2EE10_M_releaseEv,"axG",@progbits,_ZNSt16_Sp_counted_baseILN9__gnu_cxx12_Lock_policyE2EE10_M_releaseEv,comdat
	.align 2
	.p2align 4,,15
	.weak	_ZNSt16_Sp_counted_baseILN9__gnu_cxx12_Lock_policyE2EE10_M_releaseEv
	.type	_ZNSt16_Sp_counted_baseILN9__gnu_cxx12_Lock_policyE2EE10_M_releaseEv, @function
_ZNSt16_Sp_counted_baseILN9__gnu_cxx12_Lock_policyE2EE10_M_releaseEv:
.LFB7911:
	.cfi_startproc
	cmpq	$0, _ZL28__gthrw___pthread_key_createPjPFvPvE@GOTPCREL(%rip)
	pushq	%rbx
	.cfi_def_cfa_offset 16
	.cfi_offset 3, -16
	movq	%rdi, %rbx
	je	.L1056
	lock subl	$1, 8(%rdi)
	je	.L1063
.L1055:
	popq	%rbx
	.cfi_remember_state
	.cfi_def_cfa_offset 8
	ret
	.p2align 4,,10
	.p2align 3
.L1056:
	.cfi_restore_state
	movl	8(%rdi), %eax
	leal	-1(%rax), %edx
	cmpl	$1, %eax
	movl	%edx, 8(%rdi)
	jne	.L1055
	movq	(%rdi), %rax
	call	*16(%rax)
	movl	12(%rbx), %eax
	leal	-1(%rax), %edx
	movl	%edx, 12(%rbx)
	jmp	.L1061
	.p2align 4,,10
	.p2align 3
.L1063:
	movq	(%rdi), %rax
	call	*16(%rax)
	movl	$-1, %eax
	lock xaddl	%eax, 12(%rbx)
.L1061:
	cmpl	$1, %eax
	jne	.L1055
	movq	(%rbx), %rax
	movq	%rbx, %rdi
	popq	%rbx
	.cfi_def_cfa_offset 8
	movq	24(%rax), %rax
	jmp	*%rax
	.cfi_endproc
.LFE7911:
	.size	_ZNSt16_Sp_counted_baseILN9__gnu_cxx12_Lock_policyE2EE10_M_releaseEv, .-_ZNSt16_Sp_counted_baseILN9__gnu_cxx12_Lock_policyE2EE10_M_releaseEv
	.section	.rodata.str1.1,"aMS",@progbits,1
.LC25:
	.string	"mutex"
	.text
	.align 2
	.p2align 4,,15
	.globl	_ZN7asiopal8ExecutorC2ERKSt10shared_ptrINS_2IOEE
	.type	_ZN7asiopal8ExecutorC2ERKSt10shared_ptrINS_2IOEE, @function
_ZN7asiopal8ExecutorC2ERKSt10shared_ptrINS_2IOEE:
.LFB6825:
	.cfi_startproc
	.cfi_personality 0x9b,DW.ref.__gxx_personality_v0
	.cfi_lsda 0x1b,.LLSDA6825
	pushq	%r15
	.cfi_def_cfa_offset 16
	.cfi_offset 15, -16
	pushq	%r14
	.cfi_def_cfa_offset 24
	.cfi_offset 14, -24
	pushq	%r13
	.cfi_def_cfa_offset 32
	.cfi_offset 13, -32
	pushq	%r12
	.cfi_def_cfa_offset 40
	.cfi_offset 12, -40
	pushq	%rbp
	.cfi_def_cfa_offset 48
	.cfi_offset 6, -48
	pushq	%rbx
	.cfi_def_cfa_offset 56
	.cfi_offset 3, -56
	movq	%rdi, %rbp
	subq	$72, %rsp
	.cfi_def_cfa_offset 128
	movq	$0, 8(%rdi)
	movq	$0, 16(%rdi)
	movq	%fs:40, %rax
	movq	%rax, 56(%rsp)
	xorl	%eax, %eax
	movq	_ZTVN7asiopal8ExecutorE@GOTPCREL(%rip), %rax
	addq	$16, %rax
	movq	%rax, (%rdi)
	movq	(%rsi), %rax
	movq	%rax, 24(%rdi)
	movq	8(%rsi), %rax
	testq	%rax, %rax
	movq	%rax, 32(%rdi)
	je	.L1065
	cmpq	$0, _ZL28__gthrw___pthread_key_createPjPFvPvE@GOTPCREL(%rip)
	jne	.L1171
	addl	$1, 8(%rax)
.L1065:
	movq	(%rsi), %rax
	movq	8(%rax), %r13
	leaq	8(%r13), %r14
	movq	%r14, %rdi
	call	pthread_mutex_lock@PLT
	movq	56(%r13), %r15
	testq	%r15, %r15
	jne	.L1071
	jmp	.L1067
	.p2align 4,,10
	.p2align 3
.L1069:
	cmpb	$42, (%rdi)
	je	.L1068
	call	strcmp@PLT
	testl	%eax, %eax
	je	.L1167
.L1068:
	movq	32(%r15), %r15
	testq	%r15, %r15
	je	.L1067
.L1071:
	movq	8(%r15), %rax
	testq	%rax, %rax
	je	.L1068
	movq	8(%rax), %rdi
	movq	_ZTSN4asio6detail14typeid_wrapperINS0_14strand_serviceEEE@GOTPCREL(%rip), %rsi
	cmpq	%rsi, %rdi
	jne	.L1069
.L1167:
	leaq	48(%r15), %r12
.L1070:
	movq	%r14, %rdi
	call	pthread_mutex_unlock@PLT
	movq	%r15, 40(%rbp)
	movq	%r12, %rdi
	call	pthread_mutex_lock@PLT
	movq	1632(%r15), %rdx
	leaq	1(%rdx), %rax
	movq	%rax, 1632(%r15)
	leaq	48(%rbp), %rax
	movq	%rax, %rcx
	shrq	$3, %rcx
	addq	%rcx, %rax
	movq	%rax, %rcx
	movq	%rax, %rsi
	shrq	$2, %rsi
	salq	$6, %rcx
	addq	%rsi, %rcx
	movl	$2654435769, %esi
	addq	%rsi, %rcx
	addq	%rdx, %rcx
	movabsq	$1529263757405973191, %rdx
	xorq	%rax, %rcx
	movq	%rcx, %rax
	mulq	%rdx
	shrq	$4, %rdx
	leaq	(%rdx,%rdx,2), %rax
	salq	$6, %rax
	addq	%rax, %rdx
	movq	%rcx, %rax
	subq	%rdx, %rax
	leaq	(%r15,%rax,8), %r13
	movq	88(%r13), %rbx
	testq	%rbx, %rbx
	je	.L1172
.L1085:
	movq	%rbx, 48(%rbp)
	movq	%r12, %rdi
	call	pthread_mutex_unlock@PLT
	movq	56(%rsp), %rax
	xorq	%fs:40, %rax
	jne	.L1173
	addq	$72, %rsp
	.cfi_remember_state
	.cfi_def_cfa_offset 56
	popq	%rbx
	.cfi_def_cfa_offset 48
	popq	%rbp
	.cfi_def_cfa_offset 40
	popq	%r12
	.cfi_def_cfa_offset 32
	popq	%r13
	.cfi_def_cfa_offset 24
	popq	%r14
	.cfi_def_cfa_offset 16
	popq	%r15
	.cfi_def_cfa_offset 8
	ret
	.p2align 4,,10
	.p2align 3
.L1067:
	.cfi_restore_state
	movq	%r14, %rdi
	call	pthread_mutex_unlock@PLT
	movl	$1640, %edi
	movq	48(%r13), %r12
.LEHB30:
	call	_Znwm@PLT
.LEHE30:
	movq	%r12, 24(%rax)
	movq	%rax, %rbx
	movq	$0, 8(%rax)
	movq	$0, 16(%rax)
	movq	$0, 32(%rax)
	xorl	%esi, %esi
	movq	_ZTVN4asio6detail14strand_serviceE@GOTPCREL(%rip), %rax
	addq	$16, %rax
	movq	%rax, (%rbx)
	movq	8(%r12), %rax
	leaq	48(%rbx), %r12
	movq	%r12, %rdi
	movq	%rax, 40(%rbx)
	call	pthread_mutex_init@PLT
	movq	_ZGVZN4asio15system_categoryEvE8instance@GOTPCREL(%rip), %r15
	movl	%eax, %ecx
	movzbl	(%r15), %eax
	testb	%al, %al
	je	.L1072
.L1165:
	movq	_ZZN4asio15system_categoryEvE8instance@GOTPCREL(%rip), %r15
.L1073:
	testl	%ecx, %ecx
	movl	%ecx, 16(%rsp)
	movq	%r15, 24(%rsp)
	jne	.L1174
	leaq	88(%rbx), %rcx
	movq	%rcx, %rax
	shrq	$3, %rax
	andl	$1, %eax
	je	.L1076
	leaq	96(%rbx), %rcx
	movq	$0, 88(%rbx)
.L1076:
	movl	$193, %esi
	pxor	%xmm0, %xmm0
	subq	%rax, %rsi
	addq	$11, %rax
	leaq	(%rbx,%rax,8), %rdx
	xorl	%eax, %eax
	.p2align 4,,10
	.p2align 3
.L1077:
	addq	$1, %rax
	addq	$16, %rdx
	movaps	%xmm0, -16(%rdx)
	cmpq	$96, %rax
	jne	.L1077
	cmpq	$192, %rsi
	je	.L1078
	movq	$0, 1536(%rcx)
.L1078:
	movq	_ZTIN4asio6detail14typeid_wrapperINS0_14strand_serviceEEE@GOTPCREL(%rip), %rax
	movq	$0, 1632(%rbx)
	movq	%r14, %rdi
	movq	$0, 16(%rbx)
	movq	%rax, 8(%rbx)
	call	pthread_mutex_lock@PLT
	movq	56(%r13), %rdx
	testq	%rdx, %rdx
	je	.L1079
	movq	%rdx, %r15
	jmp	.L1080
	.p2align 4,,10
	.p2align 3
.L1175:
	cmpb	$42, (%rdi)
	je	.L1083
	movq	%rdx, (%rsp)
	call	strcmp@PLT
	testl	%eax, %eax
	movq	(%rsp), %rdx
	je	.L1084
.L1083:
	movq	32(%r15), %r15
	testq	%r15, %r15
	je	.L1079
.L1080:
	movq	8(%r15), %rax
	testq	%rax, %rax
	je	.L1083
	movq	8(%rax), %rdi
	movq	_ZTSN4asio6detail14typeid_wrapperINS0_14strand_serviceEEE@GOTPCREL(%rip), %rsi
	cmpq	%rsi, %rdi
	jne	.L1175
.L1084:
	movq	(%rbx), %rax
	movq	%rbx, %rdi
	call	*8(%rax)
	jmp	.L1167
	.p2align 4,,10
	.p2align 3
.L1171:
	lock addl	$1, 8(%rax)
	jmp	.L1065
.L1172:
	movl	$104, %edi
.LEHB31:
	call	_Znwm@PLT
.LEHE31:
	movq	%rax, %rbx
	movq	$0, (%rax)
	movq	_ZN4asio6detail14strand_service11do_completeEPNS0_15task_io_serviceEPNS0_25task_io_service_operationERKSt10error_codem@GOTPCREL(%rip), %rax
	leaq	24(%rbx), %rdi
	xorl	%esi, %esi
	movl	$0, 16(%rbx)
	movq	%rax, 8(%rbx)
	call	pthread_mutex_init@PLT
	movq	_ZGVZN4asio15system_categoryEvE8instance@GOTPCREL(%rip), %r15
	movl	%eax, %r14d
	movzbl	(%r15), %eax
	testb	%al, %al
	je	.L1086
.L1168:
	movq	_ZZN4asio15system_categoryEvE8instance@GOTPCREL(%rip), %r15
.L1087:
	testl	%r14d, %r14d
	movl	%r14d, 32(%rsp)
	movq	%r15, 40(%rsp)
	jne	.L1176
	movb	$0, 64(%rbx)
	movq	88(%r13), %r14
	movq	$0, 72(%rbx)
	movq	$0, 80(%rbx)
	movq	$0, 88(%rbx)
	movq	$0, 96(%rbx)
	testq	%r14, %r14
	je	.L1090
	movq	88(%r14), %rsi
	testq	%rsi, %rsi
	movq	%rsi, 8(%rsp)
	je	.L1091
	call	_ZNSt3_V215system_categoryEv@PLT
	movq	%rax, %r15
	leaq	32(%rsp), %rax
	movq	8(%rsp), %rsi
	movq	%rax, (%rsp)
	jmp	.L1092
	.p2align 4,,10
	.p2align 3
.L1093:
	movq	$0, (%rsi)
	movq	8(%rsi), %rax
	xorl	%ecx, %ecx
	xorl	%edi, %edi
	movl	$0, 32(%rsp)
	movq	%r15, 40(%rsp)
	movq	(%rsp), %rdx
	call	*%rax
	movq	88(%r14), %rsi
	testq	%rsi, %rsi
	je	.L1091
.L1092:
	movq	(%rsi), %rax
	testq	%rax, %rax
	movq	%rax, 88(%r14)
	jne	.L1093
	movq	$0, 96(%r14)
	jmp	.L1093
.L1095:
	leaq	24(%r14), %rdi
	call	pthread_mutex_destroy@PLT
	movl	$104, %esi
	movq	%r14, %rdi
	call	_ZdlPvm@PLT
.L1090:
	movq	%rbx, 88(%r13)
	jmp	.L1085
.L1079:
	movq	%rdx, 32(%rbx)
	movq	%rbx, %r15
	movq	%rbx, 56(%r13)
	jmp	.L1070
.L1072:
	movq	%r15, %rdi
	movl	%ecx, (%rsp)
	call	__cxa_guard_acquire@PLT
	testl	%eax, %eax
	movl	(%rsp), %ecx
	je	.L1165
	movq	%r15, %rdi
	movl	%ecx, (%rsp)
	call	__cxa_guard_release@PLT
	movq	_ZZN4asio15system_categoryEvE8instance@GOTPCREL(%rip), %r15
	movq	_ZN4asio6detail15system_categoryD1Ev@GOTPCREL(%rip), %rdi
	leaq	__dso_handle(%rip), %rdx
	movq	%r15, %rsi
	call	__cxa_atexit@PLT
	movl	(%rsp), %ecx
	jmp	.L1073
.L1091:
	movq	72(%r14), %rsi
	testq	%rsi, %rsi
	movq	%rsi, 8(%rsp)
	je	.L1095
	call	_ZNSt3_V215system_categoryEv@PLT
	movq	%rax, %r15
	leaq	32(%rsp), %rax
	movq	8(%rsp), %rsi
	movq	%rax, (%rsp)
	jmp	.L1096
	.p2align 4,,10
	.p2align 3
.L1097:
	movq	$0, (%rsi)
	movq	8(%rsi), %rax
	xorl	%ecx, %ecx
	xorl	%edi, %edi
	movl	$0, 32(%rsp)
	movq	%r15, 40(%rsp)
	movq	(%rsp), %rdx
	call	*%rax
	movq	72(%r14), %rsi
	testq	%rsi, %rsi
	je	.L1095
.L1096:
	movq	(%rsi), %rax
	testq	%rax, %rax
	movq	%rax, 72(%r14)
	jne	.L1097
	movq	$0, 80(%r14)
	jmp	.L1097
.L1086:
	movq	%r15, %rdi
	call	__cxa_guard_acquire@PLT
	testl	%eax, %eax
	je	.L1168
	movq	%r15, %rdi
	call	__cxa_guard_release@PLT
	movq	_ZZN4asio15system_categoryEvE8instance@GOTPCREL(%rip), %r15
	movq	_ZN4asio6detail15system_categoryD1Ev@GOTPCREL(%rip), %rdi
	leaq	__dso_handle(%rip), %rdx
	movq	%r15, %rsi
	call	__cxa_atexit@PLT
	jmp	.L1087
.L1110:
	movq	%rax, %rbx
.L1100:
	movq	%r12, %rdi
	call	pthread_mutex_unlock@PLT
.L1082:
	movq	32(%rbp), %rdi
	testq	%rdi, %rdi
	je	.L1101
	call	_ZNSt16_Sp_counted_baseILN9__gnu_cxx12_Lock_policyE2EE10_M_releaseEv@PLT
.L1101:
	movq	16(%rbp), %rdi
	testq	%rdi, %rdi
	je	.L1103
	cmpq	$0, _ZL28__gthrw___pthread_key_createPjPFvPvE@GOTPCREL(%rip)
	leaq	12(%rdi), %rdx
	je	.L1104
	orl	$-1, %eax
	lock xaddl	%eax, (%rdx)
.L1105:
	subl	$1, %eax
	jne	.L1103
	movq	(%rdi), %rax
	call	*24(%rax)
.L1103:
	movq	%rbx, %rdi
.LEHB32:
	call	_Unwind_Resume@PLT
.LEHE32:
.L1104:
	movl	12(%rdi), %eax
	leal	-1(%rax), %edx
	movl	%edx, 12(%rdi)
	jmp	.L1105
.L1176:
	leaq	32(%rsp), %rdi
	leaq	.LC25(%rip), %rsi
.LEHB33:
	call	_ZN4asio6detail14do_throw_errorERKSt10error_codePKc@PLT
.LEHE33:
.L1174:
	leaq	16(%rsp), %rdi
	leaq	.LC25(%rip), %rsi
.LEHB34:
	call	_ZN4asio6detail14do_throw_errorERKSt10error_codePKc@PLT
.LEHE34:
.L1111:
	movq	%rax, %r13
	movq	%rbx, %rdi
	movl	$104, %esi
	call	_ZdlPvm@PLT
	movq	%r13, %rbx
	jmp	.L1100
.L1109:
	movq	%rax, %r12
	movq	%rbx, %rdi
	movl	$1640, %esi
	call	_ZdlPvm@PLT
	movq	%r12, %rbx
	jmp	.L1082
.L1173:
	call	__stack_chk_fail@PLT
.L1108:
	movq	%rax, %rbx
	jmp	.L1082
	.cfi_endproc
.LFE6825:
	.section	.gcc_except_table
.LLSDA6825:
	.byte	0xff
	.byte	0xff
	.byte	0x1
	.uleb128 .LLSDACSE6825-.LLSDACSB6825
.LLSDACSB6825:
	.uleb128 .LEHB30-.LFB6825
	.uleb128 .LEHE30-.LEHB30
	.uleb128 .L1108-.LFB6825
	.uleb128 0
	.uleb128 .LEHB31-.LFB6825
	.uleb128 .LEHE31-.LEHB31
	.uleb128 .L1110-.LFB6825
	.uleb128 0
	.uleb128 .LEHB32-.LFB6825
	.uleb128 .LEHE32-.LEHB32
	.uleb128 0
	.uleb128 0
	.uleb128 .LEHB33-.LFB6825
	.uleb128 .LEHE33-.LEHB33
	.uleb128 .L1111-.LFB6825
	.uleb128 0
	.uleb128 .LEHB34-.LFB6825
	.uleb128 .LEHE34-.LEHB34
	.uleb128 .L1109-.LFB6825
	.uleb128 0
.LLSDACSE6825:
	.text
	.size	_ZN7asiopal8ExecutorC2ERKSt10shared_ptrINS_2IOEE, .-_ZN7asiopal8ExecutorC2ERKSt10shared_ptrINS_2IOEE
	.globl	_ZN7asiopal8ExecutorC1ERKSt10shared_ptrINS_2IOEE
	.set	_ZN7asiopal8ExecutorC1ERKSt10shared_ptrINS_2IOEE,_ZN7asiopal8ExecutorC2ERKSt10shared_ptrINS_2IOEE
	.align 2
	.p2align 4,,15
	.globl	_ZN7asiopal8Executor10BlockUntilERKSt8functionIFvvEE
	.type	_ZN7asiopal8Executor10BlockUntilERKSt8functionIFvvEE, @function
_ZN7asiopal8Executor10BlockUntilERKSt8functionIFvvEE:
.LFB6887:
	.cfi_startproc
	.cfi_personality 0x9b,DW.ref.__gxx_personality_v0
	.cfi_lsda 0x1b,.LLSDA6887
	pushq	%r15
	.cfi_def_cfa_offset 16
	.cfi_offset 15, -16
	pushq	%r14
	.cfi_def_cfa_offset 24
	.cfi_offset 14, -24
	pushq	%r13
	.cfi_def_cfa_offset 32
	.cfi_offset 13, -32
	pushq	%r12
	.cfi_def_cfa_offset 40
	.cfi_offset 12, -40
	movq	%rsi, %r13
	pushq	%rbp
	.cfi_def_cfa_offset 48
	.cfi_offset 6, -48
	pushq	%rbx
	.cfi_def_cfa_offset 56
	.cfi_offset 3, -56
	movq	%rdi, %rbx
	subq	$216, %rsp
	.cfi_def_cfa_offset 272
	movq	48(%rdi), %rbp
	movq	%fs:40, %rax
	movq	%rax, 200(%rsp)
	xorl	%eax, %eax
	.byte	0x66
	leaq	_ZN4asio6detail15keyword_tss_ptrINS0_10call_stackINS0_14strand_service11strand_implEhE7contextEE6value_E@tlsgd(%rip), %rdi
	.value	0x6666
	rex64
	call	__tls_get_addr@PLT
	movq	(%rax), %rax
	testq	%rax, %rax
	jne	.L1313
	jmp	.L1178
	.p2align 4,,10
	.p2align 3
.L1180:
	movq	16(%rax), %rax
	testq	%rax, %rax
	je	.L1178
.L1313:
	cmpq	(%rax), %rbp
	jne	.L1180
	cmpq	$0, 8(%rax)
	je	.L1178
	cmpq	$0, 16(%r13)
	je	.L1323
	movq	%r13, %rdi
.LEHB35:
	call	*24(%r13)
.L1177:
	movq	200(%rsp), %rax
	xorq	%fs:40, %rax
	jne	.L1324
	addq	$216, %rsp
	.cfi_remember_state
	.cfi_def_cfa_offset 56
	popq	%rbx
	.cfi_def_cfa_offset 48
	popq	%rbp
	.cfi_def_cfa_offset 40
	popq	%r12
	.cfi_def_cfa_offset 32
	popq	%r13
	.cfi_def_cfa_offset 24
	popq	%r14
	.cfi_def_cfa_offset 16
	popq	%r15
	.cfi_def_cfa_offset 8
	ret
	.p2align 4,,10
	.p2align 3
.L1178:
	.cfi_restore_state
	movl	$48, %edi
	movq	$0, 32(%rsp)
	movq	$0, 40(%rsp)
	call	_Znwm@PLT
.LEHE35:
	movq	_ZTVSt23_Sp_counted_ptr_inplaceINSt13__future_base13_State_baseV2ESaIS1_ELN9__gnu_cxx12_Lock_policyE2EE@GOTPCREL(%rip), %rdx
	movabsq	$4294967297, %rsi
	movq	$0, 24(%rax)
	movq	%rsi, 8(%rax)
	movl	$0, 32(%rax)
	movl	$24, %edi
	movb	$0, 36(%rax)
	movl	$0, 40(%rax)
	addq	$16, %rdx
	movq	%rax, 40(%rsp)
	addq	$16, %rax
	movq	%rdx, -16(%rax)
	movq	_ZTVNSt13__future_base13_State_baseV2E@GOTPCREL(%rip), %rdx
	addq	$16, %rdx
	movq	%rdx, (%rax)
	movq	%rax, 32(%rsp)
.LEHB36:
	call	_Znwm@PLT
.LEHE36:
	movq	%rax, %rdi
	movq	%rax, %rbp
	call	_ZNSt13__future_base12_Result_baseC2Ev@PLT
	movq	_ZTVNSt13__future_base7_ResultIbEE@GOTPCREL(%rip), %rax
	movq	40(%rsp), %r12
	movb	$0, 17(%rbp)
	movq	%rbp, 48(%rsp)
	addq	$16, %rax
	testq	%r12, %r12
	movq	%rax, 0(%rbp)
	movq	32(%rsp), %rbp
	je	.L1186
	cmpq	$0, _ZL28__gthrw___pthread_key_createPjPFvPvE@GOTPCREL(%rip)
	je	.L1189
	lock addl	$1, 8(%r12)
.L1186:
	testq	%rbp, %rbp
	je	.L1325
	movl	$1, %eax
	xchgb	20(%rbp), %al
	testb	%al, %al
	jne	.L1326
	movq	40(%rbx), %rax
	movq	%r13, 64(%rsp)
	leaq	64(%rsp), %r13
	leaq	32(%rsp), %r14
	movq	%r13, %rdi
	movq	%rax, (%rsp)
	xorl	%eax, %eax
	movq	%r14, 72(%rsp)
	call	_ZN4asio28asio_handler_is_continuationEz@PLT
	movb	%al, 15(%rsp)
	.byte	0x66
	leaq	_ZN4asio6detail15keyword_tss_ptrINS0_10call_stackINS0_15task_io_serviceENS0_27task_io_service_thread_infoEE7contextEE6value_E@tlsgd(%rip), %rdi
	.value	0x6666
	rex64
	call	__tls_get_addr@PLT
	movq	(%rax), %rax
	testq	%rax, %rax
	je	.L1195
	movq	8(%rax), %rax
	testq	%rax, %rax
	je	.L1195
	movq	(%rax), %r15
	testq	%r15, %r15
	je	.L1195
	movq	$0, (%rax)
	movzbl	(%r15), %eax
	cmpb	$39, %al
	jbe	.L1196
	movb	%al, 40(%r15)
.L1197:
	leaq	_ZN4asio6detail18completion_handlerIZN7asiopal8Executor10BlockUntilERKSt8functionIFvvEEEUlvE_E11do_completeEPNS0_15task_io_serviceEPNS0_25task_io_service_operationERKSt10error_codem(%rip), %rax
	movdqa	64(%rsp), %xmm0
	movq	$0, (%r15)
	movl	$0, 16(%r15)
	movq	%rax, 8(%r15)
	movq	48(%rbx), %rax
	movups	%xmm0, 24(%r15)
	leaq	24(%rax), %rdi
	call	pthread_mutex_lock@PLT
	movq	48(%rbx), %rdi
	cmpb	$0, 64(%rdi)
	je	.L1327
	cmpq	$0, 80(%rdi)
	movq	$0, (%r15)
	je	.L1198
	movq	80(%rdi), %rax
	movq	%r15, (%rax)
	movq	%r15, 80(%rdi)
.L1199:
	addq	$24, %rdi
	call	pthread_mutex_unlock@PLT
.L1200:
	movq	0(%rbp), %rax
	movq	%rbp, %rdi
.LEHB37:
	call	*16(%rax)
	movl	16(%rbp), %edx
	leaq	16(%rbp), %rbx
	andl	$2147483647, %edx
	cmpl	$1, %edx
	je	.L1215
	.p2align 4,,10
	.p2align 3
.L1216:
	lock orl	$-2147483648, (%rbx)
	xorl	%r9d, %r9d
	xorl	%r8d, %r8d
	xorl	%ecx, %ecx
	orl	$-2147483648, %edx
	movq	%rbx, %rsi
	movq	%rbx, %rdi
	call	_ZNSt28__atomic_futex_unsigned_base19_M_futex_wait_untilEPjjbNSt6chrono8durationIlSt5ratioILl1ELl1EEEENS2_IlS3_ILl1ELl1000000000EEEE@PLT
.LEHE37:
	movl	(%rbx), %edx
	andl	$2147483647, %edx
	cmpl	$1, %edx
	sete	%cl
	xorl	$1, %eax
	orb	%al, %cl
	je	.L1216
.L1215:
	testq	%r12, %r12
	je	.L1218
	cmpq	$0, _ZL28__gthrw___pthread_key_createPjPFvPvE@GOTPCREL(%rip)
	je	.L1219
	lock subl	$1, 8(%r12)
	je	.L1328
.L1218:
	movq	32(%rsp), %rbx
	testq	%rbx, %rbx
	je	.L1320
	movq	40(%rsp), %rbp
	testq	%rbp, %rbp
	je	.L1225
	movl	8(%rbp), %eax
	cmpl	$1, %eax
	je	.L1320
.L1225:
	movq	48(%rsp), %r14
	movq	$0, 48(%rsp)
	testq	%r14, %r14
	je	.L1227
	call	_ZSt15future_categoryv@PLT
	movq	%rax, %r15
	movq	(%rax), %rax
	leaq	128(%rsp), %rbp
	movl	$4, %edx
	movq	%r15, %rsi
	movq	%rbp, %rdi
	call	*32(%rax)
	leaq	.LC24(%rip), %rcx
	movl	$19, %r8d
	xorl	%edx, %edx
	xorl	%esi, %esi
	movq	%rbp, %rdi
.LEHB38:
	call	_ZNSt7__cxx1112basic_stringIcSt11char_traitsIcESaIcEE10_M_replaceEmmPKcm@PLT
.LEHE38:
	leaq	160(%rsp), %r12
	leaq	16(%r12), %rdx
	movq	%rdx, 160(%rsp)
	movq	(%rax), %rcx
	leaq	16(%rax), %rdx
	cmpq	%rdx, %rcx
	je	.L1329
	movq	%rcx, 160(%rsp)
	movq	16(%rax), %rcx
	movq	%rcx, 176(%rsp)
.L1229:
	movq	8(%rax), %rcx
	movb	$0, 16(%rax)
	movq	%r12, %rsi
	movq	%rcx, 168(%rsp)
	movq	%rdx, (%rax)
	movq	$0, 8(%rax)
	leaq	96(%rsp), %rax
	movq	%rax, %rdi
	movq	%rax, (%rsp)
.LEHB39:
	call	_ZNSt11logic_errorC2ERKNSt7__cxx1112basic_stringIcSt11char_traitsIcESaIcEEE@PLT
.LEHE39:
	movq	160(%rsp), %rdi
	addq	$16, %r12
	cmpq	%r12, %rdi
	je	.L1230
	call	_ZdlPv@PLT
.L1230:
	movq	128(%rsp), %rdi
	addq	$16, %rbp
	cmpq	%rbp, %rdi
	je	.L1231
	call	_ZdlPv@PLT
.L1231:
	movq	_ZTVSt12future_error@GOTPCREL(%rip), %rax
	movl	$32, %edi
	movl	$4, 112(%rsp)
	movq	%r15, 120(%rsp)
	leaq	16(%rax), %rbp
	movq	%rbp, 96(%rsp)
	call	__cxa_allocate_exception@PLT
	movq	_ZNSt15__exception_ptr12__dest_thunkISt12future_errorEEvPv@GOTPCREL(%rip), %rdx
	movq	_ZTISt12future_error@GOTPCREL(%rip), %rsi
	movq	%rax, %r12
	movq	%rax, %rdi
	call	__cxa_init_primary_exception@PLT
	testq	%r12, %r12
	je	.L1233
	movq	(%rsp), %rsi
	movq	%r12, %rdi
	call	_ZNSt11logic_errorC2ERKS_@PLT
	movq	%rbp, (%r12)
	movdqa	112(%rsp), %xmm0
	movups	%xmm0, 16(%r12)
.L1233:
	leaq	16(%rsp), %rbp
	movq	%r12, %rsi
	movq	%rbp, %rdi
	call	_ZNSt15__exception_ptr13exception_ptrC1EPv@PLT
	movq	16(%rsp), %rax
	leaq	8(%r14), %rsi
	movq	%r13, %rdi
	movq	$0, 16(%rsp)
	movq	%rax, 64(%rsp)
	call	_ZNSt15__exception_ptr13exception_ptr4swapERS0_@PLT
	movq	%r13, %rdi
	call	_ZNSt15__exception_ptr13exception_ptrD1Ev@PLT
	movq	%rbp, %rdi
	call	_ZNSt15__exception_ptr13exception_ptrD1Ev@PLT
	movq	(%rsp), %rdi
	call	_ZNSt12future_errorD1Ev@PLT
	movq	8(%rbx), %rbp
	leaq	16(%rbx), %rdi
	movl	$1, %eax
	movq	%r14, 8(%rbx)
	xchgl	(%rdi), %eax
	testl	%eax, %eax
	js	.L1330
.L1238:
	testq	%rbp, %rbp
	je	.L1320
	movq	0(%rbp), %rax
	movq	%rbp, %rdi
	call	*(%rax)
.L1320:
	movq	48(%rsp), %rbx
	testq	%rbx, %rbx
	je	.L1321
	movq	(%rbx), %rax
	movq	(%rax), %rdx
	cmpq	_ZNSt13__future_base7_ResultIbE10_M_destroyEv@GOTPCREL(%rip), %rdx
	jne	.L1241
	movq	16(%rax), %rax
	cmpq	_ZNSt13__future_base7_ResultIbED0Ev@GOTPCREL(%rip), %rax
	jne	.L1242
	movq	_ZTVNSt13__future_base7_ResultIbEE@GOTPCREL(%rip), %rax
	movq	%rbx, %rdi
	addq	$16, %rax
	movq	%rax, (%rbx)
	call	_ZNSt13__future_base12_Result_baseD2Ev@PLT
	movl	$24, %esi
	movq	%rbx, %rdi
	call	_ZdlPvm@PLT
	movq	40(%rsp), %rbp
.L1227:
	testq	%rbp, %rbp
	je	.L1177
	cmpq	$0, _ZL28__gthrw___pthread_key_createPjPFvPvE@GOTPCREL(%rip)
	je	.L1245
	lock subl	$1, 8(%rbp)
	jne	.L1177
	movq	0(%rbp), %rax
	movq	%rbp, %rdi
	call	*16(%rax)
	movl	$-1, %eax
	lock xaddl	%eax, 12(%rbp)
.L1254:
	cmpl	$1, %eax
	jne	.L1177
	movq	0(%rbp), %rax
	movq	%rbp, %rdi
	call	*24(%rax)
	jmp	.L1177
.L1196:
	movq	%r15, %rdi
	call	_ZdlPv@PLT
.L1195:
	movl	$41, %edi
.LEHB40:
	call	_Znwm@PLT
.LEHE40:
	movq	%rax, %r15
	movb	$40, 40(%rax)
	jmp	.L1197
	.p2align 4,,10
	.p2align 3
.L1189:
	addl	$1, 8(%r12)
	jmp	.L1186
.L1327:
	movb	$1, 64(%rdi)
	movq	48(%rbx), %rax
	leaq	24(%rax), %rdi
	call	pthread_mutex_unlock@PLT
	movq	48(%rbx), %rcx
	movq	$0, (%r15)
	cmpq	$0, 96(%rcx)
	je	.L1201
	movq	96(%rcx), %rax
	movq	%r15, (%rax)
	movq	%r15, 96(%rcx)
.L1202:
	movq	(%rsp), %rax
	movq	40(%rax), %rbx
	cmpb	$0, 40(%rbx)
	jne	.L1261
	cmpb	$0, 15(%rsp)
	je	.L1203
.L1261:
	movq	%rcx, (%rsp)
	.byte	0x66
	leaq	_ZN4asio6detail15keyword_tss_ptrINS0_10call_stackINS0_15task_io_serviceENS0_27task_io_service_thread_infoEE7contextEE6value_E@tlsgd(%rip), %rdi
	.value	0x6666
	rex64
	call	__tls_get_addr@PLT
	movq	(%rsp), %rcx
	movq	(%rax), %rax
	testq	%rax, %rax
	jne	.L1314
	jmp	.L1203
	.p2align 4,,10
	.p2align 3
.L1206:
	movq	16(%rax), %rax
	testq	%rax, %rax
	je	.L1203
.L1314:
	cmpq	(%rax), %rbx
	jne	.L1206
	movq	8(%rax), %rax
	testq	%rax, %rax
	je	.L1203
	addq	$1, 24(%rax)
	cmpq	$0, 16(%rax)
	movq	$0, (%rcx)
	je	.L1209
	movq	16(%rax), %rdx
	movq	%rcx, (%rdx)
	movq	%rcx, 16(%rax)
	jmp	.L1200
.L1201:
	movq	%r15, 96(%rcx)
	movq	%r15, 88(%rcx)
	jmp	.L1202
.L1328:
	movq	(%r12), %rax
	movq	%r12, %rdi
	call	*16(%rax)
	movl	$-1, %eax
	lock xaddl	%eax, 12(%r12)
.L1253:
	cmpl	$1, %eax
	jne	.L1218
	movq	(%r12), %rax
	movq	%r12, %rdi
	call	*24(%rax)
	jmp	.L1218
.L1329:
	movdqu	16(%rax), %xmm0
	movaps	%xmm0, 176(%rsp)
	jmp	.L1229
.L1245:
	movl	8(%rbp), %eax
	leal	-1(%rax), %edx
	cmpl	$1, %eax
	movl	%edx, 8(%rbp)
	jne	.L1177
	movq	0(%rbp), %rax
	movq	%rbp, %rdi
	call	*16(%rax)
	movl	12(%rbp), %eax
	leal	-1(%rax), %edx
	movl	%edx, 12(%rbp)
	jmp	.L1254
.L1219:
	movl	8(%r12), %eax
	leal	-1(%rax), %edx
	cmpl	$1, %eax
	movl	%edx, 8(%r12)
	jne	.L1218
	movq	(%r12), %rax
	movq	%r12, %rdi
	call	*16(%rax)
	movl	12(%r12), %eax
	leal	-1(%rax), %edx
	movl	%edx, 12(%r12)
	jmp	.L1253
.L1198:
	movq	%r15, 80(%rdi)
	movq	%r15, 72(%rdi)
	jmp	.L1199
.L1203:
	movq	%rcx, (%rsp)
	lock addq	$1, 184(%rbx)
	leaq	48(%rbx), %r15
	movq	%r15, %rdi
	call	pthread_mutex_lock@PLT
	cmpq	$0, 200(%rbx)
	movq	(%rsp), %rcx
	movq	$0, (%rcx)
	je	.L1210
	movq	200(%rbx), %rax
	movq	%rcx, (%rax)
	movq	%rcx, 200(%rbx)
.L1211:
	movq	136(%rbx), %rax
	orq	$1, %rax
	cmpq	$1, %rax
	movq	%rax, 136(%rbx)
	jne	.L1331
	cmpb	$0, 176(%rbx)
	jne	.L1214
	movq	144(%rbx), %rax
	testq	%rax, %rax
	je	.L1214
	leaq	88(%rax), %rdx
	movb	$1, 176(%rbx)
	movl	$-2147483639, 16(%rsp)
	leaq	16(%rsp), %rcx
	movl	$3, %esi
	movq	%rdx, 20(%rsp)
	movl	88(%rax), %edx
	movl	96(%rax), %edi
	call	epoll_ctl@PLT
.L1214:
	movq	%r15, %rdi
	call	pthread_mutex_unlock@PLT
	jmp	.L1200
.L1241:
	movq	%rbx, %rdi
	call	*%rdx
.L1321:
	movq	40(%rsp), %rbp
	jmp	.L1227
.L1242:
	movq	%rbx, %rdi
	call	*%rax
	movq	40(%rsp), %rbp
	jmp	.L1227
.L1330:
	call	_ZNSt28__atomic_futex_unsigned_base19_M_futex_notify_allEPj@PLT
	jmp	.L1238
.L1331:
	movq	%r15, %rdi
	call	pthread_mutex_unlock@PLT
	leaq	88(%rbx), %rdi
	call	pthread_cond_signal@PLT
	jmp	.L1200
.L1209:
	movq	%rcx, 16(%rax)
	movq	%rcx, 8(%rax)
	jmp	.L1200
.L1210:
	movq	%rcx, 200(%rbx)
	movq	%rcx, 192(%rbx)
	jmp	.L1211
.L1324:
	call	__stack_chk_fail@PLT
.L1260:
	movq	160(%rsp), %rdi
	addq	$16, %r12
	cmpq	%r12, %rdi
	je	.L1236
	call	_ZdlPv@PLT
.L1236:
	movq	128(%rsp), %rdi
	addq	$16, %rbp
	cmpq	%rbp, %rdi
	je	.L1237
	call	_ZdlPv@PLT
.L1237:
	call	_ZSt9terminatev@PLT
.L1258:
	movq	40(%rsp), %rdi
	movq	%rax, %rbx
	testq	%rdi, %rdi
	je	.L1322
	call	_ZNSt16_Sp_counted_baseILN9__gnu_cxx12_Lock_policyE2EE10_M_releaseEv@PLT
.L1322:
	movq	%rbx, %rdi
.LEHB41:
	call	_Unwind_Resume@PLT
.L1323:
	call	_ZSt25__throw_bad_function_callv@PLT
.LEHE41:
.L1259:
	jmp	.L1236
.L1256:
	testq	%r12, %r12
	movq	%rax, %rbx
	je	.L1194
	movq	%r12, %rdi
	call	_ZNSt16_Sp_counted_baseILN9__gnu_cxx12_Lock_policyE2EE10_M_releaseEv@PLT
.L1194:
	movq	%r14, %rdi
	call	_ZNSt7promiseIbED1Ev@PLT
	jmp	.L1322
.L1326:
	movl	$1, %edi
.LEHB42:
	call	_ZSt20__throw_future_errori@PLT
.L1325:
	movl	$3, %edi
	call	_ZSt20__throw_future_errori@PLT
.LEHE42:
.L1257:
	testq	%r12, %r12
	movq	%rax, %rbx
	je	.L1193
	movq	%r12, %rdi
	call	_ZNSt16_Sp_counted_baseILN9__gnu_cxx12_Lock_policyE2EE10_M_releaseEv@PLT
.L1193:
	leaq	32(%rsp), %r14
	jmp	.L1194
	.cfi_endproc
.LFE6887:
	.section	.gcc_except_table
.LLSDA6887:
	.byte	0xff
	.byte	0xff
	.byte	0x1
	.uleb128 .LLSDACSE6887-.LLSDACSB6887
.LLSDACSB6887:
	.uleb128 .LEHB35-.LFB6887
	.uleb128 .LEHE35-.LEHB35
	.uleb128 0
	.uleb128 0
	.uleb128 .LEHB36-.LFB6887
	.uleb128 .LEHE36-.LEHB36
	.uleb128 .L1258-.LFB6887
	.uleb128 0
	.uleb128 .LEHB37-.LFB6887
	.uleb128 .LEHE37-.LEHB37
	.uleb128 .L1256-.LFB6887
	.uleb128 0
	.uleb128 .LEHB38-.LFB6887
	.uleb128 .LEHE38-.LEHB38
	.uleb128 .L1259-.LFB6887
	.uleb128 0
	.uleb128 .LEHB39-.LFB6887
	.uleb128 .LEHE39-.LEHB39
	.uleb128 .L1260-.LFB6887
	.uleb128 0
	.uleb128 .LEHB40-.LFB6887
	.uleb128 .LEHE40-.LEHB40
	.uleb128 .L1256-.LFB6887
	.uleb128 0
	.uleb128 .LEHB41-.LFB6887
	.uleb128 .LEHE41-.LEHB41
	.uleb128 0
	.uleb128 0
	.uleb128 .LEHB42-.LFB6887
	.uleb128 .LEHE42-.LEHB42
	.uleb128 .L1257-.LFB6887
	.uleb128 0
.LLSDACSE6887:
	.text
	.size	_ZN7asiopal8Executor10BlockUntilERKSt8functionIFvvEE, .-_ZN7asiopal8Executor10BlockUntilERKSt8functionIFvvEE
	.align 2
	.p2align 4,,15
	.globl	_ZN7asiopal8Executor18BlockUntilAndFlushERKSt8functionIFvvEE
	.type	_ZN7asiopal8Executor18BlockUntilAndFlushERKSt8functionIFvvEE, @function
_ZN7asiopal8Executor18BlockUntilAndFlushERKSt8functionIFvvEE:
.LFB6895:
	.cfi_startproc
	.cfi_personality 0x9b,DW.ref.__gxx_personality_v0
	.cfi_lsda 0x1b,.LLSDA6895
	pushq	%rbp
	.cfi_def_cfa_offset 16
	.cfi_offset 6, -16
	pushq	%rbx
	.cfi_def_cfa_offset 24
	.cfi_offset 3, -24
	movq	%rdi, %rbp
	subq	$72, %rsp
	.cfi_def_cfa_offset 96
	movq	%fs:40, %rax
	movq	%rax, 56(%rsp)
	xorl	%eax, %eax
.LEHB43:
	call	_ZN7asiopal8Executor10BlockUntilERKSt8functionIFvvEE@PLT
.LEHE43:
	leaq	_ZNSt14_Function_base13_Base_managerIZN7asiopal8Executor18BlockUntilAndFlushERKSt8functionIFvvEEEUlvE_E10_M_managerERSt9_Any_dataRKSA_St18_Manager_operation(%rip), %rcx
	leaq	_ZNSt17_Function_handlerIFvvEZN7asiopal8Executor18BlockUntilAndFlushERKSt8functionIS0_EEUlvE_E9_M_invokeERKSt9_Any_data(%rip), %rax
	leaq	16(%rsp), %rbx
	movq	%rbp, %rdi
	movq	%rcx, 8(%rsp)
	movq	%rbx, %rsi
	movq	8(%rsp), %xmm0
	movq	%rax, 8(%rsp)
	movhps	8(%rsp), %xmm0
	movaps	%xmm0, 32(%rsp)
.LEHB44:
	call	_ZN7asiopal8Executor10BlockUntilERKSt8functionIFvvEE@PLT
.LEHE44:
	movq	32(%rsp), %rax
	testq	%rax, %rax
	je	.L1332
	movl	$3, %edx
	movq	%rbx, %rsi
	movq	%rbx, %rdi
	call	*%rax
.L1332:
	movq	56(%rsp), %rax
	xorq	%fs:40, %rax
	jne	.L1345
	addq	$72, %rsp
	.cfi_remember_state
	.cfi_def_cfa_offset 24
	popq	%rbx
	.cfi_def_cfa_offset 16
	popq	%rbp
	.cfi_def_cfa_offset 8
	ret
.L1345:
	.cfi_restore_state
	call	__stack_chk_fail@PLT
.L1337:
	movq	%rax, %rbp
	movq	32(%rsp), %rax
	testq	%rax, %rax
	je	.L1335
	movl	$3, %edx
	movq	%rbx, %rsi
	movq	%rbx, %rdi
	call	*%rax
.L1335:
	movq	%rbp, %rdi
.LEHB45:
	call	_Unwind_Resume@PLT
.LEHE45:
	.cfi_endproc
.LFE6895:
	.section	.gcc_except_table
.LLSDA6895:
	.byte	0xff
	.byte	0xff
	.byte	0x1
	.uleb128 .LLSDACSE6895-.LLSDACSB6895
.LLSDACSB6895:
	.uleb128 .LEHB43-.LFB6895
	.uleb128 .LEHE43-.LEHB43
	.uleb128 0
	.uleb128 0
	.uleb128 .LEHB44-.LFB6895
	.uleb128 .LEHE44-.LEHB44
	.uleb128 .L1337-.LFB6895
	.uleb128 0
	.uleb128 .LEHB45-.LFB6895
	.uleb128 .LEHE45-.LEHB45
	.uleb128 0
	.uleb128 0
.LLSDACSE6895:
	.text
	.size	_ZN7asiopal8Executor18BlockUntilAndFlushERKSt8functionIFvvEE, .-_ZN7asiopal8Executor18BlockUntilAndFlushERKSt8functionIFvvEE
	.p2align 4,,15
	.type	_ZN4asio6detail18completion_handlerINS0_7binder1IZN7asiopal8Executor5StartERKNSt6chrono10time_pointINS5_3_V212steady_clockENS5_8durationIlSt5ratioILl1ELl1000000000EEEEEERKSt8functionIFvvEEEUlRKSt10error_codeE_SL_EEE11do_completeEPNS0_15task_io_serviceEPNS0_25task_io_service_operationESN_m, @function
_ZN4asio6detail18completion_handlerINS0_7binder1IZN7asiopal8Executor5StartERKNSt6chrono10time_pointINS5_3_V212steady_clockENS5_8durationIlSt5ratioILl1ELl1000000000EEEEEERKSt8functionIFvvEEEUlRKSt10error_codeE_SL_EEE11do_completeEPNS0_15task_io_serviceEPNS0_25task_io_service_operationESN_m:
.LFB9168:
	.cfi_startproc
	.cfi_personality 0x9b,DW.ref.__gxx_personality_v0
	.cfi_lsda 0x1b,.LLSDA9168
	pushq	%r13
	.cfi_def_cfa_offset 16
	.cfi_offset 13, -16
	pushq	%r12
	.cfi_def_cfa_offset 24
	.cfi_offset 12, -24
	movq	%rdi, %r13
	pushq	%rbp
	.cfi_def_cfa_offset 32
	.cfi_offset 6, -32
	pushq	%rbx
	.cfi_def_cfa_offset 40
	.cfi_offset 3, -40
	movq	%rsi, %rbx
	subq	$136, %rsp
	.cfi_def_cfa_offset 176
	movq	%fs:40, %rax
	movq	%rax, 120(%rsp)
	xorl	%eax, %eax
	leaq	24(%rsi), %rax
	movq	%rsi, 8(%rsp)
	movq	%rsi, 16(%rsp)
	movq	$0, 64(%rsp)
	movq	%rax, (%rsp)
	movq	24(%rsi), %rax
	movq	$0, 24(%rsi)
	movq	%rax, 32(%rsp)
	movq	32(%rsi), %rax
	movq	$0, 32(%rsi)
	movq	%rax, 40(%rsp)
	movq	56(%rsi), %rax
	testq	%rax, %rax
	je	.L1347
	leaq	32(%rsp), %rbp
	leaq	40(%rsi), %rsi
	movl	$2, %edx
	leaq	16(%rbp), %rdi
.LEHB46:
	call	*%rax
.LEHE46:
	movq	72(%rbx), %rax
	movq	16(%rsp), %r12
	movdqu	56(%rbx), %xmm0
	movq	$0, 72(%rbx)
	movq	%rbp, (%rsp)
	movq	%rax, 80(%rsp)
	movq	80(%rbx), %rax
	testq	%r12, %r12
	movaps	%xmm0, 64(%rsp)
	movq	$0, 80(%rbx)
	movdqu	88(%rbx), %xmm0
	movq	%rax, 88(%rsp)
	movaps	%xmm0, 96(%rsp)
	je	.L1349
.L1348:
	movq	80(%r12), %rbx
	testq	%rbx, %rbx
	je	.L1355
	cmpq	$0, _ZL28__gthrw___pthread_key_createPjPFvPvE@GOTPCREL(%rip)
	je	.L1356
	lock subl	$1, 8(%rbx)
	je	.L1453
.L1355:
	movq	56(%r12), %rax
	testq	%rax, %rax
	je	.L1360
	leaq	40(%r12), %rdi
	movl	$3, %edx
	movq	%rdi, %rsi
	call	*%rax
.L1360:
	movq	32(%r12), %rbx
	testq	%rbx, %rbx
	je	.L1362
	cmpq	$0, _ZL28__gthrw___pthread_key_createPjPFvPvE@GOTPCREL(%rip)
	je	.L1363
	lock subl	$1, 8(%rbx)
	je	.L1454
.L1362:
	movq	$0, 16(%rsp)
.L1349:
	movq	8(%rsp), %rbx
	testq	%rbx, %rbx
	je	.L1367
	.byte	0x66
	leaq	_ZN4asio6detail15keyword_tss_ptrINS0_10call_stackINS0_15task_io_serviceENS0_27task_io_service_thread_infoEE7contextEE6value_E@tlsgd(%rip), %rdi
	.value	0x6666
	rex64
	call	__tls_get_addr@PLT
	movq	(%rax), %rax
	testq	%rax, %rax
	je	.L1368
	movq	8(%rax), %rax
	testq	%rax, %rax
	je	.L1368
	cmpq	$0, (%rax)
	je	.L1455
.L1368:
	movq	%rbx, %rdi
	call	_ZdlPv@PLT
.L1369:
	movq	$0, 8(%rsp)
.L1367:
	testq	%r13, %r13
	je	.L1370
	movl	96(%rsp), %eax
	testl	%eax, %eax
	jne	.L1373
	cmpq	$0, 64(%rsp)
	je	.L1456
	leaq	16(%rbp), %rdi
.LEHB47:
	call	*72(%rsp)
.LEHE47:
.L1373:
	sfence
.L1370:
	movq	88(%rsp), %rbx
	testq	%rbx, %rbx
	je	.L1375
	cmpq	$0, _ZL28__gthrw___pthread_key_createPjPFvPvE@GOTPCREL(%rip)
	je	.L1376
	lock subl	$1, 8(%rbx)
	je	.L1457
.L1375:
	movq	64(%rsp), %rax
	testq	%rax, %rax
	je	.L1380
	leaq	16(%rbp), %rdi
	movl	$3, %edx
	movq	%rdi, %rsi
	call	*%rax
.L1380:
	movq	40(%rsp), %rbx
	testq	%rbx, %rbx
	je	.L1382
	cmpq	$0, _ZL28__gthrw___pthread_key_createPjPFvPvE@GOTPCREL(%rip)
	je	.L1383
	lock subl	$1, 8(%rbx)
	je	.L1458
.L1382:
	movq	16(%rsp), %rbx
	testq	%rbx, %rbx
	je	.L1387
	movq	80(%rbx), %rbp
	testq	%rbp, %rbp
	je	.L1389
	cmpq	$0, _ZL28__gthrw___pthread_key_createPjPFvPvE@GOTPCREL(%rip)
	je	.L1390
	lock subl	$1, 8(%rbp)
	je	.L1459
.L1389:
	movq	56(%rbx), %rax
	testq	%rax, %rax
	je	.L1394
	leaq	40(%rbx), %rdi
	movl	$3, %edx
	movq	%rdi, %rsi
	call	*%rax
.L1394:
	movq	32(%rbx), %rbx
	testq	%rbx, %rbx
	je	.L1396
	cmpq	$0, _ZL28__gthrw___pthread_key_createPjPFvPvE@GOTPCREL(%rip)
	je	.L1397
	lock subl	$1, 8(%rbx)
	je	.L1460
.L1396:
	movq	$0, 16(%rsp)
.L1387:
	movq	8(%rsp), %rbx
	testq	%rbx, %rbx
	je	.L1346
	.byte	0x66
	leaq	_ZN4asio6detail15keyword_tss_ptrINS0_10call_stackINS0_15task_io_serviceENS0_27task_io_service_thread_infoEE7contextEE6value_E@tlsgd(%rip), %rdi
	.value	0x6666
	rex64
	call	__tls_get_addr@PLT
	movq	(%rax), %rax
	testq	%rax, %rax
	je	.L1402
	movq	8(%rax), %rax
	testq	%rax, %rax
	je	.L1402
	cmpq	$0, (%rax)
	je	.L1461
.L1402:
	movq	%rbx, %rdi
	call	_ZdlPv@PLT
.L1346:
	movq	120(%rsp), %rax
	xorq	%fs:40, %rax
	jne	.L1462
	addq	$136, %rsp
	.cfi_remember_state
	.cfi_def_cfa_offset 40
	popq	%rbx
	.cfi_def_cfa_offset 32
	popq	%rbp
	.cfi_def_cfa_offset 24
	popq	%r12
	.cfi_def_cfa_offset 16
	popq	%r13
	.cfi_def_cfa_offset 8
	ret
	.p2align 4,,10
	.p2align 3
.L1383:
	.cfi_restore_state
	movl	8(%rbx), %eax
	leal	-1(%rax), %edx
	cmpl	$1, %eax
	movl	%edx, 8(%rbx)
	jne	.L1382
	movq	(%rbx), %rax
	movq	%rbx, %rdi
	call	*16(%rax)
	movl	12(%rbx), %eax
	leal	-1(%rax), %edx
	movl	%edx, 12(%rbx)
	jmp	.L1407
	.p2align 4,,10
	.p2align 3
.L1376:
	movl	8(%rbx), %eax
	leal	-1(%rax), %edx
	cmpl	$1, %eax
	movl	%edx, 8(%rbx)
	jne	.L1375
	movq	(%rbx), %rax
	movq	%rbx, %rdi
	call	*16(%rax)
	movl	12(%rbx), %eax
	leal	-1(%rax), %edx
	movl	%edx, 12(%rbx)
	jmp	.L1406
	.p2align 4,,10
	.p2align 3
.L1363:
	movl	8(%rbx), %eax
	leal	-1(%rax), %edx
	cmpl	$1, %eax
	movl	%edx, 8(%rbx)
	jne	.L1362
	movq	(%rbx), %rax
	movq	%rbx, %rdi
	call	*16(%rax)
	movl	12(%rbx), %eax
	leal	-1(%rax), %edx
	movl	%edx, 12(%rbx)
	jmp	.L1405
	.p2align 4,,10
	.p2align 3
.L1397:
	movl	8(%rbx), %eax
	leal	-1(%rax), %edx
	cmpl	$1, %eax
	movl	%edx, 8(%rbx)
	jne	.L1396
	movq	(%rbx), %rax
	movq	%rbx, %rdi
	call	*16(%rax)
	movl	12(%rbx), %eax
	leal	-1(%rax), %edx
	movl	%edx, 12(%rbx)
	jmp	.L1409
	.p2align 4,,10
	.p2align 3
.L1461:
	movzbl	104(%rbx), %edx
	movb	%dl, (%rbx)
	movq	%rbx, (%rax)
	jmp	.L1346
	.p2align 4,,10
	.p2align 3
.L1455:
	movzbl	104(%rbx), %edx
	movb	%dl, (%rbx)
	movq	%rbx, (%rax)
	jmp	.L1369
	.p2align 4,,10
	.p2align 3
.L1356:
	movl	8(%rbx), %eax
	leal	-1(%rax), %edx
	cmpl	$1, %eax
	movl	%edx, 8(%rbx)
	jne	.L1355
	movq	(%rbx), %rax
	movq	%rbx, %rdi
	call	*16(%rax)
	movl	12(%rbx), %eax
	leal	-1(%rax), %edx
	movl	%edx, 12(%rbx)
	jmp	.L1404
	.p2align 4,,10
	.p2align 3
.L1390:
	movl	8(%rbp), %eax
	leal	-1(%rax), %edx
	cmpl	$1, %eax
	movl	%edx, 8(%rbp)
	jne	.L1389
	movq	0(%rbp), %rax
	movq	%rbp, %rdi
	call	*16(%rax)
	movl	12(%rbp), %eax
	leal	-1(%rax), %edx
	movl	%edx, 12(%rbp)
	jmp	.L1408
	.p2align 4,,10
	.p2align 3
.L1458:
	movq	(%rbx), %rax
	movq	%rbx, %rdi
	call	*16(%rax)
	movl	$-1, %eax
	lock xaddl	%eax, 12(%rbx)
.L1407:
	cmpl	$1, %eax
	jne	.L1382
	movq	(%rbx), %rax
	movq	%rbx, %rdi
	call	*24(%rax)
	jmp	.L1382
	.p2align 4,,10
	.p2align 3
.L1457:
	movq	(%rbx), %rax
	movq	%rbx, %rdi
	call	*16(%rax)
	movl	$-1, %eax
	lock xaddl	%eax, 12(%rbx)
.L1406:
	cmpl	$1, %eax
	jne	.L1375
	movq	(%rbx), %rax
	movq	%rbx, %rdi
	call	*24(%rax)
	jmp	.L1375
	.p2align 4,,10
	.p2align 3
.L1347:
	movq	72(%rsi), %rax
	leaq	32(%rsp), %rbp
	movq	$0, 72(%rsi)
	movdqu	88(%rsi), %xmm0
	movq	%rsi, %r12
	movq	%rbp, (%rsp)
	movq	%rax, 80(%rsp)
	movq	80(%rsi), %rax
	movaps	%xmm0, 96(%rsp)
	movq	$0, 80(%rsi)
	movq	%rax, 88(%rsp)
	jmp	.L1348
	.p2align 4,,10
	.p2align 3
.L1460:
	movq	(%rbx), %rax
	movq	%rbx, %rdi
	call	*16(%rax)
	movl	$-1, %eax
	lock xaddl	%eax, 12(%rbx)
.L1409:
	cmpl	$1, %eax
	jne	.L1396
	movq	(%rbx), %rax
	movq	%rbx, %rdi
	call	*24(%rax)
	jmp	.L1396
	.p2align 4,,10
	.p2align 3
.L1454:
	movq	(%rbx), %rax
	movq	%rbx, %rdi
	call	*16(%rax)
	movl	$-1, %eax
	lock xaddl	%eax, 12(%rbx)
.L1405:
	cmpl	$1, %eax
	jne	.L1362
	movq	(%rbx), %rax
	movq	%rbx, %rdi
	call	*24(%rax)
	jmp	.L1362
	.p2align 4,,10
	.p2align 3
.L1459:
	movq	0(%rbp), %rax
	movq	%rbp, %rdi
	call	*16(%rax)
	movl	$-1, %eax
	lock xaddl	%eax, 12(%rbp)
.L1408:
	cmpl	$1, %eax
	jne	.L1389
	movq	0(%rbp), %rax
	movq	%rbp, %rdi
	call	*24(%rax)
	jmp	.L1389
	.p2align 4,,10
	.p2align 3
.L1453:
	movq	(%rbx), %rax
	movq	%rbx, %rdi
	call	*16(%rax)
	movl	$-1, %eax
	lock xaddl	%eax, 12(%rbx)
.L1404:
	cmpl	$1, %eax
	jne	.L1355
	movq	(%rbx), %rax
	movq	%rbx, %rdi
	call	*24(%rax)
	jmp	.L1355
.L1462:
	call	__stack_chk_fail@PLT
.L1456:
.LEHB48:
	call	_ZSt25__throw_bad_function_callv@PLT
.LEHE48:
.L1411:
	movq	%rbp, %rdi
	movq	%rax, %rbx
	sfence
	call	_ZZN7asiopal8Executor5StartERKNSt6chrono10time_pointINS1_3_V212steady_clockENS1_8durationIlSt5ratioILl1ELl1000000000EEEEEERKSt8functionIFvvEEENUlRKSt10error_codeE_D1Ev
.L1353:
	movq	%rsp, %rax
	leaq	8(%rax), %rdi
	leaq	16(%rax), %rsi
	call	_ZN4asio6detail18completion_handlerINS0_7binder1IZN7asiopal8Executor5StartERKNSt6chrono10time_pointINS5_3_V212steady_clockENS5_8durationIlSt5ratioILl1ELl1000000000EEEEEERKSt8functionIFvvEEEUlRKSt10error_codeE_SL_EEE3ptr5resetEv.isra.105
	movq	%rbx, %rdi
.LEHB49:
	call	_Unwind_Resume@PLT
.LEHE49:
.L1412:
	movq	%rax, %rbx
	movq	64(%rsp), %rax
	testq	%rax, %rax
	je	.L1351
	leaq	16(%rbp), %rdi
	movl	$3, %edx
	movq	%rdi, %rsi
	call	*%rax
.L1351:
	movq	40(%rsp), %rdi
	testq	%rdi, %rdi
	je	.L1353
	call	_ZNSt16_Sp_counted_baseILN9__gnu_cxx12_Lock_policyE2EE10_M_releaseEv@PLT
	jmp	.L1353
	.cfi_endproc
.LFE9168:
	.section	.gcc_except_table
.LLSDA9168:
	.byte	0xff
	.byte	0xff
	.byte	0x1
	.uleb128 .LLSDACSE9168-.LLSDACSB9168
.LLSDACSB9168:
	.uleb128 .LEHB46-.LFB9168
	.uleb128 .LEHE46-.LEHB46
	.uleb128 .L1412-.LFB9168
	.uleb128 0
	.uleb128 .LEHB47-.LFB9168
	.uleb128 .LEHE47-.LEHB47
	.uleb128 .L1411-.LFB9168
	.uleb128 0
	.uleb128 .LEHB48-.LFB9168
	.uleb128 .LEHE48-.LEHB48
	.uleb128 .L1411-.LFB9168
	.uleb128 0
	.uleb128 .LEHB49-.LFB9168
	.uleb128 .LEHE49-.LEHB49
	.uleb128 0
	.uleb128 0
.LLSDACSE9168:
	.text
	.size	_ZN4asio6detail18completion_handlerINS0_7binder1IZN7asiopal8Executor5StartERKNSt6chrono10time_pointINS5_3_V212steady_clockENS5_8durationIlSt5ratioILl1ELl1000000000EEEEEERKSt8functionIFvvEEEUlRKSt10error_codeE_SL_EEE11do_completeEPNS0_15task_io_serviceEPNS0_25task_io_service_operationESN_m, .-_ZN4asio6detail18completion_handlerINS0_7binder1IZN7asiopal8Executor5StartERKNSt6chrono10time_pointINS5_3_V212steady_clockENS5_8durationIlSt5ratioILl1ELl1000000000EEEEEERKSt8functionIFvvEEEUlRKSt10error_codeE_SL_EEE11do_completeEPNS0_15task_io_serviceEPNS0_25task_io_service_operationESN_m
	.p2align 4,,15
	.type	_ZN4asio6detail18completion_handlerINS0_17rewrapped_handlerINS0_7binder1INS0_15wrapped_handlerINS_10io_service6strandEZN7asiopal8Executor5StartERKNSt6chrono10time_pointINS9_3_V212steady_clockENS9_8durationIlSt5ratioILl1ELl1000000000EEEEEERKSt8functionIFvvEEEUlRKSt10error_codeE_NS0_26is_continuation_if_runningEEESP_EESS_EEE11do_completeEPNS0_15task_io_serviceEPNS0_25task_io_service_operationESR_m, @function
_ZN4asio6detail18completion_handlerINS0_17rewrapped_handlerINS0_7binder1INS0_15wrapped_handlerINS_10io_service6strandEZN7asiopal8Executor5StartERKNSt6chrono10time_pointINS9_3_V212steady_clockENS9_8durationIlSt5ratioILl1ELl1000000000EEEEEERKSt8functionIFvvEEEUlRKSt10error_codeE_NS0_26is_continuation_if_runningEEESP_EESS_EEE11do_completeEPNS0_15task_io_serviceEPNS0_25task_io_service_operationESR_m:
.LFB9103:
	.cfi_startproc
	.cfi_personality 0x9b,DW.ref.__gxx_personality_v0
	.cfi_lsda 0x1b,.LLSDA9103
	pushq	%r15
	.cfi_def_cfa_offset 16
	.cfi_offset 15, -16
	pushq	%r14
	.cfi_def_cfa_offset 24
	.cfi_offset 14, -24
	pushq	%r13
	.cfi_def_cfa_offset 32
	.cfi_offset 13, -32
	pushq	%r12
	.cfi_def_cfa_offset 40
	.cfi_offset 12, -40
	movq	%rdi, %r12
	pushq	%rbp
	.cfi_def_cfa_offset 48
	.cfi_offset 6, -48
	pushq	%rbx
	.cfi_def_cfa_offset 56
	.cfi_offset 3, -56
	movq	%rsi, %rbx
	subq	$648, %rsp
	.cfi_def_cfa_offset 704
	movq	%fs:40, %rax
	movq	%rax, 632(%rsp)
	xorl	%eax, %eax
	leaq	24(%rsi), %rax
	movq	%rsi, 24(%rsp)
	movq	%rsi, 32(%rsp)
	movq	$0, 496(%rsp)
	leaq	464(%rsp), %rbp
	movq	%rax, 16(%rsp)
	movq	24(%rsi), %rax
	movq	$0, 24(%rsi)
	movq	%rax, 464(%rsp)
	movq	32(%rsi), %rax
	movq	$0, 32(%rsi)
	movq	%rax, 472(%rsp)
	movq	56(%rsi), %rax
	testq	%rax, %rax
	je	.L1464
	leaq	464(%rsp), %rbp
	leaq	40(%rsi), %rsi
	movl	$2, %edx
	leaq	16(%rbp), %rdi
.LEHB50:
	call	*%rax
.LEHE50:
	movdqu	56(%rbx), %xmm0
	movaps	%xmm0, 496(%rsp)
.L1464:
	movq	72(%rbx), %rax
	movq	$0, 576(%rsp)
	movq	%rax, 512(%rsp)
	movq	80(%rbx), %rax
	movdqu	88(%rbx), %xmm0
	movq	$0, 80(%rbx)
	movq	$0, 72(%rbx)
	movq	%rax, 520(%rsp)
	movq	104(%rbx), %rax
	movaps	%xmm0, 528(%rsp)
	movq	$0, 104(%rbx)
	movq	%rax, 544(%rsp)
	movq	112(%rbx), %rax
	movq	$0, 112(%rbx)
	movq	%rax, 552(%rsp)
	movq	136(%rbx), %rax
	testq	%rax, %rax
	je	.L1470
	leaq	120(%rbx), %rsi
	leaq	96(%rbp), %rdi
	movl	$2, %edx
.LEHB51:
	call	*%rax
.LEHE51:
	movdqu	136(%rbx), %xmm0
	movaps	%xmm0, 576(%rsp)
.L1470:
	movq	152(%rbx), %rax
	movq	$0, 152(%rbx)
	movdqu	168(%rbx), %xmm0
	movq	%rax, 592(%rsp)
	movq	160(%rbx), %rax
	movq	$0, 160(%rbx)
	movq	32(%rsp), %rbx
	movaps	%xmm0, 608(%rsp)
	movq	%rax, 600(%rsp)
	movq	%rbp, 16(%rsp)
	testq	%rbx, %rbx
	je	.L1477
	movq	160(%rbx), %r13
	testq	%r13, %r13
	je	.L1479
	cmpq	$0, _ZL28__gthrw___pthread_key_createPjPFvPvE@GOTPCREL(%rip)
	je	.L1480
	lock subl	$1, 8(%r13)
	je	.L1993
.L1479:
	movq	136(%rbx), %rax
	testq	%rax, %rax
	je	.L1484
	leaq	120(%rbx), %rdi
	movl	$3, %edx
	movq	%rdi, %rsi
	call	*%rax
.L1484:
	movq	112(%rbx), %r13
	testq	%r13, %r13
	je	.L1486
	cmpq	$0, _ZL28__gthrw___pthread_key_createPjPFvPvE@GOTPCREL(%rip)
	je	.L1487
	lock subl	$1, 8(%r13)
	je	.L1994
.L1486:
	movq	80(%rbx), %r13
	testq	%r13, %r13
	je	.L1492
	cmpq	$0, _ZL28__gthrw___pthread_key_createPjPFvPvE@GOTPCREL(%rip)
	je	.L1493
	lock subl	$1, 8(%r13)
	je	.L1995
.L1492:
	movq	56(%rbx), %rax
	testq	%rax, %rax
	je	.L1497
	leaq	40(%rbx), %rdi
	movl	$3, %edx
	movq	%rdi, %rsi
	call	*%rax
.L1497:
	movq	32(%rbx), %rbx
	testq	%rbx, %rbx
	je	.L1499
	cmpq	$0, _ZL28__gthrw___pthread_key_createPjPFvPvE@GOTPCREL(%rip)
	je	.L1500
	lock subl	$1, 8(%rbx)
	je	.L1996
.L1499:
	movq	$0, 32(%rsp)
.L1477:
	movq	24(%rsp), %rbx
	testq	%rbx, %rbx
	je	.L1504
	.byte	0x66
	leaq	_ZN4asio6detail15keyword_tss_ptrINS0_10call_stackINS0_15task_io_serviceENS0_27task_io_service_thread_infoEE7contextEE6value_E@tlsgd(%rip), %rdi
	.value	0x6666
	rex64
	call	__tls_get_addr@PLT
	movq	(%rax), %rax
	testq	%rax, %rax
	je	.L1505
	movq	8(%rax), %rax
	testq	%rax, %rax
	je	.L1505
	cmpq	$0, (%rax)
	je	.L1997
.L1505:
	movq	%rbx, %rdi
	call	_ZdlPv@PLT
.L1506:
	movq	$0, 24(%rsp)
.L1504:
	testq	%r12, %r12
	je	.L1507
	movq	544(%rsp), %rax
	movq	%rax, 144(%rsp)
	movq	552(%rsp), %rax
	testq	%rax, %rax
	movq	%rax, 152(%rsp)
	je	.L1508
	cmpq	$0, _ZL28__gthrw___pthread_key_createPjPFvPvE@GOTPCREL(%rip)
	jne	.L1998
	addl	$1, 8(%rax)
.L1508:
	movq	576(%rsp), %rax
	movq	$0, 176(%rsp)
	testq	%rax, %rax
	je	.L1510
	leaq	144(%rsp), %rbx
	leaq	96(%rbp), %rsi
	movl	$2, %edx
	leaq	16(%rbx), %rdi
.LEHB52:
	call	*%rax
.LEHE52:
	movdqa	576(%rsp), %xmm0
	movq	576(%rsp), %rax
	movaps	%xmm0, 176(%rsp)
.L1510:
	movq	592(%rsp), %rdx
	movq	%rdx, 192(%rsp)
	movq	600(%rsp), %rdx
	testq	%rdx, %rdx
	movq	%rdx, 200(%rsp)
	je	.L1515
	cmpq	$0, _ZL28__gthrw___pthread_key_createPjPFvPvE@GOTPCREL(%rip)
	jne	.L1999
	addl	$1, 8(%rdx)
	movq	176(%rsp), %rax
.L1515:
	movq	144(%rsp), %rdi
	movq	152(%rsp), %rsi
	testq	%rax, %rax
	pxor	%xmm0, %xmm0
	movq	$0, 240(%rsp)
	movq	%rdi, 208(%rsp)
	movq	%rsi, 216(%rsp)
	movaps	%xmm0, 144(%rsp)
	je	.L1518
	leaq	144(%rsp), %rbx
	leaq	208(%rsp), %r12
	movl	$2, %edx
	leaq	16(%rbx), %rsi
	leaq	16(%r12), %rdi
.LEHB53:
	call	*%rax
.LEHE53:
	movdqa	176(%rsp), %xmm0
	movq	176(%rsp), %rax
	movq	208(%rsp), %rdi
	movaps	%xmm0, 240(%rsp)
	movq	216(%rsp), %rsi
.L1518:
	pxor	%xmm0, %xmm0
	testq	%rax, %rax
	movq	192(%rsp), %rcx
	movq	200(%rsp), %rdx
	movaps	%xmm0, 192(%rsp)
	movq	%rdi, 368(%rsp)
	movq	$0, 216(%rsp)
	movdqa	608(%rsp), %xmm0
	movq	%rcx, 256(%rsp)
	movq	%rdx, 264(%rsp)
	movaps	%xmm0, 272(%rsp)
	movq	%rsi, 376(%rsp)
	movq	$0, 208(%rsp)
	movq	$0, 400(%rsp)
	je	.L1524
	leaq	208(%rsp), %r12
	leaq	368(%rsp), %r13
	movl	$2, %edx
	leaq	16(%r12), %rsi
	leaq	16(%r13), %rdi
.LEHB54:
	call	*%rax
.LEHE54:
	movdqa	240(%rsp), %xmm0
	movq	256(%rsp), %rcx
	movq	264(%rsp), %rdx
	movaps	%xmm0, 400(%rsp)
.L1524:
	pxor	%xmm0, %xmm0
	movq	%rcx, 416(%rsp)
	movaps	%xmm0, 256(%rsp)
	movq	%rdx, 424(%rsp)
	movq	536(%rsp), %rbx
	movdqa	272(%rsp), %xmm0
	movaps	%xmm0, 432(%rsp)
	.byte	0x66
	leaq	_ZN4asio6detail15keyword_tss_ptrINS0_10call_stackINS0_14strand_service11strand_implEhE7contextEE6value_E@tlsgd(%rip), %rdi
	.value	0x6666
	rex64
	call	__tls_get_addr@PLT
	movq	(%rax), %rax
	testq	%rax, %rax
	jne	.L1982
	jmp	.L1530
	.p2align 4,,10
	.p2align 3
.L1534:
	movq	16(%rax), %rax
	testq	%rax, %rax
	je	.L1530
.L1982:
	cmpq	(%rax), %rbx
	jne	.L1534
	cmpq	$0, 8(%rax)
	je	.L1530
	lfence
	movl	432(%rsp), %edx
	testl	%edx, %edx
	jne	.L1540
	cmpq	$0, 400(%rsp)
	leaq	368(%rsp), %r13
	je	.L2000
	leaq	16(%r13), %rdi
.LEHB55:
	call	*408(%rsp)
.LEHE55:
.L1540:
	sfence
.L1538:
	movq	424(%rsp), %rbx
	testq	%rbx, %rbx
	je	.L1669
	cmpq	$0, _ZL28__gthrw___pthread_key_createPjPFvPvE@GOTPCREL(%rip)
	je	.L1670
	lock subl	$1, 8(%rbx)
	je	.L2001
.L1669:
	movq	400(%rsp), %rax
	testq	%rax, %rax
	je	.L1674
	leaq	384(%rsp), %rdi
	movl	$3, %edx
	movq	%rdi, %rsi
	call	*%rax
.L1674:
	movq	376(%rsp), %rbx
	testq	%rbx, %rbx
	je	.L1676
	cmpq	$0, _ZL28__gthrw___pthread_key_createPjPFvPvE@GOTPCREL(%rip)
	je	.L1677
	lock subl	$1, 8(%rbx)
	je	.L2002
.L1676:
	movq	264(%rsp), %rbx
	testq	%rbx, %rbx
	je	.L1682
	cmpq	$0, _ZL28__gthrw___pthread_key_createPjPFvPvE@GOTPCREL(%rip)
	je	.L1683
	lock subl	$1, 8(%rbx)
	je	.L2003
.L1682:
	movq	240(%rsp), %rax
	testq	%rax, %rax
	je	.L1687
	leaq	224(%rsp), %rdi
	movl	$3, %edx
	movq	%rdi, %rsi
	call	*%rax
.L1687:
	movq	216(%rsp), %rbx
	testq	%rbx, %rbx
	je	.L1689
	cmpq	$0, _ZL28__gthrw___pthread_key_createPjPFvPvE@GOTPCREL(%rip)
	je	.L1690
	lock subl	$1, 8(%rbx)
	je	.L2004
.L1689:
	movq	200(%rsp), %rbx
	testq	%rbx, %rbx
	je	.L1695
	cmpq	$0, _ZL28__gthrw___pthread_key_createPjPFvPvE@GOTPCREL(%rip)
	je	.L1696
	lock subl	$1, 8(%rbx)
	je	.L2005
.L1695:
	movq	176(%rsp), %rax
	testq	%rax, %rax
	je	.L1700
	leaq	160(%rsp), %rdi
	movl	$3, %edx
	movq	%rdi, %rsi
	call	*%rax
.L1700:
	movq	152(%rsp), %rbx
	testq	%rbx, %rbx
	je	.L1702
	cmpq	$0, _ZL28__gthrw___pthread_key_createPjPFvPvE@GOTPCREL(%rip)
	je	.L1703
	lock subl	$1, 8(%rbx)
	je	.L2006
.L1702:
	sfence
.L1507:
	movq	600(%rsp), %rbx
	testq	%rbx, %rbx
	je	.L1708
	cmpq	$0, _ZL28__gthrw___pthread_key_createPjPFvPvE@GOTPCREL(%rip)
	je	.L1709
	lock subl	$1, 8(%rbx)
	je	.L2007
.L1708:
	movq	576(%rsp), %rax
	testq	%rax, %rax
	je	.L1713
	leaq	96(%rbp), %rdi
	movl	$3, %edx
	movq	%rdi, %rsi
	call	*%rax
.L1713:
	movq	552(%rsp), %rbx
	testq	%rbx, %rbx
	je	.L1715
	cmpq	$0, _ZL28__gthrw___pthread_key_createPjPFvPvE@GOTPCREL(%rip)
	je	.L1716
	lock subl	$1, 8(%rbx)
	je	.L2008
.L1715:
	movq	520(%rsp), %rbx
	testq	%rbx, %rbx
	je	.L1721
	cmpq	$0, _ZL28__gthrw___pthread_key_createPjPFvPvE@GOTPCREL(%rip)
	je	.L1722
	lock subl	$1, 8(%rbx)
	je	.L2009
.L1721:
	movq	496(%rsp), %rax
	testq	%rax, %rax
	je	.L1726
	leaq	16(%rbp), %rdi
	movl	$3, %edx
	movq	%rdi, %rsi
	call	*%rax
.L1726:
	movq	472(%rsp), %rbx
	testq	%rbx, %rbx
	je	.L1728
	cmpq	$0, _ZL28__gthrw___pthread_key_createPjPFvPvE@GOTPCREL(%rip)
	je	.L1729
	lock subl	$1, 8(%rbx)
	je	.L2010
.L1728:
	movq	32(%rsp), %rbx
	testq	%rbx, %rbx
	je	.L1733
	movq	160(%rbx), %rbp
	testq	%rbp, %rbp
	je	.L1735
	cmpq	$0, _ZL28__gthrw___pthread_key_createPjPFvPvE@GOTPCREL(%rip)
	je	.L1736
	lock subl	$1, 8(%rbp)
	je	.L2011
.L1735:
	movq	136(%rbx), %rax
	testq	%rax, %rax
	je	.L1740
	leaq	120(%rbx), %rdi
	movl	$3, %edx
	movq	%rdi, %rsi
	call	*%rax
.L1740:
	movq	112(%rbx), %rbp
	testq	%rbp, %rbp
	je	.L1742
	cmpq	$0, _ZL28__gthrw___pthread_key_createPjPFvPvE@GOTPCREL(%rip)
	je	.L1743
	lock subl	$1, 8(%rbp)
	je	.L2012
.L1742:
	movq	80(%rbx), %rbp
	testq	%rbp, %rbp
	je	.L1748
	cmpq	$0, _ZL28__gthrw___pthread_key_createPjPFvPvE@GOTPCREL(%rip)
	je	.L1749
	lock subl	$1, 8(%rbp)
	je	.L2013
.L1748:
	movq	56(%rbx), %rax
	testq	%rax, %rax
	je	.L1753
	leaq	40(%rbx), %rdi
	movl	$3, %edx
	movq	%rdi, %rsi
	call	*%rax
.L1753:
	movq	32(%rbx), %rbx
	testq	%rbx, %rbx
	je	.L1755
	cmpq	$0, _ZL28__gthrw___pthread_key_createPjPFvPvE@GOTPCREL(%rip)
	je	.L1756
	lock subl	$1, 8(%rbx)
	je	.L2014
.L1755:
	movq	$0, 32(%rsp)
.L1733:
	movq	24(%rsp), %rbx
	testq	%rbx, %rbx
	je	.L1463
	.byte	0x66
	leaq	_ZN4asio6detail15keyword_tss_ptrINS0_10call_stackINS0_15task_io_serviceENS0_27task_io_service_thread_infoEE7contextEE6value_E@tlsgd(%rip), %rdi
	.value	0x6666
	rex64
	call	__tls_get_addr@PLT
	movq	(%rax), %rax
	testq	%rax, %rax
	je	.L1761
	movq	8(%rax), %rax
	testq	%rax, %rax
	je	.L1761
	cmpq	$0, (%rax)
	je	.L2015
.L1761:
	movq	%rbx, %rdi
	call	_ZdlPv@PLT
.L1463:
	movq	632(%rsp), %rax
	xorq	%fs:40, %rax
	jne	.L2016
	addq	$648, %rsp
	.cfi_remember_state
	.cfi_def_cfa_offset 56
	popq	%rbx
	.cfi_def_cfa_offset 48
	popq	%rbp
	.cfi_def_cfa_offset 40
	popq	%r12
	.cfi_def_cfa_offset 32
	popq	%r13
	.cfi_def_cfa_offset 24
	popq	%r14
	.cfi_def_cfa_offset 16
	popq	%r15
	.cfi_def_cfa_offset 8
	ret
	.p2align 4,,10
	.p2align 3
.L1716:
	.cfi_restore_state
	movl	8(%rbx), %eax
	leal	-1(%rax), %edx
	cmpl	$1, %eax
	movl	%edx, 8(%rbx)
	jne	.L1715
	movq	(%rbx), %rax
	movq	%rbx, %rdi
	call	*16(%rax)
	movl	12(%rbx), %eax
	leal	-1(%rax), %edx
	movl	%edx, 12(%rbx)
	jmp	.L1782
	.p2align 4,,10
	.p2align 3
.L1729:
	movl	8(%rbx), %eax
	leal	-1(%rax), %edx
	cmpl	$1, %eax
	movl	%edx, 8(%rbx)
	jne	.L1728
	movq	(%rbx), %rax
	movq	%rbx, %rdi
	call	*16(%rax)
	movl	12(%rbx), %eax
	leal	-1(%rax), %edx
	movl	%edx, 12(%rbx)
	jmp	.L1784
	.p2align 4,,10
	.p2align 3
.L1998:
	lock addl	$1, 8(%rax)
	jmp	.L1508
	.p2align 4,,10
	.p2align 3
.L1999:
	lock addl	$1, 8(%rdx)
	movq	176(%rsp), %rax
	jmp	.L1515
	.p2align 4,,10
	.p2align 3
.L1722:
	movl	8(%rbx), %eax
	leal	-1(%rax), %edx
	cmpl	$1, %eax
	movl	%edx, 8(%rbx)
	jne	.L1721
	movq	(%rbx), %rax
	movq	%rbx, %rdi
	call	*16(%rax)
	movl	12(%rbx), %eax
	leal	-1(%rax), %edx
	movl	%edx, 12(%rbx)
	jmp	.L1783
	.p2align 4,,10
	.p2align 3
.L1709:
	movl	8(%rbx), %eax
	leal	-1(%rax), %edx
	cmpl	$1, %eax
	movl	%edx, 8(%rbx)
	jne	.L1708
	movq	(%rbx), %rax
	movq	%rbx, %rdi
	call	*16(%rax)
	movl	12(%rbx), %eax
	leal	-1(%rax), %edx
	movl	%edx, 12(%rbx)
	jmp	.L1781
	.p2align 4,,10
	.p2align 3
.L1530:
	pxor	%xmm0, %xmm0
	leaq	368(%rsp), %r13
	movq	528(%rsp), %r12
	movq	%r13, 48(%rsp)
	movups	%xmm0, 56(%rsp)
	.byte	0x66
	leaq	_ZN4asio6detail15keyword_tss_ptrINS0_10call_stackINS0_15task_io_serviceENS0_27task_io_service_thread_infoEE7contextEE6value_E@tlsgd(%rip), %rdi
	.value	0x6666
	rex64
	call	__tls_get_addr@PLT
	movq	(%rax), %rax
	testq	%rax, %rax
	je	.L1541
	movq	8(%rax), %rax
	testq	%rax, %rax
	je	.L1541
	movq	(%rax), %rbx
	testq	%rbx, %rbx
	je	.L1541
	movq	$0, (%rax)
	movzbl	(%rbx), %eax
	cmpb	$103, %al
	jbe	.L1542
	movb	%al, 104(%rbx)
	jmp	.L1543
	.p2align 4,,10
	.p2align 3
.L1542:
	movq	%rbx, %rdi
	call	_ZdlPv@PLT
.L1541:
	movl	$105, %edi
.LEHB56:
	call	_Znwm@PLT
.LEHE56:
	movq	%rax, %rbx
	movb	$104, 104(%rax)
.L1543:
	leaq	_ZN4asio6detail18completion_handlerINS0_7binder1IZN7asiopal8Executor5StartERKNSt6chrono10time_pointINS5_3_V212steady_clockENS5_8durationIlSt5ratioILl1ELl1000000000EEEEEERKSt8functionIFvvEEEUlRKSt10error_codeE_SL_EEE11do_completeEPNS0_15task_io_serviceEPNS0_25task_io_service_operationESN_m(%rip), %rax
	movq	%rbx, 56(%rsp)
	movl	$0, 16(%rbx)
	movq	$0, (%rbx)
	pxor	%xmm0, %xmm0
	movq	%rax, 8(%rbx)
	movq	368(%rsp), %rax
	movq	$0, 56(%rbx)
	movq	%rax, 24(%rbx)
	movq	376(%rsp), %rax
	movaps	%xmm0, 368(%rsp)
	movq	%rax, 32(%rbx)
	movq	400(%rsp), %rax
	testq	%rax, %rax
	je	.L1544
	leaq	40(%rbx), %r14
	leaq	16(%r13), %rsi
	movl	$2, %edx
	movq	%r14, %rdi
.LEHB57:
	call	*%rax
.LEHE57:
	movdqa	400(%rsp), %xmm0
	movups	%xmm0, 56(%rbx)
.L1544:
	movq	416(%rsp), %rax
	pxor	%xmm0, %xmm0
	movq	%rax, 72(%rbx)
	movq	424(%rsp), %rax
	movaps	%xmm0, 416(%rsp)
	movq	%rbx, 64(%rsp)
	movdqa	432(%rsp), %xmm0
	movq	%rax, 80(%rbx)
	movups	%xmm0, 88(%rbx)
	movq	40(%r12), %r14
	.byte	0x66
	leaq	_ZN4asio6detail15keyword_tss_ptrINS0_10call_stackINS0_15task_io_serviceENS0_27task_io_service_thread_infoEE7contextEE6value_E@tlsgd(%rip), %rdi
	.value	0x6666
	rex64
	call	__tls_get_addr@PLT
	movq	(%rax), %rax
	testq	%rax, %rax
	jne	.L1984
	jmp	.L1549
	.p2align 4,,10
	.p2align 3
.L1553:
	movq	16(%rax), %rax
	testq	%rax, %rax
	je	.L1549
.L1984:
	cmpq	(%rax), %r14
	jne	.L1553
	movq	8(%rax), %r14
	movq	536(%rsp), %rax
	leaq	24(%rax), %rdi
	call	pthread_mutex_lock@PLT
	testq	%r14, %r14
	je	.L1555
	movq	536(%rsp), %rdi
	cmpb	$0, 64(%rdi)
	je	.L2017
.L1557:
	cmpq	$0, 80(%rdi)
	movq	$0, (%rbx)
	je	.L1561
	movq	80(%rdi), %rax
	movq	%rbx, (%rax)
	movq	%rbx, 80(%rdi)
.L1562:
	addq	$24, %rdi
	call	pthread_mutex_unlock@PLT
	jmp	.L1538
	.p2align 4,,10
	.p2align 3
.L1756:
	movl	8(%rbx), %eax
	leal	-1(%rax), %edx
	cmpl	$1, %eax
	movl	%edx, 8(%rbx)
	jne	.L1755
	movq	(%rbx), %rax
	movq	%rbx, %rdi
	call	*16(%rax)
	movl	12(%rbx), %eax
	leal	-1(%rax), %edx
	movl	%edx, 12(%rbx)
	jmp	.L1788
	.p2align 4,,10
	.p2align 3
.L1743:
	movl	8(%rbp), %eax
	leal	-1(%rax), %edx
	cmpl	$1, %eax
	movl	%edx, 8(%rbp)
	jne	.L1742
	movq	0(%rbp), %rax
	movq	%rbp, %rdi
	call	*16(%rax)
	movl	12(%rbp), %eax
	leal	-1(%rax), %edx
	movl	%edx, 12(%rbp)
	jmp	.L1786
	.p2align 4,,10
	.p2align 3
.L1487:
	movl	8(%r13), %eax
	leal	-1(%rax), %edx
	cmpl	$1, %eax
	movl	%edx, 8(%r13)
	jne	.L1486
	movq	0(%r13), %rax
	movq	%r13, %rdi
	call	*16(%rax)
	movl	12(%r13), %eax
	leal	-1(%rax), %edx
	movl	%edx, 12(%r13)
	jmp	.L1764
	.p2align 4,,10
	.p2align 3
.L1500:
	movl	8(%rbx), %eax
	leal	-1(%rax), %edx
	cmpl	$1, %eax
	movl	%edx, 8(%rbx)
	jne	.L1499
	movq	(%rbx), %rax
	movq	%rbx, %rdi
	call	*16(%rax)
	movl	12(%rbx), %eax
	leal	-1(%rax), %edx
	movl	%edx, 12(%rbx)
	jmp	.L1766
	.p2align 4,,10
	.p2align 3
.L1997:
	movzbl	184(%rbx), %edx
	movb	%dl, (%rbx)
	movq	%rbx, (%rax)
	jmp	.L1506
	.p2align 4,,10
	.p2align 3
.L2015:
	movzbl	184(%rbx), %edx
	movb	%dl, (%rbx)
	movq	%rbx, (%rax)
	jmp	.L1463
	.p2align 4,,10
	.p2align 3
.L1749:
	movl	8(%rbp), %eax
	leal	-1(%rax), %edx
	cmpl	$1, %eax
	movl	%edx, 8(%rbp)
	jne	.L1748
	movq	0(%rbp), %rax
	movq	%rbp, %rdi
	call	*16(%rax)
	movl	12(%rbp), %eax
	leal	-1(%rax), %edx
	movl	%edx, 12(%rbp)
	jmp	.L1787
	.p2align 4,,10
	.p2align 3
.L1493:
	movl	8(%r13), %eax
	leal	-1(%rax), %edx
	cmpl	$1, %eax
	movl	%edx, 8(%r13)
	jne	.L1492
	movq	0(%r13), %rax
	movq	%r13, %rdi
	call	*16(%rax)
	movl	12(%r13), %eax
	leal	-1(%rax), %edx
	movl	%edx, 12(%r13)
	jmp	.L1765
	.p2align 4,,10
	.p2align 3
.L1736:
	movl	8(%rbp), %eax
	leal	-1(%rax), %edx
	cmpl	$1, %eax
	movl	%edx, 8(%rbp)
	jne	.L1735
	movq	0(%rbp), %rax
	movq	%rbp, %rdi
	call	*16(%rax)
	movl	12(%rbp), %eax
	leal	-1(%rax), %edx
	movl	%edx, 12(%rbp)
	jmp	.L1785
	.p2align 4,,10
	.p2align 3
.L1480:
	movl	8(%r13), %eax
	leal	-1(%rax), %edx
	cmpl	$1, %eax
	movl	%edx, 8(%r13)
	jne	.L1479
	movq	0(%r13), %rax
	movq	%r13, %rdi
	call	*16(%rax)
	movl	12(%r13), %eax
	leal	-1(%rax), %edx
	movl	%edx, 12(%r13)
	jmp	.L1763
	.p2align 4,,10
	.p2align 3
.L2008:
	movq	(%rbx), %rax
	movq	%rbx, %rdi
	call	*16(%rax)
	movl	$-1, %eax
	lock xaddl	%eax, 12(%rbx)
.L1782:
	cmpl	$1, %eax
	jne	.L1715
	movq	(%rbx), %rax
	movq	%rbx, %rdi
	call	*24(%rax)
	jmp	.L1715
	.p2align 4,,10
	.p2align 3
.L2010:
	movq	(%rbx), %rax
	movq	%rbx, %rdi
	call	*16(%rax)
	movl	$-1, %eax
	lock xaddl	%eax, 12(%rbx)
.L1784:
	cmpl	$1, %eax
	jne	.L1728
	movq	(%rbx), %rax
	movq	%rbx, %rdi
	call	*24(%rax)
	jmp	.L1728
	.p2align 4,,10
	.p2align 3
.L2007:
	movq	(%rbx), %rax
	movq	%rbx, %rdi
	call	*16(%rax)
	movl	$-1, %eax
	lock xaddl	%eax, 12(%rbx)
.L1781:
	cmpl	$1, %eax
	jne	.L1708
	movq	(%rbx), %rax
	movq	%rbx, %rdi
	call	*24(%rax)
	jmp	.L1708
	.p2align 4,,10
	.p2align 3
.L2009:
	movq	(%rbx), %rax
	movq	%rbx, %rdi
	call	*16(%rax)
	movl	$-1, %eax
	lock xaddl	%eax, 12(%rbx)
.L1783:
	cmpl	$1, %eax
	jne	.L1721
	movq	(%rbx), %rax
	movq	%rbx, %rdi
	call	*24(%rax)
	jmp	.L1721
	.p2align 4,,10
	.p2align 3
.L2002:
	movq	(%rbx), %rax
	movq	%rbx, %rdi
	call	*16(%rax)
	movl	$-1, %eax
	lock xaddl	%eax, 12(%rbx)
.L1776:
	cmpl	$1, %eax
	jne	.L1676
	movq	(%rbx), %rax
	movq	%rbx, %rdi
	call	*24(%rax)
	jmp	.L1676
	.p2align 4,,10
	.p2align 3
.L2006:
	movq	(%rbx), %rax
	movq	%rbx, %rdi
	call	*16(%rax)
	movl	$-1, %eax
	lock xaddl	%eax, 12(%rbx)
.L1780:
	cmpl	$1, %eax
	jne	.L1702
	movq	(%rbx), %rax
	movq	%rbx, %rdi
	call	*24(%rax)
	jmp	.L1702
	.p2align 4,,10
	.p2align 3
.L2004:
	movq	(%rbx), %rax
	movq	%rbx, %rdi
	call	*16(%rax)
	movl	$-1, %eax
	lock xaddl	%eax, 12(%rbx)
.L1778:
	cmpl	$1, %eax
	jne	.L1689
	movq	(%rbx), %rax
	movq	%rbx, %rdi
	call	*24(%rax)
	jmp	.L1689
	.p2align 4,,10
	.p2align 3
.L2003:
	movq	(%rbx), %rax
	movq	%rbx, %rdi
	call	*16(%rax)
	movl	$-1, %eax
	lock xaddl	%eax, 12(%rbx)
.L1777:
	cmpl	$1, %eax
	jne	.L1682
	movq	(%rbx), %rax
	movq	%rbx, %rdi
	call	*24(%rax)
	jmp	.L1682
	.p2align 4,,10
	.p2align 3
.L2005:
	movq	(%rbx), %rax
	movq	%rbx, %rdi
	call	*16(%rax)
	movl	$-1, %eax
	lock xaddl	%eax, 12(%rbx)
.L1779:
	cmpl	$1, %eax
	jne	.L1695
	movq	(%rbx), %rax
	movq	%rbx, %rdi
	call	*24(%rax)
	jmp	.L1695
	.p2align 4,,10
	.p2align 3
.L2001:
	movq	(%rbx), %rax
	movq	%rbx, %rdi
	call	*16(%rax)
	movl	$-1, %eax
	lock xaddl	%eax, 12(%rbx)
.L1775:
	cmpl	$1, %eax
	jne	.L1669
	movq	(%rbx), %rax
	movq	%rbx, %rdi
	call	*24(%rax)
	jmp	.L1669
	.p2align 4,,10
	.p2align 3
.L1677:
	movl	8(%rbx), %eax
	leal	-1(%rax), %edx
	cmpl	$1, %eax
	movl	%edx, 8(%rbx)
	jne	.L1676
	movq	(%rbx), %rax
	movq	%rbx, %rdi
	call	*16(%rax)
	movl	12(%rbx), %eax
	leal	-1(%rax), %edx
	movl	%edx, 12(%rbx)
	jmp	.L1776
	.p2align 4,,10
	.p2align 3
.L1703:
	movl	8(%rbx), %eax
	leal	-1(%rax), %edx
	cmpl	$1, %eax
	movl	%edx, 8(%rbx)
	jne	.L1702
	movq	(%rbx), %rax
	movq	%rbx, %rdi
	call	*16(%rax)
	movl	12(%rbx), %eax
	leal	-1(%rax), %edx
	movl	%edx, 12(%rbx)
	jmp	.L1780
	.p2align 4,,10
	.p2align 3
.L1690:
	movl	8(%rbx), %eax
	leal	-1(%rax), %edx
	cmpl	$1, %eax
	movl	%edx, 8(%rbx)
	jne	.L1689
	movq	(%rbx), %rax
	movq	%rbx, %rdi
	call	*16(%rax)
	movl	12(%rbx), %eax
	leal	-1(%rax), %edx
	movl	%edx, 12(%rbx)
	jmp	.L1778
	.p2align 4,,10
	.p2align 3
.L1670:
	movl	8(%rbx), %eax
	leal	-1(%rax), %edx
	cmpl	$1, %eax
	movl	%edx, 8(%rbx)
	jne	.L1669
	movq	(%rbx), %rax
	movq	%rbx, %rdi
	call	*16(%rax)
	movl	12(%rbx), %eax
	leal	-1(%rax), %edx
	movl	%edx, 12(%rbx)
	jmp	.L1775
	.p2align 4,,10
	.p2align 3
.L1683:
	movl	8(%rbx), %eax
	leal	-1(%rax), %edx
	cmpl	$1, %eax
	movl	%edx, 8(%rbx)
	jne	.L1682
	movq	(%rbx), %rax
	movq	%rbx, %rdi
	call	*16(%rax)
	movl	12(%rbx), %eax
	leal	-1(%rax), %edx
	movl	%edx, 12(%rbx)
	jmp	.L1777
	.p2align 4,,10
	.p2align 3
.L1696:
	movl	8(%rbx), %eax
	leal	-1(%rax), %edx
	cmpl	$1, %eax
	movl	%edx, 8(%rbx)
	jne	.L1695
	movq	(%rbx), %rax
	movq	%rbx, %rdi
	call	*16(%rax)
	movl	12(%rbx), %eax
	leal	-1(%rax), %edx
	movl	%edx, 12(%rbx)
	jmp	.L1779
	.p2align 4,,10
	.p2align 3
.L1549:
	movq	536(%rsp), %rax
	leaq	24(%rax), %rdi
	call	pthread_mutex_lock@PLT
.L1555:
	movq	536(%rsp), %rdi
	cmpb	$0, 64(%rdi)
	jne	.L1557
	movb	$1, 64(%rdi)
	movq	536(%rsp), %rax
	leaq	24(%rax), %rdi
	call	pthread_mutex_unlock@PLT
	movq	536(%rsp), %r13
	movq	$0, (%rbx)
	cmpq	$0, 96(%r13)
	je	.L1564
	movq	96(%r13), %rax
	movq	%rbx, (%rax)
	movq	%rbx, 96(%r13)
.L1565:
	movq	40(%r12), %rbx
	cmpb	$0, 40(%rbx)
	je	.L1566
	.byte	0x66
	leaq	_ZN4asio6detail15keyword_tss_ptrINS0_10call_stackINS0_15task_io_serviceENS0_27task_io_service_thread_infoEE7contextEE6value_E@tlsgd(%rip), %rdi
	.value	0x6666
	rex64
	call	__tls_get_addr@PLT
	movq	(%rax), %rax
	testq	%rax, %rax
	jne	.L1986
	jmp	.L1566
	.p2align 4,,10
	.p2align 3
.L1568:
	movq	16(%rax), %rax
	testq	%rax, %rax
	je	.L1566
.L1986:
	cmpq	(%rax), %rbx
	jne	.L1568
	movq	8(%rax), %rax
	testq	%rax, %rax
	je	.L1566
	addq	$1, 24(%rax)
	cmpq	$0, 16(%rax)
	movq	$0, 0(%r13)
	je	.L1571
	movq	16(%rax), %rdx
	movq	%r13, (%rdx)
	movq	%r13, 16(%rax)
	jmp	.L1538
	.p2align 4,,10
	.p2align 3
.L1566:
	lock addq	$1, 184(%rbx)
	leaq	48(%rbx), %r12
	movq	%r12, %rdi
	call	pthread_mutex_lock@PLT
	cmpq	$0, 200(%rbx)
	movq	$0, 0(%r13)
	je	.L1572
	movq	200(%rbx), %rax
	movq	%r13, (%rax)
	movq	%r13, 200(%rbx)
.L1573:
	movq	136(%rbx), %rax
	orq	$1, %rax
	cmpq	$1, %rax
	movq	%rax, 136(%rbx)
	jne	.L2018
	cmpb	$0, 176(%rbx)
	jne	.L1576
	movq	144(%rbx), %rax
	testq	%rax, %rax
	je	.L1576
	leaq	88(%rax), %rdx
	movb	$1, 176(%rbx)
	movl	$-2147483639, 112(%rsp)
	leaq	112(%rsp), %rcx
	movl	$3, %esi
	movq	%rdx, 116(%rsp)
	movl	88(%rax), %edx
	movl	96(%rax), %edi
	call	epoll_ctl@PLT
.L1576:
	movq	%r12, %rdi
	call	pthread_mutex_unlock@PLT
	jmp	.L1538
	.p2align 4,,10
	.p2align 3
.L2017:
	movb	$1, 64(%rdi)
	movq	536(%rsp), %rax
	leaq	24(%rax), %rdi
	call	pthread_mutex_unlock@PLT
	movq	536(%rsp), %r14
	movq	64(%rsp), %rbx
	movq	$0, 56(%rsp)
	movq	$0, 64(%rsp)
	movq	%r14, 80(%rsp)
	.byte	0x66
	leaq	_ZN4asio6detail15keyword_tss_ptrINS0_10call_stackINS0_14strand_service11strand_implEhE7contextEE6value_E@tlsgd(%rip), %rdi
	.value	0x6666
	rex64
	call	__tls_get_addr@PLT
	movq	40(%r12), %r15
	movq	%rbx, 120(%rsp)
	movq	(%rax), %rdx
	movq	%rbx, 128(%rsp)
	movq	%r14, 8(%rsp)
	movq	%r15, (%rsp)
	movq	%rdx, 96(%rsp)
	leaq	80(%rsp), %rdx
	movq	%rdx, (%rax)
	leaq	24(%rbx), %rax
	movq	%rdx, 88(%rsp)
	movq	%rax, 112(%rsp)
	movq	24(%rbx), %rax
	movq	$0, 24(%rbx)
	movq	%rax, 288(%rsp)
	movq	32(%rbx), %rax
	movq	$0, 32(%rbx)
	movq	$0, 320(%rsp)
	movq	%rax, 296(%rsp)
	movq	56(%rbx), %rax
	testq	%rax, %rax
	je	.L2019
	leaq	288(%rsp), %r12
	leaq	40(%rbx), %rsi
	movl	$2, %edx
	leaq	16(%r12), %rdi
.LEHB58:
	call	*%rax
.LEHE58:
	movq	72(%rbx), %rax
	movq	128(%rsp), %r14
	movdqu	56(%rbx), %xmm0
	movq	$0, 72(%rbx)
	movq	%rax, 336(%rsp)
	movq	80(%rbx), %rax
	testq	%r14, %r14
	movaps	%xmm0, 320(%rsp)
	movq	$0, 80(%rbx)
	movdqu	88(%rbx), %xmm0
	movq	%rax, 344(%rsp)
	movq	%r12, 112(%rsp)
	movaps	%xmm0, 352(%rsp)
	je	.L1578
.L1577:
	movq	80(%r14), %rbx
	testq	%rbx, %rbx
	je	.L1584
	cmpq	$0, _ZL28__gthrw___pthread_key_createPjPFvPvE@GOTPCREL(%rip)
	je	.L1585
	lock subl	$1, 8(%rbx)
	jne	.L1584
	movq	(%rbx), %rax
	movq	%rbx, %rdi
	call	*16(%rax)
	movl	$-1, %eax
	lock xaddl	%eax, 12(%rbx)
.L1767:
	cmpl	$1, %eax
	jne	.L1584
	movq	(%rbx), %rax
	movq	%rbx, %rdi
	call	*24(%rax)
	.p2align 4,,10
	.p2align 3
.L1584:
	movq	56(%r14), %rax
	testq	%rax, %rax
	je	.L1589
	leaq	40(%r14), %rdi
	movl	$3, %edx
	movq	%rdi, %rsi
	call	*%rax
.L1589:
	movq	32(%r14), %rbx
	testq	%rbx, %rbx
	je	.L1591
	cmpq	$0, _ZL28__gthrw___pthread_key_createPjPFvPvE@GOTPCREL(%rip)
	je	.L1592
	lock subl	$1, 8(%rbx)
	jne	.L1591
	movq	(%rbx), %rax
	movq	%rbx, %rdi
	call	*16(%rax)
	movl	$-1, %eax
	lock xaddl	%eax, 12(%rbx)
.L1768:
	cmpl	$1, %eax
	jne	.L1591
	movq	(%rbx), %rax
	movq	%rbx, %rdi
	call	*24(%rax)
	.p2align 4,,10
	.p2align 3
.L1591:
	movq	$0, 128(%rsp)
.L1578:
	movq	120(%rsp), %rbx
	testq	%rbx, %rbx
	je	.L1596
	.byte	0x66
	leaq	_ZN4asio6detail15keyword_tss_ptrINS0_10call_stackINS0_15task_io_serviceENS0_27task_io_service_thread_infoEE7contextEE6value_E@tlsgd(%rip), %rdi
	.value	0x6666
	rex64
	call	__tls_get_addr@PLT
	movq	(%rax), %rax
	testq	%rax, %rax
	je	.L1597
	movq	8(%rax), %rax
	testq	%rax, %rax
	je	.L1597
	cmpq	$0, (%rax)
	je	.L2020
.L1597:
	movq	%rbx, %rdi
	call	_ZdlPv@PLT
.L1598:
	movq	$0, 120(%rsp)
.L1596:
	testq	%r15, %r15
	je	.L1599
	movl	352(%rsp), %eax
	testl	%eax, %eax
	jne	.L1602
	cmpq	$0, 320(%rsp)
	je	.L2021
	leaq	16(%r12), %rdi
.LEHB59:
	call	*328(%rsp)
.LEHE59:
.L1602:
	sfence
.L1599:
	movq	344(%rsp), %rbx
	testq	%rbx, %rbx
	je	.L1604
	cmpq	$0, _ZL28__gthrw___pthread_key_createPjPFvPvE@GOTPCREL(%rip)
	je	.L1605
	lock subl	$1, 8(%rbx)
	jne	.L1604
	movq	(%rbx), %rax
	movq	%rbx, %rdi
	call	*16(%rax)
	movl	$-1, %eax
	lock xaddl	%eax, 12(%rbx)
.L1769:
	cmpl	$1, %eax
	jne	.L1604
	movq	(%rbx), %rax
	movq	%rbx, %rdi
	call	*24(%rax)
	.p2align 4,,10
	.p2align 3
.L1604:
	movq	320(%rsp), %rax
	testq	%rax, %rax
	je	.L1609
	leaq	16(%r12), %rdi
	movl	$3, %edx
	movq	%rdi, %rsi
	call	*%rax
.L1609:
	movq	296(%rsp), %rbx
	testq	%rbx, %rbx
	je	.L1611
	cmpq	$0, _ZL28__gthrw___pthread_key_createPjPFvPvE@GOTPCREL(%rip)
	je	.L1612
	lock subl	$1, 8(%rbx)
	je	.L2022
.L1611:
	movq	128(%rsp), %rbx
	testq	%rbx, %rbx
	je	.L1616
	movq	80(%rbx), %r12
	testq	%r12, %r12
	je	.L1618
	cmpq	$0, _ZL28__gthrw___pthread_key_createPjPFvPvE@GOTPCREL(%rip)
	je	.L1619
	lock subl	$1, 8(%r12)
	jne	.L1618
	movq	(%r12), %rax
	movq	%r12, %rdi
	call	*16(%rax)
	movl	$-1, %eax
	lock xaddl	%eax, 12(%r12)
.L1771:
	cmpl	$1, %eax
	jne	.L1618
	movq	(%r12), %rax
	movq	%r12, %rdi
	call	*24(%rax)
	.p2align 4,,10
	.p2align 3
.L1618:
	movq	56(%rbx), %rax
	testq	%rax, %rax
	je	.L1623
	leaq	40(%rbx), %rdi
	movl	$3, %edx
	movq	%rdi, %rsi
	call	*%rax
.L1623:
	movq	32(%rbx), %rbx
	testq	%rbx, %rbx
	je	.L1625
	cmpq	$0, _ZL28__gthrw___pthread_key_createPjPFvPvE@GOTPCREL(%rip)
	je	.L1626
	lock subl	$1, 8(%rbx)
	jne	.L1625
	movq	(%rbx), %rax
	movq	%rbx, %rdi
	call	*16(%rax)
	movl	$-1, %eax
	lock xaddl	%eax, 12(%rbx)
.L1772:
	cmpl	$1, %eax
	jne	.L1625
	movq	(%rbx), %rax
	movq	%rbx, %rdi
	call	*24(%rax)
	.p2align 4,,10
	.p2align 3
.L1625:
	movq	$0, 128(%rsp)
.L1616:
	movq	120(%rsp), %rbx
	testq	%rbx, %rbx
	je	.L1630
	.byte	0x66
	leaq	_ZN4asio6detail15keyword_tss_ptrINS0_10call_stackINS0_15task_io_serviceENS0_27task_io_service_thread_infoEE7contextEE6value_E@tlsgd(%rip), %rdi
	.value	0x6666
	rex64
	call	__tls_get_addr@PLT
	movq	(%rax), %rax
	testq	%rax, %rax
	je	.L1631
	movq	8(%rax), %rax
	testq	%rax, %rax
	je	.L1631
	cmpq	$0, (%rax)
	je	.L2023
.L1631:
	movq	%rbx, %rdi
	call	_ZdlPv@PLT
.L1630:
	movq	8(%rsp), %rax
	leaq	24(%rax), %rdi
	call	pthread_mutex_lock@PLT
	movq	8(%rsp), %rdi
	movq	72(%rdi), %rbx
	testq	%rbx, %rbx
	je	.L2024
	movq	96(%rdi), %rax
	testq	%rax, %rax
	je	.L1635
	movq	%rbx, (%rax)
	movq	88(%rdi), %rbx
.L1636:
	movq	80(%rdi), %rax
	movq	$0, 72(%rdi)
	movq	$0, 80(%rdi)
	movq	%rax, 96(%rdi)
.L1633:
	testq	%rbx, %rbx
	setne	64(%rdi)
	addq	$24, %rdi
	call	pthread_mutex_unlock@PLT
	testq	%rbx, %rbx
	jne	.L2025
.L1637:
	.byte	0x66
	leaq	_ZN4asio6detail15keyword_tss_ptrINS0_10call_stackINS0_14strand_service11strand_implEhE7contextEE6value_E@tlsgd(%rip), %rdi
	.value	0x6666
	rex64
	call	__tls_get_addr@PLT
	movq	64(%rsp), %rbx
	movq	96(%rsp), %rdx
	testq	%rbx, %rbx
	movq	%rdx, (%rax)
	je	.L1992
	movq	80(%rbx), %r12
	testq	%r12, %r12
	je	.L1652
	cmpq	$0, _ZL28__gthrw___pthread_key_createPjPFvPvE@GOTPCREL(%rip)
	je	.L1653
	lock subl	$1, 8(%r12)
	je	.L2026
.L1652:
	movq	56(%rbx), %rax
	testq	%rax, %rax
	je	.L1657
	leaq	40(%rbx), %rdi
	movl	$3, %edx
	movq	%rdi, %rsi
	call	*%rax
.L1657:
	movq	32(%rbx), %rbx
	testq	%rbx, %rbx
	je	.L1659
	cmpq	$0, _ZL28__gthrw___pthread_key_createPjPFvPvE@GOTPCREL(%rip)
	je	.L1660
	lock subl	$1, 8(%rbx)
	je	.L2027
.L1659:
	movq	$0, 64(%rsp)
.L1992:
	movq	56(%rsp), %rbx
	testq	%rbx, %rbx
	je	.L1538
	.byte	0x66
	leaq	_ZN4asio6detail15keyword_tss_ptrINS0_10call_stackINS0_15task_io_serviceENS0_27task_io_service_thread_infoEE7contextEE6value_E@tlsgd(%rip), %rdi
	.value	0x6666
	rex64
	call	__tls_get_addr@PLT
	movq	(%rax), %rax
	testq	%rax, %rax
	je	.L1665
	movq	8(%rax), %rax
	testq	%rax, %rax
	je	.L1665
	cmpq	$0, (%rax)
	je	.L2028
.L1665:
	movq	%rbx, %rdi
	call	_ZdlPv@PLT
	jmp	.L1538
	.p2align 4,,10
	.p2align 3
.L2025:
	movq	(%rsp), %rbx
	movq	8(%rsp), %r12
	cmpb	$0, 40(%rbx)
	jne	.L2029
.L1638:
	lock addq	$1, 184(%rbx)
	leaq	48(%rbx), %r13
	movq	%r13, %rdi
	call	pthread_mutex_lock@PLT
	cmpq	$0, 200(%rbx)
	movq	$0, (%r12)
	je	.L1644
	movq	200(%rbx), %rax
	movq	%r12, (%rax)
	movq	%r12, 200(%rbx)
.L1645:
	movq	136(%rbx), %rax
	orq	$1, %rax
	cmpq	$1, %rax
	movq	%rax, 136(%rbx)
	jne	.L2030
	cmpb	$0, 176(%rbx)
	jne	.L1648
	movq	144(%rbx), %rax
	testq	%rax, %rax
	je	.L1648
	leaq	88(%rax), %rdx
	movb	$1, 176(%rbx)
	movl	$-2147483639, 112(%rsp)
	leaq	112(%rsp), %rcx
	movl	$3, %esi
	movq	%rdx, 116(%rsp)
	movl	88(%rax), %edx
	movl	96(%rax), %edi
	call	epoll_ctl@PLT
.L1648:
	movq	%r13, %rdi
	call	pthread_mutex_unlock@PLT
	jmp	.L1637
	.p2align 4,,10
	.p2align 3
.L1561:
	movq	%rbx, 80(%rdi)
	movq	%rbx, 72(%rdi)
	jmp	.L1562
	.p2align 4,,10
	.p2align 3
.L2024:
	movq	88(%rdi), %rbx
	jmp	.L1633
	.p2align 4,,10
	.p2align 3
.L1996:
	movq	(%rbx), %rax
	movq	%rbx, %rdi
	call	*16(%rax)
	movl	$-1, %eax
	lock xaddl	%eax, 12(%rbx)
.L1766:
	cmpl	$1, %eax
	jne	.L1499
	movq	(%rbx), %rax
	movq	%rbx, %rdi
	call	*24(%rax)
	jmp	.L1499
	.p2align 4,,10
	.p2align 3
.L2012:
	movq	0(%rbp), %rax
	movq	%rbp, %rdi
	call	*16(%rax)
	movl	$-1, %eax
	lock xaddl	%eax, 12(%rbp)
.L1786:
	cmpl	$1, %eax
	jne	.L1742
	movq	0(%rbp), %rax
	movq	%rbp, %rdi
	call	*24(%rax)
	jmp	.L1742
	.p2align 4,,10
	.p2align 3
.L2014:
	movq	(%rbx), %rax
	movq	%rbx, %rdi
	call	*16(%rax)
	movl	$-1, %eax
	lock xaddl	%eax, 12(%rbx)
.L1788:
	cmpl	$1, %eax
	jne	.L1755
	movq	(%rbx), %rax
	movq	%rbx, %rdi
	call	*24(%rax)
	jmp	.L1755
	.p2align 4,,10
	.p2align 3
.L1994:
	movq	0(%r13), %rax
	movq	%r13, %rdi
	call	*16(%rax)
	movl	$-1, %eax
	lock xaddl	%eax, 12(%r13)
.L1764:
	cmpl	$1, %eax
	jne	.L1486
	movq	0(%r13), %rax
	movq	%r13, %rdi
	call	*24(%rax)
	jmp	.L1486
.L2013:
	movq	0(%rbp), %rax
	movq	%rbp, %rdi
	call	*16(%rax)
	movl	$-1, %eax
	lock xaddl	%eax, 12(%rbp)
.L1787:
	cmpl	$1, %eax
	jne	.L1748
	movq	0(%rbp), %rax
	movq	%rbp, %rdi
	call	*24(%rax)
	jmp	.L1748
.L2011:
	movq	0(%rbp), %rax
	movq	%rbp, %rdi
	call	*16(%rax)
	movl	$-1, %eax
	lock xaddl	%eax, 12(%rbp)
.L1785:
	cmpl	$1, %eax
	jne	.L1735
	movq	0(%rbp), %rax
	movq	%rbp, %rdi
	call	*24(%rax)
	jmp	.L1735
.L1995:
	movq	0(%r13), %rax
	movq	%r13, %rdi
	call	*16(%rax)
	movl	$-1, %eax
	lock xaddl	%eax, 12(%r13)
.L1765:
	cmpl	$1, %eax
	jne	.L1492
	movq	0(%r13), %rax
	movq	%r13, %rdi
	call	*24(%rax)
	jmp	.L1492
.L1993:
	movq	0(%r13), %rax
	movq	%r13, %rdi
	call	*16(%rax)
	movl	$-1, %eax
	lock xaddl	%eax, 12(%r13)
.L1763:
	cmpl	$1, %eax
	jne	.L1479
	movq	0(%r13), %rax
	movq	%r13, %rdi
	call	*24(%rax)
	jmp	.L1479
.L1605:
	movl	8(%rbx), %eax
	leal	-1(%rax), %edx
	cmpl	$1, %eax
	movl	%edx, 8(%rbx)
	jne	.L1604
	movq	(%rbx), %rax
	movq	%rbx, %rdi
	call	*16(%rax)
	movl	12(%rbx), %eax
	leal	-1(%rax), %edx
	movl	%edx, 12(%rbx)
	jmp	.L1769
.L2029:
	.byte	0x66
	leaq	_ZN4asio6detail15keyword_tss_ptrINS0_10call_stackINS0_15task_io_serviceENS0_27task_io_service_thread_infoEE7contextEE6value_E@tlsgd(%rip), %rdi
	.value	0x6666
	rex64
	call	__tls_get_addr@PLT
	movq	(%rax), %rax
	testq	%rax, %rax
	je	.L1638
	cmpq	%rbx, (%rax)
	jne	.L1640
	jmp	.L1639
	.p2align 4,,10
	.p2align 3
.L1987:
	cmpq	(%rax), %rbx
	je	.L1639
.L1640:
	movq	16(%rax), %rax
	testq	%rax, %rax
	jne	.L1987
	jmp	.L1638
.L1592:
	movl	8(%rbx), %eax
	leal	-1(%rax), %edx
	cmpl	$1, %eax
	movl	%edx, 8(%rbx)
	jne	.L1591
	movq	(%rbx), %rax
	movq	%rbx, %rdi
	call	*16(%rax)
	movl	12(%rbx), %eax
	leal	-1(%rax), %edx
	movl	%edx, 12(%rbx)
	jmp	.L1768
.L1626:
	movl	8(%rbx), %eax
	leal	-1(%rax), %edx
	cmpl	$1, %eax
	movl	%edx, 8(%rbx)
	jne	.L1625
	movq	(%rbx), %rax
	movq	%rbx, %rdi
	call	*16(%rax)
	movl	12(%rbx), %eax
	leal	-1(%rax), %edx
	movl	%edx, 12(%rbx)
	jmp	.L1772
.L1572:
	movq	%r13, 200(%rbx)
	movq	%r13, 192(%rbx)
	jmp	.L1573
.L2027:
	movq	(%rbx), %rax
	movq	%rbx, %rdi
	call	*16(%rax)
	movl	$-1, %eax
	lock xaddl	%eax, 12(%rbx)
.L1774:
	cmpl	$1, %eax
	jne	.L1659
	movq	(%rbx), %rax
	movq	%rbx, %rdi
	call	*24(%rax)
	jmp	.L1659
.L2022:
	movq	(%rbx), %rax
	movq	%rbx, %rdi
	call	*16(%rax)
	movl	$-1, %eax
	lock xaddl	%eax, 12(%rbx)
.L1770:
	cmpl	$1, %eax
	jne	.L1611
	movq	(%rbx), %rax
	movq	%rbx, %rdi
	call	*24(%rax)
	jmp	.L1611
.L2026:
	movq	(%r12), %rax
	movq	%r12, %rdi
	call	*16(%rax)
	movl	$-1, %eax
	lock xaddl	%eax, 12(%r12)
.L1773:
	cmpl	$1, %eax
	jne	.L1652
	movq	(%r12), %rax
	movq	%r12, %rdi
	call	*24(%rax)
	jmp	.L1652
	.p2align 4,,10
	.p2align 3
.L1660:
	movl	8(%rbx), %eax
	leal	-1(%rax), %edx
	cmpl	$1, %eax
	movl	%edx, 8(%rbx)
	jne	.L1659
	movq	(%rbx), %rax
	movq	%rbx, %rdi
	call	*16(%rax)
	movl	12(%rbx), %eax
	leal	-1(%rax), %edx
	movl	%edx, 12(%rbx)
	jmp	.L1774
.L2028:
	movzbl	104(%rbx), %edx
	movb	%dl, (%rbx)
	movq	%rbx, (%rax)
	jmp	.L1538
.L1612:
	movl	8(%rbx), %eax
	leal	-1(%rax), %edx
	cmpl	$1, %eax
	movl	%edx, 8(%rbx)
	jne	.L1611
	movq	(%rbx), %rax
	movq	%rbx, %rdi
	call	*16(%rax)
	movl	12(%rbx), %eax
	leal	-1(%rax), %edx
	movl	%edx, 12(%rbx)
	jmp	.L1770
.L1653:
	movl	8(%r12), %eax
	leal	-1(%rax), %edx
	cmpl	$1, %eax
	movl	%edx, 8(%r12)
	jne	.L1652
	movq	(%r12), %rax
	movq	%r12, %rdi
	call	*16(%rax)
	movl	12(%r12), %eax
	leal	-1(%rax), %edx
	movl	%edx, 12(%r12)
	jmp	.L1773
.L1635:
	movq	%rbx, 88(%rdi)
	jmp	.L1636
.L1564:
	movq	%rbx, 96(%r13)
	movq	%rbx, 88(%r13)
	jmp	.L1565
.L2018:
	movq	%r12, %rdi
	call	pthread_mutex_unlock@PLT
	leaq	88(%rbx), %rdi
	call	pthread_cond_signal@PLT
	jmp	.L1538
.L2023:
	movzbl	104(%rbx), %edx
	movb	%dl, (%rbx)
	movq	%rbx, (%rax)
	jmp	.L1630
.L2020:
	movzbl	104(%rbx), %edx
	movb	%dl, (%rbx)
	movq	%rbx, (%rax)
	jmp	.L1598
.L1585:
	movl	8(%rbx), %eax
	leal	-1(%rax), %edx
	cmpl	$1, %eax
	movl	%edx, 8(%rbx)
	jne	.L1584
	movq	(%rbx), %rax
	movq	%rbx, %rdi
	call	*16(%rax)
	movl	12(%rbx), %eax
	leal	-1(%rax), %edx
	movl	%edx, 12(%rbx)
	jmp	.L1767
.L1619:
	movl	8(%r12), %eax
	leal	-1(%rax), %edx
	cmpl	$1, %eax
	movl	%edx, 8(%r12)
	jne	.L1618
	movq	(%r12), %rax
	movq	%r12, %rdi
	call	*16(%rax)
	movl	12(%r12), %eax
	leal	-1(%rax), %edx
	movl	%edx, 12(%r12)
	jmp	.L1771
.L2030:
	movq	%r13, %rdi
	call	pthread_mutex_unlock@PLT
	leaq	88(%rbx), %rdi
	call	pthread_cond_signal@PLT
	jmp	.L1637
.L1639:
	movq	8(%rax), %rax
	testq	%rax, %rax
	je	.L1638
	addq	$1, 24(%rax)
	cmpq	$0, 16(%rax)
	movq	$0, (%r12)
	je	.L1643
	movq	16(%rax), %rdx
	movq	%r12, (%rdx)
	movq	%r12, 16(%rax)
	jmp	.L1637
.L1644:
	movq	%r12, 200(%rbx)
	movq	%r12, 192(%rbx)
	jmp	.L1645
.L2019:
	movq	72(%rbx), %rax
	leaq	288(%rsp), %r12
	movq	$0, 72(%rbx)
	movdqu	88(%rbx), %xmm0
	movq	%rbx, %r14
	movq	%rax, 336(%rsp)
	movq	80(%rbx), %rax
	movaps	%xmm0, 352(%rsp)
	movq	$0, 80(%rbx)
	movq	%r12, 112(%rsp)
	movq	%rax, 344(%rsp)
	jmp	.L1577
.L1571:
	movq	%r13, 16(%rax)
	movq	%r13, 8(%rax)
	jmp	.L1538
.L1643:
	movq	%r12, 16(%rax)
	movq	%r12, 8(%rax)
	jmp	.L1637
.L2016:
	call	__stack_chk_fail@PLT
.L1790:
	movq	%rax, %rbx
	movq	496(%rsp), %rax
	testq	%rax, %rax
	je	.L1466
	leaq	16(%rbp), %rdi
	movl	$3, %edx
	movq	%rdi, %rsi
	call	*%rax
.L1466:
	movq	472(%rsp), %rdi
	testq	%rdi, %rdi
	je	.L1471
	call	_ZNSt16_Sp_counted_baseILN9__gnu_cxx12_Lock_policyE2EE10_M_releaseEv@PLT
.L1471:
	leaq	24(%rsp), %rdi
	leaq	32(%rsp), %rsi
	call	_ZN4asio6detail18completion_handlerINS0_17rewrapped_handlerINS0_7binder1INS0_15wrapped_handlerINS_10io_service6strandEZN7asiopal8Executor5StartERKNSt6chrono10time_pointINS9_3_V212steady_clockENS9_8durationIlSt5ratioILl1ELl1000000000EEEEEERKSt8functionIFvvEEEUlRKSt10error_codeE_NS0_26is_continuation_if_runningEEESP_EESS_EEE3ptr5resetEv.isra.106
	movq	%rbx, %rdi
.LEHB60:
	call	_Unwind_Resume@PLT
.LEHE60:
.L1794:
	movq	%rax, %rbx
.L1667:
	leaq	208(%rsp), %r12
	movq	%r13, %rdi
	call	_ZZN7asiopal8Executor5StartERKNSt6chrono10time_pointINS1_3_V212steady_clockENS1_8durationIlSt5ratioILl1ELl1000000000EEEEEERKSt8functionIFvvEEENUlRKSt10error_codeE_D1Ev
.L1532:
	movq	%r12, %rdi
	movq	%rbx, %r12
	leaq	144(%rsp), %rbx
	call	_ZZN7asiopal8Executor5StartERKNSt6chrono10time_pointINS1_3_V212steady_clockENS1_8durationIlSt5ratioILl1ELl1000000000EEEEEERKSt8functionIFvvEEENUlRKSt10error_codeE_D1Ev
.L1525:
	movq	%rbx, %rdi
	call	_ZZN7asiopal8Executor5StartERKNSt6chrono10time_pointINS1_3_V212steady_clockENS1_8durationIlSt5ratioILl1ELl1000000000EEEEEERKSt8functionIFvvEEENUlRKSt10error_codeE_D1Ev
.L1517:
	leaq	80(%rbp), %rdi
	sfence
	movq	%r12, %rbx
	call	_ZZN7asiopal8Executor5StartERKNSt6chrono10time_pointINS1_3_V212steady_clockENS1_8durationIlSt5ratioILl1ELl1000000000EEEEEERKSt8functionIFvvEEENUlRKSt10error_codeE_D1Ev
	movq	%rbp, %rdi
	call	_ZZN7asiopal8Executor5StartERKNSt6chrono10time_pointINS1_3_V212steady_clockENS1_8durationIlSt5ratioILl1ELl1000000000EEEEEERKSt8functionIFvvEEENUlRKSt10error_codeE_D1Ev
	jmp	.L1471
.L1797:
	movq	%rax, %r12
	movq	56(%rbx), %rax
	testq	%rax, %rax
	je	.L1546
	movl	$3, %edx
	movq	%r14, %rsi
	movq	%r14, %rdi
	call	*%rax
.L1546:
	movq	32(%rbx), %rdi
	testq	%rdi, %rdi
	je	.L1548
	call	_ZNSt16_Sp_counted_baseILN9__gnu_cxx12_Lock_policyE2EE10_M_releaseEv@PLT
.L1548:
	movq	%r12, %rbx
.L1551:
	leaq	64(%rsp), %rsi
	leaq	56(%rsp), %rdi
	call	_ZN4asio6detail18completion_handlerINS0_7binder1IZN7asiopal8Executor5StartERKNSt6chrono10time_pointINS5_3_V212steady_clockENS5_8durationIlSt5ratioILl1ELl1000000000EEEEEERKSt8functionIFvvEEEUlRKSt10error_codeE_SL_EEE3ptr5resetEv.isra.105
	jmp	.L1667
.L1792:
	movq	%rax, %r12
	movq	176(%rsp), %rax
	testq	%rax, %rax
	je	.L1512
	leaq	16(%rbx), %rdi
	movl	$3, %edx
	movq	%rdi, %rsi
	call	*%rax
.L1512:
	movq	152(%rsp), %rdi
	testq	%rdi, %rdi
	je	.L1517
	call	_ZNSt16_Sp_counted_baseILN9__gnu_cxx12_Lock_policyE2EE10_M_releaseEv@PLT
	jmp	.L1517
.L1799:
	movq	%rax, %rbx
	movq	320(%rsp), %rax
	testq	%rax, %rax
	je	.L1580
	leaq	16(%r12), %rdi
	movl	$3, %edx
	movq	%rdi, %rsi
	call	*%rax
.L1580:
	movq	296(%rsp), %rdi
	testq	%rdi, %rdi
	je	.L1582
	call	_ZNSt16_Sp_counted_baseILN9__gnu_cxx12_Lock_policyE2EE10_M_releaseEv@PLT
.L1582:
	leaq	128(%rsp), %rsi
	leaq	120(%rsp), %rdi
	call	_ZN4asio6detail18completion_handlerINS0_7binder1IZN7asiopal8Executor5StartERKNSt6chrono10time_pointINS5_3_V212steady_clockENS5_8durationIlSt5ratioILl1ELl1000000000EEEEEERKSt8functionIFvvEEEUlRKSt10error_codeE_SL_EEE3ptr5resetEv.isra.105
	movq	%rsp, %rdi
	call	_ZN4asio6detail14strand_service16on_dispatch_exitD1Ev@PLT
	.byte	0x66
	leaq	_ZN4asio6detail15keyword_tss_ptrINS0_10call_stackINS0_14strand_service11strand_implEhE7contextEE6value_E@tlsgd(%rip), %rdi
	.value	0x6666
	rex64
	call	__tls_get_addr@PLT
	movq	96(%rsp), %rdx
	movq	%rdx, (%rax)
	jmp	.L1551
.L2021:
.LEHB61:
	call	_ZSt25__throw_bad_function_callv@PLT
.LEHE61:
.L1795:
	movq	%rax, %rbx
	movq	400(%rsp), %rax
	testq	%rax, %rax
	je	.L1527
	leaq	16(%r13), %rdi
	movl	$3, %edx
	movq	%rdi, %rsi
	call	*%rax
.L1527:
	movq	376(%rsp), %rdi
	testq	%rdi, %rdi
	je	.L1532
	call	_ZNSt16_Sp_counted_baseILN9__gnu_cxx12_Lock_policyE2EE10_M_releaseEv@PLT
	jmp	.L1532
.L1798:
	movq	%r12, %rdi
	movq	%rax, %rbx
	sfence
	call	_ZZN7asiopal8Executor5StartERKNSt6chrono10time_pointINS1_3_V212steady_clockENS1_8durationIlSt5ratioILl1ELl1000000000EEEEEERKSt8functionIFvvEEENUlRKSt10error_codeE_D1Ev
	jmp	.L1582
.L1793:
	movq	%rax, %r13
	movq	240(%rsp), %rax
	testq	%rax, %rax
	je	.L1520
	leaq	16(%r12), %rdi
	movl	$3, %edx
	movq	%rdi, %rsi
	call	*%rax
.L1520:
	movq	216(%rsp), %rdi
	testq	%rdi, %rdi
	je	.L1522
	call	_ZNSt16_Sp_counted_baseILN9__gnu_cxx12_Lock_policyE2EE10_M_releaseEv@PLT
.L1522:
	movq	%r13, %r12
	jmp	.L1525
.L2000:
.LEHB62:
	call	_ZSt25__throw_bad_function_callv@PLT
.LEHE62:
.L1796:
	sfence
	movq	%rax, %rbx
	jmp	.L1667
.L1791:
	movq	%rax, %rbx
	movq	576(%rsp), %rax
	testq	%rax, %rax
	je	.L1473
	leaq	96(%rbp), %rdi
	movl	$3, %edx
	movq	%rdi, %rsi
	call	*%rax
.L1473:
	movq	552(%rsp), %rdi
	testq	%rdi, %rdi
	je	.L1475
	call	_ZNSt16_Sp_counted_baseILN9__gnu_cxx12_Lock_policyE2EE10_M_releaseEv@PLT
.L1475:
	movq	%rbp, %rdi
	call	_ZZN7asiopal8Executor5StartERKNSt6chrono10time_pointINS1_3_V212steady_clockENS1_8durationIlSt5ratioILl1ELl1000000000EEEEEERKSt8functionIFvvEEENUlRKSt10error_codeE_D1Ev
	jmp	.L1471
	.cfi_endproc
.LFE9103:
	.section	.gcc_except_table
.LLSDA9103:
	.byte	0xff
	.byte	0xff
	.byte	0x1
	.uleb128 .LLSDACSE9103-.LLSDACSB9103
.LLSDACSB9103:
	.uleb128 .LEHB50-.LFB9103
	.uleb128 .LEHE50-.LEHB50
	.uleb128 .L1790-.LFB9103
	.uleb128 0
	.uleb128 .LEHB51-.LFB9103
	.uleb128 .LEHE51-.LEHB51
	.uleb128 .L1791-.LFB9103
	.uleb128 0
	.uleb128 .LEHB52-.LFB9103
	.uleb128 .LEHE52-.LEHB52
	.uleb128 .L1792-.LFB9103
	.uleb128 0
	.uleb128 .LEHB53-.LFB9103
	.uleb128 .LEHE53-.LEHB53
	.uleb128 .L1793-.LFB9103
	.uleb128 0
	.uleb128 .LEHB54-.LFB9103
	.uleb128 .LEHE54-.LEHB54
	.uleb128 .L1795-.LFB9103
	.uleb128 0
	.uleb128 .LEHB55-.LFB9103
	.uleb128 .LEHE55-.LEHB55
	.uleb128 .L1796-.LFB9103
	.uleb128 0
	.uleb128 .LEHB56-.LFB9103
	.uleb128 .LEHE56-.LEHB56
	.uleb128 .L1794-.LFB9103
	.uleb128 0
	.uleb128 .LEHB57-.LFB9103
	.uleb128 .LEHE57-.LEHB57
	.uleb128 .L1797-.LFB9103
	.uleb128 0
	.uleb128 .LEHB58-.LFB9103
	.uleb128 .LEHE58-.LEHB58
	.uleb128 .L1799-.LFB9103
	.uleb128 0
	.uleb128 .LEHB59-.LFB9103
	.uleb128 .LEHE59-.LEHB59
	.uleb128 .L1798-.LFB9103
	.uleb128 0
	.uleb128 .LEHB60-.LFB9103
	.uleb128 .LEHE60-.LEHB60
	.uleb128 0
	.uleb128 0
	.uleb128 .LEHB61-.LFB9103
	.uleb128 .LEHE61-.LEHB61
	.uleb128 .L1798-.LFB9103
	.uleb128 0
	.uleb128 .LEHB62-.LFB9103
	.uleb128 .LEHE62-.LEHB62
	.uleb128 .L1796-.LFB9103
	.uleb128 0
.LLSDACSE9103:
	.text
	.size	_ZN4asio6detail18completion_handlerINS0_17rewrapped_handlerINS0_7binder1INS0_15wrapped_handlerINS_10io_service6strandEZN7asiopal8Executor5StartERKNSt6chrono10time_pointINS9_3_V212steady_clockENS9_8durationIlSt5ratioILl1ELl1000000000EEEEEERKSt8functionIFvvEEEUlRKSt10error_codeE_NS0_26is_continuation_if_runningEEESP_EESS_EEE11do_completeEPNS0_15task_io_serviceEPNS0_25task_io_service_operationESR_m, .-_ZN4asio6detail18completion_handlerINS0_17rewrapped_handlerINS0_7binder1INS0_15wrapped_handlerINS_10io_service6strandEZN7asiopal8Executor5StartERKNSt6chrono10time_pointINS9_3_V212steady_clockENS9_8durationIlSt5ratioILl1ELl1000000000EEEEEERKSt8functionIFvvEEEUlRKSt10error_codeE_NS0_26is_continuation_if_runningEEESP_EESS_EEE11do_completeEPNS0_15task_io_serviceEPNS0_25task_io_service_operationESR_m
	.p2align 4,,15
	.type	_ZN4asio6detail12wait_handlerINS0_15wrapped_handlerINS_10io_service6strandEZN7asiopal8Executor5StartERKNSt6chrono10time_pointINS7_3_V212steady_clockENS7_8durationIlSt5ratioILl1ELl1000000000EEEEEERKSt8functionIFvvEEEUlRKSt10error_codeE_NS0_26is_continuation_if_runningEEEE11do_completeEPNS0_15task_io_serviceEPNS0_25task_io_service_operationESP_m, @function
_ZN4asio6detail12wait_handlerINS0_15wrapped_handlerINS_10io_service6strandEZN7asiopal8Executor5StartERKNSt6chrono10time_pointINS7_3_V212steady_clockENS7_8durationIlSt5ratioILl1ELl1000000000EEEEEERKSt8functionIFvvEEEUlRKSt10error_codeE_NS0_26is_continuation_if_runningEEEE11do_completeEPNS0_15task_io_serviceEPNS0_25task_io_service_operationESP_m:
.LFB8656:
	.cfi_startproc
	.cfi_personality 0x9b,DW.ref.__gxx_personality_v0
	.cfi_lsda 0x1b,.LLSDA8656
	pushq	%r15
	.cfi_def_cfa_offset 16
	.cfi_offset 15, -16
	pushq	%r14
	.cfi_def_cfa_offset 24
	.cfi_offset 14, -24
	pushq	%r13
	.cfi_def_cfa_offset 32
	.cfi_offset 13, -32
	pushq	%r12
	.cfi_def_cfa_offset 40
	.cfi_offset 12, -40
	movq	%rdi, %r13
	pushq	%rbp
	.cfi_def_cfa_offset 48
	.cfi_offset 6, -48
	pushq	%rbx
	.cfi_def_cfa_offset 56
	.cfi_offset 3, -56
	movq	%rsi, %rbx
	subq	$904, %rsp
	.cfi_def_cfa_offset 960
	movq	%fs:40, %rax
	movq	%rax, 888(%rsp)
	xorl	%eax, %eax
	leaq	40(%rsi), %rax
	movdqu	40(%rsi), %xmm0
	movq	%rsi, 24(%rsp)
	movq	%rsi, 32(%rsp)
	movq	%rax, 16(%rsp)
	movq	56(%rsi), %rax
	movaps	%xmm0, 464(%rsp)
	movq	$0, 56(%rsi)
	movq	$0, 512(%rsp)
	movq	%rax, 480(%rsp)
	movq	64(%rsi), %rax
	movq	$0, 64(%rsi)
	movq	%rax, 488(%rsp)
	movq	88(%rsi), %rax
	testq	%rax, %rax
	je	.L2032
	leaq	464(%rsp), %rbp
	leaq	72(%rsi), %rsi
	movl	$2, %edx
	leaq	32(%rbp), %rdi
.LEHB63:
	call	*%rax
.LEHE63:
	movq	104(%rbx), %rax
	movq	32(%rsp), %r12
	movdqu	88(%rbx), %xmm0
	movq	$0, 104(%rbx)
	movq	%rbp, 16(%rsp)
	movq	%rax, 528(%rsp)
	movq	112(%rbx), %rax
	testq	%r12, %r12
	movaps	%xmm0, 512(%rsp)
	movq	$0, 112(%rbx)
	movdqu	24(%rbx), %xmm0
	movq	%rax, 536(%rsp)
	movaps	%xmm0, 544(%rsp)
	je	.L2034
.L2033:
	movq	112(%r12), %rbx
	testq	%rbx, %rbx
	je	.L2040
	cmpq	$0, _ZL28__gthrw___pthread_key_createPjPFvPvE@GOTPCREL(%rip)
	je	.L2041
	lock subl	$1, 8(%rbx)
	je	.L2811
.L2040:
	movq	88(%r12), %rax
	testq	%rax, %rax
	je	.L2045
	leaq	72(%r12), %rdi
	movl	$3, %edx
	movq	%rdi, %rsi
	call	*%rax
.L2045:
	movq	64(%r12), %rbx
	testq	%rbx, %rbx
	je	.L2047
	cmpq	$0, _ZL28__gthrw___pthread_key_createPjPFvPvE@GOTPCREL(%rip)
	je	.L2048
	lock subl	$1, 8(%rbx)
	je	.L2812
.L2047:
	movq	$0, 32(%rsp)
.L2034:
	movq	24(%rsp), %rbx
	testq	%rbx, %rbx
	je	.L2052
	.byte	0x66
	leaq	_ZN4asio6detail15keyword_tss_ptrINS0_10call_stackINS0_15task_io_serviceENS0_27task_io_service_thread_infoEE7contextEE6value_E@tlsgd(%rip), %rdi
	.value	0x6666
	rex64
	call	__tls_get_addr@PLT
	movq	(%rax), %rax
	testq	%rax, %rax
	je	.L2053
	movq	8(%rax), %rax
	testq	%rax, %rax
	je	.L2053
	cmpq	$0, (%rax)
	je	.L2813
.L2053:
	movq	%rbx, %rdi
	call	_ZdlPv@PLT
.L2054:
	movq	$0, 24(%rsp)
.L2052:
	testq	%r13, %r13
	je	.L2055
	movq	480(%rsp), %rax
	movq	%rax, 560(%rsp)
	movq	488(%rsp), %rax
	testq	%rax, %rax
	movq	%rax, 568(%rsp)
	je	.L2056
	cmpq	$0, _ZL28__gthrw___pthread_key_createPjPFvPvE@GOTPCREL(%rip)
	jne	.L2814
	addl	$1, 8(%rax)
.L2056:
	movq	512(%rsp), %rax
	movq	$0, 592(%rsp)
	testq	%rax, %rax
	je	.L2058
	leaq	560(%rsp), %rbx
	leaq	32(%rbp), %rsi
	movl	$2, %edx
	leaq	16(%rbx), %rdi
.LEHB64:
	call	*%rax
.LEHE64:
	movdqa	512(%rsp), %xmm0
	movq	512(%rsp), %rax
	movaps	%xmm0, 592(%rsp)
.L2058:
	movq	528(%rsp), %rdx
	movq	%rdx, 608(%rsp)
	movq	536(%rsp), %rdx
	testq	%rdx, %rdx
	movq	%rdx, 616(%rsp)
	je	.L2063
	cmpq	$0, _ZL28__gthrw___pthread_key_createPjPFvPvE@GOTPCREL(%rip)
	jne	.L2815
	addl	$1, 8(%rdx)
	movq	512(%rsp), %rax
.L2063:
	movq	480(%rsp), %rdx
	testq	%rax, %rax
	movq	$0, 480(%rsp)
	movq	$0, 672(%rsp)
	movq	%rdx, 640(%rsp)
	movq	488(%rsp), %rdx
	movdqa	464(%rsp), %xmm0
	movq	$0, 488(%rsp)
	movaps	%xmm0, 624(%rsp)
	movq	%rdx, 648(%rsp)
	je	.L2066
	leaq	560(%rsp), %rbx
	leaq	32(%rbp), %rsi
	movl	$2, %edx
	leaq	96(%rbx), %rdi
.LEHB65:
	call	*%rax
.LEHE65:
	movdqa	512(%rsp), %xmm0
	movq	512(%rsp), %rax
	movaps	%xmm0, 672(%rsp)
.L2066:
	movq	528(%rsp), %rdx
	pxor	%xmm0, %xmm0
	movq	%rdx, 688(%rsp)
	movq	536(%rsp), %rdx
	movq	592(%rsp), %rcx
	movq	$0, 752(%rsp)
	movaps	%xmm0, 528(%rsp)
	movq	%rdx, 696(%rsp)
	movq	560(%rsp), %rdx
	testq	%rcx, %rcx
	movq	%rdx, 720(%rsp)
	movq	568(%rsp), %rdx
	movdqa	544(%rsp), %xmm0
	movq	$0, 568(%rsp)
	movq	$0, 560(%rsp)
	movaps	%xmm0, 704(%rsp)
	movq	%rdx, 728(%rsp)
	je	.L2072
	leaq	560(%rsp), %rbx
	leaq	720(%rsp), %r12
	movl	$2, %edx
	leaq	16(%rbx), %rsi
	leaq	16(%r12), %rdi
.LEHB66:
	call	*%rcx
.LEHE66:
	movdqa	592(%rsp), %xmm0
	movq	672(%rsp), %rax
	movaps	%xmm0, 752(%rsp)
.L2072:
	movq	608(%rsp), %rdx
	pxor	%xmm0, %xmm0
	testq	%rax, %rax
	movq	%rdx, 768(%rsp)
	movq	616(%rsp), %rdx
	movaps	%xmm0, 608(%rsp)
	movq	$0, 832(%rsp)
	movq	%rdx, 776(%rsp)
	movq	640(%rsp), %rdx
	movdqa	624(%rsp), %xmm0
	movq	$0, 640(%rsp)
	movq	%rdx, 800(%rsp)
	movq	648(%rsp), %rdx
	movaps	%xmm0, 784(%rsp)
	movq	$0, 648(%rsp)
	movq	%rdx, 808(%rsp)
	je	.L2078
	leaq	560(%rsp), %rbx
	leaq	720(%rsp), %r12
	movl	$2, %edx
	leaq	96(%rbx), %rsi
	leaq	96(%r12), %rdi
.LEHB67:
	call	*%rax
.LEHE67:
	movdqa	672(%rsp), %xmm0
	movaps	%xmm0, 832(%rsp)
.L2078:
	movq	688(%rsp), %rax
	pxor	%xmm0, %xmm0
	movq	%rax, 848(%rsp)
	movq	696(%rsp), %rax
	movaps	%xmm0, 688(%rsp)
	movq	472(%rsp), %rbx
	movdqa	704(%rsp), %xmm0
	movq	%rax, 856(%rsp)
	movaps	%xmm0, 864(%rsp)
	.byte	0x66
	leaq	_ZN4asio6detail15keyword_tss_ptrINS0_10call_stackINS0_14strand_service11strand_implEhE7contextEE6value_E@tlsgd(%rip), %rdi
	.value	0x6666
	rex64
	call	__tls_get_addr@PLT
	movq	(%rax), %rax
	testq	%rax, %rax
	jne	.L2785
	jmp	.L2084
	.p2align 4,,10
	.p2align 3
.L2087:
	movq	16(%rax), %rax
	testq	%rax, %rax
	je	.L2084
.L2785:
	cmpq	(%rax), %rbx
	jne	.L2087
	cmpq	$0, 8(%rax)
	je	.L2084
	lfence
	movq	800(%rsp), %rax
	movq	%rax, 144(%rsp)
	movq	808(%rsp), %rax
	testq	%rax, %rax
	movq	%rax, 152(%rsp)
	je	.L2090
	cmpq	$0, _ZL28__gthrw___pthread_key_createPjPFvPvE@GOTPCREL(%rip)
	jne	.L2816
	addl	$1, 8(%rax)
.L2090:
	movq	832(%rsp), %rax
	movq	$0, 176(%rsp)
	testq	%rax, %rax
	je	.L2092
	leaq	720(%rsp), %r12
	leaq	144(%rsp), %rbx
	movl	$2, %edx
	leaq	96(%r12), %rsi
	leaq	16(%rbx), %rdi
.LEHB68:
	call	*%rax
.LEHE68:
	movdqa	832(%rsp), %xmm0
	movq	832(%rsp), %rax
	movaps	%xmm0, 176(%rsp)
.L2092:
	movq	848(%rsp), %rdx
	movq	%rdx, 192(%rsp)
	movq	856(%rsp), %rdx
	testq	%rdx, %rdx
	movq	%rdx, 200(%rsp)
	je	.L2097
	cmpq	$0, _ZL28__gthrw___pthread_key_createPjPFvPvE@GOTPCREL(%rip)
	jne	.L2817
	addl	$1, 8(%rdx)
	movq	176(%rsp), %rax
.L2097:
	movq	144(%rsp), %rdi
	movq	152(%rsp), %rsi
	testq	%rax, %rax
	pxor	%xmm0, %xmm0
	movq	$0, 240(%rsp)
	movq	%rdi, 208(%rsp)
	movq	%rsi, 216(%rsp)
	movaps	%xmm0, 144(%rsp)
	je	.L2100
	leaq	144(%rsp), %rbx
	leaq	208(%rsp), %r12
	movl	$2, %edx
	leaq	16(%rbx), %rsi
	leaq	16(%r12), %rdi
.LEHB69:
	call	*%rax
.LEHE69:
	movdqa	176(%rsp), %xmm0
	movq	176(%rsp), %rax
	movq	208(%rsp), %rdi
	movaps	%xmm0, 240(%rsp)
	movq	216(%rsp), %rsi
.L2100:
	pxor	%xmm0, %xmm0
	testq	%rax, %rax
	movq	192(%rsp), %rcx
	movq	200(%rsp), %rdx
	movaps	%xmm0, 192(%rsp)
	movq	%rdi, 368(%rsp)
	movq	$0, 216(%rsp)
	movdqa	864(%rsp), %xmm0
	movq	%rcx, 256(%rsp)
	movq	%rdx, 264(%rsp)
	movaps	%xmm0, 272(%rsp)
	movq	%rsi, 376(%rsp)
	movq	$0, 208(%rsp)
	movq	$0, 400(%rsp)
	je	.L2106
	leaq	208(%rsp), %r12
	leaq	368(%rsp), %r13
	movl	$2, %edx
	leaq	16(%r12), %rsi
	leaq	16(%r13), %rdi
.LEHB70:
	call	*%rax
.LEHE70:
	movdqa	240(%rsp), %xmm0
	movq	256(%rsp), %rcx
	movq	264(%rsp), %rdx
	movaps	%xmm0, 400(%rsp)
.L2106:
	pxor	%xmm0, %xmm0
	movq	%rcx, 416(%rsp)
	movaps	%xmm0, 256(%rsp)
	movq	%rdx, 424(%rsp)
	movq	792(%rsp), %rbx
	movdqa	272(%rsp), %xmm0
	movaps	%xmm0, 432(%rsp)
	.byte	0x66
	leaq	_ZN4asio6detail15keyword_tss_ptrINS0_10call_stackINS0_14strand_service11strand_implEhE7contextEE6value_E@tlsgd(%rip), %rdi
	.value	0x6666
	rex64
	call	__tls_get_addr@PLT
	movq	(%rax), %rax
	testq	%rax, %rax
	jne	.L2787
	jmp	.L2112
	.p2align 4,,10
	.p2align 3
.L2116:
	movq	16(%rax), %rax
	testq	%rax, %rax
	je	.L2112
.L2787:
	cmpq	(%rax), %rbx
	jne	.L2116
	cmpq	$0, 8(%rax)
	je	.L2112
	lfence
	movl	432(%rsp), %edx
	testl	%edx, %edx
	jne	.L2122
	cmpq	$0, 400(%rsp)
	leaq	368(%rsp), %r13
	je	.L2818
	leaq	16(%r13), %rdi
.LEHB71:
	call	*408(%rsp)
.LEHE71:
.L2122:
	sfence
.L2120:
	movq	424(%rsp), %rbx
	testq	%rbx, %rbx
	je	.L2251
	cmpq	$0, _ZL28__gthrw___pthread_key_createPjPFvPvE@GOTPCREL(%rip)
	je	.L2252
	lock subl	$1, 8(%rbx)
	je	.L2819
.L2251:
	movq	400(%rsp), %rax
	testq	%rax, %rax
	je	.L2256
	leaq	384(%rsp), %rdi
	movl	$3, %edx
	movq	%rdi, %rsi
	call	*%rax
.L2256:
	movq	376(%rsp), %rbx
	testq	%rbx, %rbx
	je	.L2258
	cmpq	$0, _ZL28__gthrw___pthread_key_createPjPFvPvE@GOTPCREL(%rip)
	je	.L2259
	lock subl	$1, 8(%rbx)
	je	.L2820
.L2258:
	movq	264(%rsp), %rbx
	testq	%rbx, %rbx
	je	.L2264
	cmpq	$0, _ZL28__gthrw___pthread_key_createPjPFvPvE@GOTPCREL(%rip)
	je	.L2265
	lock subl	$1, 8(%rbx)
	je	.L2821
.L2264:
	movq	240(%rsp), %rax
	testq	%rax, %rax
	je	.L2269
	leaq	224(%rsp), %rdi
	movl	$3, %edx
	movq	%rdi, %rsi
	call	*%rax
.L2269:
	movq	216(%rsp), %rbx
	testq	%rbx, %rbx
	je	.L2271
	cmpq	$0, _ZL28__gthrw___pthread_key_createPjPFvPvE@GOTPCREL(%rip)
	je	.L2272
	lock subl	$1, 8(%rbx)
	je	.L2822
.L2271:
	movq	200(%rsp), %rbx
	testq	%rbx, %rbx
	je	.L2277
	cmpq	$0, _ZL28__gthrw___pthread_key_createPjPFvPvE@GOTPCREL(%rip)
	je	.L2278
	lock subl	$1, 8(%rbx)
	je	.L2823
.L2277:
	movq	176(%rsp), %rax
	testq	%rax, %rax
	je	.L2282
	leaq	160(%rsp), %rdi
	movl	$3, %edx
	movq	%rdi, %rsi
	call	*%rax
.L2282:
	movq	152(%rsp), %rbx
	testq	%rbx, %rbx
	je	.L2284
	cmpq	$0, _ZL28__gthrw___pthread_key_createPjPFvPvE@GOTPCREL(%rip)
	je	.L2285
	lock subl	$1, 8(%rbx)
	je	.L2824
.L2284:
	sfence
.L2289:
	movq	856(%rsp), %rbx
	testq	%rbx, %rbx
	je	.L2380
	cmpq	$0, _ZL28__gthrw___pthread_key_createPjPFvPvE@GOTPCREL(%rip)
	je	.L2381
	lock subl	$1, 8(%rbx)
	je	.L2825
.L2380:
	movq	832(%rsp), %rax
	testq	%rax, %rax
	je	.L2385
	leaq	816(%rsp), %rdi
	movl	$3, %edx
	movq	%rdi, %rsi
	call	*%rax
.L2385:
	movq	808(%rsp), %rbx
	testq	%rbx, %rbx
	je	.L2387
	cmpq	$0, _ZL28__gthrw___pthread_key_createPjPFvPvE@GOTPCREL(%rip)
	je	.L2388
	lock subl	$1, 8(%rbx)
	je	.L2826
.L2387:
	movq	776(%rsp), %rbx
	testq	%rbx, %rbx
	je	.L2393
	cmpq	$0, _ZL28__gthrw___pthread_key_createPjPFvPvE@GOTPCREL(%rip)
	je	.L2394
	lock subl	$1, 8(%rbx)
	je	.L2827
.L2393:
	movq	752(%rsp), %rax
	testq	%rax, %rax
	je	.L2398
	leaq	736(%rsp), %rdi
	movl	$3, %edx
	movq	%rdi, %rsi
	call	*%rax
.L2398:
	movq	728(%rsp), %rbx
	testq	%rbx, %rbx
	je	.L2400
	cmpq	$0, _ZL28__gthrw___pthread_key_createPjPFvPvE@GOTPCREL(%rip)
	je	.L2401
	lock subl	$1, 8(%rbx)
	je	.L2828
.L2400:
	movq	696(%rsp), %rbx
	testq	%rbx, %rbx
	je	.L2406
	cmpq	$0, _ZL28__gthrw___pthread_key_createPjPFvPvE@GOTPCREL(%rip)
	je	.L2407
	lock subl	$1, 8(%rbx)
	je	.L2829
.L2406:
	movq	672(%rsp), %rax
	testq	%rax, %rax
	je	.L2411
	leaq	656(%rsp), %rdi
	movl	$3, %edx
	movq	%rdi, %rsi
	call	*%rax
.L2411:
	movq	648(%rsp), %rbx
	testq	%rbx, %rbx
	je	.L2413
	cmpq	$0, _ZL28__gthrw___pthread_key_createPjPFvPvE@GOTPCREL(%rip)
	je	.L2414
	lock subl	$1, 8(%rbx)
	je	.L2830
.L2413:
	movq	616(%rsp), %rbx
	testq	%rbx, %rbx
	je	.L2419
	cmpq	$0, _ZL28__gthrw___pthread_key_createPjPFvPvE@GOTPCREL(%rip)
	je	.L2420
	lock subl	$1, 8(%rbx)
	je	.L2831
.L2419:
	movq	592(%rsp), %rax
	testq	%rax, %rax
	je	.L2424
	leaq	576(%rsp), %rdi
	movl	$3, %edx
	movq	%rdi, %rsi
	call	*%rax
.L2424:
	movq	568(%rsp), %rbx
	testq	%rbx, %rbx
	je	.L2426
	cmpq	$0, _ZL28__gthrw___pthread_key_createPjPFvPvE@GOTPCREL(%rip)
	je	.L2427
	lock subl	$1, 8(%rbx)
	je	.L2832
.L2426:
	sfence
.L2055:
	movq	536(%rsp), %rbx
	testq	%rbx, %rbx
	je	.L2432
	cmpq	$0, _ZL28__gthrw___pthread_key_createPjPFvPvE@GOTPCREL(%rip)
	je	.L2433
	lock subl	$1, 8(%rbx)
	je	.L2833
.L2432:
	movq	512(%rsp), %rax
	testq	%rax, %rax
	je	.L2437
	leaq	32(%rbp), %rdi
	movl	$3, %edx
	movq	%rdi, %rsi
	call	*%rax
.L2437:
	movq	488(%rsp), %rbx
	testq	%rbx, %rbx
	je	.L2439
	cmpq	$0, _ZL28__gthrw___pthread_key_createPjPFvPvE@GOTPCREL(%rip)
	je	.L2440
	lock subl	$1, 8(%rbx)
	je	.L2834
.L2439:
	movq	32(%rsp), %rbx
	testq	%rbx, %rbx
	je	.L2444
	movq	112(%rbx), %rbp
	testq	%rbp, %rbp
	je	.L2446
	cmpq	$0, _ZL28__gthrw___pthread_key_createPjPFvPvE@GOTPCREL(%rip)
	je	.L2447
	lock subl	$1, 8(%rbp)
	je	.L2835
.L2446:
	movq	88(%rbx), %rax
	testq	%rax, %rax
	je	.L2451
	leaq	72(%rbx), %rdi
	movl	$3, %edx
	movq	%rdi, %rsi
	call	*%rax
.L2451:
	movq	64(%rbx), %rbx
	testq	%rbx, %rbx
	je	.L2453
	cmpq	$0, _ZL28__gthrw___pthread_key_createPjPFvPvE@GOTPCREL(%rip)
	je	.L2454
	lock subl	$1, 8(%rbx)
	je	.L2836
.L2453:
	movq	$0, 32(%rsp)
.L2444:
	movq	24(%rsp), %rbx
	testq	%rbx, %rbx
	je	.L2031
	.byte	0x66
	leaq	_ZN4asio6detail15keyword_tss_ptrINS0_10call_stackINS0_15task_io_serviceENS0_27task_io_service_thread_infoEE7contextEE6value_E@tlsgd(%rip), %rdi
	.value	0x6666
	rex64
	call	__tls_get_addr@PLT
	movq	(%rax), %rax
	testq	%rax, %rax
	je	.L2459
	movq	8(%rax), %rax
	testq	%rax, %rax
	je	.L2459
	cmpq	$0, (%rax)
	je	.L2837
.L2459:
	movq	%rbx, %rdi
	call	_ZdlPv@PLT
.L2031:
	movq	888(%rsp), %rax
	xorq	%fs:40, %rax
	jne	.L2838
	addq	$904, %rsp
	.cfi_remember_state
	.cfi_def_cfa_offset 56
	popq	%rbx
	.cfi_def_cfa_offset 48
	popq	%rbp
	.cfi_def_cfa_offset 40
	popq	%r12
	.cfi_def_cfa_offset 32
	popq	%r13
	.cfi_def_cfa_offset 24
	popq	%r14
	.cfi_def_cfa_offset 16
	popq	%r15
	.cfi_def_cfa_offset 8
	ret
	.p2align 4,,10
	.p2align 3
.L2440:
	.cfi_restore_state
	movl	8(%rbx), %eax
	leal	-1(%rax), %edx
	cmpl	$1, %eax
	movl	%edx, 8(%rbx)
	jne	.L2439
	movq	(%rbx), %rax
	movq	%rbx, %rdi
	call	*16(%rax)
	movl	12(%rbx), %eax
	leal	-1(%rax), %edx
	movl	%edx, 12(%rbx)
	jmp	.L2491
	.p2align 4,,10
	.p2align 3
.L2815:
	lock addl	$1, 8(%rdx)
	movq	512(%rsp), %rax
	jmp	.L2063
	.p2align 4,,10
	.p2align 3
.L2814:
	lock addl	$1, 8(%rax)
	jmp	.L2056
	.p2align 4,,10
	.p2align 3
.L2433:
	movl	8(%rbx), %eax
	leal	-1(%rax), %edx
	cmpl	$1, %eax
	movl	%edx, 8(%rbx)
	jne	.L2432
	movq	(%rbx), %rax
	movq	%rbx, %rdi
	call	*16(%rax)
	movl	12(%rbx), %eax
	leal	-1(%rax), %edx
	movl	%edx, 12(%rbx)
	jmp	.L2490
	.p2align 4,,10
	.p2align 3
.L2084:
	pxor	%xmm0, %xmm0
	leaq	720(%rsp), %r12
	movq	464(%rsp), %r14
	movq	%r12, 80(%rsp)
	movups	%xmm0, 88(%rsp)
	.byte	0x66
	leaq	_ZN4asio6detail15keyword_tss_ptrINS0_10call_stackINS0_15task_io_serviceENS0_27task_io_service_thread_infoEE7contextEE6value_E@tlsgd(%rip), %rdi
	.value	0x6666
	rex64
	call	__tls_get_addr@PLT
	movq	(%rax), %rax
	testq	%rax, %rax
	je	.L2290
	movq	8(%rax), %rax
	testq	%rax, %rax
	je	.L2290
	movq	(%rax), %rbx
	testq	%rbx, %rbx
	je	.L2290
	movq	$0, (%rax)
	movzbl	(%rbx), %eax
	cmpb	$-73, %al
	jbe	.L2291
	movb	%al, 184(%rbx)
	jmp	.L2292
	.p2align 4,,10
	.p2align 3
.L2291:
	movq	%rbx, %rdi
	call	_ZdlPv@PLT
.L2290:
	movl	$185, %edi
.LEHB72:
	call	_Znwm@PLT
.LEHE72:
	movq	%rax, %rbx
	movb	$-72, 184(%rax)
.L2292:
	leaq	_ZN4asio6detail18completion_handlerINS0_17rewrapped_handlerINS0_7binder1INS0_15wrapped_handlerINS_10io_service6strandEZN7asiopal8Executor5StartERKNSt6chrono10time_pointINS9_3_V212steady_clockENS9_8durationIlSt5ratioILl1ELl1000000000EEEEEERKSt8functionIFvvEEEUlRKSt10error_codeE_NS0_26is_continuation_if_runningEEESP_EESS_EEE11do_completeEPNS0_15task_io_serviceEPNS0_25task_io_service_operationESR_m(%rip), %rax
	movq	%rbx, 88(%rsp)
	movq	$0, (%rbx)
	movl	$0, 16(%rbx)
	pxor	%xmm0, %xmm0
	movq	%rax, 8(%rbx)
	movq	720(%rsp), %rax
	movq	$0, 56(%rbx)
	movq	%rax, 24(%rbx)
	movq	728(%rsp), %rax
	movaps	%xmm0, 720(%rsp)
	movq	%rax, 32(%rbx)
	movq	752(%rsp), %rax
	testq	%rax, %rax
	je	.L2293
	leaq	40(%rbx), %r13
	leaq	16(%r12), %rsi
	movl	$2, %edx
	movq	%r13, %rdi
.LEHB73:
	call	*%rax
.LEHE73:
	movdqa	752(%rsp), %xmm0
	movups	%xmm0, 56(%rbx)
.L2293:
	movq	768(%rsp), %rax
	pxor	%xmm0, %xmm0
	leaq	120(%rbx), %r13
	movq	%rax, 72(%rbx)
	movq	776(%rsp), %rax
	movaps	%xmm0, 768(%rsp)
	movq	$0, 136(%rbx)
	movq	%rax, 80(%rbx)
	movq	800(%rsp), %rax
	movdqa	784(%rsp), %xmm0
	movq	$0, 800(%rsp)
	movq	%rax, 104(%rbx)
	movq	808(%rsp), %rax
	movups	%xmm0, 88(%rbx)
	movq	$0, 808(%rsp)
	movq	%rax, 112(%rbx)
	movq	832(%rsp), %rax
	testq	%rax, %rax
	je	.L2299
	leaq	96(%r12), %rsi
	movl	$2, %edx
	movq	%r13, %rdi
.LEHB74:
	call	*%rax
.LEHE74:
	movdqa	832(%rsp), %xmm0
	movups	%xmm0, 136(%rbx)
.L2299:
	movq	848(%rsp), %rax
	pxor	%xmm0, %xmm0
	movq	%rax, 152(%rbx)
	movq	856(%rsp), %rax
	movaps	%xmm0, 848(%rsp)
	movdqa	864(%rsp), %xmm0
	movq	%rax, 160(%rbx)
	movups	%xmm0, 168(%rbx)
	movq	%rbx, 96(%rsp)
	movq	40(%r14), %r13
	.byte	0x66
	leaq	_ZN4asio6detail15keyword_tss_ptrINS0_10call_stackINS0_15task_io_serviceENS0_27task_io_service_thread_infoEE7contextEE6value_E@tlsgd(%rip), %rdi
	.value	0x6666
	rex64
	call	__tls_get_addr@PLT
	movq	(%rax), %rax
	testq	%rax, %rax
	jne	.L2794
	jmp	.L2305
	.p2align 4,,10
	.p2align 3
.L2308:
	movq	16(%rax), %rax
	testq	%rax, %rax
	je	.L2305
.L2794:
	cmpq	(%rax), %r13
	jne	.L2308
	movq	8(%rax), %r13
	movq	472(%rsp), %rax
	leaq	24(%rax), %rdi
	call	pthread_mutex_lock@PLT
	testq	%r13, %r13
	je	.L2310
	movq	472(%rsp), %rax
	cmpb	$0, 64(%rax)
	leaq	24(%rax), %rdi
	je	.L2839
.L2312:
	cmpq	$0, 80(%rax)
	movq	$0, (%rbx)
	je	.L2315
	movq	80(%rax), %rdx
	movq	%rbx, (%rdx)
	movq	%rbx, 80(%rax)
.L2810:
	call	pthread_mutex_unlock@PLT
	jmp	.L2289
	.p2align 4,,10
	.p2align 3
.L2048:
	movl	8(%rbx), %eax
	leal	-1(%rax), %edx
	cmpl	$1, %eax
	movl	%edx, 8(%rbx)
	jne	.L2047
	movq	(%rbx), %rax
	movq	%rbx, %rdi
	call	*16(%rax)
	movl	12(%rbx), %eax
	leal	-1(%rax), %edx
	movl	%edx, 12(%rbx)
	jmp	.L2463
	.p2align 4,,10
	.p2align 3
.L2454:
	movl	8(%rbx), %eax
	leal	-1(%rax), %edx
	cmpl	$1, %eax
	movl	%edx, 8(%rbx)
	jne	.L2453
	movq	(%rbx), %rax
	movq	%rbx, %rdi
	call	*16(%rax)
	movl	12(%rbx), %eax
	leal	-1(%rax), %edx
	movl	%edx, 12(%rbx)
	jmp	.L2493
	.p2align 4,,10
	.p2align 3
.L2816:
	lock addl	$1, 8(%rax)
	jmp	.L2090
	.p2align 4,,10
	.p2align 3
.L2817:
	lock addl	$1, 8(%rdx)
	movq	176(%rsp), %rax
	jmp	.L2097
	.p2align 4,,10
	.p2align 3
.L2837:
	movzbl	120(%rbx), %edx
	movb	%dl, (%rbx)
	movq	%rbx, (%rax)
	jmp	.L2031
	.p2align 4,,10
	.p2align 3
.L2813:
	movzbl	120(%rbx), %edx
	movb	%dl, (%rbx)
	movq	%rbx, (%rax)
	jmp	.L2054
	.p2align 4,,10
	.p2align 3
.L2447:
	movl	8(%rbp), %eax
	leal	-1(%rax), %edx
	cmpl	$1, %eax
	movl	%edx, 8(%rbp)
	jne	.L2446
	movq	0(%rbp), %rax
	movq	%rbp, %rdi
	call	*16(%rax)
	movl	12(%rbp), %eax
	leal	-1(%rax), %edx
	movl	%edx, 12(%rbp)
	jmp	.L2492
	.p2align 4,,10
	.p2align 3
.L2041:
	movl	8(%rbx), %eax
	leal	-1(%rax), %edx
	cmpl	$1, %eax
	movl	%edx, 8(%rbx)
	jne	.L2040
	movq	(%rbx), %rax
	movq	%rbx, %rdi
	call	*16(%rax)
	movl	12(%rbx), %eax
	leal	-1(%rax), %edx
	movl	%edx, 12(%rbx)
	jmp	.L2462
	.p2align 4,,10
	.p2align 3
.L2834:
	movq	(%rbx), %rax
	movq	%rbx, %rdi
	call	*16(%rax)
	movl	$-1, %eax
	lock xaddl	%eax, 12(%rbx)
.L2491:
	cmpl	$1, %eax
	jne	.L2439
	movq	(%rbx), %rax
	movq	%rbx, %rdi
	call	*24(%rax)
	jmp	.L2439
	.p2align 4,,10
	.p2align 3
.L2833:
	movq	(%rbx), %rax
	movq	%rbx, %rdi
	call	*16(%rax)
	movl	$-1, %eax
	lock xaddl	%eax, 12(%rbx)
.L2490:
	cmpl	$1, %eax
	jne	.L2432
	movq	(%rbx), %rax
	movq	%rbx, %rdi
	call	*24(%rax)
	jmp	.L2432
	.p2align 4,,10
	.p2align 3
.L2388:
	movl	8(%rbx), %eax
	leal	-1(%rax), %edx
	cmpl	$1, %eax
	movl	%edx, 8(%rbx)
	jne	.L2387
	movq	(%rbx), %rax
	movq	%rbx, %rdi
	call	*16(%rax)
	movl	12(%rbx), %eax
	leal	-1(%rax), %edx
	movl	%edx, 12(%rbx)
.L2483:
	cmpl	$1, %eax
	jne	.L2387
	movq	(%rbx), %rax
	movq	%rbx, %rdi
	call	*24(%rax)
	jmp	.L2387
	.p2align 4,,10
	.p2align 3
.L2401:
	movl	8(%rbx), %eax
	leal	-1(%rax), %edx
	cmpl	$1, %eax
	movl	%edx, 8(%rbx)
	jne	.L2400
	movq	(%rbx), %rax
	movq	%rbx, %rdi
	call	*16(%rax)
	movl	12(%rbx), %eax
	leal	-1(%rax), %edx
	movl	%edx, 12(%rbx)
.L2485:
	cmpl	$1, %eax
	jne	.L2400
	movq	(%rbx), %rax
	movq	%rbx, %rdi
	call	*24(%rax)
	jmp	.L2400
	.p2align 4,,10
	.p2align 3
.L2414:
	movl	8(%rbx), %eax
	leal	-1(%rax), %edx
	cmpl	$1, %eax
	movl	%edx, 8(%rbx)
	jne	.L2413
	movq	(%rbx), %rax
	movq	%rbx, %rdi
	call	*16(%rax)
	movl	12(%rbx), %eax
	leal	-1(%rax), %edx
	movl	%edx, 12(%rbx)
.L2487:
	cmpl	$1, %eax
	jne	.L2413
	movq	(%rbx), %rax
	movq	%rbx, %rdi
	call	*24(%rax)
	jmp	.L2413
	.p2align 4,,10
	.p2align 3
.L2427:
	movl	8(%rbx), %eax
	leal	-1(%rax), %edx
	cmpl	$1, %eax
	movl	%edx, 8(%rbx)
	jne	.L2426
	movq	(%rbx), %rax
	movq	%rbx, %rdi
	call	*16(%rax)
	movl	12(%rbx), %eax
	leal	-1(%rax), %edx
	movl	%edx, 12(%rbx)
.L2489:
	cmpl	$1, %eax
	jne	.L2426
	movq	(%rbx), %rax
	movq	%rbx, %rdi
	call	*24(%rax)
	jmp	.L2426
	.p2align 4,,10
	.p2align 3
.L2381:
	movl	8(%rbx), %eax
	leal	-1(%rax), %edx
	cmpl	$1, %eax
	movl	%edx, 8(%rbx)
	jne	.L2380
	movq	(%rbx), %rax
	movq	%rbx, %rdi
	call	*16(%rax)
	movl	12(%rbx), %eax
	leal	-1(%rax), %edx
	movl	%edx, 12(%rbx)
.L2482:
	cmpl	$1, %eax
	jne	.L2380
	movq	(%rbx), %rax
	movq	%rbx, %rdi
	call	*24(%rax)
	jmp	.L2380
	.p2align 4,,10
	.p2align 3
.L2394:
	movl	8(%rbx), %eax
	leal	-1(%rax), %edx
	cmpl	$1, %eax
	movl	%edx, 8(%rbx)
	jne	.L2393
	movq	(%rbx), %rax
	movq	%rbx, %rdi
	call	*16(%rax)
	movl	12(%rbx), %eax
	leal	-1(%rax), %edx
	movl	%edx, 12(%rbx)
.L2484:
	cmpl	$1, %eax
	jne	.L2393
	movq	(%rbx), %rax
	movq	%rbx, %rdi
	call	*24(%rax)
	jmp	.L2393
	.p2align 4,,10
	.p2align 3
.L2420:
	movl	8(%rbx), %eax
	leal	-1(%rax), %edx
	cmpl	$1, %eax
	movl	%edx, 8(%rbx)
	jne	.L2419
	movq	(%rbx), %rax
	movq	%rbx, %rdi
	call	*16(%rax)
	movl	12(%rbx), %eax
	leal	-1(%rax), %edx
	movl	%edx, 12(%rbx)
.L2488:
	cmpl	$1, %eax
	jne	.L2419
	movq	(%rbx), %rax
	movq	%rbx, %rdi
	call	*24(%rax)
	jmp	.L2419
	.p2align 4,,10
	.p2align 3
.L2407:
	movl	8(%rbx), %eax
	leal	-1(%rax), %edx
	cmpl	$1, %eax
	movl	%edx, 8(%rbx)
	jne	.L2406
	movq	(%rbx), %rax
	movq	%rbx, %rdi
	call	*16(%rax)
	movl	12(%rbx), %eax
	leal	-1(%rax), %edx
	movl	%edx, 12(%rbx)
.L2486:
	cmpl	$1, %eax
	jne	.L2406
	movq	(%rbx), %rax
	movq	%rbx, %rdi
	call	*24(%rax)
	jmp	.L2406
	.p2align 4,,10
	.p2align 3
.L2112:
	pxor	%xmm0, %xmm0
	leaq	368(%rsp), %r13
	movq	784(%rsp), %r12
	movq	%r13, 48(%rsp)
	movups	%xmm0, 56(%rsp)
	.byte	0x66
	leaq	_ZN4asio6detail15keyword_tss_ptrINS0_10call_stackINS0_15task_io_serviceENS0_27task_io_service_thread_infoEE7contextEE6value_E@tlsgd(%rip), %rdi
	.value	0x6666
	rex64
	call	__tls_get_addr@PLT
	movq	(%rax), %rax
	testq	%rax, %rax
	je	.L2123
	movq	8(%rax), %rax
	testq	%rax, %rax
	je	.L2123
	movq	(%rax), %rbx
	testq	%rbx, %rbx
	je	.L2123
	movq	$0, (%rax)
	movzbl	(%rbx), %eax
	cmpb	$103, %al
	jbe	.L2124
	movb	%al, 104(%rbx)
.L2125:
	leaq	_ZN4asio6detail18completion_handlerINS0_7binder1IZN7asiopal8Executor5StartERKNSt6chrono10time_pointINS5_3_V212steady_clockENS5_8durationIlSt5ratioILl1ELl1000000000EEEEEERKSt8functionIFvvEEEUlRKSt10error_codeE_SL_EEE11do_completeEPNS0_15task_io_serviceEPNS0_25task_io_service_operationESN_m(%rip), %rax
	movq	%rbx, 56(%rsp)
	movq	$0, (%rbx)
	movl	$0, 16(%rbx)
	pxor	%xmm0, %xmm0
	movq	%rax, 8(%rbx)
	movq	368(%rsp), %rax
	movq	$0, 56(%rbx)
	movq	%rax, 24(%rbx)
	movq	376(%rsp), %rax
	movaps	%xmm0, 368(%rsp)
	movq	%rax, 32(%rbx)
	movq	400(%rsp), %rax
	testq	%rax, %rax
	je	.L2126
	leaq	40(%rbx), %r14
	leaq	16(%r13), %rsi
	movl	$2, %edx
	movq	%r14, %rdi
.LEHB75:
	call	*%rax
.LEHE75:
	movdqa	400(%rsp), %xmm0
	movups	%xmm0, 56(%rbx)
.L2126:
	movq	416(%rsp), %rax
	pxor	%xmm0, %xmm0
	movq	%rax, 72(%rbx)
	movq	424(%rsp), %rax
	movaps	%xmm0, 416(%rsp)
	movdqa	432(%rsp), %xmm0
	movq	%rax, 80(%rbx)
	movups	%xmm0, 88(%rbx)
	movq	%rbx, 64(%rsp)
	movq	40(%r12), %r14
	.byte	0x66
	leaq	_ZN4asio6detail15keyword_tss_ptrINS0_10call_stackINS0_15task_io_serviceENS0_27task_io_service_thread_infoEE7contextEE6value_E@tlsgd(%rip), %rdi
	.value	0x6666
	rex64
	call	__tls_get_addr@PLT
	movq	(%rax), %rax
	testq	%rax, %rax
	jne	.L2789
	jmp	.L2131
	.p2align 4,,10
	.p2align 3
.L2135:
	movq	16(%rax), %rax
	testq	%rax, %rax
	je	.L2131
.L2789:
	cmpq	(%rax), %r14
	jne	.L2135
	movq	8(%rax), %r14
	movq	792(%rsp), %rax
	leaq	24(%rax), %rdi
	call	pthread_mutex_lock@PLT
	testq	%r14, %r14
	je	.L2137
	movq	792(%rsp), %rdi
	cmpb	$0, 64(%rdi)
	je	.L2840
.L2139:
	cmpq	$0, 80(%rdi)
	movq	$0, (%rbx)
	je	.L2143
	movq	80(%rdi), %rax
	movq	%rbx, (%rax)
	movq	%rbx, 80(%rdi)
.L2144:
	addq	$24, %rdi
	call	pthread_mutex_unlock@PLT
	jmp	.L2120
	.p2align 4,,10
	.p2align 3
.L2305:
	movq	472(%rsp), %rax
	leaq	24(%rax), %rdi
	call	pthread_mutex_lock@PLT
.L2310:
	movq	472(%rsp), %rax
	cmpb	$0, 64(%rax)
	leaq	24(%rax), %rdi
	jne	.L2312
	movb	$1, 64(%rax)
	call	pthread_mutex_unlock@PLT
	movq	472(%rsp), %r12
	movq	$0, (%rbx)
	cmpq	$0, 96(%r12)
	je	.L2318
	movq	96(%r12), %rax
	movq	%rbx, (%rax)
	movq	%rbx, 96(%r12)
.L2319:
	movq	40(%r14), %rbx
	cmpb	$0, 40(%rbx)
	je	.L2320
	.byte	0x66
	leaq	_ZN4asio6detail15keyword_tss_ptrINS0_10call_stackINS0_15task_io_serviceENS0_27task_io_service_thread_infoEE7contextEE6value_E@tlsgd(%rip), %rdi
	.value	0x6666
	rex64
	call	__tls_get_addr@PLT
	movq	(%rax), %rax
	testq	%rax, %rax
	jne	.L2796
	jmp	.L2320
	.p2align 4,,10
	.p2align 3
.L2322:
	movq	16(%rax), %rax
	testq	%rax, %rax
	je	.L2320
.L2796:
	cmpq	(%rax), %rbx
	jne	.L2322
	movq	8(%rax), %rax
	testq	%rax, %rax
	je	.L2320
	addq	$1, 24(%rax)
	cmpq	$0, 16(%rax)
	movq	$0, (%r12)
	je	.L2325
	movq	16(%rax), %rdx
	movq	%r12, (%rdx)
	movq	%r12, 16(%rax)
	jmp	.L2289
	.p2align 4,,10
