	.file	"LinkSession.cpp"
	.text
	.section	.rodata._ZNK4asio6detail15system_category4nameEv.str1.1,"aMS",@progbits,1
.LC0:
	.string	"asio.system"
	.section	.text._ZNK4asio6detail15system_category4nameEv,"axG",@progbits,_ZNK4asio6detail15system_category4nameEv,comdat
	.align 2
	.p2align 4,,15
	.weak	_ZNK4asio6detail15system_category4nameEv
	.type	_ZNK4asio6detail15system_category4nameEv, @function
_ZNK4asio6detail15system_category4nameEv:
.LFB2417:
	.cfi_startproc
	leaq	.LC0(%rip), %rax
	ret
	.cfi_endproc
.LFE2417:
	.size	_ZNK4asio6detail15system_category4nameEv, .-_ZNK4asio6detail15system_category4nameEv
	.section	.rodata._ZNK4asio5error6detail14netdb_category4nameEv.str1.1,"aMS",@progbits,1
.LC1:
	.string	"asio.netdb"
	.section	.text._ZNK4asio5error6detail14netdb_category4nameEv,"axG",@progbits,_ZNK4asio5error6detail14netdb_category4nameEv,comdat
	.align 2
	.p2align 4,,15
	.weak	_ZNK4asio5error6detail14netdb_category4nameEv
	.type	_ZNK4asio5error6detail14netdb_category4nameEv, @function
_ZNK4asio5error6detail14netdb_category4nameEv:
.LFB2457:
	.cfi_startproc
	leaq	.LC1(%rip), %rax
	ret
	.cfi_endproc
.LFE2457:
	.size	_ZNK4asio5error6detail14netdb_category4nameEv, .-_ZNK4asio5error6detail14netdb_category4nameEv
	.section	.rodata._ZNK4asio5error6detail17addrinfo_category4nameEv.str1.1,"aMS",@progbits,1
.LC2:
	.string	"asio.addrinfo"
	.section	.text._ZNK4asio5error6detail17addrinfo_category4nameEv,"axG",@progbits,_ZNK4asio5error6detail17addrinfo_category4nameEv,comdat
	.align 2
	.p2align 4,,15
	.weak	_ZNK4asio5error6detail17addrinfo_category4nameEv
	.type	_ZNK4asio5error6detail17addrinfo_category4nameEv, @function
_ZNK4asio5error6detail17addrinfo_category4nameEv:
.LFB2463:
	.cfi_startproc
	leaq	.LC2(%rip), %rax
	ret
	.cfi_endproc
.LFE2463:
	.size	_ZNK4asio5error6detail17addrinfo_category4nameEv, .-_ZNK4asio5error6detail17addrinfo_category4nameEv
	.section	.rodata._ZNK4asio5error6detail13misc_category4nameEv.str1.1,"aMS",@progbits,1
.LC3:
	.string	"asio.misc"
	.section	.text._ZNK4asio5error6detail13misc_category4nameEv,"axG",@progbits,_ZNK4asio5error6detail13misc_category4nameEv,comdat
	.align 2
	.p2align 4,,15
	.weak	_ZNK4asio5error6detail13misc_category4nameEv
	.type	_ZNK4asio5error6detail13misc_category4nameEv, @function
_ZNK4asio5error6detail13misc_category4nameEv:
.LFB2469:
	.cfi_startproc
	leaq	.LC3(%rip), %rax
	ret
	.cfi_endproc
.LFE2469:
	.size	_ZNK4asio5error6detail13misc_category4nameEv, .-_ZNK4asio5error6detail13misc_category4nameEv
	.section	.text._ZN4asio6detail7tss_ptrINS0_10call_stackINS0_15task_io_serviceENS0_27task_io_service_thread_infoEE7contextEED2Ev,"axG",@progbits,_ZN4asio6detail7tss_ptrINS0_10call_stackINS0_15task_io_serviceENS0_27task_io_service_thread_infoEE7contextEED5Ev,comdat
	.align 2
	.p2align 4,,15
	.weak	_ZN4asio6detail7tss_ptrINS0_10call_stackINS0_15task_io_serviceENS0_27task_io_service_thread_infoEE7contextEED2Ev
	.type	_ZN4asio6detail7tss_ptrINS0_10call_stackINS0_15task_io_serviceENS0_27task_io_service_thread_infoEE7contextEED2Ev, @function
_ZN4asio6detail7tss_ptrINS0_10call_stackINS0_15task_io_serviceENS0_27task_io_service_thread_infoEE7contextEED2Ev:
.LFB10293:
	.cfi_startproc
	rep ret
	.cfi_endproc
.LFE10293:
	.size	_ZN4asio6detail7tss_ptrINS0_10call_stackINS0_15task_io_serviceENS0_27task_io_service_thread_infoEE7contextEED2Ev, .-_ZN4asio6detail7tss_ptrINS0_10call_stackINS0_15task_io_serviceENS0_27task_io_service_thread_infoEE7contextEED2Ev
	.weak	_ZN4asio6detail7tss_ptrINS0_10call_stackINS0_15task_io_serviceENS0_27task_io_service_thread_infoEE7contextEED1Ev
	.set	_ZN4asio6detail7tss_ptrINS0_10call_stackINS0_15task_io_serviceENS0_27task_io_service_thread_infoEE7contextEED1Ev,_ZN4asio6detail7tss_ptrINS0_10call_stackINS0_15task_io_serviceENS0_27task_io_service_thread_infoEE7contextEED2Ev
	.section	.text._ZN4asio6detail10service_idINS0_13epoll_reactorEED2Ev,"axG",@progbits,_ZN4asio6detail10service_idINS0_13epoll_reactorEED5Ev,comdat
	.align 2
	.p2align 4,,15
	.weak	_ZN4asio6detail10service_idINS0_13epoll_reactorEED2Ev
	.type	_ZN4asio6detail10service_idINS0_13epoll_reactorEED2Ev, @function
_ZN4asio6detail10service_idINS0_13epoll_reactorEED2Ev:
.LFB10296:
	.cfi_startproc
	rep ret
	.cfi_endproc
.LFE10296:
	.size	_ZN4asio6detail10service_idINS0_13epoll_reactorEED2Ev, .-_ZN4asio6detail10service_idINS0_13epoll_reactorEED2Ev
	.weak	_ZN4asio6detail10service_idINS0_13epoll_reactorEED1Ev
	.set	_ZN4asio6detail10service_idINS0_13epoll_reactorEED1Ev,_ZN4asio6detail10service_idINS0_13epoll_reactorEED2Ev
	.section	.text._ZN4asio6detail10service_idINS0_15task_io_serviceEED2Ev,"axG",@progbits,_ZN4asio6detail10service_idINS0_15task_io_serviceEED5Ev,comdat
	.align 2
	.p2align 4,,15
	.weak	_ZN4asio6detail10service_idINS0_15task_io_serviceEED2Ev
	.type	_ZN4asio6detail10service_idINS0_15task_io_serviceEED2Ev, @function
_ZN4asio6detail10service_idINS0_15task_io_serviceEED2Ev:
.LFB10299:
	.cfi_startproc
	rep ret
	.cfi_endproc
.LFE10299:
	.size	_ZN4asio6detail10service_idINS0_15task_io_serviceEED2Ev, .-_ZN4asio6detail10service_idINS0_15task_io_serviceEED2Ev
	.weak	_ZN4asio6detail10service_idINS0_15task_io_serviceEED1Ev
	.set	_ZN4asio6detail10service_idINS0_15task_io_serviceEED1Ev,_ZN4asio6detail10service_idINS0_15task_io_serviceEED2Ev
	.section	.text._ZN4asio6detail7tss_ptrINS0_10call_stackINS0_14strand_service11strand_implEhE7contextEED2Ev,"axG",@progbits,_ZN4asio6detail7tss_ptrINS0_10call_stackINS0_14strand_service11strand_implEhE7contextEED5Ev,comdat
	.align 2
	.p2align 4,,15
	.weak	_ZN4asio6detail7tss_ptrINS0_10call_stackINS0_14strand_service11strand_implEhE7contextEED2Ev
	.type	_ZN4asio6detail7tss_ptrINS0_10call_stackINS0_14strand_service11strand_implEhE7contextEED2Ev, @function
_ZN4asio6detail7tss_ptrINS0_10call_stackINS0_14strand_service11strand_implEhE7contextEED2Ev:
.LFB10302:
	.cfi_startproc
	rep ret
	.cfi_endproc
.LFE10302:
	.size	_ZN4asio6detail7tss_ptrINS0_10call_stackINS0_14strand_service11strand_implEhE7contextEED2Ev, .-_ZN4asio6detail7tss_ptrINS0_10call_stackINS0_14strand_service11strand_implEhE7contextEED2Ev
	.weak	_ZN4asio6detail7tss_ptrINS0_10call_stackINS0_14strand_service11strand_implEhE7contextEED1Ev
	.set	_ZN4asio6detail7tss_ptrINS0_10call_stackINS0_14strand_service11strand_implEhE7contextEED1Ev,_ZN4asio6detail7tss_ptrINS0_10call_stackINS0_14strand_service11strand_implEhE7contextEED2Ev
	.section	.text._ZN4asio6detail10service_idINS0_14strand_serviceEED2Ev,"axG",@progbits,_ZN4asio6detail10service_idINS0_14strand_serviceEED5Ev,comdat
	.align 2
	.p2align 4,,15
	.weak	_ZN4asio6detail10service_idINS0_14strand_serviceEED2Ev
	.type	_ZN4asio6detail10service_idINS0_14strand_serviceEED2Ev, @function
_ZN4asio6detail10service_idINS0_14strand_serviceEED2Ev:
.LFB10305:
	.cfi_startproc
	rep ret
	.cfi_endproc
.LFE10305:
	.size	_ZN4asio6detail10service_idINS0_14strand_serviceEED2Ev, .-_ZN4asio6detail10service_idINS0_14strand_serviceEED2Ev
	.weak	_ZN4asio6detail10service_idINS0_14strand_serviceEED1Ev
	.set	_ZN4asio6detail10service_idINS0_14strand_serviceEED1Ev,_ZN4asio6detail10service_idINS0_14strand_serviceEED2Ev
	.section	.text._ZN4asio6detail15system_categoryD2Ev,"axG",@progbits,_ZN4asio6detail15system_categoryD5Ev,comdat
	.align 2
	.p2align 4,,15
	.weak	_ZN4asio6detail15system_categoryD2Ev
	.type	_ZN4asio6detail15system_categoryD2Ev, @function
_ZN4asio6detail15system_categoryD2Ev:
.LFB10272:
	.cfi_startproc
	movq	_ZTVN4asio6detail15system_categoryE@GOTPCREL(%rip), %rax
	addq	$16, %rax
	movq	%rax, (%rdi)
	jmp	_ZNSt3_V214error_categoryD2Ev@PLT
	.cfi_endproc
.LFE10272:
	.size	_ZN4asio6detail15system_categoryD2Ev, .-_ZN4asio6detail15system_categoryD2Ev
	.weak	_ZN4asio6detail15system_categoryD1Ev
	.set	_ZN4asio6detail15system_categoryD1Ev,_ZN4asio6detail15system_categoryD2Ev
	.section	.text._ZN4asio6detail15system_categoryD0Ev,"axG",@progbits,_ZN4asio6detail15system_categoryD5Ev,comdat
	.align 2
	.p2align 4,,15
	.weak	_ZN4asio6detail15system_categoryD0Ev
	.type	_ZN4asio6detail15system_categoryD0Ev, @function
_ZN4asio6detail15system_categoryD0Ev:
.LFB10274:
	.cfi_startproc
	movq	_ZTVN4asio6detail15system_categoryE@GOTPCREL(%rip), %rax
	pushq	%rbx
	.cfi_def_cfa_offset 16
	.cfi_offset 3, -16
	movq	%rdi, %rbx
	addq	$16, %rax
	movq	%rax, (%rdi)
	call	_ZNSt3_V214error_categoryD2Ev@PLT
	movq	%rbx, %rdi
	movl	$8, %esi
	popq	%rbx
	.cfi_def_cfa_offset 8
	jmp	_ZdlPvm@PLT
	.cfi_endproc
.LFE10274:
	.size	_ZN4asio6detail15system_categoryD0Ev, .-_ZN4asio6detail15system_categoryD0Ev
	.section	.text._ZN4asio5error6detail14netdb_categoryD2Ev,"axG",@progbits,_ZN4asio5error6detail14netdb_categoryD5Ev,comdat
	.align 2
	.p2align 4,,15
	.weak	_ZN4asio5error6detail14netdb_categoryD2Ev
	.type	_ZN4asio5error6detail14netdb_categoryD2Ev, @function
_ZN4asio5error6detail14netdb_categoryD2Ev:
.LFB10260:
	.cfi_startproc
	movq	_ZTVN4asio5error6detail14netdb_categoryE@GOTPCREL(%rip), %rax
	addq	$16, %rax
	movq	%rax, (%rdi)
	jmp	_ZNSt3_V214error_categoryD2Ev@PLT
	.cfi_endproc
.LFE10260:
	.size	_ZN4asio5error6detail14netdb_categoryD2Ev, .-_ZN4asio5error6detail14netdb_categoryD2Ev
	.weak	_ZN4asio5error6detail14netdb_categoryD1Ev
	.set	_ZN4asio5error6detail14netdb_categoryD1Ev,_ZN4asio5error6detail14netdb_categoryD2Ev
	.section	.text._ZN4asio5error6detail14netdb_categoryD0Ev,"axG",@progbits,_ZN4asio5error6detail14netdb_categoryD5Ev,comdat
	.align 2
	.p2align 4,,15
	.weak	_ZN4asio5error6detail14netdb_categoryD0Ev
	.type	_ZN4asio5error6detail14netdb_categoryD0Ev, @function
_ZN4asio5error6detail14netdb_categoryD0Ev:
.LFB10262:
	.cfi_startproc
	movq	_ZTVN4asio5error6detail14netdb_categoryE@GOTPCREL(%rip), %rax
	pushq	%rbx
	.cfi_def_cfa_offset 16
	.cfi_offset 3, -16
	movq	%rdi, %rbx
	addq	$16, %rax
	movq	%rax, (%rdi)
	call	_ZNSt3_V214error_categoryD2Ev@PLT
	movq	%rbx, %rdi
	movl	$8, %esi
	popq	%rbx
	.cfi_def_cfa_offset 8
	jmp	_ZdlPvm@PLT
	.cfi_endproc
.LFE10262:
	.size	_ZN4asio5error6detail14netdb_categoryD0Ev, .-_ZN4asio5error6detail14netdb_categoryD0Ev
	.section	.text._ZN4asio5error6detail17addrinfo_categoryD2Ev,"axG",@progbits,_ZN4asio5error6detail17addrinfo_categoryD5Ev,comdat
	.align 2
	.p2align 4,,15
	.weak	_ZN4asio5error6detail17addrinfo_categoryD2Ev
	.type	_ZN4asio5error6detail17addrinfo_categoryD2Ev, @function
_ZN4asio5error6detail17addrinfo_categoryD2Ev:
.LFB10256:
	.cfi_startproc
	movq	_ZTVN4asio5error6detail17addrinfo_categoryE@GOTPCREL(%rip), %rax
	addq	$16, %rax
	movq	%rax, (%rdi)
	jmp	_ZNSt3_V214error_categoryD2Ev@PLT
	.cfi_endproc
.LFE10256:
	.size	_ZN4asio5error6detail17addrinfo_categoryD2Ev, .-_ZN4asio5error6detail17addrinfo_categoryD2Ev
	.weak	_ZN4asio5error6detail17addrinfo_categoryD1Ev
	.set	_ZN4asio5error6detail17addrinfo_categoryD1Ev,_ZN4asio5error6detail17addrinfo_categoryD2Ev
	.section	.text._ZN4asio5error6detail17addrinfo_categoryD0Ev,"axG",@progbits,_ZN4asio5error6detail17addrinfo_categoryD5Ev,comdat
	.align 2
	.p2align 4,,15
	.weak	_ZN4asio5error6detail17addrinfo_categoryD0Ev
	.type	_ZN4asio5error6detail17addrinfo_categoryD0Ev, @function
_ZN4asio5error6detail17addrinfo_categoryD0Ev:
.LFB10258:
	.cfi_startproc
	movq	_ZTVN4asio5error6detail17addrinfo_categoryE@GOTPCREL(%rip), %rax
	pushq	%rbx
	.cfi_def_cfa_offset 16
	.cfi_offset 3, -16
	movq	%rdi, %rbx
	addq	$16, %rax
	movq	%rax, (%rdi)
	call	_ZNSt3_V214error_categoryD2Ev@PLT
	movq	%rbx, %rdi
	movl	$8, %esi
	popq	%rbx
	.cfi_def_cfa_offset 8
	jmp	_ZdlPvm@PLT
	.cfi_endproc
.LFE10258:
	.size	_ZN4asio5error6detail17addrinfo_categoryD0Ev, .-_ZN4asio5error6detail17addrinfo_categoryD0Ev
	.section	.text._ZN4asio5error6detail13misc_categoryD2Ev,"axG",@progbits,_ZN4asio5error6detail13misc_categoryD5Ev,comdat
	.align 2
	.p2align 4,,15
	.weak	_ZN4asio5error6detail13misc_categoryD2Ev
	.type	_ZN4asio5error6detail13misc_categoryD2Ev, @function
_ZN4asio5error6detail13misc_categoryD2Ev:
.LFB10252:
	.cfi_startproc
	movq	_ZTVN4asio5error6detail13misc_categoryE@GOTPCREL(%rip), %rax
	addq	$16, %rax
	movq	%rax, (%rdi)
	jmp	_ZNSt3_V214error_categoryD2Ev@PLT
	.cfi_endproc
.LFE10252:
	.size	_ZN4asio5error6detail13misc_categoryD2Ev, .-_ZN4asio5error6detail13misc_categoryD2Ev
	.weak	_ZN4asio5error6detail13misc_categoryD1Ev
	.set	_ZN4asio5error6detail13misc_categoryD1Ev,_ZN4asio5error6detail13misc_categoryD2Ev
	.section	.text._ZN4asio5error6detail13misc_categoryD0Ev,"axG",@progbits,_ZN4asio5error6detail13misc_categoryD5Ev,comdat
	.align 2
	.p2align 4,,15
	.weak	_ZN4asio5error6detail13misc_categoryD0Ev
	.type	_ZN4asio5error6detail13misc_categoryD0Ev, @function
_ZN4asio5error6detail13misc_categoryD0Ev:
.LFB10254:
	.cfi_startproc
	movq	_ZTVN4asio5error6detail13misc_categoryE@GOTPCREL(%rip), %rax
	pushq	%rbx
	.cfi_def_cfa_offset 16
	.cfi_offset 3, -16
	movq	%rdi, %rbx
	addq	$16, %rax
	movq	%rax, (%rdi)
	call	_ZNSt3_V214error_categoryD2Ev@PLT
	movq	%rbx, %rdi
	movl	$8, %esi
	popq	%rbx
	.cfi_def_cfa_offset 8
	jmp	_ZdlPvm@PLT
	.cfi_endproc
.LFE10254:
	.size	_ZN4asio5error6detail13misc_categoryD0Ev, .-_ZN4asio5error6detail13misc_categoryD0Ev
	.text
	.align 2
	.p2align 4,,15
	.globl	_ZN8asiodnp311LinkSession13BeginTransmitERKN7openpal6RSliceERN8opendnp312ILinkSessionE
	.type	_ZN8asiodnp311LinkSession13BeginTransmitERKN7openpal6RSliceERN8opendnp312ILinkSessionE, @function
_ZN8asiodnp311LinkSession13BeginTransmitERKN7openpal6RSliceERN8opendnp312ILinkSessionE:
.LFB7813:
	.cfi_startproc
	movq	136(%rdi), %rdi
	cmpq	$0, 40(%rdi)
	je	.L23
	cmpb	$0, 56(%rdi)
	jne	.L23
	cmpb	$0, 58(%rdi)
	je	.L25
.L23:
	rep ret
	.p2align 4,,10
	.p2align 3
.L25:
	movq	(%rdi), %rax
	movb	$1, 58(%rdi)
	jmp	*24(%rax)
	.cfi_endproc
.LFE7813:
	.size	_ZN8asiodnp311LinkSession13BeginTransmitERKN7openpal6RSliceERN8opendnp312ILinkSessionE, .-_ZN8asiodnp311LinkSession13BeginTransmitERKN7openpal6RSliceERN8opendnp312ILinkSessionE
	.section	.rodata._ZNK4asio6detail15system_category7messageB5cxx11Ei.str1.8,"aMS",@progbits,1
	.align 8
.LC4:
	.string	"basic_string::_M_construct null not valid"
	.section	.text._ZNK4asio6detail15system_category7messageB5cxx11Ei,"axG",@progbits,_ZNK4asio6detail15system_category7messageB5cxx11Ei,comdat
	.align 2
	.p2align 4,,15
	.weak	_ZNK4asio6detail15system_category7messageB5cxx11Ei
	.type	_ZNK4asio6detail15system_category7messageB5cxx11Ei, @function
_ZNK4asio6detail15system_category7messageB5cxx11Ei:
.LFB2418:
	.cfi_startproc
	pushq	%r13
	.cfi_def_cfa_offset 16
	.cfi_offset 13, -16
	pushq	%r12
	.cfi_def_cfa_offset 24
	.cfi_offset 12, -24
	pushq	%rbp
	.cfi_def_cfa_offset 32
	.cfi_offset 6, -32
	pushq	%rbx
	.cfi_def_cfa_offset 40
	.cfi_offset 3, -40
	leaq	16(%rdi), %rbp
	movq	%rdi, %rbx
	subq	$296, %rsp
	.cfi_def_cfa_offset 336
	movq	%fs:40, %rax
	movq	%rax, 280(%rsp)
	xorl	%eax, %eax
	cmpl	$125, %edx
	je	.L41
	pxor	%xmm0, %xmm0
	leaq	32(%rsp), %rdi
	movl	%edx, %r8d
	xorl	%eax, %eax
	movl	$30, %ecx
	leaq	16(%rsp), %rsi
	rep stosq
	movl	$256, %edx
	movl	%r8d, %edi
	movaps	%xmm0, 16(%rsp)
	call	strerror_r@PLT
	testq	%rax, %rax
	movq	%rax, %r12
	movq	%rbp, (%rbx)
	je	.L29
	movq	%rax, %rdi
	call	strlen@PLT
	cmpq	$15, %rax
	movq	%rax, %r13
	movq	%rax, 8(%rsp)
	ja	.L42
	cmpq	$1, %rax
	jne	.L33
	movzbl	(%r12), %edx
	movb	%dl, 16(%rbx)
.L34:
	movq	%rax, 8(%rbx)
	movb	$0, 0(%rbp,%rax)
.L26:
	movq	280(%rsp), %rcx
	xorq	%fs:40, %rcx
	movq	%rbx, %rax
	jne	.L43
	addq	$296, %rsp
	.cfi_remember_state
	.cfi_def_cfa_offset 40
	popq	%rbx
	.cfi_def_cfa_offset 32
	popq	%rbp
	.cfi_def_cfa_offset 24
	popq	%r12
	.cfi_def_cfa_offset 16
	popq	%r13
	.cfi_def_cfa_offset 8
	ret
	.p2align 4,,10
	.p2align 3
.L42:
	.cfi_restore_state
	leaq	8(%rsp), %rsi
	xorl	%edx, %edx
	movq	%rbx, %rdi
	call	_ZNSt7__cxx1112basic_stringIcSt11char_traitsIcESaIcEE9_M_createERmm@PLT
	movq	%rax, %rbp
	movq	%rax, (%rbx)
	movq	8(%rsp), %rax
	movq	%rax, 16(%rbx)
.L32:
	movq	%rbp, %rdi
	movq	%r13, %rdx
	movq	%r12, %rsi
	call	memcpy@PLT
	movq	8(%rsp), %rax
	movq	(%rbx), %rbp
	jmp	.L34
	.p2align 4,,10
	.p2align 3
.L41:
	leaq	8(%rsp), %rsi
	xorl	%edx, %edx
	movq	%rbp, (%rdi)
	movq	$18, 8(%rsp)
	call	_ZNSt7__cxx1112basic_stringIcSt11char_traitsIcESaIcEE9_M_createERmm@PLT
	movq	8(%rsp), %rdx
	movq	%rax, (%rbx)
	movdqa	.LC5(%rip), %xmm0
	movq	%rdx, 16(%rbx)
	movl	$11876, %edx
	movups	%xmm0, (%rax)
	movw	%dx, 16(%rax)
	movq	8(%rsp), %rax
	movq	(%rbx), %rdx
	movq	%rax, 8(%rbx)
	movb	$0, (%rdx,%rax)
	jmp	.L26
	.p2align 4,,10
	.p2align 3
.L33:
	testq	%rax, %rax
	je	.L34
	jmp	.L32
.L43:
	call	__stack_chk_fail@PLT
.L29:
	leaq	.LC4(%rip), %rdi
	call	_ZSt19__throw_logic_errorPKc@PLT
	.cfi_endproc
.LFE2418:
	.size	_ZNK4asio6detail15system_category7messageB5cxx11Ei, .-_ZNK4asio6detail15system_category7messageB5cxx11Ei
	.section	.text._ZNK4asio5error6detail17addrinfo_category7messageB5cxx11Ei,"axG",@progbits,_ZNK4asio5error6detail17addrinfo_category7messageB5cxx11Ei,comdat
	.align 2
	.p2align 4,,15
	.weak	_ZNK4asio5error6detail17addrinfo_category7messageB5cxx11Ei
	.type	_ZNK4asio5error6detail17addrinfo_category7messageB5cxx11Ei, @function
_ZNK4asio5error6detail17addrinfo_category7messageB5cxx11Ei:
.LFB2464:
	.cfi_startproc
	pushq	%rbx
	.cfi_def_cfa_offset 16
	.cfi_offset 3, -16
	movq	%rdi, %rbx
	subq	$16, %rsp
	.cfi_def_cfa_offset 32
	movq	%fs:40, %rax
	movq	%rax, 8(%rsp)
	xorl	%eax, %eax
	leaq	16(%rdi), %rax
	cmpl	$-8, %edx
	movq	%rax, (%rdi)
	je	.L50
	cmpl	$-7, %edx
	je	.L51
	xorl	%edx, %edx
	movq	%rsp, %rsi
	movq	$19, (%rsp)
	call	_ZNSt7__cxx1112basic_stringIcSt11char_traitsIcESaIcEE9_M_createERmm@PLT
	movq	(%rsp), %rdx
	movq	%rax, (%rbx)
	movdqa	.LC8(%rip), %xmm0
	movq	%rdx, 16(%rbx)
	movl	$28530, %edx
	movb	$114, 18(%rax)
	movups	%xmm0, (%rax)
	movw	%dx, 16(%rax)
	movq	(%rsp), %rax
	movq	(%rbx), %rdx
	movq	%rax, 8(%rbx)
	movb	$0, (%rdx,%rax)
.L44:
	movq	8(%rsp), %rcx
	xorq	%fs:40, %rcx
	movq	%rbx, %rax
	jne	.L52
	addq	$16, %rsp
	.cfi_remember_state
	.cfi_def_cfa_offset 16
	popq	%rbx
	.cfi_def_cfa_offset 8
	ret
	.p2align 4,,10
	.p2align 3
.L51:
	.cfi_restore_state
	xorl	%edx, %edx
	movq	%rsp, %rsi
	movq	$25, (%rsp)
	call	_ZNSt7__cxx1112basic_stringIcSt11char_traitsIcESaIcEE9_M_createERmm@PLT
	movq	(%rsp), %rdx
	movabsq	$7310593918082512243, %rcx
	movq	%rax, (%rbx)
	movdqa	.LC7(%rip), %xmm0
	movq	%rdx, 16(%rbx)
	movq	%rcx, 16(%rax)
	movups	%xmm0, (%rax)
	movb	$100, 24(%rax)
	movq	(%rsp), %rax
	movq	(%rbx), %rdx
	movq	%rax, 8(%rbx)
	movb	$0, (%rdx,%rax)
	jmp	.L44
	.p2align 4,,10
	.p2align 3
.L50:
	xorl	%edx, %edx
	movq	%rsp, %rsi
	movq	$17, (%rsp)
	call	_ZNSt7__cxx1112basic_stringIcSt11char_traitsIcESaIcEE9_M_createERmm@PLT
	movq	(%rsp), %rdx
	movq	%rax, (%rbx)
	movdqa	.LC6(%rip), %xmm0
	movq	%rdx, 16(%rbx)
	movb	$100, 16(%rax)
	movups	%xmm0, (%rax)
	movq	(%rsp), %rax
	movq	(%rbx), %rdx
	movq	%rax, 8(%rbx)
	movb	$0, (%rdx,%rax)
	jmp	.L44
.L52:
	call	__stack_chk_fail@PLT
	.cfi_endproc
.LFE2464:
	.size	_ZNK4asio5error6detail17addrinfo_category7messageB5cxx11Ei, .-_ZNK4asio5error6detail17addrinfo_category7messageB5cxx11Ei
	.section	.text._ZNK4asio5error6detail13misc_category7messageB5cxx11Ei,"axG",@progbits,_ZNK4asio5error6detail13misc_category7messageB5cxx11Ei,comdat
	.align 2
	.p2align 4,,15
	.weak	_ZNK4asio5error6detail13misc_category7messageB5cxx11Ei
	.type	_ZNK4asio5error6detail13misc_category7messageB5cxx11Ei, @function
_ZNK4asio5error6detail13misc_category7messageB5cxx11Ei:
.LFB2470:
	.cfi_startproc
	pushq	%rbx
	.cfi_def_cfa_offset 16
	.cfi_offset 3, -16
	movq	%rdi, %rbx
	subq	$16, %rsp
	.cfi_def_cfa_offset 32
	movq	%fs:40, %rax
	movq	%rax, 8(%rsp)
	xorl	%eax, %eax
	leaq	16(%rdi), %rax
	cmpl	$1, %edx
	movq	%rax, (%rdi)
	je	.L61
	cmpl	$2, %edx
	je	.L62
	cmpl	$3, %edx
	je	.L63
	cmpl	$4, %edx
	je	.L64
	movabsq	$8316298233121436513, %rsi
	movl	$28530, %edx
	movq	%rsi, 16(%rdi)
	movl	$1919230051, 8(%rax)
	movw	%dx, 12(%rax)
	movb	$114, 14(%rax)
	movq	$15, 8(%rdi)
	movb	$0, 31(%rdi)
.L53:
	movq	8(%rsp), %rcx
	xorq	%fs:40, %rcx
	movq	%rbx, %rax
	jne	.L65
	addq	$16, %rsp
	.cfi_remember_state
	.cfi_def_cfa_offset 16
	popq	%rbx
	.cfi_def_cfa_offset 8
	ret
	.p2align 4,,10
	.p2align 3
.L64:
	.cfi_restore_state
	xorl	%edx, %edx
	movq	%rsp, %rsi
	movq	$57, (%rsp)
	call	_ZNSt7__cxx1112basic_stringIcSt11char_traitsIcESaIcEE9_M_createERmm@PLT
	movq	(%rsp), %rdx
	movq	%rax, (%rbx)
	movabsq	$7310291504967217959, %rdi
	movdqa	.LC10(%rip), %xmm0
	movq	%rdx, 16(%rbx)
	movq	%rdi, 48(%rax)
	movups	%xmm0, (%rax)
	movb	$116, 56(%rax)
	movdqa	.LC11(%rip), %xmm0
	movups	%xmm0, 16(%rax)
	movdqa	.LC12(%rip), %xmm0
	movups	%xmm0, 32(%rax)
	movq	(%rsp), %rax
	movq	(%rbx), %rdx
	movq	%rax, 8(%rbx)
	movb	$0, (%rdx,%rax)
	jmp	.L53
	.p2align 4,,10
	.p2align 3
.L61:
	movabsq	$2340011850872286273, %rcx
	movq	%rcx, 16(%rdi)
	movl	$1852141679, 8(%rax)
	movq	$12, 8(%rdi)
	movb	$0, 28(%rdi)
	jmp	.L53
	.p2align 4,,10
	.p2align 3
.L62:
	movabsq	$7358994418594246213, %rcx
	movq	%rcx, 16(%rdi)
	movl	$27753, %ecx
	movb	$101, 10(%rax)
	movw	%cx, 8(%rax)
	movq	$11, 8(%rdi)
	movb	$0, 27(%rdi)
	jmp	.L53
	.p2align 4,,10
	.p2align 3
.L63:
	xorl	%edx, %edx
	movq	%rsp, %rsi
	movq	$17, (%rsp)
	call	_ZNSt7__cxx1112basic_stringIcSt11char_traitsIcESaIcEE9_M_createERmm@PLT
	movq	(%rsp), %rdx
	movq	%rax, (%rbx)
	movdqa	.LC9(%rip), %xmm0
	movq	%rdx, 16(%rbx)
	movb	$100, 16(%rax)
	movups	%xmm0, (%rax)
	movq	(%rsp), %rax
	movq	(%rbx), %rdx
	movq	%rax, 8(%rbx)
	movb	$0, (%rdx,%rax)
	jmp	.L53
.L65:
	call	__stack_chk_fail@PLT
	.cfi_endproc
.LFE2470:
	.size	_ZNK4asio5error6detail13misc_category7messageB5cxx11Ei, .-_ZNK4asio5error6detail13misc_category7messageB5cxx11Ei
	.section	.text._ZNK4asio5error6detail14netdb_category7messageB5cxx11Ei,"axG",@progbits,_ZNK4asio5error6detail14netdb_category7messageB5cxx11Ei,comdat
	.align 2
	.p2align 4,,15
	.weak	_ZNK4asio5error6detail14netdb_category7messageB5cxx11Ei
	.type	_ZNK4asio5error6detail14netdb_category7messageB5cxx11Ei, @function
_ZNK4asio5error6detail14netdb_category7messageB5cxx11Ei:
.LFB2458:
	.cfi_startproc
	pushq	%rbx
	.cfi_def_cfa_offset 16
	.cfi_offset 3, -16
	movq	%rdi, %rbx
	subq	$16, %rsp
	.cfi_def_cfa_offset 32
	movq	%fs:40, %rax
	movq	%rax, 8(%rsp)
	xorl	%eax, %eax
	leaq	16(%rdi), %rax
	cmpl	$1, %edx
	movq	%rax, (%rdi)
	je	.L74
	cmpl	$2, %edx
	je	.L75
	cmpl	$4, %edx
	je	.L76
	cmpl	$3, %edx
	je	.L77
	xorl	%edx, %edx
	movq	%rsp, %rsi
	movq	$16, (%rsp)
	call	_ZNSt7__cxx1112basic_stringIcSt11char_traitsIcESaIcEE9_M_createERmm@PLT
	movq	(%rsp), %rdx
	movq	%rax, (%rbx)
	movdqa	.LC22(%rip), %xmm0
	movq	%rdx, 16(%rbx)
	movups	%xmm0, (%rax)
	movq	(%rsp), %rax
	movq	(%rbx), %rdx
	movq	%rax, 8(%rbx)
	movb	$0, (%rdx,%rax)
.L66:
	movq	8(%rsp), %rcx
	xorq	%fs:40, %rcx
	movq	%rbx, %rax
	jne	.L78
	addq	$16, %rsp
	.cfi_remember_state
	.cfi_def_cfa_offset 16
	popq	%rbx
	.cfi_def_cfa_offset 8
	ret
	.p2align 4,,10
	.p2align 3
.L77:
	.cfi_restore_state
	xorl	%edx, %edx
	movq	%rsp, %rsi
	movq	$55, (%rsp)
	call	_ZNSt7__cxx1112basic_stringIcSt11char_traitsIcESaIcEE9_M_createERmm@PLT
	movq	(%rsp), %rdx
	movq	%rax, (%rbx)
	movdqa	.LC19(%rip), %xmm0
	movq	%rdx, 16(%rbx)
	movl	$30059, %edx
	movl	$1869573152, 48(%rax)
	movups	%xmm0, (%rax)
	movw	%dx, 52(%rax)
	movb	$112, 54(%rax)
	movdqa	.LC20(%rip), %xmm0
	movups	%xmm0, 16(%rax)
	movdqa	.LC21(%rip), %xmm0
	movups	%xmm0, 32(%rax)
	movq	(%rsp), %rax
	movq	(%rbx), %rdx
	movq	%rax, 8(%rbx)
	movb	$0, (%rdx,%rax)
	jmp	.L66
	.p2align 4,,10
	.p2align 3
.L74:
	movq	%rsp, %rsi
	xorl	%edx, %edx
	movq	$30, (%rsp)
	call	_ZNSt7__cxx1112basic_stringIcSt11char_traitsIcESaIcEE9_M_createERmm@PLT
	movq	(%rsp), %rdx
	movabsq	$8388361603773658465, %rcx
	movl	$10597, %esi
	movdqa	.LC13(%rip), %xmm0
	movq	%rax, (%rbx)
	movq	%rdx, 16(%rbx)
	movq	%rcx, 16(%rax)
	movups	%xmm0, (%rax)
	movl	$1986622561, 24(%rax)
	movw	%si, 28(%rax)
	movq	(%rsp), %rax
	movq	(%rbx), %rdx
	movq	%rax, 8(%rbx)
	movb	$0, (%rdx,%rax)
	jmp	.L66
	.p2align 4,,10
	.p2align 3
.L75:
	xorl	%edx, %edx
	movq	%rsp, %rsi
	movq	$51, (%rsp)
	call	_ZNSt7__cxx1112basic_stringIcSt11char_traitsIcESaIcEE9_M_createERmm@PLT
	movq	(%rsp), %rdx
	movq	%rax, (%rbx)
	movl	$25972, %ecx
	movdqa	.LC13(%rip), %xmm0
	movq	%rdx, 16(%rbx)
	movw	%cx, 48(%rax)
	movups	%xmm0, (%rax)
	movb	$114, 50(%rax)
	movdqa	.LC14(%rip), %xmm0
	movups	%xmm0, 16(%rax)
	movdqa	.LC15(%rip), %xmm0
	movups	%xmm0, 32(%rax)
	movq	(%rsp), %rax
	movq	(%rbx), %rdx
	movq	%rax, 8(%rbx)
	movb	$0, (%rdx,%rax)
	jmp	.L66
	.p2align 4,,10
	.p2align 3
.L76:
	xorl	%edx, %edx
	movq	%rsp, %rsi
	movq	$56, (%rsp)
	call	_ZNSt7__cxx1112basic_stringIcSt11char_traitsIcESaIcEE9_M_createERmm@PLT
	movq	(%rsp), %rdx
	movq	%rax, (%rbx)
	movabsq	$7022344801645520244, %rcx
	movdqa	.LC16(%rip), %xmm0
	movq	%rdx, 16(%rbx)
	movq	%rcx, 48(%rax)
	movups	%xmm0, (%rax)
	movdqa	.LC17(%rip), %xmm0
	movups	%xmm0, 16(%rax)
	movdqa	.LC18(%rip), %xmm0
	movups	%xmm0, 32(%rax)
	movq	(%rsp), %rax
	movq	(%rbx), %rdx
	movq	%rax, 8(%rbx)
	movb	$0, (%rdx,%rax)
	jmp	.L66
.L78:
	call	__stack_chk_fail@PLT
	.cfi_endproc
.LFE2458:
	.size	_ZNK4asio5error6detail14netdb_category7messageB5cxx11Ei, .-_ZNK4asio5error6detail14netdb_category7messageB5cxx11Ei
	.section	.text._ZN8asiodnp311LinkSessionD2Ev,"axG",@progbits,_ZN8asiodnp311LinkSessionD5Ev,comdat
	.p2align 4,,15
	.weak	_ZThn40_N8asiodnp311LinkSessionD1Ev
	.type	_ZThn40_N8asiodnp311LinkSessionD1Ev, @function
_ZThn40_N8asiodnp311LinkSessionD1Ev:
.LFB10532:
	.cfi_startproc
	pushq	%rbp
	.cfi_def_cfa_offset 16
	.cfi_offset 6, -16
	pushq	%rbx
	.cfi_def_cfa_offset 24
	.cfi_offset 3, -24
	movq	%rdi, %rbx
	subq	$8, %rsp
	.cfi_def_cfa_offset 32
	movq	_ZTVN8asiodnp311LinkSessionE@GOTPCREL(%rip), %rax
	movq	560(%rdi), %rbp
	leaq	16(%rax), %rdx
	movq	%rdx, -40(%rdi)
	leaq	96(%rax), %rdx
	movq	%rdx, -32(%rdi)
	leaq	144(%rax), %rdx
	movq	%rdx, -24(%rdi)
	leaq	184(%rax), %rdx
	addq	$224, %rax
	testq	%rbp, %rbp
	movq	%rax, 8(%rdi)
	movq	%rdx, (%rdi)
	je	.L81
	cmpq	$0, _ZL28__gthrw___pthread_key_createPjPFvPvE@GOTPCREL(%rip)
	je	.L82
	lock subl	$1, 8(%rbp)
	je	.L142
.L81:
	leaq	528(%rbx), %rdi
	call	_ZN7openpal8TimerRefD1Ev@PLT
	movq	136(%rbx), %rbp
	testq	%rbp, %rbp
	je	.L87
	cmpq	$0, _ZL28__gthrw___pthread_key_createPjPFvPvE@GOTPCREL(%rip)
	je	.L88
	lock subl	$1, 8(%rbp)
	je	.L143
.L87:
	movq	120(%rbx), %rbp
	testq	%rbp, %rbp
	je	.L93
	cmpq	$0, _ZL28__gthrw___pthread_key_createPjPFvPvE@GOTPCREL(%rip)
	je	.L94
	lock subl	$1, 8(%rbp)
	je	.L144
.L93:
	movq	104(%rbx), %rbp
	testq	%rbp, %rbp
	je	.L99
	cmpq	$0, _ZL28__gthrw___pthread_key_createPjPFvPvE@GOTPCREL(%rip)
	je	.L100
	lock subl	$1, 8(%rbp)
	je	.L145
.L99:
	movq	88(%rbx), %rbp
	testq	%rbp, %rbp
	je	.L105
	cmpq	$0, _ZL28__gthrw___pthread_key_createPjPFvPvE@GOTPCREL(%rip)
	je	.L106
	lock subl	$1, 8(%rbp)
	je	.L146
.L105:
	movq	72(%rbx), %rbp
	testq	%rbp, %rbp
	je	.L111
	cmpq	$0, _ZL28__gthrw___pthread_key_createPjPFvPvE@GOTPCREL(%rip)
	je	.L112
	lock subl	$1, 8(%rbp)
	je	.L147
.L111:
	movq	48(%rbx), %rbp
	testq	%rbp, %rbp
	je	.L117
	cmpq	$0, _ZL28__gthrw___pthread_key_createPjPFvPvE@GOTPCREL(%rip)
	je	.L118
	lock subl	$1, 8(%rbp)
	je	.L148
.L117:
	movq	32(%rbx), %rbp
	testq	%rbp, %rbp
	je	.L123
	cmpq	$0, _ZL28__gthrw___pthread_key_createPjPFvPvE@GOTPCREL(%rip)
	je	.L124
	lock subl	$1, 8(%rbp)
	je	.L149
.L123:
	movq	-8(%rbx), %rdi
	testq	%rdi, %rdi
	je	.L79
	cmpq	$0, _ZL28__gthrw___pthread_key_createPjPFvPvE@GOTPCREL(%rip)
	je	.L130
	movl	$-1, %eax
	lock xaddl	%eax, 12(%rdi)
	cmpl	$1, %eax
	je	.L150
.L79:
	addq	$8, %rsp
	.cfi_remember_state
	.cfi_def_cfa_offset 24
	popq	%rbx
	.cfi_def_cfa_offset 16
	popq	%rbp
	.cfi_def_cfa_offset 8
	ret
	.p2align 4,,10
	.p2align 3
.L124:
	.cfi_restore_state
	movl	8(%rbp), %eax
	leal	-1(%rax), %edx
	cmpl	$1, %eax
	movl	%edx, 8(%rbp)
	jne	.L123
	movq	0(%rbp), %rax
	movq	%rbp, %rdi
	call	*16(%rax)
	movl	12(%rbp), %eax
	leal	-1(%rax), %edx
	movl	%edx, 12(%rbp)
	jmp	.L140
	.p2align 4,,10
	.p2align 3
.L130:
	movl	12(%rdi), %eax
	leal	-1(%rax), %edx
	cmpl	$1, %eax
	movl	%edx, 12(%rdi)
	jne	.L79
.L150:
	movq	(%rdi), %rax
	movq	24(%rax), %rax
	addq	$8, %rsp
	.cfi_remember_state
	.cfi_def_cfa_offset 24
	popq	%rbx
	.cfi_def_cfa_offset 16
	popq	%rbp
	.cfi_def_cfa_offset 8
	jmp	*%rax
	.p2align 4,,10
	.p2align 3
.L94:
	.cfi_restore_state
	movl	8(%rbp), %eax
	leal	-1(%rax), %edx
	cmpl	$1, %eax
	movl	%edx, 8(%rbp)
	jne	.L93
	movq	0(%rbp), %rax
	movq	%rbp, %rdi
	call	*16(%rax)
	movl	12(%rbp), %eax
	leal	-1(%rax), %edx
	movl	%edx, 12(%rbp)
	jmp	.L135
	.p2align 4,,10
	.p2align 3
.L82:
	movl	8(%rbp), %eax
	leal	-1(%rax), %edx
	cmpl	$1, %eax
	movl	%edx, 8(%rbp)
	jne	.L81
	movq	0(%rbp), %rax
	movq	%rbp, %rdi
	call	*16(%rax)
	movl	12(%rbp), %eax
	leal	-1(%rax), %edx
	movl	%edx, 12(%rbp)
	jmp	.L133
	.p2align 4,,10
	.p2align 3
.L88:
	movl	8(%rbp), %eax
	leal	-1(%rax), %edx
	cmpl	$1, %eax
	movl	%edx, 8(%rbp)
	jne	.L87
	movq	0(%rbp), %rax
	movq	%rbp, %rdi
	call	*16(%rax)
	movl	12(%rbp), %eax
	leal	-1(%rax), %edx
	movl	%edx, 12(%rbp)
	jmp	.L134
	.p2align 4,,10
	.p2align 3
.L100:
	movl	8(%rbp), %eax
	leal	-1(%rax), %edx
	cmpl	$1, %eax
	movl	%edx, 8(%rbp)
	jne	.L99
	movq	0(%rbp), %rax
	movq	%rbp, %rdi
	call	*16(%rax)
	movl	12(%rbp), %eax
	leal	-1(%rax), %edx
	movl	%edx, 12(%rbp)
	jmp	.L136
	.p2align 4,,10
	.p2align 3
.L118:
	movl	8(%rbp), %eax
	leal	-1(%rax), %edx
	cmpl	$1, %eax
	movl	%edx, 8(%rbp)
	jne	.L117
	movq	0(%rbp), %rax
	movq	%rbp, %rdi
	call	*16(%rax)
	movl	12(%rbp), %eax
	leal	-1(%rax), %edx
	movl	%edx, 12(%rbp)
	jmp	.L139
	.p2align 4,,10
	.p2align 3
.L112:
	movl	8(%rbp), %eax
	leal	-1(%rax), %edx
	cmpl	$1, %eax
	movl	%edx, 8(%rbp)
	jne	.L111
	movq	0(%rbp), %rax
	movq	%rbp, %rdi
	call	*16(%rax)
	movl	12(%rbp), %eax
	leal	-1(%rax), %edx
	movl	%edx, 12(%rbp)
	jmp	.L138
	.p2align 4,,10
	.p2align 3
.L106:
	movl	8(%rbp), %eax
	leal	-1(%rax), %edx
	cmpl	$1, %eax
	movl	%edx, 8(%rbp)
	jne	.L105
	movq	0(%rbp), %rax
	movq	%rbp, %rdi
	call	*16(%rax)
	movl	12(%rbp), %eax
	leal	-1(%rax), %edx
	movl	%edx, 12(%rbp)
	jmp	.L137
	.p2align 4,,10
	.p2align 3
.L144:
	movq	0(%rbp), %rax
	movq	%rbp, %rdi
	call	*16(%rax)
	movl	$-1, %eax
	lock xaddl	%eax, 12(%rbp)
.L135:
	cmpl	$1, %eax
	jne	.L93
	movq	0(%rbp), %rax
	movq	%rbp, %rdi
	call	*24(%rax)
	jmp	.L93
	.p2align 4,,10
	.p2align 3
.L149:
	movq	0(%rbp), %rax
	movq	%rbp, %rdi
	call	*16(%rax)
	movl	$-1, %eax
	lock xaddl	%eax, 12(%rbp)
.L140:
	cmpl	$1, %eax
	jne	.L123
	movq	0(%rbp), %rax
	movq	%rbp, %rdi
	call	*24(%rax)
	jmp	.L123
	.p2align 4,,10
	.p2align 3
.L143:
	movq	0(%rbp), %rax
	movq	%rbp, %rdi
	call	*16(%rax)
	movl	$-1, %eax
	lock xaddl	%eax, 12(%rbp)
.L134:
	cmpl	$1, %eax
	jne	.L87
	movq	0(%rbp), %rax
	movq	%rbp, %rdi
	call	*24(%rax)
	jmp	.L87
	.p2align 4,,10
	.p2align 3
.L145:
	movq	0(%rbp), %rax
	movq	%rbp, %rdi
	call	*16(%rax)
	movl	$-1, %eax
	lock xaddl	%eax, 12(%rbp)
.L136:
	cmpl	$1, %eax
	jne	.L99
	movq	0(%rbp), %rax
	movq	%rbp, %rdi
	call	*24(%rax)
	jmp	.L99
	.p2align 4,,10
	.p2align 3
.L146:
	movq	0(%rbp), %rax
	movq	%rbp, %rdi
	call	*16(%rax)
	movl	$-1, %eax
	lock xaddl	%eax, 12(%rbp)
.L137:
	cmpl	$1, %eax
	jne	.L105
	movq	0(%rbp), %rax
	movq	%rbp, %rdi
	call	*24(%rax)
	jmp	.L105
	.p2align 4,,10
	.p2align 3
.L147:
	movq	0(%rbp), %rax
	movq	%rbp, %rdi
	call	*16(%rax)
	movl	$-1, %eax
	lock xaddl	%eax, 12(%rbp)
.L138:
	cmpl	$1, %eax
	jne	.L111
	movq	0(%rbp), %rax
	movq	%rbp, %rdi
	call	*24(%rax)
	jmp	.L111
	.p2align 4,,10
	.p2align 3
.L148:
	movq	0(%rbp), %rax
	movq	%rbp, %rdi
	call	*16(%rax)
	movl	$-1, %eax
	lock xaddl	%eax, 12(%rbp)
.L139:
	cmpl	$1, %eax
	jne	.L117
	movq	0(%rbp), %rax
	movq	%rbp, %rdi
	call	*24(%rax)
	jmp	.L117
	.p2align 4,,10
	.p2align 3
.L142:
	movq	0(%rbp), %rax
	movq	%rbp, %rdi
	call	*16(%rax)
	movl	$-1, %eax
	lock xaddl	%eax, 12(%rbp)
.L133:
	cmpl	$1, %eax
	jne	.L81
	movq	0(%rbp), %rax
	movq	%rbp, %rdi
	call	*24(%rax)
	jmp	.L81
	.cfi_endproc
.LFE10532:
	.size	_ZThn40_N8asiodnp311LinkSessionD1Ev, .-_ZThn40_N8asiodnp311LinkSessionD1Ev
	.section	.text._ZN8asiodnp311LinkSessionD0Ev,"axG",@progbits,_ZN8asiodnp311LinkSessionD5Ev,comdat
	.p2align 4,,15
	.weak	_ZThn8_N8asiodnp311LinkSessionD0Ev
	.type	_ZThn8_N8asiodnp311LinkSessionD0Ev, @function
_ZThn8_N8asiodnp311LinkSessionD0Ev:
.LFB10529:
	.cfi_startproc
	movq	_ZTVN8asiodnp311LinkSessionE@GOTPCREL(%rip), %rax
	pushq	%r12
	.cfi_def_cfa_offset 16
	.cfi_offset 12, -16
	leaq	-8(%rdi), %r12
	pushq	%rbp
	.cfi_def_cfa_offset 24
	.cfi_offset 6, -24
	pushq	%rbx
	.cfi_def_cfa_offset 32
	.cfi_offset 3, -32
	movq	%rdi, %rbx
	movq	592(%rdi), %rbp
	leaq	16(%rax), %rdx
	movq	%rdx, -8(%rdi)
	leaq	96(%rax), %rdx
	movq	%rdx, (%rdi)
	leaq	144(%rax), %rdx
	movq	%rdx, 8(%rdi)
	leaq	184(%rax), %rdx
	addq	$224, %rax
	testq	%rbp, %rbp
	movq	%rax, 40(%rdi)
	movq	%rdx, 32(%rdi)
	je	.L153
	cmpq	$0, _ZL28__gthrw___pthread_key_createPjPFvPvE@GOTPCREL(%rip)
	je	.L154
	lock subl	$1, 8(%rbp)
	je	.L214
.L153:
	leaq	560(%rbx), %rdi
	call	_ZN7openpal8TimerRefD1Ev@PLT
	movq	168(%rbx), %rbp
	testq	%rbp, %rbp
	je	.L159
	cmpq	$0, _ZL28__gthrw___pthread_key_createPjPFvPvE@GOTPCREL(%rip)
	je	.L160
	lock subl	$1, 8(%rbp)
	je	.L215
.L159:
	movq	152(%rbx), %rbp
	testq	%rbp, %rbp
	je	.L165
	cmpq	$0, _ZL28__gthrw___pthread_key_createPjPFvPvE@GOTPCREL(%rip)
	je	.L166
	lock subl	$1, 8(%rbp)
	je	.L216
.L165:
	movq	136(%rbx), %rbp
	testq	%rbp, %rbp
	je	.L171
	cmpq	$0, _ZL28__gthrw___pthread_key_createPjPFvPvE@GOTPCREL(%rip)
	je	.L172
	lock subl	$1, 8(%rbp)
	je	.L217
.L171:
	movq	120(%rbx), %rbp
	testq	%rbp, %rbp
	je	.L177
	cmpq	$0, _ZL28__gthrw___pthread_key_createPjPFvPvE@GOTPCREL(%rip)
	je	.L178
	lock subl	$1, 8(%rbp)
	je	.L218
.L177:
	movq	104(%rbx), %rbp
	testq	%rbp, %rbp
	je	.L183
	cmpq	$0, _ZL28__gthrw___pthread_key_createPjPFvPvE@GOTPCREL(%rip)
	je	.L184
	lock subl	$1, 8(%rbp)
	je	.L219
.L183:
	movq	80(%rbx), %rbp
	testq	%rbp, %rbp
	je	.L189
	cmpq	$0, _ZL28__gthrw___pthread_key_createPjPFvPvE@GOTPCREL(%rip)
	je	.L190
	lock subl	$1, 8(%rbp)
	je	.L220
.L189:
	movq	64(%rbx), %rbp
	testq	%rbp, %rbp
	je	.L195
	cmpq	$0, _ZL28__gthrw___pthread_key_createPjPFvPvE@GOTPCREL(%rip)
	je	.L196
	lock subl	$1, 8(%rbp)
	je	.L221
.L195:
	movq	24(%rbx), %rdi
	testq	%rdi, %rdi
	je	.L201
	cmpq	$0, _ZL28__gthrw___pthread_key_createPjPFvPvE@GOTPCREL(%rip)
	je	.L202
	movl	$-1, %eax
	lock xaddl	%eax, 12(%rdi)
	cmpl	$1, %eax
	je	.L222
.L201:
	popq	%rbx
	.cfi_remember_state
	.cfi_def_cfa_offset 24
	movq	%r12, %rdi
	movl	$608, %esi
	popq	%rbp
	.cfi_def_cfa_offset 16
	popq	%r12
	.cfi_def_cfa_offset 8
	jmp	_ZdlPvm@PLT
	.p2align 4,,10
	.p2align 3
.L196:
	.cfi_restore_state
	movl	8(%rbp), %eax
	leal	-1(%rax), %edx
	cmpl	$1, %eax
	movl	%edx, 8(%rbp)
	jne	.L195
	movq	0(%rbp), %rax
	movq	%rbp, %rdi
	call	*16(%rax)
	movl	12(%rbp), %eax
	leal	-1(%rax), %edx
	movl	%edx, 12(%rbp)
	jmp	.L212
	.p2align 4,,10
	.p2align 3
.L202:
	movl	12(%rdi), %eax
	leal	-1(%rax), %edx
	cmpl	$1, %eax
	movl	%edx, 12(%rdi)
	jne	.L201
.L222:
	movq	(%rdi), %rax
	call	*24(%rax)
	jmp	.L201
	.p2align 4,,10
	.p2align 3
.L166:
	movl	8(%rbp), %eax
	leal	-1(%rax), %edx
	cmpl	$1, %eax
	movl	%edx, 8(%rbp)
	jne	.L165
	movq	0(%rbp), %rax
	movq	%rbp, %rdi
	call	*16(%rax)
	movl	12(%rbp), %eax
	leal	-1(%rax), %edx
	movl	%edx, 12(%rbp)
	jmp	.L207
	.p2align 4,,10
	.p2align 3
.L154:
	movl	8(%rbp), %eax
	leal	-1(%rax), %edx
	cmpl	$1, %eax
	movl	%edx, 8(%rbp)
	jne	.L153
	movq	0(%rbp), %rax
	movq	%rbp, %rdi
	call	*16(%rax)
	movl	12(%rbp), %eax
	leal	-1(%rax), %edx
	movl	%edx, 12(%rbp)
	jmp	.L205
	.p2align 4,,10
	.p2align 3
.L160:
	movl	8(%rbp), %eax
	leal	-1(%rax), %edx
	cmpl	$1, %eax
	movl	%edx, 8(%rbp)
	jne	.L159
	movq	0(%rbp), %rax
	movq	%rbp, %rdi
	call	*16(%rax)
	movl	12(%rbp), %eax
	leal	-1(%rax), %edx
	movl	%edx, 12(%rbp)
	jmp	.L206
	.p2align 4,,10
	.p2align 3
.L172:
	movl	8(%rbp), %eax
	leal	-1(%rax), %edx
	cmpl	$1, %eax
	movl	%edx, 8(%rbp)
	jne	.L171
	movq	0(%rbp), %rax
	movq	%rbp, %rdi
	call	*16(%rax)
	movl	12(%rbp), %eax
	leal	-1(%rax), %edx
	movl	%edx, 12(%rbp)
	jmp	.L208
	.p2align 4,,10
	.p2align 3
.L190:
	movl	8(%rbp), %eax
	leal	-1(%rax), %edx
	cmpl	$1, %eax
	movl	%edx, 8(%rbp)
	jne	.L189
	movq	0(%rbp), %rax
	movq	%rbp, %rdi
	call	*16(%rax)
	movl	12(%rbp), %eax
	leal	-1(%rax), %edx
	movl	%edx, 12(%rbp)
	jmp	.L211
	.p2align 4,,10
	.p2align 3
.L184:
	movl	8(%rbp), %eax
	leal	-1(%rax), %edx
	cmpl	$1, %eax
	movl	%edx, 8(%rbp)
	jne	.L183
	movq	0(%rbp), %rax
	movq	%rbp, %rdi
	call	*16(%rax)
	movl	12(%rbp), %eax
	leal	-1(%rax), %edx
	movl	%edx, 12(%rbp)
	jmp	.L210
	.p2align 4,,10
	.p2align 3
.L178:
	movl	8(%rbp), %eax
	leal	-1(%rax), %edx
	cmpl	$1, %eax
	movl	%edx, 8(%rbp)
	jne	.L177
	movq	0(%rbp), %rax
	movq	%rbp, %rdi
	call	*16(%rax)
	movl	12(%rbp), %eax
	leal	-1(%rax), %edx
	movl	%edx, 12(%rbp)
	jmp	.L209
	.p2align 4,,10
	.p2align 3
.L216:
	movq	0(%rbp), %rax
	movq	%rbp, %rdi
	call	*16(%rax)
	movl	$-1, %eax
	lock xaddl	%eax, 12(%rbp)
.L207:
	cmpl	$1, %eax
	jne	.L165
	movq	0(%rbp), %rax
	movq	%rbp, %rdi
	call	*24(%rax)
	jmp	.L165
	.p2align 4,,10
	.p2align 3
.L221:
	movq	0(%rbp), %rax
	movq	%rbp, %rdi
	call	*16(%rax)
	movl	$-1, %eax
	lock xaddl	%eax, 12(%rbp)
.L212:
	cmpl	$1, %eax
	jne	.L195
	movq	0(%rbp), %rax
	movq	%rbp, %rdi
	call	*24(%rax)
	jmp	.L195
	.p2align 4,,10
	.p2align 3
.L215:
	movq	0(%rbp), %rax
	movq	%rbp, %rdi
	call	*16(%rax)
	movl	$-1, %eax
	lock xaddl	%eax, 12(%rbp)
.L206:
	cmpl	$1, %eax
	jne	.L159
	movq	0(%rbp), %rax
	movq	%rbp, %rdi
	call	*24(%rax)
	jmp	.L159
	.p2align 4,,10
	.p2align 3
.L217:
	movq	0(%rbp), %rax
	movq	%rbp, %rdi
	call	*16(%rax)
	movl	$-1, %eax
	lock xaddl	%eax, 12(%rbp)
.L208:
	cmpl	$1, %eax
	jne	.L171
	movq	0(%rbp), %rax
	movq	%rbp, %rdi
	call	*24(%rax)
	jmp	.L171
	.p2align 4,,10
	.p2align 3
.L218:
	movq	0(%rbp), %rax
	movq	%rbp, %rdi
	call	*16(%rax)
	movl	$-1, %eax
	lock xaddl	%eax, 12(%rbp)
.L209:
	cmpl	$1, %eax
	jne	.L177
	movq	0(%rbp), %rax
	movq	%rbp, %rdi
	call	*24(%rax)
	jmp	.L177
	.p2align 4,,10
	.p2align 3
.L219:
	movq	0(%rbp), %rax
	movq	%rbp, %rdi
	call	*16(%rax)
	movl	$-1, %eax
	lock xaddl	%eax, 12(%rbp)
.L210:
	cmpl	$1, %eax
	jne	.L183
	movq	0(%rbp), %rax
	movq	%rbp, %rdi
	call	*24(%rax)
	jmp	.L183
	.p2align 4,,10
	.p2align 3
.L220:
	movq	0(%rbp), %rax
	movq	%rbp, %rdi
	call	*16(%rax)
	movl	$-1, %eax
	lock xaddl	%eax, 12(%rbp)
.L211:
	cmpl	$1, %eax
	jne	.L189
	movq	0(%rbp), %rax
	movq	%rbp, %rdi
	call	*24(%rax)
	jmp	.L189
	.p2align 4,,10
	.p2align 3
.L214:
	movq	0(%rbp), %rax
	movq	%rbp, %rdi
	call	*16(%rax)
	movl	$-1, %eax
	lock xaddl	%eax, 12(%rbp)
.L205:
	cmpl	$1, %eax
	jne	.L153
	movq	0(%rbp), %rax
	movq	%rbp, %rdi
	call	*24(%rax)
	jmp	.L153
	.cfi_endproc
.LFE10529:
	.size	_ZThn8_N8asiodnp311LinkSessionD0Ev, .-_ZThn8_N8asiodnp311LinkSessionD0Ev
	.p2align 4,,15
	.weak	_ZThn16_N8asiodnp311LinkSessionD0Ev
	.type	_ZThn16_N8asiodnp311LinkSessionD0Ev, @function
_ZThn16_N8asiodnp311LinkSessionD0Ev:
.LFB10528:
	.cfi_startproc
	movq	_ZTVN8asiodnp311LinkSessionE@GOTPCREL(%rip), %rax
	pushq	%r12
	.cfi_def_cfa_offset 16
	.cfi_offset 12, -16
	leaq	-16(%rdi), %r12
	pushq	%rbp
	.cfi_def_cfa_offset 24
	.cfi_offset 6, -24
	pushq	%rbx
	.cfi_def_cfa_offset 32
	.cfi_offset 3, -32
	movq	%rdi, %rbx
	movq	584(%rdi), %rbp
	leaq	16(%rax), %rdx
	movq	%rdx, -16(%rdi)
	leaq	96(%rax), %rdx
	movq	%rdx, -8(%rdi)
	leaq	144(%rax), %rdx
	movq	%rdx, (%rdi)
	leaq	184(%rax), %rdx
	addq	$224, %rax
	testq	%rbp, %rbp
	movq	%rax, 32(%rdi)
	movq	%rdx, 24(%rdi)
	je	.L225
	cmpq	$0, _ZL28__gthrw___pthread_key_createPjPFvPvE@GOTPCREL(%rip)
	je	.L226
	lock subl	$1, 8(%rbp)
	je	.L286
.L225:
	leaq	552(%rbx), %rdi
	call	_ZN7openpal8TimerRefD1Ev@PLT
	movq	160(%rbx), %rbp
	testq	%rbp, %rbp
	je	.L231
	cmpq	$0, _ZL28__gthrw___pthread_key_createPjPFvPvE@GOTPCREL(%rip)
	je	.L232
	lock subl	$1, 8(%rbp)
	je	.L287
.L231:
	movq	144(%rbx), %rbp
	testq	%rbp, %rbp
	je	.L237
	cmpq	$0, _ZL28__gthrw___pthread_key_createPjPFvPvE@GOTPCREL(%rip)
	je	.L238
	lock subl	$1, 8(%rbp)
	je	.L288
.L237:
	movq	128(%rbx), %rbp
	testq	%rbp, %rbp
	je	.L243
	cmpq	$0, _ZL28__gthrw___pthread_key_createPjPFvPvE@GOTPCREL(%rip)
	je	.L244
	lock subl	$1, 8(%rbp)
	je	.L289
.L243:
	movq	112(%rbx), %rbp
	testq	%rbp, %rbp
	je	.L249
	cmpq	$0, _ZL28__gthrw___pthread_key_createPjPFvPvE@GOTPCREL(%rip)
	je	.L250
	lock subl	$1, 8(%rbp)
	je	.L290
.L249:
	movq	96(%rbx), %rbp
	testq	%rbp, %rbp
	je	.L255
	cmpq	$0, _ZL28__gthrw___pthread_key_createPjPFvPvE@GOTPCREL(%rip)
	je	.L256
	lock subl	$1, 8(%rbp)
	je	.L291
.L255:
	movq	72(%rbx), %rbp
	testq	%rbp, %rbp
	je	.L261
	cmpq	$0, _ZL28__gthrw___pthread_key_createPjPFvPvE@GOTPCREL(%rip)
	je	.L262
	lock subl	$1, 8(%rbp)
	je	.L292
.L261:
	movq	56(%rbx), %rbp
	testq	%rbp, %rbp
	je	.L267
	cmpq	$0, _ZL28__gthrw___pthread_key_createPjPFvPvE@GOTPCREL(%rip)
	je	.L268
	lock subl	$1, 8(%rbp)
	je	.L293
.L267:
	movq	16(%rbx), %rdi
	testq	%rdi, %rdi
	je	.L273
	cmpq	$0, _ZL28__gthrw___pthread_key_createPjPFvPvE@GOTPCREL(%rip)
	je	.L274
	movl	$-1, %eax
	lock xaddl	%eax, 12(%rdi)
	cmpl	$1, %eax
	je	.L294
.L273:
	popq	%rbx
	.cfi_remember_state
	.cfi_def_cfa_offset 24
	movq	%r12, %rdi
	movl	$608, %esi
	popq	%rbp
	.cfi_def_cfa_offset 16
	popq	%r12
	.cfi_def_cfa_offset 8
	jmp	_ZdlPvm@PLT
	.p2align 4,,10
	.p2align 3
.L268:
	.cfi_restore_state
	movl	8(%rbp), %eax
	leal	-1(%rax), %edx
	cmpl	$1, %eax
	movl	%edx, 8(%rbp)
	jne	.L267
	movq	0(%rbp), %rax
	movq	%rbp, %rdi
	call	*16(%rax)
	movl	12(%rbp), %eax
	leal	-1(%rax), %edx
	movl	%edx, 12(%rbp)
	jmp	.L284
	.p2align 4,,10
	.p2align 3
.L274:
	movl	12(%rdi), %eax
	leal	-1(%rax), %edx
	cmpl	$1, %eax
	movl	%edx, 12(%rdi)
	jne	.L273
.L294:
	movq	(%rdi), %rax
	call	*24(%rax)
	jmp	.L273
	.p2align 4,,10
	.p2align 3
.L238:
	movl	8(%rbp), %eax
	leal	-1(%rax), %edx
	cmpl	$1, %eax
	movl	%edx, 8(%rbp)
	jne	.L237
	movq	0(%rbp), %rax
	movq	%rbp, %rdi
	call	*16(%rax)
	movl	12(%rbp), %eax
	leal	-1(%rax), %edx
	movl	%edx, 12(%rbp)
	jmp	.L279
	.p2align 4,,10
	.p2align 3
.L226:
	movl	8(%rbp), %eax
	leal	-1(%rax), %edx
	cmpl	$1, %eax
	movl	%edx, 8(%rbp)
	jne	.L225
	movq	0(%rbp), %rax
	movq	%rbp, %rdi
	call	*16(%rax)
	movl	12(%rbp), %eax
	leal	-1(%rax), %edx
	movl	%edx, 12(%rbp)
	jmp	.L277
	.p2align 4,,10
	.p2align 3
.L232:
	movl	8(%rbp), %eax
	leal	-1(%rax), %edx
	cmpl	$1, %eax
	movl	%edx, 8(%rbp)
	jne	.L231
	movq	0(%rbp), %rax
	movq	%rbp, %rdi
	call	*16(%rax)
	movl	12(%rbp), %eax
	leal	-1(%rax), %edx
	movl	%edx, 12(%rbp)
	jmp	.L278
	.p2align 4,,10
	.p2align 3
.L244:
	movl	8(%rbp), %eax
	leal	-1(%rax), %edx
	cmpl	$1, %eax
	movl	%edx, 8(%rbp)
	jne	.L243
	movq	0(%rbp), %rax
	movq	%rbp, %rdi
	call	*16(%rax)
	movl	12(%rbp), %eax
	leal	-1(%rax), %edx
	movl	%edx, 12(%rbp)
	jmp	.L280
	.p2align 4,,10
	.p2align 3
.L262:
	movl	8(%rbp), %eax
	leal	-1(%rax), %edx
	cmpl	$1, %eax
	movl	%edx, 8(%rbp)
	jne	.L261
	movq	0(%rbp), %rax
	movq	%rbp, %rdi
	call	*16(%rax)
	movl	12(%rbp), %eax
	leal	-1(%rax), %edx
	movl	%edx, 12(%rbp)
	jmp	.L283
	.p2align 4,,10
	.p2align 3
.L256:
	movl	8(%rbp), %eax
	leal	-1(%rax), %edx
	cmpl	$1, %eax
	movl	%edx, 8(%rbp)
	jne	.L255
	movq	0(%rbp), %rax
	movq	%rbp, %rdi
	call	*16(%rax)
	movl	12(%rbp), %eax
	leal	-1(%rax), %edx
	movl	%edx, 12(%rbp)
	jmp	.L282
	.p2align 4,,10
	.p2align 3
.L250:
	movl	8(%rbp), %eax
	leal	-1(%rax), %edx
	cmpl	$1, %eax
	movl	%edx, 8(%rbp)
	jne	.L249
	movq	0(%rbp), %rax
	movq	%rbp, %rdi
	call	*16(%rax)
	movl	12(%rbp), %eax
	leal	-1(%rax), %edx
	movl	%edx, 12(%rbp)
	jmp	.L281
	.p2align 4,,10
	.p2align 3
.L288:
	movq	0(%rbp), %rax
	movq	%rbp, %rdi
	call	*16(%rax)
	movl	$-1, %eax
	lock xaddl	%eax, 12(%rbp)
.L279:
	cmpl	$1, %eax
	jne	.L237
	movq	0(%rbp), %rax
	movq	%rbp, %rdi
	call	*24(%rax)
	jmp	.L237
	.p2align 4,,10
	.p2align 3
.L293:
	movq	0(%rbp), %rax
	movq	%rbp, %rdi
	call	*16(%rax)
	movl	$-1, %eax
	lock xaddl	%eax, 12(%rbp)
.L284:
	cmpl	$1, %eax
	jne	.L267
	movq	0(%rbp), %rax
	movq	%rbp, %rdi
	call	*24(%rax)
	jmp	.L267
	.p2align 4,,10
	.p2align 3
.L287:
	movq	0(%rbp), %rax
	movq	%rbp, %rdi
	call	*16(%rax)
	movl	$-1, %eax
	lock xaddl	%eax, 12(%rbp)
.L278:
	cmpl	$1, %eax
	jne	.L231
	movq	0(%rbp), %rax
	movq	%rbp, %rdi
	call	*24(%rax)
	jmp	.L231
	.p2align 4,,10
	.p2align 3
.L289:
	movq	0(%rbp), %rax
	movq	%rbp, %rdi
	call	*16(%rax)
	movl	$-1, %eax
	lock xaddl	%eax, 12(%rbp)
.L280:
	cmpl	$1, %eax
	jne	.L243
	movq	0(%rbp), %rax
	movq	%rbp, %rdi
	call	*24(%rax)
	jmp	.L243
	.p2align 4,,10
	.p2align 3
.L290:
	movq	0(%rbp), %rax
	movq	%rbp, %rdi
	call	*16(%rax)
	movl	$-1, %eax
	lock xaddl	%eax, 12(%rbp)
.L281:
	cmpl	$1, %eax
	jne	.L249
	movq	0(%rbp), %rax
	movq	%rbp, %rdi
	call	*24(%rax)
	jmp	.L249
	.p2align 4,,10
	.p2align 3
.L291:
	movq	0(%rbp), %rax
	movq	%rbp, %rdi
	call	*16(%rax)
	movl	$-1, %eax
	lock xaddl	%eax, 12(%rbp)
.L282:
	cmpl	$1, %eax
	jne	.L255
	movq	0(%rbp), %rax
	movq	%rbp, %rdi
	call	*24(%rax)
	jmp	.L255
	.p2align 4,,10
	.p2align 3
.L292:
	movq	0(%rbp), %rax
	movq	%rbp, %rdi
	call	*16(%rax)
	movl	$-1, %eax
	lock xaddl	%eax, 12(%rbp)
.L283:
	cmpl	$1, %eax
	jne	.L261
	movq	0(%rbp), %rax
	movq	%rbp, %rdi
	call	*24(%rax)
	jmp	.L261
	.p2align 4,,10
	.p2align 3
.L286:
	movq	0(%rbp), %rax
	movq	%rbp, %rdi
	call	*16(%rax)
	movl	$-1, %eax
	lock xaddl	%eax, 12(%rbp)
.L277:
	cmpl	$1, %eax
	jne	.L225
	movq	0(%rbp), %rax
	movq	%rbp, %rdi
	call	*24(%rax)
	jmp	.L225
	.cfi_endproc
.LFE10528:
	.size	_ZThn16_N8asiodnp311LinkSessionD0Ev, .-_ZThn16_N8asiodnp311LinkSessionD0Ev
	.p2align 4,,15
	.weak	_ZThn48_N8asiodnp311LinkSessionD0Ev
	.type	_ZThn48_N8asiodnp311LinkSessionD0Ev, @function
_ZThn48_N8asiodnp311LinkSessionD0Ev:
.LFB10526:
	.cfi_startproc
	movq	_ZTVN8asiodnp311LinkSessionE@GOTPCREL(%rip), %rax
	pushq	%r12
	.cfi_def_cfa_offset 16
	.cfi_offset 12, -16
	leaq	-48(%rdi), %r12
	pushq	%rbp
	.cfi_def_cfa_offset 24
	.cfi_offset 6, -24
	pushq	%rbx
	.cfi_def_cfa_offset 32
	.cfi_offset 3, -32
	movq	%rdi, %rbx
	movq	552(%rdi), %rbp
	leaq	16(%rax), %rdx
	movq	%rdx, -48(%rdi)
	leaq	96(%rax), %rdx
	movq	%rdx, -40(%rdi)
	leaq	144(%rax), %rdx
	movq	%rdx, -32(%rdi)
	leaq	184(%rax), %rdx
	addq	$224, %rax
	testq	%rbp, %rbp
	movq	%rax, (%rdi)
	movq	%rdx, -8(%rdi)
	je	.L297
	cmpq	$0, _ZL28__gthrw___pthread_key_createPjPFvPvE@GOTPCREL(%rip)
	je	.L298
	lock subl	$1, 8(%rbp)
	je	.L358
.L297:
	leaq	520(%rbx), %rdi
	call	_ZN7openpal8TimerRefD1Ev@PLT
	movq	128(%rbx), %rbp
	testq	%rbp, %rbp
	je	.L303
	cmpq	$0, _ZL28__gthrw___pthread_key_createPjPFvPvE@GOTPCREL(%rip)
	je	.L304
	lock subl	$1, 8(%rbp)
	je	.L359
.L303:
	movq	112(%rbx), %rbp
	testq	%rbp, %rbp
	je	.L309
	cmpq	$0, _ZL28__gthrw___pthread_key_createPjPFvPvE@GOTPCREL(%rip)
	je	.L310
	lock subl	$1, 8(%rbp)
	je	.L360
.L309:
	movq	96(%rbx), %rbp
	testq	%rbp, %rbp
	je	.L315
	cmpq	$0, _ZL28__gthrw___pthread_key_createPjPFvPvE@GOTPCREL(%rip)
	je	.L316
	lock subl	$1, 8(%rbp)
	je	.L361
.L315:
	movq	80(%rbx), %rbp
	testq	%rbp, %rbp
	je	.L321
	cmpq	$0, _ZL28__gthrw___pthread_key_createPjPFvPvE@GOTPCREL(%rip)
	je	.L322
	lock subl	$1, 8(%rbp)
	je	.L362
.L321:
	movq	64(%rbx), %rbp
	testq	%rbp, %rbp
	je	.L327
	cmpq	$0, _ZL28__gthrw___pthread_key_createPjPFvPvE@GOTPCREL(%rip)
	je	.L328
	lock subl	$1, 8(%rbp)
	je	.L363
.L327:
	movq	40(%rbx), %rbp
	testq	%rbp, %rbp
	je	.L333
	cmpq	$0, _ZL28__gthrw___pthread_key_createPjPFvPvE@GOTPCREL(%rip)
	je	.L334
	lock subl	$1, 8(%rbp)
	je	.L364
.L333:
	movq	24(%rbx), %rbp
	testq	%rbp, %rbp
	je	.L339
	cmpq	$0, _ZL28__gthrw___pthread_key_createPjPFvPvE@GOTPCREL(%rip)
	je	.L340
	lock subl	$1, 8(%rbp)
	je	.L365
.L339:
	movq	-16(%rbx), %rdi
	testq	%rdi, %rdi
	je	.L345
	cmpq	$0, _ZL28__gthrw___pthread_key_createPjPFvPvE@GOTPCREL(%rip)
	je	.L346
	movl	$-1, %eax
	lock xaddl	%eax, 12(%rdi)
	cmpl	$1, %eax
	je	.L366
.L345:
	popq	%rbx
	.cfi_remember_state
	.cfi_def_cfa_offset 24
	movq	%r12, %rdi
	movl	$608, %esi
	popq	%rbp
	.cfi_def_cfa_offset 16
	popq	%r12
	.cfi_def_cfa_offset 8
	jmp	_ZdlPvm@PLT
	.p2align 4,,10
	.p2align 3
.L340:
	.cfi_restore_state
	movl	8(%rbp), %eax
	leal	-1(%rax), %edx
	cmpl	$1, %eax
	movl	%edx, 8(%rbp)
	jne	.L339
	movq	0(%rbp), %rax
	movq	%rbp, %rdi
	call	*16(%rax)
	movl	12(%rbp), %eax
	leal	-1(%rax), %edx
	movl	%edx, 12(%rbp)
	jmp	.L356
	.p2align 4,,10
	.p2align 3
.L346:
	movl	12(%rdi), %eax
	leal	-1(%rax), %edx
	cmpl	$1, %eax
	movl	%edx, 12(%rdi)
	jne	.L345
.L366:
	movq	(%rdi), %rax
	call	*24(%rax)
	jmp	.L345
	.p2align 4,,10
	.p2align 3
.L310:
	movl	8(%rbp), %eax
	leal	-1(%rax), %edx
	cmpl	$1, %eax
	movl	%edx, 8(%rbp)
	jne	.L309
	movq	0(%rbp), %rax
	movq	%rbp, %rdi
	call	*16(%rax)
	movl	12(%rbp), %eax
	leal	-1(%rax), %edx
	movl	%edx, 12(%rbp)
	jmp	.L351
	.p2align 4,,10
	.p2align 3
.L298:
	movl	8(%rbp), %eax
	leal	-1(%rax), %edx
	cmpl	$1, %eax
	movl	%edx, 8(%rbp)
	jne	.L297
	movq	0(%rbp), %rax
	movq	%rbp, %rdi
	call	*16(%rax)
	movl	12(%rbp), %eax
	leal	-1(%rax), %edx
	movl	%edx, 12(%rbp)
	jmp	.L349
	.p2align 4,,10
	.p2align 3
.L304:
	movl	8(%rbp), %eax
	leal	-1(%rax), %edx
	cmpl	$1, %eax
	movl	%edx, 8(%rbp)
	jne	.L303
	movq	0(%rbp), %rax
	movq	%rbp, %rdi
	call	*16(%rax)
	movl	12(%rbp), %eax
	leal	-1(%rax), %edx
	movl	%edx, 12(%rbp)
	jmp	.L350
	.p2align 4,,10
	.p2align 3
.L316:
	movl	8(%rbp), %eax
	leal	-1(%rax), %edx
	cmpl	$1, %eax
	movl	%edx, 8(%rbp)
	jne	.L315
	movq	0(%rbp), %rax
	movq	%rbp, %rdi
	call	*16(%rax)
	movl	12(%rbp), %eax
	leal	-1(%rax), %edx
	movl	%edx, 12(%rbp)
	jmp	.L352
	.p2align 4,,10
	.p2align 3
.L334:
	movl	8(%rbp), %eax
	leal	-1(%rax), %edx
	cmpl	$1, %eax
	movl	%edx, 8(%rbp)
	jne	.L333
	movq	0(%rbp), %rax
	movq	%rbp, %rdi
	call	*16(%rax)
	movl	12(%rbp), %eax
	leal	-1(%rax), %edx
	movl	%edx, 12(%rbp)
	jmp	.L355
	.p2align 4,,10
	.p2align 3
.L328:
	movl	8(%rbp), %eax
	leal	-1(%rax), %edx
	cmpl	$1, %eax
	movl	%edx, 8(%rbp)
	jne	.L327
	movq	0(%rbp), %rax
	movq	%rbp, %rdi
	call	*16(%rax)
	movl	12(%rbp), %eax
	leal	-1(%rax), %edx
	movl	%edx, 12(%rbp)
	jmp	.L354
	.p2align 4,,10
	.p2align 3
.L322:
	movl	8(%rbp), %eax
	leal	-1(%rax), %edx
	cmpl	$1, %eax
	movl	%edx, 8(%rbp)
	jne	.L321
	movq	0(%rbp), %rax
	movq	%rbp, %rdi
	call	*16(%rax)
	movl	12(%rbp), %eax
	leal	-1(%rax), %edx
	movl	%edx, 12(%rbp)
	jmp	.L353
	.p2align 4,,10
	.p2align 3
.L360:
	movq	0(%rbp), %rax
	movq	%rbp, %rdi
	call	*16(%rax)
	movl	$-1, %eax
	lock xaddl	%eax, 12(%rbp)
.L351:
	cmpl	$1, %eax
	jne	.L309
	movq	0(%rbp), %rax
	movq	%rbp, %rdi
	call	*24(%rax)
	jmp	.L309
	.p2align 4,,10
	.p2align 3
.L365:
	movq	0(%rbp), %rax
	movq	%rbp, %rdi
	call	*16(%rax)
	movl	$-1, %eax
	lock xaddl	%eax, 12(%rbp)
.L356:
	cmpl	$1, %eax
	jne	.L339
	movq	0(%rbp), %rax
	movq	%rbp, %rdi
	call	*24(%rax)
	jmp	.L339
	.p2align 4,,10
	.p2align 3
.L359:
	movq	0(%rbp), %rax
	movq	%rbp, %rdi
	call	*16(%rax)
	movl	$-1, %eax
	lock xaddl	%eax, 12(%rbp)
.L350:
	cmpl	$1, %eax
	jne	.L303
	movq	0(%rbp), %rax
	movq	%rbp, %rdi
	call	*24(%rax)
	jmp	.L303
	.p2align 4,,10
	.p2align 3
.L361:
	movq	0(%rbp), %rax
	movq	%rbp, %rdi
	call	*16(%rax)
	movl	$-1, %eax
	lock xaddl	%eax, 12(%rbp)
.L352:
	cmpl	$1, %eax
	jne	.L315
	movq	0(%rbp), %rax
	movq	%rbp, %rdi
	call	*24(%rax)
	jmp	.L315
	.p2align 4,,10
	.p2align 3
.L362:
	movq	0(%rbp), %rax
	movq	%rbp, %rdi
	call	*16(%rax)
	movl	$-1, %eax
	lock xaddl	%eax, 12(%rbp)
.L353:
	cmpl	$1, %eax
	jne	.L321
	movq	0(%rbp), %rax
	movq	%rbp, %rdi
	call	*24(%rax)
	jmp	.L321
	.p2align 4,,10
	.p2align 3
.L363:
	movq	0(%rbp), %rax
	movq	%rbp, %rdi
	call	*16(%rax)
	movl	$-1, %eax
	lock xaddl	%eax, 12(%rbp)
.L354:
	cmpl	$1, %eax
	jne	.L327
	movq	0(%rbp), %rax
	movq	%rbp, %rdi
	call	*24(%rax)
	jmp	.L327
	.p2align 4,,10
	.p2align 3
.L364:
	movq	0(%rbp), %rax
	movq	%rbp, %rdi
	call	*16(%rax)
	movl	$-1, %eax
	lock xaddl	%eax, 12(%rbp)
.L355:
	cmpl	$1, %eax
	jne	.L333
	movq	0(%rbp), %rax
	movq	%rbp, %rdi
	call	*24(%rax)
	jmp	.L333
	.p2align 4,,10
	.p2align 3
.L358:
	movq	0(%rbp), %rax
	movq	%rbp, %rdi
	call	*16(%rax)
	movl	$-1, %eax
	lock xaddl	%eax, 12(%rbp)
.L349:
	cmpl	$1, %eax
	jne	.L297
	movq	0(%rbp), %rax
	movq	%rbp, %rdi
	call	*24(%rax)
	jmp	.L297
	.cfi_endproc
.LFE10526:
	.size	_ZThn48_N8asiodnp311LinkSessionD0Ev, .-_ZThn48_N8asiodnp311LinkSessionD0Ev
	.section	.text._ZN8asiodnp311LinkSessionD2Ev,"axG",@progbits,_ZN8asiodnp311LinkSessionD5Ev,comdat
	.p2align 4,,15
	.weak	_ZThn48_N8asiodnp311LinkSessionD1Ev
	.type	_ZThn48_N8asiodnp311LinkSessionD1Ev, @function
_ZThn48_N8asiodnp311LinkSessionD1Ev:
.LFB10530:
	.cfi_startproc
	pushq	%rbp
	.cfi_def_cfa_offset 16
	.cfi_offset 6, -16
	pushq	%rbx
	.cfi_def_cfa_offset 24
	.cfi_offset 3, -24
	movq	%rdi, %rbx
	subq	$8, %rsp
	.cfi_def_cfa_offset 32
	movq	_ZTVN8asiodnp311LinkSessionE@GOTPCREL(%rip), %rax
	movq	552(%rdi), %rbp
	leaq	16(%rax), %rdx
	movq	%rdx, -48(%rdi)
	leaq	96(%rax), %rdx
	movq	%rdx, -40(%rdi)
	leaq	144(%rax), %rdx
	movq	%rdx, -32(%rdi)
	leaq	184(%rax), %rdx
	addq	$224, %rax
	testq	%rbp, %rbp
	movq	%rax, (%rdi)
	movq	%rdx, -8(%rdi)
	je	.L369
	cmpq	$0, _ZL28__gthrw___pthread_key_createPjPFvPvE@GOTPCREL(%rip)
	je	.L370
	lock subl	$1, 8(%rbp)
	je	.L430
.L369:
	leaq	520(%rbx), %rdi
	call	_ZN7openpal8TimerRefD1Ev@PLT
	movq	128(%rbx), %rbp
	testq	%rbp, %rbp
	je	.L375
	cmpq	$0, _ZL28__gthrw___pthread_key_createPjPFvPvE@GOTPCREL(%rip)
	je	.L376
	lock subl	$1, 8(%rbp)
	je	.L431
.L375:
	movq	112(%rbx), %rbp
	testq	%rbp, %rbp
	je	.L381
	cmpq	$0, _ZL28__gthrw___pthread_key_createPjPFvPvE@GOTPCREL(%rip)
	je	.L382
	lock subl	$1, 8(%rbp)
	je	.L432
.L381:
	movq	96(%rbx), %rbp
	testq	%rbp, %rbp
	je	.L387
	cmpq	$0, _ZL28__gthrw___pthread_key_createPjPFvPvE@GOTPCREL(%rip)
	je	.L388
	lock subl	$1, 8(%rbp)
	je	.L433
.L387:
	movq	80(%rbx), %rbp
	testq	%rbp, %rbp
	je	.L393
	cmpq	$0, _ZL28__gthrw___pthread_key_createPjPFvPvE@GOTPCREL(%rip)
	je	.L394
	lock subl	$1, 8(%rbp)
	je	.L434
.L393:
	movq	64(%rbx), %rbp
	testq	%rbp, %rbp
	je	.L399
	cmpq	$0, _ZL28__gthrw___pthread_key_createPjPFvPvE@GOTPCREL(%rip)
	je	.L400
	lock subl	$1, 8(%rbp)
	je	.L435
.L399:
	movq	40(%rbx), %rbp
	testq	%rbp, %rbp
	je	.L405
	cmpq	$0, _ZL28__gthrw___pthread_key_createPjPFvPvE@GOTPCREL(%rip)
	je	.L406
	lock subl	$1, 8(%rbp)
	je	.L436
.L405:
	movq	24(%rbx), %rbp
	testq	%rbp, %rbp
	je	.L411
	cmpq	$0, _ZL28__gthrw___pthread_key_createPjPFvPvE@GOTPCREL(%rip)
	je	.L412
	lock subl	$1, 8(%rbp)
	je	.L437
.L411:
	movq	-16(%rbx), %rdi
	testq	%rdi, %rdi
	je	.L367
	cmpq	$0, _ZL28__gthrw___pthread_key_createPjPFvPvE@GOTPCREL(%rip)
	je	.L418
	movl	$-1, %eax
	lock xaddl	%eax, 12(%rdi)
	cmpl	$1, %eax
	je	.L438
.L367:
	addq	$8, %rsp
	.cfi_remember_state
	.cfi_def_cfa_offset 24
	popq	%rbx
	.cfi_def_cfa_offset 16
	popq	%rbp
	.cfi_def_cfa_offset 8
	ret
	.p2align 4,,10
	.p2align 3
.L412:
	.cfi_restore_state
	movl	8(%rbp), %eax
	leal	-1(%rax), %edx
	cmpl	$1, %eax
	movl	%edx, 8(%rbp)
	jne	.L411
	movq	0(%rbp), %rax
	movq	%rbp, %rdi
	call	*16(%rax)
	movl	12(%rbp), %eax
	leal	-1(%rax), %edx
	movl	%edx, 12(%rbp)
	jmp	.L428
	.p2align 4,,10
	.p2align 3
.L418:
	movl	12(%rdi), %eax
	leal	-1(%rax), %edx
	cmpl	$1, %eax
	movl	%edx, 12(%rdi)
	jne	.L367
.L438:
	movq	(%rdi), %rax
	movq	24(%rax), %rax
	addq	$8, %rsp
	.cfi_remember_state
	.cfi_def_cfa_offset 24
	popq	%rbx
	.cfi_def_cfa_offset 16
	popq	%rbp
	.cfi_def_cfa_offset 8
	jmp	*%rax
	.p2align 4,,10
	.p2align 3
.L382:
	.cfi_restore_state
	movl	8(%rbp), %eax
	leal	-1(%rax), %edx
	cmpl	$1, %eax
	movl	%edx, 8(%rbp)
	jne	.L381
	movq	0(%rbp), %rax
	movq	%rbp, %rdi
	call	*16(%rax)
	movl	12(%rbp), %eax
	leal	-1(%rax), %edx
	movl	%edx, 12(%rbp)
	jmp	.L423
	.p2align 4,,10
	.p2align 3
.L370:
	movl	8(%rbp), %eax
	leal	-1(%rax), %edx
	cmpl	$1, %eax
	movl	%edx, 8(%rbp)
	jne	.L369
	movq	0(%rbp), %rax
	movq	%rbp, %rdi
	call	*16(%rax)
	movl	12(%rbp), %eax
	leal	-1(%rax), %edx
	movl	%edx, 12(%rbp)
	jmp	.L421
	.p2align 4,,10
	.p2align 3
.L376:
	movl	8(%rbp), %eax
	leal	-1(%rax), %edx
	cmpl	$1, %eax
	movl	%edx, 8(%rbp)
	jne	.L375
	movq	0(%rbp), %rax
	movq	%rbp, %rdi
	call	*16(%rax)
	movl	12(%rbp), %eax
	leal	-1(%rax), %edx
	movl	%edx, 12(%rbp)
	jmp	.L422
	.p2align 4,,10
	.p2align 3
.L388:
	movl	8(%rbp), %eax
	leal	-1(%rax), %edx
	cmpl	$1, %eax
	movl	%edx, 8(%rbp)
	jne	.L387
	movq	0(%rbp), %rax
	movq	%rbp, %rdi
	call	*16(%rax)
	movl	12(%rbp), %eax
	leal	-1(%rax), %edx
	movl	%edx, 12(%rbp)
	jmp	.L424
	.p2align 4,,10
	.p2align 3
.L406:
	movl	8(%rbp), %eax
	leal	-1(%rax), %edx
	cmpl	$1, %eax
	movl	%edx, 8(%rbp)
	jne	.L405
	movq	0(%rbp), %rax
	movq	%rbp, %rdi
	call	*16(%rax)
	movl	12(%rbp), %eax
	leal	-1(%rax), %edx
	movl	%edx, 12(%rbp)
	jmp	.L427
	.p2align 4,,10
	.p2align 3
.L400:
	movl	8(%rbp), %eax
	leal	-1(%rax), %edx
	cmpl	$1, %eax
	movl	%edx, 8(%rbp)
	jne	.L399
	movq	0(%rbp), %rax
	movq	%rbp, %rdi
	call	*16(%rax)
	movl	12(%rbp), %eax
	leal	-1(%rax), %edx
	movl	%edx, 12(%rbp)
	jmp	.L426
	.p2align 4,,10
	.p2align 3
.L394:
	movl	8(%rbp), %eax
	leal	-1(%rax), %edx
	cmpl	$1, %eax
	movl	%edx, 8(%rbp)
	jne	.L393
	movq	0(%rbp), %rax
	movq	%rbp, %rdi
	call	*16(%rax)
	movl	12(%rbp), %eax
	leal	-1(%rax), %edx
	movl	%edx, 12(%rbp)
	jmp	.L425
	.p2align 4,,10
	.p2align 3
.L432:
	movq	0(%rbp), %rax
	movq	%rbp, %rdi
	call	*16(%rax)
	movl	$-1, %eax
	lock xaddl	%eax, 12(%rbp)
.L423:
	cmpl	$1, %eax
	jne	.L381
	movq	0(%rbp), %rax
	movq	%rbp, %rdi
	call	*24(%rax)
	jmp	.L381
	.p2align 4,,10
	.p2align 3
.L437:
	movq	0(%rbp), %rax
	movq	%rbp, %rdi
	call	*16(%rax)
	movl	$-1, %eax
	lock xaddl	%eax, 12(%rbp)
.L428:
	cmpl	$1, %eax
	jne	.L411
	movq	0(%rbp), %rax
	movq	%rbp, %rdi
	call	*24(%rax)
	jmp	.L411
	.p2align 4,,10
	.p2align 3
.L431:
	movq	0(%rbp), %rax
	movq	%rbp, %rdi
	call	*16(%rax)
	movl	$-1, %eax
	lock xaddl	%eax, 12(%rbp)
.L422:
	cmpl	$1, %eax
	jne	.L375
	movq	0(%rbp), %rax
	movq	%rbp, %rdi
	call	*24(%rax)
	jmp	.L375
	.p2align 4,,10
	.p2align 3
.L433:
	movq	0(%rbp), %rax
	movq	%rbp, %rdi
	call	*16(%rax)
	movl	$-1, %eax
	lock xaddl	%eax, 12(%rbp)
.L424:
	cmpl	$1, %eax
	jne	.L387
	movq	0(%rbp), %rax
	movq	%rbp, %rdi
	call	*24(%rax)
	jmp	.L387
	.p2align 4,,10
	.p2align 3
.L434:
	movq	0(%rbp), %rax
	movq	%rbp, %rdi
	call	*16(%rax)
	movl	$-1, %eax
	lock xaddl	%eax, 12(%rbp)
.L425:
	cmpl	$1, %eax
	jne	.L393
	movq	0(%rbp), %rax
	movq	%rbp, %rdi
	call	*24(%rax)
	jmp	.L393
	.p2align 4,,10
	.p2align 3
.L435:
	movq	0(%rbp), %rax
	movq	%rbp, %rdi
	call	*16(%rax)
	movl	$-1, %eax
	lock xaddl	%eax, 12(%rbp)
.L426:
	cmpl	$1, %eax
	jne	.L399
	movq	0(%rbp), %rax
	movq	%rbp, %rdi
	call	*24(%rax)
	jmp	.L399
	.p2align 4,,10
	.p2align 3
.L436:
	movq	0(%rbp), %rax
	movq	%rbp, %rdi
	call	*16(%rax)
	movl	$-1, %eax
	lock xaddl	%eax, 12(%rbp)
.L427:
	cmpl	$1, %eax
	jne	.L405
	movq	0(%rbp), %rax
	movq	%rbp, %rdi
	call	*24(%rax)
	jmp	.L405
	.p2align 4,,10
	.p2align 3
.L430:
	movq	0(%rbp), %rax
	movq	%rbp, %rdi
	call	*16(%rax)
	movl	$-1, %eax
	lock xaddl	%eax, 12(%rbp)
.L421:
	cmpl	$1, %eax
	jne	.L369
	movq	0(%rbp), %rax
	movq	%rbp, %rdi
	call	*24(%rax)
	jmp	.L369
	.cfi_endproc
.LFE10530:
	.size	_ZThn48_N8asiodnp311LinkSessionD1Ev, .-_ZThn48_N8asiodnp311LinkSessionD1Ev
	.p2align 4,,15
	.weak	_ZThn8_N8asiodnp311LinkSessionD1Ev
	.type	_ZThn8_N8asiodnp311LinkSessionD1Ev, @function
_ZThn8_N8asiodnp311LinkSessionD1Ev:
.LFB10533:
	.cfi_startproc
	pushq	%rbp
	.cfi_def_cfa_offset 16
	.cfi_offset 6, -16
	pushq	%rbx
	.cfi_def_cfa_offset 24
	.cfi_offset 3, -24
	movq	%rdi, %rbx
	subq	$8, %rsp
	.cfi_def_cfa_offset 32
	movq	_ZTVN8asiodnp311LinkSessionE@GOTPCREL(%rip), %rax
	movq	592(%rdi), %rbp
	leaq	16(%rax), %rdx
	movq	%rdx, -8(%rdi)
	leaq	96(%rax), %rdx
	movq	%rdx, (%rdi)
	leaq	144(%rax), %rdx
	movq	%rdx, 8(%rdi)
	leaq	184(%rax), %rdx
	addq	$224, %rax
	testq	%rbp, %rbp
	movq	%rax, 40(%rdi)
	movq	%rdx, 32(%rdi)
	je	.L441
	cmpq	$0, _ZL28__gthrw___pthread_key_createPjPFvPvE@GOTPCREL(%rip)
	je	.L442
	lock subl	$1, 8(%rbp)
	je	.L502
.L441:
	leaq	560(%rbx), %rdi
	call	_ZN7openpal8TimerRefD1Ev@PLT
	movq	168(%rbx), %rbp
	testq	%rbp, %rbp
	je	.L447
	cmpq	$0, _ZL28__gthrw___pthread_key_createPjPFvPvE@GOTPCREL(%rip)
	je	.L448
	lock subl	$1, 8(%rbp)
	je	.L503
.L447:
	movq	152(%rbx), %rbp
	testq	%rbp, %rbp
	je	.L453
	cmpq	$0, _ZL28__gthrw___pthread_key_createPjPFvPvE@GOTPCREL(%rip)
	je	.L454
	lock subl	$1, 8(%rbp)
	je	.L504
.L453:
	movq	136(%rbx), %rbp
	testq	%rbp, %rbp
	je	.L459
	cmpq	$0, _ZL28__gthrw___pthread_key_createPjPFvPvE@GOTPCREL(%rip)
	je	.L460
	lock subl	$1, 8(%rbp)
	je	.L505
.L459:
	movq	120(%rbx), %rbp
	testq	%rbp, %rbp
	je	.L465
	cmpq	$0, _ZL28__gthrw___pthread_key_createPjPFvPvE@GOTPCREL(%rip)
	je	.L466
	lock subl	$1, 8(%rbp)
	je	.L506
.L465:
	movq	104(%rbx), %rbp
	testq	%rbp, %rbp
	je	.L471
	cmpq	$0, _ZL28__gthrw___pthread_key_createPjPFvPvE@GOTPCREL(%rip)
	je	.L472
	lock subl	$1, 8(%rbp)
	je	.L507
.L471:
	movq	80(%rbx), %rbp
	testq	%rbp, %rbp
	je	.L477
	cmpq	$0, _ZL28__gthrw___pthread_key_createPjPFvPvE@GOTPCREL(%rip)
	je	.L478
	lock subl	$1, 8(%rbp)
	je	.L508
.L477:
	movq	64(%rbx), %rbp
	testq	%rbp, %rbp
	je	.L483
	cmpq	$0, _ZL28__gthrw___pthread_key_createPjPFvPvE@GOTPCREL(%rip)
	je	.L484
	lock subl	$1, 8(%rbp)
	je	.L509
.L483:
	movq	24(%rbx), %rdi
	testq	%rdi, %rdi
	je	.L439
	cmpq	$0, _ZL28__gthrw___pthread_key_createPjPFvPvE@GOTPCREL(%rip)
	je	.L490
	movl	$-1, %eax
	lock xaddl	%eax, 12(%rdi)
	cmpl	$1, %eax
	je	.L510
.L439:
	addq	$8, %rsp
	.cfi_remember_state
	.cfi_def_cfa_offset 24
	popq	%rbx
	.cfi_def_cfa_offset 16
	popq	%rbp
	.cfi_def_cfa_offset 8
	ret
	.p2align 4,,10
	.p2align 3
.L484:
	.cfi_restore_state
	movl	8(%rbp), %eax
	leal	-1(%rax), %edx
	cmpl	$1, %eax
	movl	%edx, 8(%rbp)
	jne	.L483
	movq	0(%rbp), %rax
	movq	%rbp, %rdi
	call	*16(%rax)
	movl	12(%rbp), %eax
	leal	-1(%rax), %edx
	movl	%edx, 12(%rbp)
	jmp	.L500
	.p2align 4,,10
	.p2align 3
.L490:
	movl	12(%rdi), %eax
	leal	-1(%rax), %edx
	cmpl	$1, %eax
	movl	%edx, 12(%rdi)
	jne	.L439
.L510:
	movq	(%rdi), %rax
	movq	24(%rax), %rax
	addq	$8, %rsp
	.cfi_remember_state
	.cfi_def_cfa_offset 24
	popq	%rbx
	.cfi_def_cfa_offset 16
	popq	%rbp
	.cfi_def_cfa_offset 8
	jmp	*%rax
	.p2align 4,,10
	.p2align 3
.L454:
	.cfi_restore_state
	movl	8(%rbp), %eax
	leal	-1(%rax), %edx
	cmpl	$1, %eax
	movl	%edx, 8(%rbp)
	jne	.L453
	movq	0(%rbp), %rax
	movq	%rbp, %rdi
	call	*16(%rax)
	movl	12(%rbp), %eax
	leal	-1(%rax), %edx
	movl	%edx, 12(%rbp)
	jmp	.L495
	.p2align 4,,10
	.p2align 3
.L442:
	movl	8(%rbp), %eax
	leal	-1(%rax), %edx
	cmpl	$1, %eax
	movl	%edx, 8(%rbp)
	jne	.L441
	movq	0(%rbp), %rax
	movq	%rbp, %rdi
	call	*16(%rax)
	movl	12(%rbp), %eax
	leal	-1(%rax), %edx
	movl	%edx, 12(%rbp)
	jmp	.L493
	.p2align 4,,10
	.p2align 3
.L448:
	movl	8(%rbp), %eax
	leal	-1(%rax), %edx
	cmpl	$1, %eax
	movl	%edx, 8(%rbp)
	jne	.L447
	movq	0(%rbp), %rax
	movq	%rbp, %rdi
	call	*16(%rax)
	movl	12(%rbp), %eax
	leal	-1(%rax), %edx
	movl	%edx, 12(%rbp)
	jmp	.L494
	.p2align 4,,10
	.p2align 3
.L460:
	movl	8(%rbp), %eax
	leal	-1(%rax), %edx
	cmpl	$1, %eax
	movl	%edx, 8(%rbp)
	jne	.L459
	movq	0(%rbp), %rax
	movq	%rbp, %rdi
	call	*16(%rax)
	movl	12(%rbp), %eax
	leal	-1(%rax), %edx
	movl	%edx, 12(%rbp)
	jmp	.L496
	.p2align 4,,10
	.p2align 3
.L478:
	movl	8(%rbp), %eax
	leal	-1(%rax), %edx
	cmpl	$1, %eax
	movl	%edx, 8(%rbp)
	jne	.L477
	movq	0(%rbp), %rax
	movq	%rbp, %rdi
	call	*16(%rax)
	movl	12(%rbp), %eax
	leal	-1(%rax), %edx
	movl	%edx, 12(%rbp)
	jmp	.L499
	.p2align 4,,10
	.p2align 3
.L472:
	movl	8(%rbp), %eax
	leal	-1(%rax), %edx
	cmpl	$1, %eax
	movl	%edx, 8(%rbp)
	jne	.L471
	movq	0(%rbp), %rax
	movq	%rbp, %rdi
	call	*16(%rax)
	movl	12(%rbp), %eax
	leal	-1(%rax), %edx
	movl	%edx, 12(%rbp)
	jmp	.L498
	.p2align 4,,10
	.p2align 3
.L466:
	movl	8(%rbp), %eax
	leal	-1(%rax), %edx
	cmpl	$1, %eax
	movl	%edx, 8(%rbp)
	jne	.L465
	movq	0(%rbp), %rax
	movq	%rbp, %rdi
	call	*16(%rax)
	movl	12(%rbp), %eax
	leal	-1(%rax), %edx
	movl	%edx, 12(%rbp)
	jmp	.L497
	.p2align 4,,10
	.p2align 3
.L504:
	movq	0(%rbp), %rax
	movq	%rbp, %rdi
	call	*16(%rax)
	movl	$-1, %eax
	lock xaddl	%eax, 12(%rbp)
.L495:
	cmpl	$1, %eax
	jne	.L453
	movq	0(%rbp), %rax
	movq	%rbp, %rdi
	call	*24(%rax)
	jmp	.L453
	.p2align 4,,10
	.p2align 3
.L509:
	movq	0(%rbp), %rax
	movq	%rbp, %rdi
	call	*16(%rax)
	movl	$-1, %eax
	lock xaddl	%eax, 12(%rbp)
.L500:
	cmpl	$1, %eax
	jne	.L483
	movq	0(%rbp), %rax
	movq	%rbp, %rdi
	call	*24(%rax)
	jmp	.L483
	.p2align 4,,10
	.p2align 3
.L503:
	movq	0(%rbp), %rax
	movq	%rbp, %rdi
	call	*16(%rax)
	movl	$-1, %eax
	lock xaddl	%eax, 12(%rbp)
.L494:
	cmpl	$1, %eax
	jne	.L447
	movq	0(%rbp), %rax
	movq	%rbp, %rdi
	call	*24(%rax)
	jmp	.L447
	.p2align 4,,10
	.p2align 3
.L505:
	movq	0(%rbp), %rax
	movq	%rbp, %rdi
	call	*16(%rax)
	movl	$-1, %eax
	lock xaddl	%eax, 12(%rbp)
.L496:
	cmpl	$1, %eax
	jne	.L459
	movq	0(%rbp), %rax
	movq	%rbp, %rdi
	call	*24(%rax)
	jmp	.L459
	.p2align 4,,10
	.p2align 3
.L506:
	movq	0(%rbp), %rax
	movq	%rbp, %rdi
	call	*16(%rax)
	movl	$-1, %eax
	lock xaddl	%eax, 12(%rbp)
.L497:
	cmpl	$1, %eax
	jne	.L465
	movq	0(%rbp), %rax
	movq	%rbp, %rdi
	call	*24(%rax)
	jmp	.L465
	.p2align 4,,10
	.p2align 3
.L507:
	movq	0(%rbp), %rax
	movq	%rbp, %rdi
	call	*16(%rax)
	movl	$-1, %eax
	lock xaddl	%eax, 12(%rbp)
.L498:
	cmpl	$1, %eax
	jne	.L471
	movq	0(%rbp), %rax
	movq	%rbp, %rdi
	call	*24(%rax)
	jmp	.L471
	.p2align 4,,10
	.p2align 3
.L508:
	movq	0(%rbp), %rax
	movq	%rbp, %rdi
	call	*16(%rax)
	movl	$-1, %eax
	lock xaddl	%eax, 12(%rbp)
.L499:
	cmpl	$1, %eax
	jne	.L477
	movq	0(%rbp), %rax
	movq	%rbp, %rdi
	call	*24(%rax)
	jmp	.L477
	.p2align 4,,10
	.p2align 3
.L502:
	movq	0(%rbp), %rax
	movq	%rbp, %rdi
	call	*16(%rax)
	movl	$-1, %eax
	lock xaddl	%eax, 12(%rbp)
.L493:
	cmpl	$1, %eax
	jne	.L441
	movq	0(%rbp), %rax
	movq	%rbp, %rdi
	call	*24(%rax)
	jmp	.L441
	.cfi_endproc
.LFE10533:
	.size	_ZThn8_N8asiodnp311LinkSessionD1Ev, .-_ZThn8_N8asiodnp311LinkSessionD1Ev
	.p2align 4,,15
	.weak	_ZThn16_N8asiodnp311LinkSessionD1Ev
	.type	_ZThn16_N8asiodnp311LinkSessionD1Ev, @function
_ZThn16_N8asiodnp311LinkSessionD1Ev:
.LFB10531:
	.cfi_startproc
	pushq	%rbp
	.cfi_def_cfa_offset 16
	.cfi_offset 6, -16
	pushq	%rbx
	.cfi_def_cfa_offset 24
	.cfi_offset 3, -24
	movq	%rdi, %rbx
	subq	$8, %rsp
	.cfi_def_cfa_offset 32
	movq	_ZTVN8asiodnp311LinkSessionE@GOTPCREL(%rip), %rax
	movq	584(%rdi), %rbp
	leaq	16(%rax), %rdx
	movq	%rdx, -16(%rdi)
	leaq	96(%rax), %rdx
	movq	%rdx, -8(%rdi)
	leaq	144(%rax), %rdx
	movq	%rdx, (%rdi)
	leaq	184(%rax), %rdx
	addq	$224, %rax
	testq	%rbp, %rbp
	movq	%rax, 32(%rdi)
	movq	%rdx, 24(%rdi)
	je	.L513
	cmpq	$0, _ZL28__gthrw___pthread_key_createPjPFvPvE@GOTPCREL(%rip)
	je	.L514
	lock subl	$1, 8(%rbp)
	je	.L574
.L513:
	leaq	552(%rbx), %rdi
	call	_ZN7openpal8TimerRefD1Ev@PLT
	movq	160(%rbx), %rbp
	testq	%rbp, %rbp
	je	.L519
	cmpq	$0, _ZL28__gthrw___pthread_key_createPjPFvPvE@GOTPCREL(%rip)
	je	.L520
	lock subl	$1, 8(%rbp)
	je	.L575
.L519:
	movq	144(%rbx), %rbp
	testq	%rbp, %rbp
	je	.L525
	cmpq	$0, _ZL28__gthrw___pthread_key_createPjPFvPvE@GOTPCREL(%rip)
	je	.L526
	lock subl	$1, 8(%rbp)
	je	.L576
.L525:
	movq	128(%rbx), %rbp
	testq	%rbp, %rbp
	je	.L531
	cmpq	$0, _ZL28__gthrw___pthread_key_createPjPFvPvE@GOTPCREL(%rip)
	je	.L532
	lock subl	$1, 8(%rbp)
	je	.L577
.L531:
	movq	112(%rbx), %rbp
	testq	%rbp, %rbp
	je	.L537
	cmpq	$0, _ZL28__gthrw___pthread_key_createPjPFvPvE@GOTPCREL(%rip)
	je	.L538
	lock subl	$1, 8(%rbp)
	je	.L578
.L537:
	movq	96(%rbx), %rbp
	testq	%rbp, %rbp
	je	.L543
	cmpq	$0, _ZL28__gthrw___pthread_key_createPjPFvPvE@GOTPCREL(%rip)
	je	.L544
	lock subl	$1, 8(%rbp)
	je	.L579
.L543:
	movq	72(%rbx), %rbp
	testq	%rbp, %rbp
	je	.L549
	cmpq	$0, _ZL28__gthrw___pthread_key_createPjPFvPvE@GOTPCREL(%rip)
	je	.L550
	lock subl	$1, 8(%rbp)
	je	.L580
.L549:
	movq	56(%rbx), %rbp
	testq	%rbp, %rbp
	je	.L555
	cmpq	$0, _ZL28__gthrw___pthread_key_createPjPFvPvE@GOTPCREL(%rip)
	je	.L556
	lock subl	$1, 8(%rbp)
	je	.L581
.L555:
	movq	16(%rbx), %rdi
	testq	%rdi, %rdi
	je	.L511
	cmpq	$0, _ZL28__gthrw___pthread_key_createPjPFvPvE@GOTPCREL(%rip)
	je	.L562
	movl	$-1, %eax
	lock xaddl	%eax, 12(%rdi)
	cmpl	$1, %eax
	je	.L582
.L511:
	addq	$8, %rsp
	.cfi_remember_state
	.cfi_def_cfa_offset 24
	popq	%rbx
	.cfi_def_cfa_offset 16
	popq	%rbp
	.cfi_def_cfa_offset 8
	ret
	.p2align 4,,10
	.p2align 3
.L556:
	.cfi_restore_state
	movl	8(%rbp), %eax
	leal	-1(%rax), %edx
	cmpl	$1, %eax
	movl	%edx, 8(%rbp)
	jne	.L555
	movq	0(%rbp), %rax
	movq	%rbp, %rdi
	call	*16(%rax)
	movl	12(%rbp), %eax
	leal	-1(%rax), %edx
	movl	%edx, 12(%rbp)
	jmp	.L572
	.p2align 4,,10
	.p2align 3
.L562:
	movl	12(%rdi), %eax
	leal	-1(%rax), %edx
	cmpl	$1, %eax
	movl	%edx, 12(%rdi)
	jne	.L511
.L582:
	movq	(%rdi), %rax
	movq	24(%rax), %rax
	addq	$8, %rsp
	.cfi_remember_state
	.cfi_def_cfa_offset 24
	popq	%rbx
	.cfi_def_cfa_offset 16
	popq	%rbp
	.cfi_def_cfa_offset 8
	jmp	*%rax
	.p2align 4,,10
	.p2align 3
.L526:
	.cfi_restore_state
	movl	8(%rbp), %eax
	leal	-1(%rax), %edx
	cmpl	$1, %eax
	movl	%edx, 8(%rbp)
	jne	.L525
	movq	0(%rbp), %rax
	movq	%rbp, %rdi
	call	*16(%rax)
	movl	12(%rbp), %eax
	leal	-1(%rax), %edx
	movl	%edx, 12(%rbp)
	jmp	.L567
	.p2align 4,,10
	.p2align 3
.L514:
	movl	8(%rbp), %eax
	leal	-1(%rax), %edx
	cmpl	$1, %eax
	movl	%edx, 8(%rbp)
	jne	.L513
	movq	0(%rbp), %rax
	movq	%rbp, %rdi
	call	*16(%rax)
	movl	12(%rbp), %eax
	leal	-1(%rax), %edx
	movl	%edx, 12(%rbp)
	jmp	.L565
	.p2align 4,,10
	.p2align 3
.L520:
	movl	8(%rbp), %eax
	leal	-1(%rax), %edx
	cmpl	$1, %eax
	movl	%edx, 8(%rbp)
	jne	.L519
	movq	0(%rbp), %rax
	movq	%rbp, %rdi
	call	*16(%rax)
	movl	12(%rbp), %eax
	leal	-1(%rax), %edx
	movl	%edx, 12(%rbp)
	jmp	.L566
	.p2align 4,,10
	.p2align 3
.L532:
	movl	8(%rbp), %eax
	leal	-1(%rax), %edx
	cmpl	$1, %eax
	movl	%edx, 8(%rbp)
	jne	.L531
	movq	0(%rbp), %rax
	movq	%rbp, %rdi
	call	*16(%rax)
	movl	12(%rbp), %eax
	leal	-1(%rax), %edx
	movl	%edx, 12(%rbp)
	jmp	.L568
	.p2align 4,,10
	.p2align 3
.L550:
	movl	8(%rbp), %eax
	leal	-1(%rax), %edx
	cmpl	$1, %eax
	movl	%edx, 8(%rbp)
	jne	.L549
	movq	0(%rbp), %rax
	movq	%rbp, %rdi
	call	*16(%rax)
	movl	12(%rbp), %eax
	leal	-1(%rax), %edx
	movl	%edx, 12(%rbp)
	jmp	.L571
	.p2align 4,,10
	.p2align 3
.L544:
	movl	8(%rbp), %eax
	leal	-1(%rax), %edx
	cmpl	$1, %eax
	movl	%edx, 8(%rbp)
	jne	.L543
	movq	0(%rbp), %rax
	movq	%rbp, %rdi
	call	*16(%rax)
	movl	12(%rbp), %eax
	leal	-1(%rax), %edx
	movl	%edx, 12(%rbp)
	jmp	.L570
	.p2align 4,,10
	.p2align 3
.L538:
	movl	8(%rbp), %eax
	leal	-1(%rax), %edx
	cmpl	$1, %eax
	movl	%edx, 8(%rbp)
	jne	.L537
	movq	0(%rbp), %rax
	movq	%rbp, %rdi
	call	*16(%rax)
	movl	12(%rbp), %eax
	leal	-1(%rax), %edx
	movl	%edx, 12(%rbp)
	jmp	.L569
	.p2align 4,,10
	.p2align 3
.L576:
	movq	0(%rbp), %rax
	movq	%rbp, %rdi
	call	*16(%rax)
	movl	$-1, %eax
	lock xaddl	%eax, 12(%rbp)
.L567:
	cmpl	$1, %eax
	jne	.L525
	movq	0(%rbp), %rax
	movq	%rbp, %rdi
	call	*24(%rax)
	jmp	.L525
	.p2align 4,,10
	.p2align 3
.L581:
	movq	0(%rbp), %rax
	movq	%rbp, %rdi
	call	*16(%rax)
	movl	$-1, %eax
	lock xaddl	%eax, 12(%rbp)
.L572:
	cmpl	$1, %eax
	jne	.L555
	movq	0(%rbp), %rax
	movq	%rbp, %rdi
	call	*24(%rax)
	jmp	.L555
	.p2align 4,,10
	.p2align 3
.L575:
	movq	0(%rbp), %rax
	movq	%rbp, %rdi
	call	*16(%rax)
	movl	$-1, %eax
	lock xaddl	%eax, 12(%rbp)
.L566:
	cmpl	$1, %eax
	jne	.L519
	movq	0(%rbp), %rax
	movq	%rbp, %rdi
	call	*24(%rax)
	jmp	.L519
	.p2align 4,,10
	.p2align 3
.L577:
	movq	0(%rbp), %rax
	movq	%rbp, %rdi
	call	*16(%rax)
	movl	$-1, %eax
	lock xaddl	%eax, 12(%rbp)
.L568:
	cmpl	$1, %eax
	jne	.L531
	movq	0(%rbp), %rax
	movq	%rbp, %rdi
	call	*24(%rax)
	jmp	.L531
	.p2align 4,,10
	.p2align 3
.L578:
	movq	0(%rbp), %rax
	movq	%rbp, %rdi
	call	*16(%rax)
	movl	$-1, %eax
	lock xaddl	%eax, 12(%rbp)
.L569:
	cmpl	$1, %eax
	jne	.L537
	movq	0(%rbp), %rax
	movq	%rbp, %rdi
	call	*24(%rax)
	jmp	.L537
	.p2align 4,,10
	.p2align 3
.L579:
	movq	0(%rbp), %rax
	movq	%rbp, %rdi
	call	*16(%rax)
	movl	$-1, %eax
	lock xaddl	%eax, 12(%rbp)
.L570:
	cmpl	$1, %eax
	jne	.L543
	movq	0(%rbp), %rax
	movq	%rbp, %rdi
	call	*24(%rax)
	jmp	.L543
	.p2align 4,,10
	.p2align 3
.L580:
	movq	0(%rbp), %rax
	movq	%rbp, %rdi
	call	*16(%rax)
	movl	$-1, %eax
	lock xaddl	%eax, 12(%rbp)
.L571:
	cmpl	$1, %eax
	jne	.L549
	movq	0(%rbp), %rax
	movq	%rbp, %rdi
	call	*24(%rax)
	jmp	.L549
	.p2align 4,,10
	.p2align 3
.L574:
	movq	0(%rbp), %rax
	movq	%rbp, %rdi
	call	*16(%rax)
	movl	$-1, %eax
	lock xaddl	%eax, 12(%rbp)
.L565:
	cmpl	$1, %eax
	jne	.L513
	movq	0(%rbp), %rax
	movq	%rbp, %rdi
	call	*24(%rax)
	jmp	.L513
	.cfi_endproc
.LFE10531:
	.size	_ZThn16_N8asiodnp311LinkSessionD1Ev, .-_ZThn16_N8asiodnp311LinkSessionD1Ev
	.section	.text._ZN8asiodnp311LinkSessionD0Ev,"axG",@progbits,_ZN8asiodnp311LinkSessionD5Ev,comdat
	.p2align 4,,15
	.weak	_ZThn40_N8asiodnp311LinkSessionD0Ev
	.type	_ZThn40_N8asiodnp311LinkSessionD0Ev, @function
_ZThn40_N8asiodnp311LinkSessionD0Ev:
.LFB10527:
	.cfi_startproc
	movq	_ZTVN8asiodnp311LinkSessionE@GOTPCREL(%rip), %rax
	pushq	%r12
	.cfi_def_cfa_offset 16
	.cfi_offset 12, -16
	leaq	-40(%rdi), %r12
	pushq	%rbp
	.cfi_def_cfa_offset 24
	.cfi_offset 6, -24
	pushq	%rbx
	.cfi_def_cfa_offset 32
	.cfi_offset 3, -32
	movq	%rdi, %rbx
	movq	560(%rdi), %rbp
	leaq	16(%rax), %rdx
	movq	%rdx, -40(%rdi)
	leaq	96(%rax), %rdx
	movq	%rdx, -32(%rdi)
	leaq	144(%rax), %rdx
	movq	%rdx, -24(%rdi)
	leaq	184(%rax), %rdx
	addq	$224, %rax
	testq	%rbp, %rbp
	movq	%rax, 8(%rdi)
	movq	%rdx, (%rdi)
	je	.L585
	cmpq	$0, _ZL28__gthrw___pthread_key_createPjPFvPvE@GOTPCREL(%rip)
	je	.L586
	lock subl	$1, 8(%rbp)
	je	.L646
.L585:
	leaq	528(%rbx), %rdi
	call	_ZN7openpal8TimerRefD1Ev@PLT
	movq	136(%rbx), %rbp
	testq	%rbp, %rbp
	je	.L591
	cmpq	$0, _ZL28__gthrw___pthread_key_createPjPFvPvE@GOTPCREL(%rip)
	je	.L592
	lock subl	$1, 8(%rbp)
	je	.L647
.L591:
	movq	120(%rbx), %rbp
	testq	%rbp, %rbp
	je	.L597
	cmpq	$0, _ZL28__gthrw___pthread_key_createPjPFvPvE@GOTPCREL(%rip)
	je	.L598
	lock subl	$1, 8(%rbp)
	je	.L648
.L597:
	movq	104(%rbx), %rbp
	testq	%rbp, %rbp
	je	.L603
	cmpq	$0, _ZL28__gthrw___pthread_key_createPjPFvPvE@GOTPCREL(%rip)
	je	.L604
	lock subl	$1, 8(%rbp)
	je	.L649
.L603:
	movq	88(%rbx), %rbp
	testq	%rbp, %rbp
	je	.L609
	cmpq	$0, _ZL28__gthrw___pthread_key_createPjPFvPvE@GOTPCREL(%rip)
	je	.L610
	lock subl	$1, 8(%rbp)
	je	.L650
.L609:
	movq	72(%rbx), %rbp
	testq	%rbp, %rbp
	je	.L615
	cmpq	$0, _ZL28__gthrw___pthread_key_createPjPFvPvE@GOTPCREL(%rip)
	je	.L616
	lock subl	$1, 8(%rbp)
	je	.L651
.L615:
	movq	48(%rbx), %rbp
	testq	%rbp, %rbp
	je	.L621
	cmpq	$0, _ZL28__gthrw___pthread_key_createPjPFvPvE@GOTPCREL(%rip)
	je	.L622
	lock subl	$1, 8(%rbp)
	je	.L652
.L621:
	movq	32(%rbx), %rbp
	testq	%rbp, %rbp
	je	.L627
	cmpq	$0, _ZL28__gthrw___pthread_key_createPjPFvPvE@GOTPCREL(%rip)
	je	.L628
	lock subl	$1, 8(%rbp)
	je	.L653
.L627:
	movq	-8(%rbx), %rdi
	testq	%rdi, %rdi
	je	.L633
	cmpq	$0, _ZL28__gthrw___pthread_key_createPjPFvPvE@GOTPCREL(%rip)
	je	.L634
	movl	$-1, %eax
	lock xaddl	%eax, 12(%rdi)
	cmpl	$1, %eax
	je	.L654
.L633:
	popq	%rbx
	.cfi_remember_state
	.cfi_def_cfa_offset 24
	movq	%r12, %rdi
	movl	$608, %esi
	popq	%rbp
	.cfi_def_cfa_offset 16
	popq	%r12
	.cfi_def_cfa_offset 8
	jmp	_ZdlPvm@PLT
	.p2align 4,,10
	.p2align 3
.L628:
	.cfi_restore_state
	movl	8(%rbp), %eax
	leal	-1(%rax), %edx
	cmpl	$1, %eax
	movl	%edx, 8(%rbp)
	jne	.L627
	movq	0(%rbp), %rax
	movq	%rbp, %rdi
	call	*16(%rax)
	movl	12(%rbp), %eax
	leal	-1(%rax), %edx
	movl	%edx, 12(%rbp)
	jmp	.L644
	.p2align 4,,10
	.p2align 3
.L634:
	movl	12(%rdi), %eax
	leal	-1(%rax), %edx
	cmpl	$1, %eax
	movl	%edx, 12(%rdi)
	jne	.L633
.L654:
	movq	(%rdi), %rax
	call	*24(%rax)
	jmp	.L633
	.p2align 4,,10
	.p2align 3
.L598:
	movl	8(%rbp), %eax
	leal	-1(%rax), %edx
	cmpl	$1, %eax
	movl	%edx, 8(%rbp)
	jne	.L597
	movq	0(%rbp), %rax
	movq	%rbp, %rdi
	call	*16(%rax)
	movl	12(%rbp), %eax
	leal	-1(%rax), %edx
	movl	%edx, 12(%rbp)
	jmp	.L639
	.p2align 4,,10
	.p2align 3
.L586:
	movl	8(%rbp), %eax
	leal	-1(%rax), %edx
	cmpl	$1, %eax
	movl	%edx, 8(%rbp)
	jne	.L585
	movq	0(%rbp), %rax
	movq	%rbp, %rdi
	call	*16(%rax)
	movl	12(%rbp), %eax
	leal	-1(%rax), %edx
	movl	%edx, 12(%rbp)
	jmp	.L637
	.p2align 4,,10
	.p2align 3
.L592:
	movl	8(%rbp), %eax
	leal	-1(%rax), %edx
	cmpl	$1, %eax
	movl	%edx, 8(%rbp)
	jne	.L591
	movq	0(%rbp), %rax
	movq	%rbp, %rdi
	call	*16(%rax)
	movl	12(%rbp), %eax
	leal	-1(%rax), %edx
	movl	%edx, 12(%rbp)
	jmp	.L638
	.p2align 4,,10
	.p2align 3
.L604:
	movl	8(%rbp), %eax
	leal	-1(%rax), %edx
	cmpl	$1, %eax
	movl	%edx, 8(%rbp)
	jne	.L603
	movq	0(%rbp), %rax
	movq	%rbp, %rdi
	call	*16(%rax)
	movl	12(%rbp), %eax
	leal	-1(%rax), %edx
	movl	%edx, 12(%rbp)
	jmp	.L640
	.p2align 4,,10
	.p2align 3
.L622:
	movl	8(%rbp), %eax
	leal	-1(%rax), %edx
	cmpl	$1, %eax
	movl	%edx, 8(%rbp)
	jne	.L621
	movq	0(%rbp), %rax
	movq	%rbp, %rdi
	call	*16(%rax)
	movl	12(%rbp), %eax
	leal	-1(%rax), %edx
	movl	%edx, 12(%rbp)
	jmp	.L643
	.p2align 4,,10
	.p2align 3
.L616:
	movl	8(%rbp), %eax
	leal	-1(%rax), %edx
	cmpl	$1, %eax
	movl	%edx, 8(%rbp)
	jne	.L615
	movq	0(%rbp), %rax
	movq	%rbp, %rdi
	call	*16(%rax)
	movl	12(%rbp), %eax
	leal	-1(%rax), %edx
	movl	%edx, 12(%rbp)
	jmp	.L642
	.p2align 4,,10
	.p2align 3
.L610:
	movl	8(%rbp), %eax
	leal	-1(%rax), %edx
	cmpl	$1, %eax
	movl	%edx, 8(%rbp)
	jne	.L609
	movq	0(%rbp), %rax
	movq	%rbp, %rdi
	call	*16(%rax)
	movl	12(%rbp), %eax
	leal	-1(%rax), %edx
	movl	%edx, 12(%rbp)
	jmp	.L641
	.p2align 4,,10
	.p2align 3
.L648:
	movq	0(%rbp), %rax
	movq	%rbp, %rdi
	call	*16(%rax)
	movl	$-1, %eax
	lock xaddl	%eax, 12(%rbp)
.L639:
	cmpl	$1, %eax
	jne	.L597
	movq	0(%rbp), %rax
	movq	%rbp, %rdi
	call	*24(%rax)
	jmp	.L597
	.p2align 4,,10
	.p2align 3
.L653:
	movq	0(%rbp), %rax
	movq	%rbp, %rdi
	call	*16(%rax)
	movl	$-1, %eax
	lock xaddl	%eax, 12(%rbp)
.L644:
	cmpl	$1, %eax
	jne	.L627
	movq	0(%rbp), %rax
	movq	%rbp, %rdi
	call	*24(%rax)
	jmp	.L627
	.p2align 4,,10
	.p2align 3
.L647:
	movq	0(%rbp), %rax
	movq	%rbp, %rdi
	call	*16(%rax)
	movl	$-1, %eax
	lock xaddl	%eax, 12(%rbp)
.L638:
	cmpl	$1, %eax
	jne	.L591
	movq	0(%rbp), %rax
	movq	%rbp, %rdi
	call	*24(%rax)
	jmp	.L591
	.p2align 4,,10
	.p2align 3
.L649:
	movq	0(%rbp), %rax
	movq	%rbp, %rdi
	call	*16(%rax)
	movl	$-1, %eax
	lock xaddl	%eax, 12(%rbp)
.L640:
	cmpl	$1, %eax
	jne	.L603
	movq	0(%rbp), %rax
	movq	%rbp, %rdi
	call	*24(%rax)
	jmp	.L603
	.p2align 4,,10
	.p2align 3
.L650:
	movq	0(%rbp), %rax
	movq	%rbp, %rdi
	call	*16(%rax)
	movl	$-1, %eax
	lock xaddl	%eax, 12(%rbp)
.L641:
	cmpl	$1, %eax
	jne	.L609
	movq	0(%rbp), %rax
	movq	%rbp, %rdi
	call	*24(%rax)
	jmp	.L609
	.p2align 4,,10
	.p2align 3
.L651:
	movq	0(%rbp), %rax
	movq	%rbp, %rdi
	call	*16(%rax)
	movl	$-1, %eax
	lock xaddl	%eax, 12(%rbp)
.L642:
	cmpl	$1, %eax
	jne	.L615
	movq	0(%rbp), %rax
	movq	%rbp, %rdi
	call	*24(%rax)
	jmp	.L615
	.p2align 4,,10
	.p2align 3
.L652:
	movq	0(%rbp), %rax
	movq	%rbp, %rdi
	call	*16(%rax)
	movl	$-1, %eax
	lock xaddl	%eax, 12(%rbp)
.L643:
	cmpl	$1, %eax
	jne	.L621
	movq	0(%rbp), %rax
	movq	%rbp, %rdi
	call	*24(%rax)
	jmp	.L621
	.p2align 4,,10
	.p2align 3
.L646:
	movq	0(%rbp), %rax
	movq	%rbp, %rdi
	call	*16(%rax)
	movl	$-1, %eax
	lock xaddl	%eax, 12(%rbp)
.L637:
	cmpl	$1, %eax
	jne	.L585
	movq	0(%rbp), %rax
	movq	%rbp, %rdi
	call	*24(%rax)
	jmp	.L585
	.cfi_endproc
.LFE10527:
	.size	_ZThn40_N8asiodnp311LinkSessionD0Ev, .-_ZThn40_N8asiodnp311LinkSessionD0Ev
	.align 2
	.p2align 4,,15
	.weak	_ZN8asiodnp311LinkSessionD0Ev
	.type	_ZN8asiodnp311LinkSessionD0Ev, @function
_ZN8asiodnp311LinkSessionD0Ev:
.LFB10222:
	.cfi_startproc
	pushq	%rbp
	.cfi_def_cfa_offset 16
	.cfi_offset 6, -16
	pushq	%rbx
	.cfi_def_cfa_offset 24
	.cfi_offset 3, -24
	movq	%rdi, %rbx
	subq	$8, %rsp
	.cfi_def_cfa_offset 32
	movq	_ZTVN8asiodnp311LinkSessionE@GOTPCREL(%rip), %rax
	movq	600(%rdi), %rbp
	leaq	16(%rax), %rdx
	movq	%rdx, (%rdi)
	leaq	96(%rax), %rdx
	movq	%rdx, 8(%rdi)
	leaq	144(%rax), %rdx
	movq	%rdx, 16(%rdi)
	leaq	184(%rax), %rdx
	addq	$224, %rax
	testq	%rbp, %rbp
	movq	%rax, 48(%rdi)
	movq	%rdx, 40(%rdi)
	je	.L657
	cmpq	$0, _ZL28__gthrw___pthread_key_createPjPFvPvE@GOTPCREL(%rip)
	je	.L658
	lock subl	$1, 8(%rbp)
	je	.L718
.L657:
	leaq	568(%rbx), %rdi
	call	_ZN7openpal8TimerRefD1Ev@PLT
	movq	176(%rbx), %rbp
	testq	%rbp, %rbp
	je	.L663
	cmpq	$0, _ZL28__gthrw___pthread_key_createPjPFvPvE@GOTPCREL(%rip)
	je	.L664
	lock subl	$1, 8(%rbp)
	je	.L719
.L663:
	movq	160(%rbx), %rbp
	testq	%rbp, %rbp
	je	.L669
	cmpq	$0, _ZL28__gthrw___pthread_key_createPjPFvPvE@GOTPCREL(%rip)
	je	.L670
	lock subl	$1, 8(%rbp)
	je	.L720
.L669:
	movq	144(%rbx), %rbp
	testq	%rbp, %rbp
	je	.L675
	cmpq	$0, _ZL28__gthrw___pthread_key_createPjPFvPvE@GOTPCREL(%rip)
	je	.L676
	lock subl	$1, 8(%rbp)
	je	.L721
.L675:
	movq	128(%rbx), %rbp
	testq	%rbp, %rbp
	je	.L681
	cmpq	$0, _ZL28__gthrw___pthread_key_createPjPFvPvE@GOTPCREL(%rip)
	je	.L682
	lock subl	$1, 8(%rbp)
	je	.L722
.L681:
	movq	112(%rbx), %rbp
	testq	%rbp, %rbp
	je	.L687
	cmpq	$0, _ZL28__gthrw___pthread_key_createPjPFvPvE@GOTPCREL(%rip)
	je	.L688
	lock subl	$1, 8(%rbp)
	je	.L723
.L687:
	movq	88(%rbx), %rbp
	testq	%rbp, %rbp
	je	.L693
	cmpq	$0, _ZL28__gthrw___pthread_key_createPjPFvPvE@GOTPCREL(%rip)
	je	.L694
	lock subl	$1, 8(%rbp)
	je	.L724
.L693:
	movq	72(%rbx), %rbp
	testq	%rbp, %rbp
	je	.L699
	cmpq	$0, _ZL28__gthrw___pthread_key_createPjPFvPvE@GOTPCREL(%rip)
	je	.L700
	lock subl	$1, 8(%rbp)
	je	.L725
.L699:
	movq	32(%rbx), %rdi
	testq	%rdi, %rdi
	je	.L705
	cmpq	$0, _ZL28__gthrw___pthread_key_createPjPFvPvE@GOTPCREL(%rip)
	je	.L706
	movl	$-1, %eax
	lock xaddl	%eax, 12(%rdi)
	cmpl	$1, %eax
	je	.L726
.L705:
	addq	$8, %rsp
	.cfi_remember_state
	.cfi_def_cfa_offset 24
	movq	%rbx, %rdi
	movl	$608, %esi
	popq	%rbx
	.cfi_def_cfa_offset 16
	popq	%rbp
	.cfi_def_cfa_offset 8
	jmp	_ZdlPvm@PLT
	.p2align 4,,10
	.p2align 3
.L700:
	.cfi_restore_state
	movl	8(%rbp), %eax
	leal	-1(%rax), %edx
	cmpl	$1, %eax
	movl	%edx, 8(%rbp)
	jne	.L699
	movq	0(%rbp), %rax
	movq	%rbp, %rdi
	call	*16(%rax)
	movl	12(%rbp), %eax
	leal	-1(%rax), %edx
	movl	%edx, 12(%rbp)
	jmp	.L716
	.p2align 4,,10
	.p2align 3
.L706:
	movl	12(%rdi), %eax
	leal	-1(%rax), %edx
	cmpl	$1, %eax
	movl	%edx, 12(%rdi)
	jne	.L705
.L726:
	movq	(%rdi), %rax
	call	*24(%rax)
	jmp	.L705
	.p2align 4,,10
	.p2align 3
.L670:
	movl	8(%rbp), %eax
	leal	-1(%rax), %edx
	cmpl	$1, %eax
	movl	%edx, 8(%rbp)
	jne	.L669
	movq	0(%rbp), %rax
	movq	%rbp, %rdi
	call	*16(%rax)
	movl	12(%rbp), %eax
	leal	-1(%rax), %edx
	movl	%edx, 12(%rbp)
	jmp	.L711
	.p2align 4,,10
	.p2align 3
.L658:
	movl	8(%rbp), %eax
	leal	-1(%rax), %edx
	cmpl	$1, %eax
	movl	%edx, 8(%rbp)
	jne	.L657
	movq	0(%rbp), %rax
	movq	%rbp, %rdi
	call	*16(%rax)
	movl	12(%rbp), %eax
	leal	-1(%rax), %edx
	movl	%edx, 12(%rbp)
	jmp	.L709
	.p2align 4,,10
	.p2align 3
.L664:
	movl	8(%rbp), %eax
	leal	-1(%rax), %edx
	cmpl	$1, %eax
	movl	%edx, 8(%rbp)
	jne	.L663
	movq	0(%rbp), %rax
	movq	%rbp, %rdi
	call	*16(%rax)
	movl	12(%rbp), %eax
	leal	-1(%rax), %edx
	movl	%edx, 12(%rbp)
	jmp	.L710
	.p2align 4,,10
	.p2align 3
.L676:
	movl	8(%rbp), %eax
	leal	-1(%rax), %edx
	cmpl	$1, %eax
	movl	%edx, 8(%rbp)
	jne	.L675
	movq	0(%rbp), %rax
	movq	%rbp, %rdi
	call	*16(%rax)
	movl	12(%rbp), %eax
	leal	-1(%rax), %edx
	movl	%edx, 12(%rbp)
	jmp	.L712
	.p2align 4,,10
	.p2align 3
.L694:
	movl	8(%rbp), %eax
	leal	-1(%rax), %edx
	cmpl	$1, %eax
	movl	%edx, 8(%rbp)
	jne	.L693
	movq	0(%rbp), %rax
	movq	%rbp, %rdi
	call	*16(%rax)
	movl	12(%rbp), %eax
	leal	-1(%rax), %edx
	movl	%edx, 12(%rbp)
	jmp	.L715
	.p2align 4,,10
	.p2align 3
.L688:
	movl	8(%rbp), %eax
	leal	-1(%rax), %edx
	cmpl	$1, %eax
	movl	%edx, 8(%rbp)
	jne	.L687
	movq	0(%rbp), %rax
	movq	%rbp, %rdi
	call	*16(%rax)
	movl	12(%rbp), %eax
	leal	-1(%rax), %edx
	movl	%edx, 12(%rbp)
	jmp	.L714
	.p2align 4,,10
	.p2align 3
.L682:
	movl	8(%rbp), %eax
	leal	-1(%rax), %edx
	cmpl	$1, %eax
	movl	%edx, 8(%rbp)
	jne	.L681
	movq	0(%rbp), %rax
	movq	%rbp, %rdi
	call	*16(%rax)
	movl	12(%rbp), %eax
	leal	-1(%rax), %edx
	movl	%edx, 12(%rbp)
	jmp	.L713
	.p2align 4,,10
	.p2align 3
.L720:
	movq	0(%rbp), %rax
	movq	%rbp, %rdi
	call	*16(%rax)
	movl	$-1, %eax
	lock xaddl	%eax, 12(%rbp)
.L711:
	cmpl	$1, %eax
	jne	.L669
	movq	0(%rbp), %rax
	movq	%rbp, %rdi
	call	*24(%rax)
	jmp	.L669
	.p2align 4,,10
	.p2align 3
.L725:
	movq	0(%rbp), %rax
	movq	%rbp, %rdi
	call	*16(%rax)
	movl	$-1, %eax
	lock xaddl	%eax, 12(%rbp)
.L716:
	cmpl	$1, %eax
	jne	.L699
	movq	0(%rbp), %rax
	movq	%rbp, %rdi
	call	*24(%rax)
	jmp	.L699
	.p2align 4,,10
	.p2align 3
.L719:
	movq	0(%rbp), %rax
	movq	%rbp, %rdi
	call	*16(%rax)
	movl	$-1, %eax
	lock xaddl	%eax, 12(%rbp)
.L710:
	cmpl	$1, %eax
	jne	.L663
	movq	0(%rbp), %rax
	movq	%rbp, %rdi
	call	*24(%rax)
	jmp	.L663
	.p2align 4,,10
	.p2align 3
.L721:
	movq	0(%rbp), %rax
	movq	%rbp, %rdi
	call	*16(%rax)
	movl	$-1, %eax
	lock xaddl	%eax, 12(%rbp)
.L712:
	cmpl	$1, %eax
	jne	.L675
	movq	0(%rbp), %rax
	movq	%rbp, %rdi
	call	*24(%rax)
	jmp	.L675
	.p2align 4,,10
	.p2align 3
.L722:
	movq	0(%rbp), %rax
	movq	%rbp, %rdi
	call	*16(%rax)
	movl	$-1, %eax
	lock xaddl	%eax, 12(%rbp)
.L713:
	cmpl	$1, %eax
	jne	.L681
	movq	0(%rbp), %rax
	movq	%rbp, %rdi
	call	*24(%rax)
	jmp	.L681
	.p2align 4,,10
	.p2align 3
.L723:
	movq	0(%rbp), %rax
	movq	%rbp, %rdi
	call	*16(%rax)
	movl	$-1, %eax
	lock xaddl	%eax, 12(%rbp)
.L714:
	cmpl	$1, %eax
	jne	.L687
	movq	0(%rbp), %rax
	movq	%rbp, %rdi
	call	*24(%rax)
	jmp	.L687
	.p2align 4,,10
	.p2align 3
.L724:
	movq	0(%rbp), %rax
	movq	%rbp, %rdi
	call	*16(%rax)
	movl	$-1, %eax
	lock xaddl	%eax, 12(%rbp)
.L715:
	cmpl	$1, %eax
	jne	.L693
	movq	0(%rbp), %rax
	movq	%rbp, %rdi
	call	*24(%rax)
	jmp	.L693
	.p2align 4,,10
	.p2align 3
.L718:
	movq	0(%rbp), %rax
	movq	%rbp, %rdi
	call	*16(%rax)
	movl	$-1, %eax
	lock xaddl	%eax, 12(%rbp)
.L709:
	cmpl	$1, %eax
	jne	.L657
	movq	0(%rbp), %rax
	movq	%rbp, %rdi
	call	*24(%rax)
	jmp	.L657
	.cfi_endproc
.LFE10222:
	.size	_ZN8asiodnp311LinkSessionD0Ev, .-_ZN8asiodnp311LinkSessionD0Ev
	.section	.text._ZN8asiodnp311LinkSessionD2Ev,"axG",@progbits,_ZN8asiodnp311LinkSessionD5Ev,comdat
	.align 2
	.p2align 4,,15
	.weak	_ZN8asiodnp311LinkSessionD2Ev
	.type	_ZN8asiodnp311LinkSessionD2Ev, @function
_ZN8asiodnp311LinkSessionD2Ev:
.LFB10220:
	.cfi_startproc
	pushq	%rbp
	.cfi_def_cfa_offset 16
	.cfi_offset 6, -16
	pushq	%rbx
	.cfi_def_cfa_offset 24
	.cfi_offset 3, -24
	movq	%rdi, %rbx
	subq	$8, %rsp
	.cfi_def_cfa_offset 32
	movq	_ZTVN8asiodnp311LinkSessionE@GOTPCREL(%rip), %rax
	movq	600(%rdi), %rbp
	leaq	16(%rax), %rdx
	movq	%rdx, (%rdi)
	leaq	96(%rax), %rdx
	movq	%rdx, 8(%rdi)
	leaq	144(%rax), %rdx
	movq	%rdx, 16(%rdi)
	leaq	184(%rax), %rdx
	addq	$224, %rax
	testq	%rbp, %rbp
	movq	%rax, 48(%rdi)
	movq	%rdx, 40(%rdi)
	je	.L729
	cmpq	$0, _ZL28__gthrw___pthread_key_createPjPFvPvE@GOTPCREL(%rip)
	je	.L730
	lock subl	$1, 8(%rbp)
	je	.L790
.L729:
	leaq	568(%rbx), %rdi
	call	_ZN7openpal8TimerRefD1Ev@PLT
	movq	176(%rbx), %rbp
	testq	%rbp, %rbp
	je	.L735
	cmpq	$0, _ZL28__gthrw___pthread_key_createPjPFvPvE@GOTPCREL(%rip)
	je	.L736
	lock subl	$1, 8(%rbp)
	je	.L791
.L735:
	movq	160(%rbx), %rbp
	testq	%rbp, %rbp
	je	.L741
	cmpq	$0, _ZL28__gthrw___pthread_key_createPjPFvPvE@GOTPCREL(%rip)
	je	.L742
	lock subl	$1, 8(%rbp)
	je	.L792
.L741:
	movq	144(%rbx), %rbp
	testq	%rbp, %rbp
	je	.L747
	cmpq	$0, _ZL28__gthrw___pthread_key_createPjPFvPvE@GOTPCREL(%rip)
	je	.L748
	lock subl	$1, 8(%rbp)
	je	.L793
.L747:
	movq	128(%rbx), %rbp
	testq	%rbp, %rbp
	je	.L753
	cmpq	$0, _ZL28__gthrw___pthread_key_createPjPFvPvE@GOTPCREL(%rip)
	je	.L754
	lock subl	$1, 8(%rbp)
	je	.L794
.L753:
	movq	112(%rbx), %rbp
	testq	%rbp, %rbp
	je	.L759
	cmpq	$0, _ZL28__gthrw___pthread_key_createPjPFvPvE@GOTPCREL(%rip)
	je	.L760
	lock subl	$1, 8(%rbp)
	je	.L795
.L759:
	movq	88(%rbx), %rbp
	testq	%rbp, %rbp
	je	.L765
	cmpq	$0, _ZL28__gthrw___pthread_key_createPjPFvPvE@GOTPCREL(%rip)
	je	.L766
	lock subl	$1, 8(%rbp)
	je	.L796
.L765:
	movq	72(%rbx), %rbp
	testq	%rbp, %rbp
	je	.L771
	cmpq	$0, _ZL28__gthrw___pthread_key_createPjPFvPvE@GOTPCREL(%rip)
	je	.L772
	lock subl	$1, 8(%rbp)
	je	.L797
.L771:
	movq	32(%rbx), %rdi
	testq	%rdi, %rdi
	je	.L727
	cmpq	$0, _ZL28__gthrw___pthread_key_createPjPFvPvE@GOTPCREL(%rip)
	je	.L778
	movl	$-1, %eax
	lock xaddl	%eax, 12(%rdi)
	cmpl	$1, %eax
	je	.L798
.L727:
	addq	$8, %rsp
	.cfi_remember_state
	.cfi_def_cfa_offset 24
	popq	%rbx
	.cfi_def_cfa_offset 16
	popq	%rbp
	.cfi_def_cfa_offset 8
	ret
	.p2align 4,,10
	.p2align 3
.L772:
	.cfi_restore_state
	movl	8(%rbp), %eax
	leal	-1(%rax), %edx
	cmpl	$1, %eax
	movl	%edx, 8(%rbp)
	jne	.L771
	movq	0(%rbp), %rax
	movq	%rbp, %rdi
	call	*16(%rax)
	movl	12(%rbp), %eax
	leal	-1(%rax), %edx
	movl	%edx, 12(%rbp)
	jmp	.L788
	.p2align 4,,10
	.p2align 3
.L778:
	movl	12(%rdi), %eax
	leal	-1(%rax), %edx
	cmpl	$1, %eax
	movl	%edx, 12(%rdi)
	jne	.L727
.L798:
	movq	(%rdi), %rax
	movq	24(%rax), %rax
	addq	$8, %rsp
	.cfi_remember_state
	.cfi_def_cfa_offset 24
	popq	%rbx
	.cfi_def_cfa_offset 16
	popq	%rbp
	.cfi_def_cfa_offset 8
	jmp	*%rax
	.p2align 4,,10
	.p2align 3
.L742:
	.cfi_restore_state
	movl	8(%rbp), %eax
	leal	-1(%rax), %edx
	cmpl	$1, %eax
	movl	%edx, 8(%rbp)
	jne	.L741
	movq	0(%rbp), %rax
	movq	%rbp, %rdi
	call	*16(%rax)
	movl	12(%rbp), %eax
	leal	-1(%rax), %edx
	movl	%edx, 12(%rbp)
	jmp	.L783
	.p2align 4,,10
	.p2align 3
.L730:
	movl	8(%rbp), %eax
	leal	-1(%rax), %edx
	cmpl	$1, %eax
	movl	%edx, 8(%rbp)
	jne	.L729
	movq	0(%rbp), %rax
	movq	%rbp, %rdi
	call	*16(%rax)
	movl	12(%rbp), %eax
	leal	-1(%rax), %edx
	movl	%edx, 12(%rbp)
	jmp	.L781
	.p2align 4,,10
	.p2align 3
.L736:
	movl	8(%rbp), %eax
	leal	-1(%rax), %edx
	cmpl	$1, %eax
	movl	%edx, 8(%rbp)
	jne	.L735
	movq	0(%rbp), %rax
	movq	%rbp, %rdi
	call	*16(%rax)
	movl	12(%rbp), %eax
	leal	-1(%rax), %edx
	movl	%edx, 12(%rbp)
	jmp	.L782
	.p2align 4,,10
	.p2align 3
.L748:
	movl	8(%rbp), %eax
	leal	-1(%rax), %edx
	cmpl	$1, %eax
	movl	%edx, 8(%rbp)
	jne	.L747
	movq	0(%rbp), %rax
	movq	%rbp, %rdi
	call	*16(%rax)
	movl	12(%rbp), %eax
	leal	-1(%rax), %edx
	movl	%edx, 12(%rbp)
	jmp	.L784
	.p2align 4,,10
	.p2align 3
.L766:
	movl	8(%rbp), %eax
	leal	-1(%rax), %edx
	cmpl	$1, %eax
	movl	%edx, 8(%rbp)
	jne	.L765
	movq	0(%rbp), %rax
	movq	%rbp, %rdi
	call	*16(%rax)
	movl	12(%rbp), %eax
	leal	-1(%rax), %edx
	movl	%edx, 12(%rbp)
	jmp	.L787
	.p2align 4,,10
	.p2align 3
.L760:
	movl	8(%rbp), %eax
	leal	-1(%rax), %edx
	cmpl	$1, %eax
	movl	%edx, 8(%rbp)
	jne	.L759
	movq	0(%rbp), %rax
	movq	%rbp, %rdi
	call	*16(%rax)
	movl	12(%rbp), %eax
	leal	-1(%rax), %edx
	movl	%edx, 12(%rbp)
	jmp	.L786
	.p2align 4,,10
	.p2align 3
.L754:
	movl	8(%rbp), %eax
	leal	-1(%rax), %edx
	cmpl	$1, %eax
	movl	%edx, 8(%rbp)
	jne	.L753
	movq	0(%rbp), %rax
	movq	%rbp, %rdi
	call	*16(%rax)
	movl	12(%rbp), %eax
	leal	-1(%rax), %edx
	movl	%edx, 12(%rbp)
	jmp	.L785
	.p2align 4,,10
	.p2align 3
.L792:
	movq	0(%rbp), %rax
	movq	%rbp, %rdi
	call	*16(%rax)
	movl	$-1, %eax
	lock xaddl	%eax, 12(%rbp)
.L783:
	cmpl	$1, %eax
	jne	.L741
	movq	0(%rbp), %rax
	movq	%rbp, %rdi
	call	*24(%rax)
	jmp	.L741
	.p2align 4,,10
	.p2align 3
.L797:
	movq	0(%rbp), %rax
	movq	%rbp, %rdi
	call	*16(%rax)
	movl	$-1, %eax
	lock xaddl	%eax, 12(%rbp)
.L788:
	cmpl	$1, %eax
	jne	.L771
	movq	0(%rbp), %rax
	movq	%rbp, %rdi
	call	*24(%rax)
	jmp	.L771
	.p2align 4,,10
	.p2align 3
.L791:
	movq	0(%rbp), %rax
	movq	%rbp, %rdi
	call	*16(%rax)
	movl	$-1, %eax
	lock xaddl	%eax, 12(%rbp)
.L782:
	cmpl	$1, %eax
	jne	.L735
	movq	0(%rbp), %rax
	movq	%rbp, %rdi
	call	*24(%rax)
	jmp	.L735
	.p2align 4,,10
	.p2align 3
.L793:
	movq	0(%rbp), %rax
	movq	%rbp, %rdi
	call	*16(%rax)
	movl	$-1, %eax
	lock xaddl	%eax, 12(%rbp)
.L784:
	cmpl	$1, %eax
	jne	.L747
	movq	0(%rbp), %rax
	movq	%rbp, %rdi
	call	*24(%rax)
	jmp	.L747
	.p2align 4,,10
	.p2align 3
.L794:
	movq	0(%rbp), %rax
	movq	%rbp, %rdi
	call	*16(%rax)
	movl	$-1, %eax
	lock xaddl	%eax, 12(%rbp)
.L785:
	cmpl	$1, %eax
	jne	.L753
	movq	0(%rbp), %rax
	movq	%rbp, %rdi
	call	*24(%rax)
	jmp	.L753
	.p2align 4,,10
	.p2align 3
.L795:
	movq	0(%rbp), %rax
	movq	%rbp, %rdi
	call	*16(%rax)
	movl	$-1, %eax
	lock xaddl	%eax, 12(%rbp)
.L786:
	cmpl	$1, %eax
	jne	.L759
	movq	0(%rbp), %rax
	movq	%rbp, %rdi
	call	*24(%rax)
	jmp	.L759
	.p2align 4,,10
	.p2align 3
.L796:
	movq	0(%rbp), %rax
	movq	%rbp, %rdi
	call	*16(%rax)
	movl	$-1, %eax
	lock xaddl	%eax, 12(%rbp)
.L787:
	cmpl	$1, %eax
	jne	.L765
	movq	0(%rbp), %rax
	movq	%rbp, %rdi
	call	*24(%rax)
	jmp	.L765
	.p2align 4,,10
	.p2align 3
.L790:
	movq	0(%rbp), %rax
	movq	%rbp, %rdi
	call	*16(%rax)
	movl	$-1, %eax
	lock xaddl	%eax, 12(%rbp)
.L781:
	cmpl	$1, %eax
	jne	.L729
	movq	0(%rbp), %rax
	movq	%rbp, %rdi
	call	*24(%rax)
	jmp	.L729
	.cfi_endproc
.LFE10220:
	.size	_ZN8asiodnp311LinkSessionD2Ev, .-_ZN8asiodnp311LinkSessionD2Ev
	.weak	_ZN8asiodnp311LinkSessionD1Ev
	.set	_ZN8asiodnp311LinkSessionD1Ev,_ZN8asiodnp311LinkSessionD2Ev
	.text
	.p2align 4,,15
	.type	_ZNSt14_Function_base13_Base_managerIZN7openpal8TimerRef5StartIZN8asiodnp311LinkSession5StartEvEUlvE_EEbRKNS1_12TimeDurationERKT_EUlvE_E10_M_managerERSt9_Any_dataRKSF_St18_Manager_operation, @function
_ZNSt14_Function_base13_Base_managerIZN7openpal8TimerRef5StartIZN8asiodnp311LinkSession5StartEvEUlvE_EEbRKNS1_12TimeDurationERKT_EUlvE_E10_M_managerERSt9_Any_dataRKSF_St18_Manager_operation:
.LFB9503:
	.cfi_startproc
	cmpl	$1, %edx
	je	.L801
	jb	.L802
	pushq	%rbp
	.cfi_def_cfa_offset 16
	.cfi_offset 6, -16
	pushq	%rbx
	.cfi_def_cfa_offset 24
	.cfi_offset 3, -24
	movq	%rdi, %rbx
	subq	$8, %rsp
	.cfi_def_cfa_offset 32
	cmpl	$2, %edx
	je	.L803
	cmpl	$3, %edx
	jne	.L816
	movq	(%rdi), %rbx
	testq	%rbx, %rbx
	je	.L816
	movq	16(%rbx), %rbp
	testq	%rbp, %rbp
	je	.L808
	cmpq	$0, _ZL28__gthrw___pthread_key_createPjPFvPvE@GOTPCREL(%rip)
	je	.L809
	lock subl	$1, 8(%rbp)
	jne	.L808
	movq	0(%rbp), %rax
	movq	%rbp, %rdi
	call	*16(%rax)
	movl	$-1, %eax
	lock xaddl	%eax, 12(%rbp)
.L813:
	cmpl	$1, %eax
	jne	.L808
	movq	0(%rbp), %rax
	movq	%rbp, %rdi
	call	*24(%rax)
	.p2align 4,,10
	.p2align 3
.L808:
	movl	$24, %esi
	movq	%rbx, %rdi
	call	_ZdlPvm@PLT
.L816:
	addq	$8, %rsp
	.cfi_remember_state
	.cfi_def_cfa_offset 24
	xorl	%eax, %eax
	popq	%rbx
	.cfi_def_cfa_offset 16
	popq	%rbp
	.cfi_def_cfa_offset 8
	ret
	.p2align 4,,10
	.p2align 3
.L803:
	.cfi_restore_state
	movq	(%rsi), %rbp
	movl	$24, %edi
	call	_Znwm@PLT
	movq	0(%rbp), %rdx
	movq	%rdx, (%rax)
	movq	8(%rbp), %rdx
	movq	%rdx, 8(%rax)
	movq	16(%rbp), %rdx
	testq	%rdx, %rdx
	movq	%rdx, 16(%rax)
	je	.L805
	cmpq	$0, _ZL28__gthrw___pthread_key_createPjPFvPvE@GOTPCREL(%rip)
	je	.L806
	lock addl	$1, 8(%rdx)
.L805:
	movq	%rax, (%rbx)
	addq	$8, %rsp
	.cfi_def_cfa_offset 24
	xorl	%eax, %eax
	popq	%rbx
	.cfi_def_cfa_offset 16
	popq	%rbp
	.cfi_def_cfa_offset 8
	ret
	.p2align 4,,10
	.p2align 3
.L802:
	.cfi_restore 3
	.cfi_restore 6
	leaq	_ZTIZN7openpal8TimerRef5StartIZN8asiodnp311LinkSession5StartEvEUlvE_EEbRKNS_12TimeDurationERKT_EUlvE_(%rip), %rax
	movq	%rax, (%rdi)
	xorl	%eax, %eax
	ret
	.p2align 4,,10
	.p2align 3
.L801:
	movq	(%rsi), %rax
	movq	%rax, (%rdi)
	xorl	%eax, %eax
	ret
	.p2align 4,,10
	.p2align 3
.L806:
	.cfi_def_cfa_offset 32
	.cfi_offset 3, -24
	.cfi_offset 6, -16
	addl	$1, 8(%rdx)
	jmp	.L805
	.p2align 4,,10
	.p2align 3
.L809:
	movl	8(%rbp), %eax
	leal	-1(%rax), %edx
	cmpl	$1, %eax
	movl	%edx, 8(%rbp)
	jne	.L808
	movq	0(%rbp), %rax
	movq	%rbp, %rdi
	call	*16(%rax)
	movl	12(%rbp), %eax
	leal	-1(%rax), %edx
	movl	%edx, 12(%rbp)
	jmp	.L813
	.cfi_endproc
.LFE9503:
	.size	_ZNSt14_Function_base13_Base_managerIZN7openpal8TimerRef5StartIZN8asiodnp311LinkSession5StartEvEUlvE_EEbRKNS1_12TimeDurationERKT_EUlvE_E10_M_managerERSt9_Any_dataRKSF_St18_Manager_operation, .-_ZNSt14_Function_base13_Base_managerIZN7openpal8TimerRef5StartIZN8asiodnp311LinkSession5StartEvEUlvE_EEbRKNS1_12TimeDurationERKT_EUlvE_E10_M_managerERSt9_Any_dataRKSF_St18_Manager_operation
	.p2align 4,,15
	.type	_ZNSt14_Function_base13_Base_managerIZN8asiodnp311LinkSession8ShutdownEvEUlvE_E10_M_managerERSt9_Any_dataRKS5_St18_Manager_operation, @function
_ZNSt14_Function_base13_Base_managerIZN8asiodnp311LinkSession8ShutdownEvEUlvE_E10_M_managerERSt9_Any_dataRKS5_St18_Manager_operation:
.LFB9160:
	.cfi_startproc
	cmpl	$1, %edx
	je	.L827
	jb	.L828
	pushq	%rbp
	.cfi_def_cfa_offset 16
	.cfi_offset 6, -16
	pushq	%rbx
	.cfi_def_cfa_offset 24
	.cfi_offset 3, -24
	movq	%rdi, %rbx
	subq	$8, %rsp
	.cfi_def_cfa_offset 32
	cmpl	$2, %edx
	je	.L829
	cmpl	$3, %edx
	jne	.L842
	movq	(%rdi), %rbx
	testq	%rbx, %rbx
	je	.L842
	movq	8(%rbx), %rbp
	testq	%rbp, %rbp
	je	.L834
	cmpq	$0, _ZL28__gthrw___pthread_key_createPjPFvPvE@GOTPCREL(%rip)
	je	.L835
	lock subl	$1, 8(%rbp)
	jne	.L834
	movq	0(%rbp), %rax
	movq	%rbp, %rdi
	call	*16(%rax)
	movl	$-1, %eax
	lock xaddl	%eax, 12(%rbp)
.L839:
	cmpl	$1, %eax
	jne	.L834
	movq	0(%rbp), %rax
	movq	%rbp, %rdi
	call	*24(%rax)
	.p2align 4,,10
	.p2align 3
.L834:
	movl	$16, %esi
	movq	%rbx, %rdi
	call	_ZdlPvm@PLT
.L842:
	addq	$8, %rsp
	.cfi_remember_state
	.cfi_def_cfa_offset 24
	xorl	%eax, %eax
	popq	%rbx
	.cfi_def_cfa_offset 16
	popq	%rbp
	.cfi_def_cfa_offset 8
	ret
	.p2align 4,,10
	.p2align 3
.L829:
	.cfi_restore_state
	movq	(%rsi), %rbp
	movl	$16, %edi
	call	_Znwm@PLT
	movq	0(%rbp), %rdx
	movq	%rdx, (%rax)
	movq	8(%rbp), %rdx
	testq	%rdx, %rdx
	movq	%rdx, 8(%rax)
	je	.L831
	cmpq	$0, _ZL28__gthrw___pthread_key_createPjPFvPvE@GOTPCREL(%rip)
	je	.L832
	lock addl	$1, 8(%rdx)
.L831:
	movq	%rax, (%rbx)
	addq	$8, %rsp
	.cfi_def_cfa_offset 24
	xorl	%eax, %eax
	popq	%rbx
	.cfi_def_cfa_offset 16
	popq	%rbp
	.cfi_def_cfa_offset 8
	ret
	.p2align 4,,10
	.p2align 3
.L828:
	.cfi_restore 3
	.cfi_restore 6
	leaq	_ZTIZN8asiodnp311LinkSession8ShutdownEvEUlvE_(%rip), %rax
	movq	%rax, (%rdi)
	xorl	%eax, %eax
	ret
	.p2align 4,,10
	.p2align 3
.L827:
	movq	(%rsi), %rax
	movq	%rax, (%rdi)
	xorl	%eax, %eax
	ret
	.p2align 4,,10
	.p2align 3
.L832:
	.cfi_def_cfa_offset 32
	.cfi_offset 3, -24
	.cfi_offset 6, -16
	addl	$1, 8(%rdx)
	jmp	.L831
	.p2align 4,,10
	.p2align 3
.L835:
	movl	8(%rbp), %eax
	leal	-1(%rax), %edx
	cmpl	$1, %eax
	movl	%edx, 8(%rbp)
	jne	.L834
	movq	0(%rbp), %rax
	movq	%rbp, %rdi
	call	*16(%rax)
	movl	12(%rbp), %eax
	leal	-1(%rax), %edx
	movl	%edx, 12(%rbp)
	jmp	.L839
	.cfi_endproc
.LFE9160:
	.size	_ZNSt14_Function_base13_Base_managerIZN8asiodnp311LinkSession8ShutdownEvEUlvE_E10_M_managerERSt9_Any_dataRKS5_St18_Manager_operation, .-_ZNSt14_Function_base13_Base_managerIZN8asiodnp311LinkSession8ShutdownEvEUlvE_E10_M_managerERSt9_Any_dataRKS5_St18_Manager_operation
	.section	.text._ZSt20__throw_bad_weak_ptrv,"axG",@progbits,_ZSt20__throw_bad_weak_ptrv,comdat
	.p2align 4,,15
	.weak	_ZSt20__throw_bad_weak_ptrv
	.type	_ZSt20__throw_bad_weak_ptrv, @function
_ZSt20__throw_bad_weak_ptrv:
.LFB1550:
	.cfi_startproc
	movl	$8, %edi
	subq	$8, %rsp
	.cfi_def_cfa_offset 16
	call	__cxa_allocate_exception@PLT
	movq	_ZTVSt12bad_weak_ptr@GOTPCREL(%rip), %rdx
	movq	_ZTISt12bad_weak_ptr@GOTPCREL(%rip), %rsi
	movq	%rax, %rdi
	addq	$16, %rdx
	movq	%rdx, (%rax)
	movq	_ZNSt12bad_weak_ptrD1Ev@GOTPCREL(%rip), %rdx
	call	__cxa_throw@PLT
	.cfi_endproc
.LFE1550:
	.size	_ZSt20__throw_bad_weak_ptrv, .-_ZSt20__throw_bad_weak_ptrv
	.section	.text._ZN7openpal6LoggerD2Ev,"axG",@progbits,_ZN7openpal6LoggerD5Ev,comdat
	.align 2
	.p2align 4,,15
	.weak	_ZN7openpal6LoggerD2Ev
	.type	_ZN7openpal6LoggerD2Ev, @function
_ZN7openpal6LoggerD2Ev:
.LFB1967:
	.cfi_startproc
	pushq	%rbp
	.cfi_def_cfa_offset 16
	.cfi_offset 6, -16
	pushq	%rbx
	.cfi_def_cfa_offset 24
	.cfi_offset 3, -24
	movq	%rdi, %rbp
	subq	$8, %rsp
	.cfi_def_cfa_offset 32
	movq	24(%rdi), %rbx
	testq	%rbx, %rbx
	je	.L855
	cmpq	$0, _ZL28__gthrw___pthread_key_createPjPFvPvE@GOTPCREL(%rip)
	je	.L856
	lock subl	$1, 8(%rbx)
	je	.L869
.L855:
	movq	8(%rbp), %rbx
	testq	%rbx, %rbx
	je	.L853
	cmpq	$0, _ZL28__gthrw___pthread_key_createPjPFvPvE@GOTPCREL(%rip)
	je	.L862
	lock subl	$1, 8(%rbx)
	je	.L870
.L853:
	addq	$8, %rsp
	.cfi_remember_state
	.cfi_def_cfa_offset 24
	popq	%rbx
	.cfi_def_cfa_offset 16
	popq	%rbp
	.cfi_def_cfa_offset 8
	ret
	.p2align 4,,10
	.p2align 3
.L862:
	.cfi_restore_state
	movl	8(%rbx), %eax
	leal	-1(%rax), %edx
	cmpl	$1, %eax
	movl	%edx, 8(%rbx)
	jne	.L853
	movq	(%rbx), %rax
	movq	%rbx, %rdi
	call	*16(%rax)
	movl	12(%rbx), %eax
	leal	-1(%rax), %edx
	movl	%edx, 12(%rbx)
	jmp	.L867
	.p2align 4,,10
	.p2align 3
.L856:
	movl	8(%rbx), %eax
	leal	-1(%rax), %edx
	cmpl	$1, %eax
	movl	%edx, 8(%rbx)
	jne	.L855
	movq	(%rbx), %rax
	movq	%rbx, %rdi
	call	*16(%rax)
	movl	12(%rbx), %eax
	leal	-1(%rax), %edx
	movl	%edx, 12(%rbx)
	jmp	.L866
	.p2align 4,,10
	.p2align 3
.L870:
	movq	(%rbx), %rax
	movq	%rbx, %rdi
	call	*16(%rax)
	movl	$-1, %eax
	lock xaddl	%eax, 12(%rbx)
.L867:
	cmpl	$1, %eax
	jne	.L853
	movq	(%rbx), %rax
	movq	%rbx, %rdi
	movq	24(%rax), %rax
	addq	$8, %rsp
	.cfi_remember_state
	.cfi_def_cfa_offset 24
	popq	%rbx
	.cfi_def_cfa_offset 16
	popq	%rbp
	.cfi_def_cfa_offset 8
	jmp	*%rax
	.p2align 4,,10
	.p2align 3
.L869:
	.cfi_restore_state
	movq	(%rbx), %rax
	movq	%rbx, %rdi
	call	*16(%rax)
	movl	$-1, %eax
	lock xaddl	%eax, 12(%rbx)
.L866:
	cmpl	$1, %eax
	jne	.L855
	movq	(%rbx), %rax
	movq	%rbx, %rdi
	call	*24(%rax)
	jmp	.L855
	.cfi_endproc
.LFE1967:
	.size	_ZN7openpal6LoggerD2Ev, .-_ZN7openpal6LoggerD2Ev
	.weak	_ZN7openpal6LoggerD1Ev
	.set	_ZN7openpal6LoggerD1Ev,_ZN7openpal6LoggerD2Ev
	.section	.text._ZN4asio28asio_handler_is_continuationEz,"axG",@progbits,_ZN4asio28asio_handler_is_continuationEz,comdat
	.p2align 4,,15
	.weak	_ZN4asio28asio_handler_is_continuationEz
	.type	_ZN4asio28asio_handler_is_continuationEz, @function
_ZN4asio28asio_handler_is_continuationEz:
.LFB2217:
	.cfi_startproc
	xorl	%eax, %eax
	ret
	.cfi_endproc
.LFE2217:
	.size	_ZN4asio28asio_handler_is_continuationEz, .-_ZN4asio28asio_handler_is_continuationEz
	.text
	.align 2
	.p2align 4,,15
	.globl	_ZN8asiodnp311LinkSession13SetLogFiltersEN7openpal10LogFiltersE
	.type	_ZN8asiodnp311LinkSession13SetLogFiltersEN7openpal10LogFiltersE, @function
_ZN8asiodnp311LinkSession13SetLogFiltersEN7openpal10LogFiltersE:
.LFB7810:
	.cfi_startproc
	movq	80(%rdi), %rax
	movl	%esi, 32(%rax)
	ret
	.cfi_endproc
.LFE7810:
	.size	_ZN8asiodnp311LinkSession13SetLogFiltersEN7openpal10LogFiltersE, .-_ZN8asiodnp311LinkSession13SetLogFiltersEN7openpal10LogFiltersE
	.align 2
	.p2align 4,,15
	.globl	_ZN8asiodnp311LinkSession12BeginReceiveEv
	.type	_ZN8asiodnp311LinkSession12BeginReceiveEv, @function
_ZN8asiodnp311LinkSession12BeginReceiveEv:
.LFB7824:
	.cfi_startproc
	pushq	%rbx
	.cfi_def_cfa_offset 16
	.cfi_offset 3, -16
	movq	%rdi, %rbx
	addq	$152, %rdi
	call	_ZNK8opendnp315LinkLayerParser9WriteBuffEv@PLT
	movq	136(%rbx), %rdi
	cmpq	$0, 40(%rdi)
	je	.L873
	cmpb	$0, 56(%rdi)
	jne	.L873
	cmpb	$0, 57(%rdi)
	je	.L876
.L873:
	popq	%rbx
	.cfi_remember_state
	.cfi_def_cfa_offset 8
	ret
	.p2align 4,,10
	.p2align 3
.L876:
	.cfi_restore_state
	movq	(%rdi), %rcx
	movb	$1, 57(%rdi)
	movl	%eax, %esi
	popq	%rbx
	.cfi_def_cfa_offset 8
	movq	16(%rcx), %rcx
	jmp	*%rcx
	.cfi_endproc
.LFE7824:
	.size	_ZN8asiodnp311LinkSession12BeginReceiveEv, .-_ZN8asiodnp311LinkSession12BeginReceiveEv
	.section	.text._ZNSt16_Sp_counted_baseILN9__gnu_cxx12_Lock_policyE2EE10_M_releaseEv,"axG",@progbits,_ZNSt16_Sp_counted_baseILN9__gnu_cxx12_Lock_policyE2EE10_M_releaseEv,comdat
	.align 2
	.p2align 4,,15
	.weak	_ZNSt16_Sp_counted_baseILN9__gnu_cxx12_Lock_policyE2EE10_M_releaseEv
	.type	_ZNSt16_Sp_counted_baseILN9__gnu_cxx12_Lock_policyE2EE10_M_releaseEv, @function
_ZNSt16_Sp_counted_baseILN9__gnu_cxx12_Lock_policyE2EE10_M_releaseEv:
.LFB8819:
	.cfi_startproc
	cmpq	$0, _ZL28__gthrw___pthread_key_createPjPFvPvE@GOTPCREL(%rip)
	pushq	%rbx
	.cfi_def_cfa_offset 16
	.cfi_offset 3, -16
	movq	%rdi, %rbx
	je	.L878
	lock subl	$1, 8(%rdi)
	je	.L885
.L877:
	popq	%rbx
	.cfi_remember_state
	.cfi_def_cfa_offset 8
	ret
	.p2align 4,,10
	.p2align 3
.L878:
	.cfi_restore_state
	movl	8(%rdi), %eax
	leal	-1(%rax), %edx
	cmpl	$1, %eax
	movl	%edx, 8(%rdi)
	jne	.L877
	movq	(%rdi), %rax
	call	*16(%rax)
	movl	12(%rbx), %eax
	leal	-1(%rax), %edx
	movl	%edx, 12(%rbx)
	jmp	.L883
	.p2align 4,,10
	.p2align 3
.L885:
	movq	(%rdi), %rax
	call	*16(%rax)
	movl	$-1, %eax
	lock xaddl	%eax, 12(%rbx)
.L883:
	cmpl	$1, %eax
	jne	.L877
	movq	(%rbx), %rax
	movq	%rbx, %rdi
	popq	%rbx
	.cfi_def_cfa_offset 8
	movq	24(%rax), %rax
	jmp	*%rax
	.cfi_endproc
.LFE8819:
	.size	_ZNSt16_Sp_counted_baseILN9__gnu_cxx12_Lock_policyE2EE10_M_releaseEv, .-_ZNSt16_Sp_counted_baseILN9__gnu_cxx12_Lock_policyE2EE10_M_releaseEv
	.text
	.align 2
	.p2align 4,,15
	.globl	_ZN8asiodnp311LinkSessionC2ERKN7openpal6LoggerEmRKSt10shared_ptrIN7asiopal16IResourceManagerEERKS5_INS_16IListenCallbacksEERKS5_INS6_13IAsyncChannelEE
	.type	_ZN8asiodnp311LinkSessionC2ERKN7openpal6LoggerEmRKSt10shared_ptrIN7asiopal16IResourceManagerEERKS5_INS_16IListenCallbacksEERKS5_INS6_13IAsyncChannelEE, @function
_ZN8asiodnp311LinkSessionC2ERKN7openpal6LoggerEmRKSt10shared_ptrIN7asiopal16IResourceManagerEERKS5_INS_16IListenCallbacksEERKS5_INS6_13IAsyncChannelEE:
.LFB7768:
	.cfi_startproc
	.cfi_personality 0x9b,DW.ref.__gxx_personality_v0
	.cfi_lsda 0x1b,.LLSDA7768
	movq	_ZTVN8asiodnp311LinkSessionE@GOTPCREL(%rip), %rax
	pushq	%r12
	.cfi_def_cfa_offset 16
	.cfi_offset 12, -16
	pushq	%rbp
	.cfi_def_cfa_offset 24
	.cfi_offset 6, -24
	pushq	%rbx
	.cfi_def_cfa_offset 32
	.cfi_offset 3, -32
	movq	%rdi, %rbx
	movq	$0, 24(%rdi)
	movq	$0, 32(%rdi)
	movq	%r9, %rbp
	leaq	16(%rax), %rdi
	movb	$0, 56(%rbx)
	movq	%rdi, (%rbx)
	leaq	96(%rax), %rdi
	movq	%rdi, 8(%rbx)
	leaq	144(%rax), %rdi
	movq	%rdi, 16(%rbx)
	leaq	184(%rax), %rdi
	addq	$224, %rax
	movq	%rax, 48(%rbx)
	movq	%rdi, 40(%rbx)
	movq	(%rsi), %rax
	movq	%rax, 64(%rbx)
	movq	8(%rsi), %rax
	testq	%rax, %rax
	movq	%rax, 72(%rbx)
	je	.L887
	cmpq	$0, _ZL28__gthrw___pthread_key_createPjPFvPvE@GOTPCREL(%rip)
	jne	.L955
	addl	$1, 8(%rax)
	movq	16(%rsi), %rax
	movq	%rax, 80(%rbx)
	movq	24(%rsi), %rax
	testq	%rax, %rax
	movq	%rax, 88(%rbx)
	je	.L952
.L891:
	addl	$1, 8(%rax)
.L952:
	movq	%rdx, 96(%rbx)
	movq	(%rcx), %rax
	movq	%rax, 104(%rbx)
	movq	8(%rcx), %rax
	testq	%rax, %rax
	movq	%rax, 112(%rbx)
	je	.L895
.L896:
	addl	$1, 8(%rax)
	movq	(%r8), %rax
	movq	%rax, 120(%rbx)
	movq	8(%r8), %rax
	testq	%rax, %rax
	movq	%rax, 128(%rbx)
	je	.L898
.L899:
	addl	$1, 8(%rax)
	movq	0(%rbp), %rax
	movq	%rax, 136(%rbx)
	movq	8(%rbp), %rax
	testq	%rax, %rax
	movq	%rax, 144(%rbx)
	je	.L901
.L902:
	addl	$1, 8(%rax)
.L901:
	leaq	152(%rbx), %r12
	movq	%r12, %rdi
.LEHB0:
	call	_ZN8opendnp315LinkLayerParserC1ERKN7openpal6LoggerE@PLT
.LEHE0:
	movq	0(%rbp), %rax
	leaq	568(%rbx), %rdi
	movq	24(%rax), %rsi
.LEHB1:
	call	_ZN7openpal8TimerRefC1ERNS_9IExecutorE@PLT
.LEHE1:
	movl	$0, 584(%rbx)
	movq	$0, 592(%rbx)
	movq	$0, 600(%rbx)
	popq	%rbx
	.cfi_remember_state
	.cfi_def_cfa_offset 24
	popq	%rbp
	.cfi_def_cfa_offset 16
	popq	%r12
	.cfi_def_cfa_offset 8
	ret
	.p2align 4,,10
	.p2align 3
.L955:
	.cfi_restore_state
	lock addl	$1, 8(%rax)
	movq	24(%rsi), %rdi
	movq	16(%rsi), %rax
	testq	%rdi, %rdi
	movq	%rax, 80(%rbx)
	movq	%rdi, 88(%rbx)
	leaq	8(%rdi), %rax
	je	.L956
.L914:
	lock addl	$1, (%rax)
	movq	%rdx, 96(%rbx)
	movq	8(%rcx), %rdx
	movq	(%rcx), %rax
	testq	%rdx, %rdx
	movq	%rdx, 112(%rbx)
	movq	%rax, 104(%rbx)
	leaq	8(%rdx), %rax
	je	.L895
.L915:
	lock addl	$1, (%rax)
	movq	8(%r8), %rdx
	movq	(%r8), %rax
	testq	%rdx, %rdx
	movq	%rax, 120(%rbx)
	movq	%rdx, 128(%rbx)
	leaq	8(%rdx), %rax
	je	.L898
.L916:
	lock addl	$1, (%rax)
	movq	8(%rbp), %rdx
	movq	0(%rbp), %rax
	testq	%rdx, %rdx
	movq	%rax, 136(%rbx)
	movq	%rdx, 144(%rbx)
	leaq	8(%rdx), %rax
	je	.L901
.L917:
	lock addl	$1, (%rax)
	jmp	.L901
	.p2align 4,,10
	.p2align 3
.L887:
	movq	16(%rsi), %rax
	movq	%rax, 80(%rbx)
	movq	24(%rsi), %rax
	testq	%rax, %rax
	movq	%rax, 88(%rbx)
	je	.L893
	cmpq	$0, _ZL28__gthrw___pthread_key_createPjPFvPvE@GOTPCREL(%rip)
	je	.L891
	addq	$8, %rax
	jmp	.L914
	.p2align 4,,10
	.p2align 3
.L956:
	movq	%rdx, 96(%rbx)
	movq	(%rcx), %rax
	movq	%rax, 104(%rbx)
	movq	8(%rcx), %rax
	testq	%rax, %rax
	movq	%rax, 112(%rbx)
	jne	.L918
	.p2align 4,,10
	.p2align 3
.L895:
	movq	(%r8), %rax
	movq	%rax, 120(%rbx)
	movq	8(%r8), %rax
	testq	%rax, %rax
	movq	%rax, 128(%rbx)
	jne	.L957
.L898:
	movq	0(%rbp), %rax
	movq	%rax, 136(%rbx)
	movq	8(%rbp), %rax
	testq	%rax, %rax
	movq	%rax, 144(%rbx)
	je	.L901
	cmpq	$0, _ZL28__gthrw___pthread_key_createPjPFvPvE@GOTPCREL(%rip)
	je	.L902
	addq	$8, %rax
	jmp	.L917
	.p2align 4,,10
	.p2align 3
.L957:
	cmpq	$0, _ZL28__gthrw___pthread_key_createPjPFvPvE@GOTPCREL(%rip)
	je	.L899
	addq	$8, %rax
	jmp	.L916
	.p2align 4,,10
	.p2align 3
.L893:
	movq	%rdx, 96(%rbx)
	movq	(%rcx), %rax
	movq	%rax, 104(%rbx)
	movq	8(%rcx), %rax
	testq	%rax, %rax
	movq	%rax, 112(%rbx)
	je	.L895
	cmpq	$0, _ZL28__gthrw___pthread_key_createPjPFvPvE@GOTPCREL(%rip)
	je	.L896
.L918:
	addq	$8, %rax
	jmp	.L915
.L920:
	movq	%r12, %rdi
	movq	%rax, %rbp
	call	_ZN7openpal6LoggerD1Ev@PLT
.L905:
	movq	144(%rbx), %rdi
	testq	%rdi, %rdi
	je	.L906
	call	_ZNSt16_Sp_counted_baseILN9__gnu_cxx12_Lock_policyE2EE10_M_releaseEv@PLT
.L906:
	movq	128(%rbx), %rdi
	testq	%rdi, %rdi
	je	.L907
	call	_ZNSt16_Sp_counted_baseILN9__gnu_cxx12_Lock_policyE2EE10_M_releaseEv@PLT
.L907:
	movq	112(%rbx), %rdi
	testq	%rdi, %rdi
	je	.L908
	call	_ZNSt16_Sp_counted_baseILN9__gnu_cxx12_Lock_policyE2EE10_M_releaseEv@PLT
.L908:
	leaq	64(%rbx), %rdi
	call	_ZN7openpal6LoggerD1Ev@PLT
	movq	32(%rbx), %rdi
	testq	%rdi, %rdi
	je	.L910
	cmpq	$0, _ZL28__gthrw___pthread_key_createPjPFvPvE@GOTPCREL(%rip)
	leaq	12(%rdi), %rdx
	je	.L911
	orl	$-1, %eax
	lock xaddl	%eax, (%rdx)
.L912:
	subl	$1, %eax
	jne	.L910
	movq	(%rdi), %rax
	call	*24(%rax)
.L910:
	movq	%rbp, %rdi
.LEHB2:
	call	_Unwind_Resume@PLT
.LEHE2:
.L911:
	movl	12(%rdi), %eax
	leal	-1(%rax), %edx
	movl	%edx, 12(%rdi)
	jmp	.L912
.L919:
	movq	%rax, %rbp
	jmp	.L905
	.cfi_endproc
.LFE7768:
	.globl	__gxx_personality_v0
	.section	.gcc_except_table,"a",@progbits
.LLSDA7768:
	.byte	0xff
	.byte	0xff
	.byte	0x1
	.uleb128 .LLSDACSE7768-.LLSDACSB7768
.LLSDACSB7768:
	.uleb128 .LEHB0-.LFB7768
	.uleb128 .LEHE0-.LEHB0
	.uleb128 .L919-.LFB7768
	.uleb128 0
	.uleb128 .LEHB1-.LFB7768
	.uleb128 .LEHE1-.LEHB1
	.uleb128 .L920-.LFB7768
	.uleb128 0
	.uleb128 .LEHB2-.LFB7768
	.uleb128 .LEHE2-.LEHB2
	.uleb128 0
	.uleb128 0
.LLSDACSE7768:
	.text
	.size	_ZN8asiodnp311LinkSessionC2ERKN7openpal6LoggerEmRKSt10shared_ptrIN7asiopal16IResourceManagerEERKS5_INS_16IListenCallbacksEERKS5_INS6_13IAsyncChannelEE, .-_ZN8asiodnp311LinkSessionC2ERKN7openpal6LoggerEmRKSt10shared_ptrIN7asiopal16IResourceManagerEERKS5_INS_16IListenCallbacksEERKS5_INS6_13IAsyncChannelEE
	.globl	_ZN8asiodnp311LinkSessionC1ERKN7openpal6LoggerEmRKSt10shared_ptrIN7asiopal16IResourceManagerEERKS5_INS_16IListenCallbacksEERKS5_INS6_13IAsyncChannelEE
	.set	_ZN8asiodnp311LinkSessionC1ERKN7openpal6LoggerEmRKSt10shared_ptrIN7asiopal16IResourceManagerEERKS5_INS_16IListenCallbacksEERKS5_INS6_13IAsyncChannelEE,_ZN8asiodnp311LinkSessionC2ERKN7openpal6LoggerEmRKSt10shared_ptrIN7asiopal16IResourceManagerEERKS5_INS_16IListenCallbacksEERKS5_INS6_13IAsyncChannelEE
	.p2align 4,,15
	.type	_ZN4asio6detail18completion_handlerIZN8asiodnp311LinkSession12ShutdownImplEvEUlvE_E11do_completeEPNS0_15task_io_serviceEPNS0_25task_io_service_operationERKSt10error_codem, @function
_ZN4asio6detail18completion_handlerIZN8asiodnp311LinkSession12ShutdownImplEvEUlvE_E11do_completeEPNS0_15task_io_serviceEPNS0_25task_io_service_operationERKSt10error_codem:
.LFB9650:
	.cfi_startproc
	.cfi_personality 0x9b,DW.ref.__gxx_personality_v0
	.cfi_lsda 0x1b,.LLSDA9650
	pushq	%r13
	.cfi_def_cfa_offset 16
	.cfi_offset 13, -16
	pushq	%r12
	.cfi_def_cfa_offset 24
	.cfi_offset 12, -24
	movq	%rdi, %r13
	pushq	%rbp
	.cfi_def_cfa_offset 32
	.cfi_offset 6, -32
	pushq	%rbx
	.cfi_def_cfa_offset 40
	.cfi_offset 3, -40
	movq	%rsi, %rbp
	subq	$40, %rsp
	.cfi_def_cfa_offset 80
	movq	24(%rsi), %r12
	movq	32(%rsi), %rbx
	movq	%fs:40, %rax
	movq	%rax, 24(%rsp)
	xorl	%eax, %eax
	.byte	0x66
	leaq	_ZN4asio6detail15keyword_tss_ptrINS0_10call_stackINS0_15task_io_serviceENS0_27task_io_service_thread_infoEE7contextEE6value_E@tlsgd(%rip), %rdi
	.value	0x6666
	rex64
	call	__tls_get_addr@PLT
	movq	(%rax), %rax
	testq	%rax, %rax
	je	.L959
	movq	8(%rax), %rax
	testq	%rax, %rax
	je	.L959
	cmpq	$0, (%rax)
	je	.L996
.L959:
	movq	%rbp, %rdi
	call	_ZdlPv@PLT
.L960:
	testq	%r13, %r13
	je	.L962
	movq	104(%r12), %rdi
	addq	$40, %r12
	testq	%rbx, %rbx
	movq	(%rdi), %rax
	movq	%r12, (%rsp)
	movq	%rbx, 8(%rsp)
	movq	16(%rax), %rax
	je	.L964
	cmpq	$0, _ZL28__gthrw___pthread_key_createPjPFvPvE@GOTPCREL(%rip)
	jne	.L997
	addl	$1, 8(%rbx)
.L964:
	movq	%rsp, %rsi
.LEHB3:
	call	*%rax
.LEHE3:
	movq	8(%rsp), %rbp
	testq	%rbp, %rbp
	je	.L966
	cmpq	$0, _ZL28__gthrw___pthread_key_createPjPFvPvE@GOTPCREL(%rip)
	je	.L967
	lock subl	$1, 8(%rbp)
	je	.L998
.L966:
	sfence
.L962:
	testq	%rbx, %rbx
	je	.L958
	cmpq	$0, _ZL28__gthrw___pthread_key_createPjPFvPvE@GOTPCREL(%rip)
	je	.L977
	lock subl	$1, 8(%rbx)
	je	.L999
.L958:
	movq	24(%rsp), %rax
	xorq	%fs:40, %rax
	jne	.L1000
	addq	$40, %rsp
	.cfi_remember_state
	.cfi_def_cfa_offset 40
	popq	%rbx
	.cfi_def_cfa_offset 32
	popq	%rbp
	.cfi_def_cfa_offset 24
	popq	%r12
	.cfi_def_cfa_offset 16
	popq	%r13
	.cfi_def_cfa_offset 8
	ret
	.p2align 4,,10
	.p2align 3
.L977:
	.cfi_restore_state
	movl	8(%rbx), %eax
	leal	-1(%rax), %edx
	cmpl	$1, %eax
	movl	%edx, 8(%rbx)
	jne	.L958
	movq	(%rbx), %rax
	movq	%rbx, %rdi
	call	*16(%rax)
	movl	12(%rbx), %eax
	leal	-1(%rax), %edx
	movl	%edx, 12(%rbx)
	jmp	.L983
	.p2align 4,,10
	.p2align 3
.L997:
	lock addl	$1, 8(%rbx)
	jmp	.L964
	.p2align 4,,10
	.p2align 3
.L967:
	movl	8(%rbp), %eax
	leal	-1(%rax), %edx
	cmpl	$1, %eax
	movl	%edx, 8(%rbp)
	jne	.L966
	movq	0(%rbp), %rax
	movq	%rbp, %rdi
	call	*16(%rax)
	movl	12(%rbp), %eax
	leal	-1(%rax), %edx
	movl	%edx, 12(%rbp)
	jmp	.L982
	.p2align 4,,10
	.p2align 3
.L996:
	movzbl	40(%rbp), %edx
	movb	%dl, 0(%rbp)
	movq	%rbp, (%rax)
	jmp	.L960
	.p2align 4,,10
	.p2align 3
.L999:
	movq	(%rbx), %rax
	movq	%rbx, %rdi
	call	*16(%rax)
	movl	$-1, %eax
	lock xaddl	%eax, 12(%rbx)
.L983:
	cmpl	$1, %eax
	jne	.L958
	movq	(%rbx), %rax
	movq	%rbx, %rdi
	call	*24(%rax)
	jmp	.L958
	.p2align 4,,10
	.p2align 3
.L998:
	movq	0(%rbp), %rax
	movq	%rbp, %rdi
	call	*16(%rax)
	movl	$-1, %eax
	lock xaddl	%eax, 12(%rbp)
.L982:
	cmpl	$1, %eax
	jne	.L966
	movq	0(%rbp), %rax
	movq	%rbp, %rdi
	call	*24(%rax)
	jmp	.L966
.L1000:
	call	__stack_chk_fail@PLT
.L985:
	movq	8(%rsp), %rdi
	movq	%rax, %rbp
	testq	%rdi, %rdi
	je	.L972
	call	_ZNSt16_Sp_counted_baseILN9__gnu_cxx12_Lock_policyE2EE10_M_releaseEv@PLT
.L972:
	testq	%rbx, %rbx
	sfence
	je	.L974
	movq	%rbx, %rdi
	call	_ZNSt16_Sp_counted_baseILN9__gnu_cxx12_Lock_policyE2EE10_M_releaseEv@PLT
.L974:
	movq	%rbp, %rdi
.LEHB4:
	call	_Unwind_Resume@PLT
.LEHE4:
	.cfi_endproc
.LFE9650:
	.section	.gcc_except_table
.LLSDA9650:
	.byte	0xff
	.byte	0xff
	.byte	0x1
	.uleb128 .LLSDACSE9650-.LLSDACSB9650
.LLSDACSB9650:
	.uleb128 .LEHB3-.LFB9650
	.uleb128 .LEHE3-.LEHB3
	.uleb128 .L985-.LFB9650
	.uleb128 0
	.uleb128 .LEHB4-.LFB9650
	.uleb128 .LEHE4-.LEHB4
	.uleb128 0
	.uleb128 0
.LLSDACSE9650:
	.text
	.size	_ZN4asio6detail18completion_handlerIZN8asiodnp311LinkSession12ShutdownImplEvEUlvE_E11do_completeEPNS0_15task_io_serviceEPNS0_25task_io_service_operationERKSt10error_codem, .-_ZN4asio6detail18completion_handlerIZN8asiodnp311LinkSession12ShutdownImplEvEUlvE_E11do_completeEPNS0_15task_io_serviceEPNS0_25task_io_service_operationERKSt10error_codem
	.align 2
	.p2align 4,,15
	.globl	_ZN8asiodnp311LinkSession8ShutdownEv
	.type	_ZN8asiodnp311LinkSession8ShutdownEv, @function
_ZN8asiodnp311LinkSession8ShutdownEv:
.LFB7770:
	.cfi_startproc
	.cfi_personality 0x9b,DW.ref.__gxx_personality_v0
	.cfi_lsda 0x1b,.LLSDA7770
	pushq	%r14
	.cfi_def_cfa_offset 16
	.cfi_offset 14, -16
	pushq	%r13
	.cfi_def_cfa_offset 24
	.cfi_offset 13, -24
	pushq	%r12
	.cfi_def_cfa_offset 32
	.cfi_offset 12, -32
	pushq	%rbp
	.cfi_def_cfa_offset 40
	.cfi_offset 6, -40
	pushq	%rbx
	.cfi_def_cfa_offset 48
	.cfi_offset 3, -48
	subq	$64, %rsp
	.cfi_def_cfa_offset 112
	movq	32(%rdi), %rbx
	movq	%fs:40, %rax
	movq	%rax, 56(%rsp)
	xorl	%eax, %eax
	testq	%rbx, %rbx
	je	.L1002
	movl	8(%rbx), %eax
	leaq	8(%rbx), %rbp
	testl	%eax, %eax
	je	.L1002
.L1043:
	leal	1(%rax), %edx
	lock cmpxchgl	%edx, 0(%rbp)
	jne	.L1047
	movq	_ZL28__gthrw___pthread_key_createPjPFvPvE@GOTPCREL(%rip), %r12
	movq	136(%rdi), %rax
	movq	24(%rdi), %r13
	testq	%r12, %r12
	movq	24(%rax), %r14
	jne	.L1048
	addl	$1, 8(%rbx)
.L1008:
	movl	$16, %edi
	movq	$0, 32(%rsp)
.LEHB5:
	call	_Znwm@PLT
.LEHE5:
	leaq	_ZNSt14_Function_base13_Base_managerIZN8asiodnp311LinkSession8ShutdownEvEUlvE_E10_M_managerERSt9_Any_dataRKS5_St18_Manager_operation(%rip), %rcx
	movq	%r13, (%rax)
	leaq	16(%rsp), %r13
	movq	%rbx, 8(%rax)
	movq	%r14, %rdi
	movq	%rax, 16(%rsp)
	leaq	_ZNSt17_Function_handlerIFvvEZN8asiodnp311LinkSession8ShutdownEvEUlvE_E9_M_invokeERKSt9_Any_data(%rip), %rax
	movq	%rcx, 8(%rsp)
	movq	8(%rsp), %xmm0
	movq	%r13, %rsi
	movq	%rax, 8(%rsp)
	movhps	8(%rsp), %xmm0
	movaps	%xmm0, 32(%rsp)
.LEHB6:
	call	_ZN7asiopal8Executor18BlockUntilAndFlushERKSt8functionIFvvEE@PLT
.LEHE6:
	movq	32(%rsp), %rax
	testq	%rax, %rax
	je	.L1013
	movl	$3, %edx
	movq	%r13, %rsi
	movq	%r13, %rdi
	call	*%rax
.L1013:
	testq	%r12, %r12
	je	.L1014
	lock subl	$1, 0(%rbp)
	je	.L1049
.L1001:
	movq	56(%rsp), %rax
	xorq	%fs:40, %rax
	jne	.L1050
	addq	$64, %rsp
	.cfi_remember_state
	.cfi_def_cfa_offset 48
	popq	%rbx
	.cfi_def_cfa_offset 40
	popq	%rbp
	.cfi_def_cfa_offset 32
	popq	%r12
	.cfi_def_cfa_offset 24
	popq	%r13
	.cfi_def_cfa_offset 16
	popq	%r14
	.cfi_def_cfa_offset 8
	ret
	.p2align 4,,10
	.p2align 3
.L1048:
	.cfi_restore_state
	lock addl	$1, 0(%rbp)
	jmp	.L1008
	.p2align 4,,10
	.p2align 3
.L1014:
	movl	8(%rbx), %eax
	leal	-1(%rax), %edx
	cmpl	$1, %eax
	movl	%edx, 8(%rbx)
	jne	.L1001
	movq	(%rbx), %rax
	movq	%rbx, %rdi
	call	*16(%rax)
	movl	12(%rbx), %eax
	leal	-1(%rax), %edx
	movl	%edx, 12(%rbx)
	jmp	.L1021
	.p2align 4,,10
	.p2align 3
.L1049:
	movq	(%rbx), %rax
	movq	%rbx, %rdi
	call	*16(%rax)
	movl	$-1, %eax
	lock xaddl	%eax, 12(%rbx)
.L1021:
	cmpl	$1, %eax
	jne	.L1001
	movq	(%rbx), %rax
	movq	%rbx, %rdi
	call	*24(%rax)
	jmp	.L1001
.L1047:
	testl	%eax, %eax
	jne	.L1043
.L1002:
.LEHB7:
	call	_ZSt20__throw_bad_weak_ptrv@PLT
.LEHE7:
.L1050:
	call	__stack_chk_fail@PLT
.L1023:
	movq	%rax, %rbp
	movq	32(%rsp), %rax
	testq	%rax, %rax
	je	.L1012
	movl	$3, %edx
	movq	%r13, %rsi
	movq	%r13, %rdi
	call	*%rax
.L1012:
	movq	%rbx, %rdi
	call	_ZNSt16_Sp_counted_baseILN9__gnu_cxx12_Lock_policyE2EE10_M_releaseEv@PLT
	movq	%rbp, %rdi
.LEHB8:
	call	_Unwind_Resume@PLT
.LEHE8:
.L1024:
	movq	%rax, %rbp
	movq	32(%rsp), %rax
	testq	%rax, %rax
	je	.L1011
	leaq	16(%rsp), %rdi
	movl	$3, %edx
	movq	%rdi, %rsi
	call	*%rax
.L1011:
	movq	%rbx, %rdi
	call	_ZNSt16_Sp_counted_baseILN9__gnu_cxx12_Lock_policyE2EE10_M_releaseEv@PLT
	jmp	.L1012
	.cfi_endproc
.LFE7770:
	.section	.gcc_except_table
.LLSDA7770:
	.byte	0xff
	.byte	0xff
	.byte	0x1
	.uleb128 .LLSDACSE7770-.LLSDACSB7770
.LLSDACSB7770:
	.uleb128 .LEHB5-.LFB7770
	.uleb128 .LEHE5-.LEHB5
	.uleb128 .L1024-.LFB7770
	.uleb128 0
	.uleb128 .LEHB6-.LFB7770
	.uleb128 .LEHE6-.LEHB6
	.uleb128 .L1023-.LFB7770
	.uleb128 0
	.uleb128 .LEHB7-.LFB7770
	.uleb128 .LEHE7-.LEHB7
	.uleb128 0
	.uleb128 0
	.uleb128 .LEHB8-.LFB7770
	.uleb128 .LEHE8-.LEHB8
	.uleb128 0
	.uleb128 0
.LLSDACSE7770:
	.text
	.size	_ZN8asiodnp311LinkSession8ShutdownEv, .-_ZN8asiodnp311LinkSession8ShutdownEv
	.set	.LTHUNK2,_ZN8asiodnp311LinkSession8ShutdownEv
	.p2align 4,,15
	.globl	_ZThn40_N8asiodnp311LinkSession8ShutdownEv
	.type	_ZThn40_N8asiodnp311LinkSession8ShutdownEv, @function
_ZThn40_N8asiodnp311LinkSession8ShutdownEv:
.LFB10541:
	.cfi_startproc
	subq	$40, %rdi
	jmp	.LTHUNK2
	.cfi_endproc
.LFE10541:
	.size	_ZThn40_N8asiodnp311LinkSession8ShutdownEv, .-_ZThn40_N8asiodnp311LinkSession8ShutdownEv
	.align 2
	.p2align 4,,15
	.globl	_ZN8asiodnp311LinkSession5StartEv
	.type	_ZN8asiodnp311LinkSession5StartEv, @function
_ZN8asiodnp311LinkSession5StartEv:
.LFB7816:
	.cfi_startproc
	.cfi_personality 0x9b,DW.ref.__gxx_personality_v0
	.cfi_lsda 0x1b,.LLSDA7816
	pushq	%r15
	.cfi_def_cfa_offset 16
	.cfi_offset 15, -16
	pushq	%r14
	.cfi_def_cfa_offset 24
	.cfi_offset 14, -24
	pushq	%r13
	.cfi_def_cfa_offset 32
	.cfi_offset 13, -32
	pushq	%r12
	.cfi_def_cfa_offset 40
	.cfi_offset 12, -40
	pushq	%rbp
	.cfi_def_cfa_offset 48
	.cfi_offset 6, -48
	pushq	%rbx
	.cfi_def_cfa_offset 56
	.cfi_offset 3, -56
	subq	$88, %rsp
	.cfi_def_cfa_offset 144
	movq	32(%rdi), %rbx
	movq	136(%rdi), %r15
	movq	%fs:40, %rax
	movq	%rax, 72(%rsp)
	xorl	%eax, %eax
	testq	%rbx, %rbx
	je	.L1052
	movl	8(%rbx), %eax
	leaq	8(%rbx), %r12
	testl	%eax, %eax
	je	.L1052
	leal	1(%rax), %edx
	movq	%rdi, %rbp
	lock cmpxchgl	%edx, (%r12)
	jne	.L1055
.L1054:
	movq	24(%rbp), %rdx
	movq	48(%r15), %r14
	movq	_ZL28__gthrw___pthread_key_createPjPFvPvE@GOTPCREL(%rip), %r13
	leaq	8(%rdx), %rax
	testq	%rdx, %rdx
	movl	$0, %edx
	cmove	%rdx, %rax
	cmpq	%r14, %rbx
	movq	%rax, 40(%r15)
	je	.L1058
	testq	%r13, %r13
	je	.L1059
	lock addl	$1, (%r12)
	movq	48(%r15), %r14
	testq	%r14, %r14
	je	.L1061
	lock subl	$1, 8(%r14)
	je	.L1160
.L1061:
	movq	%rbx, 48(%r15)
.L1058:
	testq	%r13, %r13
	je	.L1064
	lock subl	$1, (%r12)
	je	.L1161
.L1066:
	movq	32(%rbp), %rbx
	testq	%rbx, %rbx
	je	.L1052
	movl	8(%rbx), %eax
	leaq	8(%rbx), %r12
.L1158:
	testl	%eax, %eax
	je	.L1052
	leal	1(%rax), %edx
	lock cmpxchgl	%edx, (%r12)
	jne	.L1158
	movq	120(%rbp), %rdi
	movq	24(%rbp), %r15
	leaq	568(%rbp), %r14
	movq	(%rdi), %rax
.LEHB9:
	call	*32(%rax)
.LEHE9:
	testq	%r13, %r13
	movq	%rax, 24(%rsp)
	jne	.L1162
	addl	$2, 8(%rbx)
.L1073:
	movl	$24, %edi
	movq	$0, 48(%rsp)
.LEHB10:
	call	_Znwm@PLT
.LEHE10:
	testq	%r13, %r13
	movq	%r14, (%rax)
	movq	%r15, 8(%rax)
	movq	%rbx, 16(%rax)
	jne	.L1163
	addl	$1, 8(%rbx)
.L1075:
	leaq	_ZNSt14_Function_base13_Base_managerIZN7openpal8TimerRef5StartIZN8asiodnp311LinkSession5StartEvEUlvE_EEbRKNS1_12TimeDurationERKT_EUlvE_E10_M_managerERSt9_Any_dataRKSF_St18_Manager_operation(%rip), %rcx
	movq	%rax, 32(%rsp)
	leaq	_ZNSt17_Function_handlerIFvvEZN7openpal8TimerRef5StartIZN8asiodnp311LinkSession5StartEvEUlvE_EEbRKNS1_12TimeDurationERKT_EUlvE_E9_M_invokeERKSt9_Any_data(%rip), %rax
	leaq	32(%rsp), %r15
	leaq	24(%rsp), %rsi
	movq	%r14, %rdi
	movq	%rcx, 8(%rsp)
	movq	8(%rsp), %xmm0
	movq	%r15, %rdx
	movq	%rax, 8(%rsp)
	movhps	8(%rsp), %xmm0
	movaps	%xmm0, 48(%rsp)
.LEHB11:
	call	_ZN7openpal8TimerRef11StartActionERKNS_12TimeDurationERKSt8functionIFvvEE@PLT
.LEHE11:
	movq	48(%rsp), %rax
	testq	%rax, %rax
	je	.L1080
	movl	$3, %edx
	movq	%r15, %rsi
	movq	%r15, %rdi
	call	*%rax
.L1080:
	testq	%r13, %r13
	je	.L1081
	lock subl	$1, (%r12)
	je	.L1164
.L1106:
	lock subl	$1, (%r12)
	je	.L1165
.L1088:
	movq	%rbp, %rdi
.LEHB12:
	call	_ZN8asiodnp311LinkSession12BeginReceiveEv@PLT
.LEHE12:
	testq	%r13, %r13
	je	.L1095
	lock subl	$1, (%r12)
	je	.L1166
.L1051:
	movq	72(%rsp), %rax
	xorq	%fs:40, %rax
	jne	.L1167
	addq	$88, %rsp
	.cfi_remember_state
	.cfi_def_cfa_offset 56
	popq	%rbx
	.cfi_def_cfa_offset 48
	popq	%rbp
	.cfi_def_cfa_offset 40
	popq	%r12
	.cfi_def_cfa_offset 32
	popq	%r13
	.cfi_def_cfa_offset 24
	popq	%r14
	.cfi_def_cfa_offset 16
	popq	%r15
	.cfi_def_cfa_offset 8
	ret
	.p2align 4,,10
	.p2align 3
.L1059:
	.cfi_restore_state
	addl	$1, 8(%rbx)
	testq	%r14, %r14
	je	.L1061
	movl	8(%r14), %eax
	leal	-1(%rax), %edx
	cmpl	$1, %eax
	movl	%edx, 8(%r14)
	jne	.L1061
	movq	(%r14), %rax
	movq	%r14, %rdi
	call	*16(%rax)
	movl	12(%r14), %eax
	leal	-1(%rax), %edx
	movl	%edx, 12(%r14)
.L1102:
	cmpl	$1, %eax
	jne	.L1061
	movq	(%r14), %rax
	movq	%r14, %rdi
	call	*24(%rax)
	jmp	.L1061
	.p2align 4,,10
	.p2align 3
.L1163:
	lock addl	$1, (%r12)
	jmp	.L1075
	.p2align 4,,10
	.p2align 3
.L1162:
	lock addl	$1, (%r12)
	lock addl	$1, (%r12)
	jmp	.L1073
	.p2align 4,,10
	.p2align 3
.L1095:
	movl	8(%rbx), %eax
	leal	-1(%rax), %edx
	cmpl	$1, %eax
	movl	%edx, 8(%rbx)
	jne	.L1051
	movq	(%rbx), %rax
	movq	%rbx, %rdi
	call	*16(%rax)
	movl	12(%rbx), %eax
	leal	-1(%rax), %edx
	movl	%edx, 12(%rbx)
.L1108:
	cmpl	$1, %eax
	jne	.L1051
	movq	(%rbx), %rax
	movq	%rbx, %rdi
	call	*24(%rax)
	jmp	.L1051
	.p2align 4,,10
	.p2align 3
.L1064:
	movl	8(%rbx), %eax
	leal	-1(%rax), %edx
	cmpl	$1, %eax
	movl	%edx, 8(%rbx)
	jne	.L1066
	movq	(%rbx), %rax
	movq	%rbx, %rdi
	call	*16(%rax)
	movl	12(%rbx), %eax
	leal	-1(%rax), %edx
	movl	%edx, 12(%rbx)
	jmp	.L1103
	.p2align 4,,10
	.p2align 3
.L1081:
	movl	8(%rbx), %eax
	leal	-1(%rax), %edx
	cmpl	$1, %eax
	movl	%edx, 8(%rbx)
	je	.L1168
.L1086:
	movl	8(%rbx), %eax
	leal	-1(%rax), %edx
	cmpl	$1, %eax
	movl	%edx, 8(%rbx)
	jne	.L1088
	.p2align 4,,10
	.p2align 3
.L1169:
	movq	(%rbx), %rax
	movq	%rbx, %rdi
	call	*16(%rax)
	movl	12(%rbx), %eax
	leal	-1(%rax), %edx
	movl	%edx, 12(%rbx)
.L1107:
	cmpl	$1, %eax
	jne	.L1088
	movq	(%rbx), %rax
	movq	%rbx, %rdi
	call	*24(%rax)
	jmp	.L1088
	.p2align 4,,10
	.p2align 3
.L1161:
	movq	(%rbx), %rax
	movq	%rbx, %rdi
	call	*16(%rax)
	movl	$-1, %eax
	lock xaddl	%eax, 12(%rbx)
.L1103:
	cmpl	$1, %eax
	jne	.L1066
	movq	(%rbx), %rax
	movq	%rbx, %rdi
	call	*24(%rax)
	jmp	.L1066
	.p2align 4,,10
	.p2align 3
.L1164:
	movq	(%rbx), %rax
	movq	%rbx, %rdi
	call	*16(%rax)
	lock subl	$1, 12(%rbx)
	jne	.L1106
	.p2align 4,,10
	.p2align 3
.L1104:
	movq	(%rbx), %rax
	movq	%rbx, %rdi
	call	*24(%rax)
	testq	%r13, %r13
	jne	.L1106
	movl	8(%rbx), %eax
	leal	-1(%rax), %edx
	cmpl	$1, %eax
	movl	%edx, 8(%rbx)
	jne	.L1088
	jmp	.L1169
	.p2align 4,,10
	.p2align 3
.L1168:
	movq	(%rbx), %rax
	movq	%rbx, %rdi
	call	*16(%rax)
	movl	12(%rbx), %eax
	leal	-1(%rax), %edx
	cmpl	$1, %eax
	movl	%edx, 12(%rbx)
	je	.L1104
	jmp	.L1086
	.p2align 4,,10
	.p2align 3
.L1160:
	movq	(%r14), %rax
	movq	%r14, %rdi
	call	*16(%rax)
	movl	$-1, %eax
	lock xaddl	%eax, 12(%r14)
	jmp	.L1102
	.p2align 4,,10
	.p2align 3
.L1166:
	movq	(%rbx), %rax
	movq	%rbx, %rdi
	call	*16(%rax)
	movl	$-1, %eax
	lock xaddl	%eax, 12(%rbx)
	jmp	.L1108
	.p2align 4,,10
	.p2align 3
.L1165:
	movq	(%rbx), %rax
	movq	%rbx, %rdi
	call	*16(%rax)
	movl	$-1, %eax
	lock xaddl	%eax, 12(%rbx)
	jmp	.L1107
.L1052:
.LEHB13:
	call	_ZSt20__throw_bad_weak_ptrv@PLT
.L1167:
	call	__stack_chk_fail@PLT
.L1055:
	testl	%eax, %eax
	je	.L1052
	leal	1(%rax), %edx
	lock cmpxchgl	%edx, (%r12)
	je	.L1054
	jmp	.L1055
.L1111:
	movq	%rax, %rbp
.L1094:
	movq	%rbx, %rdi
	call	_ZNSt16_Sp_counted_baseILN9__gnu_cxx12_Lock_policyE2EE10_M_releaseEv@PLT
	movq	%rbp, %rdi
	call	_Unwind_Resume@PLT
.LEHE13:
.L1112:
	movq	%rax, %rbp
	movq	48(%rsp), %rax
	testq	%rax, %rax
	je	.L1079
	movl	$3, %edx
	movq	%r15, %rsi
	movq	%r15, %rdi
	call	*%rax
.L1079:
	movq	%rbx, %rdi
	call	_ZNSt16_Sp_counted_baseILN9__gnu_cxx12_Lock_policyE2EE10_M_releaseEv@PLT
	movq	%rbx, %rdi
	call	_ZNSt16_Sp_counted_baseILN9__gnu_cxx12_Lock_policyE2EE10_M_releaseEv@PLT
	jmp	.L1094
.L1113:
	movq	%rax, %rbp
	movq	48(%rsp), %rax
	testq	%rax, %rax
	je	.L1079
	leaq	32(%rsp), %rdi
	movl	$3, %edx
	movq	%rdi, %rsi
	call	*%rax
	jmp	.L1079
	.cfi_endproc
.LFE7816:
	.section	.gcc_except_table
.LLSDA7816:
	.byte	0xff
	.byte	0xff
	.byte	0x1
	.uleb128 .LLSDACSE7816-.LLSDACSB7816
.LLSDACSB7816:
	.uleb128 .LEHB9-.LFB7816
	.uleb128 .LEHE9-.LEHB9
	.uleb128 .L1111-.LFB7816
	.uleb128 0
	.uleb128 .LEHB10-.LFB7816
	.uleb128 .LEHE10-.LEHB10
	.uleb128 .L1113-.LFB7816
	.uleb128 0
	.uleb128 .LEHB11-.LFB7816
	.uleb128 .LEHE11-.LEHB11
	.uleb128 .L1112-.LFB7816
	.uleb128 0
	.uleb128 .LEHB12-.LFB7816
	.uleb128 .LEHE12-.LEHB12
	.uleb128 .L1111-.LFB7816
	.uleb128 0
	.uleb128 .LEHB13-.LFB7816
	.uleb128 .LEHE13-.LEHB13
	.uleb128 0
	.uleb128 0
.LLSDACSE7816:
	.text
	.size	_ZN8asiodnp311LinkSession5StartEv, .-_ZN8asiodnp311LinkSession5StartEv
	.section	.rodata.str1.8,"aMS",@progbits,1
	.align 8
.LC23:
	.string	"SocketSession already has a master bound"
	.align 8
.LC24:
	.string	"/home/raihan/OpenPLC_v3/utils/dnp3_src/cpp/libs/src/asiodnp3/LinkSession.cpp(161)"
	.text
	.align 2
	.p2align 4,,15
	.globl	_ZN8asiodnp311LinkSession13AcceptSessionERKNSt7__cxx1112basic_stringIcSt11char_traitsIcESaIcEEESt10shared_ptrIN8opendnp311ISOEHandlerEES9_INSA_18IMasterApplicationEERKNS_17MasterStackConfigE
	.type	_ZN8asiodnp311LinkSession13AcceptSessionERKNSt7__cxx1112basic_stringIcSt11char_traitsIcESaIcEEESt10shared_ptrIN8opendnp311ISOEHandlerEES9_INSA_18IMasterApplicationEERKNS_17MasterStackConfigE, @function
_ZN8asiodnp311LinkSession13AcceptSessionERKNSt7__cxx1112basic_stringIcSt11char_traitsIcESaIcEEESt10shared_ptrIN8opendnp311ISOEHandlerEES9_INSA_18IMasterApplicationEERKNS_17MasterStackConfigE:
.LFB7815:
	.cfi_startproc
	.cfi_personality 0x9b,DW.ref.__gxx_personality_v0
	.cfi_lsda 0x1b,.LLSDA7815
	pushq	%rbp
	.cfi_def_cfa_offset 16
	.cfi_offset 6, -16
	movq	%rsp, %rbp
	.cfi_def_cfa_register 6
	pushq	%r14
	pushq	%r13
	pushq	%r12
	pushq	%rbx
	.cfi_offset 14, -24
	.cfi_offset 13, -32
	.cfi_offset 12, -40
	.cfi_offset 3, -48
	movq	%rdi, %r14
	movq	%rsi, %rbx
	subq	$80, %rsp
	movq	%fs:40, %rax
	movq	%rax, -40(%rbp)
	xorl	%eax, %eax
	cmpq	$0, 592(%rsi)
	je	.L1171
	leaq	-64(%rbp), %r12
	addq	$64, %rbx
	movl	$2, -64(%rbp)
	movq	%rbx, %rdi
	movq	%r12, %rsi
.LEHB14:
	call	_ZNK7openpal6Logger9IsEnabledERKNS_10LogFiltersE@PLT
	testb	%al, %al
	jne	.L1229
.L1172:
	movq	$0, (%r14)
	movq	$0, 8(%r14)
.L1170:
	movq	-40(%rbp), %rcx
	xorq	%fs:40, %rcx
	movq	%r14, %rax
	jne	.L1230
	leaq	-32(%rbp), %rsp
	popq	%rbx
	popq	%r12
	popq	%r13
	popq	%r14
	popq	%rbp
	.cfi_remember_state
	.cfi_def_cfa 7, 8
	ret
	.p2align 4,,10
	.p2align 3
.L1229:
	.cfi_restore_state
	leaq	.LC23(%rip), %rcx
	leaq	.LC24(%rip), %rdx
	movq	%r12, %rsi
	movq	%rbx, %rdi
	movl	$2, -64(%rbp)
	call	_ZN7openpal6Logger3LogERKNS_10LogFiltersEPKcS5_@PLT
	jmp	.L1172
	.p2align 4,,10
	.p2align 3
.L1171:
	movq	80(%rsi), %rdi
	movq	%rdx, %rsi
	movq	%r9, -104(%rbp)
	movq	%r8, -96(%rbp)
	movq	%rcx, -88(%rbp)
	call	_ZNSt7__cxx1112basic_stringIcSt11char_traitsIcESaIcEE9_M_assignERKS4_@PLT
.LEHE14:
	movq	32(%rbx), %rax
	testq	%rax, %rax
	movq	%rax, -72(%rbp)
	je	.L1174
	leaq	8(%rax), %rdx
	movl	8(%rax), %eax
	testl	%eax, %eax
	je	.L1174
	leal	1(%rax), %esi
	lock cmpxchgl	%esi, (%rdx)
	movq	-88(%rbp), %rcx
	movq	-96(%rbp), %r8
	movq	-104(%rbp), %r9
	jne	.L1177
.L1176:
	movq	24(%rbx), %rax
	leaq	-64(%rbp), %rdi
	leaq	64(%rbx), %rsi
	movq	%rax, -80(%rbp)
	movq	136(%rbx), %rax
	pushq	%r9
	leaq	-80(%rbp), %r9
	pushq	%rbx
	leaq	24(%rax), %rdx
.LEHB15:
	.cfi_escape 0x2e,0x10
	call	_ZN8asiodnp318MasterSessionStack6CreateERKN7openpal6LoggerERKSt10shared_ptrIN7asiopal8ExecutorEERKS5_IN8opendnp311ISOEHandlerEERKS5_INSB_18IMasterApplicationEERKS5_INS_11LinkSessionEERNSB_7ILinkTxERKNS_17MasterStackConfigE@PLT
.LEHE15:
	movq	600(%rbx), %r12
	pxor	%xmm1, %xmm1
	movdqa	-64(%rbp), %xmm0
	popq	%rax
	testq	%r12, %r12
	popq	%rdx
	movaps	%xmm1, -64(%rbp)
	movups	%xmm0, 592(%rbx)
	je	.L1180
	movq	_ZL28__gthrw___pthread_key_createPjPFvPvE@GOTPCREL(%rip), %r13
	testq	%r13, %r13
	je	.L1181
	lock subl	$1, 8(%r12)
	je	.L1182
	movq	-56(%rbp), %r12
	testq	%r12, %r12
	je	.L1180
.L1183:
	lock subl	$1, 8(%r12)
	je	.L1231
	.p2align 4,,10
	.p2align 3
.L1180:
	movq	-72(%rbp), %r12
	testq	%r12, %r12
	je	.L1192
	cmpq	$0, _ZL28__gthrw___pthread_key_createPjPFvPvE@GOTPCREL(%rip)
	je	.L1193
	lock subl	$1, 8(%r12)
	je	.L1232
.L1192:
	movq	592(%rbx), %rax
	movq	%rax, (%r14)
	movq	600(%rbx), %rax
	testq	%rax, %rax
	movq	%rax, 8(%r14)
	je	.L1170
	cmpq	$0, _ZL28__gthrw___pthread_key_createPjPFvPvE@GOTPCREL(%rip)
	jne	.L1233
	addl	$1, 8(%rax)
	jmp	.L1170
	.p2align 4,,10
	.p2align 3
.L1233:
	lock addl	$1, 8(%rax)
	jmp	.L1170
	.p2align 4,,10
	.p2align 3
.L1193:
	movl	8(%r12), %eax
	leal	-1(%rax), %edx
	cmpl	$1, %eax
	movl	%edx, 8(%r12)
	jne	.L1192
	movq	(%r12), %rax
	movq	%r12, %rdi
	call	*16(%rax)
	movl	12(%r12), %eax
	leal	-1(%rax), %edx
	movl	%edx, 12(%r12)
	jmp	.L1202
	.p2align 4,,10
	.p2align 3
.L1181:
	movl	8(%r12), %eax
	leal	-1(%rax), %edx
	cmpl	$1, %eax
	movl	%edx, 8(%r12)
	jne	.L1180
	movq	(%r12), %rax
	movq	%r12, %rdi
	call	*16(%rax)
	movl	12(%r12), %eax
	leal	-1(%rax), %edx
	movl	%edx, 12(%r12)
.L1200:
	cmpl	$1, %eax
	je	.L1186
.L1228:
	movq	-56(%rbp), %r12
	testq	%r12, %r12
	je	.L1180
	testq	%r13, %r13
	jne	.L1183
	movl	8(%r12), %eax
	leal	-1(%rax), %edx
	cmpl	$1, %eax
	movl	%edx, 8(%r12)
	jne	.L1180
	movq	(%r12), %rax
	movq	%r12, %rdi
	call	*16(%rax)
	movl	12(%r12), %eax
	leal	-1(%rax), %edx
	movl	%edx, 12(%r12)
	jmp	.L1201
	.p2align 4,,10
	.p2align 3
.L1231:
	movq	(%r12), %rax
	movq	%r12, %rdi
	call	*16(%rax)
	movl	$-1, %eax
	lock xaddl	%eax, 12(%r12)
.L1201:
	cmpl	$1, %eax
	jne	.L1180
	movq	(%r12), %rax
	movq	%r12, %rdi
	call	*24(%rax)
	jmp	.L1180
	.p2align 4,,10
	.p2align 3
.L1232:
	movq	(%r12), %rax
	movq	%r12, %rdi
	call	*16(%rax)
	movl	$-1, %eax
	lock xaddl	%eax, 12(%r12)
.L1202:
	cmpl	$1, %eax
	jne	.L1192
	movq	(%r12), %rax
	movq	%r12, %rdi
	call	*24(%rax)
	jmp	.L1192
	.p2align 4,,10
	.p2align 3
.L1182:
	movq	(%r12), %rax
	movq	%r12, %rdi
	call	*16(%rax)
	movl	$-1, %eax
	lock xaddl	%eax, 12(%r12)
	jmp	.L1200
	.p2align 4,,10
	.p2align 3
.L1186:
	movq	(%r12), %rax
	movq	%r12, %rdi
	call	*24(%rax)
	jmp	.L1228
.L1230:
	call	__stack_chk_fail@PLT
.L1174:
.LEHB16:
	call	_ZSt20__throw_bad_weak_ptrv@PLT
.L1177:
	testl	%eax, %eax
	je	.L1174
	leal	1(%rax), %esi
	lock cmpxchgl	%esi, (%rdx)
	je	.L1176
	jmp	.L1177
.L1204:
	movq	-72(%rbp), %rdi
	movq	%rax, %rbx
	testq	%rdi, %rdi
	je	.L1199
	call	_ZNSt16_Sp_counted_baseILN9__gnu_cxx12_Lock_policyE2EE10_M_releaseEv@PLT
.L1199:
	movq	%rbx, %rdi
	call	_Unwind_Resume@PLT
.LEHE16:
	.cfi_endproc
.LFE7815:
	.section	.gcc_except_table
.LLSDA7815:
	.byte	0xff
	.byte	0xff
	.byte	0x1
	.uleb128 .LLSDACSE7815-.LLSDACSB7815
.LLSDACSB7815:
	.uleb128 .LEHB14-.LFB7815
	.uleb128 .LEHE14-.LEHB14
	.uleb128 0
	.uleb128 0
	.uleb128 .LEHB15-.LFB7815
	.uleb128 .LEHE15-.LEHB15
	.uleb128 .L1204-.LFB7815
	.uleb128 0
	.uleb128 .LEHB16-.LFB7815
	.uleb128 .LEHE16-.LEHB16
	.uleb128 0
	.uleb128 0
.LLSDACSE7815:
	.text
	.size	_ZN8asiodnp311LinkSession13AcceptSessionERKNSt7__cxx1112basic_stringIcSt11char_traitsIcESaIcEEESt10shared_ptrIN8opendnp311ISOEHandlerEES9_INSA_18IMasterApplicationEERKNS_17MasterStackConfigE, .-_ZN8asiodnp311LinkSession13AcceptSessionERKNSt7__cxx1112basic_stringIcSt11char_traitsIcESaIcEEESt10shared_ptrIN8opendnp311ISOEHandlerEES9_INSA_18IMasterApplicationEERKNS_17MasterStackConfigE
	.set	.LTHUNK6,_ZN8asiodnp311LinkSession13AcceptSessionERKNSt7__cxx1112basic_stringIcSt11char_traitsIcESaIcEEESt10shared_ptrIN8opendnp311ISOEHandlerEES9_INSA_18IMasterApplicationEERKNS_17MasterStackConfigE
	.p2align 4,,15
	.globl	_ZThn48_N8asiodnp311LinkSession13AcceptSessionERKNSt7__cxx1112basic_stringIcSt11char_traitsIcESaIcEEESt10shared_ptrIN8opendnp311ISOEHandlerEES9_INSA_18IMasterApplicationEERKNS_17MasterStackConfigE
	.type	_ZThn48_N8asiodnp311LinkSession13AcceptSessionERKNSt7__cxx1112basic_stringIcSt11char_traitsIcESaIcEEESt10shared_ptrIN8opendnp311ISOEHandlerEES9_INSA_18IMasterApplicationEERKNS_17MasterStackConfigE, @function
_ZThn48_N8asiodnp311LinkSession13AcceptSessionERKNSt7__cxx1112basic_stringIcSt11char_traitsIcESaIcEEESt10shared_ptrIN8opendnp311ISOEHandlerEES9_INSA_18IMasterApplicationEERKNS_17MasterStackConfigE:
.LFB10542:
	.cfi_startproc
	subq	$48, %rsi
	jmp	.LTHUNK6
	.cfi_endproc
.LFE10542:
	.size	_ZThn48_N8asiodnp311LinkSession13AcceptSessionERKNSt7__cxx1112basic_stringIcSt11char_traitsIcESaIcEEESt10shared_ptrIN8opendnp311ISOEHandlerEES9_INSA_18IMasterApplicationEERKNS_17MasterStackConfigE, .-_ZThn48_N8asiodnp311LinkSession13AcceptSessionERKNSt7__cxx1112basic_stringIcSt11char_traitsIcESaIcEEESt10shared_ptrIN8opendnp311ISOEHandlerEES9_INSA_18IMasterApplicationEERKNS_17MasterStackConfigE
	.align 2
	.p2align 4,,15
	.globl	_ZN8asiodnp311LinkSession12ShutdownImplEv
	.type	_ZN8asiodnp311LinkSession12ShutdownImplEv, @function
_ZN8asiodnp311LinkSession12ShutdownImplEv:
.LFB7790:
	.cfi_startproc
	.cfi_personality 0x9b,DW.ref.__gxx_personality_v0
	.cfi_lsda 0x1b,.LLSDA7790
	pushq	%r15
	.cfi_def_cfa_offset 16
	.cfi_offset 15, -16
	pushq	%r14
	.cfi_def_cfa_offset 24
	.cfi_offset 14, -24
	pushq	%r13
	.cfi_def_cfa_offset 32
	.cfi_offset 13, -32
	pushq	%r12
	.cfi_def_cfa_offset 40
	.cfi_offset 12, -40
	pushq	%rbp
	.cfi_def_cfa_offset 48
	.cfi_offset 6, -48
	pushq	%rbx
	.cfi_def_cfa_offset 56
	.cfi_offset 3, -56
	subq	$88, %rsp
	.cfi_def_cfa_offset 144
	movq	%fs:40, %rax
	movq	%rax, 72(%rsp)
	xorl	%eax, %eax
	cmpb	$0, 56(%rdi)
	je	.L1433
.L1234:
	movq	72(%rsp), %rax
	xorq	%fs:40, %rax
	jne	.L1434
	addq	$88, %rsp
	.cfi_remember_state
	.cfi_def_cfa_offset 56
	popq	%rbx
	.cfi_def_cfa_offset 48
	popq	%rbp
	.cfi_def_cfa_offset 40
	popq	%r12
	.cfi_def_cfa_offset 32
	popq	%r13
	.cfi_def_cfa_offset 24
	popq	%r14
	.cfi_def_cfa_offset 16
	popq	%r15
	.cfi_def_cfa_offset 8
	ret
	.p2align 4,,10
	.p2align 3
.L1433:
	.cfi_restore_state
	movb	$1, 56(%rdi)
	movq	%rdi, %rbp
	movq	120(%rdi), %rdi
	movq	(%rdi), %rax
	movq	48(%rax), %rcx
	movq	592(%rbp), %rax
	movq	%rax, 48(%rsp)
	movq	600(%rbp), %rax
	testq	%rax, %rax
	movq	%rax, 56(%rsp)
	je	.L1236
	cmpq	$0, _ZL28__gthrw___pthread_key_createPjPFvPvE@GOTPCREL(%rip)
	jne	.L1435
	addl	$1, 8(%rax)
.L1236:
	leaq	48(%rsp), %r14
	movq	96(%rbp), %rsi
	movq	%r14, %rdx
.LEHB17:
	call	*%rcx
.LEHE17:
	movq	56(%rsp), %rbx
	testq	%rbx, %rbx
	je	.L1239
	cmpq	$0, _ZL28__gthrw___pthread_key_createPjPFvPvE@GOTPCREL(%rip)
	je	.L1240
	lock subl	$1, 8(%rbx)
	je	.L1436
.L1239:
	movq	592(%rbp), %rdi
	testq	%rdi, %rdi
	je	.L1244
.LEHB18:
	call	_ZN8asiodnp318MasterSessionStack16OnLowerLayerDownEv@PLT
.L1244:
	leaq	568(%rbp), %rdi
	call	_ZN7openpal8TimerRef6CancelEv@PLT
	movq	136(%rbp), %r12
	cmpb	$0, 56(%r12)
	je	.L1437
.L1246:
	movq	32(%rbp), %rbx
	testq	%rbx, %rbx
	je	.L1247
	movl	8(%rbx), %eax
	leaq	8(%rbx), %r12
.L1432:
	testl	%eax, %eax
	je	.L1247
	leal	1(%rax), %edx
	lock cmpxchgl	%edx, (%r12)
	jne	.L1432
	movq	_ZL28__gthrw___pthread_key_createPjPFvPvE@GOTPCREL(%rip), %r13
	movq	24(%rbp), %rax
	movq	136(%rbp), %rdx
	testq	%r13, %r13
	movq	24(%rdx), %rbp
	movq	%rax, 48(%rsp)
	movq	%rbx, 56(%rsp)
	jne	.L1438
	addl	$1, 8(%rbx)
	movq	%rbx, %r15
.L1293:
	movq	40(%rbp), %rax
	movq	%r14, %rdi
	movq	%rax, (%rsp)
	xorl	%eax, %eax
	call	_ZN4asio28asio_handler_is_continuationEz@PLT
	movb	%al, 8(%rsp)
	.byte	0x66
	leaq	_ZN4asio6detail15keyword_tss_ptrINS0_10call_stackINS0_15task_io_serviceENS0_27task_io_service_thread_infoEE7contextEE6value_E@tlsgd(%rip), %rdi
	.value	0x6666
	rex64
	call	__tls_get_addr@PLT
	movq	(%rax), %rax
	testq	%rax, %rax
	je	.L1294
	movq	8(%rax), %rax
	testq	%rax, %rax
	je	.L1294
	movq	(%rax), %r14
	testq	%r14, %r14
	je	.L1294
	movq	$0, (%rax)
	movzbl	(%r14), %eax
	cmpb	$39, %al
	jbe	.L1295
	movb	%al, 40(%r14)
.L1296:
	leaq	_ZN4asio6detail18completion_handlerIZN8asiodnp311LinkSession12ShutdownImplEvEUlvE_E11do_completeEPNS0_15task_io_serviceEPNS0_25task_io_service_operationERKSt10error_codem(%rip), %rax
	pxor	%xmm0, %xmm0
	movq	$0, (%r14)
	movl	$0, 16(%r14)
	movq	%rax, 8(%r14)
	movq	48(%rsp), %rax
	movq	%r15, 32(%r14)
	movq	%rax, 24(%r14)
	movaps	%xmm0, 48(%rsp)
	movq	48(%rbp), %rax
	leaq	24(%rax), %rdi
	call	pthread_mutex_lock@PLT
	movq	48(%rbp), %rdi
	cmpb	$0, 64(%rdi)
	je	.L1439
	cmpq	$0, 80(%rdi)
	movq	$0, (%r14)
	je	.L1297
	movq	80(%rdi), %rax
	movq	%r14, (%rax)
	movq	%r14, 80(%rdi)
.L1298:
	addq	$24, %rdi
	call	pthread_mutex_unlock@PLT
.L1316:
	testq	%r13, %r13
	je	.L1323
.L1322:
	lock subl	$1, (%r12)
	jne	.L1234
	movq	(%rbx), %rax
	movq	%rbx, %rdi
	call	*16(%rax)
	movl	$-1, %eax
	lock xaddl	%eax, 12(%rbx)
.L1339:
	cmpl	$1, %eax
	jne	.L1234
	movq	(%rbx), %rax
	movq	%rbx, %rdi
	call	*24(%rax)
	jmp	.L1234
	.p2align 4,,10
	.p2align 3
.L1437:
	movq	(%r12), %rax
	movb	$1, 56(%r12)
	movq	%r12, %rdi
	call	*32(%rax)
.LEHE18:
	movq	16(%r12), %rbx
	testq	%rbx, %rbx
	je	.L1247
	leaq	8(%rbx), %rax
	movq	%rax, %rsi
	movq	%rax, 8(%rsp)
	movl	8(%rbx), %eax
	testl	%eax, %eax
	je	.L1247
	leal	1(%rax), %edx
	lock cmpxchgl	%edx, (%rsi)
	jne	.L1250
.L1249:
	movq	_ZL28__gthrw___pthread_key_createPjPFvPvE@GOTPCREL(%rip), %r13
	movq	8(%r12), %rax
	movq	24(%r12), %r12
	movq	%rbx, 56(%rsp)
	testq	%r13, %r13
	movq	%rax, 48(%rsp)
	je	.L1252
	movq	8(%rsp), %rax
	lock addl	$1, (%rax)
	movq	56(%rsp), %rax
	movq	%rax, (%rsp)
.L1253:
	movq	40(%r12), %rax
	movq	%r14, %rdi
	movq	%rax, 16(%rsp)
	xorl	%eax, %eax
	call	_ZN4asio28asio_handler_is_continuationEz@PLT
	movb	%al, 31(%rsp)
	.byte	0x66
	leaq	_ZN4asio6detail15keyword_tss_ptrINS0_10call_stackINS0_15task_io_serviceENS0_27task_io_service_thread_infoEE7contextEE6value_E@tlsgd(%rip), %rdi
	.value	0x6666
	rex64
	call	__tls_get_addr@PLT
	movq	(%rax), %rax
	testq	%rax, %rax
	je	.L1254
	movq	8(%rax), %rax
	testq	%rax, %rax
	je	.L1254
	movq	(%rax), %r15
	testq	%r15, %r15
	je	.L1254
	movq	$0, (%rax)
	movzbl	(%r15), %eax
	cmpb	$39, %al
	jbe	.L1255
	movb	%al, 40(%r15)
.L1256:
	movq	_ZN4asio6detail18completion_handlerIZN7asiopal13IAsyncChannel8ShutdownEvEUlvE_E11do_completeEPNS0_15task_io_serviceEPNS0_25task_io_service_operationERKSt10error_codem@GOTPCREL(%rip), %rax
	pxor	%xmm0, %xmm0
	movq	$0, (%r15)
	movl	$0, 16(%r15)
	movq	%rax, 8(%r15)
	movq	48(%rsp), %rax
	movq	%rax, 24(%r15)
	movq	(%rsp), %rax
	movq	%rax, 32(%r15)
	movaps	%xmm0, 48(%rsp)
	movq	48(%r12), %rax
	leaq	24(%rax), %rdi
	call	pthread_mutex_lock@PLT
	movq	48(%r12), %rdi
	cmpb	$0, 64(%rdi)
	je	.L1440
	cmpq	$0, 80(%rdi)
	movq	$0, (%r15)
	je	.L1257
	movq	80(%rdi), %rax
	movq	%r15, (%rax)
	movq	%r15, 80(%rdi)
.L1258:
	addq	$24, %rdi
	call	pthread_mutex_unlock@PLT
.L1276:
	testq	%r13, %r13
	je	.L1283
.L1282:
	movq	8(%rsp), %rcx
	lock subl	$1, (%rcx)
	jne	.L1246
	movq	(%rbx), %rax
	movq	%rbx, %rdi
	call	*16(%rax)
	movl	$-1, %eax
	lock xaddl	%eax, 12(%rbx)
.L1337:
	cmpl	$1, %eax
	jne	.L1246
	movq	(%rbx), %rax
	movq	%rbx, %rdi
	call	*24(%rax)
	jmp	.L1246
	.p2align 4,,10
	.p2align 3
.L1438:
	lock addl	$1, (%r12)
	movq	56(%rsp), %r15
	jmp	.L1293
	.p2align 4,,10
	.p2align 3
.L1435:
	lock addl	$1, 8(%rax)
	jmp	.L1236
	.p2align 4,,10
	.p2align 3
.L1295:
	movq	%r14, %rdi
	call	_ZdlPv@PLT
.L1294:
	movl	$41, %edi
.LEHB19:
	call	_Znwm@PLT
.LEHE19:
	movq	%rax, %r14
	movb	$40, 40(%rax)
	jmp	.L1296
	.p2align 4,,10
	.p2align 3
.L1255:
	movq	%r15, %rdi
	call	_ZdlPv@PLT
.L1254:
	movl	$41, %edi
.LEHB20:
	call	_Znwm@PLT
.LEHE20:
	movq	%rax, %r15
	movb	$40, 40(%rax)
	jmp	.L1256
	.p2align 4,,10
	.p2align 3
.L1439:
	movb	$1, 64(%rdi)
	movq	48(%rbp), %rax
	leaq	24(%rax), %rdi
	call	pthread_mutex_unlock@PLT
	movq	48(%rbp), %r15
	movq	$0, (%r14)
	cmpq	$0, 96(%r15)
	je	.L1300
	movq	96(%r15), %rax
	movq	%r14, (%rax)
	movq	%r14, 96(%r15)
.L1301:
	movq	(%rsp), %rax
	movq	40(%rax), %rbp
	cmpb	$0, 40(%rbp)
	jne	.L1345
	cmpb	$0, 8(%rsp)
	je	.L1302
.L1345:
	.byte	0x66
	leaq	_ZN4asio6detail15keyword_tss_ptrINS0_10call_stackINS0_15task_io_serviceENS0_27task_io_service_thread_infoEE7contextEE6value_E@tlsgd(%rip), %rdi
	.value	0x6666
	rex64
	call	__tls_get_addr@PLT
	movq	(%rax), %rax
	testq	%rax, %rax
	je	.L1302
	cmpq	%rbp, (%rax)
	jne	.L1305
	jmp	.L1304
	.p2align 4,,10
	.p2align 3
.L1426:
	cmpq	(%rax), %rbp
	je	.L1304
.L1305:
	movq	16(%rax), %rax
	testq	%rax, %rax
	jne	.L1426
.L1302:
	lock addq	$1, 184(%rbp)
	leaq	48(%rbp), %r14
	movq	%r14, %rdi
	call	pthread_mutex_lock@PLT
	cmpq	$0, 200(%rbp)
	movq	$0, (%r15)
	je	.L1310
	movq	200(%rbp), %rax
	movq	%r15, (%rax)
	movq	%r15, 200(%rbp)
.L1311:
	movq	136(%rbp), %rax
	orq	$1, %rax
	cmpq	$1, %rax
	movq	%rax, 136(%rbp)
	jne	.L1441
	cmpb	$0, 176(%rbp)
	jne	.L1314
	movq	144(%rbp), %rax
	testq	%rax, %rax
	je	.L1314
	leaq	88(%rax), %rdx
	movb	$1, 176(%rbp)
	movl	$-2147483639, 36(%rsp)
	leaq	36(%rsp), %rcx
	movl	$3, %esi
	movq	%rdx, 40(%rsp)
	movl	88(%rax), %edx
	movl	96(%rax), %edi
	call	epoll_ctl@PLT
.L1314:
	movq	%r14, %rdi
	call	pthread_mutex_unlock@PLT
.L1313:
	movq	56(%rsp), %rbp
.L1309:
	testq	%rbp, %rbp
	je	.L1316
	testq	%r13, %r13
	je	.L1317
	lock subl	$1, 8(%rbp)
	jne	.L1322
	movq	0(%rbp), %rax
	movq	%rbp, %rdi
	call	*16(%rax)
	movl	$-1, %eax
	lock xaddl	%eax, 12(%rbp)
.L1338:
	cmpl	$1, %eax
	jne	.L1316
	movq	0(%rbp), %rax
	movq	%rbp, %rdi
	call	*24(%rax)
	jmp	.L1316
	.p2align 4,,10
	.p2align 3
.L1240:
	movl	8(%rbx), %eax
	leal	-1(%rax), %edx
	cmpl	$1, %eax
	movl	%edx, 8(%rbx)
	jne	.L1239
	movq	(%rbx), %rax
	movq	%rbx, %rdi
	call	*16(%rax)
	movl	12(%rbx), %eax
	leal	-1(%rax), %edx
	movl	%edx, 12(%rbx)
	jmp	.L1335
	.p2align 4,,10
	.p2align 3
.L1297:
	movq	%r14, 80(%rdi)
	movq	%r14, 72(%rdi)
	jmp	.L1298
	.p2align 4,,10
	.p2align 3
.L1252:
	addl	$1, 8(%rbx)
	movq	%rbx, (%rsp)
	jmp	.L1253
	.p2align 4,,10
	.p2align 3
.L1436:
	movq	(%rbx), %rax
	movq	%rbx, %rdi
	call	*16(%rax)
	movl	$-1, %eax
	lock xaddl	%eax, 12(%rbx)
.L1335:
	cmpl	$1, %eax
	jne	.L1239
	movq	(%rbx), %rax
	movq	%rbx, %rdi
	call	*24(%rax)
	jmp	.L1239
	.p2align 4,,10
	.p2align 3
.L1283:
	movl	8(%rbx), %eax
	leal	-1(%rax), %edx
	cmpl	$1, %eax
	movl	%edx, 8(%rbx)
	jne	.L1246
	movq	(%rbx), %rax
	movq	%rbx, %rdi
	call	*16(%rax)
	movl	12(%rbx), %eax
	leal	-1(%rax), %edx
	movl	%edx, 12(%rbx)
	jmp	.L1337
	.p2align 4,,10
	.p2align 3
.L1440:
	movb	$1, 64(%rdi)
	movq	48(%r12), %rax
	leaq	24(%rax), %rdi
	call	pthread_mutex_unlock@PLT
	movq	48(%r12), %rcx
	movq	$0, (%r15)
	cmpq	$0, 96(%rcx)
	je	.L1260
	movq	96(%rcx), %rax
	movq	%r15, (%rax)
	movq	%r15, 96(%rcx)
.L1261:
	movq	16(%rsp), %rax
	movq	40(%rax), %r12
	cmpb	$0, 40(%r12)
	jne	.L1344
	cmpb	$0, 31(%rsp)
	je	.L1262
.L1344:
	movq	%rcx, (%rsp)
	.byte	0x66
	leaq	_ZN4asio6detail15keyword_tss_ptrINS0_10call_stackINS0_15task_io_serviceENS0_27task_io_service_thread_infoEE7contextEE6value_E@tlsgd(%rip), %rdi
	.value	0x6666
	rex64
	call	__tls_get_addr@PLT
	movq	(%rsp), %rcx
	movq	(%rax), %rax
	testq	%rax, %rax
	jne	.L1424
	jmp	.L1262
	.p2align 4,,10
	.p2align 3
.L1265:
	movq	16(%rax), %rax
	testq	%rax, %rax
	je	.L1262
.L1424:
	cmpq	(%rax), %r12
	jne	.L1265
	movq	8(%rax), %rax
	testq	%rax, %rax
	je	.L1262
	addq	$1, 24(%rax)
	cmpq	$0, 16(%rax)
	movq	$0, (%rcx)
	je	.L1268
	movq	16(%rax), %rdx
	movq	56(%rsp), %r12
	movq	%rcx, (%rdx)
	movq	%rcx, 16(%rax)
.L1269:
	testq	%r12, %r12
	je	.L1276
	testq	%r13, %r13
	je	.L1277
	lock subl	$1, 8(%r12)
	jne	.L1282
	movq	(%r12), %rax
	movq	%r12, %rdi
	call	*16(%rax)
	movl	$-1, %eax
	lock xaddl	%eax, 12(%r12)
.L1336:
	cmpl	$1, %eax
	jne	.L1276
	movq	(%r12), %rax
	movq	%r12, %rdi
	call	*24(%rax)
	jmp	.L1276
	.p2align 4,,10
	.p2align 3
.L1323:
	movl	8(%rbx), %eax
	leal	-1(%rax), %edx
	cmpl	$1, %eax
	movl	%edx, 8(%rbx)
	jne	.L1234
	movq	(%rbx), %rax
	movq	%rbx, %rdi
	call	*16(%rax)
	movl	12(%rbx), %eax
	leal	-1(%rax), %edx
	movl	%edx, 12(%rbx)
	jmp	.L1339
	.p2align 4,,10
	.p2align 3
.L1317:
	movl	8(%rbp), %eax
	leal	-1(%rax), %edx
	cmpl	$1, %eax
	movl	%edx, 8(%rbp)
	jne	.L1323
	movq	0(%rbp), %rax
	movq	%rbp, %rdi
	call	*16(%rax)
	movl	12(%rbp), %eax
	leal	-1(%rax), %edx
	movl	%edx, 12(%rbp)
	jmp	.L1338
	.p2align 4,,10
	.p2align 3
.L1304:
	movq	8(%rax), %rax
	testq	%rax, %rax
	je	.L1302
	addq	$1, 24(%rax)
	cmpq	$0, 16(%rax)
	movq	$0, (%r15)
	je	.L1308
	movq	16(%rax), %rdx
	movq	56(%rsp), %rbp
	movq	%r15, (%rdx)
	movq	%r15, 16(%rax)
	jmp	.L1309
	.p2align 4,,10
	.p2align 3
.L1257:
	movq	%r15, 80(%rdi)
	movq	%r15, 72(%rdi)
	jmp	.L1258
	.p2align 4,,10
	.p2align 3
.L1300:
	movq	%r14, 96(%r15)
	movq	%r14, 88(%r15)
	jmp	.L1301
	.p2align 4,,10
	.p2align 3
.L1277:
	movl	8(%r12), %eax
	leal	-1(%rax), %edx
	cmpl	$1, %eax
	movl	%edx, 8(%r12)
	jne	.L1283
	movq	(%r12), %rax
	movq	%r12, %rdi
	call	*16(%rax)
	movl	12(%r12), %eax
	leal	-1(%rax), %edx
	movl	%edx, 12(%r12)
	jmp	.L1336
	.p2align 4,,10
	.p2align 3
.L1262:
	movq	%rcx, (%rsp)
	lock addq	$1, 184(%r12)
	leaq	48(%r12), %r15
	movq	%r15, %rdi
	call	pthread_mutex_lock@PLT
	cmpq	$0, 200(%r12)
	movq	(%rsp), %rcx
	movq	$0, (%rcx)
	je	.L1270
	movq	200(%r12), %rax
	movq	%rcx, (%rax)
	movq	%rcx, 200(%r12)
.L1271:
	movq	136(%r12), %rax
	orq	$1, %rax
	cmpq	$1, %rax
	movq	%rax, 136(%r12)
	jne	.L1442
	cmpb	$0, 176(%r12)
	jne	.L1274
	movq	144(%r12), %rax
	testq	%rax, %rax
	je	.L1274
	leaq	88(%rax), %rdx
	movb	$1, 176(%r12)
	movl	$-2147483639, 36(%rsp)
	leaq	36(%rsp), %rcx
	movl	$3, %esi
	movq	%rdx, 40(%rsp)
	movl	88(%rax), %edx
	movl	96(%rax), %edi
	call	epoll_ctl@PLT
.L1274:
	movq	%r15, %rdi
	call	pthread_mutex_unlock@PLT
.L1273:
	movq	56(%rsp), %r12
	jmp	.L1269
	.p2align 4,,10
	.p2align 3
.L1441:
	movq	%r14, %rdi
	call	pthread_mutex_unlock@PLT
	leaq	88(%rbp), %rdi
	call	pthread_cond_signal@PLT
	jmp	.L1313
	.p2align 4,,10
	.p2align 3
.L1260:
	movq	%r15, 96(%rcx)
	movq	%r15, 88(%rcx)
	jmp	.L1261
	.p2align 4,,10
	.p2align 3
.L1308:
	movq	%r15, 16(%rax)
	movq	%r15, 8(%rax)
	movq	56(%rsp), %rbp
	jmp	.L1309
	.p2align 4,,10
	.p2align 3
.L1310:
	movq	%r15, 200(%rbp)
	movq	%r15, 192(%rbp)
	jmp	.L1311
	.p2align 4,,10
	.p2align 3
.L1442:
	movq	%r15, %rdi
	call	pthread_mutex_unlock@PLT
	leaq	88(%r12), %rdi
	call	pthread_cond_signal@PLT
	jmp	.L1273
.L1268:
	movq	%rcx, 16(%rax)
	movq	%rcx, 8(%rax)
	movq	56(%rsp), %r12
	jmp	.L1269
.L1270:
	movq	%rcx, 200(%r12)
	movq	%rcx, 192(%r12)
	jmp	.L1271
.L1434:
	call	__stack_chk_fail@PLT
.L1247:
.LEHB21:
	call	_ZSt20__throw_bad_weak_ptrv@PLT
.L1250:
	testl	%eax, %eax
	je	.L1247
	movq	8(%rsp), %rcx
	leal	1(%rax), %edx
	lock cmpxchgl	%edx, (%rcx)
	je	.L1249
	jmp	.L1250
.L1341:
	movq	56(%rsp), %rdi
	movq	%rax, %rbx
	testq	%rdi, %rdi
	je	.L1330
	call	_ZNSt16_Sp_counted_baseILN9__gnu_cxx12_Lock_policyE2EE10_M_releaseEv@PLT
.L1330:
	movq	%rbx, %rdi
	call	_Unwind_Resume@PLT
.L1342:
	movq	%rax, %rbp
	movq	(%rsp), %rax
	testq	%rax, %rax
	je	.L1325
	movq	%rax, %rdi
	call	_ZNSt16_Sp_counted_baseILN9__gnu_cxx12_Lock_policyE2EE10_M_releaseEv@PLT
.L1325:
	movq	%rbx, %rdi
	call	_ZNSt16_Sp_counted_baseILN9__gnu_cxx12_Lock_policyE2EE10_M_releaseEv@PLT
	movq	%rbp, %rdi
	call	_Unwind_Resume@PLT
.LEHE21:
.L1343:
	testq	%r15, %r15
	movq	%rax, %rbp
	je	.L1325
	movq	%r15, %rdi
	call	_ZNSt16_Sp_counted_baseILN9__gnu_cxx12_Lock_policyE2EE10_M_releaseEv@PLT
	jmp	.L1325
	.cfi_endproc
.LFE7790:
	.section	.gcc_except_table
.LLSDA7790:
	.byte	0xff
	.byte	0xff
	.byte	0x1
	.uleb128 .LLSDACSE7790-.LLSDACSB7790
.LLSDACSB7790:
	.uleb128 .LEHB17-.LFB7790
	.uleb128 .LEHE17-.LEHB17
	.uleb128 .L1341-.LFB7790
	.uleb128 0
	.uleb128 .LEHB18-.LFB7790
	.uleb128 .LEHE18-.LEHB18
	.uleb128 0
	.uleb128 0
	.uleb128 .LEHB19-.LFB7790
	.uleb128 .LEHE19-.LEHB19
	.uleb128 .L1343-.LFB7790
	.uleb128 0
	.uleb128 .LEHB20-.LFB7790
	.uleb128 .LEHE20-.LEHB20
	.uleb128 .L1342-.LFB7790
	.uleb128 0
	.uleb128 .LEHB21-.LFB7790
	.uleb128 .LEHE21-.LEHB21
	.uleb128 0
	.uleb128 0
.LLSDACSE7790:
	.text
	.size	_ZN8asiodnp311LinkSession12ShutdownImplEv, .-_ZN8asiodnp311LinkSession12ShutdownImplEv
	.p2align 4,,15
	.type	_ZNSt17_Function_handlerIFvvEZN8asiodnp311LinkSession8ShutdownEvEUlvE_E9_M_invokeERKSt9_Any_data, @function
_ZNSt17_Function_handlerIFvvEZN8asiodnp311LinkSession8ShutdownEvEUlvE_E9_M_invokeERKSt9_Any_data:
.LFB9159:
	.cfi_startproc
	movq	(%rdi), %rax
	movq	(%rax), %rdi
	jmp	_ZN8asiodnp311LinkSession12ShutdownImplEv@PLT
	.cfi_endproc
.LFE9159:
	.size	_ZNSt17_Function_handlerIFvvEZN8asiodnp311LinkSession8ShutdownEvEUlvE_E9_M_invokeERKSt9_Any_data, .-_ZNSt17_Function_handlerIFvvEZN8asiodnp311LinkSession8ShutdownEvEUlvE_E9_M_invokeERKSt9_Any_data
	.section	.rodata.str1.8
	.align 8
.LC25:
	.string	"/home/raihan/OpenPLC_v3/utils/dnp3_src/cpp/libs/src/asiodnp3/LinkSession.cpp(96)"
	.text
	.align 2
	.p2align 4,,15
	.globl	_ZN8asiodnp311LinkSession14OnReadCompleteERKSt10error_codem
	.type	_ZN8asiodnp311LinkSession14OnReadCompleteERKSt10error_codem, @function
_ZN8asiodnp311LinkSession14OnReadCompleteERKSt10error_codem:
.LFB7811:
	.cfi_startproc
	.cfi_personality 0x9b,DW.ref.__gxx_personality_v0
	.cfi_lsda 0x1b,.LLSDA7811
	pushq	%r14
	.cfi_def_cfa_offset 16
	.cfi_offset 14, -16
	pushq	%r13
	.cfi_def_cfa_offset 24
	.cfi_offset 13, -24
	pushq	%r12
	.cfi_def_cfa_offset 32
	.cfi_offset 12, -32
	pushq	%rbp
	.cfi_def_cfa_offset 40
	.cfi_offset 6, -40
	movq	%rsi, %rbp
	pushq	%rbx
	.cfi_def_cfa_offset 48
	.cfi_offset 3, -48
	movq	%rdi, %rbx
	subq	$64, %rsp
	.cfi_def_cfa_offset 112
	movq	%fs:40, %rax
	movq	%rax, 56(%rsp)
	xorl	%eax, %eax
	movl	(%rsi), %eax
	testl	%eax, %eax
	je	.L1445
	leaq	64(%rdi), %r13
	leaq	12(%rsp), %r14
	movl	$4, 12(%rsp)
	movq	%r14, %rsi
	movq	%r13, %rdi
.LEHB22:
	call	_ZNK7openpal6Logger9IsEnabledERKNS_10LogFiltersE@PLT
	testb	%al, %al
	je	.L1446
	movq	8(%rbp), %rsi
	leaq	16(%rsp), %r12
	movl	0(%rbp), %edx
	movq	%r12, %rdi
	movq	(%rsi), %rax
	call	*32(%rax)
.LEHE22:
	movq	16(%rsp), %rcx
	leaq	.LC25(%rip), %rdx
	movq	%r14, %rsi
	movq	%r13, %rdi
	movl	$4, 12(%rsp)
.LEHB23:
	call	_ZN7openpal6Logger3LogERKNS_10LogFiltersEPKcS5_@PLT
.LEHE23:
	movq	16(%rsp), %rdi
	addq	$16, %r12
	cmpq	%r12, %rdi
	je	.L1446
	call	_ZdlPv@PLT
.L1446:
	movq	%rbx, %rdi
.LEHB24:
	call	_ZN8asiodnp311LinkSession12ShutdownImplEv@PLT
.L1444:
	movq	56(%rsp), %rax
	xorq	%fs:40, %rax
	jne	.L1457
	addq	$64, %rsp
	.cfi_remember_state
	.cfi_def_cfa_offset 48
	popq	%rbx
	.cfi_def_cfa_offset 40
	popq	%rbp
	.cfi_def_cfa_offset 32
	popq	%r12
	.cfi_def_cfa_offset 24
	popq	%r13
	.cfi_def_cfa_offset 16
	popq	%r14
	.cfi_def_cfa_offset 8
	ret
	.p2align 4,,10
	.p2align 3
.L1445:
	.cfi_restore_state
	movq	%rdx, %rsi
	leaq	16(%rdi), %rdx
	leaq	152(%rdi), %rdi
	call	_ZN8opendnp315LinkLayerParser6OnReadEjRNS_10IFrameSinkE@PLT
	movq	%rbx, %rdi
	call	_ZN8asiodnp311LinkSession12BeginReceiveEv@PLT
	jmp	.L1444
.L1457:
	call	__stack_chk_fail@PLT
.L1452:
	movq	16(%rsp), %rdi
	addq	$16, %r12
	movq	%rax, %rbx
	cmpq	%r12, %rdi
	je	.L1450
	call	_ZdlPv@PLT
.L1450:
	movq	%rbx, %rdi
	call	_Unwind_Resume@PLT
.LEHE24:
	.cfi_endproc
.LFE7811:
	.section	.gcc_except_table
.LLSDA7811:
	.byte	0xff
	.byte	0xff
	.byte	0x1
	.uleb128 .LLSDACSE7811-.LLSDACSB7811
.LLSDACSB7811:
	.uleb128 .LEHB22-.LFB7811
	.uleb128 .LEHE22-.LEHB22
	.uleb128 0
	.uleb128 0
	.uleb128 .LEHB23-.LFB7811
	.uleb128 .LEHE23-.LEHB23
	.uleb128 .L1452-.LFB7811
	.uleb128 0
	.uleb128 .LEHB24-.LFB7811
	.uleb128 .LEHE24-.LEHB24
	.uleb128 0
	.uleb128 0
.LLSDACSE7811:
	.text
	.size	_ZN8asiodnp311LinkSession14OnReadCompleteERKSt10error_codem, .-_ZN8asiodnp311LinkSession14OnReadCompleteERKSt10error_codem
	.set	.LTHUNK3,_ZN8asiodnp311LinkSession14OnReadCompleteERKSt10error_codem
	.p2align 4,,15
	.globl	_ZThn8_N8asiodnp311LinkSession14OnReadCompleteERKSt10error_codem
	.type	_ZThn8_N8asiodnp311LinkSession14OnReadCompleteERKSt10error_codem, @function
_ZThn8_N8asiodnp311LinkSession14OnReadCompleteERKSt10error_codem:
.LFB10543:
	.cfi_startproc
	subq	$8, %rdi
	jmp	.LTHUNK3
	.cfi_endproc
.LFE10543:
	.size	_ZThn8_N8asiodnp311LinkSession14OnReadCompleteERKSt10error_codem, .-_ZThn8_N8asiodnp311LinkSession14OnReadCompleteERKSt10error_codem
	.section	.rodata.str1.8
	.align 8
.LC26:
	.string	"/home/raihan/OpenPLC_v3/utils/dnp3_src/cpp/libs/src/asiodnp3/LinkSession.cpp(110)"
	.text
	.align 2
	.p2align 4,,15
	.globl	_ZN8asiodnp311LinkSession15OnWriteCompleteERKSt10error_codem
	.type	_ZN8asiodnp311LinkSession15OnWriteCompleteERKSt10error_codem, @function
_ZN8asiodnp311LinkSession15OnWriteCompleteERKSt10error_codem:
.LFB7812:
	.cfi_startproc
	.cfi_personality 0x9b,DW.ref.__gxx_personality_v0
	.cfi_lsda 0x1b,.LLSDA7812
	pushq	%r14
	.cfi_def_cfa_offset 16
	.cfi_offset 14, -16
	pushq	%r13
	.cfi_def_cfa_offset 24
	.cfi_offset 13, -24
	pushq	%r12
	.cfi_def_cfa_offset 32
	.cfi_offset 12, -32
	pushq	%rbp
	.cfi_def_cfa_offset 40
	.cfi_offset 6, -40
	movq	%rdi, %rbp
	pushq	%rbx
	.cfi_def_cfa_offset 48
	.cfi_offset 3, -48
	subq	$64, %rsp
	.cfi_def_cfa_offset 112
	movq	%fs:40, %rax
	movq	%rax, 56(%rsp)
	xorl	%eax, %eax
	movl	(%rsi), %eax
	testl	%eax, %eax
	je	.L1459
	leaq	64(%rdi), %r13
	leaq	12(%rsp), %r14
	movq	%rsi, %rbx
	movl	$4, 12(%rsp)
	movq	%r14, %rsi
	movq	%r13, %rdi
.LEHB25:
	call	_ZNK7openpal6Logger9IsEnabledERKNS_10LogFiltersE@PLT
	testb	%al, %al
	je	.L1460
	movq	8(%rbx), %rsi
	leaq	16(%rsp), %r12
	movl	(%rbx), %edx
	movq	%r12, %rdi
	movq	(%rsi), %rax
	call	*32(%rax)
.LEHE25:
	movq	16(%rsp), %rcx
	leaq	.LC26(%rip), %rdx
	movq	%r14, %rsi
	movq	%r13, %rdi
	movl	$4, 12(%rsp)
.LEHB26:
	call	_ZN7openpal6Logger3LogERKNS_10LogFiltersEPKcS5_@PLT
.LEHE26:
	movq	16(%rsp), %rdi
	addq	$16, %r12
	cmpq	%r12, %rdi
	je	.L1460
	call	_ZdlPv@PLT
.L1460:
	movq	%rbp, %rdi
.LEHB27:
	call	_ZN8asiodnp311LinkSession12ShutdownImplEv@PLT
.L1458:
	movq	56(%rsp), %rax
	xorq	%fs:40, %rax
	jne	.L1471
	addq	$64, %rsp
	.cfi_remember_state
	.cfi_def_cfa_offset 48
	popq	%rbx
	.cfi_def_cfa_offset 40
	popq	%rbp
	.cfi_def_cfa_offset 32
	popq	%r12
	.cfi_def_cfa_offset 24
	popq	%r13
	.cfi_def_cfa_offset 16
	popq	%r14
	.cfi_def_cfa_offset 8
	ret
	.p2align 4,,10
	.p2align 3
.L1459:
	.cfi_restore_state
	movq	592(%rdi), %rdi
	movl	$1, %esi
	call	_ZN8asiodnp318MasterSessionStack18OnTransmitCompleteEb@PLT
	jmp	.L1458
.L1471:
	call	__stack_chk_fail@PLT
.L1466:
	movq	16(%rsp), %rdi
	addq	$16, %r12
	movq	%rax, %rbx
	cmpq	%r12, %rdi
	je	.L1464
	call	_ZdlPv@PLT
.L1464:
	movq	%rbx, %rdi
	call	_Unwind_Resume@PLT
.LEHE27:
	.cfi_endproc
.LFE7812:
	.section	.gcc_except_table
.LLSDA7812:
	.byte	0xff
	.byte	0xff
	.byte	0x1
	.uleb128 .LLSDACSE7812-.LLSDACSB7812
.LLSDACSB7812:
	.uleb128 .LEHB25-.LFB7812
	.uleb128 .LEHE25-.LEHB25
	.uleb128 0
	.uleb128 0
	.uleb128 .LEHB26-.LFB7812
	.uleb128 .LEHE26-.LEHB26
	.uleb128 .L1466-.LFB7812
	.uleb128 0
	.uleb128 .LEHB27-.LFB7812
	.uleb128 .LEHE27-.LEHB27
	.uleb128 0
	.uleb128 0
.LLSDACSE7812:
	.text
	.size	_ZN8asiodnp311LinkSession15OnWriteCompleteERKSt10error_codem, .-_ZN8asiodnp311LinkSession15OnWriteCompleteERKSt10error_codem
	.set	.LTHUNK4,_ZN8asiodnp311LinkSession15OnWriteCompleteERKSt10error_codem
	.p2align 4,,15
	.globl	_ZThn8_N8asiodnp311LinkSession15OnWriteCompleteERKSt10error_codem
	.type	_ZThn8_N8asiodnp311LinkSession15OnWriteCompleteERKSt10error_codem, @function
_ZThn8_N8asiodnp311LinkSession15OnWriteCompleteERKSt10error_codem:
.LFB10544:
	.cfi_startproc
	subq	$8, %rdi
	jmp	.LTHUNK4
	.cfi_endproc
.LFE10544:
	.size	_ZThn8_N8asiodnp311LinkSession15OnWriteCompleteERKSt10error_codem, .-_ZThn8_N8asiodnp311LinkSession15OnWriteCompleteERKSt10error_codem
	.section	.rodata.str1.8
	.align 8
.LC27:
	.string	"No master created. Closing socket."
	.align 8
.LC28:
	.string	"/home/raihan/OpenPLC_v3/utils/dnp3_src/cpp/libs/src/asiodnp3/LinkSession.cpp(145)"
	.text
	.align 2
	.p2align 4,,15
	.globl	_ZN8asiodnp311LinkSession7OnFrameERKN8opendnp316LinkHeaderFieldsERKN7openpal6RSliceE
	.type	_ZN8asiodnp311LinkSession7OnFrameERKN8opendnp316LinkHeaderFieldsERKN7openpal6RSliceE, @function
_ZN8asiodnp311LinkSession7OnFrameERKN8opendnp316LinkHeaderFieldsERKN7openpal6RSliceE:
.LFB7814:
	.cfi_startproc
	pushq	%r12
	.cfi_def_cfa_offset 16
	.cfi_offset 12, -16
	pushq	%rbp
	.cfi_def_cfa_offset 24
	.cfi_offset 6, -24
	movq	%rdx, %r12
	pushq	%rbx
	.cfi_def_cfa_offset 32
	.cfi_offset 3, -32
	movq	%rdi, %rbx
	movq	%rsi, %rbp
	subq	$16, %rsp
	.cfi_def_cfa_offset 48
	movq	592(%rdi), %rdi
	movq	%fs:40, %rax
	movq	%rax, 8(%rsp)
	xorl	%eax, %eax
	testq	%rdi, %rdi
	je	.L1473
.L1482:
	movq	%r12, %rdx
	movq	%rbp, %rsi
	call	_ZN8asiodnp318MasterSessionStack7OnFrameERKN8opendnp316LinkHeaderFieldsERKN7openpal6RSliceE@PLT
.L1474:
	movq	8(%rsp), %rcx
	xorq	%fs:40, %rcx
	movl	$1, %eax
	jne	.L1483
	addq	$16, %rsp
	.cfi_remember_state
	.cfi_def_cfa_offset 32
	popq	%rbx
	.cfi_def_cfa_offset 24
	popq	%rbp
	.cfi_def_cfa_offset 16
	popq	%r12
	.cfi_def_cfa_offset 8
	ret
	.p2align 4,,10
	.p2align 3
.L1473:
	.cfi_restore_state
	leaq	568(%rbx), %rdi
	call	_ZN7openpal8TimerRef6CancelEv@PLT
	movq	120(%rbx), %rdi
	leaq	48(%rbx), %rcx
	movq	96(%rbx), %rsi
	movq	%rbp, %rdx
	movq	(%rdi), %rax
	call	*40(%rax)
	movq	592(%rbx), %rdi
	testq	%rdi, %rdi
	je	.L1475
	call	_ZN8asiodnp318MasterSessionStack14OnLowerLayerUpEv@PLT
	movq	592(%rbx), %rdi
	jmp	.L1482
	.p2align 4,,10
	.p2align 3
.L1475:
	leaq	64(%rbx), %rbp
	leaq	4(%rsp), %r12
	movl	$4, 4(%rsp)
	movq	%r12, %rsi
	movq	%rbp, %rdi
	call	_ZNK7openpal6Logger9IsEnabledERKNS_10LogFiltersE@PLT
	testb	%al, %al
	jne	.L1484
.L1476:
	movq	%rbx, %rdi
	call	_ZN8asiodnp311LinkSession12ShutdownImplEv@PLT
	jmp	.L1474
	.p2align 4,,10
	.p2align 3
.L1484:
	leaq	.LC27(%rip), %rcx
	leaq	.LC28(%rip), %rdx
	movq	%r12, %rsi
	movq	%rbp, %rdi
	movl	$4, 4(%rsp)
	call	_ZN7openpal6Logger3LogERKNS_10LogFiltersEPKcS5_@PLT
	jmp	.L1476
.L1483:
	call	__stack_chk_fail@PLT
	.cfi_endproc
.LFE7814:
	.size	_ZN8asiodnp311LinkSession7OnFrameERKN8opendnp316LinkHeaderFieldsERKN7openpal6RSliceE, .-_ZN8asiodnp311LinkSession7OnFrameERKN8opendnp316LinkHeaderFieldsERKN7openpal6RSliceE
	.set	.LTHUNK5,_ZN8asiodnp311LinkSession7OnFrameERKN8opendnp316LinkHeaderFieldsERKN7openpal6RSliceE
	.p2align 4,,15
	.globl	_ZThn16_N8asiodnp311LinkSession7OnFrameERKN8opendnp316LinkHeaderFieldsERKN7openpal6RSliceE
	.type	_ZThn16_N8asiodnp311LinkSession7OnFrameERKN8opendnp316LinkHeaderFieldsERKN7openpal6RSliceE, @function
_ZThn16_N8asiodnp311LinkSession7OnFrameERKN8opendnp316LinkHeaderFieldsERKN7openpal6RSliceE:
.LFB10545:
	.cfi_startproc
	subq	$16, %rdi
	jmp	.LTHUNK5
	.cfi_endproc
.LFE10545:
	.size	_ZThn16_N8asiodnp311LinkSession7OnFrameERKN8opendnp316LinkHeaderFieldsERKN7openpal6RSliceE, .-_ZThn16_N8asiodnp311LinkSession7OnFrameERKN8opendnp316LinkHeaderFieldsERKN7openpal6RSliceE
	.section	.text._ZN4asio6detail18completion_handlerIZN7asiopal13IAsyncChannel8ShutdownEvEUlvE_E11do_completeEPNS0_15task_io_serviceEPNS0_25task_io_service_operationERKSt10error_codem,"axG",@progbits,_ZN4asio6detail18completion_handlerIZN7asiopal13IAsyncChannel8ShutdownEvEUlvE_E11do_completeEPNS0_15task_io_serviceEPNS0_25task_io_service_operationERKSt10error_codem,comdat
	.p2align 4,,15
	.weak	_ZN4asio6detail18completion_handlerIZN7asiopal13IAsyncChannel8ShutdownEvEUlvE_E11do_completeEPNS0_15task_io_serviceEPNS0_25task_io_service_operationERKSt10error_codem
	.type	_ZN4asio6detail18completion_handlerIZN7asiopal13IAsyncChannel8ShutdownEvEUlvE_E11do_completeEPNS0_15task_io_serviceEPNS0_25task_io_service_operationERKSt10error_codem, @function
_ZN4asio6detail18completion_handlerIZN7asiopal13IAsyncChannel8ShutdownEvEUlvE_E11do_completeEPNS0_15task_io_serviceEPNS0_25task_io_service_operationERKSt10error_codem:
.LFB9623:
	.cfi_startproc
	.cfi_personality 0x9b,DW.ref.__gxx_personality_v0
	.cfi_lsda 0x1b,.LLSDA9623
	pushq	%r15
	.cfi_def_cfa_offset 16
	.cfi_offset 15, -16
	pushq	%r14
	.cfi_def_cfa_offset 24
	.cfi_offset 14, -24
	pushq	%r13
	.cfi_def_cfa_offset 32
	.cfi_offset 13, -32
	pushq	%r12
	.cfi_def_cfa_offset 40
	.cfi_offset 12, -40
	movq	%rdi, %r13
	pushq	%rbp
	.cfi_def_cfa_offset 48
	.cfi_offset 6, -48
	pushq	%rbx
	.cfi_def_cfa_offset 56
	.cfi_offset 3, -56
	movq	%rsi, %rbp
	subq	$56, %rsp
	.cfi_def_cfa_offset 112
	movq	24(%rsi), %r12
	movq	32(%rsi), %rbx
	movq	%fs:40, %rax
	movq	%rax, 40(%rsp)
	xorl	%eax, %eax
	.byte	0x66
	leaq	_ZN4asio6detail15keyword_tss_ptrINS0_10call_stackINS0_15task_io_serviceENS0_27task_io_service_thread_infoEE7contextEE6value_E@tlsgd(%rip), %rdi
	.value	0x6666
	rex64
	call	__tls_get_addr@PLT
	movq	(%rax), %rax
	testq	%rax, %rax
	je	.L1486
	movq	8(%rax), %rax
	testq	%rax, %rax
	je	.L1486
	cmpq	$0, (%rax)
	je	.L1614
.L1486:
	movq	%rbp, %rdi
	call	_ZdlPv@PLT
.L1487:
	testq	%r13, %r13
	je	.L1488
	testq	%rbx, %rbx
	je	.L1489
	cmpq	$0, _ZL28__gthrw___pthread_key_createPjPFvPvE@GOTPCREL(%rip)
	leaq	8(%rbx), %rax
	jne	.L1615
	movl	8(%rbx), %eax
	addl	$1, %eax
	cmpb	$0, 57(%r12)
	movl	%eax, 8(%rbx)
	jne	.L1554
	cmpb	$0, 58(%r12)
	je	.L1561
.L1554:
	addl	$2, %eax
	movq	24(%r12), %r13
	movq	%r12, 16(%rsp)
	movq	%rbx, 24(%rsp)
	movl	%eax, 8(%rbx)
	movq	%rbx, %r15
.L1495:
	leaq	16(%rsp), %rdi
	xorl	%eax, %eax
	movq	40(%r13), %r12
	call	_ZN4asio28asio_handler_is_continuationEz@PLT
	movl	%eax, %r14d
	.byte	0x66
	leaq	_ZN4asio6detail15keyword_tss_ptrINS0_10call_stackINS0_15task_io_serviceENS0_27task_io_service_thread_infoEE7contextEE6value_E@tlsgd(%rip), %rdi
	.value	0x6666
	rex64
	call	__tls_get_addr@PLT
	movq	(%rax), %rax
	testq	%rax, %rax
	je	.L1496
	movq	8(%rax), %rax
	testq	%rax, %rax
	je	.L1496
	movq	(%rax), %rbp
	testq	%rbp, %rbp
	je	.L1496
	movq	$0, (%rax)
	movzbl	0(%rbp), %eax
	cmpb	$39, %al
	jbe	.L1497
	movb	%al, 40(%rbp)
.L1498:
	movq	_ZN4asio6detail18completion_handlerIZN7asiopal13IAsyncChannel16CheckForShutdownESt10shared_ptrIS3_EEUlvE_E11do_completeEPNS0_15task_io_serviceEPNS0_25task_io_service_operationERKSt10error_codem@GOTPCREL(%rip), %rax
	pxor	%xmm0, %xmm0
	movq	$0, 0(%rbp)
	movl	$0, 16(%rbp)
	movq	%r15, 32(%rbp)
	movq	%rax, 8(%rbp)
	movq	16(%rsp), %rax
	movaps	%xmm0, 16(%rsp)
	movq	%rax, 24(%rbp)
	movq	48(%r13), %rax
	leaq	24(%rax), %rdi
	call	pthread_mutex_lock@PLT
	movq	48(%r13), %rdi
	cmpb	$0, 64(%rdi)
	je	.L1616
	cmpq	$0, 80(%rdi)
	movq	$0, 0(%rbp)
	je	.L1499
	movq	80(%rdi), %rax
	movq	%rbp, (%rax)
	movq	%rbp, 80(%rdi)
.L1500:
	addq	$24, %rdi
	call	pthread_mutex_unlock@PLT
.L1518:
	testq	%rbx, %rbx
	je	.L1541
	cmpq	$0, _ZL28__gthrw___pthread_key_createPjPFvPvE@GOTPCREL(%rip)
	je	.L1530
	lock subl	$1, 8(%rbx)
	je	.L1617
	.p2align 4,,10
	.p2align 3
.L1534:
	testq	%rbx, %rbx
	je	.L1541
	cmpq	$0, _ZL28__gthrw___pthread_key_createPjPFvPvE@GOTPCREL(%rip)
	je	.L1542
	lock subl	$1, 8(%rbx)
	je	.L1618
	.p2align 4,,10
	.p2align 3
.L1541:
	sfence
.L1488:
	testq	%rbx, %rbx
	je	.L1485
	cmpq	$0, _ZL28__gthrw___pthread_key_createPjPFvPvE@GOTPCREL(%rip)
	je	.L1550
	lock subl	$1, 8(%rbx)
	je	.L1619
.L1485:
	movq	40(%rsp), %rax
	xorq	%fs:40, %rax
	jne	.L1620
	addq	$56, %rsp
	.cfi_remember_state
	.cfi_def_cfa_offset 56
	popq	%rbx
	.cfi_def_cfa_offset 48
	popq	%rbp
	.cfi_def_cfa_offset 40
	popq	%r12
	.cfi_def_cfa_offset 32
	popq	%r13
	.cfi_def_cfa_offset 24
	popq	%r14
	.cfi_def_cfa_offset 16
	popq	%r15
	.cfi_def_cfa_offset 8
	ret
	.p2align 4,,10
	.p2align 3
.L1550:
	.cfi_restore_state
	movl	8(%rbx), %eax
	leal	-1(%rax), %edx
	cmpl	$1, %eax
	movl	%edx, 8(%rbx)
	jne	.L1485
	movq	(%rbx), %rax
	movq	%rbx, %rdi
	call	*16(%rax)
	movl	12(%rbx), %eax
	leal	-1(%rax), %edx
	movl	%edx, 12(%rbx)
	jmp	.L1566
	.p2align 4,,10
	.p2align 3
.L1615:
	lock addl	$1, (%rax)
	cmpb	$0, 57(%r12)
	jne	.L1567
	cmpb	$0, 58(%r12)
	je	.L1561
.L1567:
	lock addl	$1, (%rax)
	movq	24(%r12), %r13
	movq	%r12, 16(%rsp)
	movq	%rbx, 24(%rsp)
	lock addl	$1, (%rax)
	movq	24(%rsp), %r15
	jmp	.L1495
	.p2align 4,,10
	.p2align 3
.L1489:
	cmpb	$0, 57(%r12)
	jne	.L1555
	cmpb	$0, 58(%r12)
	jne	.L1555
.L1561:
	movq	48(%r12), %rbp
	movq	$0, 40(%r12)
	movq	$0, 48(%r12)
	testq	%rbp, %rbp
	je	.L1534
	cmpq	$0, _ZL28__gthrw___pthread_key_createPjPFvPvE@GOTPCREL(%rip)
	je	.L1535
	lock subl	$1, 8(%rbp)
	jne	.L1534
	movq	0(%rbp), %rax
	movq	%rbp, %rdi
	call	*16(%rax)
	movl	$-1, %eax
	lock xaddl	%eax, 12(%rbp)
.L1564:
	cmpl	$1, %eax
	jne	.L1534
	movq	0(%rbp), %rax
	movq	%rbp, %rdi
	call	*24(%rax)
	jmp	.L1534
	.p2align 4,,10
	.p2align 3
.L1614:
	movzbl	40(%rbp), %edx
	movb	%dl, 0(%rbp)
	movq	%rbp, (%rax)
	jmp	.L1487
	.p2align 4,,10
	.p2align 3
.L1619:
	movq	(%rbx), %rax
	movq	%rbx, %rdi
	call	*16(%rax)
	movl	$-1, %eax
	lock xaddl	%eax, 12(%rbx)
.L1566:
	cmpl	$1, %eax
	jne	.L1485
	movq	(%rbx), %rax
	movq	%rbx, %rdi
	call	*24(%rax)
	jmp	.L1485
	.p2align 4,,10
	.p2align 3
.L1555:
	movq	24(%r12), %r13
	movq	%r12, 16(%rsp)
	xorl	%r15d, %r15d
	movq	$0, 24(%rsp)
	jmp	.L1495
	.p2align 4,,10
	.p2align 3
.L1497:
	movq	%rbp, %rdi
	call	_ZdlPv@PLT
.L1496:
	movl	$41, %edi
.LEHB28:
	call	_Znwm@PLT
.LEHE28:
	movq	%rax, %rbp
	movb	$40, 40(%rax)
	jmp	.L1498
	.p2align 4,,10
	.p2align 3
.L1616:
	movb	$1, 64(%rdi)
	movq	48(%r13), %rax
	leaq	24(%rax), %rdi
	call	pthread_mutex_unlock@PLT
	movq	48(%r13), %r13
	movq	$0, 0(%rbp)
	cmpq	$0, 96(%r13)
	je	.L1502
	movq	96(%r13), %rax
	movq	%rbp, (%rax)
	movq	%rbp, 96(%r13)
.L1503:
	movq	40(%r12), %rbp
	cmpb	$0, 40(%rbp)
	jne	.L1572
	testb	%r14b, %r14b
	je	.L1504
.L1572:
	.byte	0x66
	leaq	_ZN4asio6detail15keyword_tss_ptrINS0_10call_stackINS0_15task_io_serviceENS0_27task_io_service_thread_infoEE7contextEE6value_E@tlsgd(%rip), %rdi
	.value	0x6666
	rex64
	call	__tls_get_addr@PLT
	movq	(%rax), %rax
	testq	%rax, %rax
	jne	.L1609
	jmp	.L1504
	.p2align 4,,10
	.p2align 3
.L1507:
	movq	16(%rax), %rax
	testq	%rax, %rax
	je	.L1504
.L1609:
	cmpq	(%rax), %rbp
	jne	.L1507
	movq	8(%rax), %rax
	testq	%rax, %rax
	je	.L1504
	addq	$1, 24(%rax)
	cmpq	$0, 16(%rax)
	movq	$0, 0(%r13)
	je	.L1510
	movq	16(%rax), %rdx
	movq	24(%rsp), %rbp
	movq	%r13, (%rdx)
	movq	%r13, 16(%rax)
.L1511:
	testq	%rbp, %rbp
	je	.L1518
	cmpq	$0, _ZL28__gthrw___pthread_key_createPjPFvPvE@GOTPCREL(%rip)
	je	.L1519
	lock subl	$1, 8(%rbp)
	jne	.L1518
	movq	0(%rbp), %rax
	movq	%rbp, %rdi
	call	*16(%rax)
	movl	$-1, %eax
	lock xaddl	%eax, 12(%rbp)
.L1562:
	cmpl	$1, %eax
	jne	.L1518
	movq	0(%rbp), %rax
	movq	%rbp, %rdi
	call	*24(%rax)
	jmp	.L1518
	.p2align 4,,10
	.p2align 3
.L1504:
	lock addq	$1, 184(%rbp)
	leaq	48(%rbp), %r12
	movq	%r12, %rdi
	call	pthread_mutex_lock@PLT
	cmpq	$0, 200(%rbp)
	movq	$0, 0(%r13)
	je	.L1512
	movq	200(%rbp), %rax
	movq	%r13, (%rax)
	movq	%r13, 200(%rbp)
.L1513:
	movq	136(%rbp), %rax
	orq	$1, %rax
	cmpq	$1, %rax
	movq	%rax, 136(%rbp)
	jne	.L1621
	cmpb	$0, 176(%rbp)
	jne	.L1516
	movq	144(%rbp), %rax
	testq	%rax, %rax
	je	.L1516
	leaq	88(%rax), %rdx
	movb	$1, 176(%rbp)
	movl	96(%rax), %edi
	leaq	4(%rsp), %rcx
	movl	$3, %esi
	movl	$-2147483639, 4(%rsp)
	movq	%rdx, 8(%rsp)
	movl	88(%rax), %edx
	call	epoll_ctl@PLT
.L1516:
	movq	%r12, %rdi
	call	pthread_mutex_unlock@PLT
.L1515:
	movq	24(%rsp), %rbp
	jmp	.L1511
	.p2align 4,,10
	.p2align 3
.L1542:
	movl	8(%rbx), %eax
	leal	-1(%rax), %edx
	cmpl	$1, %eax
	movl	%edx, 8(%rbx)
	jne	.L1541
	movq	(%rbx), %rax
	movq	%rbx, %rdi
	call	*16(%rax)
	movl	12(%rbx), %eax
	leal	-1(%rax), %edx
	movl	%edx, 12(%rbx)
.L1565:
	cmpl	$1, %eax
	jne	.L1541
	movq	(%rbx), %rax
	movq	%rbx, %rdi
	call	*24(%rax)
	jmp	.L1541
	.p2align 4,,10
	.p2align 3
.L1499:
	movq	%rbp, 80(%rdi)
	movq	%rbp, 72(%rdi)
	jmp	.L1500
	.p2align 4,,10
	.p2align 3
.L1530:
	movl	8(%rbx), %eax
	leal	-1(%rax), %edx
	cmpl	$1, %eax
	movl	%edx, 8(%rbx)
	jne	.L1534
	movq	(%rbx), %rax
	movq	%rbx, %rdi
	call	*16(%rax)
	movl	12(%rbx), %eax
	leal	-1(%rax), %edx
	movl	%edx, 12(%rbx)
	jmp	.L1563
	.p2align 4,,10
	.p2align 3
.L1617:
	movq	(%rbx), %rax
	movq	%rbx, %rdi
	call	*16(%rax)
	movl	$-1, %eax
	lock xaddl	%eax, 12(%rbx)
.L1563:
	cmpl	$1, %eax
	jne	.L1534
	movq	(%rbx), %rax
	movq	%rbx, %rdi
	call	*24(%rax)
	jmp	.L1534
	.p2align 4,,10
	.p2align 3
.L1512:
	movq	%r13, 200(%rbp)
	movq	%r13, 192(%rbp)
	jmp	.L1513
	.p2align 4,,10
	.p2align 3
.L1519:
	movl	8(%rbp), %eax
	leal	-1(%rax), %edx
	cmpl	$1, %eax
	movl	%edx, 8(%rbp)
	jne	.L1518
	movq	0(%rbp), %rax
	movq	%rbp, %rdi
	call	*16(%rax)
	movl	12(%rbp), %eax
	leal	-1(%rax), %edx
	movl	%edx, 12(%rbp)
	jmp	.L1562
	.p2align 4,,10
	.p2align 3
.L1535:
	movl	8(%rbp), %eax
	leal	-1(%rax), %edx
	cmpl	$1, %eax
	movl	%edx, 8(%rbp)
	jne	.L1534
	movq	0(%rbp), %rax
	movq	%rbp, %rdi
	call	*16(%rax)
	movl	12(%rbp), %eax
	leal	-1(%rax), %edx
	movl	%edx, 12(%rbp)
	jmp	.L1564
	.p2align 4,,10
	.p2align 3
.L1618:
	movq	(%rbx), %rax
	movq	%rbx, %rdi
	call	*16(%rax)
	movl	$-1, %eax
	lock xaddl	%eax, 12(%rbx)
	jmp	.L1565
	.p2align 4,,10
	.p2align 3
.L1502:
	movq	%rbp, 96(%r13)
	movq	%rbp, 88(%r13)
	jmp	.L1503
	.p2align 4,,10
	.p2align 3
.L1621:
	movq	%r12, %rdi
	call	pthread_mutex_unlock@PLT
	leaq	88(%rbp), %rdi
	call	pthread_cond_signal@PLT
	jmp	.L1515
	.p2align 4,,10
	.p2align 3
.L1510:
	movq	%r13, 16(%rax)
	movq	%r13, 8(%rax)
	movq	24(%rsp), %rbp
	jmp	.L1511
.L1620:
	call	__stack_chk_fail@PLT
.L1571:
	testq	%r15, %r15
	movq	%rax, %rbp
	je	.L1525
	movq	%r15, %rdi
	call	_ZNSt16_Sp_counted_baseILN9__gnu_cxx12_Lock_policyE2EE10_M_releaseEv@PLT
.L1525:
	testq	%rbx, %rbx
	je	.L1539
	movq	%rbx, %rdi
	call	_ZNSt16_Sp_counted_baseILN9__gnu_cxx12_Lock_policyE2EE10_M_releaseEv@PLT
	movq	%rbx, %rdi
	call	_ZNSt16_Sp_counted_baseILN9__gnu_cxx12_Lock_policyE2EE10_M_releaseEv@PLT
.L1539:
	testq	%rbx, %rbx
	sfence
	je	.L1547
	movq	%rbx, %rdi
	call	_ZNSt16_Sp_counted_baseILN9__gnu_cxx12_Lock_policyE2EE10_M_releaseEv@PLT
.L1547:
	movq	%rbp, %rdi
.LEHB29:
	call	_Unwind_Resume@PLT
.LEHE29:
	.cfi_endproc
.LFE9623:
	.section	.gcc_except_table
.LLSDA9623:
	.byte	0xff
	.byte	0xff
	.byte	0x1
	.uleb128 .LLSDACSE9623-.LLSDACSB9623
.LLSDACSB9623:
	.uleb128 .LEHB28-.LFB9623
	.uleb128 .LEHE28-.LEHB28
	.uleb128 .L1571-.LFB9623
	.uleb128 0
	.uleb128 .LEHB29-.LFB9623
	.uleb128 .LEHE29-.LEHB29
	.uleb128 0
	.uleb128 0
.LLSDACSE9623:
	.section	.text._ZN4asio6detail18completion_handlerIZN7asiopal13IAsyncChannel8ShutdownEvEUlvE_E11do_completeEPNS0_15task_io_serviceEPNS0_25task_io_service_operationERKSt10error_codem,"axG",@progbits,_ZN4asio6detail18completion_handlerIZN7asiopal13IAsyncChannel8ShutdownEvEUlvE_E11do_completeEPNS0_15task_io_serviceEPNS0_25task_io_service_operationERKSt10error_codem,comdat
	.size	_ZN4asio6detail18completion_handlerIZN7asiopal13IAsyncChannel8ShutdownEvEUlvE_E11do_completeEPNS0_15task_io_serviceEPNS0_25task_io_service_operationERKSt10error_codem, .-_ZN4asio6detail18completion_handlerIZN7asiopal13IAsyncChannel8ShutdownEvEUlvE_E11do_completeEPNS0_15task_io_serviceEPNS0_25task_io_service_operationERKSt10error_codem
	.section	.rodata.str1.8
	.align 8
.LC29:
	.string	"Timed out before receving a frame. Closing socket."
	.align 8
.LC30:
	.string	"/home/raihan/OpenPLC_v3/utils/dnp3_src/cpp/libs/src/asiodnp3/LinkSession.cpp(187)"
	.text
	.p2align 4,,15
	.type	_ZNSt17_Function_handlerIFvvEZN7openpal8TimerRef5StartIZN8asiodnp311LinkSession5StartEvEUlvE_EEbRKNS1_12TimeDurationERKT_EUlvE_E9_M_invokeERKSt9_Any_data, @function
_ZNSt17_Function_handlerIFvvEZN7openpal8TimerRef5StartIZN8asiodnp311LinkSession5StartEvEUlvE_EEbRKNS1_12TimeDurationERKT_EUlvE_E9_M_invokeERKSt9_Any_data:
.LFB9502:
	.cfi_startproc
	.cfi_personality 0x9b,DW.ref.__gxx_personality_v0
	.cfi_lsda 0x1b,.LLSDA9502
	pushq	%r15
	.cfi_def_cfa_offset 16
	.cfi_offset 15, -16
	pushq	%r14
	.cfi_def_cfa_offset 24
	.cfi_offset 14, -24
	pushq	%r13
	.cfi_def_cfa_offset 32
	.cfi_offset 13, -32
	pushq	%r12
	.cfi_def_cfa_offset 40
	.cfi_offset 12, -40
	pushq	%rbp
	.cfi_def_cfa_offset 48
	.cfi_offset 6, -48
	pushq	%rbx
	.cfi_def_cfa_offset 56
	.cfi_offset 3, -56
	subq	$72, %rsp
	.cfi_def_cfa_offset 128
	movq	(%rdi), %rbx
	movq	%fs:40, %rax
	movq	%rax, 56(%rsp)
	xorl	%eax, %eax
	leaq	32(%rsp), %rbp
	movq	(%rbx), %rax
	movq	%rbp, %rsi
	movq	$0, 8(%rax)
	movq	8(%rbx), %rax
	movl	$2, 32(%rsp)
	leaq	64(%rax), %rdi
.LEHB30:
	call	_ZNK7openpal6Logger9IsEnabledERKNS_10LogFiltersE@PLT
	testb	%al, %al
	je	.L1623
	movq	8(%rbx), %rax
	leaq	.LC29(%rip), %rcx
	leaq	.LC30(%rip), %rdx
	movq	%rbp, %rsi
	movl	$2, 32(%rsp)
	leaq	64(%rax), %rdi
	call	_ZN7openpal6Logger3LogERKNS_10LogFiltersEPKcS5_@PLT
.L1623:
	movq	8(%rbx), %rax
	movq	136(%rax), %r12
	cmpb	$0, 56(%r12)
	je	.L1718
.L1622:
	movq	56(%rsp), %rax
	xorq	%fs:40, %rax
	jne	.L1719
	addq	$72, %rsp
	.cfi_remember_state
	.cfi_def_cfa_offset 56
	popq	%rbx
	.cfi_def_cfa_offset 48
	popq	%rbp
	.cfi_def_cfa_offset 40
	popq	%r12
	.cfi_def_cfa_offset 32
	popq	%r13
	.cfi_def_cfa_offset 24
	popq	%r14
	.cfi_def_cfa_offset 16
	popq	%r15
	.cfi_def_cfa_offset 8
	ret
	.p2align 4,,10
	.p2align 3
.L1718:
	.cfi_restore_state
	movq	(%r12), %rax
	movb	$1, 56(%r12)
	movq	%r12, %rdi
	call	*32(%rax)
.LEHE30:
	movq	16(%r12), %rbx
	testq	%rbx, %rbx
	je	.L1626
	movl	8(%rbx), %eax
	leaq	8(%rbx), %r13
	testl	%eax, %eax
	je	.L1626
.L1712:
	leal	1(%rax), %edx
	lock cmpxchgl	%edx, 0(%r13)
	jne	.L1720
	cmpq	$0, _ZL28__gthrw___pthread_key_createPjPFvPvE@GOTPCREL(%rip)
	movq	8(%r12), %rax
	movq	24(%r12), %r12
	movq	%rbx, 40(%rsp)
	movq	%rax, 32(%rsp)
	je	.L1631
	lock addl	$1, 0(%r13)
	movq	40(%rsp), %r14
.L1632:
	movq	%rbp, %rdi
	xorl	%eax, %eax
	movq	40(%r12), %r15
	call	_ZN4asio28asio_handler_is_continuationEz@PLT
	movb	%al, 15(%rsp)
	.byte	0x66
	leaq	_ZN4asio6detail15keyword_tss_ptrINS0_10call_stackINS0_15task_io_serviceENS0_27task_io_service_thread_infoEE7contextEE6value_E@tlsgd(%rip), %rdi
	.value	0x6666
	rex64
	call	__tls_get_addr@PLT
	movq	(%rax), %rax
	testq	%rax, %rax
	je	.L1633
	movq	8(%rax), %rax
	testq	%rax, %rax
	je	.L1633
	movq	(%rax), %rbp
	testq	%rbp, %rbp
	je	.L1633
	movq	$0, (%rax)
	movzbl	0(%rbp), %eax
	cmpb	$39, %al
	jbe	.L1634
	movb	%al, 40(%rbp)
	jmp	.L1635
	.p2align 4,,10
	.p2align 3
.L1634:
	movq	%rbp, %rdi
	call	_ZdlPv@PLT
.L1633:
	movl	$41, %edi
.LEHB31:
	call	_Znwm@PLT
.LEHE31:
	movq	%rax, %rbp
	movb	$40, 40(%rax)
.L1635:
	movq	_ZN4asio6detail18completion_handlerIZN7asiopal13IAsyncChannel8ShutdownEvEUlvE_E11do_completeEPNS0_15task_io_serviceEPNS0_25task_io_service_operationERKSt10error_codem@GOTPCREL(%rip), %rax
	pxor	%xmm0, %xmm0
	movq	$0, 0(%rbp)
	movl	$0, 16(%rbp)
	movq	%rax, 8(%rbp)
	movq	32(%rsp), %rax
	movq	%r14, 32(%rbp)
	movq	%rax, 24(%rbp)
	movaps	%xmm0, 32(%rsp)
	movq	48(%r12), %rax
	leaq	24(%rax), %rdi
	call	pthread_mutex_lock@PLT
	movq	48(%r12), %rdi
	cmpb	$0, 64(%rdi)
	je	.L1721
	cmpq	$0, 80(%rdi)
	movq	$0, 0(%rbp)
	je	.L1636
	movq	80(%rdi), %rax
	movq	%rbp, (%rax)
	movq	%rbp, 80(%rdi)
.L1637:
	addq	$24, %rdi
	call	pthread_mutex_unlock@PLT
.L1655:
	cmpq	$0, _ZL28__gthrw___pthread_key_createPjPFvPvE@GOTPCREL(%rip)
	je	.L1662
.L1661:
	lock subl	$1, 0(%r13)
	jne	.L1622
	movq	(%rbx), %rax
	movq	%rbx, %rdi
	call	*16(%rax)
	movl	$-1, %eax
	lock xaddl	%eax, 12(%rbx)
.L1671:
	cmpl	$1, %eax
	jne	.L1622
	movq	(%rbx), %rax
	movq	%rbx, %rdi
	call	*24(%rax)
	jmp	.L1622
	.p2align 4,,10
	.p2align 3
.L1656:
	movl	8(%rbp), %eax
	leal	-1(%rax), %edx
	cmpl	$1, %eax
	movl	%edx, 8(%rbp)
	je	.L1722
.L1662:
	movl	8(%rbx), %eax
	leal	-1(%rax), %edx
	cmpl	$1, %eax
	movl	%edx, 8(%rbx)
	jne	.L1622
	movq	(%rbx), %rax
	movq	%rbx, %rdi
	call	*16(%rax)
	movl	12(%rbx), %eax
	leal	-1(%rax), %edx
	movl	%edx, 12(%rbx)
	jmp	.L1671
	.p2align 4,,10
	.p2align 3
.L1631:
	addl	$1, 8(%rbx)
	movq	%rbx, %r14
	jmp	.L1632
	.p2align 4,,10
	.p2align 3
.L1721:
	movb	$1, 64(%rdi)
	movq	48(%r12), %rax
	leaq	24(%rax), %rdi
	call	pthread_mutex_unlock@PLT
	movq	48(%r12), %r14
	movq	$0, 0(%rbp)
	cmpq	$0, 96(%r14)
	je	.L1639
	movq	96(%r14), %rax
	movq	%rbp, (%rax)
	movq	%rbp, 96(%r14)
.L1640:
	movq	40(%r15), %r12
	cmpb	$0, 40(%r12)
	jne	.L1674
	cmpb	$0, 15(%rsp)
	je	.L1641
.L1674:
	.byte	0x66
	leaq	_ZN4asio6detail15keyword_tss_ptrINS0_10call_stackINS0_15task_io_serviceENS0_27task_io_service_thread_infoEE7contextEE6value_E@tlsgd(%rip), %rdi
	.value	0x6666
	rex64
	call	__tls_get_addr@PLT
	movq	(%rax), %rax
	testq	%rax, %rax
	jne	.L1713
	jmp	.L1641
	.p2align 4,,10
	.p2align 3
.L1644:
	movq	16(%rax), %rax
	testq	%rax, %rax
	je	.L1641
.L1713:
	cmpq	(%rax), %r12
	jne	.L1644
	movq	8(%rax), %rax
	testq	%rax, %rax
	je	.L1641
	addq	$1, 24(%rax)
	cmpq	$0, 16(%rax)
	movq	$0, (%r14)
	je	.L1647
	movq	16(%rax), %rdx
	movq	40(%rsp), %rbp
	movq	%r14, (%rdx)
	movq	%r14, 16(%rax)
.L1648:
	testq	%rbp, %rbp
	je	.L1655
	cmpq	$0, _ZL28__gthrw___pthread_key_createPjPFvPvE@GOTPCREL(%rip)
	je	.L1656
	lock subl	$1, 8(%rbp)
	jne	.L1661
	movq	0(%rbp), %rax
	movq	%rbp, %rdi
	call	*16(%rax)
	movl	$-1, %eax
	lock xaddl	%eax, 12(%rbp)
.L1670:
	cmpl	$1, %eax
	jne	.L1655
	movq	0(%rbp), %rax
	movq	%rbp, %rdi
	call	*24(%rax)
	jmp	.L1655
	.p2align 4,,10
	.p2align 3
.L1636:
	movq	%rbp, 80(%rdi)
	movq	%rbp, 72(%rdi)
	jmp	.L1637
	.p2align 4,,10
	.p2align 3
.L1641:
	lock addq	$1, 184(%r12)
	leaq	48(%r12), %rbp
	movq	%rbp, %rdi
	call	pthread_mutex_lock@PLT
	cmpq	$0, 200(%r12)
	movq	$0, (%r14)
	je	.L1649
	movq	200(%r12), %rax
	movq	%r14, (%rax)
	movq	%r14, 200(%r12)
.L1650:
	movq	136(%r12), %rax
	orq	$1, %rax
	cmpq	$1, %rax
	movq	%rax, 136(%r12)
	jne	.L1723
	cmpb	$0, 176(%r12)
	jne	.L1653
	movq	144(%r12), %rax
	testq	%rax, %rax
	je	.L1653
	leaq	88(%rax), %rdx
	movb	$1, 176(%r12)
	movl	96(%rax), %edi
	leaq	20(%rsp), %rcx
	movl	$3, %esi
	movl	$-2147483639, 20(%rsp)
	movq	%rdx, 24(%rsp)
	movl	88(%rax), %edx
	call	epoll_ctl@PLT
.L1653:
	movq	%rbp, %rdi
	call	pthread_mutex_unlock@PLT
.L1652:
	movq	40(%rsp), %rbp
	jmp	.L1648
	.p2align 4,,10
	.p2align 3
.L1722:
	movq	0(%rbp), %rax
	movq	%rbp, %rdi
	call	*16(%rax)
	movl	12(%rbp), %eax
	leal	-1(%rax), %edx
	movl	%edx, 12(%rbp)
	jmp	.L1670
	.p2align 4,,10
	.p2align 3
.L1649:
	movq	%r14, 200(%r12)
	movq	%r14, 192(%r12)
	jmp	.L1650
	.p2align 4,,10
	.p2align 3
.L1639:
	movq	%rbp, 96(%r14)
	movq	%rbp, 88(%r14)
	jmp	.L1640
	.p2align 4,,10
	.p2align 3
.L1723:
	movq	%rbp, %rdi
	call	pthread_mutex_unlock@PLT
	leaq	88(%r12), %rdi
	call	pthread_cond_signal@PLT
	jmp	.L1652
	.p2align 4,,10
	.p2align 3
.L1647:
	movq	%r14, 16(%rax)
	movq	%r14, 8(%rax)
	movq	40(%rsp), %rbp
	jmp	.L1648
.L1719:
	call	__stack_chk_fail@PLT
.L1720:
	testl	%eax, %eax
	jne	.L1712
.L1626:
.LEHB32:
	call	_ZSt20__throw_bad_weak_ptrv@PLT
.L1673:
	testq	%r14, %r14
	movq	%rax, %rbp
	je	.L1664
	movq	%r14, %rdi
	call	_ZNSt16_Sp_counted_baseILN9__gnu_cxx12_Lock_policyE2EE10_M_releaseEv@PLT
.L1664:
	movq	%rbx, %rdi
	call	_ZNSt16_Sp_counted_baseILN9__gnu_cxx12_Lock_policyE2EE10_M_releaseEv@PLT
	movq	%rbp, %rdi
	call	_Unwind_Resume@PLT
.LEHE32:
	.cfi_endproc
.LFE9502:
	.section	.gcc_except_table
.LLSDA9502:
	.byte	0xff
	.byte	0xff
	.byte	0x1
	.uleb128 .LLSDACSE9502-.LLSDACSB9502
.LLSDACSB9502:
	.uleb128 .LEHB30-.LFB9502
	.uleb128 .LEHE30-.LEHB30
	.uleb128 0
	.uleb128 0
	.uleb128 .LEHB31-.LFB9502
	.uleb128 .LEHE31-.LEHB31
	.uleb128 .L1673-.LFB9502
	.uleb128 0
	.uleb128 .LEHB32-.LFB9502
	.uleb128 .LEHE32-.LEHB32
	.uleb128 0
	.uleb128 0
.LLSDACSE9502:
	.text
	.size	_ZNSt17_Function_handlerIFvvEZN7openpal8TimerRef5StartIZN8asiodnp311LinkSession5StartEvEUlvE_EEbRKNS1_12TimeDurationERKT_EUlvE_E9_M_invokeERKSt9_Any_data, .-_ZNSt17_Function_handlerIFvvEZN7openpal8TimerRef5StartIZN8asiodnp311LinkSession5StartEvEUlvE_EEbRKNS1_12TimeDurationERKT_EUlvE_E9_M_invokeERKSt9_Any_data
	.section	.text._ZN4asio6detail18completion_handlerIZN7asiopal13IAsyncChannel16CheckForShutdownESt10shared_ptrIS3_EEUlvE_E11do_completeEPNS0_15task_io_serviceEPNS0_25task_io_service_operationERKSt10error_codem,"axG",@progbits,_ZN4asio6detail18completion_handlerIZN7asiopal13IAsyncChannel16CheckForShutdownESt10shared_ptrIS3_EEUlvE_E11do_completeEPNS0_15task_io_serviceEPNS0_25task_io_service_operationERKSt10error_codem,comdat
	.p2align 4,,15
	.weak	_ZN4asio6detail18completion_handlerIZN7asiopal13IAsyncChannel16CheckForShutdownESt10shared_ptrIS3_EEUlvE_E11do_completeEPNS0_15task_io_serviceEPNS0_25task_io_service_operationERKSt10error_codem
	.type	_ZN4asio6detail18completion_handlerIZN7asiopal13IAsyncChannel16CheckForShutdownESt10shared_ptrIS3_EEUlvE_E11do_completeEPNS0_15task_io_serviceEPNS0_25task_io_service_operationERKSt10error_codem, @function
_ZN4asio6detail18completion_handlerIZN7asiopal13IAsyncChannel16CheckForShutdownESt10shared_ptrIS3_EEUlvE_E11do_completeEPNS0_15task_io_serviceEPNS0_25task_io_service_operationERKSt10error_codem:
.LFB9628:
	.cfi_startproc
	.cfi_personality 0x9b,DW.ref.__gxx_personality_v0
	.cfi_lsda 0x1b,.LLSDA9628
	pushq	%r15
	.cfi_def_cfa_offset 16
	.cfi_offset 15, -16
	pushq	%r14
	.cfi_def_cfa_offset 24
	.cfi_offset 14, -24
	pushq	%r13
	.cfi_def_cfa_offset 32
	.cfi_offset 13, -32
	pushq	%r12
	.cfi_def_cfa_offset 40
	.cfi_offset 12, -40
	movq	%rdi, %r13
	pushq	%rbp
	.cfi_def_cfa_offset 48
	.cfi_offset 6, -48
	pushq	%rbx
	.cfi_def_cfa_offset 56
	.cfi_offset 3, -56
	movq	%rsi, %rbp
	subq	$56, %rsp
	.cfi_def_cfa_offset 112
	movq	24(%rsi), %r12
	movq	32(%rsi), %rbx
	movq	%fs:40, %rax
	movq	%rax, 40(%rsp)
	xorl	%eax, %eax
	.byte	0x66
	leaq	_ZN4asio6detail15keyword_tss_ptrINS0_10call_stackINS0_15task_io_serviceENS0_27task_io_service_thread_infoEE7contextEE6value_E@tlsgd(%rip), %rdi
	.value	0x6666
	rex64
	call	__tls_get_addr@PLT
	movq	(%rax), %rax
	testq	%rax, %rax
	je	.L1725
	movq	8(%rax), %rax
	testq	%rax, %rax
	je	.L1725
	cmpq	$0, (%rax)
	je	.L1853
.L1725:
	movq	%rbp, %rdi
	call	_ZdlPv@PLT
.L1726:
	testq	%r13, %r13
	je	.L1727
	testq	%rbx, %rbx
	je	.L1728
	cmpq	$0, _ZL28__gthrw___pthread_key_createPjPFvPvE@GOTPCREL(%rip)
	leaq	8(%rbx), %rax
	jne	.L1854
	movl	8(%rbx), %eax
	addl	$1, %eax
	cmpb	$0, 57(%r12)
	movl	%eax, 8(%rbx)
	jne	.L1793
	cmpb	$0, 58(%r12)
	je	.L1800
.L1793:
	addl	$2, %eax
	movq	24(%r12), %r13
	movq	%r12, 16(%rsp)
	movq	%rbx, 24(%rsp)
	movl	%eax, 8(%rbx)
	movq	%rbx, %r15
.L1734:
	leaq	16(%rsp), %rdi
	xorl	%eax, %eax
	movq	40(%r13), %r12
	call	_ZN4asio28asio_handler_is_continuationEz@PLT
	movl	%eax, %r14d
	.byte	0x66
	leaq	_ZN4asio6detail15keyword_tss_ptrINS0_10call_stackINS0_15task_io_serviceENS0_27task_io_service_thread_infoEE7contextEE6value_E@tlsgd(%rip), %rdi
	.value	0x6666
	rex64
	call	__tls_get_addr@PLT
	movq	(%rax), %rax
	testq	%rax, %rax
	je	.L1735
	movq	8(%rax), %rax
	testq	%rax, %rax
	je	.L1735
	movq	(%rax), %rbp
	testq	%rbp, %rbp
	je	.L1735
	movq	$0, (%rax)
	movzbl	0(%rbp), %eax
	cmpb	$39, %al
	jbe	.L1736
	movb	%al, 40(%rbp)
.L1737:
	movq	_ZN4asio6detail18completion_handlerIZN7asiopal13IAsyncChannel16CheckForShutdownESt10shared_ptrIS3_EEUlvE_E11do_completeEPNS0_15task_io_serviceEPNS0_25task_io_service_operationERKSt10error_codem@GOTPCREL(%rip), %rax
	pxor	%xmm0, %xmm0
	movq	$0, 0(%rbp)
	movl	$0, 16(%rbp)
	movq	%r15, 32(%rbp)
	movq	%rax, 8(%rbp)
	movq	16(%rsp), %rax
	movaps	%xmm0, 16(%rsp)
	movq	%rax, 24(%rbp)
	movq	48(%r13), %rax
	leaq	24(%rax), %rdi
	call	pthread_mutex_lock@PLT
	movq	48(%r13), %rdi
	cmpb	$0, 64(%rdi)
	je	.L1855
	cmpq	$0, 80(%rdi)
	movq	$0, 0(%rbp)
	je	.L1738
	movq	80(%rdi), %rax
	movq	%rbp, (%rax)
	movq	%rbp, 80(%rdi)
.L1739:
	addq	$24, %rdi
	call	pthread_mutex_unlock@PLT
.L1757:
	testq	%rbx, %rbx
	je	.L1780
	cmpq	$0, _ZL28__gthrw___pthread_key_createPjPFvPvE@GOTPCREL(%rip)
	je	.L1769
	lock subl	$1, 8(%rbx)
	je	.L1856
	.p2align 4,,10
	.p2align 3
.L1773:
	testq	%rbx, %rbx
	je	.L1780
	cmpq	$0, _ZL28__gthrw___pthread_key_createPjPFvPvE@GOTPCREL(%rip)
	je	.L1781
	lock subl	$1, 8(%rbx)
	je	.L1857
	.p2align 4,,10
	.p2align 3
.L1780:
	sfence
.L1727:
	testq	%rbx, %rbx
	je	.L1724
	cmpq	$0, _ZL28__gthrw___pthread_key_createPjPFvPvE@GOTPCREL(%rip)
	je	.L1789
	lock subl	$1, 8(%rbx)
	je	.L1858
.L1724:
	movq	40(%rsp), %rax
	xorq	%fs:40, %rax
	jne	.L1859
	addq	$56, %rsp
	.cfi_remember_state
	.cfi_def_cfa_offset 56
	popq	%rbx
	.cfi_def_cfa_offset 48
	popq	%rbp
	.cfi_def_cfa_offset 40
	popq	%r12
	.cfi_def_cfa_offset 32
	popq	%r13
	.cfi_def_cfa_offset 24
	popq	%r14
	.cfi_def_cfa_offset 16
	popq	%r15
	.cfi_def_cfa_offset 8
	ret
	.p2align 4,,10
	.p2align 3
.L1789:
	.cfi_restore_state
	movl	8(%rbx), %eax
	leal	-1(%rax), %edx
	cmpl	$1, %eax
	movl	%edx, 8(%rbx)
	jne	.L1724
	movq	(%rbx), %rax
	movq	%rbx, %rdi
	call	*16(%rax)
	movl	12(%rbx), %eax
	leal	-1(%rax), %edx
	movl	%edx, 12(%rbx)
	jmp	.L1805
	.p2align 4,,10
	.p2align 3
.L1854:
	lock addl	$1, (%rax)
	cmpb	$0, 57(%r12)
	jne	.L1806
	cmpb	$0, 58(%r12)
	je	.L1800
.L1806:
	lock addl	$1, (%rax)
	movq	24(%r12), %r13
	movq	%r12, 16(%rsp)
	movq	%rbx, 24(%rsp)
	lock addl	$1, (%rax)
	movq	24(%rsp), %r15
	jmp	.L1734
	.p2align 4,,10
	.p2align 3
.L1728:
	cmpb	$0, 57(%r12)
	jne	.L1794
	cmpb	$0, 58(%r12)
	jne	.L1794
.L1800:
	movq	48(%r12), %rbp
	movq	$0, 40(%r12)
	movq	$0, 48(%r12)
	testq	%rbp, %rbp
	je	.L1773
	cmpq	$0, _ZL28__gthrw___pthread_key_createPjPFvPvE@GOTPCREL(%rip)
	je	.L1774
	lock subl	$1, 8(%rbp)
	jne	.L1773
	movq	0(%rbp), %rax
	movq	%rbp, %rdi
	call	*16(%rax)
	movl	$-1, %eax
	lock xaddl	%eax, 12(%rbp)
.L1803:
	cmpl	$1, %eax
	jne	.L1773
	movq	0(%rbp), %rax
	movq	%rbp, %rdi
	call	*24(%rax)
	jmp	.L1773
	.p2align 4,,10
	.p2align 3
.L1853:
	movzbl	40(%rbp), %edx
	movb	%dl, 0(%rbp)
	movq	%rbp, (%rax)
	jmp	.L1726
	.p2align 4,,10
	.p2align 3
.L1858:
	movq	(%rbx), %rax
	movq	%rbx, %rdi
	call	*16(%rax)
	movl	$-1, %eax
	lock xaddl	%eax, 12(%rbx)
.L1805:
	cmpl	$1, %eax
	jne	.L1724
	movq	(%rbx), %rax
	movq	%rbx, %rdi
	call	*24(%rax)
	jmp	.L1724
	.p2align 4,,10
	.p2align 3
.L1794:
	movq	24(%r12), %r13
	movq	%r12, 16(%rsp)
	xorl	%r15d, %r15d
	movq	$0, 24(%rsp)
	jmp	.L1734
	.p2align 4,,10
	.p2align 3
.L1736:
	movq	%rbp, %rdi
	call	_ZdlPv@PLT
.L1735:
	movl	$41, %edi
.LEHB33:
	call	_Znwm@PLT
.LEHE33:
	movq	%rax, %rbp
	movb	$40, 40(%rax)
	jmp	.L1737
	.p2align 4,,10
	.p2align 3
.L1855:
	movb	$1, 64(%rdi)
	movq	48(%r13), %rax
	leaq	24(%rax), %rdi
	call	pthread_mutex_unlock@PLT
	movq	48(%r13), %r13
	movq	$0, 0(%rbp)
	cmpq	$0, 96(%r13)
	je	.L1741
	movq	96(%r13), %rax
	movq	%rbp, (%rax)
	movq	%rbp, 96(%r13)
.L1742:
	movq	40(%r12), %rbp
	cmpb	$0, 40(%rbp)
	jne	.L1811
	testb	%r14b, %r14b
	je	.L1743
.L1811:
	.byte	0x66
	leaq	_ZN4asio6detail15keyword_tss_ptrINS0_10call_stackINS0_15task_io_serviceENS0_27task_io_service_thread_infoEE7contextEE6value_E@tlsgd(%rip), %rdi
	.value	0x6666
	rex64
	call	__tls_get_addr@PLT
	movq	(%rax), %rax
	testq	%rax, %rax
	jne	.L1848
	jmp	.L1743
	.p2align 4,,10
	.p2align 3
.L1746:
	movq	16(%rax), %rax
	testq	%rax, %rax
	je	.L1743
.L1848:
	cmpq	(%rax), %rbp
	jne	.L1746
	movq	8(%rax), %rax
	testq	%rax, %rax
	je	.L1743
	addq	$1, 24(%rax)
	cmpq	$0, 16(%rax)
	movq	$0, 0(%r13)
	je	.L1749
	movq	16(%rax), %rdx
	movq	24(%rsp), %rbp
	movq	%r13, (%rdx)
	movq	%r13, 16(%rax)
.L1750:
	testq	%rbp, %rbp
	je	.L1757
	cmpq	$0, _ZL28__gthrw___pthread_key_createPjPFvPvE@GOTPCREL(%rip)
	je	.L1758
	lock subl	$1, 8(%rbp)
	jne	.L1757
	movq	0(%rbp), %rax
	movq	%rbp, %rdi
	call	*16(%rax)
	movl	$-1, %eax
	lock xaddl	%eax, 12(%rbp)
.L1801:
	cmpl	$1, %eax
	jne	.L1757
	movq	0(%rbp), %rax
	movq	%rbp, %rdi
	call	*24(%rax)
	jmp	.L1757
	.p2align 4,,10
	.p2align 3
.L1743:
	lock addq	$1, 184(%rbp)
	leaq	48(%rbp), %r12
	movq	%r12, %rdi
	call	pthread_mutex_lock@PLT
	cmpq	$0, 200(%rbp)
	movq	$0, 0(%r13)
	je	.L1751
	movq	200(%rbp), %rax
	movq	%r13, (%rax)
	movq	%r13, 200(%rbp)
.L1752:
	movq	136(%rbp), %rax
	orq	$1, %rax
	cmpq	$1, %rax
	movq	%rax, 136(%rbp)
	jne	.L1860
	cmpb	$0, 176(%rbp)
	jne	.L1755
	movq	144(%rbp), %rax
	testq	%rax, %rax
	je	.L1755
	leaq	88(%rax), %rdx
	movb	$1, 176(%rbp)
	movl	96(%rax), %edi
	leaq	4(%rsp), %rcx
	movl	$3, %esi
	movl	$-2147483639, 4(%rsp)
	movq	%rdx, 8(%rsp)
	movl	88(%rax), %edx
	call	epoll_ctl@PLT
.L1755:
	movq	%r12, %rdi
	call	pthread_mutex_unlock@PLT
.L1754:
	movq	24(%rsp), %rbp
	jmp	.L1750
	.p2align 4,,10
	.p2align 3
.L1781:
	movl	8(%rbx), %eax
	leal	-1(%rax), %edx
	cmpl	$1, %eax
	movl	%edx, 8(%rbx)
	jne	.L1780
	movq	(%rbx), %rax
	movq	%rbx, %rdi
	call	*16(%rax)
	movl	12(%rbx), %eax
	leal	-1(%rax), %edx
	movl	%edx, 12(%rbx)
.L1804:
	cmpl	$1, %eax
	jne	.L1780
	movq	(%rbx), %rax
	movq	%rbx, %rdi
	call	*24(%rax)
	jmp	.L1780
	.p2align 4,,10
	.p2align 3
.L1738:
	movq	%rbp, 80(%rdi)
	movq	%rbp, 72(%rdi)
	jmp	.L1739
	.p2align 4,,10
	.p2align 3
.L1769:
	movl	8(%rbx), %eax
	leal	-1(%rax), %edx
	cmpl	$1, %eax
	movl	%edx, 8(%rbx)
	jne	.L1773
	movq	(%rbx), %rax
	movq	%rbx, %rdi
	call	*16(%rax)
	movl	12(%rbx), %eax
	leal	-1(%rax), %edx
	movl	%edx, 12(%rbx)
	jmp	.L1802
	.p2align 4,,10
	.p2align 3
.L1856:
	movq	(%rbx), %rax
	movq	%rbx, %rdi
	call	*16(%rax)
	movl	$-1, %eax
	lock xaddl	%eax, 12(%rbx)
.L1802:
	cmpl	$1, %eax
	jne	.L1773
	movq	(%rbx), %rax
	movq	%rbx, %rdi
	call	*24(%rax)
	jmp	.L1773
	.p2align 4,,10
	.p2align 3
.L1751:
	movq	%r13, 200(%rbp)
	movq	%r13, 192(%rbp)
	jmp	.L1752
	.p2align 4,,10
	.p2align 3
.L1758:
	movl	8(%rbp), %eax
	leal	-1(%rax), %edx
	cmpl	$1, %eax
	movl	%edx, 8(%rbp)
	jne	.L1757
	movq	0(%rbp), %rax
	movq	%rbp, %rdi
	call	*16(%rax)
	movl	12(%rbp), %eax
	leal	-1(%rax), %edx
	movl	%edx, 12(%rbp)
	jmp	.L1801
	.p2align 4,,10
	.p2align 3
.L1774:
	movl	8(%rbp), %eax
	leal	-1(%rax), %edx
	cmpl	$1, %eax
	movl	%edx, 8(%rbp)
	jne	.L1773
	movq	0(%rbp), %rax
	movq	%rbp, %rdi
	call	*16(%rax)
	movl	12(%rbp), %eax
	leal	-1(%rax), %edx
	movl	%edx, 12(%rbp)
	jmp	.L1803
	.p2align 4,,10
	.p2align 3
.L1857:
	movq	(%rbx), %rax
	movq	%rbx, %rdi
	call	*16(%rax)
	movl	$-1, %eax
	lock xaddl	%eax, 12(%rbx)
	jmp	.L1804
	.p2align 4,,10
	.p2align 3
.L1741:
	movq	%rbp, 96(%r13)
	movq	%rbp, 88(%r13)
	jmp	.L1742
	.p2align 4,,10
	.p2align 3
.L1860:
	movq	%r12, %rdi
	call	pthread_mutex_unlock@PLT
	leaq	88(%rbp), %rdi
	call	pthread_cond_signal@PLT
	jmp	.L1754
	.p2align 4,,10
	.p2align 3
.L1749:
	movq	%r13, 16(%rax)
	movq	%r13, 8(%rax)
	movq	24(%rsp), %rbp
	jmp	.L1750
.L1859:
	call	__stack_chk_fail@PLT
.L1810:
	testq	%r15, %r15
	movq	%rax, %rbp
	je	.L1764
	movq	%r15, %rdi
	call	_ZNSt16_Sp_counted_baseILN9__gnu_cxx12_Lock_policyE2EE10_M_releaseEv@PLT
.L1764:
	testq	%rbx, %rbx
	je	.L1778
	movq	%rbx, %rdi
	call	_ZNSt16_Sp_counted_baseILN9__gnu_cxx12_Lock_policyE2EE10_M_releaseEv@PLT
	movq	%rbx, %rdi
	call	_ZNSt16_Sp_counted_baseILN9__gnu_cxx12_Lock_policyE2EE10_M_releaseEv@PLT
.L1778:
	testq	%rbx, %rbx
	sfence
	je	.L1786
	movq	%rbx, %rdi
	call	_ZNSt16_Sp_counted_baseILN9__gnu_cxx12_Lock_policyE2EE10_M_releaseEv@PLT
.L1786:
	movq	%rbp, %rdi
.LEHB34:
	call	_Unwind_Resume@PLT
.LEHE34:
	.cfi_endproc
.LFE9628:
	.section	.gcc_except_table
.LLSDA9628:
	.byte	0xff
	.byte	0xff
	.byte	0x1
	.uleb128 .LLSDACSE9628-.LLSDACSB9628
.LLSDACSB9628:
	.uleb128 .LEHB33-.LFB9628
	.uleb128 .LEHE33-.LEHB33
	.uleb128 .L1810-.LFB9628
	.uleb128 0
	.uleb128 .LEHB34-.LFB9628
	.uleb128 .LEHE34-.LEHB34
	.uleb128 0
	.uleb128 0
.LLSDACSE9628:
	.section	.text._ZN4asio6detail18completion_handlerIZN7asiopal13IAsyncChannel16CheckForShutdownESt10shared_ptrIS3_EEUlvE_E11do_completeEPNS0_15task_io_serviceEPNS0_25task_io_service_operationERKSt10error_codem,"axG",@progbits,_ZN4asio6detail18completion_handlerIZN7asiopal13IAsyncChannel16CheckForShutdownESt10shared_ptrIS3_EEUlvE_E11do_completeEPNS0_15task_io_serviceEPNS0_25task_io_service_operationERKSt10error_codem,comdat
	.size	_ZN4asio6detail18completion_handlerIZN7asiopal13IAsyncChannel16CheckForShutdownESt10shared_ptrIS3_EEUlvE_E11do_completeEPNS0_15task_io_serviceEPNS0_25task_io_service_operationERKSt10error_codem, .-_ZN4asio6detail18completion_handlerIZN7asiopal13IAsyncChannel16CheckForShutdownESt10shared_ptrIS3_EEUlvE_E11do_completeEPNS0_15task_io_serviceEPNS0_25task_io_service_operationERKSt10error_codem
	.section	.text.startup,"ax",@progbits
	.p2align 4,,15
	.type	_GLOBAL__sub_I_LinkSession.cpp, @function
_GLOBAL__sub_I_LinkSession.cpp:
.LFB10424:
	.cfi_startproc
	pushq	%rbx
	.cfi_def_cfa_offset 16
	.cfi_offset 3, -16
	movq	_ZGVZN4asio15system_categoryEvE8instance@GOTPCREL(%rip), %rbx
	movzbl	(%rbx), %eax
	testb	%al, %al
	je	.L1892
.L1863:
	movq	_ZGVZN4asio5error18get_netdb_categoryEvE8instance@GOTPCREL(%rip), %rbx
	movzbl	(%rbx), %eax
	testb	%al, %al
	je	.L1893
.L1866:
	movq	_ZGVZN4asio5error21get_addrinfo_categoryEvE8instance@GOTPCREL(%rip), %rbx
	movzbl	(%rbx), %eax
	testb	%al, %al
	je	.L1894
.L1869:
	movq	_ZGVZN4asio5error17get_misc_categoryEvE8instance@GOTPCREL(%rip), %rbx
	movzbl	(%rbx), %eax
	testb	%al, %al
	je	.L1895
.L1872:
	movl	$5000, %edi
	call	_ZN7openpal12TimeDuration12MillisecondsEl@PLT
	movq	_ZGVN4asio6detail10call_stackINS0_15task_io_serviceENS0_27task_io_service_thread_infoEE4top_E@GOTPCREL(%rip), %rax
	cmpb	$0, (%rax)
	je	.L1896
.L1874:
	movq	_ZGVN4asio6detail12service_baseINS0_13epoll_reactorEE2idE@GOTPCREL(%rip), %rax
	cmpb	$0, (%rax)
	je	.L1897
.L1875:
	movq	_ZGVN4asio6detail12service_baseINS0_15task_io_serviceEE2idE@GOTPCREL(%rip), %rax
	cmpb	$0, (%rax)
	je	.L1898
.L1876:
	movq	_ZGVN4asio6detail10call_stackINS0_14strand_service11strand_implEhE4top_E@GOTPCREL(%rip), %rax
	cmpb	$0, (%rax)
	je	.L1899
.L1877:
	movq	_ZGVN4asio6detail12service_baseINS0_14strand_serviceEE2idE@GOTPCREL(%rip), %rax
	cmpb	$0, (%rax)
	je	.L1900
	popq	%rbx
	.cfi_remember_state
	.cfi_def_cfa_offset 8
	ret
.L1892:
	.cfi_restore_state
	movq	%rbx, %rdi
	call	__cxa_guard_acquire@PLT
	testl	%eax, %eax
	je	.L1863
	movq	%rbx, %rdi
	call	__cxa_guard_release@PLT
	movq	_ZZN4asio15system_categoryEvE8instance@GOTPCREL(%rip), %rsi
	movq	_ZN4asio6detail15system_categoryD1Ev@GOTPCREL(%rip), %rdi
	leaq	__dso_handle(%rip), %rdx
	call	__cxa_atexit@PLT
	jmp	.L1863
.L1900:
	movb	$1, (%rax)
	movq	_ZN4asio6detail12service_baseINS0_14strand_serviceEE2idE@GOTPCREL(%rip), %rsi
	leaq	__dso_handle(%rip), %rdx
	popq	%rbx
	.cfi_remember_state
	.cfi_def_cfa_offset 8
	movq	_ZN4asio6detail10service_idINS0_14strand_serviceEED1Ev@GOTPCREL(%rip), %rdi
	jmp	__cxa_atexit@PLT
.L1895:
	.cfi_restore_state
	movq	%rbx, %rdi
	call	__cxa_guard_acquire@PLT
	testl	%eax, %eax
	je	.L1872
	movq	%rbx, %rdi
	call	__cxa_guard_release@PLT
	movq	_ZZN4asio5error17get_misc_categoryEvE8instance@GOTPCREL(%rip), %rsi
	movq	_ZN4asio5error6detail13misc_categoryD1Ev@GOTPCREL(%rip), %rdi
	leaq	__dso_handle(%rip), %rdx
	call	__cxa_atexit@PLT
	jmp	.L1872
.L1894:
	movq	%rbx, %rdi
	call	__cxa_guard_acquire@PLT
	testl	%eax, %eax
	je	.L1869
	movq	%rbx, %rdi
	call	__cxa_guard_release@PLT
	movq	_ZZN4asio5error21get_addrinfo_categoryEvE8instance@GOTPCREL(%rip), %rsi
	movq	_ZN4asio5error6detail17addrinfo_categoryD1Ev@GOTPCREL(%rip), %rdi
	leaq	__dso_handle(%rip), %rdx
	call	__cxa_atexit@PLT
	jmp	.L1869
.L1893:
	movq	%rbx, %rdi
	call	__cxa_guard_acquire@PLT
	testl	%eax, %eax
	je	.L1866
	movq	%rbx, %rdi
	call	__cxa_guard_release@PLT
	movq	_ZZN4asio5error18get_netdb_categoryEvE8instance@GOTPCREL(%rip), %rsi
	movq	_ZN4asio5error6detail14netdb_categoryD1Ev@GOTPCREL(%rip), %rdi
	leaq	__dso_handle(%rip), %rdx
	call	__cxa_atexit@PLT
	jmp	.L1866
.L1898:
	movq	_ZN4asio6detail12service_baseINS0_15task_io_serviceEE2idE@GOTPCREL(%rip), %rsi
	movq	_ZN4asio6detail10service_idINS0_15task_io_serviceEED1Ev@GOTPCREL(%rip), %rdi
	leaq	__dso_handle(%rip), %rdx
	movb	$1, (%rax)
	call	__cxa_atexit@PLT
	jmp	.L1876
.L1897:
	movq	_ZN4asio6detail12service_baseINS0_13epoll_reactorEE2idE@GOTPCREL(%rip), %rsi
	movq	_ZN4asio6detail10service_idINS0_13epoll_reactorEED1Ev@GOTPCREL(%rip), %rdi
	leaq	__dso_handle(%rip), %rdx
	movb	$1, (%rax)
	call	__cxa_atexit@PLT
	jmp	.L1875
.L1899:
	movq	_ZN4asio6detail10call_stackINS0_14strand_service11strand_implEhE4top_E@GOTPCREL(%rip), %rsi
	movq	_ZN4asio6detail7tss_ptrINS0_10call_stackINS0_14strand_service11strand_implEhE7contextEED1Ev@GOTPCREL(%rip), %rdi
	leaq	__dso_handle(%rip), %rdx
	movb	$1, (%rax)
	call	__cxa_atexit@PLT
	jmp	.L1877
.L1896:
	movq	_ZN4asio6detail10call_stackINS0_15task_io_serviceENS0_27task_io_service_thread_infoEE4top_E@GOTPCREL(%rip), %rsi
	movq	_ZN4asio6detail7tss_ptrINS0_10call_stackINS0_15task_io_serviceENS0_27task_io_service_thread_infoEE7contextEED1Ev@GOTPCREL(%rip), %rdi
	leaq	__dso_handle(%rip), %rdx
	movb	$1, (%rax)
	call	__cxa_atexit@PLT
	jmp	.L1874
	.cfi_endproc
.LFE10424:
	.size	_GLOBAL__sub_I_LinkSession.cpp, .-_GLOBAL__sub_I_LinkSession.cpp
	.section	.init_array,"aw"
	.align 8
	.quad	_GLOBAL__sub_I_LinkSession.cpp
	.weak	_ZTSN7openpal10UncopyableE
	.section	.rodata._ZTSN7openpal10UncopyableE,"aG",@progbits,_ZTSN7openpal10UncopyableE,comdat
	.align 16
	.type	_ZTSN7openpal10UncopyableE, @object
	.size	_ZTSN7openpal10UncopyableE, 23
_ZTSN7openpal10UncopyableE:
	.string	"N7openpal10UncopyableE"
	.weak	_ZTIN7openpal10UncopyableE
	.section	.data.rel.ro._ZTIN7openpal10UncopyableE,"awG",@progbits,_ZTIN7openpal10UncopyableE,comdat
	.align 8
	.type	_ZTIN7openpal10UncopyableE, @object
	.size	_ZTIN7openpal10UncopyableE, 16
_ZTIN7openpal10UncopyableE:
	.quad	_ZTVN10__cxxabiv117__class_type_infoE+16
	.quad	_ZTSN7openpal10UncopyableE
	.weak	_ZTSSt23enable_shared_from_thisIN8asiodnp311LinkSessionEE
	.section	.rodata._ZTSSt23enable_shared_from_thisIN8asiodnp311LinkSessionEE,"aG",@progbits,_ZTSSt23enable_shared_from_thisIN8asiodnp311LinkSessionEE,comdat
	.align 32
	.type	_ZTSSt23enable_shared_from_thisIN8asiodnp311LinkSessionEE, @object
	.size	_ZTSSt23enable_shared_from_thisIN8asiodnp311LinkSessionEE, 54
_ZTSSt23enable_shared_from_thisIN8asiodnp311LinkSessionEE:
	.string	"St23enable_shared_from_thisIN8asiodnp311LinkSessionEE"
	.weak	_ZTISt23enable_shared_from_thisIN8asiodnp311LinkSessionEE
	.section	.data.rel.ro._ZTISt23enable_shared_from_thisIN8asiodnp311LinkSessionEE,"awG",@progbits,_ZTISt23enable_shared_from_thisIN8asiodnp311LinkSessionEE,comdat
	.align 8
	.type	_ZTISt23enable_shared_from_thisIN8asiodnp311LinkSessionEE, @object
	.size	_ZTISt23enable_shared_from_thisIN8asiodnp311LinkSessionEE, 16
_ZTISt23enable_shared_from_thisIN8asiodnp311LinkSessionEE:
	.quad	_ZTVN10__cxxabiv117__class_type_infoE+16
	.quad	_ZTSSt23enable_shared_from_thisIN8asiodnp311LinkSessionEE
	.weak	_ZGVN4asio6detail12service_baseINS0_14strand_serviceEE2idE
	.section	.bss._ZGVN4asio6detail12service_baseINS0_14strand_serviceEE2idE,"awG",@nobits,_ZGVN4asio6detail12service_baseINS0_14strand_serviceEE2idE,comdat
	.align 8
	.type	_ZGVN4asio6detail12service_baseINS0_14strand_serviceEE2idE, @gnu_unique_object
	.size	_ZGVN4asio6detail12service_baseINS0_14strand_serviceEE2idE, 8
_ZGVN4asio6detail12service_baseINS0_14strand_serviceEE2idE:
	.zero	8
	.weak	_ZGVN4asio6detail10call_stackINS0_14strand_service11strand_implEhE4top_E
	.section	.bss._ZGVN4asio6detail10call_stackINS0_14strand_service11strand_implEhE4top_E,"awG",@nobits,_ZGVN4asio6detail10call_stackINS0_14strand_service11strand_implEhE4top_E,comdat
	.align 8
	.type	_ZGVN4asio6detail10call_stackINS0_14strand_service11strand_implEhE4top_E, @gnu_unique_object
	.size	_ZGVN4asio6detail10call_stackINS0_14strand_service11strand_implEhE4top_E, 8
_ZGVN4asio6detail10call_stackINS0_14strand_service11strand_implEhE4top_E:
	.zero	8
	.weak	_ZGVN4asio6detail12service_baseINS0_15task_io_serviceEE2idE
	.section	.bss._ZGVN4asio6detail12service_baseINS0_15task_io_serviceEE2idE,"awG",@nobits,_ZGVN4asio6detail12service_baseINS0_15task_io_serviceEE2idE,comdat
	.align 8
	.type	_ZGVN4asio6detail12service_baseINS0_15task_io_serviceEE2idE, @gnu_unique_object
	.size	_ZGVN4asio6detail12service_baseINS0_15task_io_serviceEE2idE, 8
_ZGVN4asio6detail12service_baseINS0_15task_io_serviceEE2idE:
	.zero	8
	.weak	_ZGVN4asio6detail12service_baseINS0_13epoll_reactorEE2idE
	.section	.bss._ZGVN4asio6detail12service_baseINS0_13epoll_reactorEE2idE,"awG",@nobits,_ZGVN4asio6detail12service_baseINS0_13epoll_reactorEE2idE,comdat
	.align 8
	.type	_ZGVN4asio6detail12service_baseINS0_13epoll_reactorEE2idE, @gnu_unique_object
	.size	_ZGVN4asio6detail12service_baseINS0_13epoll_reactorEE2idE, 8
_ZGVN4asio6detail12service_baseINS0_13epoll_reactorEE2idE:
	.zero	8
	.weak	_ZGVN4asio6detail10call_stackINS0_15task_io_serviceENS0_27task_io_service_thread_infoEE4top_E
	.section	.bss._ZGVN4asio6detail10call_stackINS0_15task_io_serviceENS0_27task_io_service_thread_infoEE4top_E,"awG",@nobits,_ZGVN4asio6detail10call_stackINS0_15task_io_serviceENS0_27task_io_service_thread_infoEE4top_E,comdat
	.align 8
	.type	_ZGVN4asio6detail10call_stackINS0_15task_io_serviceENS0_27task_io_service_thread_infoEE4top_E, @gnu_unique_object
	.size	_ZGVN4asio6detail10call_stackINS0_15task_io_serviceENS0_27task_io_service_thread_infoEE4top_E, 8
_ZGVN4asio6detail10call_stackINS0_15task_io_serviceENS0_27task_io_service_thread_infoEE4top_E:
	.zero	8
	.weak	_ZN4asio6detail12service_baseINS0_14strand_serviceEE2idE
	.section	.bss._ZN4asio6detail12service_baseINS0_14strand_serviceEE2idE,"awG",@nobits,_ZN4asio6detail12service_baseINS0_14strand_serviceEE2idE,comdat
	.type	_ZN4asio6detail12service_baseINS0_14strand_serviceEE2idE, @gnu_unique_object
	.size	_ZN4asio6detail12service_baseINS0_14strand_serviceEE2idE, 1
_ZN4asio6detail12service_baseINS0_14strand_serviceEE2idE:
	.zero	1
	.weak	_ZN4asio6detail10call_stackINS0_14strand_service11strand_implEhE4top_E
	.section	.bss._ZN4asio6detail10call_stackINS0_14strand_service11strand_implEhE4top_E,"awG",@nobits,_ZN4asio6detail10call_stackINS0_14strand_service11strand_implEhE4top_E,comdat
	.type	_ZN4asio6detail10call_stackINS0_14strand_service11strand_implEhE4top_E, @gnu_unique_object
	.size	_ZN4asio6detail10call_stackINS0_14strand_service11strand_implEhE4top_E, 1
_ZN4asio6detail10call_stackINS0_14strand_service11strand_implEhE4top_E:
	.zero	1
	.weak	_ZN4asio6detail12service_baseINS0_15task_io_serviceEE2idE
	.section	.bss._ZN4asio6detail12service_baseINS0_15task_io_serviceEE2idE,"awG",@nobits,_ZN4asio6detail12service_baseINS0_15task_io_serviceEE2idE,comdat
	.type	_ZN4asio6detail12service_baseINS0_15task_io_serviceEE2idE, @gnu_unique_object
	.size	_ZN4asio6detail12service_baseINS0_15task_io_serviceEE2idE, 1
_ZN4asio6detail12service_baseINS0_15task_io_serviceEE2idE:
	.zero	1
	.weak	_ZN4asio6detail12service_baseINS0_13epoll_reactorEE2idE
	.section	.bss._ZN4asio6detail12service_baseINS0_13epoll_reactorEE2idE,"awG",@nobits,_ZN4asio6detail12service_baseINS0_13epoll_reactorEE2idE,comdat
	.type	_ZN4asio6detail12service_baseINS0_13epoll_reactorEE2idE, @gnu_unique_object
	.size	_ZN4asio6detail12service_baseINS0_13epoll_reactorEE2idE, 1
_ZN4asio6detail12service_baseINS0_13epoll_reactorEE2idE:
	.zero	1
	.weak	_ZN4asio6detail10call_stackINS0_15task_io_serviceENS0_27task_io_service_thread_infoEE4top_E
	.section	.bss._ZN4asio6detail10call_stackINS0_15task_io_serviceENS0_27task_io_service_thread_infoEE4top_E,"awG",@nobits,_ZN4asio6detail10call_stackINS0_15task_io_serviceENS0_27task_io_service_thread_infoEE4top_E,comdat
	.type	_ZN4asio6detail10call_stackINS0_15task_io_serviceENS0_27task_io_service_thread_infoEE4top_E, @gnu_unique_object
	.size	_ZN4asio6detail10call_stackINS0_15task_io_serviceENS0_27task_io_service_thread_infoEE4top_E, 1
_ZN4asio6detail10call_stackINS0_15task_io_serviceENS0_27task_io_service_thread_infoEE4top_E:
	.zero	1
	.weak	_ZTSN8opendnp310IFrameSinkE
	.section	.rodata._ZTSN8opendnp310IFrameSinkE,"aG",@progbits,_ZTSN8opendnp310IFrameSinkE,comdat
	.align 16
	.type	_ZTSN8opendnp310IFrameSinkE, @object
	.size	_ZTSN8opendnp310IFrameSinkE, 24
_ZTSN8opendnp310IFrameSinkE:
	.string	"N8opendnp310IFrameSinkE"
	.weak	_ZTIN8opendnp310IFrameSinkE
	.section	.data.rel.ro._ZTIN8opendnp310IFrameSinkE,"awG",@progbits,_ZTIN8opendnp310IFrameSinkE,comdat
	.align 8
	.type	_ZTIN8opendnp310IFrameSinkE, @object
	.size	_ZTIN8opendnp310IFrameSinkE, 16
_ZTIN8opendnp310IFrameSinkE:
	.quad	_ZTVN10__cxxabiv117__class_type_infoE+16
	.quad	_ZTSN8opendnp310IFrameSinkE
	.weak	_ZTSN8opendnp37ILinkTxE
	.section	.rodata._ZTSN8opendnp37ILinkTxE,"aG",@progbits,_ZTSN8opendnp37ILinkTxE,comdat
	.align 16
	.type	_ZTSN8opendnp37ILinkTxE, @object
	.size	_ZTSN8opendnp37ILinkTxE, 20
_ZTSN8opendnp37ILinkTxE:
	.string	"N8opendnp37ILinkTxE"
	.weak	_ZTIN8opendnp37ILinkTxE
	.section	.data.rel.ro._ZTIN8opendnp37ILinkTxE,"awG",@progbits,_ZTIN8opendnp37ILinkTxE,comdat
	.align 8
	.type	_ZTIN8opendnp37ILinkTxE, @object
	.size	_ZTIN8opendnp37ILinkTxE, 16
_ZTIN8opendnp37ILinkTxE:
	.quad	_ZTVN10__cxxabiv117__class_type_infoE+16
	.quad	_ZTSN8opendnp37ILinkTxE
	.weak	_ZTSN4asio6detail15system_categoryE
	.section	.rodata._ZTSN4asio6detail15system_categoryE,"aG",@progbits,_ZTSN4asio6detail15system_categoryE,comdat
	.align 32
	.type	_ZTSN4asio6detail15system_categoryE, @object
	.size	_ZTSN4asio6detail15system_categoryE, 32
_ZTSN4asio6detail15system_categoryE:
	.string	"N4asio6detail15system_categoryE"
	.weak	_ZTIN4asio6detail15system_categoryE
	.section	.data.rel.ro._ZTIN4asio6detail15system_categoryE,"awG",@progbits,_ZTIN4asio6detail15system_categoryE,comdat
	.align 8
	.type	_ZTIN4asio6detail15system_categoryE, @object
	.size	_ZTIN4asio6detail15system_categoryE, 24
_ZTIN4asio6detail15system_categoryE:
	.quad	_ZTVN10__cxxabiv120__si_class_type_infoE+16
	.quad	_ZTSN4asio6detail15system_categoryE
	.quad	_ZTINSt3_V214error_categoryE
	.weak	_ZTSN4asio5error6detail14netdb_categoryE
	.section	.rodata._ZTSN4asio5error6detail14netdb_categoryE,"aG",@progbits,_ZTSN4asio5error6detail14netdb_categoryE,comdat
	.align 32
	.type	_ZTSN4asio5error6detail14netdb_categoryE, @object
	.size	_ZTSN4asio5error6detail14netdb_categoryE, 37
_ZTSN4asio5error6detail14netdb_categoryE:
	.string	"N4asio5error6detail14netdb_categoryE"
	.weak	_ZTIN4asio5error6detail14netdb_categoryE
	.section	.data.rel.ro._ZTIN4asio5error6detail14netdb_categoryE,"awG",@progbits,_ZTIN4asio5error6detail14netdb_categoryE,comdat
	.align 8
	.type	_ZTIN4asio5error6detail14netdb_categoryE, @object
	.size	_ZTIN4asio5error6detail14netdb_categoryE, 24
_ZTIN4asio5error6detail14netdb_categoryE:
	.quad	_ZTVN10__cxxabiv120__si_class_type_infoE+16
	.quad	_ZTSN4asio5error6detail14netdb_categoryE
	.quad	_ZTINSt3_V214error_categoryE
	.weak	_ZTSN4asio5error6detail17addrinfo_categoryE
	.section	.rodata._ZTSN4asio5error6detail17addrinfo_categoryE,"aG",@progbits,_ZTSN4asio5error6detail17addrinfo_categoryE,comdat
	.align 32
	.type	_ZTSN4asio5error6detail17addrinfo_categoryE, @object
	.size	_ZTSN4asio5error6detail17addrinfo_categoryE, 40
_ZTSN4asio5error6detail17addrinfo_categoryE:
	.string	"N4asio5error6detail17addrinfo_categoryE"
	.weak	_ZTIN4asio5error6detail17addrinfo_categoryE
	.section	.data.rel.ro._ZTIN4asio5error6detail17addrinfo_categoryE,"awG",@progbits,_ZTIN4asio5error6detail17addrinfo_categoryE,comdat
	.align 8
	.type	_ZTIN4asio5error6detail17addrinfo_categoryE, @object
	.size	_ZTIN4asio5error6detail17addrinfo_categoryE, 24
_ZTIN4asio5error6detail17addrinfo_categoryE:
	.quad	_ZTVN10__cxxabiv120__si_class_type_infoE+16
	.quad	_ZTSN4asio5error6detail17addrinfo_categoryE
	.quad	_ZTINSt3_V214error_categoryE
	.weak	_ZTSN4asio5error6detail13misc_categoryE
	.section	.rodata._ZTSN4asio5error6detail13misc_categoryE,"aG",@progbits,_ZTSN4asio5error6detail13misc_categoryE,comdat
	.align 32
	.type	_ZTSN4asio5error6detail13misc_categoryE, @object
	.size	_ZTSN4asio5error6detail13misc_categoryE, 36
_ZTSN4asio5error6detail13misc_categoryE:
	.string	"N4asio5error6detail13misc_categoryE"
	.weak	_ZTIN4asio5error6detail13misc_categoryE
	.section	.data.rel.ro._ZTIN4asio5error6detail13misc_categoryE,"awG",@progbits,_ZTIN4asio5error6detail13misc_categoryE,comdat
	.align 8
	.type	_ZTIN4asio5error6detail13misc_categoryE, @object
	.size	_ZTIN4asio5error6detail13misc_categoryE, 24
_ZTIN4asio5error6detail13misc_categoryE:
	.quad	_ZTVN10__cxxabiv120__si_class_type_infoE+16
	.quad	_ZTSN4asio5error6detail13misc_categoryE
	.quad	_ZTINSt3_V214error_categoryE
	.weak	_ZTSN7asiopal9IResourceE
	.section	.rodata._ZTSN7asiopal9IResourceE,"aG",@progbits,_ZTSN7asiopal9IResourceE,comdat
	.align 16
	.type	_ZTSN7asiopal9IResourceE, @object
	.size	_ZTSN7asiopal9IResourceE, 21
_ZTSN7asiopal9IResourceE:
	.string	"N7asiopal9IResourceE"
	.weak	_ZTIN7asiopal9IResourceE
	.section	.data.rel.ro._ZTIN7asiopal9IResourceE,"awG",@progbits,_ZTIN7asiopal9IResourceE,comdat
	.align 8
	.type	_ZTIN7asiopal9IResourceE, @object
	.size	_ZTIN7asiopal9IResourceE, 16
_ZTIN7asiopal9IResourceE:
	.quad	_ZTVN10__cxxabiv117__class_type_infoE+16
	.quad	_ZTSN7asiopal9IResourceE
	.weak	_ZTSN7asiopal17IChannelCallbacksE
	.section	.rodata._ZTSN7asiopal17IChannelCallbacksE,"aG",@progbits,_ZTSN7asiopal17IChannelCallbacksE,comdat
	.align 16
	.type	_ZTSN7asiopal17IChannelCallbacksE, @object
	.size	_ZTSN7asiopal17IChannelCallbacksE, 30
_ZTSN7asiopal17IChannelCallbacksE:
	.string	"N7asiopal17IChannelCallbacksE"
	.weak	_ZTIN7asiopal17IChannelCallbacksE
	.section	.data.rel.ro._ZTIN7asiopal17IChannelCallbacksE,"awG",@progbits,_ZTIN7asiopal17IChannelCallbacksE,comdat
	.align 8
	.type	_ZTIN7asiopal17IChannelCallbacksE, @object
	.size	_ZTIN7asiopal17IChannelCallbacksE, 16
_ZTIN7asiopal17IChannelCallbacksE:
	.quad	_ZTVN10__cxxabiv117__class_type_infoE+16
	.quad	_ZTSN7asiopal17IChannelCallbacksE
	.weak	_ZTSN8asiodnp316ISessionAcceptorE
	.section	.rodata._ZTSN8asiodnp316ISessionAcceptorE,"aG",@progbits,_ZTSN8asiodnp316ISessionAcceptorE,comdat
	.align 16
	.type	_ZTSN8asiodnp316ISessionAcceptorE, @object
	.size	_ZTSN8asiodnp316ISessionAcceptorE, 30
_ZTSN8asiodnp316ISessionAcceptorE:
	.string	"N8asiodnp316ISessionAcceptorE"
	.weak	_ZTIN8asiodnp316ISessionAcceptorE
	.section	.data.rel.ro._ZTIN8asiodnp316ISessionAcceptorE,"awG",@progbits,_ZTIN8asiodnp316ISessionAcceptorE,comdat
	.align 8
	.type	_ZTIN8asiodnp316ISessionAcceptorE, @object
	.size	_ZTIN8asiodnp316ISessionAcceptorE, 16
_ZTIN8asiodnp316ISessionAcceptorE:
	.quad	_ZTVN10__cxxabiv117__class_type_infoE+16
	.quad	_ZTSN8asiodnp316ISessionAcceptorE
	.weak	_ZTSN8asiodnp311LinkSessionE
	.section	.rodata._ZTSN8asiodnp311LinkSessionE,"aG",@progbits,_ZTSN8asiodnp311LinkSessionE,comdat
	.align 16
	.type	_ZTSN8asiodnp311LinkSessionE, @object
	.size	_ZTSN8asiodnp311LinkSessionE, 25
_ZTSN8asiodnp311LinkSessionE:
	.string	"N8asiodnp311LinkSessionE"
	.weak	_ZTIN8asiodnp311LinkSessionE
	.section	.data.rel.ro._ZTIN8asiodnp311LinkSessionE,"awG",@progbits,_ZTIN8asiodnp311LinkSessionE,comdat
	.align 8
	.type	_ZTIN8asiodnp311LinkSessionE, @object
	.size	_ZTIN8asiodnp311LinkSessionE, 136
_ZTIN8asiodnp311LinkSessionE:
	.quad	_ZTVN10__cxxabiv121__vmi_class_type_infoE+16
	.quad	_ZTSN8asiodnp311LinkSessionE
	.long	0
	.long	7
	.quad	_ZTIN8opendnp37ILinkTxE
	.quad	2
	.quad	_ZTIN7asiopal17IChannelCallbacksE
	.quad	2050
	.quad	_ZTIN8opendnp310IFrameSinkE
	.quad	4096
	.quad	_ZTISt23enable_shared_from_thisIN8asiodnp311LinkSessionEE
	.quad	6146
	.quad	_ZTIN7asiopal9IResourceE
	.quad	10242
	.quad	_ZTIN8asiodnp316ISessionAcceptorE
	.quad	12288
	.quad	_ZTIN7openpal10UncopyableE
	.quad	0
	.section	.data.rel.ro,"aw",@progbits
	.align 8
	.type	_ZTIZN8asiodnp311LinkSession8ShutdownEvEUlvE_, @object
	.size	_ZTIZN8asiodnp311LinkSession8ShutdownEvEUlvE_, 16
_ZTIZN8asiodnp311LinkSession8ShutdownEvEUlvE_:
	.quad	_ZTVN10__cxxabiv117__class_type_infoE+16
	.quad	_ZTSZN8asiodnp311LinkSession8ShutdownEvEUlvE_
	.section	.rodata
	.align 32
	.type	_ZTSZN8asiodnp311LinkSession8ShutdownEvEUlvE_, @object
	.size	_ZTSZN8asiodnp311LinkSession8ShutdownEvEUlvE_, 43
_ZTSZN8asiodnp311LinkSession8ShutdownEvEUlvE_:
	.string	"*ZN8asiodnp311LinkSession8ShutdownEvEUlvE_"
	.section	.data.rel.ro
	.align 8
	.type	_ZTIZN7openpal8TimerRef5StartIZN8asiodnp311LinkSession5StartEvEUlvE_EEbRKNS_12TimeDurationERKT_EUlvE_, @object
	.size	_ZTIZN7openpal8TimerRef5StartIZN8asiodnp311LinkSession5StartEvEUlvE_EEbRKNS_12TimeDurationERKT_EUlvE_, 16
_ZTIZN7openpal8TimerRef5StartIZN8asiodnp311LinkSession5StartEvEUlvE_EEbRKNS_12TimeDurationERKT_EUlvE_:
	.quad	_ZTVN10__cxxabiv117__class_type_infoE+16
	.quad	_ZTSZN7openpal8TimerRef5StartIZN8asiodnp311LinkSession5StartEvEUlvE_EEbRKNS_12TimeDurationERKT_EUlvE_
	.section	.rodata
	.align 32
	.type	_ZTSZN7openpal8TimerRef5StartIZN8asiodnp311LinkSession5StartEvEUlvE_EEbRKNS_12TimeDurationERKT_EUlvE_, @object
	.size	_ZTSZN7openpal8TimerRef5StartIZN8asiodnp311LinkSession5StartEvEUlvE_EEbRKNS_12TimeDurationERKT_EUlvE_, 99
_ZTSZN7openpal8TimerRef5StartIZN8asiodnp311LinkSession5StartEvEUlvE_EEbRKNS_12TimeDurationERKT_EUlvE_:
	.string	"*ZN7openpal8TimerRef5StartIZN8asiodnp311LinkSession5StartEvEUlvE_EEbRKNS_12TimeDurationERKT_EUlvE_"
	.weak	_ZTVN4asio6detail15system_categoryE
	.section	.data.rel.ro._ZTVN4asio6detail15system_categoryE,"awG",@progbits,_ZTVN4asio6detail15system_categoryE,comdat
	.align 8
	.type	_ZTVN4asio6detail15system_categoryE, @object
	.size	_ZTVN4asio6detail15system_categoryE, 80
_ZTVN4asio6detail15system_categoryE:
	.quad	0
	.quad	_ZTIN4asio6detail15system_categoryE
	.quad	_ZN4asio6detail15system_categoryD1Ev
	.quad	_ZN4asio6detail15system_categoryD0Ev
	.quad	_ZNK4asio6detail15system_category4nameEv
	.quad	_ZNKSt3_V214error_category10_M_messageB5cxx11Ei
	.quad	_ZNK4asio6detail15system_category7messageB5cxx11Ei
	.quad	_ZNKSt3_V214error_category23default_error_conditionEi
	.quad	_ZNKSt3_V214error_category10equivalentEiRKSt15error_condition
	.quad	_ZNKSt3_V214error_category10equivalentERKSt10error_codei
	.weak	_ZTVN4asio5error6detail14netdb_categoryE
	.section	.data.rel.ro._ZTVN4asio5error6detail14netdb_categoryE,"awG",@progbits,_ZTVN4asio5error6detail14netdb_categoryE,comdat
	.align 8
	.type	_ZTVN4asio5error6detail14netdb_categoryE, @object
	.size	_ZTVN4asio5error6detail14netdb_categoryE, 80
_ZTVN4asio5error6detail14netdb_categoryE:
	.quad	0
	.quad	_ZTIN4asio5error6detail14netdb_categoryE
	.quad	_ZN4asio5error6detail14netdb_categoryD1Ev
	.quad	_ZN4asio5error6detail14netdb_categoryD0Ev
	.quad	_ZNK4asio5error6detail14netdb_category4nameEv
	.quad	_ZNKSt3_V214error_category10_M_messageB5cxx11Ei
	.quad	_ZNK4asio5error6detail14netdb_category7messageB5cxx11Ei
	.quad	_ZNKSt3_V214error_category23default_error_conditionEi
	.quad	_ZNKSt3_V214error_category10equivalentEiRKSt15error_condition
	.quad	_ZNKSt3_V214error_category10equivalentERKSt10error_codei
	.weak	_ZTVN4asio5error6detail17addrinfo_categoryE
	.section	.data.rel.ro._ZTVN4asio5error6detail17addrinfo_categoryE,"awG",@progbits,_ZTVN4asio5error6detail17addrinfo_categoryE,comdat
	.align 8
	.type	_ZTVN4asio5error6detail17addrinfo_categoryE, @object
	.size	_ZTVN4asio5error6detail17addrinfo_categoryE, 80
_ZTVN4asio5error6detail17addrinfo_categoryE:
	.quad	0
	.quad	_ZTIN4asio5error6detail17addrinfo_categoryE
	.quad	_ZN4asio5error6detail17addrinfo_categoryD1Ev
	.quad	_ZN4asio5error6detail17addrinfo_categoryD0Ev
	.quad	_ZNK4asio5error6detail17addrinfo_category4nameEv
	.quad	_ZNKSt3_V214error_category10_M_messageB5cxx11Ei
	.quad	_ZNK4asio5error6detail17addrinfo_category7messageB5cxx11Ei
	.quad	_ZNKSt3_V214error_category23default_error_conditionEi
	.quad	_ZNKSt3_V214error_category10equivalentEiRKSt15error_condition
	.quad	_ZNKSt3_V214error_category10equivalentERKSt10error_codei
	.weak	_ZTVN4asio5error6detail13misc_categoryE
	.section	.data.rel.ro._ZTVN4asio5error6detail13misc_categoryE,"awG",@progbits,_ZTVN4asio5error6detail13misc_categoryE,comdat
	.align 8
	.type	_ZTVN4asio5error6detail13misc_categoryE, @object
	.size	_ZTVN4asio5error6detail13misc_categoryE, 80
_ZTVN4asio5error6detail13misc_categoryE:
	.quad	0
	.quad	_ZTIN4asio5error6detail13misc_categoryE
	.quad	_ZN4asio5error6detail13misc_categoryD1Ev
	.quad	_ZN4asio5error6detail13misc_categoryD0Ev
	.quad	_ZNK4asio5error6detail13misc_category4nameEv
	.quad	_ZNKSt3_V214error_category10_M_messageB5cxx11Ei
	.quad	_ZNK4asio5error6detail13misc_category7messageB5cxx11Ei
	.quad	_ZNKSt3_V214error_category23default_error_conditionEi
	.quad	_ZNKSt3_V214error_category10equivalentEiRKSt15error_condition
	.quad	_ZNKSt3_V214error_category10equivalentERKSt10error_codei
	.weak	_ZTVN8asiodnp311LinkSessionE
	.section	.data.rel.ro._ZTVN8asiodnp311LinkSessionE,"awG",@progbits,_ZTVN8asiodnp311LinkSessionE,comdat
	.align 8
	.type	_ZTVN8asiodnp311LinkSessionE, @object
	.size	_ZTVN8asiodnp311LinkSessionE, 248
_ZTVN8asiodnp311LinkSessionE:
	.quad	0
	.quad	_ZTIN8asiodnp311LinkSessionE
	.quad	_ZN8asiodnp311LinkSessionD1Ev
	.quad	_ZN8asiodnp311LinkSessionD0Ev
	.quad	_ZN8asiodnp311LinkSession13BeginTransmitERKN7openpal6RSliceERN8opendnp312ILinkSessionE
	.quad	_ZN8asiodnp311LinkSession8ShutdownEv
	.quad	_ZN8asiodnp311LinkSession14OnReadCompleteERKSt10error_codem
	.quad	_ZN8asiodnp311LinkSession15OnWriteCompleteERKSt10error_codem
	.quad	_ZN8asiodnp311LinkSession7OnFrameERKN8opendnp316LinkHeaderFieldsERKN7openpal6RSliceE
	.quad	_ZN8asiodnp311LinkSession13AcceptSessionERKNSt7__cxx1112basic_stringIcSt11char_traitsIcESaIcEEESt10shared_ptrIN8opendnp311ISOEHandlerEES9_INSA_18IMasterApplicationEERKNS_17MasterStackConfigE
	.quad	-8
	.quad	_ZTIN8asiodnp311LinkSessionE
	.quad	_ZThn8_N8asiodnp311LinkSessionD1Ev
	.quad	_ZThn8_N8asiodnp311LinkSessionD0Ev
	.quad	_ZThn8_N8asiodnp311LinkSession14OnReadCompleteERKSt10error_codem
	.quad	_ZThn8_N8asiodnp311LinkSession15OnWriteCompleteERKSt10error_codem
	.quad	-16
	.quad	_ZTIN8asiodnp311LinkSessionE
	.quad	_ZThn16_N8asiodnp311LinkSessionD1Ev
	.quad	_ZThn16_N8asiodnp311LinkSessionD0Ev
	.quad	_ZThn16_N8asiodnp311LinkSession7OnFrameERKN8opendnp316LinkHeaderFieldsERKN7openpal6RSliceE
	.quad	-40
	.quad	_ZTIN8asiodnp311LinkSessionE
	.quad	_ZThn40_N8asiodnp311LinkSessionD1Ev
	.quad	_ZThn40_N8asiodnp311LinkSessionD0Ev
	.quad	_ZThn40_N8asiodnp311LinkSession8ShutdownEv
	.quad	-48
	.quad	_ZTIN8asiodnp311LinkSessionE
	.quad	_ZThn48_N8asiodnp311LinkSessionD1Ev
	.quad	_ZThn48_N8asiodnp311LinkSessionD0Ev
	.quad	_ZThn48_N8asiodnp311LinkSession13AcceptSessionERKNSt7__cxx1112basic_stringIcSt11char_traitsIcESaIcEEESt10shared_ptrIN8opendnp311ISOEHandlerEES9_INSA_18IMasterApplicationEERKNS_17MasterStackConfigE
	.weak	_ZGVZN4asio5error17get_misc_categoryEvE8instance
	.section	.bss._ZGVZN4asio5error17get_misc_categoryEvE8instance,"awG",@nobits,_ZGVZN4asio5error17get_misc_categoryEvE8instance,comdat
	.align 8
	.type	_ZGVZN4asio5error17get_misc_categoryEvE8instance, @gnu_unique_object
	.size	_ZGVZN4asio5error17get_misc_categoryEvE8instance, 8
_ZGVZN4asio5error17get_misc_categoryEvE8instance:
	.zero	8
	.weak	_ZZN4asio5error17get_misc_categoryEvE8instance
	.section	.data.rel._ZZN4asio5error17get_misc_categoryEvE8instance,"awG",@progbits,_ZZN4asio5error17get_misc_categoryEvE8instance,comdat
	.align 8
	.type	_ZZN4asio5error17get_misc_categoryEvE8instance, @gnu_unique_object
	.size	_ZZN4asio5error17get_misc_categoryEvE8instance, 8
_ZZN4asio5error17get_misc_categoryEvE8instance:
	.quad	_ZTVN4asio5error6detail13misc_categoryE+16
	.weak	_ZGVZN4asio5error21get_addrinfo_categoryEvE8instance
	.section	.bss._ZGVZN4asio5error21get_addrinfo_categoryEvE8instance,"awG",@nobits,_ZGVZN4asio5error21get_addrinfo_categoryEvE8instance,comdat
	.align 8
	.type	_ZGVZN4asio5error21get_addrinfo_categoryEvE8instance, @gnu_unique_object
	.size	_ZGVZN4asio5error21get_addrinfo_categoryEvE8instance, 8
_ZGVZN4asio5error21get_addrinfo_categoryEvE8instance:
	.zero	8
	.weak	_ZZN4asio5error21get_addrinfo_categoryEvE8instance
	.section	.data.rel._ZZN4asio5error21get_addrinfo_categoryEvE8instance,"awG",@progbits,_ZZN4asio5error21get_addrinfo_categoryEvE8instance,comdat
	.align 8
	.type	_ZZN4asio5error21get_addrinfo_categoryEvE8instance, @gnu_unique_object
	.size	_ZZN4asio5error21get_addrinfo_categoryEvE8instance, 8
_ZZN4asio5error21get_addrinfo_categoryEvE8instance:
	.quad	_ZTVN4asio5error6detail17addrinfo_categoryE+16
	.weak	_ZGVZN4asio5error18get_netdb_categoryEvE8instance
	.section	.bss._ZGVZN4asio5error18get_netdb_categoryEvE8instance,"awG",@nobits,_ZGVZN4asio5error18get_netdb_categoryEvE8instance,comdat
	.align 8
	.type	_ZGVZN4asio5error18get_netdb_categoryEvE8instance, @gnu_unique_object
	.size	_ZGVZN4asio5error18get_netdb_categoryEvE8instance, 8
_ZGVZN4asio5error18get_netdb_categoryEvE8instance:
	.zero	8
	.weak	_ZZN4asio5error18get_netdb_categoryEvE8instance
	.section	.data.rel._ZZN4asio5error18get_netdb_categoryEvE8instance,"awG",@progbits,_ZZN4asio5error18get_netdb_categoryEvE8instance,comdat
	.align 8
	.type	_ZZN4asio5error18get_netdb_categoryEvE8instance, @gnu_unique_object
	.size	_ZZN4asio5error18get_netdb_categoryEvE8instance, 8
_ZZN4asio5error18get_netdb_categoryEvE8instance:
	.quad	_ZTVN4asio5error6detail14netdb_categoryE+16
	.weak	_ZGVZN4asio15system_categoryEvE8instance
	.section	.bss._ZGVZN4asio15system_categoryEvE8instance,"awG",@nobits,_ZGVZN4asio15system_categoryEvE8instance,comdat
	.align 8
	.type	_ZGVZN4asio15system_categoryEvE8instance, @gnu_unique_object
	.size	_ZGVZN4asio15system_categoryEvE8instance, 8
_ZGVZN4asio15system_categoryEvE8instance:
	.zero	8
	.weak	_ZZN4asio15system_categoryEvE8instance
	.section	.data.rel._ZZN4asio15system_categoryEvE8instance,"awG",@progbits,_ZZN4asio15system_categoryEvE8instance,comdat
	.align 8
	.type	_ZZN4asio15system_categoryEvE8instance, @gnu_unique_object
	.size	_ZZN4asio15system_categoryEvE8instance, 8
_ZZN4asio15system_categoryEvE8instance:
	.quad	_ZTVN4asio6detail15system_categoryE+16
	.weak	_ZN4asio6detail15keyword_tss_ptrINS0_10call_stackINS0_15task_io_serviceENS0_27task_io_service_thread_infoEE7contextEE6value_E
	.section	.tbss._ZN4asio6detail15keyword_tss_ptrINS0_10call_stackINS0_15task_io_serviceENS0_27task_io_service_thread_infoEE7contextEE6value_E,"awTG",@nobits,_ZN4asio6detail15keyword_tss_ptrINS0_10call_stackINS0_15task_io_serviceENS0_27task_io_service_thread_infoEE7contextEE6value_E,comdat
	.align 8
	.type	_ZN4asio6detail15keyword_tss_ptrINS0_10call_stackINS0_15task_io_serviceENS0_27task_io_service_thread_infoEE7contextEE6value_E, @gnu_unique_object
	.size	_ZN4asio6detail15keyword_tss_ptrINS0_10call_stackINS0_15task_io_serviceENS0_27task_io_service_thread_infoEE7contextEE6value_E, 8
_ZN4asio6detail15keyword_tss_ptrINS0_10call_stackINS0_15task_io_serviceENS0_27task_io_service_thread_infoEE7contextEE6value_E:
	.zero	8
	.weakref	_ZL28__gthrw___pthread_key_createPjPFvPvE,__pthread_key_create
	.section	.rodata.cst16,"aM",@progbits,16
	.align 16
.LC5:
	.quad	8028075772644520015
	.quad	7310593917846626414
	.align 16
.LC6:
	.quad	2334381286471394643
	.quad	7959390400869068654
	.align 16
.LC7:
	.quad	8367816086596579155
	.quad	2338616625292734585
	.align 16
.LC8:
	.quad	7234013753529430881
	.quad	8243030355803531634
	.align 16
.LC9:
	.quad	2338615488418245701
	.quad	7959390400869068654
	.align 16
.LC10:
	.quad	7166182912791242836
	.quad	7214892426067994994
	.align 16
.LC11:
	.quad	2338616625293649263
	.quad	8031165433303558502
	.align 16
.LC12:
	.quad	7810775711721485344
	.quad	7812726531955123045
	.align 16
.LC13:
	.quad	8390045716486254408
	.quad	2891421386351273504
	.align 16
.LC14:
	.quad	7526769937477431150
	.quad	8532478930943832687
	.align 16
.LC15:
	.quad	2340027324477221221
	.quad	7020021577750243169
	.align 16
.LC16:
	.quad	8243123821706831956
	.quad	7809653110584451193
	.align 16
.LC17:
	.quad	2338623170819155049
	.quad	2338324160631043177
	.align 16
.LC18:
	.quad	7311138144931573614
	.quad	7019250824563089696
	.align 16
.LC19:
	.quad	7309955097514876993
	.quad	7809911847770287971
	.align 16
.LC20:
	.quad	2338053693894893669
	.quad	7234314212361855855
	.align 16
.LC21:
	.quad	2334956330985808928
	.quad	7310293695322153316
	.align 16
.LC22:
	.quad	8387231026764149601
	.quad	8245935278387126884
	.hidden	DW.ref.__gxx_personality_v0
	.weak	DW.ref.__gxx_personality_v0
	.section	.data.rel.local.DW.ref.__gxx_personality_v0,"awG",@progbits,DW.ref.__gxx_personality_v0,comdat
	.align 8
	.type	DW.ref.__gxx_personality_v0, @object
	.size	DW.ref.__gxx_personality_v0, 8
DW.ref.__gxx_personality_v0:
	.quad	__gxx_personality_v0
	.hidden	__dso_handle
	.ident	"GCC: (Ubuntu 7.5.0-3ubuntu1~18.04) 7.5.0"
	.section	.note.GNU-stack,"",@progbits
