	.file	"MasterTCPServer.cpp"
	.text
	.section	.rodata._ZNK4asio6detail15system_category4nameEv.str1.1,"aMS",@progbits,1
.LC0:
	.string	"asio.system"
	.section	.text._ZNK4asio6detail15system_category4nameEv,"axG",@progbits,_ZNK4asio6detail15system_category4nameEv,comdat
	.align 2
	.p2align 4,,15
	.weak	_ZNK4asio6detail15system_category4nameEv
	.type	_ZNK4asio6detail15system_category4nameEv, @function
_ZNK4asio6detail15system_category4nameEv:
.LFB2375:
	.cfi_startproc
	leaq	.LC0(%rip), %rax
	ret
	.cfi_endproc
.LFE2375:
	.size	_ZNK4asio6detail15system_category4nameEv, .-_ZNK4asio6detail15system_category4nameEv
	.section	.rodata._ZNK4asio5error6detail14netdb_category4nameEv.str1.1,"aMS",@progbits,1
.LC1:
	.string	"asio.netdb"
	.section	.text._ZNK4asio5error6detail14netdb_category4nameEv,"axG",@progbits,_ZNK4asio5error6detail14netdb_category4nameEv,comdat
	.align 2
	.p2align 4,,15
	.weak	_ZNK4asio5error6detail14netdb_category4nameEv
	.type	_ZNK4asio5error6detail14netdb_category4nameEv, @function
_ZNK4asio5error6detail14netdb_category4nameEv:
.LFB2415:
	.cfi_startproc
	leaq	.LC1(%rip), %rax
	ret
	.cfi_endproc
.LFE2415:
	.size	_ZNK4asio5error6detail14netdb_category4nameEv, .-_ZNK4asio5error6detail14netdb_category4nameEv
	.section	.rodata._ZNK4asio5error6detail17addrinfo_category4nameEv.str1.1,"aMS",@progbits,1
.LC2:
	.string	"asio.addrinfo"
	.section	.text._ZNK4asio5error6detail17addrinfo_category4nameEv,"axG",@progbits,_ZNK4asio5error6detail17addrinfo_category4nameEv,comdat
	.align 2
	.p2align 4,,15
	.weak	_ZNK4asio5error6detail17addrinfo_category4nameEv
	.type	_ZNK4asio5error6detail17addrinfo_category4nameEv, @function
_ZNK4asio5error6detail17addrinfo_category4nameEv:
.LFB2421:
	.cfi_startproc
	leaq	.LC2(%rip), %rax
	ret
	.cfi_endproc
.LFE2421:
	.size	_ZNK4asio5error6detail17addrinfo_category4nameEv, .-_ZNK4asio5error6detail17addrinfo_category4nameEv
	.section	.rodata._ZNK4asio5error6detail13misc_category4nameEv.str1.1,"aMS",@progbits,1
.LC3:
	.string	"asio.misc"
	.section	.text._ZNK4asio5error6detail13misc_category4nameEv,"axG",@progbits,_ZNK4asio5error6detail13misc_category4nameEv,comdat
	.align 2
	.p2align 4,,15
	.weak	_ZNK4asio5error6detail13misc_category4nameEv
	.type	_ZNK4asio5error6detail13misc_category4nameEv, @function
_ZNK4asio5error6detail13misc_category4nameEv:
.LFB2427:
	.cfi_startproc
	leaq	.LC3(%rip), %rax
	ret
	.cfi_endproc
.LFE2427:
	.size	_ZNK4asio5error6detail13misc_category4nameEv, .-_ZNK4asio5error6detail13misc_category4nameEv
	.section	.text._ZNKSt5ctypeIcE8do_widenEc,"axG",@progbits,_ZNKSt5ctypeIcE8do_widenEc,comdat
	.align 2
	.p2align 4,,15
	.weak	_ZNKSt5ctypeIcE8do_widenEc
	.type	_ZNKSt5ctypeIcE8do_widenEc, @function
_ZNKSt5ctypeIcE8do_widenEc:
.LFB4560:
	.cfi_startproc
	movl	%esi, %eax
	ret
	.cfi_endproc
.LFE4560:
	.size	_ZNKSt5ctypeIcE8do_widenEc, .-_ZNKSt5ctypeIcE8do_widenEc
	.section	.text._ZN4asio6detail7tss_ptrINS0_10call_stackINS0_15task_io_serviceENS0_27task_io_service_thread_infoEE7contextEED2Ev,"axG",@progbits,_ZN4asio6detail7tss_ptrINS0_10call_stackINS0_15task_io_serviceENS0_27task_io_service_thread_infoEE7contextEED5Ev,comdat
	.align 2
	.p2align 4,,15
	.weak	_ZN4asio6detail7tss_ptrINS0_10call_stackINS0_15task_io_serviceENS0_27task_io_service_thread_infoEE7contextEED2Ev
	.type	_ZN4asio6detail7tss_ptrINS0_10call_stackINS0_15task_io_serviceENS0_27task_io_service_thread_infoEE7contextEED2Ev, @function
_ZN4asio6detail7tss_ptrINS0_10call_stackINS0_15task_io_serviceENS0_27task_io_service_thread_infoEE7contextEED2Ev:
.LFB10983:
	.cfi_startproc
	rep ret
	.cfi_endproc
.LFE10983:
	.size	_ZN4asio6detail7tss_ptrINS0_10call_stackINS0_15task_io_serviceENS0_27task_io_service_thread_infoEE7contextEED2Ev, .-_ZN4asio6detail7tss_ptrINS0_10call_stackINS0_15task_io_serviceENS0_27task_io_service_thread_infoEE7contextEED2Ev
	.weak	_ZN4asio6detail7tss_ptrINS0_10call_stackINS0_15task_io_serviceENS0_27task_io_service_thread_infoEE7contextEED1Ev
	.set	_ZN4asio6detail7tss_ptrINS0_10call_stackINS0_15task_io_serviceENS0_27task_io_service_thread_infoEE7contextEED1Ev,_ZN4asio6detail7tss_ptrINS0_10call_stackINS0_15task_io_serviceENS0_27task_io_service_thread_infoEE7contextEED2Ev
	.section	.text._ZN4asio6detail10service_idINS0_13epoll_reactorEED2Ev,"axG",@progbits,_ZN4asio6detail10service_idINS0_13epoll_reactorEED5Ev,comdat
	.align 2
	.p2align 4,,15
	.weak	_ZN4asio6detail10service_idINS0_13epoll_reactorEED2Ev
	.type	_ZN4asio6detail10service_idINS0_13epoll_reactorEED2Ev, @function
_ZN4asio6detail10service_idINS0_13epoll_reactorEED2Ev:
.LFB10986:
	.cfi_startproc
	rep ret
	.cfi_endproc
.LFE10986:
	.size	_ZN4asio6detail10service_idINS0_13epoll_reactorEED2Ev, .-_ZN4asio6detail10service_idINS0_13epoll_reactorEED2Ev
	.weak	_ZN4asio6detail10service_idINS0_13epoll_reactorEED1Ev
	.set	_ZN4asio6detail10service_idINS0_13epoll_reactorEED1Ev,_ZN4asio6detail10service_idINS0_13epoll_reactorEED2Ev
	.section	.text._ZN4asio6detail10service_idINS0_15task_io_serviceEED2Ev,"axG",@progbits,_ZN4asio6detail10service_idINS0_15task_io_serviceEED5Ev,comdat
	.align 2
	.p2align 4,,15
	.weak	_ZN4asio6detail10service_idINS0_15task_io_serviceEED2Ev
	.type	_ZN4asio6detail10service_idINS0_15task_io_serviceEED2Ev, @function
_ZN4asio6detail10service_idINS0_15task_io_serviceEED2Ev:
.LFB10989:
	.cfi_startproc
	rep ret
	.cfi_endproc
.LFE10989:
	.size	_ZN4asio6detail10service_idINS0_15task_io_serviceEED2Ev, .-_ZN4asio6detail10service_idINS0_15task_io_serviceEED2Ev
	.weak	_ZN4asio6detail10service_idINS0_15task_io_serviceEED1Ev
	.set	_ZN4asio6detail10service_idINS0_15task_io_serviceEED1Ev,_ZN4asio6detail10service_idINS0_15task_io_serviceEED2Ev
	.section	.text._ZN4asio6detail7tss_ptrINS0_10call_stackINS0_14strand_service11strand_implEhE7contextEED2Ev,"axG",@progbits,_ZN4asio6detail7tss_ptrINS0_10call_stackINS0_14strand_service11strand_implEhE7contextEED5Ev,comdat
	.align 2
	.p2align 4,,15
	.weak	_ZN4asio6detail7tss_ptrINS0_10call_stackINS0_14strand_service11strand_implEhE7contextEED2Ev
	.type	_ZN4asio6detail7tss_ptrINS0_10call_stackINS0_14strand_service11strand_implEhE7contextEED2Ev, @function
_ZN4asio6detail7tss_ptrINS0_10call_stackINS0_14strand_service11strand_implEhE7contextEED2Ev:
.LFB10992:
	.cfi_startproc
	rep ret
	.cfi_endproc
.LFE10992:
	.size	_ZN4asio6detail7tss_ptrINS0_10call_stackINS0_14strand_service11strand_implEhE7contextEED2Ev, .-_ZN4asio6detail7tss_ptrINS0_10call_stackINS0_14strand_service11strand_implEhE7contextEED2Ev
	.weak	_ZN4asio6detail7tss_ptrINS0_10call_stackINS0_14strand_service11strand_implEhE7contextEED1Ev
	.set	_ZN4asio6detail7tss_ptrINS0_10call_stackINS0_14strand_service11strand_implEhE7contextEED1Ev,_ZN4asio6detail7tss_ptrINS0_10call_stackINS0_14strand_service11strand_implEhE7contextEED2Ev
	.section	.text._ZN4asio6detail10service_idINS0_14strand_serviceEED2Ev,"axG",@progbits,_ZN4asio6detail10service_idINS0_14strand_serviceEED5Ev,comdat
	.align 2
	.p2align 4,,15
	.weak	_ZN4asio6detail10service_idINS0_14strand_serviceEED2Ev
	.type	_ZN4asio6detail10service_idINS0_14strand_serviceEED2Ev, @function
_ZN4asio6detail10service_idINS0_14strand_serviceEED2Ev:
.LFB10995:
	.cfi_startproc
	rep ret
	.cfi_endproc
.LFE10995:
	.size	_ZN4asio6detail10service_idINS0_14strand_serviceEED2Ev, .-_ZN4asio6detail10service_idINS0_14strand_serviceEED2Ev
	.weak	_ZN4asio6detail10service_idINS0_14strand_serviceEED1Ev
	.set	_ZN4asio6detail10service_idINS0_14strand_serviceEED1Ev,_ZN4asio6detail10service_idINS0_14strand_serviceEED2Ev
	.section	.text._ZNSt23_Sp_counted_ptr_inplaceIN7asiopal13SocketChannelESaIS1_ELN9__gnu_cxx12_Lock_policyE2EED2Ev,"axG",@progbits,_ZNSt23_Sp_counted_ptr_inplaceIN7asiopal13SocketChannelESaIS1_ELN9__gnu_cxx12_Lock_policyE2EED5Ev,comdat
	.align 2
	.p2align 4,,15
	.weak	_ZNSt23_Sp_counted_ptr_inplaceIN7asiopal13SocketChannelESaIS1_ELN9__gnu_cxx12_Lock_policyE2EED2Ev
	.type	_ZNSt23_Sp_counted_ptr_inplaceIN7asiopal13SocketChannelESaIS1_ELN9__gnu_cxx12_Lock_policyE2EED2Ev, @function
_ZNSt23_Sp_counted_ptr_inplaceIN7asiopal13SocketChannelESaIS1_ELN9__gnu_cxx12_Lock_policyE2EED2Ev:
.LFB10998:
	.cfi_startproc
	rep ret
	.cfi_endproc
.LFE10998:
	.size	_ZNSt23_Sp_counted_ptr_inplaceIN7asiopal13SocketChannelESaIS1_ELN9__gnu_cxx12_Lock_policyE2EED2Ev, .-_ZNSt23_Sp_counted_ptr_inplaceIN7asiopal13SocketChannelESaIS1_ELN9__gnu_cxx12_Lock_policyE2EED2Ev
	.weak	_ZNSt23_Sp_counted_ptr_inplaceIN7asiopal13SocketChannelESaIS1_ELN9__gnu_cxx12_Lock_policyE2EED1Ev
	.set	_ZNSt23_Sp_counted_ptr_inplaceIN7asiopal13SocketChannelESaIS1_ELN9__gnu_cxx12_Lock_policyE2EED1Ev,_ZNSt23_Sp_counted_ptr_inplaceIN7asiopal13SocketChannelESaIS1_ELN9__gnu_cxx12_Lock_policyE2EED2Ev
	.section	.text._ZNSt23_Sp_counted_ptr_inplaceIN8asiodnp311LinkSessionESaIS1_ELN9__gnu_cxx12_Lock_policyE2EED2Ev,"axG",@progbits,_ZNSt23_Sp_counted_ptr_inplaceIN8asiodnp311LinkSessionESaIS1_ELN9__gnu_cxx12_Lock_policyE2EED5Ev,comdat
	.align 2
	.p2align 4,,15
	.weak	_ZNSt23_Sp_counted_ptr_inplaceIN8asiodnp311LinkSessionESaIS1_ELN9__gnu_cxx12_Lock_policyE2EED2Ev
	.type	_ZNSt23_Sp_counted_ptr_inplaceIN8asiodnp311LinkSessionESaIS1_ELN9__gnu_cxx12_Lock_policyE2EED2Ev, @function
_ZNSt23_Sp_counted_ptr_inplaceIN8asiodnp311LinkSessionESaIS1_ELN9__gnu_cxx12_Lock_policyE2EED2Ev:
.LFB11005:
	.cfi_startproc
	rep ret
	.cfi_endproc
.LFE11005:
	.size	_ZNSt23_Sp_counted_ptr_inplaceIN8asiodnp311LinkSessionESaIS1_ELN9__gnu_cxx12_Lock_policyE2EED2Ev, .-_ZNSt23_Sp_counted_ptr_inplaceIN8asiodnp311LinkSessionESaIS1_ELN9__gnu_cxx12_Lock_policyE2EED2Ev
	.weak	_ZNSt23_Sp_counted_ptr_inplaceIN8asiodnp311LinkSessionESaIS1_ELN9__gnu_cxx12_Lock_policyE2EED1Ev
	.set	_ZNSt23_Sp_counted_ptr_inplaceIN8asiodnp311LinkSessionESaIS1_ELN9__gnu_cxx12_Lock_policyE2EED1Ev,_ZNSt23_Sp_counted_ptr_inplaceIN8asiodnp311LinkSessionESaIS1_ELN9__gnu_cxx12_Lock_policyE2EED2Ev
	.section	.text._ZNSt23_Sp_counted_ptr_inplaceIN7asiopal8ExecutorESaIS1_ELN9__gnu_cxx12_Lock_policyE2EED2Ev,"axG",@progbits,_ZNSt23_Sp_counted_ptr_inplaceIN7asiopal8ExecutorESaIS1_ELN9__gnu_cxx12_Lock_policyE2EED5Ev,comdat
	.align 2
	.p2align 4,,15
	.weak	_ZNSt23_Sp_counted_ptr_inplaceIN7asiopal8ExecutorESaIS1_ELN9__gnu_cxx12_Lock_policyE2EED2Ev
	.type	_ZNSt23_Sp_counted_ptr_inplaceIN7asiopal8ExecutorESaIS1_ELN9__gnu_cxx12_Lock_policyE2EED2Ev, @function
_ZNSt23_Sp_counted_ptr_inplaceIN7asiopal8ExecutorESaIS1_ELN9__gnu_cxx12_Lock_policyE2EED2Ev:
.LFB11033:
	.cfi_startproc
	rep ret
	.cfi_endproc
.LFE11033:
	.size	_ZNSt23_Sp_counted_ptr_inplaceIN7asiopal8ExecutorESaIS1_ELN9__gnu_cxx12_Lock_policyE2EED2Ev, .-_ZNSt23_Sp_counted_ptr_inplaceIN7asiopal8ExecutorESaIS1_ELN9__gnu_cxx12_Lock_policyE2EED2Ev
	.weak	_ZNSt23_Sp_counted_ptr_inplaceIN7asiopal8ExecutorESaIS1_ELN9__gnu_cxx12_Lock_policyE2EED1Ev
	.set	_ZNSt23_Sp_counted_ptr_inplaceIN7asiopal8ExecutorESaIS1_ELN9__gnu_cxx12_Lock_policyE2EED1Ev,_ZNSt23_Sp_counted_ptr_inplaceIN7asiopal8ExecutorESaIS1_ELN9__gnu_cxx12_Lock_policyE2EED2Ev
	.section	.text._ZNSt23_Sp_counted_ptr_inplaceIN7openpal6Logger8SettingsESaIS2_ELN9__gnu_cxx12_Lock_policyE2EED2Ev,"axG",@progbits,_ZNSt23_Sp_counted_ptr_inplaceIN7openpal6Logger8SettingsESaIS2_ELN9__gnu_cxx12_Lock_policyE2EED5Ev,comdat
	.align 2
	.p2align 4,,15
	.weak	_ZNSt23_Sp_counted_ptr_inplaceIN7openpal6Logger8SettingsESaIS2_ELN9__gnu_cxx12_Lock_policyE2EED2Ev
	.type	_ZNSt23_Sp_counted_ptr_inplaceIN7openpal6Logger8SettingsESaIS2_ELN9__gnu_cxx12_Lock_policyE2EED2Ev, @function
_ZNSt23_Sp_counted_ptr_inplaceIN7openpal6Logger8SettingsESaIS2_ELN9__gnu_cxx12_Lock_policyE2EED2Ev:
.LFB11054:
	.cfi_startproc
	rep ret
	.cfi_endproc
.LFE11054:
	.size	_ZNSt23_Sp_counted_ptr_inplaceIN7openpal6Logger8SettingsESaIS2_ELN9__gnu_cxx12_Lock_policyE2EED2Ev, .-_ZNSt23_Sp_counted_ptr_inplaceIN7openpal6Logger8SettingsESaIS2_ELN9__gnu_cxx12_Lock_policyE2EED2Ev
	.weak	_ZNSt23_Sp_counted_ptr_inplaceIN7openpal6Logger8SettingsESaIS2_ELN9__gnu_cxx12_Lock_policyE2EED1Ev
	.set	_ZNSt23_Sp_counted_ptr_inplaceIN7openpal6Logger8SettingsESaIS2_ELN9__gnu_cxx12_Lock_policyE2EED1Ev,_ZNSt23_Sp_counted_ptr_inplaceIN7openpal6Logger8SettingsESaIS2_ELN9__gnu_cxx12_Lock_policyE2EED2Ev
	.section	.text._ZN4asio6detail15system_categoryD2Ev,"axG",@progbits,_ZN4asio6detail15system_categoryD5Ev,comdat
	.align 2
	.p2align 4,,15
	.weak	_ZN4asio6detail15system_categoryD2Ev
	.type	_ZN4asio6detail15system_categoryD2Ev, @function
_ZN4asio6detail15system_categoryD2Ev:
.LFB10962:
	.cfi_startproc
	movq	_ZTVN4asio6detail15system_categoryE@GOTPCREL(%rip), %rax
	addq	$16, %rax
	movq	%rax, (%rdi)
	jmp	_ZNSt3_V214error_categoryD2Ev@PLT
	.cfi_endproc
.LFE10962:
	.size	_ZN4asio6detail15system_categoryD2Ev, .-_ZN4asio6detail15system_categoryD2Ev
	.weak	_ZN4asio6detail15system_categoryD1Ev
	.set	_ZN4asio6detail15system_categoryD1Ev,_ZN4asio6detail15system_categoryD2Ev
	.section	.text._ZN4asio5error6detail14netdb_categoryD2Ev,"axG",@progbits,_ZN4asio5error6detail14netdb_categoryD5Ev,comdat
	.align 2
	.p2align 4,,15
	.weak	_ZN4asio5error6detail14netdb_categoryD2Ev
	.type	_ZN4asio5error6detail14netdb_categoryD2Ev, @function
_ZN4asio5error6detail14netdb_categoryD2Ev:
.LFB10950:
	.cfi_startproc
	movq	_ZTVN4asio5error6detail14netdb_categoryE@GOTPCREL(%rip), %rax
	addq	$16, %rax
	movq	%rax, (%rdi)
	jmp	_ZNSt3_V214error_categoryD2Ev@PLT
	.cfi_endproc
.LFE10950:
	.size	_ZN4asio5error6detail14netdb_categoryD2Ev, .-_ZN4asio5error6detail14netdb_categoryD2Ev
	.weak	_ZN4asio5error6detail14netdb_categoryD1Ev
	.set	_ZN4asio5error6detail14netdb_categoryD1Ev,_ZN4asio5error6detail14netdb_categoryD2Ev
	.section	.text._ZN4asio5error6detail17addrinfo_categoryD2Ev,"axG",@progbits,_ZN4asio5error6detail17addrinfo_categoryD5Ev,comdat
	.align 2
	.p2align 4,,15
	.weak	_ZN4asio5error6detail17addrinfo_categoryD2Ev
	.type	_ZN4asio5error6detail17addrinfo_categoryD2Ev, @function
_ZN4asio5error6detail17addrinfo_categoryD2Ev:
.LFB10946:
	.cfi_startproc
	movq	_ZTVN4asio5error6detail17addrinfo_categoryE@GOTPCREL(%rip), %rax
	addq	$16, %rax
	movq	%rax, (%rdi)
	jmp	_ZNSt3_V214error_categoryD2Ev@PLT
	.cfi_endproc
.LFE10946:
	.size	_ZN4asio5error6detail17addrinfo_categoryD2Ev, .-_ZN4asio5error6detail17addrinfo_categoryD2Ev
	.weak	_ZN4asio5error6detail17addrinfo_categoryD1Ev
	.set	_ZN4asio5error6detail17addrinfo_categoryD1Ev,_ZN4asio5error6detail17addrinfo_categoryD2Ev
	.section	.text._ZN4asio5error6detail13misc_categoryD2Ev,"axG",@progbits,_ZN4asio5error6detail13misc_categoryD5Ev,comdat
	.align 2
	.p2align 4,,15
	.weak	_ZN4asio5error6detail13misc_categoryD2Ev
	.type	_ZN4asio5error6detail13misc_categoryD2Ev, @function
_ZN4asio5error6detail13misc_categoryD2Ev:
.LFB10942:
	.cfi_startproc
	movq	_ZTVN4asio5error6detail13misc_categoryE@GOTPCREL(%rip), %rax
	addq	$16, %rax
	movq	%rax, (%rdi)
	jmp	_ZNSt3_V214error_categoryD2Ev@PLT
	.cfi_endproc
.LFE10942:
	.size	_ZN4asio5error6detail13misc_categoryD2Ev, .-_ZN4asio5error6detail13misc_categoryD2Ev
	.weak	_ZN4asio5error6detail13misc_categoryD1Ev
	.set	_ZN4asio5error6detail13misc_categoryD1Ev,_ZN4asio5error6detail13misc_categoryD2Ev
	.section	.text._ZNSt23_Sp_counted_ptr_inplaceIN7asiopal13SocketChannelESaIS1_ELN9__gnu_cxx12_Lock_policyE2EE10_M_destroyEv,"axG",@progbits,_ZNSt23_Sp_counted_ptr_inplaceIN7asiopal13SocketChannelESaIS1_ELN9__gnu_cxx12_Lock_policyE2EE10_M_destroyEv,comdat
	.align 2
	.p2align 4,,15
	.weak	_ZNSt23_Sp_counted_ptr_inplaceIN7asiopal13SocketChannelESaIS1_ELN9__gnu_cxx12_Lock_policyE2EE10_M_destroyEv
	.type	_ZNSt23_Sp_counted_ptr_inplaceIN7asiopal13SocketChannelESaIS1_ELN9__gnu_cxx12_Lock_policyE2EE10_M_destroyEv, @function
_ZNSt23_Sp_counted_ptr_inplaceIN7asiopal13SocketChannelESaIS1_ELN9__gnu_cxx12_Lock_policyE2EE10_M_destroyEv:
.LFB11002:
	.cfi_startproc
	jmp	_ZdlPv@PLT
	.cfi_endproc
.LFE11002:
	.size	_ZNSt23_Sp_counted_ptr_inplaceIN7asiopal13SocketChannelESaIS1_ELN9__gnu_cxx12_Lock_policyE2EE10_M_destroyEv, .-_ZNSt23_Sp_counted_ptr_inplaceIN7asiopal13SocketChannelESaIS1_ELN9__gnu_cxx12_Lock_policyE2EE10_M_destroyEv
	.section	.text._ZNSt23_Sp_counted_ptr_inplaceIN8asiodnp311LinkSessionESaIS1_ELN9__gnu_cxx12_Lock_policyE2EE10_M_destroyEv,"axG",@progbits,_ZNSt23_Sp_counted_ptr_inplaceIN8asiodnp311LinkSessionESaIS1_ELN9__gnu_cxx12_Lock_policyE2EE10_M_destroyEv,comdat
	.align 2
	.p2align 4,,15
	.weak	_ZNSt23_Sp_counted_ptr_inplaceIN8asiodnp311LinkSessionESaIS1_ELN9__gnu_cxx12_Lock_policyE2EE10_M_destroyEv
	.type	_ZNSt23_Sp_counted_ptr_inplaceIN8asiodnp311LinkSessionESaIS1_ELN9__gnu_cxx12_Lock_policyE2EE10_M_destroyEv, @function
_ZNSt23_Sp_counted_ptr_inplaceIN8asiodnp311LinkSessionESaIS1_ELN9__gnu_cxx12_Lock_policyE2EE10_M_destroyEv:
.LFB11009:
	.cfi_startproc
	jmp	_ZdlPv@PLT
	.cfi_endproc
.LFE11009:
	.size	_ZNSt23_Sp_counted_ptr_inplaceIN8asiodnp311LinkSessionESaIS1_ELN9__gnu_cxx12_Lock_policyE2EE10_M_destroyEv, .-_ZNSt23_Sp_counted_ptr_inplaceIN8asiodnp311LinkSessionESaIS1_ELN9__gnu_cxx12_Lock_policyE2EE10_M_destroyEv
	.section	.text._ZNSt23_Sp_counted_ptr_inplaceIN7asiopal8ExecutorESaIS1_ELN9__gnu_cxx12_Lock_policyE2EE10_M_destroyEv,"axG",@progbits,_ZNSt23_Sp_counted_ptr_inplaceIN7asiopal8ExecutorESaIS1_ELN9__gnu_cxx12_Lock_policyE2EE10_M_destroyEv,comdat
	.align 2
	.p2align 4,,15
	.weak	_ZNSt23_Sp_counted_ptr_inplaceIN7asiopal8ExecutorESaIS1_ELN9__gnu_cxx12_Lock_policyE2EE10_M_destroyEv
	.type	_ZNSt23_Sp_counted_ptr_inplaceIN7asiopal8ExecutorESaIS1_ELN9__gnu_cxx12_Lock_policyE2EE10_M_destroyEv, @function
_ZNSt23_Sp_counted_ptr_inplaceIN7asiopal8ExecutorESaIS1_ELN9__gnu_cxx12_Lock_policyE2EE10_M_destroyEv:
.LFB11037:
	.cfi_startproc
	jmp	_ZdlPv@PLT
	.cfi_endproc
.LFE11037:
	.size	_ZNSt23_Sp_counted_ptr_inplaceIN7asiopal8ExecutorESaIS1_ELN9__gnu_cxx12_Lock_policyE2EE10_M_destroyEv, .-_ZNSt23_Sp_counted_ptr_inplaceIN7asiopal8ExecutorESaIS1_ELN9__gnu_cxx12_Lock_policyE2EE10_M_destroyEv
	.section	.text._ZNSt23_Sp_counted_ptr_inplaceIN7openpal6Logger8SettingsESaIS2_ELN9__gnu_cxx12_Lock_policyE2EE10_M_destroyEv,"axG",@progbits,_ZNSt23_Sp_counted_ptr_inplaceIN7openpal6Logger8SettingsESaIS2_ELN9__gnu_cxx12_Lock_policyE2EE10_M_destroyEv,comdat
	.align 2
	.p2align 4,,15
	.weak	_ZNSt23_Sp_counted_ptr_inplaceIN7openpal6Logger8SettingsESaIS2_ELN9__gnu_cxx12_Lock_policyE2EE10_M_destroyEv
	.type	_ZNSt23_Sp_counted_ptr_inplaceIN7openpal6Logger8SettingsESaIS2_ELN9__gnu_cxx12_Lock_policyE2EE10_M_destroyEv, @function
_ZNSt23_Sp_counted_ptr_inplaceIN7openpal6Logger8SettingsESaIS2_ELN9__gnu_cxx12_Lock_policyE2EE10_M_destroyEv:
.LFB11058:
	.cfi_startproc
	jmp	_ZdlPv@PLT
	.cfi_endproc
.LFE11058:
	.size	_ZNSt23_Sp_counted_ptr_inplaceIN7openpal6Logger8SettingsESaIS2_ELN9__gnu_cxx12_Lock_policyE2EE10_M_destroyEv, .-_ZNSt23_Sp_counted_ptr_inplaceIN7openpal6Logger8SettingsESaIS2_ELN9__gnu_cxx12_Lock_policyE2EE10_M_destroyEv
	.section	.text._ZNSt23_Sp_counted_ptr_inplaceIN7openpal6Logger8SettingsESaIS2_ELN9__gnu_cxx12_Lock_policyE2EE10_M_disposeEv,"axG",@progbits,_ZNSt23_Sp_counted_ptr_inplaceIN7openpal6Logger8SettingsESaIS2_ELN9__gnu_cxx12_Lock_policyE2EE10_M_disposeEv,comdat
	.align 2
	.p2align 4,,15
	.weak	_ZNSt23_Sp_counted_ptr_inplaceIN7openpal6Logger8SettingsESaIS2_ELN9__gnu_cxx12_Lock_policyE2EE10_M_disposeEv
	.type	_ZNSt23_Sp_counted_ptr_inplaceIN7openpal6Logger8SettingsESaIS2_ELN9__gnu_cxx12_Lock_policyE2EE10_M_disposeEv, @function
_ZNSt23_Sp_counted_ptr_inplaceIN7openpal6Logger8SettingsESaIS2_ELN9__gnu_cxx12_Lock_policyE2EE10_M_disposeEv:
.LFB11057:
	.cfi_startproc
	movq	16(%rdi), %rdx
	leaq	32(%rdi), %rax
	cmpq	%rax, %rdx
	je	.L24
	movq	%rdx, %rdi
	jmp	_ZdlPv@PLT
	.p2align 4,,10
	.p2align 3
.L24:
	rep ret
	.cfi_endproc
.LFE11057:
	.size	_ZNSt23_Sp_counted_ptr_inplaceIN7openpal6Logger8SettingsESaIS2_ELN9__gnu_cxx12_Lock_policyE2EE10_M_disposeEv, .-_ZNSt23_Sp_counted_ptr_inplaceIN7openpal6Logger8SettingsESaIS2_ELN9__gnu_cxx12_Lock_policyE2EE10_M_disposeEv
	.section	.text._ZN4asio6detail15system_categoryD0Ev,"axG",@progbits,_ZN4asio6detail15system_categoryD5Ev,comdat
	.align 2
	.p2align 4,,15
	.weak	_ZN4asio6detail15system_categoryD0Ev
	.type	_ZN4asio6detail15system_categoryD0Ev, @function
_ZN4asio6detail15system_categoryD0Ev:
.LFB10964:
	.cfi_startproc
	movq	_ZTVN4asio6detail15system_categoryE@GOTPCREL(%rip), %rax
	pushq	%rbx
	.cfi_def_cfa_offset 16
	.cfi_offset 3, -16
	movq	%rdi, %rbx
	addq	$16, %rax
	movq	%rax, (%rdi)
	call	_ZNSt3_V214error_categoryD2Ev@PLT
	movq	%rbx, %rdi
	movl	$8, %esi
	popq	%rbx
	.cfi_def_cfa_offset 8
	jmp	_ZdlPvm@PLT
	.cfi_endproc
.LFE10964:
	.size	_ZN4asio6detail15system_categoryD0Ev, .-_ZN4asio6detail15system_categoryD0Ev
	.section	.text._ZN4asio5error6detail14netdb_categoryD0Ev,"axG",@progbits,_ZN4asio5error6detail14netdb_categoryD5Ev,comdat
	.align 2
	.p2align 4,,15
	.weak	_ZN4asio5error6detail14netdb_categoryD0Ev
	.type	_ZN4asio5error6detail14netdb_categoryD0Ev, @function
_ZN4asio5error6detail14netdb_categoryD0Ev:
.LFB10952:
	.cfi_startproc
	movq	_ZTVN4asio5error6detail14netdb_categoryE@GOTPCREL(%rip), %rax
	pushq	%rbx
	.cfi_def_cfa_offset 16
	.cfi_offset 3, -16
	movq	%rdi, %rbx
	addq	$16, %rax
	movq	%rax, (%rdi)
	call	_ZNSt3_V214error_categoryD2Ev@PLT
	movq	%rbx, %rdi
	movl	$8, %esi
	popq	%rbx
	.cfi_def_cfa_offset 8
	jmp	_ZdlPvm@PLT
	.cfi_endproc
.LFE10952:
	.size	_ZN4asio5error6detail14netdb_categoryD0Ev, .-_ZN4asio5error6detail14netdb_categoryD0Ev
	.section	.text._ZN4asio5error6detail17addrinfo_categoryD0Ev,"axG",@progbits,_ZN4asio5error6detail17addrinfo_categoryD5Ev,comdat
	.align 2
	.p2align 4,,15
	.weak	_ZN4asio5error6detail17addrinfo_categoryD0Ev
	.type	_ZN4asio5error6detail17addrinfo_categoryD0Ev, @function
_ZN4asio5error6detail17addrinfo_categoryD0Ev:
.LFB10948:
	.cfi_startproc
	movq	_ZTVN4asio5error6detail17addrinfo_categoryE@GOTPCREL(%rip), %rax
	pushq	%rbx
	.cfi_def_cfa_offset 16
	.cfi_offset 3, -16
	movq	%rdi, %rbx
	addq	$16, %rax
	movq	%rax, (%rdi)
	call	_ZNSt3_V214error_categoryD2Ev@PLT
	movq	%rbx, %rdi
	movl	$8, %esi
	popq	%rbx
	.cfi_def_cfa_offset 8
	jmp	_ZdlPvm@PLT
	.cfi_endproc
.LFE10948:
	.size	_ZN4asio5error6detail17addrinfo_categoryD0Ev, .-_ZN4asio5error6detail17addrinfo_categoryD0Ev
	.section	.text._ZN4asio5error6detail13misc_categoryD0Ev,"axG",@progbits,_ZN4asio5error6detail13misc_categoryD5Ev,comdat
	.align 2
	.p2align 4,,15
	.weak	_ZN4asio5error6detail13misc_categoryD0Ev
	.type	_ZN4asio5error6detail13misc_categoryD0Ev, @function
_ZN4asio5error6detail13misc_categoryD0Ev:
.LFB10944:
	.cfi_startproc
	movq	_ZTVN4asio5error6detail13misc_categoryE@GOTPCREL(%rip), %rax
	pushq	%rbx
	.cfi_def_cfa_offset 16
	.cfi_offset 3, -16
	movq	%rdi, %rbx
	addq	$16, %rax
	movq	%rax, (%rdi)
	call	_ZNSt3_V214error_categoryD2Ev@PLT
	movq	%rbx, %rdi
	movl	$8, %esi
	popq	%rbx
	.cfi_def_cfa_offset 8
	jmp	_ZdlPvm@PLT
	.cfi_endproc
.LFE10944:
	.size	_ZN4asio5error6detail13misc_categoryD0Ev, .-_ZN4asio5error6detail13misc_categoryD0Ev
	.section	.text._ZNSt23_Sp_counted_ptr_inplaceIN7openpal6Logger8SettingsESaIS2_ELN9__gnu_cxx12_Lock_policyE2EED0Ev,"axG",@progbits,_ZNSt23_Sp_counted_ptr_inplaceIN7openpal6Logger8SettingsESaIS2_ELN9__gnu_cxx12_Lock_policyE2EED5Ev,comdat
	.align 2
	.p2align 4,,15
	.weak	_ZNSt23_Sp_counted_ptr_inplaceIN7openpal6Logger8SettingsESaIS2_ELN9__gnu_cxx12_Lock_policyE2EED0Ev
	.type	_ZNSt23_Sp_counted_ptr_inplaceIN7openpal6Logger8SettingsESaIS2_ELN9__gnu_cxx12_Lock_policyE2EED0Ev, @function
_ZNSt23_Sp_counted_ptr_inplaceIN7openpal6Logger8SettingsESaIS2_ELN9__gnu_cxx12_Lock_policyE2EED0Ev:
.LFB11056:
	.cfi_startproc
	movl	$56, %esi
	jmp	_ZdlPvm@PLT
	.cfi_endproc
.LFE11056:
	.size	_ZNSt23_Sp_counted_ptr_inplaceIN7openpal6Logger8SettingsESaIS2_ELN9__gnu_cxx12_Lock_policyE2EED0Ev, .-_ZNSt23_Sp_counted_ptr_inplaceIN7openpal6Logger8SettingsESaIS2_ELN9__gnu_cxx12_Lock_policyE2EED0Ev
	.section	.text._ZNSt23_Sp_counted_ptr_inplaceIN7asiopal8ExecutorESaIS1_ELN9__gnu_cxx12_Lock_policyE2EED0Ev,"axG",@progbits,_ZNSt23_Sp_counted_ptr_inplaceIN7asiopal8ExecutorESaIS1_ELN9__gnu_cxx12_Lock_policyE2EED5Ev,comdat
	.align 2
	.p2align 4,,15
	.weak	_ZNSt23_Sp_counted_ptr_inplaceIN7asiopal8ExecutorESaIS1_ELN9__gnu_cxx12_Lock_policyE2EED0Ev
	.type	_ZNSt23_Sp_counted_ptr_inplaceIN7asiopal8ExecutorESaIS1_ELN9__gnu_cxx12_Lock_policyE2EED0Ev, @function
_ZNSt23_Sp_counted_ptr_inplaceIN7asiopal8ExecutorESaIS1_ELN9__gnu_cxx12_Lock_policyE2EED0Ev:
.LFB11035:
	.cfi_startproc
	movl	$72, %esi
	jmp	_ZdlPvm@PLT
	.cfi_endproc
.LFE11035:
	.size	_ZNSt23_Sp_counted_ptr_inplaceIN7asiopal8ExecutorESaIS1_ELN9__gnu_cxx12_Lock_policyE2EED0Ev, .-_ZNSt23_Sp_counted_ptr_inplaceIN7asiopal8ExecutorESaIS1_ELN9__gnu_cxx12_Lock_policyE2EED0Ev
	.section	.text._ZNSt23_Sp_counted_ptr_inplaceIN8asiodnp311LinkSessionESaIS1_ELN9__gnu_cxx12_Lock_policyE2EED0Ev,"axG",@progbits,_ZNSt23_Sp_counted_ptr_inplaceIN8asiodnp311LinkSessionESaIS1_ELN9__gnu_cxx12_Lock_policyE2EED5Ev,comdat
	.align 2
	.p2align 4,,15
	.weak	_ZNSt23_Sp_counted_ptr_inplaceIN8asiodnp311LinkSessionESaIS1_ELN9__gnu_cxx12_Lock_policyE2EED0Ev
	.type	_ZNSt23_Sp_counted_ptr_inplaceIN8asiodnp311LinkSessionESaIS1_ELN9__gnu_cxx12_Lock_policyE2EED0Ev, @function
_ZNSt23_Sp_counted_ptr_inplaceIN8asiodnp311LinkSessionESaIS1_ELN9__gnu_cxx12_Lock_policyE2EED0Ev:
.LFB11007:
	.cfi_startproc
	movl	$624, %esi
	jmp	_ZdlPvm@PLT
	.cfi_endproc
.LFE11007:
	.size	_ZNSt23_Sp_counted_ptr_inplaceIN8asiodnp311LinkSessionESaIS1_ELN9__gnu_cxx12_Lock_policyE2EED0Ev, .-_ZNSt23_Sp_counted_ptr_inplaceIN8asiodnp311LinkSessionESaIS1_ELN9__gnu_cxx12_Lock_policyE2EED0Ev
	.section	.text._ZNSt23_Sp_counted_ptr_inplaceIN7asiopal13SocketChannelESaIS1_ELN9__gnu_cxx12_Lock_policyE2EED0Ev,"axG",@progbits,_ZNSt23_Sp_counted_ptr_inplaceIN7asiopal13SocketChannelESaIS1_ELN9__gnu_cxx12_Lock_policyE2EED5Ev,comdat
	.align 2
	.p2align 4,,15
	.weak	_ZNSt23_Sp_counted_ptr_inplaceIN7asiopal13SocketChannelESaIS1_ELN9__gnu_cxx12_Lock_policyE2EED0Ev
	.type	_ZNSt23_Sp_counted_ptr_inplaceIN7asiopal13SocketChannelESaIS1_ELN9__gnu_cxx12_Lock_policyE2EED0Ev, @function
_ZNSt23_Sp_counted_ptr_inplaceIN7asiopal13SocketChannelESaIS1_ELN9__gnu_cxx12_Lock_policyE2EED0Ev:
.LFB11000:
	.cfi_startproc
	movl	$112, %esi
	jmp	_ZdlPvm@PLT
	.cfi_endproc
.LFE11000:
	.size	_ZNSt23_Sp_counted_ptr_inplaceIN7asiopal13SocketChannelESaIS1_ELN9__gnu_cxx12_Lock_policyE2EED0Ev, .-_ZNSt23_Sp_counted_ptr_inplaceIN7asiopal13SocketChannelESaIS1_ELN9__gnu_cxx12_Lock_policyE2EED0Ev
	.section	.text._ZNSt23_Sp_counted_ptr_inplaceIN7openpal6Logger8SettingsESaIS2_ELN9__gnu_cxx12_Lock_policyE2EE14_M_get_deleterERKSt9type_info,"axG",@progbits,_ZNSt23_Sp_counted_ptr_inplaceIN7openpal6Logger8SettingsESaIS2_ELN9__gnu_cxx12_Lock_policyE2EE14_M_get_deleterERKSt9type_info,comdat
	.align 2
	.p2align 4,,15
	.weak	_ZNSt23_Sp_counted_ptr_inplaceIN7openpal6Logger8SettingsESaIS2_ELN9__gnu_cxx12_Lock_policyE2EE14_M_get_deleterERKSt9type_info
	.type	_ZNSt23_Sp_counted_ptr_inplaceIN7openpal6Logger8SettingsESaIS2_ELN9__gnu_cxx12_Lock_policyE2EE14_M_get_deleterERKSt9type_info, @function
_ZNSt23_Sp_counted_ptr_inplaceIN7openpal6Logger8SettingsESaIS2_ELN9__gnu_cxx12_Lock_policyE2EE14_M_get_deleterERKSt9type_info:
.LFB11059:
	.cfi_startproc
	pushq	%rbx
	.cfi_def_cfa_offset 16
	.cfi_offset 3, -16
	movq	%rdi, %rbx
	movq	8(%rsi), %rdi
	movq	_ZTSSt19_Sp_make_shared_tag@GOTPCREL(%rip), %rsi
	cmpq	%rsi, %rdi
	je	.L39
	cmpb	$42, (%rdi)
	je	.L42
	call	strcmp@PLT
	testl	%eax, %eax
	jne	.L42
.L39:
	leaq	16(%rbx), %rax
	popq	%rbx
	.cfi_remember_state
	.cfi_def_cfa_offset 8
	ret
	.p2align 4,,10
	.p2align 3
.L42:
	.cfi_restore_state
	xorl	%eax, %eax
	popq	%rbx
	.cfi_def_cfa_offset 8
	ret
	.cfi_endproc
.LFE11059:
	.size	_ZNSt23_Sp_counted_ptr_inplaceIN7openpal6Logger8SettingsESaIS2_ELN9__gnu_cxx12_Lock_policyE2EE14_M_get_deleterERKSt9type_info, .-_ZNSt23_Sp_counted_ptr_inplaceIN7openpal6Logger8SettingsESaIS2_ELN9__gnu_cxx12_Lock_policyE2EE14_M_get_deleterERKSt9type_info
	.section	.text._ZNSt23_Sp_counted_ptr_inplaceIN7asiopal8ExecutorESaIS1_ELN9__gnu_cxx12_Lock_policyE2EE14_M_get_deleterERKSt9type_info,"axG",@progbits,_ZNSt23_Sp_counted_ptr_inplaceIN7asiopal8ExecutorESaIS1_ELN9__gnu_cxx12_Lock_policyE2EE14_M_get_deleterERKSt9type_info,comdat
	.align 2
	.p2align 4,,15
	.weak	_ZNSt23_Sp_counted_ptr_inplaceIN7asiopal8ExecutorESaIS1_ELN9__gnu_cxx12_Lock_policyE2EE14_M_get_deleterERKSt9type_info
	.type	_ZNSt23_Sp_counted_ptr_inplaceIN7asiopal8ExecutorESaIS1_ELN9__gnu_cxx12_Lock_policyE2EE14_M_get_deleterERKSt9type_info, @function
_ZNSt23_Sp_counted_ptr_inplaceIN7asiopal8ExecutorESaIS1_ELN9__gnu_cxx12_Lock_policyE2EE14_M_get_deleterERKSt9type_info:
.LFB11038:
	.cfi_startproc
	pushq	%rbx
	.cfi_def_cfa_offset 16
	.cfi_offset 3, -16
	movq	%rdi, %rbx
	movq	8(%rsi), %rdi
	movq	_ZTSSt19_Sp_make_shared_tag@GOTPCREL(%rip), %rsi
	cmpq	%rsi, %rdi
	je	.L45
	cmpb	$42, (%rdi)
	je	.L48
	call	strcmp@PLT
	testl	%eax, %eax
	jne	.L48
.L45:
	leaq	16(%rbx), %rax
	popq	%rbx
	.cfi_remember_state
	.cfi_def_cfa_offset 8
	ret
	.p2align 4,,10
	.p2align 3
.L48:
	.cfi_restore_state
	xorl	%eax, %eax
	popq	%rbx
	.cfi_def_cfa_offset 8
	ret
	.cfi_endproc
.LFE11038:
	.size	_ZNSt23_Sp_counted_ptr_inplaceIN7asiopal8ExecutorESaIS1_ELN9__gnu_cxx12_Lock_policyE2EE14_M_get_deleterERKSt9type_info, .-_ZNSt23_Sp_counted_ptr_inplaceIN7asiopal8ExecutorESaIS1_ELN9__gnu_cxx12_Lock_policyE2EE14_M_get_deleterERKSt9type_info
	.section	.text._ZNSt23_Sp_counted_ptr_inplaceIN8asiodnp311LinkSessionESaIS1_ELN9__gnu_cxx12_Lock_policyE2EE14_M_get_deleterERKSt9type_info,"axG",@progbits,_ZNSt23_Sp_counted_ptr_inplaceIN8asiodnp311LinkSessionESaIS1_ELN9__gnu_cxx12_Lock_policyE2EE14_M_get_deleterERKSt9type_info,comdat
	.align 2
	.p2align 4,,15
	.weak	_ZNSt23_Sp_counted_ptr_inplaceIN8asiodnp311LinkSessionESaIS1_ELN9__gnu_cxx12_Lock_policyE2EE14_M_get_deleterERKSt9type_info
	.type	_ZNSt23_Sp_counted_ptr_inplaceIN8asiodnp311LinkSessionESaIS1_ELN9__gnu_cxx12_Lock_policyE2EE14_M_get_deleterERKSt9type_info, @function
_ZNSt23_Sp_counted_ptr_inplaceIN8asiodnp311LinkSessionESaIS1_ELN9__gnu_cxx12_Lock_policyE2EE14_M_get_deleterERKSt9type_info:
.LFB11010:
	.cfi_startproc
	pushq	%rbx
	.cfi_def_cfa_offset 16
	.cfi_offset 3, -16
	movq	%rdi, %rbx
	movq	8(%rsi), %rdi
	movq	_ZTSSt19_Sp_make_shared_tag@GOTPCREL(%rip), %rsi
	cmpq	%rsi, %rdi
	je	.L51
	cmpb	$42, (%rdi)
	je	.L54
	call	strcmp@PLT
	testl	%eax, %eax
	jne	.L54
.L51:
	leaq	16(%rbx), %rax
	popq	%rbx
	.cfi_remember_state
	.cfi_def_cfa_offset 8
	ret
	.p2align 4,,10
	.p2align 3
.L54:
	.cfi_restore_state
	xorl	%eax, %eax
	popq	%rbx
	.cfi_def_cfa_offset 8
	ret
	.cfi_endproc
.LFE11010:
	.size	_ZNSt23_Sp_counted_ptr_inplaceIN8asiodnp311LinkSessionESaIS1_ELN9__gnu_cxx12_Lock_policyE2EE14_M_get_deleterERKSt9type_info, .-_ZNSt23_Sp_counted_ptr_inplaceIN8asiodnp311LinkSessionESaIS1_ELN9__gnu_cxx12_Lock_policyE2EE14_M_get_deleterERKSt9type_info
	.section	.text._ZNSt23_Sp_counted_ptr_inplaceIN7asiopal13SocketChannelESaIS1_ELN9__gnu_cxx12_Lock_policyE2EE14_M_get_deleterERKSt9type_info,"axG",@progbits,_ZNSt23_Sp_counted_ptr_inplaceIN7asiopal13SocketChannelESaIS1_ELN9__gnu_cxx12_Lock_policyE2EE14_M_get_deleterERKSt9type_info,comdat
	.align 2
	.p2align 4,,15
	.weak	_ZNSt23_Sp_counted_ptr_inplaceIN7asiopal13SocketChannelESaIS1_ELN9__gnu_cxx12_Lock_policyE2EE14_M_get_deleterERKSt9type_info
	.type	_ZNSt23_Sp_counted_ptr_inplaceIN7asiopal13SocketChannelESaIS1_ELN9__gnu_cxx12_Lock_policyE2EE14_M_get_deleterERKSt9type_info, @function
_ZNSt23_Sp_counted_ptr_inplaceIN7asiopal13SocketChannelESaIS1_ELN9__gnu_cxx12_Lock_policyE2EE14_M_get_deleterERKSt9type_info:
.LFB11003:
	.cfi_startproc
	pushq	%rbx
	.cfi_def_cfa_offset 16
	.cfi_offset 3, -16
	movq	%rdi, %rbx
	movq	8(%rsi), %rdi
	movq	_ZTSSt19_Sp_make_shared_tag@GOTPCREL(%rip), %rsi
	cmpq	%rsi, %rdi
	je	.L57
	cmpb	$42, (%rdi)
	je	.L60
	call	strcmp@PLT
	testl	%eax, %eax
	jne	.L60
.L57:
	leaq	16(%rbx), %rax
	popq	%rbx
	.cfi_remember_state
	.cfi_def_cfa_offset 8
	ret
	.p2align 4,,10
	.p2align 3
.L60:
	.cfi_restore_state
	xorl	%eax, %eax
	popq	%rbx
	.cfi_def_cfa_offset 8
	ret
	.cfi_endproc
.LFE11003:
	.size	_ZNSt23_Sp_counted_ptr_inplaceIN7asiopal13SocketChannelESaIS1_ELN9__gnu_cxx12_Lock_policyE2EE14_M_get_deleterERKSt9type_info, .-_ZNSt23_Sp_counted_ptr_inplaceIN7asiopal13SocketChannelESaIS1_ELN9__gnu_cxx12_Lock_policyE2EE14_M_get_deleterERKSt9type_info
	.section	.text.unlikely,"ax",@progbits
	.type	_ZN4asio6detail15throw_exceptionISt8bad_castEEvRKT_.isra.46, @function
_ZN4asio6detail15throw_exceptionISt8bad_castEEvRKT_.isra.46:
.LFB11224:
	.cfi_startproc
	movl	$8, %edi
	subq	$8, %rsp
	.cfi_def_cfa_offset 16
	call	__cxa_allocate_exception@PLT
	movq	_ZTVSt8bad_cast@GOTPCREL(%rip), %rdx
	movq	_ZTISt8bad_cast@GOTPCREL(%rip), %rsi
	movq	%rax, %rdi
	addq	$16, %rdx
	movq	%rdx, (%rax)
	movq	_ZNSt8bad_castD1Ev@GOTPCREL(%rip), %rdx
	call	__cxa_throw@PLT
	.cfi_endproc
.LFE11224:
	.size	_ZN4asio6detail15throw_exceptionISt8bad_castEEvRKT_.isra.46, .-_ZN4asio6detail15throw_exceptionISt8bad_castEEvRKT_.isra.46
	.section	.rodata.str1.8,"aMS",@progbits,1
	.align 8
.LC4:
	.string	"basic_string::_M_construct null not valid"
	.text
	.align 2
	.p2align 4,,15
	.type	_ZNSt7__cxx1112basic_stringIcSt11char_traitsIcESaIcEE12_M_constructIPKcEEvT_S8_St20forward_iterator_tag.isra.86, @function
_ZNSt7__cxx1112basic_stringIcSt11char_traitsIcESaIcEE12_M_constructIPKcEEvT_S8_St20forward_iterator_tag.isra.86:
.LFB11264:
	.cfi_startproc
	pushq	%r12
	.cfi_def_cfa_offset 16
	.cfi_offset 12, -16
	pushq	%rbp
	.cfi_def_cfa_offset 24
	.cfi_offset 6, -24
	movq	%rsi, %r12
	pushq	%rbx
	.cfi_def_cfa_offset 32
	.cfi_offset 3, -32
	movq	%rdi, %rbp
	subq	$16, %rsp
	.cfi_def_cfa_offset 48
	movq	%fs:40, %rax
	movq	%rax, 8(%rsp)
	xorl	%eax, %eax
	testq	%rsi, %rsi
	jne	.L65
	testq	%rdx, %rdx
	jne	.L81
.L65:
	subq	%r12, %rdx
	cmpq	$15, %rdx
	movq	%rdx, %rbx
	movq	%rdx, (%rsp)
	ja	.L82
	cmpq	$1, %rdx
	movq	0(%rbp), %rax
	jne	.L68
	movzbl	(%r12), %edx
	movb	%dl, (%rax)
	movq	(%rsp), %rbx
	movq	0(%rbp), %rax
.L69:
	movq	%rbx, 8(%rbp)
	movb	$0, (%rax,%rbx)
	movq	8(%rsp), %rax
	xorq	%fs:40, %rax
	jne	.L83
	addq	$16, %rsp
	.cfi_remember_state
	.cfi_def_cfa_offset 32
	popq	%rbx
	.cfi_def_cfa_offset 24
	popq	%rbp
	.cfi_def_cfa_offset 16
	popq	%r12
	.cfi_def_cfa_offset 8
	ret
	.p2align 4,,10
	.p2align 3
.L82:
	.cfi_restore_state
	xorl	%edx, %edx
	movq	%rsp, %rsi
	movq	%rbp, %rdi
	call	_ZNSt7__cxx1112basic_stringIcSt11char_traitsIcESaIcEE9_M_createERmm@PLT
	movq	(%rsp), %rdx
	movq	%rax, 0(%rbp)
	movq	%rdx, 16(%rbp)
.L67:
	movq	%rbx, %rdx
	movq	%r12, %rsi
	movq	%rax, %rdi
	call	memcpy@PLT
	movq	(%rsp), %rbx
	movq	0(%rbp), %rax
	jmp	.L69
	.p2align 4,,10
	.p2align 3
.L68:
	testq	%rdx, %rdx
	je	.L69
	jmp	.L67
.L81:
	leaq	.LC4(%rip), %rdi
	call	_ZSt19__throw_logic_errorPKc@PLT
.L83:
	call	__stack_chk_fail@PLT
	.cfi_endproc
.LFE11264:
	.size	_ZNSt7__cxx1112basic_stringIcSt11char_traitsIcESaIcEE12_M_constructIPKcEEvT_S8_St20forward_iterator_tag.isra.86, .-_ZNSt7__cxx1112basic_stringIcSt11char_traitsIcESaIcEE12_M_constructIPKcEEvT_S8_St20forward_iterator_tag.isra.86
	.set	_ZNSt7__cxx1112basic_stringIcSt11char_traitsIcESaIcEE12_M_constructIPcEEvT_S7_St20forward_iterator_tag.isra.90,_ZNSt7__cxx1112basic_stringIcSt11char_traitsIcESaIcEE12_M_constructIPKcEEvT_S8_St20forward_iterator_tag.isra.86
	.section	.text._ZNSt23_Sp_counted_ptr_inplaceIN7asiopal8ExecutorESaIS1_ELN9__gnu_cxx12_Lock_policyE2EE10_M_disposeEv,"axG",@progbits,_ZNSt23_Sp_counted_ptr_inplaceIN7asiopal8ExecutorESaIS1_ELN9__gnu_cxx12_Lock_policyE2EE10_M_disposeEv,comdat
	.align 2
	.p2align 4,,15
	.weak	_ZNSt23_Sp_counted_ptr_inplaceIN7asiopal8ExecutorESaIS1_ELN9__gnu_cxx12_Lock_policyE2EE10_M_disposeEv
	.type	_ZNSt23_Sp_counted_ptr_inplaceIN7asiopal8ExecutorESaIS1_ELN9__gnu_cxx12_Lock_policyE2EE10_M_disposeEv, @function
_ZNSt23_Sp_counted_ptr_inplaceIN7asiopal8ExecutorESaIS1_ELN9__gnu_cxx12_Lock_policyE2EE10_M_disposeEv:
.LFB11036:
	.cfi_startproc
	pushq	%rbp
	.cfi_def_cfa_offset 16
	.cfi_offset 6, -16
	pushq	%rbx
	.cfi_def_cfa_offset 24
	.cfi_offset 3, -24
	movq	%rdi, %rbp
	subq	$8, %rsp
	.cfi_def_cfa_offset 32
	movq	_ZTVN7asiopal8ExecutorE@GOTPCREL(%rip), %rax
	movq	48(%rdi), %rbx
	addq	$16, %rax
	testq	%rbx, %rbx
	movq	%rax, 16(%rdi)
	je	.L86
	cmpq	$0, _ZL28__gthrw___pthread_key_createPjPFvPvE@GOTPCREL(%rip)
	je	.L87
	lock subl	$1, 8(%rbx)
	je	.L98
.L86:
	movq	32(%rbp), %rdi
	testq	%rdi, %rdi
	je	.L84
	cmpq	$0, _ZL28__gthrw___pthread_key_createPjPFvPvE@GOTPCREL(%rip)
	je	.L93
	movl	$-1, %eax
	lock xaddl	%eax, 12(%rdi)
	cmpl	$1, %eax
	je	.L99
.L84:
	addq	$8, %rsp
	.cfi_remember_state
	.cfi_def_cfa_offset 24
	popq	%rbx
	.cfi_def_cfa_offset 16
	popq	%rbp
	.cfi_def_cfa_offset 8
	ret
	.p2align 4,,10
	.p2align 3
.L93:
	.cfi_restore_state
	movl	12(%rdi), %eax
	leal	-1(%rax), %edx
	cmpl	$1, %eax
	movl	%edx, 12(%rdi)
	jne	.L84
.L99:
	movq	(%rdi), %rax
	movq	24(%rax), %rax
	addq	$8, %rsp
	.cfi_remember_state
	.cfi_def_cfa_offset 24
	popq	%rbx
	.cfi_def_cfa_offset 16
	popq	%rbp
	.cfi_def_cfa_offset 8
	jmp	*%rax
	.p2align 4,,10
	.p2align 3
.L87:
	.cfi_restore_state
	movl	8(%rbx), %eax
	leal	-1(%rax), %edx
	cmpl	$1, %eax
	movl	%edx, 8(%rbx)
	jne	.L86
	movq	(%rbx), %rax
	movq	%rbx, %rdi
	call	*16(%rax)
	movl	12(%rbx), %eax
	leal	-1(%rax), %edx
	movl	%edx, 12(%rbx)
	jmp	.L96
	.p2align 4,,10
	.p2align 3
.L98:
	movq	(%rbx), %rax
	movq	%rbx, %rdi
	call	*16(%rax)
	movl	$-1, %eax
	lock xaddl	%eax, 12(%rbx)
.L96:
	cmpl	$1, %eax
	jne	.L86
	movq	(%rbx), %rax
	movq	%rbx, %rdi
	call	*24(%rax)
	jmp	.L86
	.cfi_endproc
.LFE11036:
	.size	_ZNSt23_Sp_counted_ptr_inplaceIN7asiopal8ExecutorESaIS1_ELN9__gnu_cxx12_Lock_policyE2EE10_M_disposeEv, .-_ZNSt23_Sp_counted_ptr_inplaceIN7asiopal8ExecutorESaIS1_ELN9__gnu_cxx12_Lock_policyE2EE10_M_disposeEv
	.text
	.align 2
	.p2align 4,,15
	.type	_ZNSt7__cxx1112basic_stringIcSt11char_traitsIcESaIcEEC2EPKcRKS3_.isra.88, @function
_ZNSt7__cxx1112basic_stringIcSt11char_traitsIcESaIcEEC2EPKcRKS3_.isra.88:
.LFB11266:
	.cfi_startproc
	pushq	%r13
	.cfi_def_cfa_offset 16
	.cfi_offset 13, -16
	pushq	%r12
	.cfi_def_cfa_offset 24
	.cfi_offset 12, -24
	pushq	%rbp
	.cfi_def_cfa_offset 32
	.cfi_offset 6, -32
	pushq	%rbx
	.cfi_def_cfa_offset 40
	.cfi_offset 3, -40
	leaq	16(%rdi), %rbp
	subq	$24, %rsp
	.cfi_def_cfa_offset 64
	movq	%rbp, (%rdi)
	movq	%fs:40, %rax
	movq	%rax, 8(%rsp)
	xorl	%eax, %eax
	testq	%rsi, %rsi
	je	.L101
	movq	%rdi, %rbx
	movq	%rsi, %rdi
	movq	%rsi, %r12
	call	strlen@PLT
	cmpq	$15, %rax
	movq	%rax, %r13
	movq	%rax, (%rsp)
	ja	.L113
	cmpq	$1, %rax
	jne	.L105
	movzbl	(%r12), %edx
	movb	%dl, 16(%rbx)
.L106:
	movq	%rax, 8(%rbx)
	movb	$0, 0(%rbp,%rax)
	movq	8(%rsp), %rax
	xorq	%fs:40, %rax
	jne	.L114
	addq	$24, %rsp
	.cfi_remember_state
	.cfi_def_cfa_offset 40
	popq	%rbx
	.cfi_def_cfa_offset 32
	popq	%rbp
	.cfi_def_cfa_offset 24
	popq	%r12
	.cfi_def_cfa_offset 16
	popq	%r13
	.cfi_def_cfa_offset 8
	ret
	.p2align 4,,10
	.p2align 3
.L113:
	.cfi_restore_state
	movq	%rsp, %rsi
	xorl	%edx, %edx
	movq	%rbx, %rdi
	call	_ZNSt7__cxx1112basic_stringIcSt11char_traitsIcESaIcEE9_M_createERmm@PLT
	movq	%rax, %rbp
	movq	%rax, (%rbx)
	movq	(%rsp), %rax
	movq	%rax, 16(%rbx)
.L104:
	movq	%rbp, %rdi
	movq	%r13, %rdx
	movq	%r12, %rsi
	call	memcpy@PLT
	movq	(%rsp), %rax
	movq	(%rbx), %rbp
	jmp	.L106
	.p2align 4,,10
	.p2align 3
.L105:
	testq	%rax, %rax
	je	.L106
	jmp	.L104
.L114:
	call	__stack_chk_fail@PLT
.L101:
	leaq	.LC4(%rip), %rdi
	call	_ZSt19__throw_logic_errorPKc@PLT
	.cfi_endproc
.LFE11266:
	.size	_ZNSt7__cxx1112basic_stringIcSt11char_traitsIcESaIcEEC2EPKcRKS3_.isra.88, .-_ZNSt7__cxx1112basic_stringIcSt11char_traitsIcESaIcEEC2EPKcRKS3_.isra.88
	.section	.text._ZNK4asio6detail15system_category7messageB5cxx11Ei,"axG",@progbits,_ZNK4asio6detail15system_category7messageB5cxx11Ei,comdat
	.align 2
	.p2align 4,,15
	.weak	_ZNK4asio6detail15system_category7messageB5cxx11Ei
	.type	_ZNK4asio6detail15system_category7messageB5cxx11Ei, @function
_ZNK4asio6detail15system_category7messageB5cxx11Ei:
.LFB2376:
	.cfi_startproc
	pushq	%r13
	.cfi_def_cfa_offset 16
	.cfi_offset 13, -16
	pushq	%r12
	.cfi_def_cfa_offset 24
	.cfi_offset 12, -24
	pushq	%rbp
	.cfi_def_cfa_offset 32
	.cfi_offset 6, -32
	pushq	%rbx
	.cfi_def_cfa_offset 40
	.cfi_offset 3, -40
	leaq	16(%rdi), %rbp
	movq	%rdi, %rbx
	subq	$296, %rsp
	.cfi_def_cfa_offset 336
	movq	%fs:40, %rax
	movq	%rax, 280(%rsp)
	xorl	%eax, %eax
	cmpl	$125, %edx
	je	.L130
	pxor	%xmm0, %xmm0
	leaq	32(%rsp), %rdi
	movl	%edx, %r8d
	xorl	%eax, %eax
	movl	$30, %ecx
	leaq	16(%rsp), %rsi
	rep stosq
	movl	$256, %edx
	movl	%r8d, %edi
	movaps	%xmm0, 16(%rsp)
	call	strerror_r@PLT
	testq	%rax, %rax
	movq	%rax, %r12
	movq	%rbp, (%rbx)
	je	.L118
	movq	%rax, %rdi
	call	strlen@PLT
	cmpq	$15, %rax
	movq	%rax, %r13
	movq	%rax, 8(%rsp)
	ja	.L131
	cmpq	$1, %rax
	jne	.L122
	movzbl	(%r12), %edx
	movb	%dl, 16(%rbx)
.L123:
	movq	%rax, 8(%rbx)
	movb	$0, 0(%rbp,%rax)
.L115:
	movq	280(%rsp), %rcx
	xorq	%fs:40, %rcx
	movq	%rbx, %rax
	jne	.L132
	addq	$296, %rsp
	.cfi_remember_state
	.cfi_def_cfa_offset 40
	popq	%rbx
	.cfi_def_cfa_offset 32
	popq	%rbp
	.cfi_def_cfa_offset 24
	popq	%r12
	.cfi_def_cfa_offset 16
	popq	%r13
	.cfi_def_cfa_offset 8
	ret
	.p2align 4,,10
	.p2align 3
.L131:
	.cfi_restore_state
	leaq	8(%rsp), %rsi
	xorl	%edx, %edx
	movq	%rbx, %rdi
	call	_ZNSt7__cxx1112basic_stringIcSt11char_traitsIcESaIcEE9_M_createERmm@PLT
	movq	%rax, %rbp
	movq	%rax, (%rbx)
	movq	8(%rsp), %rax
	movq	%rax, 16(%rbx)
.L121:
	movq	%rbp, %rdi
	movq	%r13, %rdx
	movq	%r12, %rsi
	call	memcpy@PLT
	movq	8(%rsp), %rax
	movq	(%rbx), %rbp
	jmp	.L123
	.p2align 4,,10
	.p2align 3
.L130:
	leaq	8(%rsp), %rsi
	xorl	%edx, %edx
	movq	%rbp, (%rdi)
	movq	$18, 8(%rsp)
	call	_ZNSt7__cxx1112basic_stringIcSt11char_traitsIcESaIcEE9_M_createERmm@PLT
	movq	8(%rsp), %rdx
	movq	%rax, (%rbx)
	movdqa	.LC5(%rip), %xmm0
	movq	%rdx, 16(%rbx)
	movl	$11876, %edx
	movups	%xmm0, (%rax)
	movw	%dx, 16(%rax)
	movq	8(%rsp), %rax
	movq	(%rbx), %rdx
	movq	%rax, 8(%rbx)
	movb	$0, (%rdx,%rax)
	jmp	.L115
	.p2align 4,,10
	.p2align 3
.L122:
	testq	%rax, %rax
	je	.L123
	jmp	.L121
.L132:
	call	__stack_chk_fail@PLT
.L118:
	leaq	.LC4(%rip), %rdi
	call	_ZSt19__throw_logic_errorPKc@PLT
	.cfi_endproc
.LFE2376:
	.size	_ZNK4asio6detail15system_category7messageB5cxx11Ei, .-_ZNK4asio6detail15system_category7messageB5cxx11Ei
	.section	.text._ZNK4asio5error6detail17addrinfo_category7messageB5cxx11Ei,"axG",@progbits,_ZNK4asio5error6detail17addrinfo_category7messageB5cxx11Ei,comdat
	.align 2
	.p2align 4,,15
	.weak	_ZNK4asio5error6detail17addrinfo_category7messageB5cxx11Ei
	.type	_ZNK4asio5error6detail17addrinfo_category7messageB5cxx11Ei, @function
_ZNK4asio5error6detail17addrinfo_category7messageB5cxx11Ei:
.LFB2422:
	.cfi_startproc
	pushq	%rbx
	.cfi_def_cfa_offset 16
	.cfi_offset 3, -16
	movq	%rdi, %rbx
	subq	$16, %rsp
	.cfi_def_cfa_offset 32
	movq	%fs:40, %rax
	movq	%rax, 8(%rsp)
	xorl	%eax, %eax
	leaq	16(%rdi), %rax
	cmpl	$-8, %edx
	movq	%rax, (%rdi)
	je	.L139
	cmpl	$-7, %edx
	je	.L140
	xorl	%edx, %edx
	movq	%rsp, %rsi
	movq	$19, (%rsp)
	call	_ZNSt7__cxx1112basic_stringIcSt11char_traitsIcESaIcEE9_M_createERmm@PLT
	movq	(%rsp), %rdx
	movq	%rax, (%rbx)
	movdqa	.LC8(%rip), %xmm0
	movq	%rdx, 16(%rbx)
	movl	$28530, %edx
	movb	$114, 18(%rax)
	movups	%xmm0, (%rax)
	movw	%dx, 16(%rax)
	movq	(%rsp), %rax
	movq	(%rbx), %rdx
	movq	%rax, 8(%rbx)
	movb	$0, (%rdx,%rax)
.L133:
	movq	8(%rsp), %rcx
	xorq	%fs:40, %rcx
	movq	%rbx, %rax
	jne	.L141
	addq	$16, %rsp
	.cfi_remember_state
	.cfi_def_cfa_offset 16
	popq	%rbx
	.cfi_def_cfa_offset 8
	ret
	.p2align 4,,10
	.p2align 3
.L140:
	.cfi_restore_state
	xorl	%edx, %edx
	movq	%rsp, %rsi
	movq	$25, (%rsp)
	call	_ZNSt7__cxx1112basic_stringIcSt11char_traitsIcESaIcEE9_M_createERmm@PLT
	movq	(%rsp), %rdx
	movabsq	$7310593918082512243, %rcx
	movq	%rax, (%rbx)
	movdqa	.LC7(%rip), %xmm0
	movq	%rdx, 16(%rbx)
	movq	%rcx, 16(%rax)
	movups	%xmm0, (%rax)
	movb	$100, 24(%rax)
	movq	(%rsp), %rax
	movq	(%rbx), %rdx
	movq	%rax, 8(%rbx)
	movb	$0, (%rdx,%rax)
	jmp	.L133
	.p2align 4,,10
	.p2align 3
.L139:
	xorl	%edx, %edx
	movq	%rsp, %rsi
	movq	$17, (%rsp)
	call	_ZNSt7__cxx1112basic_stringIcSt11char_traitsIcESaIcEE9_M_createERmm@PLT
	movq	(%rsp), %rdx
	movq	%rax, (%rbx)
	movdqa	.LC6(%rip), %xmm0
	movq	%rdx, 16(%rbx)
	movb	$100, 16(%rax)
	movups	%xmm0, (%rax)
	movq	(%rsp), %rax
	movq	(%rbx), %rdx
	movq	%rax, 8(%rbx)
	movb	$0, (%rdx,%rax)
	jmp	.L133
.L141:
	call	__stack_chk_fail@PLT
	.cfi_endproc
.LFE2422:
	.size	_ZNK4asio5error6detail17addrinfo_category7messageB5cxx11Ei, .-_ZNK4asio5error6detail17addrinfo_category7messageB5cxx11Ei
	.section	.text._ZNSt23_Sp_counted_ptr_inplaceIN8asiodnp311LinkSessionESaIS1_ELN9__gnu_cxx12_Lock_policyE2EE10_M_disposeEv,"axG",@progbits,_ZNSt23_Sp_counted_ptr_inplaceIN8asiodnp311LinkSessionESaIS1_ELN9__gnu_cxx12_Lock_policyE2EE10_M_disposeEv,comdat
	.align 2
	.p2align 4,,15
	.weak	_ZNSt23_Sp_counted_ptr_inplaceIN8asiodnp311LinkSessionESaIS1_ELN9__gnu_cxx12_Lock_policyE2EE10_M_disposeEv
	.type	_ZNSt23_Sp_counted_ptr_inplaceIN8asiodnp311LinkSessionESaIS1_ELN9__gnu_cxx12_Lock_policyE2EE10_M_disposeEv, @function
_ZNSt23_Sp_counted_ptr_inplaceIN8asiodnp311LinkSessionESaIS1_ELN9__gnu_cxx12_Lock_policyE2EE10_M_disposeEv:
.LFB11008:
	.cfi_startproc
	pushq	%rbp
	.cfi_def_cfa_offset 16
	.cfi_offset 6, -16
	pushq	%rbx
	.cfi_def_cfa_offset 24
	.cfi_offset 3, -24
	movq	%rdi, %rbx
	subq	$8, %rsp
	.cfi_def_cfa_offset 32
	movq	_ZTVN8asiodnp311LinkSessionE@GOTPCREL(%rip), %rax
	movq	616(%rdi), %rbp
	leaq	16(%rax), %rdx
	movq	%rdx, 16(%rdi)
	leaq	96(%rax), %rdx
	movq	%rdx, 24(%rdi)
	leaq	144(%rax), %rdx
	movq	%rdx, 32(%rdi)
	leaq	184(%rax), %rdx
	addq	$224, %rax
	testq	%rbp, %rbp
	movq	%rax, 64(%rdi)
	movq	%rdx, 56(%rdi)
	je	.L144
	cmpq	$0, _ZL28__gthrw___pthread_key_createPjPFvPvE@GOTPCREL(%rip)
	je	.L145
	lock subl	$1, 8(%rbp)
	je	.L205
.L144:
	leaq	584(%rbx), %rdi
	call	_ZN7openpal8TimerRefD1Ev@PLT
	movq	192(%rbx), %rbp
	testq	%rbp, %rbp
	je	.L150
	cmpq	$0, _ZL28__gthrw___pthread_key_createPjPFvPvE@GOTPCREL(%rip)
	je	.L151
	lock subl	$1, 8(%rbp)
	je	.L206
.L150:
	movq	176(%rbx), %rbp
	testq	%rbp, %rbp
	je	.L156
	cmpq	$0, _ZL28__gthrw___pthread_key_createPjPFvPvE@GOTPCREL(%rip)
	je	.L157
	lock subl	$1, 8(%rbp)
	je	.L207
.L156:
	movq	160(%rbx), %rbp
	testq	%rbp, %rbp
	je	.L162
	cmpq	$0, _ZL28__gthrw___pthread_key_createPjPFvPvE@GOTPCREL(%rip)
	je	.L163
	lock subl	$1, 8(%rbp)
	je	.L208
.L162:
	movq	144(%rbx), %rbp
	testq	%rbp, %rbp
	je	.L168
	cmpq	$0, _ZL28__gthrw___pthread_key_createPjPFvPvE@GOTPCREL(%rip)
	je	.L169
	lock subl	$1, 8(%rbp)
	je	.L209
.L168:
	movq	128(%rbx), %rbp
	testq	%rbp, %rbp
	je	.L174
	cmpq	$0, _ZL28__gthrw___pthread_key_createPjPFvPvE@GOTPCREL(%rip)
	je	.L175
	lock subl	$1, 8(%rbp)
	je	.L210
.L174:
	movq	104(%rbx), %rbp
	testq	%rbp, %rbp
	je	.L180
	cmpq	$0, _ZL28__gthrw___pthread_key_createPjPFvPvE@GOTPCREL(%rip)
	je	.L181
	lock subl	$1, 8(%rbp)
	je	.L211
.L180:
	movq	88(%rbx), %rbp
	testq	%rbp, %rbp
	je	.L186
	cmpq	$0, _ZL28__gthrw___pthread_key_createPjPFvPvE@GOTPCREL(%rip)
	je	.L187
	lock subl	$1, 8(%rbp)
	je	.L212
.L186:
	movq	48(%rbx), %rdi
	testq	%rdi, %rdi
	je	.L142
	cmpq	$0, _ZL28__gthrw___pthread_key_createPjPFvPvE@GOTPCREL(%rip)
	je	.L193
	movl	$-1, %eax
	lock xaddl	%eax, 12(%rdi)
	cmpl	$1, %eax
	je	.L213
.L142:
	addq	$8, %rsp
	.cfi_remember_state
	.cfi_def_cfa_offset 24
	popq	%rbx
	.cfi_def_cfa_offset 16
	popq	%rbp
	.cfi_def_cfa_offset 8
	ret
	.p2align 4,,10
	.p2align 3
.L187:
	.cfi_restore_state
	movl	8(%rbp), %eax
	leal	-1(%rax), %edx
	cmpl	$1, %eax
	movl	%edx, 8(%rbp)
	jne	.L186
	movq	0(%rbp), %rax
	movq	%rbp, %rdi
	call	*16(%rax)
	movl	12(%rbp), %eax
	leal	-1(%rax), %edx
	movl	%edx, 12(%rbp)
	jmp	.L203
	.p2align 4,,10
	.p2align 3
.L193:
	movl	12(%rdi), %eax
	leal	-1(%rax), %edx
	cmpl	$1, %eax
	movl	%edx, 12(%rdi)
	jne	.L142
.L213:
	movq	(%rdi), %rax
	movq	24(%rax), %rax
	addq	$8, %rsp
	.cfi_remember_state
	.cfi_def_cfa_offset 24
	popq	%rbx
	.cfi_def_cfa_offset 16
	popq	%rbp
	.cfi_def_cfa_offset 8
	jmp	*%rax
	.p2align 4,,10
	.p2align 3
.L157:
	.cfi_restore_state
	movl	8(%rbp), %eax
	leal	-1(%rax), %edx
	cmpl	$1, %eax
	movl	%edx, 8(%rbp)
	jne	.L156
	movq	0(%rbp), %rax
	movq	%rbp, %rdi
	call	*16(%rax)
	movl	12(%rbp), %eax
	leal	-1(%rax), %edx
	movl	%edx, 12(%rbp)
	jmp	.L198
	.p2align 4,,10
	.p2align 3
.L145:
	movl	8(%rbp), %eax
	leal	-1(%rax), %edx
	cmpl	$1, %eax
	movl	%edx, 8(%rbp)
	jne	.L144
	movq	0(%rbp), %rax
	movq	%rbp, %rdi
	call	*16(%rax)
	movl	12(%rbp), %eax
	leal	-1(%rax), %edx
	movl	%edx, 12(%rbp)
	jmp	.L196
	.p2align 4,,10
	.p2align 3
.L151:
	movl	8(%rbp), %eax
	leal	-1(%rax), %edx
	cmpl	$1, %eax
	movl	%edx, 8(%rbp)
	jne	.L150
	movq	0(%rbp), %rax
	movq	%rbp, %rdi
	call	*16(%rax)
	movl	12(%rbp), %eax
	leal	-1(%rax), %edx
	movl	%edx, 12(%rbp)
	jmp	.L197
	.p2align 4,,10
	.p2align 3
.L163:
	movl	8(%rbp), %eax
	leal	-1(%rax), %edx
	cmpl	$1, %eax
	movl	%edx, 8(%rbp)
	jne	.L162
	movq	0(%rbp), %rax
	movq	%rbp, %rdi
	call	*16(%rax)
	movl	12(%rbp), %eax
	leal	-1(%rax), %edx
	movl	%edx, 12(%rbp)
	jmp	.L199
	.p2align 4,,10
	.p2align 3
.L181:
	movl	8(%rbp), %eax
	leal	-1(%rax), %edx
	cmpl	$1, %eax
	movl	%edx, 8(%rbp)
	jne	.L180
	movq	0(%rbp), %rax
	movq	%rbp, %rdi
	call	*16(%rax)
	movl	12(%rbp), %eax
	leal	-1(%rax), %edx
	movl	%edx, 12(%rbp)
	jmp	.L202
	.p2align 4,,10
	.p2align 3
.L175:
	movl	8(%rbp), %eax
	leal	-1(%rax), %edx
	cmpl	$1, %eax
	movl	%edx, 8(%rbp)
	jne	.L174
	movq	0(%rbp), %rax
	movq	%rbp, %rdi
	call	*16(%rax)
	movl	12(%rbp), %eax
	leal	-1(%rax), %edx
	movl	%edx, 12(%rbp)
	jmp	.L201
	.p2align 4,,10
	.p2align 3
.L169:
	movl	8(%rbp), %eax
	leal	-1(%rax), %edx
	cmpl	$1, %eax
	movl	%edx, 8(%rbp)
	jne	.L168
	movq	0(%rbp), %rax
	movq	%rbp, %rdi
	call	*16(%rax)
	movl	12(%rbp), %eax
	leal	-1(%rax), %edx
	movl	%edx, 12(%rbp)
	jmp	.L200
	.p2align 4,,10
	.p2align 3
.L207:
	movq	0(%rbp), %rax
	movq	%rbp, %rdi
	call	*16(%rax)
	movl	$-1, %eax
	lock xaddl	%eax, 12(%rbp)
.L198:
	cmpl	$1, %eax
	jne	.L156
	movq	0(%rbp), %rax
	movq	%rbp, %rdi
	call	*24(%rax)
	jmp	.L156
	.p2align 4,,10
	.p2align 3
.L212:
	movq	0(%rbp), %rax
	movq	%rbp, %rdi
	call	*16(%rax)
	movl	$-1, %eax
	lock xaddl	%eax, 12(%rbp)
.L203:
	cmpl	$1, %eax
	jne	.L186
	movq	0(%rbp), %rax
	movq	%rbp, %rdi
	call	*24(%rax)
	jmp	.L186
	.p2align 4,,10
	.p2align 3
.L206:
	movq	0(%rbp), %rax
	movq	%rbp, %rdi
	call	*16(%rax)
	movl	$-1, %eax
	lock xaddl	%eax, 12(%rbp)
.L197:
	cmpl	$1, %eax
	jne	.L150
	movq	0(%rbp), %rax
	movq	%rbp, %rdi
	call	*24(%rax)
	jmp	.L150
	.p2align 4,,10
	.p2align 3
.L208:
	movq	0(%rbp), %rax
	movq	%rbp, %rdi
	call	*16(%rax)
	movl	$-1, %eax
	lock xaddl	%eax, 12(%rbp)
.L199:
	cmpl	$1, %eax
	jne	.L162
	movq	0(%rbp), %rax
	movq	%rbp, %rdi
	call	*24(%rax)
	jmp	.L162
	.p2align 4,,10
	.p2align 3
.L209:
	movq	0(%rbp), %rax
	movq	%rbp, %rdi
	call	*16(%rax)
	movl	$-1, %eax
	lock xaddl	%eax, 12(%rbp)
.L200:
	cmpl	$1, %eax
	jne	.L168
	movq	0(%rbp), %rax
	movq	%rbp, %rdi
	call	*24(%rax)
	jmp	.L168
	.p2align 4,,10
	.p2align 3
.L210:
	movq	0(%rbp), %rax
	movq	%rbp, %rdi
	call	*16(%rax)
	movl	$-1, %eax
	lock xaddl	%eax, 12(%rbp)
.L201:
	cmpl	$1, %eax
	jne	.L174
	movq	0(%rbp), %rax
	movq	%rbp, %rdi
	call	*24(%rax)
	jmp	.L174
	.p2align 4,,10
	.p2align 3
.L211:
	movq	0(%rbp), %rax
	movq	%rbp, %rdi
	call	*16(%rax)
	movl	$-1, %eax
	lock xaddl	%eax, 12(%rbp)
.L202:
	cmpl	$1, %eax
	jne	.L180
	movq	0(%rbp), %rax
	movq	%rbp, %rdi
	call	*24(%rax)
	jmp	.L180
	.p2align 4,,10
	.p2align 3
.L205:
	movq	0(%rbp), %rax
	movq	%rbp, %rdi
	call	*16(%rax)
	movl	$-1, %eax
	lock xaddl	%eax, 12(%rbp)
.L196:
	cmpl	$1, %eax
	jne	.L144
	movq	0(%rbp), %rax
	movq	%rbp, %rdi
	call	*24(%rax)
	jmp	.L144
	.cfi_endproc
.LFE11008:
	.size	_ZNSt23_Sp_counted_ptr_inplaceIN8asiodnp311LinkSessionESaIS1_ELN9__gnu_cxx12_Lock_policyE2EE10_M_disposeEv, .-_ZNSt23_Sp_counted_ptr_inplaceIN8asiodnp311LinkSessionESaIS1_ELN9__gnu_cxx12_Lock_policyE2EE10_M_disposeEv
	.section	.rodata._ZNK4asio5error6detail13misc_category7messageB5cxx11Ei.str1.1,"aMS",@progbits,1
.LC9:
	.string	"Element not found"
	.section	.text._ZNK4asio5error6detail13misc_category7messageB5cxx11Ei,"axG",@progbits,_ZNK4asio5error6detail13misc_category7messageB5cxx11Ei,comdat
	.align 2
	.p2align 4,,15
	.weak	_ZNK4asio5error6detail13misc_category7messageB5cxx11Ei
	.type	_ZNK4asio5error6detail13misc_category7messageB5cxx11Ei, @function
_ZNK4asio5error6detail13misc_category7messageB5cxx11Ei:
.LFB2428:
	.cfi_startproc
	pushq	%rbx
	.cfi_def_cfa_offset 16
	.cfi_offset 3, -16
	movq	%rdi, %rbx
	subq	$16, %rsp
	.cfi_def_cfa_offset 32
	movq	%fs:40, %rax
	movq	%rax, 8(%rsp)
	xorl	%eax, %eax
	leaq	16(%rdi), %rax
	cmpl	$1, %edx
	movq	%rax, (%rdi)
	je	.L222
	cmpl	$2, %edx
	je	.L223
	cmpl	$3, %edx
	je	.L224
	cmpl	$4, %edx
	je	.L225
	movabsq	$8316298233121436513, %rsi
	movl	$28530, %edx
	movq	%rsi, 16(%rdi)
	movl	$1919230051, 8(%rax)
	movw	%dx, 12(%rax)
	movb	$114, 14(%rax)
	movq	$15, 8(%rdi)
	movb	$0, 31(%rdi)
.L214:
	movq	8(%rsp), %rcx
	xorq	%fs:40, %rcx
	movq	%rbx, %rax
	jne	.L226
	addq	$16, %rsp
	.cfi_remember_state
	.cfi_def_cfa_offset 16
	popq	%rbx
	.cfi_def_cfa_offset 8
	ret
	.p2align 4,,10
	.p2align 3
.L225:
	.cfi_restore_state
	xorl	%edx, %edx
	movq	%rsp, %rsi
	movq	$57, (%rsp)
	call	_ZNSt7__cxx1112basic_stringIcSt11char_traitsIcESaIcEE9_M_createERmm@PLT
	movq	(%rsp), %rdx
	movq	%rax, (%rbx)
	movabsq	$7310291504967217959, %rdi
	movdqa	.LC10(%rip), %xmm0
	movq	%rdx, 16(%rbx)
	movq	%rdi, 48(%rax)
	movups	%xmm0, (%rax)
	movb	$116, 56(%rax)
	movdqa	.LC11(%rip), %xmm0
	movups	%xmm0, 16(%rax)
	movdqa	.LC12(%rip), %xmm0
	movups	%xmm0, 32(%rax)
	movq	(%rsp), %rax
	movq	(%rbx), %rdx
	movq	%rax, 8(%rbx)
	movb	$0, (%rdx,%rax)
	jmp	.L214
	.p2align 4,,10
	.p2align 3
.L222:
	movabsq	$2340011850872286273, %rcx
	movq	%rcx, 16(%rdi)
	movl	$1852141679, 8(%rax)
	movq	$12, 8(%rdi)
	movb	$0, 28(%rdi)
	jmp	.L214
	.p2align 4,,10
	.p2align 3
.L223:
	movabsq	$7358994418594246213, %rcx
	movq	%rcx, 16(%rdi)
	movl	$27753, %ecx
	movb	$101, 10(%rax)
	movw	%cx, 8(%rax)
	movq	$11, 8(%rdi)
	movb	$0, 27(%rdi)
	jmp	.L214
	.p2align 4,,10
	.p2align 3
.L224:
	leaq	17+.LC9(%rip), %rdx
	leaq	-17(%rdx), %rsi
	call	_ZNSt7__cxx1112basic_stringIcSt11char_traitsIcESaIcEE12_M_constructIPKcEEvT_S8_St20forward_iterator_tag.isra.86
	jmp	.L214
.L226:
	call	__stack_chk_fail@PLT
	.cfi_endproc
.LFE2428:
	.size	_ZNK4asio5error6detail13misc_category7messageB5cxx11Ei, .-_ZNK4asio5error6detail13misc_category7messageB5cxx11Ei
	.section	.rodata._ZNK4asio5error6detail14netdb_category7messageB5cxx11Ei.str1.8,"aMS",@progbits,1
	.align 8
.LC13:
	.string	"The query is valid, but it does not have associated data"
	.section	.text._ZNK4asio5error6detail14netdb_category7messageB5cxx11Ei,"axG",@progbits,_ZNK4asio5error6detail14netdb_category7messageB5cxx11Ei,comdat
	.align 2
	.p2align 4,,15
	.weak	_ZNK4asio5error6detail14netdb_category7messageB5cxx11Ei
	.type	_ZNK4asio5error6detail14netdb_category7messageB5cxx11Ei, @function
_ZNK4asio5error6detail14netdb_category7messageB5cxx11Ei:
.LFB2416:
	.cfi_startproc
	pushq	%rbx
	.cfi_def_cfa_offset 16
	.cfi_offset 3, -16
	movq	%rdi, %rbx
	subq	$16, %rsp
	.cfi_def_cfa_offset 32
	movq	%fs:40, %rax
	movq	%rax, 8(%rsp)
	xorl	%eax, %eax
	leaq	16(%rdi), %rax
	cmpl	$1, %edx
	movq	%rax, (%rdi)
	je	.L235
	cmpl	$2, %edx
	je	.L236
	cmpl	$4, %edx
	je	.L237
	cmpl	$3, %edx
	je	.L238
	xorl	%edx, %edx
	movq	%rsp, %rsi
	movq	$16, (%rsp)
	call	_ZNSt7__cxx1112basic_stringIcSt11char_traitsIcESaIcEE9_M_createERmm@PLT
	movq	(%rsp), %rdx
	movq	%rax, (%rbx)
	movdqa	.LC20(%rip), %xmm0
	movq	%rdx, 16(%rbx)
	movups	%xmm0, (%rax)
	movq	(%rsp), %rax
	movq	(%rbx), %rdx
	movq	%rax, 8(%rbx)
	movb	$0, (%rdx,%rax)
.L227:
	movq	8(%rsp), %rcx
	xorq	%fs:40, %rcx
	movq	%rbx, %rax
	jne	.L239
	addq	$16, %rsp
	.cfi_remember_state
	.cfi_def_cfa_offset 16
	popq	%rbx
	.cfi_def_cfa_offset 8
	ret
	.p2align 4,,10
	.p2align 3
.L238:
	.cfi_restore_state
	xorl	%edx, %edx
	movq	%rsp, %rsi
	movq	$55, (%rsp)
	call	_ZNSt7__cxx1112basic_stringIcSt11char_traitsIcESaIcEE9_M_createERmm@PLT
	movq	(%rsp), %rdx
	movq	%rax, (%rbx)
	movdqa	.LC17(%rip), %xmm0
	movq	%rdx, 16(%rbx)
	movl	$30059, %edx
	movl	$1869573152, 48(%rax)
	movups	%xmm0, (%rax)
	movw	%dx, 52(%rax)
	movb	$112, 54(%rax)
	movdqa	.LC18(%rip), %xmm0
	movups	%xmm0, 16(%rax)
	movdqa	.LC19(%rip), %xmm0
	movups	%xmm0, 32(%rax)
	movq	(%rsp), %rax
	movq	(%rbx), %rdx
	movq	%rax, 8(%rbx)
	movb	$0, (%rdx,%rax)
	jmp	.L227
	.p2align 4,,10
	.p2align 3
.L235:
	movq	%rsp, %rsi
	xorl	%edx, %edx
	movq	$30, (%rsp)
	call	_ZNSt7__cxx1112basic_stringIcSt11char_traitsIcESaIcEE9_M_createERmm@PLT
	movq	(%rsp), %rdx
	movabsq	$8388361603773658465, %rcx
	movl	$10597, %esi
	movdqa	.LC14(%rip), %xmm0
	movq	%rax, (%rbx)
	movq	%rdx, 16(%rbx)
	movq	%rcx, 16(%rax)
	movups	%xmm0, (%rax)
	movl	$1986622561, 24(%rax)
	movw	%si, 28(%rax)
	movq	(%rsp), %rax
	movq	(%rbx), %rdx
	movq	%rax, 8(%rbx)
	movb	$0, (%rdx,%rax)
	jmp	.L227
	.p2align 4,,10
	.p2align 3
.L236:
	xorl	%edx, %edx
	movq	%rsp, %rsi
	movq	$51, (%rsp)
	call	_ZNSt7__cxx1112basic_stringIcSt11char_traitsIcESaIcEE9_M_createERmm@PLT
	movq	(%rsp), %rdx
	movq	%rax, (%rbx)
	movl	$25972, %ecx
	movdqa	.LC14(%rip), %xmm0
	movq	%rdx, 16(%rbx)
	movw	%cx, 48(%rax)
	movups	%xmm0, (%rax)
	movb	$114, 50(%rax)
	movdqa	.LC15(%rip), %xmm0
	movups	%xmm0, 16(%rax)
	movdqa	.LC16(%rip), %xmm0
	movups	%xmm0, 32(%rax)
	movq	(%rsp), %rax
	movq	(%rbx), %rdx
	movq	%rax, 8(%rbx)
	movb	$0, (%rdx,%rax)
	jmp	.L227
	.p2align 4,,10
	.p2align 3
.L237:
	leaq	56+.LC13(%rip), %rdx
	leaq	-56(%rdx), %rsi
	call	_ZNSt7__cxx1112basic_stringIcSt11char_traitsIcESaIcEE12_M_constructIPKcEEvT_S8_St20forward_iterator_tag.isra.86
	jmp	.L227
.L239:
	call	__stack_chk_fail@PLT
	.cfi_endproc
.LFE2416:
	.size	_ZNK4asio5error6detail14netdb_category7messageB5cxx11Ei, .-_ZNK4asio5error6detail14netdb_category7messageB5cxx11Ei
	.section	.text._ZSt20__throw_bad_weak_ptrv,"axG",@progbits,_ZSt20__throw_bad_weak_ptrv,comdat
	.p2align 4,,15
	.weak	_ZSt20__throw_bad_weak_ptrv
	.type	_ZSt20__throw_bad_weak_ptrv, @function
_ZSt20__throw_bad_weak_ptrv:
.LFB1550:
	.cfi_startproc
	movl	$8, %edi
	subq	$8, %rsp
	.cfi_def_cfa_offset 16
	call	__cxa_allocate_exception@PLT
	movq	_ZTVSt12bad_weak_ptr@GOTPCREL(%rip), %rdx
	movq	_ZTISt12bad_weak_ptr@GOTPCREL(%rip), %rsi
	movq	%rax, %rdi
	addq	$16, %rdx
	movq	%rdx, (%rax)
	movq	_ZNSt12bad_weak_ptrD1Ev@GOTPCREL(%rip), %rdx
	call	__cxa_throw@PLT
	.cfi_endproc
.LFE1550:
	.size	_ZSt20__throw_bad_weak_ptrv, .-_ZSt20__throw_bad_weak_ptrv
	.section	.text._ZN7openpal6LoggerD2Ev,"axG",@progbits,_ZN7openpal6LoggerD5Ev,comdat
	.align 2
	.p2align 4,,15
	.weak	_ZN7openpal6LoggerD2Ev
	.type	_ZN7openpal6LoggerD2Ev, @function
_ZN7openpal6LoggerD2Ev:
.LFB1967:
	.cfi_startproc
	pushq	%rbp
	.cfi_def_cfa_offset 16
	.cfi_offset 6, -16
	pushq	%rbx
	.cfi_def_cfa_offset 24
	.cfi_offset 3, -24
	movq	%rdi, %rbp
	subq	$8, %rsp
	.cfi_def_cfa_offset 32
	movq	24(%rdi), %rbx
	testq	%rbx, %rbx
	je	.L244
	cmpq	$0, _ZL28__gthrw___pthread_key_createPjPFvPvE@GOTPCREL(%rip)
	je	.L245
	lock subl	$1, 8(%rbx)
	je	.L258
.L244:
	movq	8(%rbp), %rbx
	testq	%rbx, %rbx
	je	.L242
	cmpq	$0, _ZL28__gthrw___pthread_key_createPjPFvPvE@GOTPCREL(%rip)
	je	.L251
	lock subl	$1, 8(%rbx)
	je	.L259
.L242:
	addq	$8, %rsp
	.cfi_remember_state
	.cfi_def_cfa_offset 24
	popq	%rbx
	.cfi_def_cfa_offset 16
	popq	%rbp
	.cfi_def_cfa_offset 8
	ret
	.p2align 4,,10
	.p2align 3
.L251:
	.cfi_restore_state
	movl	8(%rbx), %eax
	leal	-1(%rax), %edx
	cmpl	$1, %eax
	movl	%edx, 8(%rbx)
	jne	.L242
	movq	(%rbx), %rax
	movq	%rbx, %rdi
	call	*16(%rax)
	movl	12(%rbx), %eax
	leal	-1(%rax), %edx
	movl	%edx, 12(%rbx)
	jmp	.L256
	.p2align 4,,10
	.p2align 3
.L245:
	movl	8(%rbx), %eax
	leal	-1(%rax), %edx
	cmpl	$1, %eax
	movl	%edx, 8(%rbx)
	jne	.L244
	movq	(%rbx), %rax
	movq	%rbx, %rdi
	call	*16(%rax)
	movl	12(%rbx), %eax
	leal	-1(%rax), %edx
	movl	%edx, 12(%rbx)
	jmp	.L255
	.p2align 4,,10
	.p2align 3
.L259:
	movq	(%rbx), %rax
	movq	%rbx, %rdi
	call	*16(%rax)
	movl	$-1, %eax
	lock xaddl	%eax, 12(%rbx)
.L256:
	cmpl	$1, %eax
	jne	.L242
	movq	(%rbx), %rax
	movq	%rbx, %rdi
	movq	24(%rax), %rax
	addq	$8, %rsp
	.cfi_remember_state
	.cfi_def_cfa_offset 24
	popq	%rbx
	.cfi_def_cfa_offset 16
	popq	%rbp
	.cfi_def_cfa_offset 8
	jmp	*%rax
	.p2align 4,,10
	.p2align 3
.L258:
	.cfi_restore_state
	movq	(%rbx), %rax
	movq	%rbx, %rdi
	call	*16(%rax)
	movl	$-1, %eax
	lock xaddl	%eax, 12(%rbx)
.L255:
	cmpl	$1, %eax
	jne	.L244
	movq	(%rbx), %rax
	movq	%rbx, %rdi
	call	*24(%rax)
	jmp	.L244
	.cfi_endproc
.LFE1967:
	.size	_ZN7openpal6LoggerD2Ev, .-_ZN7openpal6LoggerD2Ev
	.weak	_ZN7openpal6LoggerD1Ev
	.set	_ZN7openpal6LoggerD1Ev,_ZN7openpal6LoggerD2Ev
	.section	.text._ZN4asio28asio_handler_is_continuationEz,"axG",@progbits,_ZN4asio28asio_handler_is_continuationEz,comdat
	.p2align 4,,15
	.weak	_ZN4asio28asio_handler_is_continuationEz
	.type	_ZN4asio28asio_handler_is_continuationEz, @function
_ZN4asio28asio_handler_is_continuationEz:
.LFB2175:
	.cfi_startproc
	xorl	%eax, %eax
	ret
	.cfi_endproc
.LFE2175:
	.size	_ZN4asio28asio_handler_is_continuationEz, .-_ZN4asio28asio_handler_is_continuationEz
	.section	.rodata._ZNSt12system_errorC2ESt10error_codePKc.str1.1,"aMS",@progbits,1
.LC21:
	.string	": "
	.section	.text._ZNSt12system_errorC2ESt10error_codePKc,"axG",@progbits,_ZNSt12system_errorC5ESt10error_codePKc,comdat
	.align 2
	.p2align 4,,15
	.weak	_ZNSt12system_errorC2ESt10error_codePKc
	.type	_ZNSt12system_errorC2ESt10error_codePKc, @function
_ZNSt12system_errorC2ESt10error_codePKc:
.LFB2316:
	.cfi_startproc
	.cfi_personality 0x9b,DW.ref.__gxx_personality_v0
	.cfi_lsda 0x1b,.LLSDA2316
	pushq	%r15
	.cfi_def_cfa_offset 16
	.cfi_offset 15, -16
	pushq	%r14
	.cfi_def_cfa_offset 24
	.cfi_offset 14, -24
	movq	%rdx, %r14
	pushq	%r13
	.cfi_def_cfa_offset 32
	.cfi_offset 13, -32
	pushq	%r12
	.cfi_def_cfa_offset 40
	.cfi_offset 12, -40
	movq	%rdi, %r13
	pushq	%rbp
	.cfi_def_cfa_offset 48
	.cfi_offset 6, -48
	pushq	%rbx
	.cfi_def_cfa_offset 56
	.cfi_offset 3, -56
	movq	%rcx, %r12
	movq	%rsi, %r15
	subq	$120, %rsp
	.cfi_def_cfa_offset 176
	movq	%fs:40, %rax
	movq	%rax, 104(%rsp)
	xorl	%eax, %eax
	movq	(%rdx), %rax
	leaq	64(%rsp), %rbx
	movl	%esi, %edx
	movq	%r14, %rsi
	movq	%rbx, %rdi
.LEHB0:
	call	*32(%rax)
.LEHE0:
	leaq	.LC21(%rip), %rcx
	movl	$2, %r8d
	xorl	%edx, %edx
	xorl	%esi, %esi
	movq	%rbx, %rdi
.LEHB1:
	call	_ZNSt7__cxx1112basic_stringIcSt11char_traitsIcESaIcEE10_M_replaceEmmPKcm@PLT
.LEHE1:
	leaq	32(%rsp), %rbp
	leaq	16(%rbp), %rdx
	movq	%rdx, 32(%rsp)
	movq	(%rax), %rcx
	leaq	16(%rax), %rdx
	cmpq	%rdx, %rcx
	je	.L281
	movq	%rcx, 32(%rsp)
	movq	16(%rax), %rcx
	movq	%rcx, 48(%rsp)
.L263:
	movq	8(%rax), %rcx
	movq	%r12, %rdi
	movb	$0, 16(%rax)
	movq	%rcx, 40(%rsp)
	movq	%rdx, (%rax)
	movq	$0, 8(%rax)
	call	strlen@PLT
	movq	%r12, %rcx
	movq	%rax, %r8
	xorl	%edx, %edx
	xorl	%esi, %esi
	movq	%rbp, %rdi
.LEHB2:
	call	_ZNSt7__cxx1112basic_stringIcSt11char_traitsIcESaIcEE10_M_replaceEmmPKcm@PLT
.LEHE2:
	movq	%rsp, %r12
	leaq	16(%r12), %rdx
	movq	%rdx, (%rsp)
	movq	(%rax), %rcx
	leaq	16(%rax), %rdx
	cmpq	%rdx, %rcx
	je	.L282
	movq	%rcx, (%rsp)
	movq	16(%rax), %rcx
	movq	%rcx, 16(%rsp)
.L265:
	movq	8(%rax), %rcx
	movb	$0, 16(%rax)
	movq	%r12, %rsi
	movq	%r13, %rdi
	movq	%rcx, 8(%rsp)
	movq	%rdx, (%rax)
	movq	$0, 8(%rax)
.LEHB3:
	call	_ZNSt13runtime_errorC2ERKNSt7__cxx1112basic_stringIcSt11char_traitsIcESaIcEEE@PLT
.LEHE3:
	movq	(%rsp), %rdi
	addq	$16, %r12
	cmpq	%r12, %rdi
	je	.L266
	call	_ZdlPv@PLT
.L266:
	movq	32(%rsp), %rdi
	addq	$16, %rbp
	cmpq	%rbp, %rdi
	je	.L267
	call	_ZdlPv@PLT
.L267:
	movq	64(%rsp), %rdi
	addq	$16, %rbx
	cmpq	%rbx, %rdi
	je	.L268
	call	_ZdlPv@PLT
.L268:
	movq	_ZTVSt12system_error@GOTPCREL(%rip), %rax
	movq	%r15, 16(%r13)
	movq	%r14, 24(%r13)
	addq	$16, %rax
	movq	%rax, 0(%r13)
	movq	104(%rsp), %rax
	xorq	%fs:40, %rax
	jne	.L283
	addq	$120, %rsp
	.cfi_remember_state
	.cfi_def_cfa_offset 56
	popq	%rbx
	.cfi_def_cfa_offset 48
	popq	%rbp
	.cfi_def_cfa_offset 40
	popq	%r12
	.cfi_def_cfa_offset 32
	popq	%r13
	.cfi_def_cfa_offset 24
	popq	%r14
	.cfi_def_cfa_offset 16
	popq	%r15
	.cfi_def_cfa_offset 8
	ret
	.p2align 4,,10
	.p2align 3
.L281:
	.cfi_restore_state
	movdqu	16(%rax), %xmm0
	movaps	%xmm0, 48(%rsp)
	jmp	.L263
	.p2align 4,,10
	.p2align 3
.L282:
	movdqu	16(%rax), %xmm0
	movaps	%xmm0, 16(%rsp)
	jmp	.L265
.L283:
	call	__stack_chk_fail@PLT
.L278:
	movq	(%rsp), %rdi
	addq	$16, %r12
	movq	%rax, %r13
	cmpq	%r12, %rdi
	je	.L270
	call	_ZdlPv@PLT
.L270:
	movq	%r13, %r12
.L271:
	movq	32(%rsp), %rdi
	addq	$16, %rbp
	cmpq	%rbp, %rdi
	je	.L273
	call	_ZdlPv@PLT
.L273:
	movq	64(%rsp), %rdi
	addq	$16, %rbx
	cmpq	%rbx, %rdi
	je	.L274
	call	_ZdlPv@PLT
.L274:
	movq	%r12, %rdi
.LEHB4:
	call	_Unwind_Resume@PLT
.LEHE4:
.L276:
	movq	%rax, %r12
	jmp	.L273
.L277:
	movq	%rax, %r12
	jmp	.L271
	.cfi_endproc
.LFE2316:
	.globl	__gxx_personality_v0
	.section	.gcc_except_table._ZNSt12system_errorC2ESt10error_codePKc,"aG",@progbits,_ZNSt12system_errorC5ESt10error_codePKc,comdat
.LLSDA2316:
	.byte	0xff
	.byte	0xff
	.byte	0x1
	.uleb128 .LLSDACSE2316-.LLSDACSB2316
.LLSDACSB2316:
	.uleb128 .LEHB0-.LFB2316
	.uleb128 .LEHE0-.LEHB0
	.uleb128 0
	.uleb128 0
	.uleb128 .LEHB1-.LFB2316
	.uleb128 .LEHE1-.LEHB1
	.uleb128 .L276-.LFB2316
	.uleb128 0
	.uleb128 .LEHB2-.LFB2316
	.uleb128 .LEHE2-.LEHB2
	.uleb128 .L277-.LFB2316
	.uleb128 0
	.uleb128 .LEHB3-.LFB2316
	.uleb128 .LEHE3-.LEHB3
	.uleb128 .L278-.LFB2316
	.uleb128 0
	.uleb128 .LEHB4-.LFB2316
	.uleb128 .LEHE4-.LEHB4
	.uleb128 0
	.uleb128 0
.LLSDACSE2316:
	.section	.text._ZNSt12system_errorC2ESt10error_codePKc,"axG",@progbits,_ZNSt12system_errorC5ESt10error_codePKc,comdat
	.size	_ZNSt12system_errorC2ESt10error_codePKc, .-_ZNSt12system_errorC2ESt10error_codePKc
	.weak	_ZNSt12system_errorC1ESt10error_codePKc
	.set	_ZNSt12system_errorC1ESt10error_codePKc,_ZNSt12system_errorC2ESt10error_codePKc
	.section	.text._ZN4asio15system_categoryEv,"axG",@progbits,_ZN4asio15system_categoryEv,comdat
	.p2align 4,,15
	.weak	_ZN4asio15system_categoryEv
	.type	_ZN4asio15system_categoryEv, @function
_ZN4asio15system_categoryEv:
.LFB2379:
	.cfi_startproc
	pushq	%rbx
	.cfi_def_cfa_offset 16
	.cfi_offset 3, -16
	movq	_ZGVZN4asio15system_categoryEvE8instance@GOTPCREL(%rip), %rbx
	movzbl	(%rbx), %eax
	testb	%al, %al
	je	.L285
.L292:
	movq	_ZZN4asio15system_categoryEvE8instance@GOTPCREL(%rip), %rbx
	movq	%rbx, %rax
	popq	%rbx
	.cfi_remember_state
	.cfi_def_cfa_offset 8
	ret
	.p2align 4,,10
	.p2align 3
.L285:
	.cfi_restore_state
	movq	%rbx, %rdi
	call	__cxa_guard_acquire@PLT
	testl	%eax, %eax
	je	.L292
	movq	%rbx, %rdi
	call	__cxa_guard_release@PLT
	movq	_ZZN4asio15system_categoryEvE8instance@GOTPCREL(%rip), %rbx
	movq	_ZN4asio6detail15system_categoryD1Ev@GOTPCREL(%rip), %rdi
	leaq	__dso_handle(%rip), %rdx
	movq	%rbx, %rsi
	call	__cxa_atexit@PLT
	movq	%rbx, %rax
	popq	%rbx
	.cfi_def_cfa_offset 8
	ret
	.cfi_endproc
.LFE2379:
	.size	_ZN4asio15system_categoryEv, .-_ZN4asio15system_categoryEv
	.section	.text._ZN4asio6detail13epoll_reactor21deregister_descriptorEiRPNS1_16descriptor_stateEb,"axG",@progbits,_ZN4asio6detail13epoll_reactor21deregister_descriptorEiRPNS1_16descriptor_stateEb,comdat
	.align 2
	.p2align 4,,15
	.weak	_ZN4asio6detail13epoll_reactor21deregister_descriptorEiRPNS1_16descriptor_stateEb
	.type	_ZN4asio6detail13epoll_reactor21deregister_descriptorEiRPNS1_16descriptor_stateEb, @function
_ZN4asio6detail13epoll_reactor21deregister_descriptorEiRPNS1_16descriptor_stateEb:
.LFB3266:
	.cfi_startproc
	pushq	%r15
	.cfi_def_cfa_offset 16
	.cfi_offset 15, -16
	pushq	%r14
	.cfi_def_cfa_offset 24
	.cfi_offset 14, -24
	pushq	%r13
	.cfi_def_cfa_offset 32
	.cfi_offset 13, -32
	pushq	%r12
	.cfi_def_cfa_offset 40
	.cfi_offset 12, -40
	pushq	%rbp
	.cfi_def_cfa_offset 48
	.cfi_offset 6, -48
	pushq	%rbx
	.cfi_def_cfa_offset 56
	.cfi_offset 3, -56
	subq	$88, %rsp
	.cfi_def_cfa_offset 144
	movq	(%rdx), %r13
	movq	%fs:40, %rax
	movq	%rax, 72(%rsp)
	xorl	%eax, %eax
	movq	%rdi, 32(%rsp)
	testq	%r13, %r13
	je	.L293
	leaq	40(%r13), %rax
	movq	%rdx, %rbp
	movl	%esi, %r12d
	movl	%ecx, %ebx
	movq	%rax, %rdi
	movq	%rax, 40(%rsp)
	call	pthread_mutex_lock@PLT
	movq	0(%rbp), %rdi
	cmpb	$0, 144(%rdi)
	jne	.L295
	testb	%bl, %bl
	je	.L366
.L296:
	movq	$0, 8(%rsp)
	movq	8(%rsp), %rax
	xorl	%r13d, %r13d
	movq	$0, 24(%rsp)
	movq	%rbp, 16(%rsp)
.L307:
	leaq	6(%rax), %rcx
	salq	$4, %rcx
	movq	(%rdi,%rcx), %rbx
	movq	%rcx, %r14
	testq	%rbx, %rbx
	je	.L297
	salq	$4, %rax
	movq	_ZGVZN4asio15system_categoryEvE8instance@GOTPCREL(%rip), %rbp
	movq	_ZZN4asio15system_categoryEvE8instance@GOTPCREL(%rip), %r12
	movq	%rax, %r15
	jmp	.L298
	.p2align 4,,10
	.p2align 3
.L301:
	leaq	(%rdi,%r15), %rdx
	movl	$125, 24(%rbx)
	movq	%r12, 32(%rbx)
	movq	96(%rdx), %rax
	testq	%rax, %rax
	je	.L303
	movq	(%rax), %rcx
	testq	%rcx, %rcx
	movq	%rcx, 96(%rdx)
	je	.L367
.L304:
	movq	$0, (%rax)
.L303:
	testq	%r13, %r13
	movq	$0, (%rbx)
	je	.L305
	movq	(%rdi,%r14), %rax
	movq	%rbx, 0(%r13)
	testq	%rax, %rax
	je	.L306
.L299:
	movq	%rbx, %r13
	movq	%rax, %rbx
.L298:
	movzbl	0(%rbp), %eax
	testb	%al, %al
	jne	.L301
	movq	%rbp, %rdi
	call	__cxa_guard_acquire@PLT
	testl	%eax, %eax
	je	.L364
	movq	%rbp, %rdi
	call	__cxa_guard_release@PLT
	movq	_ZN4asio6detail15system_categoryD1Ev@GOTPCREL(%rip), %rdi
	leaq	__dso_handle(%rip), %rdx
	movq	%r12, %rsi
	call	__cxa_atexit@PLT
.L364:
	movq	16(%rsp), %rax
	movq	(%rax), %rdi
	jmp	.L301
	.p2align 4,,10
	.p2align 3
.L305:
	movq	(%rdi,%r14), %rax
	movq	%rbx, 24(%rsp)
	testq	%rax, %rax
	jne	.L299
.L306:
	movq	%rbx, %r13
.L297:
	addq	$1, 8(%rsp)
	movq	8(%rsp), %rax
	cmpq	$3, %rax
	jne	.L307
	movq	16(%rsp), %rbp
	movl	$-1, 88(%rdi)
	movq	40(%rsp), %rdi
	movq	0(%rbp), %rax
	movb	$1, 144(%rax)
	call	pthread_mutex_unlock@PLT
	movq	32(%rsp), %r14
	movq	0(%rbp), %rbx
	leaq	120(%r14), %r12
	movq	%r12, %rdi
	call	pthread_mutex_lock@PLT
	cmpq	160(%r14), %rbx
	jne	.L308
	movq	24(%rbx), %rax
	movq	32(%rsp), %rsi
	movq	%rax, 160(%rsi)
.L308:
	movq	32(%rbx), %rdx
	movq	24(%rbx), %rax
	testq	%rdx, %rdx
	je	.L309
	movq	%rax, 24(%rdx)
	movq	24(%rbx), %rax
.L309:
	testq	%rax, %rax
	je	.L310
	movq	32(%rbx), %rdx
	movq	%rdx, 32(%rax)
.L310:
	movq	32(%rsp), %r15
	movq	%r12, %rdi
	movq	168(%r15), %rax
	movq	$0, 32(%rbx)
	movq	%rax, 24(%rbx)
	movq	%rbx, 168(%r15)
	call	pthread_mutex_unlock@PLT
	cmpq	$0, 24(%rsp)
	movq	$0, 0(%rbp)
	je	.L293
	movq	40(%r15), %rbx
	cmpb	$0, 40(%rbx)
	je	.L312
	.byte	0x66
	leaq	_ZN4asio6detail15keyword_tss_ptrINS0_10call_stackINS0_15task_io_serviceENS0_27task_io_service_thread_infoEE7contextEE6value_E@tlsgd(%rip), %rdi
	.value	0x6666
	rex64
	call	__tls_get_addr@PLT
	movq	(%rax), %rax
	testq	%rax, %rax
	jne	.L361
	jmp	.L312
	.p2align 4,,10
	.p2align 3
.L314:
	movq	16(%rax), %rax
	testq	%rax, %rax
	je	.L312
.L361:
	cmpq	(%rax), %rbx
	jne	.L314
	movq	8(%rax), %rax
	testq	%rax, %rax
	je	.L312
	movq	16(%rax), %rdx
	movq	24(%rsp), %rsi
	testq	%rdx, %rdx
	je	.L317
	movq	%rsi, (%rdx)
.L318:
	movq	%r13, 16(%rax)
	.p2align 4,,10
	.p2align 3
.L293:
	movq	72(%rsp), %rax
	xorq	%fs:40, %rax
	jne	.L368
	addq	$88, %rsp
	.cfi_remember_state
	.cfi_def_cfa_offset 56
	popq	%rbx
	.cfi_def_cfa_offset 48
	popq	%rbp
	.cfi_def_cfa_offset 40
	popq	%r12
	.cfi_def_cfa_offset 32
	popq	%r13
	.cfi_def_cfa_offset 24
	popq	%r14
	.cfi_def_cfa_offset 16
	popq	%r15
	.cfi_def_cfa_offset 8
	ret
	.p2align 4,,10
	.p2align 3
.L295:
	.cfi_restore_state
	movq	40(%rsp), %rdi
	call	pthread_mutex_unlock@PLT
	jmp	.L293
	.p2align 4,,10
	.p2align 3
.L367:
	movq	$0, 104(%rdx)
	jmp	.L304
	.p2align 4,,10
	.p2align 3
.L366:
	movq	32(%rsp), %rax
	leaq	60(%rsp), %rcx
	movl	%r12d, %edx
	movl	$2, %esi
	movl	$0, 60(%rsp)
	movq	$0, 64(%rsp)
	movl	96(%rax), %edi
	call	epoll_ctl@PLT
	movq	0(%rbp), %rdi
	jmp	.L296
	.p2align 4,,10
	.p2align 3
.L312:
	leaq	48(%rbx), %rbp
	movq	%rbp, %rdi
	call	pthread_mutex_lock@PLT
	movq	200(%rbx), %rax
	testq	%rax, %rax
	je	.L319
	movq	24(%rsp), %rsi
	movq	%rsi, (%rax)
.L320:
	movq	136(%rbx), %rax
	movq	%r13, 200(%rbx)
	orq	$1, %rax
	cmpq	$1, %rax
	movq	%rax, 136(%rbx)
	jne	.L369
	cmpb	$0, 176(%rbx)
	jne	.L323
	movq	144(%rbx), %rax
	testq	%rax, %rax
	je	.L323
	leaq	88(%rax), %rdx
	movb	$1, 176(%rbx)
	movl	$-2147483639, 60(%rsp)
	leaq	60(%rsp), %rcx
	movl	$3, %esi
	movq	%rdx, 64(%rsp)
	movl	88(%rax), %edx
	movl	96(%rax), %edi
	call	epoll_ctl@PLT
.L323:
	movq	%rbp, %rdi
	call	pthread_mutex_unlock@PLT
	jmp	.L293
	.p2align 4,,10
	.p2align 3
.L369:
	movq	%rbp, %rdi
	call	pthread_mutex_unlock@PLT
	leaq	88(%rbx), %rdi
	call	pthread_cond_signal@PLT
	jmp	.L293
.L317:
	movq	%rsi, 8(%rax)
	jmp	.L318
.L319:
	movq	24(%rsp), %rax
	movq	%rax, 192(%rbx)
	jmp	.L320
.L368:
	call	__stack_chk_fail@PLT
	.cfi_endproc
.LFE3266:
	.size	_ZN4asio6detail13epoll_reactor21deregister_descriptorEiRPNS1_16descriptor_stateEb, .-_ZN4asio6detail13epoll_reactor21deregister_descriptorEiRPNS1_16descriptor_stateEb
	.section	.text._ZN8asiodnp315MasterTCPServerD0Ev,"axG",@progbits,_ZN8asiodnp315MasterTCPServerD5Ev,comdat
	.align 2
	.p2align 4,,15
	.weak	_ZN8asiodnp315MasterTCPServerD0Ev
	.type	_ZN8asiodnp315MasterTCPServerD0Ev, @function
_ZN8asiodnp315MasterTCPServerD0Ev:
.LFB10912:
	.cfi_startproc
	.cfi_personality 0x9b,DW.ref.__gxx_personality_v0
	.cfi_lsda 0x1b,.LLSDA10912
	pushq	%r14
	.cfi_def_cfa_offset 16
	.cfi_offset 14, -16
	pushq	%r13
	.cfi_def_cfa_offset 24
	.cfi_offset 13, -24
	pushq	%r12
	.cfi_def_cfa_offset 32
	.cfi_offset 12, -32
	pushq	%rbp
	.cfi_def_cfa_offset 40
	.cfi_offset 6, -40
	pushq	%rbx
	.cfi_def_cfa_offset 48
	.cfi_offset 3, -48
	movq	%rdi, %rbx
	subq	$16, %rsp
	.cfi_def_cfa_offset 64
	movq	232(%rdi), %rbp
	movq	%fs:40, %rax
	movq	%rax, 8(%rsp)
	xorl	%eax, %eax
	movq	_ZTVN8asiodnp315MasterTCPServerE@GOTPCREL(%rip), %rax
	addq	$16, %rax
	testq	%rbp, %rbp
	movq	%rax, (%rdi)
	je	.L372
	cmpq	$0, _ZL28__gthrw___pthread_key_createPjPFvPvE@GOTPCREL(%rip)
	je	.L373
	lock subl	$1, 8(%rbp)
	je	.L514
.L372:
	movq	216(%rbx), %rbp
	testq	%rbp, %rbp
	je	.L378
	cmpq	$0, _ZL28__gthrw___pthread_key_createPjPFvPvE@GOTPCREL(%rip)
	je	.L379
	lock subl	$1, 8(%rbp)
	je	.L515
.L378:
	movq	_ZTVN7asiopal9TCPServerE@GOTPCREL(%rip), %rax
	movl	136(%rbx), %esi
	addq	$16, %rax
	cmpl	$-1, %esi
	movq	%rax, (%rbx)
	je	.L383
	movzbl	140(%rbx), %ecx
	movq	160(%rbx), %rax
	leaq	144(%rbx), %rdx
	movq	40(%rax), %rdi
	shrb	$6, %cl
	xorl	$1, %ecx
	andl	$1, %ecx
	call	_ZN4asio6detail13epoll_reactor21deregister_descriptorEiRPNS1_16descriptor_stateEb@PLT
	movl	136(%rbx), %r12d
	cmpl	$-1, %r12d
	je	.L383
	movzbl	140(%rbx), %ebp
	call	__errno_location@PLT
	movq	%rax, %r13
	testb	$8, %bpl
	jne	.L500
	movq	_ZGVZN4asio15system_categoryEvE8instance@GOTPCREL(%rip), %rbp
.L385:
	movl	$0, 0(%r13)
	movl	%r12d, %edi
	call	close@PLT
	movl	%eax, %r14d
	movzbl	0(%rbp), %eax
	testb	%al, %al
	je	.L516
.L390:
	testl	%r14d, %r14d
	jne	.L517
.L383:
	movl	104(%rbx), %esi
	cmpl	$-1, %esi
	je	.L400
	movzbl	108(%rbx), %ecx
	movq	128(%rbx), %rax
	leaq	112(%rbx), %rdx
	movq	40(%rax), %rdi
	shrb	$6, %cl
	xorl	$1, %ecx
	andl	$1, %ecx
	call	_ZN4asio6detail13epoll_reactor21deregister_descriptorEiRPNS1_16descriptor_stateEb@PLT
	movl	104(%rbx), %r12d
	cmpl	$-1, %r12d
	je	.L400
	movzbl	108(%rbx), %ebp
	call	__errno_location@PLT
	movq	%rax, %r13
	testb	$8, %bpl
	jne	.L501
	movq	_ZGVZN4asio15system_categoryEvE8instance@GOTPCREL(%rip), %rbp
.L402:
	movl	$0, 0(%r13)
	movl	%r12d, %edi
	call	close@PLT
	movl	%eax, %r14d
	movzbl	0(%rbp), %eax
	testb	%al, %al
	je	.L518
.L407:
	testl	%r14d, %r14d
	jne	.L519
.L400:
	movq	64(%rbx), %rbp
	testq	%rbp, %rbp
	je	.L418
	cmpq	$0, _ZL28__gthrw___pthread_key_createPjPFvPvE@GOTPCREL(%rip)
	je	.L419
	lock subl	$1, 8(%rbp)
	je	.L520
.L418:
	movq	48(%rbx), %rbp
	testq	%rbp, %rbp
	je	.L424
	cmpq	$0, _ZL28__gthrw___pthread_key_createPjPFvPvE@GOTPCREL(%rip)
	je	.L425
	lock subl	$1, 8(%rbp)
	je	.L521
.L424:
	movq	32(%rbx), %rbp
	testq	%rbp, %rbp
	je	.L430
	cmpq	$0, _ZL28__gthrw___pthread_key_createPjPFvPvE@GOTPCREL(%rip)
	je	.L431
	lock subl	$1, 8(%rbp)
	je	.L522
.L430:
	movq	16(%rbx), %rdi
	testq	%rdi, %rdi
	je	.L436
	cmpq	$0, _ZL28__gthrw___pthread_key_createPjPFvPvE@GOTPCREL(%rip)
	je	.L437
	movl	$-1, %eax
	lock xaddl	%eax, 12(%rdi)
	cmpl	$1, %eax
	je	.L523
.L436:
	movl	$240, %esi
	movq	%rbx, %rdi
	call	_ZdlPvm@PLT
	movq	8(%rsp), %rax
	xorq	%fs:40, %rax
	jne	.L524
	addq	$16, %rsp
	.cfi_remember_state
	.cfi_def_cfa_offset 48
	popq	%rbx
	.cfi_def_cfa_offset 40
	popq	%rbp
	.cfi_def_cfa_offset 32
	popq	%r12
	.cfi_def_cfa_offset 24
	popq	%r13
	.cfi_def_cfa_offset 16
	popq	%r14
	.cfi_def_cfa_offset 8
	ret
	.p2align 4,,10
	.p2align 3
.L437:
	.cfi_restore_state
	movl	12(%rdi), %eax
	leal	-1(%rax), %edx
	cmpl	$1, %eax
	movl	%edx, 12(%rdi)
	jne	.L436
.L523:
	movq	(%rdi), %rax
	call	*24(%rax)
	jmp	.L436
	.p2align 4,,10
	.p2align 3
.L431:
	movl	8(%rbp), %eax
	leal	-1(%rax), %edx
	cmpl	$1, %eax
	movl	%edx, 8(%rbp)
	jne	.L430
	movq	0(%rbp), %rax
	movq	%rbp, %rdi
	call	*16(%rax)
	movl	12(%rbp), %eax
	leal	-1(%rax), %edx
	movl	%edx, 12(%rbp)
	jmp	.L446
	.p2align 4,,10
	.p2align 3
.L379:
	movl	8(%rbp), %eax
	leal	-1(%rax), %edx
	cmpl	$1, %eax
	movl	%edx, 8(%rbp)
	jne	.L378
	movq	0(%rbp), %rax
	movq	%rbp, %rdi
	call	*16(%rax)
	movl	12(%rbp), %eax
	leal	-1(%rax), %edx
	movl	%edx, 12(%rbp)
	jmp	.L441
	.p2align 4,,10
	.p2align 3
.L419:
	movl	8(%rbp), %eax
	leal	-1(%rax), %edx
	cmpl	$1, %eax
	movl	%edx, 8(%rbp)
	jne	.L418
	movq	0(%rbp), %rax
	movq	%rbp, %rdi
	call	*16(%rax)
	movl	12(%rbp), %eax
	leal	-1(%rax), %edx
	movl	%edx, 12(%rbp)
	jmp	.L444
	.p2align 4,,10
	.p2align 3
.L373:
	movl	8(%rbp), %eax
	leal	-1(%rax), %edx
	cmpl	$1, %eax
	movl	%edx, 8(%rbp)
	jne	.L372
	movq	0(%rbp), %rax
	movq	%rbp, %rdi
	call	*16(%rax)
	movl	12(%rbp), %eax
	leal	-1(%rax), %edx
	movl	%edx, 12(%rbp)
	jmp	.L440
	.p2align 4,,10
	.p2align 3
.L425:
	movl	8(%rbp), %eax
	leal	-1(%rax), %edx
	cmpl	$1, %eax
	movl	%edx, 8(%rbp)
	jne	.L424
	movq	0(%rbp), %rax
	movq	%rbp, %rdi
	call	*16(%rax)
	movl	12(%rbp), %eax
	leal	-1(%rax), %edx
	movl	%edx, 12(%rbp)
	jmp	.L445
	.p2align 4,,10
	.p2align 3
.L517:
	movl	0(%r13), %r14d
	movzbl	0(%rbp), %eax
	testb	%al, %al
	je	.L525
.L393:
	cmpl	$11, %r14d
	je	.L395
.L511:
	movzbl	0(%rbp), %eax
	testb	%al, %al
	jne	.L383
	movq	%rbp, %rdi
	call	__cxa_guard_acquire@PLT
	testl	%eax, %eax
	je	.L383
	movq	%rbp, %rdi
	call	__cxa_guard_release@PLT
	movq	_ZZN4asio15system_categoryEvE8instance@GOTPCREL(%rip), %rsi
	movq	_ZN4asio6detail15system_categoryD1Ev@GOTPCREL(%rip), %rdi
	leaq	__dso_handle(%rip), %rdx
	call	__cxa_atexit@PLT
	jmp	.L383
	.p2align 4,,10
	.p2align 3
.L519:
	movl	0(%r13), %r14d
	movzbl	0(%rbp), %eax
	testb	%al, %al
	je	.L526
.L410:
	cmpl	$11, %r14d
	je	.L412
.L513:
	movzbl	0(%rbp), %eax
	testb	%al, %al
	jne	.L400
	movq	%rbp, %rdi
	call	__cxa_guard_acquire@PLT
	testl	%eax, %eax
	je	.L400
	movq	%rbp, %rdi
	call	__cxa_guard_release@PLT
	movq	_ZZN4asio15system_categoryEvE8instance@GOTPCREL(%rip), %rsi
	movq	_ZN4asio6detail15system_categoryD1Ev@GOTPCREL(%rip), %rdi
	leaq	__dso_handle(%rip), %rdx
	call	__cxa_atexit@PLT
	jmp	.L400
	.p2align 4,,10
	.p2align 3
.L515:
	movq	0(%rbp), %rax
	movq	%rbp, %rdi
	call	*16(%rax)
	movl	$-1, %eax
	lock xaddl	%eax, 12(%rbp)
.L441:
	cmpl	$1, %eax
	jne	.L378
	movq	0(%rbp), %rax
	movq	%rbp, %rdi
	call	*24(%rax)
	jmp	.L378
	.p2align 4,,10
	.p2align 3
.L522:
	movq	0(%rbp), %rax
	movq	%rbp, %rdi
	call	*16(%rax)
	movl	$-1, %eax
	lock xaddl	%eax, 12(%rbp)
.L446:
	cmpl	$1, %eax
	jne	.L430
	movq	0(%rbp), %rax
	movq	%rbp, %rdi
	call	*24(%rax)
	jmp	.L430
	.p2align 4,,10
	.p2align 3
.L514:
	movq	0(%rbp), %rax
	movq	%rbp, %rdi
	call	*16(%rax)
	movl	$-1, %eax
	lock xaddl	%eax, 12(%rbp)
.L440:
	cmpl	$1, %eax
	jne	.L372
	movq	0(%rbp), %rax
	movq	%rbp, %rdi
	call	*24(%rax)
	jmp	.L372
	.p2align 4,,10
	.p2align 3
.L520:
	movq	0(%rbp), %rax
	movq	%rbp, %rdi
	call	*16(%rax)
	movl	$-1, %eax
	lock xaddl	%eax, 12(%rbp)
.L444:
	cmpl	$1, %eax
	jne	.L418
	movq	0(%rbp), %rax
	movq	%rbp, %rdi
	call	*24(%rax)
	jmp	.L418
	.p2align 4,,10
	.p2align 3
.L521:
	movq	0(%rbp), %rax
	movq	%rbp, %rdi
	call	*16(%rax)
	movl	$-1, %eax
	lock xaddl	%eax, 12(%rbp)
.L445:
	cmpl	$1, %eax
	jne	.L424
	movq	0(%rbp), %rax
	movq	%rbp, %rdi
	call	*24(%rax)
	jmp	.L424
	.p2align 4,,10
	.p2align 3
.L516:
	movq	%rbp, %rdi
	call	__cxa_guard_acquire@PLT
	testl	%eax, %eax
	je	.L390
	movq	%rbp, %rdi
	call	__cxa_guard_release@PLT
	movq	_ZZN4asio15system_categoryEvE8instance@GOTPCREL(%rip), %rsi
	movq	_ZN4asio6detail15system_categoryD1Ev@GOTPCREL(%rip), %rdi
	leaq	__dso_handle(%rip), %rdx
	call	__cxa_atexit@PLT
	jmp	.L390
	.p2align 4,,10
	.p2align 3
.L518:
	movq	%rbp, %rdi
	call	__cxa_guard_acquire@PLT
	testl	%eax, %eax
	je	.L407
	movq	%rbp, %rdi
	call	__cxa_guard_release@PLT
	movq	_ZZN4asio15system_categoryEvE8instance@GOTPCREL(%rip), %rsi
	movq	_ZN4asio6detail15system_categoryD1Ev@GOTPCREL(%rip), %rdi
	leaq	__dso_handle(%rip), %rdx
	call	__cxa_atexit@PLT
	jmp	.L407
	.p2align 4,,10
	.p2align 3
.L501:
	orl	$8, %ebp
	movq	%rsp, %rcx
	movl	$8, %r8d
	movb	%bpl, 108(%rbx)
	movl	$13, %edx
	movl	$0, (%rax)
	movl	$1, %esi
	movl	%r12d, %edi
	movq	$0, (%rsp)
	call	setsockopt@PLT
	movq	_ZGVZN4asio15system_categoryEvE8instance@GOTPCREL(%rip), %rbp
	movzbl	0(%rbp), %eax
	testb	%al, %al
	jne	.L402
	movq	%rbp, %rdi
	call	__cxa_guard_acquire@PLT
	testl	%eax, %eax
	je	.L402
	movq	%rbp, %rdi
	call	__cxa_guard_release@PLT
	movq	_ZZN4asio15system_categoryEvE8instance@GOTPCREL(%rip), %rsi
	movq	_ZN4asio6detail15system_categoryD1Ev@GOTPCREL(%rip), %rdi
	leaq	__dso_handle(%rip), %rdx
	call	__cxa_atexit@PLT
	jmp	.L402
	.p2align 4,,10
	.p2align 3
.L500:
	orl	$8, %ebp
	movq	%rsp, %rcx
	movl	$8, %r8d
	movb	%bpl, 140(%rbx)
	movl	$13, %edx
	movl	$0, (%rax)
	movl	$1, %esi
	movl	%r12d, %edi
	movq	$0, (%rsp)
	call	setsockopt@PLT
	movq	_ZGVZN4asio15system_categoryEvE8instance@GOTPCREL(%rip), %rbp
	movzbl	0(%rbp), %eax
	testb	%al, %al
	jne	.L385
	movq	%rbp, %rdi
	call	__cxa_guard_acquire@PLT
	testl	%eax, %eax
	je	.L385
	movq	%rbp, %rdi
	call	__cxa_guard_release@PLT
	movq	_ZZN4asio15system_categoryEvE8instance@GOTPCREL(%rip), %rsi
	movq	_ZN4asio6detail15system_categoryD1Ev@GOTPCREL(%rip), %rdi
	leaq	__dso_handle(%rip), %rdx
	call	__cxa_atexit@PLT
	jmp	.L385
	.p2align 4,,10
	.p2align 3
.L526:
	movq	%rbp, %rdi
	call	__cxa_guard_acquire@PLT
	testl	%eax, %eax
	je	.L410
	movq	%rbp, %rdi
	call	__cxa_guard_release@PLT
	movq	_ZZN4asio15system_categoryEvE8instance@GOTPCREL(%rip), %rsi
	movq	_ZN4asio6detail15system_categoryD1Ev@GOTPCREL(%rip), %rdi
	leaq	__dso_handle(%rip), %rdx
	call	__cxa_atexit@PLT
	jmp	.L410
	.p2align 4,,10
	.p2align 3
.L525:
	movq	%rbp, %rdi
	call	__cxa_guard_acquire@PLT
	testl	%eax, %eax
	je	.L393
	movq	%rbp, %rdi
	call	__cxa_guard_release@PLT
	movq	_ZZN4asio15system_categoryEvE8instance@GOTPCREL(%rip), %rsi
	movq	_ZN4asio6detail15system_categoryD1Ev@GOTPCREL(%rip), %rdi
	leaq	__dso_handle(%rip), %rdx
	call	__cxa_atexit@PLT
	jmp	.L393
	.p2align 4,,10
	.p2align 3
.L395:
	movl	%r12d, %edi
	movq	%rsp, %rdx
	movl	$21537, %esi
	xorl	%eax, %eax
	movl	$0, (%rsp)
	call	ioctl@PLT
	andb	$-4, 140(%rbx)
	movl	%r12d, %edi
	movl	$0, 0(%r13)
	call	close@PLT
	jmp	.L511
	.p2align 4,,10
	.p2align 3
.L412:
	movl	%r12d, %edi
	movq	%rsp, %rdx
	movl	$21537, %esi
	xorl	%eax, %eax
	movl	$0, (%rsp)
	call	ioctl@PLT
	andb	$-4, 108(%rbx)
	movl	%r12d, %edi
	movl	$0, 0(%r13)
	call	close@PLT
	jmp	.L513
.L524:
	call	__stack_chk_fail@PLT
	.cfi_endproc
.LFE10912:
	.section	.gcc_except_table._ZN8asiodnp315MasterTCPServerD0Ev,"aG",@progbits,_ZN8asiodnp315MasterTCPServerD5Ev,comdat
.LLSDA10912:
	.byte	0xff
	.byte	0xff
	.byte	0x1
	.uleb128 .LLSDACSE10912-.LLSDACSB10912
.LLSDACSB10912:
.LLSDACSE10912:
	.section	.text._ZN8asiodnp315MasterTCPServerD0Ev,"axG",@progbits,_ZN8asiodnp315MasterTCPServerD5Ev,comdat
	.size	_ZN8asiodnp315MasterTCPServerD0Ev, .-_ZN8asiodnp315MasterTCPServerD0Ev
	.section	.text._ZNSt23_Sp_counted_ptr_inplaceIN7asiopal13SocketChannelESaIS1_ELN9__gnu_cxx12_Lock_policyE2EE10_M_disposeEv,"axG",@progbits,_ZNSt23_Sp_counted_ptr_inplaceIN7asiopal13SocketChannelESaIS1_ELN9__gnu_cxx12_Lock_policyE2EE10_M_disposeEv,comdat
	.align 2
	.p2align 4,,15
	.weak	_ZNSt23_Sp_counted_ptr_inplaceIN7asiopal13SocketChannelESaIS1_ELN9__gnu_cxx12_Lock_policyE2EE10_M_disposeEv
	.type	_ZNSt23_Sp_counted_ptr_inplaceIN7asiopal13SocketChannelESaIS1_ELN9__gnu_cxx12_Lock_policyE2EE10_M_disposeEv, @function
_ZNSt23_Sp_counted_ptr_inplaceIN7asiopal13SocketChannelESaIS1_ELN9__gnu_cxx12_Lock_policyE2EE10_M_disposeEv:
.LFB11001:
	.cfi_startproc
	.cfi_personality 0x9b,DW.ref.__gxx_personality_v0
	.cfi_lsda 0x1b,.LLSDA11001
	pushq	%r14
	.cfi_def_cfa_offset 16
	.cfi_offset 14, -16
	pushq	%r13
	.cfi_def_cfa_offset 24
	.cfi_offset 13, -24
	pushq	%r12
	.cfi_def_cfa_offset 32
	.cfi_offset 12, -32
	pushq	%rbp
	.cfi_def_cfa_offset 40
	.cfi_offset 6, -40
	pushq	%rbx
	.cfi_def_cfa_offset 48
	.cfi_offset 3, -48
	movq	%rdi, %rbx
	subq	$16, %rsp
	.cfi_def_cfa_offset 64
	movl	80(%rdi), %esi
	movq	%fs:40, %rax
	movq	%rax, 8(%rsp)
	xorl	%eax, %eax
	movq	_ZTVN7asiopal13SocketChannelE@GOTPCREL(%rip), %rax
	addq	$16, %rax
	cmpl	$-1, %esi
	movq	%rax, 16(%rdi)
	je	.L528
	movzbl	84(%rdi), %ecx
	movq	104(%rdi), %rax
	leaq	88(%rdi), %rdx
	movq	40(%rax), %rdi
	shrb	$6, %cl
	xorl	$1, %ecx
	andl	$1, %ecx
	call	_ZN4asio6detail13epoll_reactor21deregister_descriptorEiRPNS1_16descriptor_stateEb@PLT
	movl	80(%rbx), %ebp
	cmpl	$-1, %ebp
	je	.L528
	movzbl	84(%rbx), %r12d
	call	__errno_location@PLT
	movq	%rax, %r13
	testb	$8, %r12b
	jne	.L592
	movq	_ZGVZN4asio15system_categoryEvE8instance@GOTPCREL(%rip), %r12
.L530:
	movl	$0, 0(%r13)
	movl	%ebp, %edi
	call	close@PLT
	movl	%eax, %r14d
	movzbl	(%r12), %eax
	testb	%al, %al
	je	.L599
.L535:
	testl	%r14d, %r14d
	jne	.L600
.L528:
	movq	_ZTVN7asiopal13IAsyncChannelE@GOTPCREL(%rip), %rax
	movq	64(%rbx), %rbp
	addq	$16, %rax
	testq	%rbp, %rbp
	movq	%rax, 16(%rbx)
	je	.L546
	cmpq	$0, _ZL28__gthrw___pthread_key_createPjPFvPvE@GOTPCREL(%rip)
	je	.L547
	lock subl	$1, 8(%rbp)
	je	.L601
.L546:
	movq	48(%rbx), %rbp
	testq	%rbp, %rbp
	je	.L552
	cmpq	$0, _ZL28__gthrw___pthread_key_createPjPFvPvE@GOTPCREL(%rip)
	je	.L553
	lock subl	$1, 8(%rbp)
	je	.L602
.L552:
	movq	32(%rbx), %rdi
	testq	%rdi, %rdi
	je	.L527
	cmpq	$0, _ZL28__gthrw___pthread_key_createPjPFvPvE@GOTPCREL(%rip)
	je	.L559
	movl	$-1, %eax
	lock xaddl	%eax, 12(%rdi)
	cmpl	$1, %eax
	je	.L603
.L527:
	movq	8(%rsp), %rax
	xorq	%fs:40, %rax
	jne	.L604
	addq	$16, %rsp
	.cfi_remember_state
	.cfi_def_cfa_offset 48
	popq	%rbx
	.cfi_def_cfa_offset 40
	popq	%rbp
	.cfi_def_cfa_offset 32
	popq	%r12
	.cfi_def_cfa_offset 24
	popq	%r13
	.cfi_def_cfa_offset 16
	popq	%r14
	.cfi_def_cfa_offset 8
	ret
	.p2align 4,,10
	.p2align 3
.L559:
	.cfi_restore_state
	movl	12(%rdi), %eax
	leal	-1(%rax), %edx
	cmpl	$1, %eax
	movl	%edx, 12(%rdi)
	jne	.L527
.L603:
	movq	(%rdi), %rax
	call	*24(%rax)
	jmp	.L527
	.p2align 4,,10
	.p2align 3
.L553:
	movl	8(%rbp), %eax
	leal	-1(%rax), %edx
	cmpl	$1, %eax
	movl	%edx, 8(%rbp)
	jne	.L552
	movq	0(%rbp), %rax
	movq	%rbp, %rdi
	call	*16(%rax)
	movl	12(%rbp), %eax
	leal	-1(%rax), %edx
	movl	%edx, 12(%rbp)
	jmp	.L564
	.p2align 4,,10
	.p2align 3
.L547:
	movl	8(%rbp), %eax
	leal	-1(%rax), %edx
	cmpl	$1, %eax
	movl	%edx, 8(%rbp)
	jne	.L546
	movq	0(%rbp), %rax
	movq	%rbp, %rdi
	call	*16(%rax)
	movl	12(%rbp), %eax
	leal	-1(%rax), %edx
	movl	%edx, 12(%rbp)
	jmp	.L563
	.p2align 4,,10
	.p2align 3
.L600:
	movl	0(%r13), %r14d
	movzbl	(%r12), %eax
	testb	%al, %al
	je	.L605
.L538:
	cmpl	$11, %r14d
	je	.L540
.L598:
	movzbl	(%r12), %eax
	testb	%al, %al
	jne	.L528
	movq	%r12, %rdi
	call	__cxa_guard_acquire@PLT
	testl	%eax, %eax
	je	.L528
	movq	%r12, %rdi
	call	__cxa_guard_release@PLT
	movq	_ZZN4asio15system_categoryEvE8instance@GOTPCREL(%rip), %rsi
	movq	_ZN4asio6detail15system_categoryD1Ev@GOTPCREL(%rip), %rdi
	leaq	__dso_handle(%rip), %rdx
	call	__cxa_atexit@PLT
	jmp	.L528
	.p2align 4,,10
	.p2align 3
.L601:
	movq	0(%rbp), %rax
	movq	%rbp, %rdi
	call	*16(%rax)
	movl	$-1, %eax
	lock xaddl	%eax, 12(%rbp)
.L563:
	cmpl	$1, %eax
	jne	.L546
	movq	0(%rbp), %rax
	movq	%rbp, %rdi
	call	*24(%rax)
	jmp	.L546
	.p2align 4,,10
	.p2align 3
.L602:
	movq	0(%rbp), %rax
	movq	%rbp, %rdi
	call	*16(%rax)
	movl	$-1, %eax
	lock xaddl	%eax, 12(%rbp)
.L564:
	cmpl	$1, %eax
	jne	.L552
	movq	0(%rbp), %rax
	movq	%rbp, %rdi
	call	*24(%rax)
	jmp	.L552
	.p2align 4,,10
	.p2align 3
.L599:
	movq	%r12, %rdi
	call	__cxa_guard_acquire@PLT
	testl	%eax, %eax
	je	.L535
	movq	%r12, %rdi
	call	__cxa_guard_release@PLT
	movq	_ZZN4asio15system_categoryEvE8instance@GOTPCREL(%rip), %rsi
	movq	_ZN4asio6detail15system_categoryD1Ev@GOTPCREL(%rip), %rdi
	leaq	__dso_handle(%rip), %rdx
	call	__cxa_atexit@PLT
	jmp	.L535
	.p2align 4,,10
	.p2align 3
.L592:
	orl	$8, %r12d
	movq	%rsp, %rcx
	movl	$8, %r8d
	movb	%r12b, 84(%rbx)
	movl	$13, %edx
	movl	$0, (%rax)
	movl	$1, %esi
	movl	%ebp, %edi
	movq	$0, (%rsp)
	call	setsockopt@PLT
	movq	_ZGVZN4asio15system_categoryEvE8instance@GOTPCREL(%rip), %r12
	movzbl	(%r12), %eax
	testb	%al, %al
	jne	.L530
	movq	%r12, %rdi
	call	__cxa_guard_acquire@PLT
	testl	%eax, %eax
	je	.L530
	movq	%r12, %rdi
	call	__cxa_guard_release@PLT
	movq	_ZZN4asio15system_categoryEvE8instance@GOTPCREL(%rip), %rsi
	movq	_ZN4asio6detail15system_categoryD1Ev@GOTPCREL(%rip), %rdi
	leaq	__dso_handle(%rip), %rdx
	call	__cxa_atexit@PLT
	jmp	.L530
	.p2align 4,,10
	.p2align 3
.L605:
	movq	%r12, %rdi
	call	__cxa_guard_acquire@PLT
	testl	%eax, %eax
	je	.L538
	movq	%r12, %rdi
	call	__cxa_guard_release@PLT
	movq	_ZZN4asio15system_categoryEvE8instance@GOTPCREL(%rip), %rsi
	movq	_ZN4asio6detail15system_categoryD1Ev@GOTPCREL(%rip), %rdi
	leaq	__dso_handle(%rip), %rdx
	call	__cxa_atexit@PLT
	jmp	.L538
	.p2align 4,,10
	.p2align 3
.L540:
	movl	%ebp, %edi
	movq	%rsp, %rdx
	movl	$21537, %esi
	xorl	%eax, %eax
	movl	$0, (%rsp)
	call	ioctl@PLT
	andb	$-4, 84(%rbx)
	movl	%ebp, %edi
	movl	$0, 0(%r13)
	call	close@PLT
	jmp	.L598
.L604:
	call	__stack_chk_fail@PLT
	.cfi_endproc
.LFE11001:
	.section	.gcc_except_table._ZNSt23_Sp_counted_ptr_inplaceIN7asiopal13SocketChannelESaIS1_ELN9__gnu_cxx12_Lock_policyE2EE10_M_disposeEv,"aG",@progbits,_ZNSt23_Sp_counted_ptr_inplaceIN7asiopal13SocketChannelESaIS1_ELN9__gnu_cxx12_Lock_policyE2EE10_M_disposeEv,comdat
.LLSDA11001:
	.byte	0xff
	.byte	0xff
	.byte	0x1
	.uleb128 .LLSDACSE11001-.LLSDACSB11001
.LLSDACSB11001:
.LLSDACSE11001:
	.section	.text._ZNSt23_Sp_counted_ptr_inplaceIN7asiopal13SocketChannelESaIS1_ELN9__gnu_cxx12_Lock_policyE2EE10_M_disposeEv,"axG",@progbits,_ZNSt23_Sp_counted_ptr_inplaceIN7asiopal13SocketChannelESaIS1_ELN9__gnu_cxx12_Lock_policyE2EE10_M_disposeEv,comdat
	.size	_ZNSt23_Sp_counted_ptr_inplaceIN7asiopal13SocketChannelESaIS1_ELN9__gnu_cxx12_Lock_policyE2EE10_M_disposeEv, .-_ZNSt23_Sp_counted_ptr_inplaceIN7asiopal13SocketChannelESaIS1_ELN9__gnu_cxx12_Lock_policyE2EE10_M_disposeEv
	.section	.text._ZN8asiodnp315MasterTCPServerD2Ev,"axG",@progbits,_ZN8asiodnp315MasterTCPServerD5Ev,comdat
	.align 2
	.p2align 4,,15
	.weak	_ZN8asiodnp315MasterTCPServerD2Ev
	.type	_ZN8asiodnp315MasterTCPServerD2Ev, @function
_ZN8asiodnp315MasterTCPServerD2Ev:
.LFB10910:
	.cfi_startproc
	.cfi_personality 0x9b,DW.ref.__gxx_personality_v0
	.cfi_lsda 0x1b,.LLSDA10910
	pushq	%r14
	.cfi_def_cfa_offset 16
	.cfi_offset 14, -16
	pushq	%r13
	.cfi_def_cfa_offset 24
	.cfi_offset 13, -24
	pushq	%r12
	.cfi_def_cfa_offset 32
	.cfi_offset 12, -32
	pushq	%rbp
	.cfi_def_cfa_offset 40
	.cfi_offset 6, -40
	pushq	%rbx
	.cfi_def_cfa_offset 48
	.cfi_offset 3, -48
	movq	%rdi, %rbx
	subq	$16, %rsp
	.cfi_def_cfa_offset 64
	movq	232(%rdi), %rbp
	movq	%fs:40, %rax
	movq	%rax, 8(%rsp)
	xorl	%eax, %eax
	movq	_ZTVN8asiodnp315MasterTCPServerE@GOTPCREL(%rip), %rax
	addq	$16, %rax
	testq	%rbp, %rbp
	movq	%rax, (%rdi)
	je	.L608
	cmpq	$0, _ZL28__gthrw___pthread_key_createPjPFvPvE@GOTPCREL(%rip)
	je	.L609
	lock subl	$1, 8(%rbp)
	je	.L749
.L608:
	movq	216(%rbx), %rbp
	testq	%rbp, %rbp
	je	.L614
	cmpq	$0, _ZL28__gthrw___pthread_key_createPjPFvPvE@GOTPCREL(%rip)
	je	.L615
	lock subl	$1, 8(%rbp)
	je	.L750
.L614:
	movq	_ZTVN7asiopal9TCPServerE@GOTPCREL(%rip), %rax
	movl	136(%rbx), %esi
	addq	$16, %rax
	cmpl	$-1, %esi
	movq	%rax, (%rbx)
	je	.L619
	movzbl	140(%rbx), %ecx
	movq	160(%rbx), %rax
	leaq	144(%rbx), %rdx
	movq	40(%rax), %rdi
	shrb	$6, %cl
	xorl	$1, %ecx
	andl	$1, %ecx
	call	_ZN4asio6detail13epoll_reactor21deregister_descriptorEiRPNS1_16descriptor_stateEb@PLT
	movl	136(%rbx), %r12d
	cmpl	$-1, %r12d
	je	.L619
	movzbl	140(%rbx), %ebp
	call	__errno_location@PLT
	movq	%rax, %r13
	testb	$8, %bpl
	jne	.L736
	movq	_ZGVZN4asio15system_categoryEvE8instance@GOTPCREL(%rip), %rbp
.L621:
	movl	$0, 0(%r13)
	movl	%r12d, %edi
	call	close@PLT
	movl	%eax, %r14d
	movzbl	0(%rbp), %eax
	testb	%al, %al
	je	.L751
.L626:
	testl	%r14d, %r14d
	jne	.L752
.L619:
	movl	104(%rbx), %esi
	cmpl	$-1, %esi
	je	.L636
	movzbl	108(%rbx), %ecx
	movq	128(%rbx), %rax
	leaq	112(%rbx), %rdx
	movq	40(%rax), %rdi
	shrb	$6, %cl
	xorl	$1, %ecx
	andl	$1, %ecx
	call	_ZN4asio6detail13epoll_reactor21deregister_descriptorEiRPNS1_16descriptor_stateEb@PLT
	movl	104(%rbx), %r12d
	cmpl	$-1, %r12d
	je	.L636
	movzbl	108(%rbx), %ebp
	call	__errno_location@PLT
	movq	%rax, %r13
	testb	$8, %bpl
	jne	.L737
	movq	_ZGVZN4asio15system_categoryEvE8instance@GOTPCREL(%rip), %rbp
.L638:
	movl	$0, 0(%r13)
	movl	%r12d, %edi
	call	close@PLT
	movl	%eax, %r14d
	movzbl	0(%rbp), %eax
	testb	%al, %al
	je	.L753
.L643:
	testl	%r14d, %r14d
	jne	.L754
.L636:
	movq	64(%rbx), %rbp
	testq	%rbp, %rbp
	je	.L654
	cmpq	$0, _ZL28__gthrw___pthread_key_createPjPFvPvE@GOTPCREL(%rip)
	je	.L655
	lock subl	$1, 8(%rbp)
	je	.L755
.L654:
	movq	48(%rbx), %rbp
	testq	%rbp, %rbp
	je	.L660
	cmpq	$0, _ZL28__gthrw___pthread_key_createPjPFvPvE@GOTPCREL(%rip)
	je	.L661
	lock subl	$1, 8(%rbp)
	je	.L756
.L660:
	movq	32(%rbx), %rbp
	testq	%rbp, %rbp
	je	.L666
	cmpq	$0, _ZL28__gthrw___pthread_key_createPjPFvPvE@GOTPCREL(%rip)
	je	.L667
	lock subl	$1, 8(%rbp)
	je	.L757
.L666:
	movq	16(%rbx), %rdi
	testq	%rdi, %rdi
	je	.L606
	cmpq	$0, _ZL28__gthrw___pthread_key_createPjPFvPvE@GOTPCREL(%rip)
	je	.L673
	movl	$-1, %eax
	lock xaddl	%eax, 12(%rdi)
	cmpl	$1, %eax
	je	.L758
.L606:
	movq	8(%rsp), %rax
	xorq	%fs:40, %rax
	jne	.L759
	addq	$16, %rsp
	.cfi_remember_state
	.cfi_def_cfa_offset 48
	popq	%rbx
	.cfi_def_cfa_offset 40
	popq	%rbp
	.cfi_def_cfa_offset 32
	popq	%r12
	.cfi_def_cfa_offset 24
	popq	%r13
	.cfi_def_cfa_offset 16
	popq	%r14
	.cfi_def_cfa_offset 8
	ret
	.p2align 4,,10
	.p2align 3
.L673:
	.cfi_restore_state
	movl	12(%rdi), %eax
	leal	-1(%rax), %edx
	cmpl	$1, %eax
	movl	%edx, 12(%rdi)
	jne	.L606
.L758:
	movq	(%rdi), %rax
	call	*24(%rax)
	jmp	.L606
	.p2align 4,,10
	.p2align 3
.L667:
	movl	8(%rbp), %eax
	leal	-1(%rax), %edx
	cmpl	$1, %eax
	movl	%edx, 8(%rbp)
	jne	.L666
	movq	0(%rbp), %rax
	movq	%rbp, %rdi
	call	*16(%rax)
	movl	12(%rbp), %eax
	leal	-1(%rax), %edx
	movl	%edx, 12(%rbp)
	jmp	.L682
	.p2align 4,,10
	.p2align 3
.L615:
	movl	8(%rbp), %eax
	leal	-1(%rax), %edx
	cmpl	$1, %eax
	movl	%edx, 8(%rbp)
	jne	.L614
	movq	0(%rbp), %rax
	movq	%rbp, %rdi
	call	*16(%rax)
	movl	12(%rbp), %eax
	leal	-1(%rax), %edx
	movl	%edx, 12(%rbp)
	jmp	.L677
	.p2align 4,,10
	.p2align 3
.L655:
	movl	8(%rbp), %eax
	leal	-1(%rax), %edx
	cmpl	$1, %eax
	movl	%edx, 8(%rbp)
	jne	.L654
	movq	0(%rbp), %rax
	movq	%rbp, %rdi
	call	*16(%rax)
	movl	12(%rbp), %eax
	leal	-1(%rax), %edx
	movl	%edx, 12(%rbp)
	jmp	.L680
	.p2align 4,,10
	.p2align 3
.L609:
	movl	8(%rbp), %eax
	leal	-1(%rax), %edx
	cmpl	$1, %eax
	movl	%edx, 8(%rbp)
	jne	.L608
	movq	0(%rbp), %rax
	movq	%rbp, %rdi
	call	*16(%rax)
	movl	12(%rbp), %eax
	leal	-1(%rax), %edx
	movl	%edx, 12(%rbp)
	jmp	.L676
	.p2align 4,,10
	.p2align 3
.L661:
	movl	8(%rbp), %eax
	leal	-1(%rax), %edx
	cmpl	$1, %eax
	movl	%edx, 8(%rbp)
	jne	.L660
	movq	0(%rbp), %rax
	movq	%rbp, %rdi
	call	*16(%rax)
	movl	12(%rbp), %eax
	leal	-1(%rax), %edx
	movl	%edx, 12(%rbp)
	jmp	.L681
	.p2align 4,,10
	.p2align 3
.L752:
	movl	0(%r13), %r14d
	movzbl	0(%rbp), %eax
	testb	%al, %al
	je	.L760
.L629:
	cmpl	$11, %r14d
	je	.L631
.L746:
	movzbl	0(%rbp), %eax
	testb	%al, %al
	jne	.L619
	movq	%rbp, %rdi
	call	__cxa_guard_acquire@PLT
	testl	%eax, %eax
	je	.L619
	movq	%rbp, %rdi
	call	__cxa_guard_release@PLT
	movq	_ZZN4asio15system_categoryEvE8instance@GOTPCREL(%rip), %rsi
	movq	_ZN4asio6detail15system_categoryD1Ev@GOTPCREL(%rip), %rdi
	leaq	__dso_handle(%rip), %rdx
	call	__cxa_atexit@PLT
	jmp	.L619
	.p2align 4,,10
	.p2align 3
.L754:
	movl	0(%r13), %r14d
	movzbl	0(%rbp), %eax
	testb	%al, %al
	je	.L761
.L646:
	cmpl	$11, %r14d
	je	.L648
.L748:
	movzbl	0(%rbp), %eax
	testb	%al, %al
	jne	.L636
	movq	%rbp, %rdi
	call	__cxa_guard_acquire@PLT
	testl	%eax, %eax
	je	.L636
	movq	%rbp, %rdi
	call	__cxa_guard_release@PLT
	movq	_ZZN4asio15system_categoryEvE8instance@GOTPCREL(%rip), %rsi
	movq	_ZN4asio6detail15system_categoryD1Ev@GOTPCREL(%rip), %rdi
	leaq	__dso_handle(%rip), %rdx
	call	__cxa_atexit@PLT
	jmp	.L636
	.p2align 4,,10
	.p2align 3
.L750:
	movq	0(%rbp), %rax
	movq	%rbp, %rdi
	call	*16(%rax)
	movl	$-1, %eax
	lock xaddl	%eax, 12(%rbp)
.L677:
	cmpl	$1, %eax
	jne	.L614
	movq	0(%rbp), %rax
	movq	%rbp, %rdi
	call	*24(%rax)
	jmp	.L614
	.p2align 4,,10
	.p2align 3
.L757:
	movq	0(%rbp), %rax
	movq	%rbp, %rdi
	call	*16(%rax)
	movl	$-1, %eax
	lock xaddl	%eax, 12(%rbp)
.L682:
	cmpl	$1, %eax
	jne	.L666
	movq	0(%rbp), %rax
	movq	%rbp, %rdi
	call	*24(%rax)
	jmp	.L666
	.p2align 4,,10
	.p2align 3
.L749:
	movq	0(%rbp), %rax
	movq	%rbp, %rdi
	call	*16(%rax)
	movl	$-1, %eax
	lock xaddl	%eax, 12(%rbp)
.L676:
	cmpl	$1, %eax
	jne	.L608
	movq	0(%rbp), %rax
	movq	%rbp, %rdi
	call	*24(%rax)
	jmp	.L608
	.p2align 4,,10
	.p2align 3
.L755:
	movq	0(%rbp), %rax
	movq	%rbp, %rdi
	call	*16(%rax)
	movl	$-1, %eax
	lock xaddl	%eax, 12(%rbp)
.L680:
	cmpl	$1, %eax
	jne	.L654
	movq	0(%rbp), %rax
	movq	%rbp, %rdi
	call	*24(%rax)
	jmp	.L654
	.p2align 4,,10
	.p2align 3
.L756:
	movq	0(%rbp), %rax
	movq	%rbp, %rdi
	call	*16(%rax)
	movl	$-1, %eax
	lock xaddl	%eax, 12(%rbp)
.L681:
	cmpl	$1, %eax
	jne	.L660
	movq	0(%rbp), %rax
	movq	%rbp, %rdi
	call	*24(%rax)
	jmp	.L660
	.p2align 4,,10
	.p2align 3
.L751:
	movq	%rbp, %rdi
	call	__cxa_guard_acquire@PLT
	testl	%eax, %eax
	je	.L626
	movq	%rbp, %rdi
	call	__cxa_guard_release@PLT
	movq	_ZZN4asio15system_categoryEvE8instance@GOTPCREL(%rip), %rsi
	movq	_ZN4asio6detail15system_categoryD1Ev@GOTPCREL(%rip), %rdi
	leaq	__dso_handle(%rip), %rdx
	call	__cxa_atexit@PLT
	jmp	.L626
	.p2align 4,,10
	.p2align 3
.L753:
	movq	%rbp, %rdi
	call	__cxa_guard_acquire@PLT
	testl	%eax, %eax
	je	.L643
	movq	%rbp, %rdi
	call	__cxa_guard_release@PLT
	movq	_ZZN4asio15system_categoryEvE8instance@GOTPCREL(%rip), %rsi
	movq	_ZN4asio6detail15system_categoryD1Ev@GOTPCREL(%rip), %rdi
	leaq	__dso_handle(%rip), %rdx
	call	__cxa_atexit@PLT
	jmp	.L643
	.p2align 4,,10
	.p2align 3
.L737:
	orl	$8, %ebp
	movq	%rsp, %rcx
	movl	$8, %r8d
	movb	%bpl, 108(%rbx)
	movl	$13, %edx
	movl	$0, (%rax)
	movl	$1, %esi
	movl	%r12d, %edi
	movq	$0, (%rsp)
	call	setsockopt@PLT
	movq	_ZGVZN4asio15system_categoryEvE8instance@GOTPCREL(%rip), %rbp
	movzbl	0(%rbp), %eax
	testb	%al, %al
	jne	.L638
	movq	%rbp, %rdi
	call	__cxa_guard_acquire@PLT
	testl	%eax, %eax
	je	.L638
	movq	%rbp, %rdi
	call	__cxa_guard_release@PLT
	movq	_ZZN4asio15system_categoryEvE8instance@GOTPCREL(%rip), %rsi
	movq	_ZN4asio6detail15system_categoryD1Ev@GOTPCREL(%rip), %rdi
	leaq	__dso_handle(%rip), %rdx
	call	__cxa_atexit@PLT
	jmp	.L638
	.p2align 4,,10
	.p2align 3
.L736:
	orl	$8, %ebp
	movq	%rsp, %rcx
	movl	$8, %r8d
	movb	%bpl, 140(%rbx)
	movl	$13, %edx
	movl	$0, (%rax)
	movl	$1, %esi
	movl	%r12d, %edi
	movq	$0, (%rsp)
	call	setsockopt@PLT
	movq	_ZGVZN4asio15system_categoryEvE8instance@GOTPCREL(%rip), %rbp
	movzbl	0(%rbp), %eax
	testb	%al, %al
	jne	.L621
	movq	%rbp, %rdi
	call	__cxa_guard_acquire@PLT
	testl	%eax, %eax
	je	.L621
	movq	%rbp, %rdi
	call	__cxa_guard_release@PLT
	movq	_ZZN4asio15system_categoryEvE8instance@GOTPCREL(%rip), %rsi
	movq	_ZN4asio6detail15system_categoryD1Ev@GOTPCREL(%rip), %rdi
	leaq	__dso_handle(%rip), %rdx
	call	__cxa_atexit@PLT
	jmp	.L621
	.p2align 4,,10
	.p2align 3
.L761:
	movq	%rbp, %rdi
	call	__cxa_guard_acquire@PLT
	testl	%eax, %eax
	je	.L646
	movq	%rbp, %rdi
	call	__cxa_guard_release@PLT
	movq	_ZZN4asio15system_categoryEvE8instance@GOTPCREL(%rip), %rsi
	movq	_ZN4asio6detail15system_categoryD1Ev@GOTPCREL(%rip), %rdi
	leaq	__dso_handle(%rip), %rdx
	call	__cxa_atexit@PLT
	jmp	.L646
	.p2align 4,,10
	.p2align 3
.L760:
	movq	%rbp, %rdi
	call	__cxa_guard_acquire@PLT
	testl	%eax, %eax
	je	.L629
	movq	%rbp, %rdi
	call	__cxa_guard_release@PLT
	movq	_ZZN4asio15system_categoryEvE8instance@GOTPCREL(%rip), %rsi
	movq	_ZN4asio6detail15system_categoryD1Ev@GOTPCREL(%rip), %rdi
	leaq	__dso_handle(%rip), %rdx
	call	__cxa_atexit@PLT
	jmp	.L629
	.p2align 4,,10
	.p2align 3
.L631:
	movl	%r12d, %edi
	movq	%rsp, %rdx
	movl	$21537, %esi
	xorl	%eax, %eax
	movl	$0, (%rsp)
	call	ioctl@PLT
	andb	$-4, 140(%rbx)
	movl	%r12d, %edi
	movl	$0, 0(%r13)
	call	close@PLT
	jmp	.L746
	.p2align 4,,10
	.p2align 3
.L648:
	movl	%r12d, %edi
	movq	%rsp, %rdx
	movl	$21537, %esi
	xorl	%eax, %eax
	movl	$0, (%rsp)
	call	ioctl@PLT
	andb	$-4, 108(%rbx)
	movl	%r12d, %edi
	movl	$0, 0(%r13)
	call	close@PLT
	jmp	.L748
.L759:
	call	__stack_chk_fail@PLT
	.cfi_endproc
.LFE10910:
	.section	.gcc_except_table._ZN8asiodnp315MasterTCPServerD2Ev,"aG",@progbits,_ZN8asiodnp315MasterTCPServerD5Ev,comdat
.LLSDA10910:
	.byte	0xff
	.byte	0xff
	.byte	0x1
	.uleb128 .LLSDACSE10910-.LLSDACSB10910
.LLSDACSB10910:
.LLSDACSE10910:
	.section	.text._ZN8asiodnp315MasterTCPServerD2Ev,"axG",@progbits,_ZN8asiodnp315MasterTCPServerD5Ev,comdat
	.size	_ZN8asiodnp315MasterTCPServerD2Ev, .-_ZN8asiodnp315MasterTCPServerD2Ev
	.weak	_ZN8asiodnp315MasterTCPServerD1Ev
	.set	_ZN8asiodnp315MasterTCPServerD1Ev,_ZN8asiodnp315MasterTCPServerD2Ev
	.section	.text._ZN4asio6detail10socket_ops5closeEiRhbRSt10error_code,"axG",@progbits,_ZN4asio6detail10socket_ops5closeEiRhbRSt10error_code,comdat
	.p2align 4,,15
	.weak	_ZN4asio6detail10socket_ops5closeEiRhbRSt10error_code
	.type	_ZN4asio6detail10socket_ops5closeEiRhbRSt10error_code, @function
_ZN4asio6detail10socket_ops5closeEiRhbRSt10error_code:
.LFB3668:
	.cfi_startproc
	pushq	%r15
	.cfi_def_cfa_offset 16
	.cfi_offset 15, -16
	pushq	%r14
	.cfi_def_cfa_offset 24
	.cfi_offset 14, -24
	pushq	%r13
	.cfi_def_cfa_offset 32
	.cfi_offset 13, -32
	pushq	%r12
	.cfi_def_cfa_offset 40
	.cfi_offset 12, -40
	pushq	%rbp
	.cfi_def_cfa_offset 48
	.cfi_offset 6, -48
	pushq	%rbx
	.cfi_def_cfa_offset 56
	.cfi_offset 3, -56
	movq	%rcx, %rbx
	subq	$40, %rsp
	.cfi_def_cfa_offset 96
	movq	%fs:40, %rax
	movq	%rax, 24(%rsp)
	xorl	%eax, %eax
	cmpl	$-1, %edi
	je	.L772
	movl	%edx, %r12d
	movl	%edi, %ebp
	movq	%rsi, %r15
	call	__errno_location@PLT
	testb	%r12b, %r12b
	movq	%rax, %r13
	jne	.L808
.L812:
	movq	_ZGVZN4asio15system_categoryEvE8instance@GOTPCREL(%rip), %r12
	movq	_ZZN4asio15system_categoryEvE8instance@GOTPCREL(%rip), %r14
.L765:
	movl	$0, 0(%r13)
	movl	%ebp, %edi
	call	close@PLT
	movl	%eax, %ecx
	movzbl	(%r12), %eax
	testb	%al, %al
	je	.L814
.L770:
	movl	0(%r13), %eax
	testl	%ecx, %ecx
	movq	%r14, 8(%rbx)
	movl	%eax, (%rbx)
	jne	.L815
.L772:
	call	_ZNSt3_V215system_categoryEv@PLT
	movl	$0, (%rbx)
	movq	%rax, 8(%rbx)
	xorl	%ecx, %ecx
.L762:
	movq	24(%rsp), %rsi
	xorq	%fs:40, %rsi
	movl	%ecx, %eax
	jne	.L816
	addq	$40, %rsp
	.cfi_remember_state
	.cfi_def_cfa_offset 56
	popq	%rbx
	.cfi_def_cfa_offset 48
	popq	%rbp
	.cfi_def_cfa_offset 40
	popq	%r12
	.cfi_def_cfa_offset 32
	popq	%r13
	.cfi_def_cfa_offset 24
	popq	%r14
	.cfi_def_cfa_offset 16
	popq	%r15
	.cfi_def_cfa_offset 8
	ret
	.p2align 4,,10
	.p2align 3
.L808:
	.cfi_restore_state
	movzbl	(%r15), %eax
	testb	$8, %al
	je	.L812
	orl	$8, %eax
	leaq	16(%rsp), %rcx
	movl	$8, %r8d
	movb	%al, (%r15)
	movl	$13, %edx
	movl	$0, 0(%r13)
	movl	$1, %esi
	movl	%ebp, %edi
	movq	$0, 16(%rsp)
	call	setsockopt@PLT
	movq	_ZGVZN4asio15system_categoryEvE8instance@GOTPCREL(%rip), %r12
	movzbl	(%r12), %eax
	testb	%al, %al
	je	.L766
.L813:
	movq	_ZZN4asio15system_categoryEvE8instance@GOTPCREL(%rip), %r14
	jmp	.L765
	.p2align 4,,10
	.p2align 3
.L814:
	movq	%r12, %rdi
	movl	%ecx, 12(%rsp)
	call	__cxa_guard_acquire@PLT
	testl	%eax, %eax
	movl	12(%rsp), %ecx
	je	.L770
	movq	%r12, %rdi
	call	__cxa_guard_release@PLT
	movq	_ZN4asio6detail15system_categoryD1Ev@GOTPCREL(%rip), %rdi
	leaq	__dso_handle(%rip), %rdx
	movq	%r14, %rsi
	call	__cxa_atexit@PLT
	movl	12(%rsp), %ecx
	jmp	.L770
	.p2align 4,,10
	.p2align 3
.L815:
	movzbl	(%r12), %eax
	testb	%al, %al
	je	.L817
.L774:
	cmpq	%r14, 8(%rbx)
	je	.L818
.L776:
	movzbl	(%r12), %eax
	testb	%al, %al
	je	.L819
.L780:
	cmpq	%r14, 8(%rbx)
	jne	.L762
	cmpl	$11, (%rbx)
	jne	.L762
.L782:
	leaq	16(%rsp), %rdx
	movl	$21537, %esi
	movl	%ebp, %edi
	xorl	%eax, %eax
	movl	$0, 16(%rsp)
	call	ioctl@PLT
	andb	$-4, (%r15)
	movl	%ebp, %edi
	movl	$0, 0(%r13)
	call	close@PLT
	movl	%eax, %ecx
	movzbl	(%r12), %eax
	testb	%al, %al
	je	.L820
.L783:
	movl	0(%r13), %eax
	testl	%ecx, %ecx
	movq	%r14, 8(%rbx)
	movl	%eax, (%rbx)
	jne	.L762
	jmp	.L772
	.p2align 4,,10
	.p2align 3
.L818:
	cmpl	$11, (%rbx)
	jne	.L776
	jmp	.L782
	.p2align 4,,10
	.p2align 3
.L817:
	movq	%r12, %rdi
	movl	%ecx, 12(%rsp)
	call	__cxa_guard_acquire@PLT
	testl	%eax, %eax
	movl	12(%rsp), %ecx
	je	.L774
	movq	%r12, %rdi
	call	__cxa_guard_release@PLT
	movq	_ZN4asio6detail15system_categoryD1Ev@GOTPCREL(%rip), %rdi
	leaq	__dso_handle(%rip), %rdx
	movq	%r14, %rsi
	call	__cxa_atexit@PLT
	movl	12(%rsp), %ecx
	jmp	.L774
	.p2align 4,,10
	.p2align 3
.L819:
	movq	%r12, %rdi
	movl	%ecx, 12(%rsp)
	call	__cxa_guard_acquire@PLT
	testl	%eax, %eax
	movl	12(%rsp), %ecx
	je	.L780
	movq	%r12, %rdi
	call	__cxa_guard_release@PLT
	movq	_ZN4asio6detail15system_categoryD1Ev@GOTPCREL(%rip), %rdi
	leaq	__dso_handle(%rip), %rdx
	movq	%r14, %rsi
	call	__cxa_atexit@PLT
	movl	12(%rsp), %ecx
	jmp	.L780
	.p2align 4,,10
	.p2align 3
.L820:
	movq	%r12, %rdi
	movl	%ecx, 12(%rsp)
	call	__cxa_guard_acquire@PLT
	testl	%eax, %eax
	movl	12(%rsp), %ecx
	je	.L783
	movq	%r12, %rdi
	call	__cxa_guard_release@PLT
	movq	_ZN4asio6detail15system_categoryD1Ev@GOTPCREL(%rip), %rdi
	leaq	__dso_handle(%rip), %rdx
	movq	%r14, %rsi
	call	__cxa_atexit@PLT
	movl	12(%rsp), %ecx
	jmp	.L783
	.p2align 4,,10
	.p2align 3
.L766:
	movq	%r12, %rdi
	call	__cxa_guard_acquire@PLT
	testl	%eax, %eax
	je	.L813
	movq	%r12, %rdi
	call	__cxa_guard_release@PLT
	movq	_ZZN4asio15system_categoryEvE8instance@GOTPCREL(%rip), %r14
	movq	_ZN4asio6detail15system_categoryD1Ev@GOTPCREL(%rip), %rdi
	leaq	__dso_handle(%rip), %rdx
	movq	%r14, %rsi
	call	__cxa_atexit@PLT
	jmp	.L765
.L816:
	call	__stack_chk_fail@PLT
	.cfi_endproc
.LFE3668:
	.size	_ZN4asio6detail10socket_ops5closeEiRhbRSt10error_code, .-_ZN4asio6detail10socket_ops5closeEiRhbRSt10error_code
	.section	.text._ZN4asio6detail28reactive_socket_service_base7destroyERNS1_24base_implementation_typeE,"axG",@progbits,_ZN4asio6detail28reactive_socket_service_base7destroyERNS1_24base_implementation_typeE,comdat
	.align 2
	.p2align 4,,15
	.weak	_ZN4asio6detail28reactive_socket_service_base7destroyERNS1_24base_implementation_typeE
	.type	_ZN4asio6detail28reactive_socket_service_base7destroyERNS1_24base_implementation_typeE, @function
_ZN4asio6detail28reactive_socket_service_base7destroyERNS1_24base_implementation_typeE:
.LFB3821:
	.cfi_startproc
	pushq	%r14
	.cfi_def_cfa_offset 16
	.cfi_offset 14, -16
	pushq	%r13
	.cfi_def_cfa_offset 24
	.cfi_offset 13, -24
	pushq	%r12
	.cfi_def_cfa_offset 32
	.cfi_offset 12, -32
	pushq	%rbp
	.cfi_def_cfa_offset 40
	.cfi_offset 6, -40
	pushq	%rbx
	.cfi_def_cfa_offset 48
	.cfi_offset 3, -48
	movq	%rsi, %rbx
	subq	$16, %rsp
	.cfi_def_cfa_offset 64
	movl	(%rsi), %esi
	movq	%fs:40, %rax
	movq	%rax, 8(%rsp)
	xorl	%eax, %eax
	cmpl	$-1, %esi
	je	.L821
	movzbl	4(%rbx), %ecx
	movq	(%rdi), %rdi
	leaq	8(%rbx), %rdx
	shrb	$6, %cl
	xorl	$1, %ecx
	andl	$1, %ecx
	call	_ZN4asio6detail13epoll_reactor21deregister_descriptorEiRPNS1_16descriptor_stateEb@PLT
	movl	(%rbx), %ebp
	cmpl	$-1, %ebp
	je	.L821
	movzbl	4(%rbx), %r12d
	call	__errno_location@PLT
	movq	%rax, %r13
	testb	$8, %r12b
	jne	.L867
	movq	_ZGVZN4asio15system_categoryEvE8instance@GOTPCREL(%rip), %r12
.L824:
	movl	$0, 0(%r13)
	movl	%ebp, %edi
	call	close@PLT
	movl	%eax, %r14d
	movzbl	(%r12), %eax
	testb	%al, %al
	je	.L874
.L829:
	testl	%r14d, %r14d
	jne	.L875
.L821:
	movq	8(%rsp), %rax
	xorq	%fs:40, %rax
	jne	.L876
	addq	$16, %rsp
	.cfi_remember_state
	.cfi_def_cfa_offset 48
	popq	%rbx
	.cfi_def_cfa_offset 40
	popq	%rbp
	.cfi_def_cfa_offset 32
	popq	%r12
	.cfi_def_cfa_offset 24
	popq	%r13
	.cfi_def_cfa_offset 16
	popq	%r14
	.cfi_def_cfa_offset 8
	ret
	.p2align 4,,10
	.p2align 3
.L875:
	.cfi_restore_state
	movl	0(%r13), %r14d
	movzbl	(%r12), %eax
	testb	%al, %al
	je	.L877
.L832:
	cmpl	$11, %r14d
	je	.L834
.L873:
	movzbl	(%r12), %eax
	testb	%al, %al
	jne	.L821
	movq	%r12, %rdi
	call	__cxa_guard_acquire@PLT
	testl	%eax, %eax
	je	.L821
	movq	%r12, %rdi
	call	__cxa_guard_release@PLT
	movq	_ZZN4asio15system_categoryEvE8instance@GOTPCREL(%rip), %rsi
	movq	_ZN4asio6detail15system_categoryD1Ev@GOTPCREL(%rip), %rdi
	leaq	__dso_handle(%rip), %rdx
	call	__cxa_atexit@PLT
	jmp	.L821
	.p2align 4,,10
	.p2align 3
.L874:
	movq	%r12, %rdi
	call	__cxa_guard_acquire@PLT
	testl	%eax, %eax
	je	.L829
	movq	%r12, %rdi
	call	__cxa_guard_release@PLT
	movq	_ZZN4asio15system_categoryEvE8instance@GOTPCREL(%rip), %rsi
	movq	_ZN4asio6detail15system_categoryD1Ev@GOTPCREL(%rip), %rdi
	leaq	__dso_handle(%rip), %rdx
	call	__cxa_atexit@PLT
	jmp	.L829
	.p2align 4,,10
	.p2align 3
.L867:
	orl	$8, %r12d
	movq	%rsp, %rcx
	movl	$8, %r8d
	movb	%r12b, 4(%rbx)
	movl	$13, %edx
	movl	$0, (%rax)
	movl	$1, %esi
	movl	%ebp, %edi
	movq	$0, (%rsp)
	call	setsockopt@PLT
	movq	_ZGVZN4asio15system_categoryEvE8instance@GOTPCREL(%rip), %r12
	movzbl	(%r12), %eax
	testb	%al, %al
	jne	.L824
	movq	%r12, %rdi
	call	__cxa_guard_acquire@PLT
	testl	%eax, %eax
	je	.L824
	movq	%r12, %rdi
	call	__cxa_guard_release@PLT
	movq	_ZZN4asio15system_categoryEvE8instance@GOTPCREL(%rip), %rsi
	movq	_ZN4asio6detail15system_categoryD1Ev@GOTPCREL(%rip), %rdi
	leaq	__dso_handle(%rip), %rdx
	call	__cxa_atexit@PLT
	jmp	.L824
	.p2align 4,,10
	.p2align 3
.L877:
	movq	%r12, %rdi
	call	__cxa_guard_acquire@PLT
	testl	%eax, %eax
	je	.L832
	movq	%r12, %rdi
	call	__cxa_guard_release@PLT
	movq	_ZZN4asio15system_categoryEvE8instance@GOTPCREL(%rip), %rsi
	movq	_ZN4asio6detail15system_categoryD1Ev@GOTPCREL(%rip), %rdi
	leaq	__dso_handle(%rip), %rdx
	call	__cxa_atexit@PLT
	jmp	.L832
	.p2align 4,,10
	.p2align 3
.L834:
	movl	%ebp, %edi
	movq	%rsp, %rdx
	movl	$21537, %esi
	xorl	%eax, %eax
	movl	$0, (%rsp)
	call	ioctl@PLT
	andb	$-4, 4(%rbx)
	movl	%ebp, %edi
	movl	$0, 0(%r13)
	call	close@PLT
	jmp	.L873
.L876:
	call	__stack_chk_fail@PLT
	.cfi_endproc
.LFE3821:
	.size	_ZN4asio6detail28reactive_socket_service_base7destroyERNS1_24base_implementation_typeE, .-_ZN4asio6detail28reactive_socket_service_base7destroyERNS1_24base_implementation_typeE
	.section	.text._ZN4asio2ip6detail8endpointC2ERKNS0_7addressEt,"axG",@progbits,_ZN4asio2ip6detail8endpointC5ERKNS0_7addressEt,comdat
	.align 2
	.p2align 4,,15
	.weak	_ZN4asio2ip6detail8endpointC2ERKNS0_7addressEt
	.type	_ZN4asio2ip6detail8endpointC2ERKNS0_7addressEt, @function
_ZN4asio2ip6detail8endpointC2ERKNS0_7addressEt:
.LFB5895:
	.cfi_startproc
	.cfi_personality 0x9b,DW.ref.__gxx_personality_v0
	.cfi_lsda 0x1b,.LLSDA5895
	pxor	%xmm0, %xmm0
	pushq	%rbx
	.cfi_def_cfa_offset 16
	.cfi_offset 3, -16
	subq	$16, %rsp
	.cfi_def_cfa_offset 32
	movq	$0, 16(%rdi)
	movl	$0, 24(%rdi)
	movups	%xmm0, (%rdi)
	movl	(%rsi), %r9d
	movq	%fs:40, %rax
	movq	%rax, 8(%rsp)
	xorl	%eax, %eax
	testl	%r9d, %r9d
	jne	.L879
	movl	$2, %ecx
#APP
# 3427 "/home/raihan/OpenPLC_v3/utils/dnp3_src/deps/asio/asio/include/asio/detail/impl/socket_ops.ipp" 1
	rorw $8, %dx
# 0 "" 2
#NO_APP
	movw	%cx, (%rdi)
	movw	%dx, 2(%rdi)
	movl	(%rsi), %r8d
	testl	%r8d, %r8d
	jne	.L890
	movl	4(%rsi), %eax
	movl	%eax, 4(%rdi)
	jmp	.L878
	.p2align 4,,10
	.p2align 3
.L879:
	movl	$10, %eax
#APP
# 3427 "/home/raihan/OpenPLC_v3/utils/dnp3_src/deps/asio/asio/include/asio/detail/impl/socket_ops.ipp" 1
	rorw $8, %dx
# 0 "" 2
#NO_APP
	movw	%ax, (%rdi)
	movw	%dx, 2(%rdi)
	cmpl	$1, (%rsi)
	jne	.L891
	movdqu	8(%rsi), %xmm0
	movq	24(%rsi), %rax
	movups	%xmm0, 8(%rdi)
	movl	%eax, 24(%rdi)
.L878:
	movq	8(%rsp), %rax
	xorq	%fs:40, %rax
	jne	.L892
	addq	$16, %rsp
	.cfi_remember_state
	.cfi_def_cfa_offset 16
	popq	%rbx
	.cfi_def_cfa_offset 8
	ret
.L891:
	.cfi_restore_state
	movq	_ZTVSt8bad_cast@GOTPCREL(%rip), %rax
	addq	$16, %rax
	movq	%rax, (%rsp)
.LEHB5:
	call	_ZN4asio6detail15throw_exceptionISt8bad_castEEvRKT_.isra.46
.LEHE5:
.L890:
	movq	_ZTVSt8bad_cast@GOTPCREL(%rip), %rax
	addq	$16, %rax
	movq	%rax, (%rsp)
.LEHB6:
	call	_ZN4asio6detail15throw_exceptionISt8bad_castEEvRKT_.isra.46
.LEHE6:
.L886:
.L889:
	movq	%rax, %rbx
	movq	%rsp, %rdi
	call	_ZNSt8bad_castD1Ev@PLT
	movq	%rbx, %rdi
.LEHB7:
	call	_Unwind_Resume@PLT
.LEHE7:
.L887:
	jmp	.L889
.L892:
	call	__stack_chk_fail@PLT
	.cfi_endproc
.LFE5895:
	.section	.gcc_except_table._ZN4asio2ip6detail8endpointC2ERKNS0_7addressEt,"aG",@progbits,_ZN4asio2ip6detail8endpointC5ERKNS0_7addressEt,comdat
.LLSDA5895:
	.byte	0xff
	.byte	0xff
	.byte	0x1
	.uleb128 .LLSDACSE5895-.LLSDACSB5895
.LLSDACSB5895:
	.uleb128 .LEHB5-.LFB5895
	.uleb128 .LEHE5-.LEHB5
	.uleb128 .L887-.LFB5895
	.uleb128 0
	.uleb128 .LEHB6-.LFB5895
	.uleb128 .LEHE6-.LEHB6
	.uleb128 .L886-.LFB5895
	.uleb128 0
	.uleb128 .LEHB7-.LFB5895
	.uleb128 .LEHE7-.LEHB7
	.uleb128 0
	.uleb128 0
.LLSDACSE5895:
	.section	.text._ZN4asio2ip6detail8endpointC2ERKNS0_7addressEt,"axG",@progbits,_ZN4asio2ip6detail8endpointC5ERKNS0_7addressEt,comdat
	.size	_ZN4asio2ip6detail8endpointC2ERKNS0_7addressEt, .-_ZN4asio2ip6detail8endpointC2ERKNS0_7addressEt
	.weak	_ZN4asio2ip6detail8endpointC1ERKNS0_7addressEt
	.set	_ZN4asio2ip6detail8endpointC1ERKNS0_7addressEt,_ZN4asio2ip6detail8endpointC2ERKNS0_7addressEt
	.section	.text._ZN4asio6detail14strand_service7do_postERPNS1_11strand_implEPNS0_25task_io_service_operationEb,"axG",@progbits,_ZN4asio6detail14strand_service7do_postERPNS1_11strand_implEPNS0_25task_io_service_operationEb,comdat
	.align 2
	.p2align 4,,15
	.weak	_ZN4asio6detail14strand_service7do_postERPNS1_11strand_implEPNS0_25task_io_service_operationEb
	.type	_ZN4asio6detail14strand_service7do_postERPNS1_11strand_implEPNS0_25task_io_service_operationEb, @function
_ZN4asio6detail14strand_service7do_postERPNS1_11strand_implEPNS0_25task_io_service_operationEb:
.LFB6381:
	.cfi_startproc
	pushq	%r13
	.cfi_def_cfa_offset 16
	.cfi_offset 13, -16
	pushq	%r12
	.cfi_def_cfa_offset 24
	.cfi_offset 12, -24
	movq	%rdi, %r13
	pushq	%rbp
	.cfi_def_cfa_offset 32
	.cfi_offset 6, -32
	pushq	%rbx
	.cfi_def_cfa_offset 40
	.cfi_offset 3, -40
	movq	%rsi, %rbp
	movq	%rdx, %rbx
	movl	%ecx, %r12d
	subq	$40, %rsp
	.cfi_def_cfa_offset 80
	movq	%fs:40, %rax
	movq	%rax, 24(%rsp)
	xorl	%eax, %eax
	movq	(%rsi), %rax
	leaq	24(%rax), %rdi
	call	pthread_mutex_lock@PLT
	movq	0(%rbp), %rdi
	cmpb	$0, 64(%rdi)
	je	.L894
	cmpq	$0, 80(%rdi)
	movq	$0, (%rbx)
	je	.L895
	movq	80(%rdi), %rax
	movq	%rbx, (%rax)
	movq	%rbx, 80(%rdi)
.L896:
	addq	$24, %rdi
	call	pthread_mutex_unlock@PLT
.L893:
	movq	24(%rsp), %rax
	xorq	%fs:40, %rax
	jne	.L927
	addq	$40, %rsp
	.cfi_remember_state
	.cfi_def_cfa_offset 40
	popq	%rbx
	.cfi_def_cfa_offset 32
	popq	%rbp
	.cfi_def_cfa_offset 24
	popq	%r12
	.cfi_def_cfa_offset 16
	popq	%r13
	.cfi_def_cfa_offset 8
	ret
	.p2align 4,,10
	.p2align 3
.L895:
	.cfi_restore_state
	movq	%rbx, 80(%rdi)
	movq	%rbx, 72(%rdi)
	jmp	.L896
	.p2align 4,,10
	.p2align 3
.L894:
	movb	$1, 64(%rdi)
	movq	0(%rbp), %rax
	leaq	24(%rax), %rdi
	call	pthread_mutex_unlock@PLT
	movq	0(%rbp), %rbp
	movq	$0, (%rbx)
	cmpq	$0, 96(%rbp)
	je	.L898
	movq	96(%rbp), %rax
	movq	%rbx, (%rax)
	movq	%rbx, 96(%rbp)
.L899:
	movq	40(%r13), %rbx
	cmpb	$0, 40(%rbx)
	jne	.L913
	testb	%r12b, %r12b
	je	.L900
.L913:
	.byte	0x66
	leaq	_ZN4asio6detail15keyword_tss_ptrINS0_10call_stackINS0_15task_io_serviceENS0_27task_io_service_thread_infoEE7contextEE6value_E@tlsgd(%rip), %rdi
	.value	0x6666
	rex64
	call	__tls_get_addr@PLT
	movq	(%rax), %rax
	testq	%rax, %rax
	jne	.L924
	jmp	.L900
	.p2align 4,,10
	.p2align 3
.L903:
	movq	16(%rax), %rax
	testq	%rax, %rax
	je	.L900
.L924:
	cmpq	(%rax), %rbx
	jne	.L903
	movq	8(%rax), %rax
	testq	%rax, %rax
	je	.L900
	addq	$1, 24(%rax)
	cmpq	$0, 16(%rax)
	movq	$0, 0(%rbp)
	je	.L906
	movq	16(%rax), %rdx
	movq	%rbp, (%rdx)
	movq	%rbp, 16(%rax)
	jmp	.L893
	.p2align 4,,10
	.p2align 3
.L900:
	lock addq	$1, 184(%rbx)
	leaq	48(%rbx), %r12
	movq	%r12, %rdi
	call	pthread_mutex_lock@PLT
	cmpq	$0, 200(%rbx)
	movq	$0, 0(%rbp)
	je	.L907
	movq	200(%rbx), %rax
	movq	%rbp, (%rax)
	movq	%rbp, 200(%rbx)
.L908:
	movq	136(%rbx), %rax
	orq	$1, %rax
	cmpq	$1, %rax
	movq	%rax, 136(%rbx)
	jne	.L928
	cmpb	$0, 176(%rbx)
	jne	.L911
	movq	144(%rbx), %rax
	testq	%rax, %rax
	je	.L911
	leaq	88(%rax), %rdx
	movb	$1, 176(%rbx)
	movl	96(%rax), %edi
	leaq	12(%rsp), %rcx
	movl	$3, %esi
	movl	$-2147483639, 12(%rsp)
	movq	%rdx, 16(%rsp)
	movl	88(%rax), %edx
	call	epoll_ctl@PLT
.L911:
	movq	%r12, %rdi
	call	pthread_mutex_unlock@PLT
	jmp	.L893
	.p2align 4,,10
	.p2align 3
.L898:
	movq	%rbx, 96(%rbp)
	movq	%rbx, 88(%rbp)
	jmp	.L899
	.p2align 4,,10
	.p2align 3
.L928:
	movq	%r12, %rdi
	call	pthread_mutex_unlock@PLT
	leaq	88(%rbx), %rdi
	call	pthread_cond_signal@PLT
	jmp	.L893
	.p2align 4,,10
	.p2align 3
.L906:
	movq	%rbp, 16(%rax)
	movq	%rbp, 8(%rax)
	jmp	.L893
	.p2align 4,,10
	.p2align 3
.L907:
	movq	%rbp, 200(%rbx)
	movq	%rbp, 192(%rbx)
	jmp	.L908
.L927:
	call	__stack_chk_fail@PLT
	.cfi_endproc
.LFE6381:
	.size	_ZN4asio6detail14strand_service7do_postERPNS1_11strand_implEPNS0_25task_io_service_operationEb, .-_ZN4asio6detail14strand_service7do_postERPNS1_11strand_implEPNS0_25task_io_service_operationEb
	.text
	.align 2
	.p2align 4,,15
	.globl	_ZN8asiodnp315MasterTCPServerC2ERKN7openpal6LoggerERKSt10shared_ptrIN7asiopal8ExecutorEERKNS6_10IPEndpointERKS5_INS_16IListenCallbacksEERKS5_INS6_15ResourceManagerEERSt10error_code
	.type	_ZN8asiodnp315MasterTCPServerC2ERKN7openpal6LoggerERKSt10shared_ptrIN7asiopal8ExecutorEERKNS6_10IPEndpointERKS5_INS_16IListenCallbacksEERKS5_INS6_15ResourceManagerEERSt10error_code, @function
_ZN8asiodnp315MasterTCPServerC2ERKN7openpal6LoggerERKSt10shared_ptrIN7asiopal8ExecutorEERKNS6_10IPEndpointERKS5_INS_16IListenCallbacksEERKS5_INS6_15ResourceManagerEERSt10error_code:
.LFB8070:
	.cfi_startproc
	pushq	%r12
	.cfi_def_cfa_offset 16
	.cfi_offset 12, -16
	pushq	%rbp
	.cfi_def_cfa_offset 24
	.cfi_offset 6, -24
	movq	%r8, %rbp
	pushq	%rbx
	.cfi_def_cfa_offset 32
	.cfi_offset 3, -32
	movq	32(%rsp), %r8
	movq	%rdi, %rbx
	movq	%r9, %r12
	call	_ZN7asiopal9TCPServerC2ERKN7openpal6LoggerERKSt10shared_ptrINS_8ExecutorEERKNS_10IPEndpointERSt10error_code@PLT
	movq	_ZTVN8asiodnp315MasterTCPServerE@GOTPCREL(%rip), %rax
	addq	$16, %rax
	movq	%rax, (%rbx)
	movq	0(%rbp), %rax
	movq	%rax, 208(%rbx)
	movq	8(%rbp), %rax
	testq	%rax, %rax
	movq	%rax, 216(%rbx)
	je	.L930
	cmpq	$0, _ZL28__gthrw___pthread_key_createPjPFvPvE@GOTPCREL(%rip)
	jne	.L944
	addl	$1, 8(%rax)
	movq	(%r12), %rax
	movq	%rax, 224(%rbx)
	movq	8(%r12), %rax
	testq	%rax, %rax
	movq	%rax, 232(%rbx)
	je	.L929
.L934:
	addl	$1, 8(%rax)
.L929:
	popq	%rbx
	.cfi_remember_state
	.cfi_def_cfa_offset 24
	popq	%rbp
	.cfi_def_cfa_offset 16
	popq	%r12
	.cfi_def_cfa_offset 8
	ret
	.p2align 4,,10
	.p2align 3
.L944:
	.cfi_restore_state
	lock addl	$1, 8(%rax)
	movq	8(%r12), %rdx
	movq	(%r12), %rax
	testq	%rdx, %rdx
	movq	%rax, 224(%rbx)
	movq	%rdx, 232(%rbx)
	leaq	8(%rdx), %rax
	je	.L929
.L936:
	lock addl	$1, (%rax)
	popq	%rbx
	.cfi_remember_state
	.cfi_def_cfa_offset 24
	popq	%rbp
	.cfi_def_cfa_offset 16
	popq	%r12
	.cfi_def_cfa_offset 8
	ret
	.p2align 4,,10
	.p2align 3
.L930:
	.cfi_restore_state
	movq	(%r12), %rax
	movq	%rax, 224(%rbx)
	movq	8(%r12), %rax
	testq	%rax, %rax
	movq	%rax, 232(%rbx)
	je	.L929
	cmpq	$0, _ZL28__gthrw___pthread_key_createPjPFvPvE@GOTPCREL(%rip)
	je	.L934
	addq	$8, %rax
	jmp	.L936
	.cfi_endproc
.LFE8070:
	.size	_ZN8asiodnp315MasterTCPServerC2ERKN7openpal6LoggerERKSt10shared_ptrIN7asiopal8ExecutorEERKNS6_10IPEndpointERKS5_INS_16IListenCallbacksEERKS5_INS6_15ResourceManagerEERSt10error_code, .-_ZN8asiodnp315MasterTCPServerC2ERKN7openpal6LoggerERKSt10shared_ptrIN7asiopal8ExecutorEERKNS6_10IPEndpointERKS5_INS_16IListenCallbacksEERKS5_INS6_15ResourceManagerEERSt10error_code
	.globl	_ZN8asiodnp315MasterTCPServerC1ERKN7openpal6LoggerERKSt10shared_ptrIN7asiopal8ExecutorEERKNS6_10IPEndpointERKS5_INS_16IListenCallbacksEERKS5_INS6_15ResourceManagerEERSt10error_code
	.set	_ZN8asiodnp315MasterTCPServerC1ERKN7openpal6LoggerERKSt10shared_ptrIN7asiopal8ExecutorEERKNS6_10IPEndpointERKS5_INS_16IListenCallbacksEERKS5_INS6_15ResourceManagerEERSt10error_code,_ZN8asiodnp315MasterTCPServerC2ERKN7openpal6LoggerERKSt10shared_ptrIN7asiopal8ExecutorEERKNS6_10IPEndpointERKS5_INS_16IListenCallbacksEERKS5_INS6_15ResourceManagerEERSt10error_code
	.section	.text._ZN4asio6detail15throw_exceptionISt12system_errorEEvRKT_,"axG",@progbits,_ZN4asio6detail15throw_exceptionISt12system_errorEEvRKT_,comdat
	.p2align 4,,15
	.weak	_ZN4asio6detail15throw_exceptionISt12system_errorEEvRKT_
	.type	_ZN4asio6detail15throw_exceptionISt12system_errorEEvRKT_, @function
_ZN4asio6detail15throw_exceptionISt12system_errorEEvRKT_:
.LFB8365:
	.cfi_startproc
	pushq	%rbp
	.cfi_def_cfa_offset 16
	.cfi_offset 6, -16
	pushq	%rbx
	.cfi_def_cfa_offset 24
	.cfi_offset 3, -24
	movq	%rdi, %rbp
	movl	$32, %edi
	subq	$8, %rsp
	.cfi_def_cfa_offset 32
	call	__cxa_allocate_exception@PLT
	movq	%rbp, %rsi
	movq	%rax, %rdi
	movq	%rax, %rbx
	call	_ZNSt13runtime_errorC2ERKS_@PLT
	movq	_ZTVSt12system_error@GOTPCREL(%rip), %rax
	movq	_ZNSt12system_errorD1Ev@GOTPCREL(%rip), %rdx
	movq	%rbx, %rdi
	movq	_ZTISt12system_error@GOTPCREL(%rip), %rsi
	movdqu	16(%rbp), %xmm0
	addq	$16, %rax
	movq	%rax, (%rbx)
	movups	%xmm0, 16(%rbx)
	call	__cxa_throw@PLT
	.cfi_endproc
.LFE8365:
	.size	_ZN4asio6detail15throw_exceptionISt12system_errorEEvRKT_, .-_ZN4asio6detail15throw_exceptionISt12system_errorEEvRKT_
	.section	.text._ZN4asio6detail14do_throw_errorERKSt10error_code,"axG",@progbits,_ZN4asio6detail14do_throw_errorERKSt10error_code,comdat
	.p2align 4,,15
	.weak	_ZN4asio6detail14do_throw_errorERKSt10error_code
	.type	_ZN4asio6detail14do_throw_errorERKSt10error_code, @function
_ZN4asio6detail14do_throw_errorERKSt10error_code:
.LFB2408:
	.cfi_startproc
	.cfi_personality 0x9b,DW.ref.__gxx_personality_v0
	.cfi_lsda 0x1b,.LLSDA2408
	pushq	%r13
	.cfi_def_cfa_offset 16
	.cfi_offset 13, -16
	pushq	%r12
	.cfi_def_cfa_offset 24
	.cfi_offset 12, -24
	pushq	%rbp
	.cfi_def_cfa_offset 32
	.cfi_offset 6, -32
	pushq	%rbx
	.cfi_def_cfa_offset 40
	.cfi_offset 3, -40
	subq	$88, %rsp
	.cfi_def_cfa_offset 128
	movq	8(%rdi), %rbp
	movl	(%rdi), %r13d
	movq	%fs:40, %rax
	movq	%rax, 72(%rsp)
	xorl	%eax, %eax
	leaq	32(%rsp), %rbx
	movq	%rsp, %r12
	movq	0(%rbp), %rax
	movq	%rbp, %rsi
	movl	%r13d, %edx
	movq	%rbx, %rdi
.LEHB8:
	call	*32(%rax)
.LEHE8:
	movq	%rbx, %rsi
	movq	%r12, %rdi
.LEHB9:
	call	_ZNSt13runtime_errorC2ERKNSt7__cxx1112basic_stringIcSt11char_traitsIcESaIcEEE@PLT
.LEHE9:
	movq	32(%rsp), %rdi
	addq	$16, %rbx
	cmpq	%rbx, %rdi
	je	.L948
	call	_ZdlPv@PLT
.L948:
	movq	_ZTVSt12system_error@GOTPCREL(%rip), %rax
	movq	%r12, %rdi
	movl	%r13d, 16(%rsp)
	movq	%rbp, 24(%rsp)
	addq	$16, %rax
	movq	%rax, (%rsp)
.LEHB10:
	call	_ZN4asio6detail15throw_exceptionISt12system_errorEEvRKT_@PLT
.LEHE10:
.L953:
	movq	%rax, %rbx
	movq	%r12, %rdi
	call	_ZNSt12system_errorD1Ev@PLT
	movq	%rbx, %rdi
.LEHB11:
	call	_Unwind_Resume@PLT
.L954:
	movq	32(%rsp), %rdi
	addq	$16, %rbx
	movq	%rax, %rbp
	cmpq	%rbx, %rdi
	je	.L950
	call	_ZdlPv@PLT
.L950:
	movq	%rbp, %rdi
	call	_Unwind_Resume@PLT
.LEHE11:
	.cfi_endproc
.LFE2408:
	.section	.gcc_except_table._ZN4asio6detail14do_throw_errorERKSt10error_code,"aG",@progbits,_ZN4asio6detail14do_throw_errorERKSt10error_code,comdat
.LLSDA2408:
	.byte	0xff
	.byte	0xff
	.byte	0x1
	.uleb128 .LLSDACSE2408-.LLSDACSB2408
.LLSDACSB2408:
	.uleb128 .LEHB8-.LFB2408
	.uleb128 .LEHE8-.LEHB8
	.uleb128 0
	.uleb128 0
	.uleb128 .LEHB9-.LFB2408
	.uleb128 .LEHE9-.LEHB9
	.uleb128 .L954-.LFB2408
	.uleb128 0
	.uleb128 .LEHB10-.LFB2408
	.uleb128 .LEHE10-.LEHB10
	.uleb128 .L953-.LFB2408
	.uleb128 0
	.uleb128 .LEHB11-.LFB2408
	.uleb128 .LEHE11-.LEHB11
	.uleb128 0
	.uleb128 0
.LLSDACSE2408:
	.section	.text._ZN4asio6detail14do_throw_errorERKSt10error_code,"axG",@progbits,_ZN4asio6detail14do_throw_errorERKSt10error_code,comdat
	.size	_ZN4asio6detail14do_throw_errorERKSt10error_code, .-_ZN4asio6detail14do_throw_errorERKSt10error_code
	.section	.text._ZN4asio6detail14do_throw_errorERKSt10error_codePKc,"axG",@progbits,_ZN4asio6detail14do_throw_errorERKSt10error_codePKc,comdat
	.p2align 4,,15
	.weak	_ZN4asio6detail14do_throw_errorERKSt10error_codePKc
	.type	_ZN4asio6detail14do_throw_errorERKSt10error_codePKc, @function
_ZN4asio6detail14do_throw_errorERKSt10error_codePKc:
.LFB2409:
	.cfi_startproc
	.cfi_personality 0x9b,DW.ref.__gxx_personality_v0
	.cfi_lsda 0x1b,.LLSDA2409
	pushq	%rbp
	.cfi_def_cfa_offset 16
	.cfi_offset 6, -16
	pushq	%rbx
	.cfi_def_cfa_offset 24
	.cfi_offset 3, -24
	movq	%rsi, %rcx
	subq	$56, %rsp
	.cfi_def_cfa_offset 80
	movl	(%rdi), %esi
	movq	8(%rdi), %rdx
	movq	%rsp, %rbx
	movq	%rbx, %rdi
	movq	%fs:40, %rax
	movq	%rax, 40(%rsp)
	xorl	%eax, %eax
.LEHB12:
	call	_ZNSt12system_errorC1ESt10error_codePKc@PLT
.LEHE12:
	movq	%rbx, %rdi
.LEHB13:
	call	_ZN4asio6detail15throw_exceptionISt12system_errorEEvRKT_@PLT
.LEHE13:
.L959:
	movq	%rax, %rbp
	movq	%rbx, %rdi
	call	_ZNSt12system_errorD1Ev@PLT
	movq	%rbp, %rdi
.LEHB14:
	call	_Unwind_Resume@PLT
.LEHE14:
	.cfi_endproc
.LFE2409:
	.section	.gcc_except_table._ZN4asio6detail14do_throw_errorERKSt10error_codePKc,"aG",@progbits,_ZN4asio6detail14do_throw_errorERKSt10error_codePKc,comdat
.LLSDA2409:
	.byte	0xff
	.byte	0xff
	.byte	0x1
	.uleb128 .LLSDACSE2409-.LLSDACSB2409
.LLSDACSB2409:
	.uleb128 .LEHB12-.LFB2409
	.uleb128 .LEHE12-.LEHB12
	.uleb128 0
	.uleb128 0
	.uleb128 .LEHB13-.LFB2409
	.uleb128 .LEHE13-.LEHB13
	.uleb128 .L959-.LFB2409
	.uleb128 0
	.uleb128 .LEHB14-.LFB2409
	.uleb128 .LEHE14-.LEHB14
	.uleb128 0
	.uleb128 0
.LLSDACSE2409:
	.section	.text._ZN4asio6detail14do_throw_errorERKSt10error_codePKc,"axG",@progbits,_ZN4asio6detail14do_throw_errorERKSt10error_codePKc,comdat
	.size	_ZN4asio6detail14do_throw_errorERKSt10error_codePKc, .-_ZN4asio6detail14do_throw_errorERKSt10error_codePKc
	.section	.text._ZN4asio6detail15throw_exceptionISt12out_of_rangeEEvRKT_,"axG",@progbits,_ZN4asio6detail15throw_exceptionISt12out_of_rangeEEvRKT_,comdat
	.p2align 4,,15
	.weak	_ZN4asio6detail15throw_exceptionISt12out_of_rangeEEvRKT_
	.type	_ZN4asio6detail15throw_exceptionISt12out_of_rangeEEvRKT_, @function
_ZN4asio6detail15throw_exceptionISt12out_of_rangeEEvRKT_:
.LFB8510:
	.cfi_startproc
	pushq	%rbp
	.cfi_def_cfa_offset 16
	.cfi_offset 6, -16
	pushq	%rbx
	.cfi_def_cfa_offset 24
	.cfi_offset 3, -24
	movq	%rdi, %rbp
	movl	$16, %edi
	subq	$8, %rsp
	.cfi_def_cfa_offset 32
	call	__cxa_allocate_exception@PLT
	movq	%rbp, %rsi
	movq	%rax, %rdi
	movq	%rax, %rbx
	call	_ZNSt11logic_errorC2ERKS_@PLT
	movq	_ZTVSt12out_of_range@GOTPCREL(%rip), %rax
	movq	_ZNSt12out_of_rangeD1Ev@GOTPCREL(%rip), %rdx
	movq	%rbx, %rdi
	movq	_ZTISt12out_of_range@GOTPCREL(%rip), %rsi
	addq	$16, %rax
	movq	%rax, (%rbx)
	call	__cxa_throw@PLT
	.cfi_endproc
.LFE8510:
	.size	_ZN4asio6detail15throw_exceptionISt12out_of_rangeEEvRKT_, .-_ZN4asio6detail15throw_exceptionISt12out_of_rangeEEvRKT_
	.section	.text._ZNSt7__cxx1115basic_stringbufIcSt11char_traitsIcESaIcEED2Ev,"axG",@progbits,_ZNSt7__cxx1115basic_stringbufIcSt11char_traitsIcESaIcEED5Ev,comdat
	.align 2
	.p2align 4,,15
	.weak	_ZNSt7__cxx1115basic_stringbufIcSt11char_traitsIcESaIcEED2Ev
	.type	_ZNSt7__cxx1115basic_stringbufIcSt11char_traitsIcESaIcEED2Ev, @function
_ZNSt7__cxx1115basic_stringbufIcSt11char_traitsIcESaIcEED2Ev:
.LFB8572:
	.cfi_startproc
	movq	_ZTVNSt7__cxx1115basic_stringbufIcSt11char_traitsIcESaIcEEE@GOTPCREL(%rip), %rax
	pushq	%rbx
	.cfi_def_cfa_offset 16
	.cfi_offset 3, -16
	movq	%rdi, %rbx
	addq	$16, %rax
	movq	%rax, (%rdi)
	movq	72(%rdi), %rdi
	leaq	88(%rbx), %rax
	cmpq	%rax, %rdi
	je	.L964
	call	_ZdlPv@PLT
.L964:
	movq	_ZTVSt15basic_streambufIcSt11char_traitsIcEE@GOTPCREL(%rip), %rax
	leaq	56(%rbx), %rdi
	addq	$16, %rax
	movq	%rax, (%rbx)
	popq	%rbx
	.cfi_def_cfa_offset 8
	jmp	_ZNSt6localeD1Ev@PLT
	.cfi_endproc
.LFE8572:
	.size	_ZNSt7__cxx1115basic_stringbufIcSt11char_traitsIcESaIcEED2Ev, .-_ZNSt7__cxx1115basic_stringbufIcSt11char_traitsIcESaIcEED2Ev
	.weak	_ZNSt7__cxx1115basic_stringbufIcSt11char_traitsIcESaIcEED1Ev
	.set	_ZNSt7__cxx1115basic_stringbufIcSt11char_traitsIcESaIcEED1Ev,_ZNSt7__cxx1115basic_stringbufIcSt11char_traitsIcESaIcEED2Ev
	.section	.rodata.str1.1,"aMS",@progbits,1
.LC22:
	.string	"session-"
	.text
	.align 2
	.p2align 4,,15
	.globl	_ZN8asiodnp315MasterTCPServer17SessionIdToStringB5cxx11Em
	.type	_ZN8asiodnp315MasterTCPServer17SessionIdToStringB5cxx11Em, @function
_ZN8asiodnp315MasterTCPServer17SessionIdToStringB5cxx11Em:
.LFB8093:
	.cfi_startproc
	.cfi_personality 0x9b,DW.ref.__gxx_personality_v0
	.cfi_lsda 0x1b,.LLSDA8093
	pushq	%r15
	.cfi_def_cfa_offset 16
	.cfi_offset 15, -16
	pushq	%r14
	.cfi_def_cfa_offset 24
	.cfi_offset 14, -24
	pushq	%r13
	.cfi_def_cfa_offset 32
	.cfi_offset 13, -32
	pushq	%r12
	.cfi_def_cfa_offset 40
	.cfi_offset 12, -40
	pushq	%rbp
	.cfi_def_cfa_offset 48
	.cfi_offset 6, -48
	pushq	%rbx
	.cfi_def_cfa_offset 56
	.cfi_offset 3, -56
	movq	%rdi, %rbp
	subq	$488, %rsp
	.cfi_def_cfa_offset 544
	leaq	96(%rsp), %rbx
	movq	%rsi, (%rsp)
	movq	%fs:40, %rax
	movq	%rax, 472(%rsp)
	xorl	%eax, %eax
	leaq	112(%rbx), %rdi
	call	_ZNSt8ios_baseC2Ev@PLT
	movq	_ZTTNSt7__cxx1119basic_ostringstreamIcSt11char_traitsIcESaIcEEE@GOTPCREL(%rip), %r14
	movb	$0, 432(%rsp)
	xorl	%esi, %esi
	movq	_ZTVSt9basic_iosIcSt11char_traitsIcEE@GOTPCREL(%rip), %rax
	movq	$0, 424(%rsp)
	movb	$0, 433(%rsp)
	movq	$0, 440(%rsp)
	movq	8(%r14), %r12
	movq	16(%r14), %r15
	addq	$16, %rax
	movq	$0, 448(%rsp)
	movq	$0, 456(%rsp)
	movq	%rax, 208(%rsp)
	movq	$0, 464(%rsp)
	movq	-24(%r12), %rdi
	movq	%r12, 96(%rsp)
	addq	%rbx, %rdi
	movq	%r15, (%rdi)
.LEHB15:
	call	_ZNSt9basic_iosIcSt11char_traitsIcEE4initEPSt15basic_streambufIcS1_E@PLT
.LEHE15:
	movq	_ZTVNSt7__cxx1119basic_ostringstreamIcSt11char_traitsIcESaIcEEE@GOTPCREL(%rip), %r13
	pxor	%xmm0, %xmm0
	leaq	64(%rbx), %rdi
	leaq	24(%r13), %rax
	movaps	%xmm0, 112(%rsp)
	movq	%rax, 96(%rsp)
	leaq	64(%r13), %rax
	movaps	%xmm0, 128(%rsp)
	movaps	%xmm0, 144(%rsp)
	movq	%rax, 208(%rsp)
	movq	_ZTVSt15basic_streambufIcSt11char_traitsIcEE@GOTPCREL(%rip), %rax
	addq	$16, %rax
	movq	%rax, 104(%rsp)
	call	_ZNSt6localeC1Ev@PLT
	movq	_ZTVNSt7__cxx1115basic_stringbufIcSt11char_traitsIcESaIcEEE@GOTPCREL(%rip), %rax
	leaq	8(%rbx), %rsi
	leaq	112(%rbx), %rdi
	movl	$16, 168(%rsp)
	movq	$0, 184(%rsp)
	movb	$0, 192(%rsp)
	addq	$16, %rax
	movq	%rax, 104(%rsp)
	leaq	96(%rbx), %rax
	movq	%rax, 176(%rsp)
.LEHB16:
	call	_ZNSt9basic_iosIcSt11char_traitsIcEE4initEPSt15basic_streambufIcS1_E@PLT
.LEHE16:
	leaq	.LC22(%rip), %rsi
	movl	$8, %edx
	movq	%rbx, %rdi
.LEHB17:
	call	_ZSt16__ostream_insertIcSt11char_traitsIcEERSt13basic_ostreamIT_T0_ES6_PKS3_l@PLT
	movq	(%rsp), %rsi
	movq	%rbx, %rdi
	call	_ZNSo9_M_insertImEERSoT_@PLT
.LEHE17:
	leaq	16(%rbp), %rax
	movq	$0, 8(%rbp)
	movb	$0, 16(%rbp)
	movq	%rax, 8(%rsp)
	movq	%rax, 0(%rbp)
	movq	144(%rsp), %rax
	testq	%rax, %rax
	je	.L970
	movq	128(%rsp), %r15
	movq	136(%rsp), %r12
	cmpq	%r15, %rax
	ja	.L1030
	leaq	32(%rsp), %rax
	testq	%r12, %r12
	movq	%rax, (%rsp)
	leaq	48(%rsp), %rax
	movq	%rax, 32(%rsp)
	jne	.L985
	testq	%r15, %r15
	jne	.L1031
.L985:
	subq	%r12, %r15
	cmpq	$15, %r15
	movq	%r15, 24(%rsp)
	ja	.L1032
	cmpq	$1, %r15
	jne	.L988
	movzbl	(%r12), %eax
	movb	%al, 48(%rsp)
	movq	(%rsp), %rax
	addq	$16, %rax
.L989:
	movq	%r15, 40(%rsp)
	movb	$0, (%rax,%r15)
	movq	(%rsp), %rax
	movq	32(%rsp), %rsi
	movq	0(%rbp), %rdi
	movq	40(%rsp), %rdx
	addq	$16, %rax
	cmpq	%rax, %rsi
	je	.L1033
	cmpq	%rdi, 8(%rsp)
	movq	48(%rsp), %rax
	je	.L1034
	testq	%rdi, %rdi
	movq	16(%rbp), %rcx
	movq	%rsi, 0(%rbp)
	movq	%rdx, 8(%rbp)
	movq	%rax, 16(%rbp)
	je	.L995
	movq	(%rsp), %rax
	movq	%rdi, 32(%rsp)
	movq	%rcx, 48(%rsp)
.L993:
	movq	$0, 40(%rsp)
	movb	$0, (%rdi)
	addq	$16, %rax
	movq	32(%rsp), %rdi
	cmpq	%rax, %rdi
	jne	.L1029
	jmp	.L996
	.p2align 4,,10
	.p2align 3
.L1030:
	leaq	64(%rsp), %rcx
	leaq	80(%rsp), %rdx
	testq	%r12, %r12
	movq	%rcx, (%rsp)
	movq	%rdx, 64(%rsp)
	je	.L1035
	subq	%r12, %rax
	cmpq	$15, %rax
	movq	%rax, %r15
	movq	%rax, 16(%rsp)
	ja	.L1036
	cmpq	$1, %rax
	jne	.L975
	movzbl	(%r12), %eax
	movb	%al, 80(%rsp)
.L976:
	movq	(%rsp), %rax
	movq	%r15, 72(%rsp)
	movb	$0, (%rdx,%r15)
	movq	64(%rsp), %rsi
	movq	0(%rbp), %rdi
	addq	$16, %rax
	cmpq	%rax, %rsi
	je	.L1037
	cmpq	%rdi, 8(%rsp)
	movq	80(%rsp), %rax
	movq	72(%rsp), %rdx
	je	.L1038
	testq	%rdi, %rdi
	movq	16(%rbp), %rcx
	movq	%rsi, 0(%rbp)
	movq	%rdx, 8(%rbp)
	movq	%rax, 16(%rbp)
	je	.L982
	movq	(%rsp), %rax
	movq	%rdi, 64(%rsp)
	movq	%rcx, 80(%rsp)
.L980:
	movq	$0, 72(%rsp)
	movb	$0, (%rdi)
	addq	$16, %rax
	movq	64(%rsp), %rdi
	cmpq	%rax, %rdi
	je	.L996
.L1029:
	call	_ZdlPv@PLT
.L996:
	movq	8(%r14), %r12
	movq	16(%r14), %r15
.L984:
	leaq	64(%r13), %rax
	leaq	24(%r13), %rcx
	movq	176(%rsp), %rdi
	movq	%rax, 208(%rsp)
	movq	_ZTVNSt7__cxx1115basic_stringbufIcSt11char_traitsIcESaIcEEE@GOTPCREL(%rip), %rax
	movq	%rcx, (%rsp)
	movq	(%rsp), %xmm0
	addq	$16, %rax
	movq	%rax, (%rsp)
	leaq	96(%rbx), %rax
	movhps	(%rsp), %xmm0
	cmpq	%rax, %rdi
	movaps	%xmm0, 96(%rsp)
	je	.L1000
	call	_ZdlPv@PLT
.L1000:
	leaq	64(%rbx), %rdi
	movq	_ZTVSt15basic_streambufIcSt11char_traitsIcEE@GOTPCREL(%rip), %rax
	addq	$16, %rax
	movq	%rax, 104(%rsp)
	call	_ZNSt6localeD1Ev@PLT
	movq	-24(%r12), %rax
	movq	%r12, 96(%rsp)
	leaq	112(%rbx), %rdi
	movq	%r15, 96(%rsp,%rax)
	movq	_ZTVSt9basic_iosIcSt11char_traitsIcEE@GOTPCREL(%rip), %rax
	addq	$16, %rax
	movq	%rax, 208(%rsp)
	call	_ZNSt8ios_baseD2Ev@PLT
	movq	472(%rsp), %rcx
	xorq	%fs:40, %rcx
	movq	%rbp, %rax
	jne	.L1039
	addq	$488, %rsp
	.cfi_remember_state
	.cfi_def_cfa_offset 56
	popq	%rbx
	.cfi_def_cfa_offset 48
	popq	%rbp
	.cfi_def_cfa_offset 40
	popq	%r12
	.cfi_def_cfa_offset 32
	popq	%r13
	.cfi_def_cfa_offset 24
	popq	%r14
	.cfi_def_cfa_offset 16
	popq	%r15
	.cfi_def_cfa_offset 8
	ret
	.p2align 4,,10
	.p2align 3
.L988:
	.cfi_restore_state
	movq	(%rsp), %rax
	addq	$16, %rax
	testq	%r15, %r15
	je	.L989
	jmp	.L987
	.p2align 4,,10
	.p2align 3
.L975:
	testq	%rax, %rax
	je	.L976
	movq	%rdx, %rax
	jmp	.L974
	.p2align 4,,10
	.p2align 3
.L970:
	leaq	80(%rbx), %rsi
	movq	%rbp, %rdi
.LEHB18:
	call	_ZNSt7__cxx1112basic_stringIcSt11char_traitsIcESaIcEE9_M_assignERKS4_@PLT
	jmp	.L984
	.p2align 4,,10
	.p2align 3
.L1036:
	leaq	16(%rsp), %rsi
	movq	%rcx, %rdi
	xorl	%edx, %edx
	call	_ZNSt7__cxx1112basic_stringIcSt11char_traitsIcESaIcEE9_M_createERmm@PLT
	movq	16(%rsp), %rdx
	movq	%rax, 64(%rsp)
	movq	%rdx, 80(%rsp)
.L974:
	movq	%r15, %rdx
	movq	%r12, %rsi
	movq	%rax, %rdi
	call	memcpy@PLT
	movq	16(%rsp), %r15
	movq	64(%rsp), %rdx
	jmp	.L976
	.p2align 4,,10
	.p2align 3
.L1032:
	movq	(%rsp), %rdi
	leaq	24(%rsp), %rsi
	xorl	%edx, %edx
	call	_ZNSt7__cxx1112basic_stringIcSt11char_traitsIcESaIcEE9_M_createERmm@PLT
.LEHE18:
	movq	24(%rsp), %rdx
	movq	%rax, 32(%rsp)
	movq	%rdx, 48(%rsp)
.L987:
	movq	%r15, %rdx
	movq	%r12, %rsi
	movq	%rax, %rdi
	call	memcpy@PLT
	movq	24(%rsp), %r15
	movq	32(%rsp), %rax
	jmp	.L989
	.p2align 4,,10
	.p2align 3
.L1037:
	movq	72(%rsp), %rdx
	testq	%rdx, %rdx
	je	.L978
	cmpq	$1, %rdx
	jne	.L979
	movzbl	80(%rsp), %eax
	movb	%al, (%rdi)
	movq	72(%rsp), %rdx
	movq	0(%rbp), %rdi
.L978:
	movq	%rdx, 8(%rbp)
	movq	(%rsp), %rax
	movb	$0, (%rdi,%rdx)
	movq	64(%rsp), %rdi
	jmp	.L980
	.p2align 4,,10
	.p2align 3
.L1033:
	testq	%rdx, %rdx
	je	.L991
	cmpq	$1, %rdx
	jne	.L992
	movzbl	48(%rsp), %eax
	movb	%al, (%rdi)
	movq	40(%rsp), %rdx
	movq	0(%rbp), %rdi
.L991:
	movq	%rdx, 8(%rbp)
	movq	(%rsp), %rax
	movb	$0, (%rdi,%rdx)
	movq	32(%rsp), %rdi
	jmp	.L993
	.p2align 4,,10
	.p2align 3
.L1034:
	movq	%rsi, 0(%rbp)
	movq	%rdx, 8(%rbp)
	movq	%rax, 16(%rbp)
.L995:
	movq	(%rsp), %rax
	leaq	16(%rax), %rdi
	movq	%rdi, 32(%rsp)
	jmp	.L993
	.p2align 4,,10
	.p2align 3
.L1038:
	movq	%rsi, 0(%rbp)
	movq	%rdx, 8(%rbp)
	movq	%rax, 16(%rbp)
.L982:
	movq	(%rsp), %rax
	leaq	16(%rax), %rdi
	movq	%rdi, 64(%rsp)
	jmp	.L980
	.p2align 4,,10
	.p2align 3
.L979:
	call	memcpy@PLT
	movq	72(%rsp), %rdx
	movq	0(%rbp), %rdi
	jmp	.L978
	.p2align 4,,10
	.p2align 3
.L992:
	call	memcpy@PLT
	movq	40(%rsp), %rdx
	movq	0(%rbp), %rdi
	jmp	.L991
.L1039:
	call	__stack_chk_fail@PLT
.L1004:
	movq	%rax, %r12
.L999:
	movq	%rbx, %rdi
	call	_ZNSt7__cxx1119basic_ostringstreamIcSt11char_traitsIcESaIcEED1Ev@PLT
	movq	%r12, %rdi
.LEHB19:
	call	_Unwind_Resume@PLT
.L1006:
	leaq	8(%rbx), %rdi
	movq	%rax, %rbp
	call	_ZNSt7__cxx1115basic_stringbufIcSt11char_traitsIcESaIcEED1Ev@PLT
	movq	-24(%r12), %rax
	movq	%r12, 96(%rsp)
	movq	%r15, 96(%rsp,%rax)
.L969:
	movq	_ZTVSt9basic_iosIcSt11char_traitsIcEE@GOTPCREL(%rip), %rax
	leaq	112(%rbx), %rdi
	addq	$16, %rax
	movq	%rax, 208(%rsp)
	call	_ZNSt8ios_baseD2Ev@PLT
	movq	%rbp, %rdi
	call	_Unwind_Resume@PLT
.LEHE19:
.L1007:
	movq	0(%rbp), %rdi
	cmpq	%rdi, 8(%rsp)
	movq	%rax, %r12
	je	.L999
	call	_ZdlPv@PLT
	jmp	.L999
.L1035:
	leaq	.LC4(%rip), %rdi
.LEHB20:
	call	_ZSt19__throw_logic_errorPKc@PLT
.L1005:
	movq	%rax, %rbp
	jmp	.L969
.L1031:
	leaq	.LC4(%rip), %rdi
	call	_ZSt19__throw_logic_errorPKc@PLT
.LEHE20:
	.cfi_endproc
.LFE8093:
	.section	.gcc_except_table,"a",@progbits
.LLSDA8093:
	.byte	0xff
	.byte	0xff
	.byte	0x1
	.uleb128 .LLSDACSE8093-.LLSDACSB8093
.LLSDACSB8093:
	.uleb128 .LEHB15-.LFB8093
	.uleb128 .LEHE15-.LEHB15
	.uleb128 .L1005-.LFB8093
	.uleb128 0
	.uleb128 .LEHB16-.LFB8093
	.uleb128 .LEHE16-.LEHB16
	.uleb128 .L1006-.LFB8093
	.uleb128 0
	.uleb128 .LEHB17-.LFB8093
	.uleb128 .LEHE17-.LEHB17
	.uleb128 .L1004-.LFB8093
	.uleb128 0
	.uleb128 .LEHB18-.LFB8093
	.uleb128 .LEHE18-.LEHB18
	.uleb128 .L1007-.LFB8093
	.uleb128 0
	.uleb128 .LEHB19-.LFB8093
	.uleb128 .LEHE19-.LEHB19
	.uleb128 0
	.uleb128 0
	.uleb128 .LEHB20-.LFB8093
	.uleb128 .LEHE20-.LEHB20
	.uleb128 .L1007-.LFB8093
	.uleb128 0
.LLSDACSE8093:
	.text
	.size	_ZN8asiodnp315MasterTCPServer17SessionIdToStringB5cxx11Em, .-_ZN8asiodnp315MasterTCPServer17SessionIdToStringB5cxx11Em
	.section	.text._ZNSt7__cxx1115basic_stringbufIcSt11char_traitsIcESaIcEED0Ev,"axG",@progbits,_ZNSt7__cxx1115basic_stringbufIcSt11char_traitsIcESaIcEED5Ev,comdat
	.align 2
	.p2align 4,,15
	.weak	_ZNSt7__cxx1115basic_stringbufIcSt11char_traitsIcESaIcEED0Ev
	.type	_ZNSt7__cxx1115basic_stringbufIcSt11char_traitsIcESaIcEED0Ev, @function
_ZNSt7__cxx1115basic_stringbufIcSt11char_traitsIcESaIcEED0Ev:
.LFB8574:
	.cfi_startproc
	movq	_ZTVNSt7__cxx1115basic_stringbufIcSt11char_traitsIcESaIcEEE@GOTPCREL(%rip), %rax
	pushq	%rbx
	.cfi_def_cfa_offset 16
	.cfi_offset 3, -16
	movq	%rdi, %rbx
	addq	$16, %rax
	movq	%rax, (%rdi)
	movq	72(%rdi), %rdi
	leaq	88(%rbx), %rax
	cmpq	%rax, %rdi
	je	.L1041
	call	_ZdlPv@PLT
.L1041:
	movq	_ZTVSt15basic_streambufIcSt11char_traitsIcEE@GOTPCREL(%rip), %rax
	leaq	56(%rbx), %rdi
	addq	$16, %rax
	movq	%rax, (%rbx)
	call	_ZNSt6localeD1Ev@PLT
	movq	%rbx, %rdi
	movl	$104, %esi
	popq	%rbx
	.cfi_def_cfa_offset 8
	jmp	_ZdlPvm@PLT
	.cfi_endproc
.LFE8574:
	.size	_ZNSt7__cxx1115basic_stringbufIcSt11char_traitsIcESaIcEED0Ev, .-_ZNSt7__cxx1115basic_stringbufIcSt11char_traitsIcESaIcEED0Ev
	.section	.rodata._ZN4asio2iplsIcSt11char_traitsIcENS0_3tcpEEERSt13basic_ostreamIT_T0_ES9_RKNS0_14basic_endpointIT1_EE.str1.1,"aMS",@progbits,1
.LC23:
	.string	"%lu"
	.section	.text._ZN4asio2iplsIcSt11char_traitsIcENS0_3tcpEEERSt13basic_ostreamIT_T0_ES9_RKNS0_14basic_endpointIT1_EE,"axG",@progbits,_ZN4asio2iplsIcSt11char_traitsIcENS0_3tcpEEERSt13basic_ostreamIT_T0_ES9_RKNS0_14basic_endpointIT1_EE,comdat
	.p2align 4,,15
	.weak	_ZN4asio2iplsIcSt11char_traitsIcENS0_3tcpEEERSt13basic_ostreamIT_T0_ES9_RKNS0_14basic_endpointIT1_EE
	.type	_ZN4asio2iplsIcSt11char_traitsIcENS0_3tcpEEERSt13basic_ostreamIT_T0_ES9_RKNS0_14basic_endpointIT1_EE, @function
_ZN4asio2iplsIcSt11char_traitsIcENS0_3tcpEEERSt13basic_ostreamIT_T0_ES9_RKNS0_14basic_endpointIT1_EE:
.LFB8963:
	.cfi_startproc
	.cfi_personality 0x9b,DW.ref.__gxx_personality_v0
	.cfi_lsda 0x1b,.LLSDA8963
	pushq	%r15
	.cfi_def_cfa_offset 16
	.cfi_offset 15, -16
	pushq	%r14
	.cfi_def_cfa_offset 24
	.cfi_offset 14, -24
	pushq	%r13
	.cfi_def_cfa_offset 32
	.cfi_offset 13, -32
	pushq	%r12
	.cfi_def_cfa_offset 40
	.cfi_offset 12, -40
	movq	%rdi, %r12
	pushq	%rbp
	.cfi_def_cfa_offset 48
	.cfi_offset 6, -48
	pushq	%rbx
	.cfi_def_cfa_offset 56
	.cfi_offset 3, -56
	subq	$648, %rsp
	.cfi_def_cfa_offset 704
	movzwl	2(%rsi), %edx
	movq	%fs:40, %rax
	movq	%rax, 632(%rsp)
	xorl	%eax, %eax
#APP
# 3414 "/home/raihan/OpenPLC_v3/utils/dnp3_src/deps/asio/asio/include/asio/detail/impl/socket_ops.ipp" 1
	rorw $8, %dx
# 0 "" 2
#NO_APP
	cmpw	$2, (%rsi)
	movzwl	%dx, %edx
	je	.L1132
	movdqu	8(%rsi), %xmm0
	movl	24(%rsi), %eax
	movl	$1, 144(%rsp)
	movups	%xmm0, 152(%rsp)
	movl	$0, 148(%rsp)
	movq	%rax, 168(%rsp)
.L1045:
	leaq	144(%rsp), %rbx
	leaq	48(%rsp), %rdi
	movq	%rbx, %rsi
.LEHB21:
	call	_ZN4asio2ip6detail8endpointC1ERKNS0_7addressEt@PLT
	movl	$0, 32(%rsp)
	call	_ZNSt3_V215system_categoryEv@PLT
	movq	%rax, 40(%rsp)
	call	__errno_location@PLT
	cmpw	$2, 48(%rsp)
	movq	%rax, %rbp
	je	.L1133
	movl	72(%rsp), %r13d
	leaq	560(%rsp), %r15
	leaq	8(%rbx), %rsi
	movdqu	56(%rsp), %xmm0
	movl	$63, %ecx
	movl	$0, (%rax)
	movq	%r15, %rdx
	movl	$10, %edi
	movl	$1, 144(%rsp)
	movl	$0, 148(%rsp)
	movups	%xmm0, 152(%rsp)
	movq	%r13, 168(%rsp)
	movq	%r13, %r14
	call	inet_ntop@PLT
	movq	%rax, %r9
	movq	_ZGVZN4asio15system_categoryEvE8instance@GOTPCREL(%rip), %rax
	movzbl	(%rax), %eax
	testb	%al, %al
	je	.L1049
.L1128:
	movq	_ZZN4asio15system_categoryEvE8instance@GOTPCREL(%rip), %rcx
.L1050:
	movl	0(%rbp), %eax
	testq	%r9, %r9
	movq	%rcx, 40(%rsp)
	movl	%eax, 32(%rsp)
	je	.L1134
	testq	%r13, %r13
	je	.L1059
	movzbl	152(%rsp), %eax
	movq	$37, 528(%rsp)
	movq	$0, 536(%rsp)
	movb	$0, 544(%rsp)
	cmpb	$-2, %al
	je	.L1135
	cmpb	$-1, %al
	jne	.L1129
	movzbl	153(%rsp), %eax
	leaq	528(%rsp), %rbp
	andl	$15, %eax
	cmpb	$2, %al
	je	.L1056
.L1058:
	leaq	1(%rbp), %rdi
	leaq	.LC23(%rip), %rcx
	movq	%r13, %r8
	movl	$16, %edx
	movl	$1, %esi
	xorl	%eax, %eax
	movq	%r9, (%rsp)
	call	__sprintf_chk@PLT
	movq	(%rsp), %r9
.L1057:
	movl	$63, %edx
	movq	%rbp, %rsi
	movq	%r15, %rdi
	movq	%r9, (%rsp)
	call	__strcat_chk@PLT
	movq	(%rsp), %r9
.L1059:
	leaq	112(%rsp), %rbp
	movq	%r9, %rsi
	movq	%rbp, %rdi
	call	_ZNSt7__cxx1112basic_stringIcSt11char_traitsIcESaIcEEC2EPKcRKS3_.isra.88
.LEHE21:
	movl	32(%rsp), %eax
	testl	%eax, %eax
	jne	.L1054
	.p2align 4,,10
	.p2align 3
.L1067:
	leaq	112(%rbx), %rdi
	call	_ZNSt8ios_baseC2Ev@PLT
	movq	_ZTVSt9basic_iosIcSt11char_traitsIcEE@GOTPCREL(%rip), %rax
	movb	$0, 480(%rsp)
	xorl	%esi, %esi
	movq	$0, 472(%rsp)
	movb	$0, 481(%rsp)
	movq	$0, 488(%rsp)
	movq	$0, 496(%rsp)
	addq	$16, %rax
	movq	$0, 504(%rsp)
	movq	$0, 512(%rsp)
	movq	%rax, 256(%rsp)
	movq	_ZTTNSt7__cxx1119basic_ostringstreamIcSt11char_traitsIcESaIcEEE@GOTPCREL(%rip), %rax
	movq	8(%rax), %r13
	movq	16(%rax), %r15
	movq	-24(%r13), %rdi
	movq	%r13, 144(%rsp)
	addq	%rbx, %rdi
	movq	%r15, (%rdi)
.LEHB22:
	call	_ZNSt9basic_iosIcSt11char_traitsIcEE4initEPSt15basic_streambufIcS1_E@PLT
.LEHE22:
	movq	_ZTVNSt7__cxx1119basic_ostringstreamIcSt11char_traitsIcESaIcEEE@GOTPCREL(%rip), %rax
	pxor	%xmm0, %xmm0
	leaq	64(%rbx), %rdi
	addq	$24, %rax
	movq	%rax, 144(%rsp)
	movq	_ZTVNSt7__cxx1119basic_ostringstreamIcSt11char_traitsIcESaIcEEE@GOTPCREL(%rip), %rax
	movaps	%xmm0, 160(%rsp)
	addq	$64, %rax
	movaps	%xmm0, 176(%rsp)
	movq	%rax, 256(%rsp)
	movq	_ZTVSt15basic_streambufIcSt11char_traitsIcEE@GOTPCREL(%rip), %rax
	movaps	%xmm0, 192(%rsp)
	addq	$16, %rax
	movq	%rax, 152(%rsp)
	call	_ZNSt6localeC1Ev@PLT
	movq	_ZTVNSt7__cxx1115basic_stringbufIcSt11char_traitsIcESaIcEEE@GOTPCREL(%rip), %rax
	leaq	8(%rbx), %rsi
	leaq	112(%rbx), %rdi
	movl	$16, 216(%rsp)
	movq	$0, 232(%rsp)
	movb	$0, 240(%rsp)
	addq	$16, %rax
	movq	%rax, 152(%rsp)
	leaq	96(%rbx), %rax
	movq	%rax, 224(%rsp)
.LEHB23:
	call	_ZNSt9basic_iosIcSt11char_traitsIcEE4initEPSt15basic_streambufIcS1_E@PLT
.LEHE23:
.LEHB24:
	call	_ZNSt6locale7classicEv@PLT
	leaq	24(%rsp), %r14
	leaq	112(%rbx), %rsi
	movq	%rax, %rdx
	movq	%r14, %rdi
	call	_ZNSt9basic_iosIcSt11char_traitsIcEE5imbueERKSt6locale@PLT
	movq	%r14, %rdi
	call	_ZNSt6localeD1Ev@PLT
	cmpw	$2, 48(%rsp)
	je	.L1136
	leaq	23(%rsp), %rsi
	movl	$1, %edx
	movq	%rbx, %rdi
	movb	$91, 23(%rsp)
	call	_ZSt16__ostream_insertIcSt11char_traitsIcEERSt13basic_ostreamIT_T0_ES6_PKS3_l@PLT
	movq	120(%rsp), %rdx
	movq	112(%rsp), %rsi
	movq	%rax, %rdi
	call	_ZSt16__ostream_insertIcSt11char_traitsIcEERSt13basic_ostreamIT_T0_ES6_PKS3_l@PLT
	leaq	22(%rsp), %rsi
	movl	$1, %edx
	movq	%rax, %rdi
	movb	$93, 22(%rsp)
	call	_ZSt16__ostream_insertIcSt11char_traitsIcEERSt13basic_ostreamIT_T0_ES6_PKS3_l@PLT
.L1074:
	leaq	21(%rsp), %rsi
	movl	$1, %edx
	movq	%rbx, %rdi
	movb	$58, 21(%rsp)
	call	_ZSt16__ostream_insertIcSt11char_traitsIcEERSt13basic_ostreamIT_T0_ES6_PKS3_l@PLT
	movzwl	50(%rsp), %esi
	movq	%rax, %rdi
#APP
# 3414 "/home/raihan/OpenPLC_v3/utils/dnp3_src/deps/asio/asio/include/asio/detail/impl/socket_ops.ipp" 1
	rorw $8, %si
# 0 "" 2
#NO_APP
	movzwl	%si, %esi
	call	_ZNSo9_M_insertImEERSoT_@PLT
	leaq	80(%rsp), %r14
	leaq	8(%rbx), %rsi
	movq	%r14, %rdi
	call	_ZNKSt7__cxx1115basic_stringbufIcSt11char_traitsIcESaIcEE3strEv@PLT
.LEHE24:
	movq	_ZTVNSt7__cxx1119basic_ostringstreamIcSt11char_traitsIcESaIcEEE@GOTPCREL(%rip), %rax
	movq	_ZTVNSt7__cxx1119basic_ostringstreamIcSt11char_traitsIcESaIcEEE@GOTPCREL(%rip), %rcx
	movq	224(%rsp), %rdi
	addq	$64, %rax
	addq	$24, %rcx
	movq	%rax, 256(%rsp)
	movq	_ZTVNSt7__cxx1115basic_stringbufIcSt11char_traitsIcESaIcEEE@GOTPCREL(%rip), %rax
	movq	%rcx, (%rsp)
	movq	(%rsp), %xmm0
	addq	$16, %rax
	movq	%rax, (%rsp)
	leaq	96(%rbx), %rax
	movhps	(%rsp), %xmm0
	cmpq	%rax, %rdi
	movaps	%xmm0, 144(%rsp)
	je	.L1077
	call	_ZdlPv@PLT
.L1077:
	leaq	64(%rbx), %rdi
	movq	_ZTVSt15basic_streambufIcSt11char_traitsIcEE@GOTPCREL(%rip), %rax
	addq	$16, %rax
	movq	%rax, 152(%rsp)
	call	_ZNSt6localeD1Ev@PLT
	movq	-24(%r13), %rax
	movq	%r13, 144(%rsp)
	leaq	112(%rbx), %rdi
	movq	%r15, 144(%rsp,%rax)
	movq	_ZTVSt9basic_iosIcSt11char_traitsIcEE@GOTPCREL(%rip), %rax
	addq	$16, %rax
	movq	%rax, 256(%rsp)
	call	_ZNSt8ios_baseD2Ev@PLT
	jmp	.L1068
	.p2align 4,,10
	.p2align 3
.L1133:
	movl	52(%rsp), %eax
	pxor	%xmm0, %xmm0
	leaq	560(%rsp), %rdx
	leaq	4(%rbx), %rsi
	movl	$0, 0(%rbp)
	movl	$16, %ecx
	movl	$2, %edi
	movl	$0, 144(%rsp)
	movl	%eax, 148(%rsp)
	movq	$0, 168(%rsp)
	movups	%xmm0, 152(%rsp)
	call	inet_ntop@PLT
	movq	%rax, %r13
	movq	_ZGVZN4asio15system_categoryEvE8instance@GOTPCREL(%rip), %r14
	movzbl	(%r14), %eax
	testb	%al, %al
	je	.L1047
.L1130:
	movq	_ZZN4asio15system_categoryEvE8instance@GOTPCREL(%rip), %rcx
.L1048:
	movl	0(%rbp), %eax
	testq	%r13, %r13
	movq	%rcx, 40(%rsp)
	movl	%eax, 32(%rsp)
	je	.L1137
	leaq	112(%rsp), %rbp
	movq	%r13, %rdi
	leaq	16(%rbp), %rax
	movq	%rax, 112(%rsp)
	call	strlen@PLT
	leaq	0(%r13,%rax), %rdx
	movq	%r13, %rsi
	movq	%rbp, %rdi
.LEHB25:
	call	_ZNSt7__cxx1112basic_stringIcSt11char_traitsIcESaIcEE12_M_constructIPKcEEvT_S8_St20forward_iterator_tag.isra.86
.LEHE25:
	movl	32(%rsp), %eax
.L1060:
	testl	%eax, %eax
	je	.L1067
.L1054:
	leaq	80(%rsp), %r14
	movq	$0, 88(%rsp)
	movb	$0, 96(%rsp)
	leaq	16(%r14), %rax
	movq	%rax, 80(%rsp)
.L1068:
	movq	112(%rsp), %rdi
	addq	$16, %rbp
	cmpq	%rbp, %rdi
	je	.L1078
	call	_ZdlPv@PLT
.L1078:
	movl	32(%rsp), %eax
	testl	%eax, %eax
	je	.L1138
	movq	(%r12), %rax
	movq	-24(%rax), %rdi
	addq	%r12, %rdi
	testb	$4, 28(%rdi)
	jne	.L1139
	movl	32(%rdi), %esi
	orl	$4, %esi
.LEHB26:
	call	_ZNSt9basic_iosIcSt11char_traitsIcEE5clearESt12_Ios_Iostate@PLT
	movq	80(%rsp), %rdi
.L1084:
	addq	$16, %r14
	cmpq	%r14, %rdi
	je	.L1091
	call	_ZdlPv@PLT
.L1091:
	movq	632(%rsp), %rcx
	xorq	%fs:40, %rcx
	movq	%r12, %rax
	jne	.L1140
	addq	$648, %rsp
	.cfi_remember_state
	.cfi_def_cfa_offset 56
	popq	%rbx
	.cfi_def_cfa_offset 48
	popq	%rbp
	.cfi_def_cfa_offset 40
	popq	%r12
	.cfi_def_cfa_offset 32
	popq	%r13
	.cfi_def_cfa_offset 24
	popq	%r14
	.cfi_def_cfa_offset 16
	popq	%r15
	.cfi_def_cfa_offset 8
	ret
	.p2align 4,,10
	.p2align 3
.L1047:
	.cfi_restore_state
	movq	%r14, %rdi
	call	__cxa_guard_acquire@PLT
	testl	%eax, %eax
	je	.L1130
	movq	%r14, %rdi
	call	__cxa_guard_release@PLT
	movq	_ZZN4asio15system_categoryEvE8instance@GOTPCREL(%rip), %rcx
	movq	_ZN4asio6detail15system_categoryD1Ev@GOTPCREL(%rip), %rdi
	leaq	__dso_handle(%rip), %rdx
	movq	%rcx, %rsi
	movq	%rcx, (%rsp)
	call	__cxa_atexit@PLT
	movq	(%rsp), %rcx
	jmp	.L1048
	.p2align 4,,10
	.p2align 3
.L1137:
	testl	%eax, %eax
	je	.L1141
.L1063:
	leaq	112(%rsp), %rbp
	movq	$0, 120(%rsp)
	movb	$0, 128(%rsp)
	leaq	16(%rbp), %rdx
	movq	%rdx, 112(%rsp)
	jmp	.L1060
	.p2align 4,,10
	.p2align 3
.L1138:
	cmpq	$0, 88(%rsp)
	movq	80(%rsp), %rdi
	je	.L1084
	movq	(%r12), %rax
	movsbl	(%rdi), %r15d
	movq	-24(%rax), %rax
	movl	%r15d, %ebx
	movq	240(%r12,%rax), %rbp
	testq	%rbp, %rbp
	je	.L1085
	leaq	24(%rsp), %rax
	leaq	1(%rdi), %r13
	movq	%rax, (%rsp)
	jmp	.L1087
	.p2align 4,,10
	.p2align 3
.L1142:
	movzbl	%bl, %ebx
	movzbl	57(%rbp,%rbx), %ebx
.L1089:
	movq	(%rsp), %rsi
	movl	$1, %edx
	movq	%r12, %rdi
	movb	%bl, 24(%rsp)
	call	_ZSt16__ostream_insertIcSt11char_traitsIcEERSt13basic_ostreamIT_T0_ES6_PKS3_l@PLT
	movq	80(%rsp), %rdi
	movq	88(%rsp), %rax
	addq	%rdi, %rax
	cmpq	%rax, %r13
	je	.L1084
	movq	(%r12), %rax
	movsbl	0(%r13), %r15d
	addq	$1, %r13
	movq	-24(%rax), %rax
	movl	%r15d, %ebx
	movq	240(%r12,%rax), %rbp
	testq	%rbp, %rbp
	je	.L1085
.L1087:
	cmpb	$0, 56(%rbp)
	jne	.L1142
	movq	%rbp, %rdi
	call	_ZNKSt5ctypeIcE13_M_widen_initEv@PLT
	movq	0(%rbp), %rax
	movq	48(%rax), %rax
	cmpq	_ZNKSt5ctypeIcE8do_widenEc@GOTPCREL(%rip), %rax
	je	.L1089
	movl	%r15d, %esi
	movq	%rbp, %rdi
	call	*%rax
.LEHE26:
	movl	%eax, %ebx
	jmp	.L1089
	.p2align 4,,10
	.p2align 3
.L1132:
	movl	4(%rsi), %eax
	pxor	%xmm0, %xmm0
	movl	$0, 144(%rsp)
	movq	$0, 168(%rsp)
	movl	%eax, 148(%rsp)
	movups	%xmm0, 152(%rsp)
	jmp	.L1045
	.p2align 4,,10
	.p2align 3
.L1134:
	testl	%eax, %eax
	jne	.L1063
	call	_ZN4asio15system_categoryEv@PLT
	movl	$22, 32(%rsp)
	movq	%rax, 40(%rsp)
	jmp	.L1131
	.p2align 4,,10
	.p2align 3
.L1141:
	movzbl	(%r14), %eax
	testb	%al, %al
	je	.L1143
.L1065:
	movl	$22, 32(%rsp)
	movq	%rcx, 40(%rsp)
.L1131:
	leaq	112(%rsp), %rbp
	movq	$0, 120(%rsp)
	movb	$0, 128(%rsp)
	leaq	16(%rbp), %rax
	movq	%rax, 112(%rsp)
	jmp	.L1054
	.p2align 4,,10
	.p2align 3
.L1136:
	movq	120(%rsp), %rdx
	movq	112(%rsp), %rsi
	movq	%rbx, %rdi
.LEHB27:
	call	_ZSt16__ostream_insertIcSt11char_traitsIcEERSt13basic_ostreamIT_T0_ES6_PKS3_l@PLT
.LEHE27:
	jmp	.L1074
	.p2align 4,,10
	.p2align 3
.L1049:
	movq	_ZGVZN4asio15system_categoryEvE8instance@GOTPCREL(%rip), %rdi
	movq	%r9, (%rsp)
	call	__cxa_guard_acquire@PLT
	testl	%eax, %eax
	movq	(%rsp), %r9
	je	.L1128
	movq	_ZGVZN4asio15system_categoryEvE8instance@GOTPCREL(%rip), %rdi
	movq	%r9, 8(%rsp)
	call	__cxa_guard_release@PLT
	movq	_ZZN4asio15system_categoryEvE8instance@GOTPCREL(%rip), %rcx
	movq	_ZN4asio6detail15system_categoryD1Ev@GOTPCREL(%rip), %rdi
	leaq	__dso_handle(%rip), %rdx
	movq	%rcx, %rsi
	movq	%rcx, (%rsp)
	call	__cxa_atexit@PLT
	movq	8(%rsp), %r9
	movq	(%rsp), %rcx
	jmp	.L1050
.L1143:
	movq	%r14, %rdi
	movq	%rcx, (%rsp)
	call	__cxa_guard_acquire@PLT
	testl	%eax, %eax
	movq	(%rsp), %rcx
	je	.L1065
	movq	%r14, %rdi
	call	__cxa_guard_release@PLT
	movq	(%rsp), %rcx
	movq	_ZN4asio6detail15system_categoryD1Ev@GOTPCREL(%rip), %rdi
	leaq	__dso_handle(%rip), %rdx
	movq	%rcx, %rsi
	call	__cxa_atexit@PLT
	movq	(%rsp), %rcx
	jmp	.L1065
	.p2align 4,,10
	.p2align 3
.L1135:
	movzbl	153(%rsp), %eax
	andl	$-64, %eax
	cmpb	$-128, %al
	je	.L1056
.L1129:
	leaq	528(%rsp), %rbp
	jmp	.L1058
.L1056:
	leaq	528(%rsp), %rbp
	movl	%r14d, %edi
	movq	%r9, (%rsp)
	leaq	1(%rbp), %rsi
	call	if_indextoname@PLT
	testq	%rax, %rax
	movq	(%rsp), %r9
	jne	.L1057
	jmp	.L1058
.L1085:
.LEHB28:
	call	_ZSt16__throw_bad_castv@PLT
.LEHE28:
.L1099:
	movq	80(%rsp), %rdi
	addq	$16, %r14
	movq	%rax, %rbx
	cmpq	%r14, %rdi
	je	.L1093
	call	_ZdlPv@PLT
.L1093:
	movq	%rbx, %rdi
.LEHB29:
	call	_Unwind_Resume@PLT
.LEHE29:
.L1140:
	call	__stack_chk_fail@PLT
.L1139:
	leaq	32(%rsp), %rdi
.LEHB30:
	call	_ZN4asio6detail14do_throw_errorERKSt10error_code@PLT
.LEHE30:
.L1101:
	movq	%rax, %r12
.L1071:
	movq	_ZTVSt9basic_iosIcSt11char_traitsIcEE@GOTPCREL(%rip), %rax
	leaq	112(%rbx), %rdi
	addq	$16, %rax
	movq	%rax, 256(%rsp)
	call	_ZNSt8ios_baseD2Ev@PLT
.L1072:
	movq	112(%rsp), %rdi
	addq	$16, %rbp
	cmpq	%rbp, %rdi
	je	.L1082
	call	_ZdlPv@PLT
.L1082:
	movq	%r12, %rdi
.LEHB31:
	call	_Unwind_Resume@PLT
.LEHE31:
.L1102:
	leaq	8(%rbx), %rdi
	movq	%rax, %r12
	call	_ZNSt7__cxx1115basic_stringbufIcSt11char_traitsIcESaIcEED1Ev@PLT
	movq	-24(%r13), %rax
	movq	%r13, 144(%rsp)
	movq	%r15, 144(%rsp,%rax)
	jmp	.L1071
.L1100:
	movq	%rbx, %rdi
	movq	%rax, %r12
	call	_ZNSt7__cxx1119basic_ostringstreamIcSt11char_traitsIcESaIcEED1Ev@PLT
	jmp	.L1072
	.cfi_endproc
.LFE8963:
	.section	.gcc_except_table
.LLSDA8963:
	.byte	0xff
	.byte	0xff
	.byte	0x1
	.uleb128 .LLSDACSE8963-.LLSDACSB8963
.LLSDACSB8963:
	.uleb128 .LEHB21-.LFB8963
	.uleb128 .LEHE21-.LEHB21
	.uleb128 0
	.uleb128 0
	.uleb128 .LEHB22-.LFB8963
	.uleb128 .LEHE22-.LEHB22
	.uleb128 .L1101-.LFB8963
	.uleb128 0
	.uleb128 .LEHB23-.LFB8963
	.uleb128 .LEHE23-.LEHB23
	.uleb128 .L1102-.LFB8963
	.uleb128 0
	.uleb128 .LEHB24-.LFB8963
	.uleb128 .LEHE24-.LEHB24
	.uleb128 .L1100-.LFB8963
	.uleb128 0
	.uleb128 .LEHB25-.LFB8963
	.uleb128 .LEHE25-.LEHB25
	.uleb128 0
	.uleb128 0
	.uleb128 .LEHB26-.LFB8963
	.uleb128 .LEHE26-.LEHB26
	.uleb128 .L1099-.LFB8963
	.uleb128 0
	.uleb128 .LEHB27-.LFB8963
	.uleb128 .LEHE27-.LEHB27
	.uleb128 .L1100-.LFB8963
	.uleb128 0
	.uleb128 .LEHB28-.LFB8963
	.uleb128 .LEHE28-.LEHB28
	.uleb128 .L1099-.LFB8963
	.uleb128 0
	.uleb128 .LEHB29-.LFB8963
	.uleb128 .LEHE29-.LEHB29
	.uleb128 0
	.uleb128 0
	.uleb128 .LEHB30-.LFB8963
	.uleb128 .LEHE30-.LEHB30
	.uleb128 .L1099-.LFB8963
	.uleb128 0
	.uleb128 .LEHB31-.LFB8963
	.uleb128 .LEHE31-.LEHB31
	.uleb128 0
	.uleb128 0
.LLSDACSE8963:
	.section	.text._ZN4asio2iplsIcSt11char_traitsIcENS0_3tcpEEERSt13basic_ostreamIT_T0_ES9_RKNS0_14basic_endpointIT1_EE,"axG",@progbits,_ZN4asio2iplsIcSt11char_traitsIcENS0_3tcpEEERSt13basic_ostreamIT_T0_ES9_RKNS0_14basic_endpointIT1_EE,comdat
	.size	_ZN4asio2iplsIcSt11char_traitsIcENS0_3tcpEEERSt13basic_ostreamIT_T0_ES9_RKNS0_14basic_endpointIT1_EE, .-_ZN4asio2iplsIcSt11char_traitsIcENS0_3tcpEEERSt13basic_ostreamIT_T0_ES9_RKNS0_14basic_endpointIT1_EE
	.section	.text._ZNSt16_Sp_counted_baseILN9__gnu_cxx12_Lock_policyE2EE10_M_releaseEv,"axG",@progbits,_ZNSt16_Sp_counted_baseILN9__gnu_cxx12_Lock_policyE2EE10_M_releaseEv,comdat
	.align 2
	.p2align 4,,15
	.weak	_ZNSt16_Sp_counted_baseILN9__gnu_cxx12_Lock_policyE2EE10_M_releaseEv
	.type	_ZNSt16_Sp_counted_baseILN9__gnu_cxx12_Lock_policyE2EE10_M_releaseEv, @function
_ZNSt16_Sp_counted_baseILN9__gnu_cxx12_Lock_policyE2EE10_M_releaseEv:
.LFB9085:
	.cfi_startproc
	cmpq	$0, _ZL28__gthrw___pthread_key_createPjPFvPvE@GOTPCREL(%rip)
	pushq	%rbx
	.cfi_def_cfa_offset 16
	.cfi_offset 3, -16
	movq	%rdi, %rbx
	je	.L1145
	lock subl	$1, 8(%rdi)
	je	.L1152
.L1144:
	popq	%rbx
	.cfi_remember_state
	.cfi_def_cfa_offset 8
	ret
	.p2align 4,,10
	.p2align 3
.L1145:
	.cfi_restore_state
	movl	8(%rdi), %eax
	leal	-1(%rax), %edx
	cmpl	$1, %eax
	movl	%edx, 8(%rdi)
	jne	.L1144
	movq	(%rdi), %rax
	call	*16(%rax)
	movl	12(%rbx), %eax
	leal	-1(%rax), %edx
	movl	%edx, 12(%rbx)
	jmp	.L1150
	.p2align 4,,10
	.p2align 3
.L1152:
	movq	(%rdi), %rax
	call	*16(%rax)
	movl	$-1, %eax
	lock xaddl	%eax, 12(%rbx)
.L1150:
	cmpl	$1, %eax
	jne	.L1144
	movq	(%rbx), %rax
	movq	%rbx, %rdi
	popq	%rbx
	.cfi_def_cfa_offset 8
	movq	24(%rax), %rax
	jmp	*%rax
	.cfi_endproc
.LFE9085:
	.size	_ZNSt16_Sp_counted_baseILN9__gnu_cxx12_Lock_policyE2EE10_M_releaseEv, .-_ZNSt16_Sp_counted_baseILN9__gnu_cxx12_Lock_policyE2EE10_M_releaseEv
	.text
	.align 2
	.p2align 4,,15
	.globl	_ZN8asiodnp315MasterTCPServer10OnShutdownEv
	.type	_ZN8asiodnp315MasterTCPServer10OnShutdownEv, @function
_ZN8asiodnp315MasterTCPServer10OnShutdownEv:
.LFB8072:
	.cfi_startproc
	.cfi_personality 0x9b,DW.ref.__gxx_personality_v0
	.cfi_lsda 0x1b,.LLSDA8072
	pushq	%rbx
	.cfi_def_cfa_offset 16
	.cfi_offset 3, -16
	movq	%rdi, %rcx
	subq	$32, %rsp
	.cfi_def_cfa_offset 48
	movq	16(%rcx), %rdx
	movq	224(%rdi), %rdi
	movq	%fs:40, %rax
	movq	%rax, 24(%rsp)
	xorl	%eax, %eax
	testq	%rdx, %rdx
	je	.L1154
	movl	8(%rdx), %eax
	leaq	8(%rdx), %rsi
	testl	%eax, %eax
	je	.L1154
.L1179:
	leal	1(%rax), %r8d
	lock cmpxchgl	%r8d, (%rsi)
	jne	.L1182
	movq	8(%rcx), %rax
	movq	%rsp, %rsi
	movq	%rdx, 8(%rsp)
	movq	%rax, (%rsp)
.LEHB32:
	call	_ZN7asiopal15ResourceManager6DetachERKSt10shared_ptrINS_9IResourceEE@PLT
.LEHE32:
	movq	8(%rsp), %rdi
	testq	%rdi, %rdi
	je	.L1153
	call	_ZNSt16_Sp_counted_baseILN9__gnu_cxx12_Lock_policyE2EE10_M_releaseEv@PLT
.L1153:
	movq	24(%rsp), %rax
	xorq	%fs:40, %rax
	jne	.L1183
	addq	$32, %rsp
	.cfi_remember_state
	.cfi_def_cfa_offset 16
	popq	%rbx
	.cfi_def_cfa_offset 8
	ret
.L1182:
	.cfi_restore_state
	testl	%eax, %eax
	jne	.L1179
.L1154:
.LEHB33:
	call	_ZSt20__throw_bad_weak_ptrv@PLT
.L1183:
	call	__stack_chk_fail@PLT
.L1163:
	movq	8(%rsp), %rdi
	movq	%rax, %rbx
	testq	%rdi, %rdi
	je	.L1161
	call	_ZNSt16_Sp_counted_baseILN9__gnu_cxx12_Lock_policyE2EE10_M_releaseEv@PLT
.L1161:
	movq	%rbx, %rdi
	call	_Unwind_Resume@PLT
.LEHE33:
	.cfi_endproc
.LFE8072:
	.section	.gcc_except_table
.LLSDA8072:
	.byte	0xff
	.byte	0xff
	.byte	0x1
	.uleb128 .LLSDACSE8072-.LLSDACSB8072
.LLSDACSB8072:
	.uleb128 .LEHB32-.LFB8072
	.uleb128 .LEHE32-.LEHB32
	.uleb128 .L1163-.LFB8072
	.uleb128 0
	.uleb128 .LEHB33-.LFB8072
	.uleb128 .LEHE33-.LEHB33
	.uleb128 0
	.uleb128 0
.LLSDACSE8072:
	.text
	.size	_ZN8asiodnp315MasterTCPServer10OnShutdownEv, .-_ZN8asiodnp315MasterTCPServer10OnShutdownEv
	.section	.text._ZN4asio6detail18completion_handlerIZN7asiopal13IAsyncChannel16CheckForShutdownESt10shared_ptrIS3_EEUlvE_E11do_completeEPNS0_15task_io_serviceEPNS0_25task_io_service_operationERKSt10error_codem,"axG",@progbits,_ZN4asio6detail18completion_handlerIZN7asiopal13IAsyncChannel16CheckForShutdownESt10shared_ptrIS3_EEUlvE_E11do_completeEPNS0_15task_io_serviceEPNS0_25task_io_service_operationERKSt10error_codem,comdat
	.p2align 4,,15
	.weak	_ZN4asio6detail18completion_handlerIZN7asiopal13IAsyncChannel16CheckForShutdownESt10shared_ptrIS3_EEUlvE_E11do_completeEPNS0_15task_io_serviceEPNS0_25task_io_service_operationERKSt10error_codem
	.type	_ZN4asio6detail18completion_handlerIZN7asiopal13IAsyncChannel16CheckForShutdownESt10shared_ptrIS3_EEUlvE_E11do_completeEPNS0_15task_io_serviceEPNS0_25task_io_service_operationERKSt10error_codem, @function
_ZN4asio6detail18completion_handlerIZN7asiopal13IAsyncChannel16CheckForShutdownESt10shared_ptrIS3_EEUlvE_E11do_completeEPNS0_15task_io_serviceEPNS0_25task_io_service_operationERKSt10error_codem:
.LFB10015:
	.cfi_startproc
	.cfi_personality 0x9b,DW.ref.__gxx_personality_v0
	.cfi_lsda 0x1b,.LLSDA10015
	pushq	%r15
	.cfi_def_cfa_offset 16
	.cfi_offset 15, -16
	pushq	%r14
	.cfi_def_cfa_offset 24
	.cfi_offset 14, -24
	pushq	%r13
	.cfi_def_cfa_offset 32
	.cfi_offset 13, -32
	pushq	%r12
	.cfi_def_cfa_offset 40
	.cfi_offset 12, -40
	movq	%rdi, %r13
	pushq	%rbp
	.cfi_def_cfa_offset 48
	.cfi_offset 6, -48
	pushq	%rbx
	.cfi_def_cfa_offset 56
	.cfi_offset 3, -56
	movq	%rsi, %rbp
	subq	$56, %rsp
	.cfi_def_cfa_offset 112
	movq	24(%rsi), %r12
	movq	32(%rsi), %rbx
	movq	%fs:40, %rax
	movq	%rax, 40(%rsp)
	xorl	%eax, %eax
	.byte	0x66
	leaq	_ZN4asio6detail15keyword_tss_ptrINS0_10call_stackINS0_15task_io_serviceENS0_27task_io_service_thread_infoEE7contextEE6value_E@tlsgd(%rip), %rdi
	.value	0x6666
	rex64
	call	__tls_get_addr@PLT
	movq	(%rax), %rax
	testq	%rax, %rax
	je	.L1185
	movq	8(%rax), %rax
	testq	%rax, %rax
	je	.L1185
	cmpq	$0, (%rax)
	je	.L1297
.L1185:
	movq	%rbp, %rdi
	call	_ZdlPv@PLT
.L1186:
	testq	%r13, %r13
	je	.L1187
	testq	%rbx, %rbx
	je	.L1188
	cmpq	$0, _ZL28__gthrw___pthread_key_createPjPFvPvE@GOTPCREL(%rip)
	leaq	8(%rbx), %rax
	jne	.L1298
	movl	8(%rbx), %eax
	addl	$1, %eax
	cmpb	$0, 57(%r12)
	movl	%eax, 8(%rbx)
	jne	.L1229
	cmpb	$0, 58(%r12)
	je	.L1241
.L1229:
	addl	$2, %eax
	movq	24(%r12), %r13
	movq	%r12, 16(%rsp)
	movq	%rbx, 24(%rsp)
	movl	%eax, 8(%rbx)
	movq	%rbx, %r15
.L1194:
	leaq	16(%rsp), %rdi
	xorl	%eax, %eax
	movq	40(%r13), %r12
	call	_ZN4asio28asio_handler_is_continuationEz@PLT
	movl	%eax, %r14d
	.byte	0x66
	leaq	_ZN4asio6detail15keyword_tss_ptrINS0_10call_stackINS0_15task_io_serviceENS0_27task_io_service_thread_infoEE7contextEE6value_E@tlsgd(%rip), %rdi
	.value	0x6666
	rex64
	call	__tls_get_addr@PLT
	movq	(%rax), %rax
	testq	%rax, %rax
	je	.L1195
	movq	8(%rax), %rax
	testq	%rax, %rax
	je	.L1195
	movq	(%rax), %rbp
	testq	%rbp, %rbp
	je	.L1195
	movq	$0, (%rax)
	movzbl	0(%rbp), %eax
	cmpb	$39, %al
	jbe	.L1196
	movb	%al, 40(%rbp)
.L1197:
	movq	_ZN4asio6detail18completion_handlerIZN7asiopal13IAsyncChannel16CheckForShutdownESt10shared_ptrIS3_EEUlvE_E11do_completeEPNS0_15task_io_serviceEPNS0_25task_io_service_operationERKSt10error_codem@GOTPCREL(%rip), %rax
	pxor	%xmm0, %xmm0
	movq	$0, 0(%rbp)
	movl	$0, 16(%rbp)
	movq	%r15, 32(%rbp)
	movq	%rax, 8(%rbp)
	movq	16(%rsp), %rax
	movaps	%xmm0, 16(%rsp)
	movq	%rax, 24(%rbp)
	movq	48(%r13), %rax
	leaq	24(%rax), %rdi
	call	pthread_mutex_lock@PLT
	movq	48(%r13), %rdi
	cmpb	$0, 64(%rdi)
	je	.L1299
	cmpq	$0, 80(%rdi)
	movq	$0, 0(%rbp)
	je	.L1198
	movq	80(%rdi), %rax
	movq	%rbp, (%rax)
	movq	%rbp, 80(%rdi)
.L1199:
	addq	$24, %rdi
	call	pthread_mutex_unlock@PLT
.L1200:
	testq	%rbx, %rbx
	je	.L1225
	movq	%rbx, %rdi
	call	_ZNSt16_Sp_counted_baseILN9__gnu_cxx12_Lock_policyE2EE10_M_releaseEv@PLT
.L1222:
	testq	%rbx, %rbx
	je	.L1225
.L1238:
	movq	%rbx, %rdi
	call	_ZNSt16_Sp_counted_baseILN9__gnu_cxx12_Lock_policyE2EE10_M_releaseEv@PLT
.L1225:
	sfence
.L1187:
	testq	%rbx, %rbx
	je	.L1184
	movq	%rbx, %rdi
	call	_ZNSt16_Sp_counted_baseILN9__gnu_cxx12_Lock_policyE2EE10_M_releaseEv@PLT
.L1184:
	movq	40(%rsp), %rax
	xorq	%fs:40, %rax
	jne	.L1300
	addq	$56, %rsp
	.cfi_remember_state
	.cfi_def_cfa_offset 56
	popq	%rbx
	.cfi_def_cfa_offset 48
	popq	%rbp
	.cfi_def_cfa_offset 40
	popq	%r12
	.cfi_def_cfa_offset 32
	popq	%r13
	.cfi_def_cfa_offset 24
	popq	%r14
	.cfi_def_cfa_offset 16
	popq	%r15
	.cfi_def_cfa_offset 8
	ret
	.p2align 4,,10
	.p2align 3
.L1298:
	.cfi_restore_state
	lock addl	$1, (%rax)
	cmpb	$0, 57(%r12)
	jne	.L1239
	cmpb	$0, 58(%r12)
	je	.L1241
.L1239:
	lock addl	$1, (%rax)
	movq	24(%r12), %r13
	movq	%r12, 16(%rsp)
	movq	%rbx, 24(%rsp)
	lock addl	$1, (%rax)
	movq	24(%rsp), %r15
	jmp	.L1194
	.p2align 4,,10
	.p2align 3
.L1188:
	cmpb	$0, 57(%r12)
	jne	.L1230
	cmpb	$0, 58(%r12)
	je	.L1301
.L1230:
	movq	24(%r12), %r13
	movq	%r12, 16(%rsp)
	xorl	%r15d, %r15d
	movq	$0, 24(%rsp)
	jmp	.L1194
	.p2align 4,,10
	.p2align 3
.L1297:
	movzbl	40(%rbp), %edx
	movb	%dl, 0(%rbp)
	movq	%rbp, (%rax)
	jmp	.L1186
	.p2align 4,,10
	.p2align 3
.L1196:
	movq	%rbp, %rdi
	call	_ZdlPv@PLT
.L1195:
	movl	$41, %edi
.LEHB34:
	call	_Znwm@PLT
.LEHE34:
	movq	%rax, %rbp
	movb	$40, 40(%rax)
	jmp	.L1197
	.p2align 4,,10
	.p2align 3
.L1241:
	movq	48(%r12), %rdi
	movq	$0, 40(%r12)
	movq	$0, 48(%r12)
	testq	%rdi, %rdi
	je	.L1238
.L1237:
	call	_ZNSt16_Sp_counted_baseILN9__gnu_cxx12_Lock_policyE2EE10_M_releaseEv@PLT
	jmp	.L1222
	.p2align 4,,10
	.p2align 3
.L1299:
	movb	$1, 64(%rdi)
	movq	48(%r13), %rax
	leaq	24(%rax), %rdi
	call	pthread_mutex_unlock@PLT
	movq	48(%r13), %r13
	movq	$0, 0(%rbp)
	cmpq	$0, 96(%r13)
	je	.L1201
	movq	96(%r13), %rax
	movq	%rbp, (%rax)
	movq	%rbp, 96(%r13)
.L1202:
	movq	40(%r12), %rbp
	cmpb	$0, 40(%rbp)
	jne	.L1245
	testb	%r14b, %r14b
	je	.L1203
.L1245:
	.byte	0x66
	leaq	_ZN4asio6detail15keyword_tss_ptrINS0_10call_stackINS0_15task_io_serviceENS0_27task_io_service_thread_infoEE7contextEE6value_E@tlsgd(%rip), %rdi
	.value	0x6666
	rex64
	call	__tls_get_addr@PLT
	movq	(%rax), %rax
	testq	%rax, %rax
	jne	.L1291
	jmp	.L1203
	.p2align 4,,10
	.p2align 3
.L1206:
	movq	16(%rax), %rax
	testq	%rax, %rax
	je	.L1203
.L1291:
	cmpq	(%rax), %rbp
	jne	.L1206
	movq	8(%rax), %rax
	testq	%rax, %rax
	je	.L1203
	addq	$1, 24(%rax)
	cmpq	$0, 16(%rax)
	movq	$0, 0(%r13)
	je	.L1209
	movq	16(%rax), %rdx
	movq	24(%rsp), %rdi
	movq	%r13, (%rdx)
	movq	%r13, 16(%rax)
.L1210:
	testq	%rdi, %rdi
	je	.L1200
	call	_ZNSt16_Sp_counted_baseILN9__gnu_cxx12_Lock_policyE2EE10_M_releaseEv@PLT
	jmp	.L1200
	.p2align 4,,10
	.p2align 3
.L1203:
	lock addq	$1, 184(%rbp)
	leaq	48(%rbp), %r12
	movq	%r12, %rdi
	call	pthread_mutex_lock@PLT
	cmpq	$0, 200(%rbp)
	movq	$0, 0(%r13)
	je	.L1211
	movq	200(%rbp), %rax
	movq	%r13, (%rax)
	movq	%r13, 200(%rbp)
.L1212:
	movq	136(%rbp), %rax
	orq	$1, %rax
	cmpq	$1, %rax
	movq	%rax, 136(%rbp)
	jne	.L1302
	cmpb	$0, 176(%rbp)
	jne	.L1215
	movq	144(%rbp), %rax
	testq	%rax, %rax
	je	.L1215
	leaq	88(%rax), %rdx
	movb	$1, 176(%rbp)
	movl	96(%rax), %edi
	leaq	4(%rsp), %rcx
	movl	$3, %esi
	movl	$-2147483639, 4(%rsp)
	movq	%rdx, 8(%rsp)
	movl	88(%rax), %edx
	call	epoll_ctl@PLT
.L1215:
	movq	%r12, %rdi
	call	pthread_mutex_unlock@PLT
.L1214:
	movq	24(%rsp), %rdi
	jmp	.L1210
	.p2align 4,,10
	.p2align 3
.L1198:
	movq	%rbp, 80(%rdi)
	movq	%rbp, 72(%rdi)
	jmp	.L1199
	.p2align 4,,10
	.p2align 3
.L1301:
	movq	48(%r12), %rdi
	movq	$0, 40(%r12)
	movq	$0, 48(%r12)
	testq	%rdi, %rdi
	je	.L1225
	jmp	.L1237
	.p2align 4,,10
	.p2align 3
.L1211:
	movq	%r13, 200(%rbp)
	movq	%r13, 192(%rbp)
	jmp	.L1212
	.p2align 4,,10
	.p2align 3
.L1201:
	movq	%rbp, 96(%r13)
	movq	%rbp, 88(%r13)
	jmp	.L1202
	.p2align 4,,10
	.p2align 3
.L1302:
	movq	%r12, %rdi
	call	pthread_mutex_unlock@PLT
	leaq	88(%rbp), %rdi
	call	pthread_cond_signal@PLT
	jmp	.L1214
	.p2align 4,,10
	.p2align 3
.L1209:
	movq	%r13, 16(%rax)
	movq	%r13, 8(%rax)
	movq	24(%rsp), %rdi
	jmp	.L1210
.L1300:
	call	__stack_chk_fail@PLT
.L1244:
	testq	%r15, %r15
	movq	%rax, %rbp
	je	.L1219
	movq	%r15, %rdi
	call	_ZNSt16_Sp_counted_baseILN9__gnu_cxx12_Lock_policyE2EE10_M_releaseEv@PLT
.L1219:
	testq	%rbx, %rbx
	je	.L1224
	movq	%rbx, %rdi
	call	_ZNSt16_Sp_counted_baseILN9__gnu_cxx12_Lock_policyE2EE10_M_releaseEv@PLT
	movq	%rbx, %rdi
	call	_ZNSt16_Sp_counted_baseILN9__gnu_cxx12_Lock_policyE2EE10_M_releaseEv@PLT
.L1224:
	testq	%rbx, %rbx
	sfence
	je	.L1227
	movq	%rbx, %rdi
	call	_ZNSt16_Sp_counted_baseILN9__gnu_cxx12_Lock_policyE2EE10_M_releaseEv@PLT
.L1227:
	movq	%rbp, %rdi
.LEHB35:
	call	_Unwind_Resume@PLT
.LEHE35:
	.cfi_endproc
.LFE10015:
	.section	.gcc_except_table
.LLSDA10015:
	.byte	0xff
	.byte	0xff
	.byte	0x1
	.uleb128 .LLSDACSE10015-.LLSDACSB10015
.LLSDACSB10015:
	.uleb128 .LEHB34-.LFB10015
	.uleb128 .LEHE34-.LEHB34
	.uleb128 .L1244-.LFB10015
	.uleb128 0
	.uleb128 .LEHB35-.LFB10015
	.uleb128 .LEHE35-.LEHB35
	.uleb128 0
	.uleb128 0
.LLSDACSE10015:
	.section	.text._ZN4asio6detail18completion_handlerIZN7asiopal13IAsyncChannel16CheckForShutdownESt10shared_ptrIS3_EEUlvE_E11do_completeEPNS0_15task_io_serviceEPNS0_25task_io_service_operationERKSt10error_codem,"axG",@progbits,_ZN4asio6detail18completion_handlerIZN7asiopal13IAsyncChannel16CheckForShutdownESt10shared_ptrIS3_EEUlvE_E11do_completeEPNS0_15task_io_serviceEPNS0_25task_io_service_operationERKSt10error_codem,comdat
	.size	_ZN4asio6detail18completion_handlerIZN7asiopal13IAsyncChannel16CheckForShutdownESt10shared_ptrIS3_EEUlvE_E11do_completeEPNS0_15task_io_serviceEPNS0_25task_io_service_operationERKSt10error_codem, .-_ZN4asio6detail18completion_handlerIZN7asiopal13IAsyncChannel16CheckForShutdownESt10shared_ptrIS3_EEUlvE_E11do_completeEPNS0_15task_io_serviceEPNS0_25task_io_service_operationERKSt10error_codem
	.section	.text._ZN4asio6detail18completion_handlerIZN7asiopal13IAsyncChannel8ShutdownEvEUlvE_E11do_completeEPNS0_15task_io_serviceEPNS0_25task_io_service_operationERKSt10error_codem,"axG",@progbits,_ZN4asio6detail18completion_handlerIZN7asiopal13IAsyncChannel8ShutdownEvEUlvE_E11do_completeEPNS0_15task_io_serviceEPNS0_25task_io_service_operationERKSt10error_codem,comdat
	.p2align 4,,15
	.weak	_ZN4asio6detail18completion_handlerIZN7asiopal13IAsyncChannel8ShutdownEvEUlvE_E11do_completeEPNS0_15task_io_serviceEPNS0_25task_io_service_operationERKSt10error_codem
	.type	_ZN4asio6detail18completion_handlerIZN7asiopal13IAsyncChannel8ShutdownEvEUlvE_E11do_completeEPNS0_15task_io_serviceEPNS0_25task_io_service_operationERKSt10error_codem, @function
_ZN4asio6detail18completion_handlerIZN7asiopal13IAsyncChannel8ShutdownEvEUlvE_E11do_completeEPNS0_15task_io_serviceEPNS0_25task_io_service_operationERKSt10error_codem:
.LFB10010:
	.cfi_startproc
	.cfi_personality 0x9b,DW.ref.__gxx_personality_v0
	.cfi_lsda 0x1b,.LLSDA10010
	pushq	%r15
	.cfi_def_cfa_offset 16
	.cfi_offset 15, -16
	pushq	%r14
	.cfi_def_cfa_offset 24
	.cfi_offset 14, -24
	pushq	%r13
	.cfi_def_cfa_offset 32
	.cfi_offset 13, -32
	pushq	%r12
	.cfi_def_cfa_offset 40
	.cfi_offset 12, -40
	movq	%rdi, %r13
	pushq	%rbp
	.cfi_def_cfa_offset 48
	.cfi_offset 6, -48
	pushq	%rbx
	.cfi_def_cfa_offset 56
	.cfi_offset 3, -56
	movq	%rsi, %rbp
	subq	$56, %rsp
	.cfi_def_cfa_offset 112
	movq	24(%rsi), %r12
	movq	32(%rsi), %rbx
	movq	%fs:40, %rax
	movq	%rax, 40(%rsp)
	xorl	%eax, %eax
	.byte	0x66
	leaq	_ZN4asio6detail15keyword_tss_ptrINS0_10call_stackINS0_15task_io_serviceENS0_27task_io_service_thread_infoEE7contextEE6value_E@tlsgd(%rip), %rdi
	.value	0x6666
	rex64
	call	__tls_get_addr@PLT
	movq	(%rax), %rax
	testq	%rax, %rax
	je	.L1304
	movq	8(%rax), %rax
	testq	%rax, %rax
	je	.L1304
	cmpq	$0, (%rax)
	je	.L1416
.L1304:
	movq	%rbp, %rdi
	call	_ZdlPv@PLT
.L1305:
	testq	%r13, %r13
	je	.L1306
	testq	%rbx, %rbx
	je	.L1307
	cmpq	$0, _ZL28__gthrw___pthread_key_createPjPFvPvE@GOTPCREL(%rip)
	leaq	8(%rbx), %rax
	jne	.L1417
	movl	8(%rbx), %eax
	addl	$1, %eax
	cmpb	$0, 57(%r12)
	movl	%eax, 8(%rbx)
	jne	.L1348
	cmpb	$0, 58(%r12)
	je	.L1360
.L1348:
	addl	$2, %eax
	movq	24(%r12), %r13
	movq	%r12, 16(%rsp)
	movq	%rbx, 24(%rsp)
	movl	%eax, 8(%rbx)
	movq	%rbx, %r15
.L1313:
	leaq	16(%rsp), %rdi
	xorl	%eax, %eax
	movq	40(%r13), %r12
	call	_ZN4asio28asio_handler_is_continuationEz@PLT
	movl	%eax, %r14d
	.byte	0x66
	leaq	_ZN4asio6detail15keyword_tss_ptrINS0_10call_stackINS0_15task_io_serviceENS0_27task_io_service_thread_infoEE7contextEE6value_E@tlsgd(%rip), %rdi
	.value	0x6666
	rex64
	call	__tls_get_addr@PLT
	movq	(%rax), %rax
	testq	%rax, %rax
	je	.L1314
	movq	8(%rax), %rax
	testq	%rax, %rax
	je	.L1314
	movq	(%rax), %rbp
	testq	%rbp, %rbp
	je	.L1314
	movq	$0, (%rax)
	movzbl	0(%rbp), %eax
	cmpb	$39, %al
	jbe	.L1315
	movb	%al, 40(%rbp)
.L1316:
	movq	_ZN4asio6detail18completion_handlerIZN7asiopal13IAsyncChannel16CheckForShutdownESt10shared_ptrIS3_EEUlvE_E11do_completeEPNS0_15task_io_serviceEPNS0_25task_io_service_operationERKSt10error_codem@GOTPCREL(%rip), %rax
	pxor	%xmm0, %xmm0
	movq	$0, 0(%rbp)
	movl	$0, 16(%rbp)
	movq	%r15, 32(%rbp)
	movq	%rax, 8(%rbp)
	movq	16(%rsp), %rax
	movaps	%xmm0, 16(%rsp)
	movq	%rax, 24(%rbp)
	movq	48(%r13), %rax
	leaq	24(%rax), %rdi
	call	pthread_mutex_lock@PLT
	movq	48(%r13), %rdi
	cmpb	$0, 64(%rdi)
	je	.L1418
	cmpq	$0, 80(%rdi)
	movq	$0, 0(%rbp)
	je	.L1317
	movq	80(%rdi), %rax
	movq	%rbp, (%rax)
	movq	%rbp, 80(%rdi)
.L1318:
	addq	$24, %rdi
	call	pthread_mutex_unlock@PLT
.L1319:
	testq	%rbx, %rbx
	je	.L1344
	movq	%rbx, %rdi
	call	_ZNSt16_Sp_counted_baseILN9__gnu_cxx12_Lock_policyE2EE10_M_releaseEv@PLT
.L1341:
	testq	%rbx, %rbx
	je	.L1344
.L1357:
	movq	%rbx, %rdi
	call	_ZNSt16_Sp_counted_baseILN9__gnu_cxx12_Lock_policyE2EE10_M_releaseEv@PLT
.L1344:
	sfence
.L1306:
	testq	%rbx, %rbx
	je	.L1303
	movq	%rbx, %rdi
	call	_ZNSt16_Sp_counted_baseILN9__gnu_cxx12_Lock_policyE2EE10_M_releaseEv@PLT
.L1303:
	movq	40(%rsp), %rax
	xorq	%fs:40, %rax
	jne	.L1419
	addq	$56, %rsp
	.cfi_remember_state
	.cfi_def_cfa_offset 56
	popq	%rbx
	.cfi_def_cfa_offset 48
	popq	%rbp
	.cfi_def_cfa_offset 40
	popq	%r12
	.cfi_def_cfa_offset 32
	popq	%r13
	.cfi_def_cfa_offset 24
	popq	%r14
	.cfi_def_cfa_offset 16
	popq	%r15
	.cfi_def_cfa_offset 8
	ret
	.p2align 4,,10
	.p2align 3
.L1417:
	.cfi_restore_state
	lock addl	$1, (%rax)
	cmpb	$0, 57(%r12)
	jne	.L1358
	cmpb	$0, 58(%r12)
	je	.L1360
.L1358:
	lock addl	$1, (%rax)
	movq	24(%r12), %r13
	movq	%r12, 16(%rsp)
	movq	%rbx, 24(%rsp)
	lock addl	$1, (%rax)
	movq	24(%rsp), %r15
	jmp	.L1313
	.p2align 4,,10
	.p2align 3
.L1307:
	cmpb	$0, 57(%r12)
	jne	.L1349
	cmpb	$0, 58(%r12)
	je	.L1420
.L1349:
	movq	24(%r12), %r13
	movq	%r12, 16(%rsp)
	xorl	%r15d, %r15d
	movq	$0, 24(%rsp)
	jmp	.L1313
	.p2align 4,,10
	.p2align 3
.L1416:
	movzbl	40(%rbp), %edx
	movb	%dl, 0(%rbp)
	movq	%rbp, (%rax)
	jmp	.L1305
	.p2align 4,,10
	.p2align 3
.L1315:
	movq	%rbp, %rdi
	call	_ZdlPv@PLT
.L1314:
	movl	$41, %edi
.LEHB36:
	call	_Znwm@PLT
.LEHE36:
	movq	%rax, %rbp
	movb	$40, 40(%rax)
	jmp	.L1316
	.p2align 4,,10
	.p2align 3
.L1360:
	movq	48(%r12), %rdi
	movq	$0, 40(%r12)
	movq	$0, 48(%r12)
	testq	%rdi, %rdi
	je	.L1357
.L1356:
	call	_ZNSt16_Sp_counted_baseILN9__gnu_cxx12_Lock_policyE2EE10_M_releaseEv@PLT
	jmp	.L1341
	.p2align 4,,10
	.p2align 3
.L1418:
	movb	$1, 64(%rdi)
	movq	48(%r13), %rax
	leaq	24(%rax), %rdi
	call	pthread_mutex_unlock@PLT
	movq	48(%r13), %r13
	movq	$0, 0(%rbp)
	cmpq	$0, 96(%r13)
	je	.L1320
	movq	96(%r13), %rax
	movq	%rbp, (%rax)
	movq	%rbp, 96(%r13)
.L1321:
	movq	40(%r12), %rbp
	cmpb	$0, 40(%rbp)
	jne	.L1364
	testb	%r14b, %r14b
	je	.L1322
.L1364:
	.byte	0x66
	leaq	_ZN4asio6detail15keyword_tss_ptrINS0_10call_stackINS0_15task_io_serviceENS0_27task_io_service_thread_infoEE7contextEE6value_E@tlsgd(%rip), %rdi
	.value	0x6666
	rex64
	call	__tls_get_addr@PLT
	movq	(%rax), %rax
	testq	%rax, %rax
	jne	.L1410
	jmp	.L1322
	.p2align 4,,10
	.p2align 3
.L1325:
	movq	16(%rax), %rax
	testq	%rax, %rax
	je	.L1322
.L1410:
	cmpq	(%rax), %rbp
	jne	.L1325
	movq	8(%rax), %rax
	testq	%rax, %rax
	je	.L1322
	addq	$1, 24(%rax)
	cmpq	$0, 16(%rax)
	movq	$0, 0(%r13)
	je	.L1328
	movq	16(%rax), %rdx
	movq	24(%rsp), %rdi
	movq	%r13, (%rdx)
	movq	%r13, 16(%rax)
.L1329:
	testq	%rdi, %rdi
	je	.L1319
	call	_ZNSt16_Sp_counted_baseILN9__gnu_cxx12_Lock_policyE2EE10_M_releaseEv@PLT
	jmp	.L1319
	.p2align 4,,10
	.p2align 3
.L1322:
	lock addq	$1, 184(%rbp)
	leaq	48(%rbp), %r12
	movq	%r12, %rdi
	call	pthread_mutex_lock@PLT
	cmpq	$0, 200(%rbp)
	movq	$0, 0(%r13)
	je	.L1330
	movq	200(%rbp), %rax
	movq	%r13, (%rax)
	movq	%r13, 200(%rbp)
.L1331:
	movq	136(%rbp), %rax
	orq	$1, %rax
	cmpq	$1, %rax
	movq	%rax, 136(%rbp)
	jne	.L1421
	cmpb	$0, 176(%rbp)
	jne	.L1334
	movq	144(%rbp), %rax
	testq	%rax, %rax
	je	.L1334
	leaq	88(%rax), %rdx
	movb	$1, 176(%rbp)
	movl	96(%rax), %edi
	leaq	4(%rsp), %rcx
	movl	$3, %esi
	movl	$-2147483639, 4(%rsp)
	movq	%rdx, 8(%rsp)
	movl	88(%rax), %edx
	call	epoll_ctl@PLT
.L1334:
	movq	%r12, %rdi
	call	pthread_mutex_unlock@PLT
.L1333:
	movq	24(%rsp), %rdi
	jmp	.L1329
	.p2align 4,,10
	.p2align 3
.L1317:
	movq	%rbp, 80(%rdi)
	movq	%rbp, 72(%rdi)
	jmp	.L1318
	.p2align 4,,10
	.p2align 3
.L1420:
	movq	48(%r12), %rdi
	movq	$0, 40(%r12)
	movq	$0, 48(%r12)
	testq	%rdi, %rdi
	je	.L1344
	jmp	.L1356
	.p2align 4,,10
	.p2align 3
.L1330:
	movq	%r13, 200(%rbp)
	movq	%r13, 192(%rbp)
	jmp	.L1331
	.p2align 4,,10
	.p2align 3
.L1320:
	movq	%rbp, 96(%r13)
	movq	%rbp, 88(%r13)
	jmp	.L1321
	.p2align 4,,10
	.p2align 3
.L1421:
	movq	%r12, %rdi
	call	pthread_mutex_unlock@PLT
	leaq	88(%rbp), %rdi
	call	pthread_cond_signal@PLT
	jmp	.L1333
	.p2align 4,,10
	.p2align 3
.L1328:
	movq	%r13, 16(%rax)
	movq	%r13, 8(%rax)
	movq	24(%rsp), %rdi
	jmp	.L1329
.L1419:
	call	__stack_chk_fail@PLT
.L1363:
	testq	%r15, %r15
	movq	%rax, %rbp
	je	.L1338
	movq	%r15, %rdi
	call	_ZNSt16_Sp_counted_baseILN9__gnu_cxx12_Lock_policyE2EE10_M_releaseEv@PLT
.L1338:
	testq	%rbx, %rbx
	je	.L1343
	movq	%rbx, %rdi
	call	_ZNSt16_Sp_counted_baseILN9__gnu_cxx12_Lock_policyE2EE10_M_releaseEv@PLT
	movq	%rbx, %rdi
	call	_ZNSt16_Sp_counted_baseILN9__gnu_cxx12_Lock_policyE2EE10_M_releaseEv@PLT
.L1343:
	testq	%rbx, %rbx
	sfence
	je	.L1346
	movq	%rbx, %rdi
	call	_ZNSt16_Sp_counted_baseILN9__gnu_cxx12_Lock_policyE2EE10_M_releaseEv@PLT
.L1346:
	movq	%rbp, %rdi
.LEHB37:
	call	_Unwind_Resume@PLT
.LEHE37:
	.cfi_endproc
.LFE10010:
	.section	.gcc_except_table
.LLSDA10010:
	.byte	0xff
	.byte	0xff
	.byte	0x1
	.uleb128 .LLSDACSE10010-.LLSDACSB10010
.LLSDACSB10010:
	.uleb128 .LEHB36-.LFB10010
	.uleb128 .LEHE36-.LEHB36
	.uleb128 .L1363-.LFB10010
	.uleb128 0
	.uleb128 .LEHB37-.LFB10010
	.uleb128 .LEHE37-.LEHB37
	.uleb128 0
	.uleb128 0
.LLSDACSE10010:
	.section	.text._ZN4asio6detail18completion_handlerIZN7asiopal13IAsyncChannel8ShutdownEvEUlvE_E11do_completeEPNS0_15task_io_serviceEPNS0_25task_io_service_operationERKSt10error_codem,"axG",@progbits,_ZN4asio6detail18completion_handlerIZN7asiopal13IAsyncChannel8ShutdownEvEUlvE_E11do_completeEPNS0_15task_io_serviceEPNS0_25task_io_service_operationERKSt10error_codem,comdat
	.size	_ZN4asio6detail18completion_handlerIZN7asiopal13IAsyncChannel8ShutdownEvEUlvE_E11do_completeEPNS0_15task_io_serviceEPNS0_25task_io_service_operationERKSt10error_codem, .-_ZN4asio6detail18completion_handlerIZN7asiopal13IAsyncChannel8ShutdownEvEUlvE_E11do_completeEPNS0_15task_io_serviceEPNS0_25task_io_service_operationERKSt10error_codem
	.section	.text._ZNSt8_Rb_treeISt10shared_ptrIN7asiopal9IResourceEES3_St9_IdentityIS3_ESt4lessIS3_ESaIS3_EE16_M_insert_uniqueIS3_EESt4pairISt17_Rb_tree_iteratorIS3_EbEOT_,"axG",@progbits,_ZNSt8_Rb_treeISt10shared_ptrIN7asiopal9IResourceEES3_St9_IdentityIS3_ESt4lessIS3_ESaIS3_EE16_M_insert_uniqueIS3_EESt4pairISt17_Rb_tree_iteratorIS3_EbEOT_,comdat
	.align 2
	.p2align 4,,15
	.weak	_ZNSt8_Rb_treeISt10shared_ptrIN7asiopal9IResourceEES3_St9_IdentityIS3_ESt4lessIS3_ESaIS3_EE16_M_insert_uniqueIS3_EESt4pairISt17_Rb_tree_iteratorIS3_EbEOT_
	.type	_ZNSt8_Rb_treeISt10shared_ptrIN7asiopal9IResourceEES3_St9_IdentityIS3_ESt4lessIS3_ESaIS3_EE16_M_insert_uniqueIS3_EESt4pairISt17_Rb_tree_iteratorIS3_EbEOT_, @function
_ZNSt8_Rb_treeISt10shared_ptrIN7asiopal9IResourceEES3_St9_IdentityIS3_ESt4lessIS3_ESaIS3_EE16_M_insert_uniqueIS3_EESt4pairISt17_Rb_tree_iteratorIS3_EbEOT_:
.LFB9858:
	.cfi_startproc
	pushq	%r15
	.cfi_def_cfa_offset 16
	.cfi_offset 15, -16
	pushq	%r14
	.cfi_def_cfa_offset 24
	.cfi_offset 14, -24
	leaq	8(%rdi), %r14
	pushq	%r13
	.cfi_def_cfa_offset 32
	.cfi_offset 13, -32
	pushq	%r12
	.cfi_def_cfa_offset 40
	.cfi_offset 12, -40
	movq	%rsi, %r12
	pushq	%rbp
	.cfi_def_cfa_offset 48
	.cfi_offset 6, -48
	pushq	%rbx
	.cfi_def_cfa_offset 56
	.cfi_offset 3, -56
	movq	%rdi, %rbp
	subq	$8, %rsp
	.cfi_def_cfa_offset 64
	movq	16(%rdi), %rbx
	testq	%rbx, %rbx
	je	.L1433
	movq	(%rsi), %r8
	jmp	.L1424
	.p2align 4,,10
	.p2align 3
.L1441:
	movq	16(%rbx), %rax
	movl	$1, %r9d
	testq	%rax, %rax
	je	.L1425
.L1442:
	movq	%rax, %rbx
.L1424:
	movq	32(%rbx), %rdi
	cmpq	%r8, %rdi
	ja	.L1441
	movq	24(%rbx), %rax
	xorl	%r9d, %r9d
	testq	%rax, %rax
	jne	.L1442
.L1425:
	testb	%r9b, %r9b
	movq	%rbx, %r13
	jne	.L1423
	cmpq	%rdi, %r8
	ja	.L1429
.L1439:
	addq	$8, %rsp
	.cfi_remember_state
	.cfi_def_cfa_offset 56
	movq	%rbx, %rax
	xorl	%edx, %edx
	popq	%rbx
	.cfi_def_cfa_offset 48
	popq	%rbp
	.cfi_def_cfa_offset 40
	popq	%r12
	.cfi_def_cfa_offset 32
	popq	%r13
	.cfi_def_cfa_offset 24
	popq	%r14
	.cfi_def_cfa_offset 16
	popq	%r15
	.cfi_def_cfa_offset 8
	ret
	.p2align 4,,10
	.p2align 3
.L1433:
	.cfi_restore_state
	movq	%r14, %rbx
.L1423:
	cmpq	%rbx, 24(%rbp)
	je	.L1435
	movq	%rbx, %rdi
	movq	%rbx, %r13
	call	_ZSt18_Rb_tree_decrementPSt18_Rb_tree_node_base@PLT
	movq	(%r12), %r8
	movq	32(%rax), %rdi
	movq	%rax, %rbx
	cmpq	%rdi, %r8
	jbe	.L1439
.L1429:
	cmpq	%r13, %r14
	movl	$1, %r15d
	jne	.L1443
.L1430:
	movl	$48, %edi
	call	_Znwm@PLT
	movq	%rax, %rbx
	movq	(%r12), %rax
	movq	%r13, %rdx
	movq	$0, (%r12)
	movq	%r14, %rcx
	movq	%rbx, %rsi
	movl	%r15d, %edi
	movq	%rax, 32(%rbx)
	movq	8(%r12), %rax
	movq	$0, 8(%r12)
	movq	%rax, 40(%rbx)
	call	_ZSt29_Rb_tree_insert_and_rebalancebPSt18_Rb_tree_node_baseS0_RS_@PLT
	addq	$1, 40(%rbp)
	addq	$8, %rsp
	.cfi_remember_state
	.cfi_def_cfa_offset 56
	movq	%rbx, %rax
	movl	$1, %edx
	popq	%rbx
	.cfi_def_cfa_offset 48
	popq	%rbp
	.cfi_def_cfa_offset 40
	popq	%r12
	.cfi_def_cfa_offset 32
	popq	%r13
	.cfi_def_cfa_offset 24
	popq	%r14
	.cfi_def_cfa_offset 16
	popq	%r15
	.cfi_def_cfa_offset 8
	ret
	.p2align 4,,10
	.p2align 3
.L1435:
	.cfi_restore_state
	movq	%rbx, %r13
	movl	$1, %r15d
	cmpq	%r13, %r14
	je	.L1430
.L1443:
	xorl	%r15d, %r15d
	movq	(%r12), %rax
	cmpq	%rax, 32(%r13)
	seta	%r15b
	jmp	.L1430
	.cfi_endproc
.LFE9858:
	.size	_ZNSt8_Rb_treeISt10shared_ptrIN7asiopal9IResourceEES3_St9_IdentityIS3_ESt4lessIS3_ESaIS3_EE16_M_insert_uniqueIS3_EESt4pairISt17_Rb_tree_iteratorIS3_EbEOT_, .-_ZNSt8_Rb_treeISt10shared_ptrIN7asiopal9IResourceEES3_St9_IdentityIS3_ESt4lessIS3_ESaIS3_EE16_M_insert_uniqueIS3_EESt4pairISt17_Rb_tree_iteratorIS3_EbEOT_
	.section	.rodata.str1.1
.LC24:
	.string	"remote_endpoint"
.LC25:
	.string	"Accepted connection from: %s"
	.section	.rodata.str1.8
	.align 8
.LC26:
	.string	"/home/raihan/OpenPLC_v3/utils/dnp3_src/cpp/libs/src/asiodnp3/MasterTCPServer.cpp(67)"
	.section	.rodata.str1.1
.LC27:
	.string	"close"
.LC28:
	.string	"Rejected connection from: %s"
	.section	.rodata.str1.8
	.align 8
.LC29:
	.string	"/home/raihan/OpenPLC_v3/utils/dnp3_src/cpp/libs/src/asiodnp3/MasterTCPServer.cpp(90)"
	.text
	.align 2
	.p2align 4,,15
	.globl	_ZN8asiodnp315MasterTCPServer16AcceptConnectionEmRKSt10shared_ptrIN7asiopal8ExecutorEEN4asio19basic_stream_socketINS7_2ip3tcpENS7_21stream_socket_serviceISA_EEEE
	.type	_ZN8asiodnp315MasterTCPServer16AcceptConnectionEmRKSt10shared_ptrIN7asiopal8ExecutorEEN4asio19basic_stream_socketINS7_2ip3tcpENS7_21stream_socket_serviceISA_EEEE, @function
_ZN8asiodnp315MasterTCPServer16AcceptConnectionEmRKSt10shared_ptrIN7asiopal8ExecutorEEN4asio19basic_stream_socketINS7_2ip3tcpENS7_21stream_socket_serviceISA_EEEE:
.LFB8085:
	.cfi_startproc
	.cfi_personality 0x9b,DW.ref.__gxx_personality_v0
	.cfi_lsda 0x1b,.LLSDA8085
	pushq	%r15
	.cfi_def_cfa_offset 16
	.cfi_offset 15, -16
	pushq	%r14
	.cfi_def_cfa_offset 24
	.cfi_offset 14, -24
	pushq	%r13
	.cfi_def_cfa_offset 32
	.cfi_offset 13, -32
	pushq	%r12
	.cfi_def_cfa_offset 40
	.cfi_offset 12, -40
	pushq	%rbp
	.cfi_def_cfa_offset 48
	.cfi_offset 6, -48
	pushq	%rbx
	.cfi_def_cfa_offset 56
	.cfi_offset 3, -56
	movq	%rcx, %rbx
	subq	$968, %rsp
	.cfi_def_cfa_offset 1024
	leaq	416(%rsp), %r15
	movq	%rdi, 24(%rsp)
	movq	%rsi, 40(%rsp)
	movq	%fs:40, %rax
	movq	%rax, 952(%rsp)
	xorl	%eax, %eax
	leaq	112(%r15), %rdi
	movq	%rdx, 64(%rsp)
	call	_ZNSt8ios_baseC2Ev@PLT
	movq	_ZTVSt9basic_iosIcSt11char_traitsIcEE@GOTPCREL(%rip), %rax
	movb	$0, 752(%rsp)
	xorl	%esi, %esi
	movq	$0, 744(%rsp)
	movb	$0, 753(%rsp)
	movq	$0, 760(%rsp)
	movq	$0, 768(%rsp)
	addq	$16, %rax
	movq	$0, 776(%rsp)
	movq	$0, 784(%rsp)
	movq	%rax, 528(%rsp)
	movq	_ZTTNSt7__cxx1119basic_ostringstreamIcSt11char_traitsIcESaIcEEE@GOTPCREL(%rip), %rax
	movq	8(%rax), %rbp
	movq	16(%rax), %r12
	movq	-24(%rbp), %rdi
	movq	%rbp, 416(%rsp)
	addq	%r15, %rdi
	movq	%r12, (%rdi)
.LEHB38:
	call	_ZNSt9basic_iosIcSt11char_traitsIcEE4initEPSt15basic_streambufIcS1_E@PLT
.LEHE38:
	movq	_ZTVNSt7__cxx1119basic_ostringstreamIcSt11char_traitsIcESaIcEEE@GOTPCREL(%rip), %rax
	pxor	%xmm0, %xmm0
	leaq	64(%r15), %rdi
	addq	$24, %rax
	movq	%rax, 416(%rsp)
	movq	_ZTVNSt7__cxx1119basic_ostringstreamIcSt11char_traitsIcESaIcEEE@GOTPCREL(%rip), %rax
	movaps	%xmm0, 432(%rsp)
	addq	$64, %rax
	movaps	%xmm0, 448(%rsp)
	movq	%rax, 528(%rsp)
	movq	_ZTVSt15basic_streambufIcSt11char_traitsIcEE@GOTPCREL(%rip), %rax
	movaps	%xmm0, 464(%rsp)
	addq	$16, %rax
	movq	%rax, 424(%rsp)
	call	_ZNSt6localeC1Ev@PLT
	movq	_ZTVNSt7__cxx1115basic_stringbufIcSt11char_traitsIcESaIcEEE@GOTPCREL(%rip), %rax
	leaq	8(%r15), %rsi
	leaq	112(%r15), %rdi
	movl	$16, 488(%rsp)
	movq	$0, 504(%rsp)
	movb	$0, 512(%rsp)
	addq	$16, %rax
	movq	%rax, 424(%rsp)
	leaq	96(%r15), %rax
	movq	%rax, 496(%rsp)
.LEHB39:
	call	_ZNSt9basic_iosIcSt11char_traitsIcEE4initEPSt15basic_streambufIcS1_E@PLT
.LEHE39:
	movl	$0, 96(%rsp)
	xorl	%ebp, %ebp
	movl	$2, %r13d
	call	_ZNSt3_V215system_categoryEv@PLT
	movl	(%rbx), %r12d
	pxor	%xmm0, %xmm0
	movq	%rax, (%rsp)
	movq	%rax, 104(%rsp)
	movq	$0, 306(%rsp)
	movw	%bp, 314(%rsp)
	cmpl	$-1, %r12d
	movw	%r13w, 288(%rsp)
	movups	%xmm0, 290(%rsp)
	je	.L1778
	call	__errno_location@PLT
	movq	%rax, %rbp
	leaq	288(%rsp), %rsi
	movl	%r12d, %edi
	movl	$0, (%rax)
	leaq	256(%rsp), %rax
	movl	$28, 256(%rsp)
	movq	%rax, %rdx
	movq	%rax, 16(%rsp)
	call	getpeername@PLT
	movl	%eax, %r13d
	movq	_ZGVZN4asio15system_categoryEvE8instance@GOTPCREL(%rip), %rax
	movl	256(%rsp), %r14d
	movzbl	(%rax), %eax
	testb	%al, %al
	je	.L1450
.L1770:
	movq	_ZZN4asio15system_categoryEvE8instance@GOTPCREL(%rip), %r12
.L1451:
	movl	0(%rbp), %eax
	testl	%r13d, %r13d
	movq	%r12, 104(%rsp)
	movl	%eax, 96(%rsp)
	jne	.L1453
	movq	(%rsp), %rax
	cmpl	$128, %r14d
	movl	$0, 96(%rsp)
	movq	%rax, 104(%rsp)
	ja	.L1779
	movq	304(%rsp), %rax
	movdqa	288(%rsp), %xmm0
	movq	%rax, 400(%rsp)
	movl	312(%rsp), %eax
	movaps	%xmm0, 384(%rsp)
	movl	%eax, 408(%rsp)
.L1456:
	leaq	384(%rsp), %rax
	movq	%r15, %rdi
	movq	%rax, %rsi
	movq	%rax, 32(%rsp)
.LEHB40:
	call	_ZN4asio2iplsIcSt11char_traitsIcENS0_3tcpEEERSt13basic_ostreamIT_T0_ES9_RKNS0_14basic_endpointIT1_EE@PLT
	movq	24(%rsp), %rax
	movl	(%rbx), %edi
	xorl	%esi, %esi
	pxor	%xmm0, %xmm0
	movl	$2, %r8d
	movq	208(%rax), %rax
	cmpl	$-1, %edi
	movq	%rax, 56(%rsp)
	movq	(%rax), %rax
	movl	$0, 128(%rsp)
	movw	%r8w, 320(%rsp)
	movq	16(%rax), %rax
	movq	$0, 338(%rsp)
	movups	%xmm0, 322(%rsp)
	movw	%si, 346(%rsp)
	movq	%rax, 48(%rsp)
	movq	(%rsp), %rax
	movq	%rax, 136(%rsp)
	je	.L1780
	movq	16(%rsp), %rdx
	leaq	320(%rsp), %rsi
	movl	$0, 0(%rbp)
	movl	$28, 256(%rsp)
	call	getpeername@PLT
	movl	%eax, %r13d
	movq	_ZGVZN4asio15system_categoryEvE8instance@GOTPCREL(%rip), %rax
	movl	256(%rsp), %r14d
	movzbl	(%rax), %eax
	testb	%al, %al
	je	.L1781
.L1460:
	movl	0(%rbp), %eax
	testl	%r13d, %r13d
	movq	%r12, 136(%rsp)
	movl	%eax, 128(%rsp)
	jne	.L1462
	movq	(%rsp), %rax
	cmpl	$128, %r14d
	movl	$0, 128(%rsp)
	movq	%rax, 136(%rsp)
	ja	.L1782
	cmpw	$2, 320(%rsp)
	movl	344(%rsp), %edx
	movl	324(%rsp), %eax
	movdqu	328(%rsp), %xmm0
	movl	%edx, 72(%rsp)
	je	.L1465
	movl	72(%rsp), %eax
	leaq	352(%rsp), %r13
	leaq	832(%rsp), %r14
	movl	$0, 0(%rbp)
	movl	$63, %ecx
	movl	$10, %edi
	leaq	8(%r13), %rsi
	movq	%r14, %rdx
	movl	$1, 352(%rsp)
	movl	$0, 356(%rsp)
	movl	$0, 160(%rsp)
	movq	%rax, 80(%rsp)
	movq	%rax, 376(%rsp)
	movq	(%rsp), %rax
	movups	%xmm0, 360(%rsp)
	movq	%rax, 168(%rsp)
	call	inet_ntop@PLT
	movq	%rax, %r9
	movq	_ZGVZN4asio15system_categoryEvE8instance@GOTPCREL(%rip), %rax
	movzbl	(%rax), %eax
	testb	%al, %al
	je	.L1783
.L1470:
	movl	0(%rbp), %eax
	testq	%r9, %r9
	movq	%r12, 168(%rsp)
	movl	%eax, 160(%rsp)
	je	.L1784
	cmpq	$0, 80(%rsp)
	je	.L1479
	movzbl	360(%rsp), %eax
	movq	$37, 800(%rsp)
	movq	$0, 808(%rsp)
	movb	$0, 816(%rsp)
	cmpb	$-2, %al
	je	.L1785
	cmpb	$-1, %al
	jne	.L1771
	movzbl	361(%rsp), %eax
	leaq	800(%rsp), %rbp
	andl	$15, %eax
	cmpb	$2, %al
	je	.L1476
.L1478:
	movq	80(%rsp), %r8
	leaq	1(%rbp), %rdi
	leaq	.LC23(%rip), %rcx
	movl	$16, %edx
	movl	$1, %esi
	xorl	%eax, %eax
	movq	%r9, 72(%rsp)
	call	__sprintf_chk@PLT
	movq	72(%rsp), %r9
.L1477:
	movl	$63, %edx
	movq	%rbp, %rsi
	movq	%r14, %rdi
	movq	%r9, 72(%rsp)
	call	__strcat_chk@PLT
	movq	72(%rsp), %r9
.L1479:
	movq	32(%rsp), %rdi
	movq	%r9, %rsi
	call	_ZNSt7__cxx1112basic_stringIcSt11char_traitsIcESaIcEEC2EPKcRKS3_.isra.88
	movl	160(%rsp), %ecx
	testl	%ecx, %ecx
	je	.L1481
	jmp	.L1474
	.p2align 4,,10
	.p2align 3
.L1462:
	testl	%eax, %eax
	jne	.L1458
.L1465:
	leaq	352(%rsp), %r13
	movl	%eax, 356(%rsp)
	movq	(%rsp), %rax
	pxor	%xmm0, %xmm0
	leaq	800(%rsp), %rdx
	leaq	4(%r13), %rsi
	movl	$0, 0(%rbp)
	movl	$16, %ecx
	movl	$2, %edi
	movl	$0, 352(%rsp)
	movq	$0, 376(%rsp)
	movups	%xmm0, 360(%rsp)
	movl	$0, 176(%rsp)
	movq	%rax, 184(%rsp)
	call	inet_ntop@PLT
	movq	%rax, %r14
	movq	_ZGVZN4asio15system_categoryEvE8instance@GOTPCREL(%rip), %rax
	movzbl	(%rax), %eax
	testb	%al, %al
	je	.L1786
.L1468:
	movl	0(%rbp), %eax
	testq	%r14, %r14
	movq	%r12, 184(%rsp)
	movl	%eax, 176(%rsp)
	je	.L1787
	movq	32(%rsp), %rdi
	movq	%r14, %rsi
	call	_ZNSt7__cxx1112basic_stringIcSt11char_traitsIcESaIcEEC2EPKcRKS3_.isra.88
.LEHE40:
	movl	176(%rsp), %edx
	testl	%edx, %edx
	jne	.L1491
.L1481:
	movq	32(%rsp), %r14
	movq	40(%rsp), %rsi
	movq	56(%rsp), %rdi
	movq	48(%rsp), %rax
	movq	%r14, %rdx
.LEHB41:
	call	*%rax
.LEHE41:
	movq	384(%rsp), %rdi
	movl	%eax, %ebp
	leaq	16(%r14), %rax
	cmpq	%rax, %rdi
	je	.L1495
	call	_ZdlPv@PLT
.L1495:
	testb	%bpl, %bpl
	je	.L1496
	movq	24(%rsp), %rax
	movq	16(%rsp), %rsi
	movl	$8, 256(%rsp)
	leaq	24(%rax), %rbp
	movq	%rbp, %rdi
.LEHB42:
	call	_ZNK7openpal6Logger9IsEnabledERKNS_10LogFiltersE@PLT
	testb	%al, %al
	je	.L1497
	leaq	8(%r15), %rsi
	movq	%r13, %rdi
	call	_ZNKSt7__cxx1115basic_stringbufIcSt11char_traitsIcESaIcEE3strEv@PLT
	leaq	832(%rsp), %r14
	movq	352(%rsp), %r9
	leaq	.LC25(%rip), %r8
	xorl	%eax, %eax
	movl	$120, %ecx
	movl	$1, %edx
	movq	%r14, %rdi
	movl	$120, %esi
	addq	$16, %r13
	call	__snprintf_chk@PLT
	movq	352(%rsp), %rdi
	cmpq	%r13, %rdi
	je	.L1498
	call	_ZdlPv@PLT
.L1498:
	movq	16(%rsp), %rsi
	leaq	.LC26(%rip), %rdx
	movq	%r14, %rcx
	movq	%rbp, %rdi
	movl	$8, 256(%rsp)
	call	_ZN7openpal6Logger3LogERKNS_10LogFiltersEPKcS5_@PLT
.LEHE42:
.L1497:
	movq	24(%rbx), %rax
	movl	$72, %edi
	movq	%rax, 248(%rsp)
	movl	(%rbx), %eax
	movl	$-1, (%rbx)
	movl	%eax, 224(%rsp)
	movzbl	4(%rbx), %eax
	movb	$0, 4(%rbx)
	movb	%al, 228(%rsp)
	movq	8(%rbx), %rax
	movq	$0, 8(%rbx)
	movq	%rax, 232(%rsp)
	movl	16(%rbx), %eax
	movl	$2, 16(%rbx)
	movl	%eax, 240(%rsp)
	movq	64(%rsp), %rax
	movq	(%rax), %rbp
	addq	$24, %rbp
.LEHB43:
	call	_Znwm@PLT
.LEHE43:
	movq	%rax, %rbx
	movabsq	$4294967297, %rax
	movq	%rbp, %rsi
	movq	%rax, 8(%rbx)
	movq	_ZTVSt23_Sp_counted_ptr_inplaceIN7asiopal8ExecutorESaIS1_ELN9__gnu_cxx12_Lock_policyE2EE@GOTPCREL(%rip), %rax
	leaq	16(%rbx), %rdi
	addq	$16, %rax
	movq	%rax, (%rbx)
.LEHB44:
	call	_ZN7asiopal8ExecutorC1ERKSt10shared_ptrINS_2IOEE@PLT
.LEHE44:
	movq	(%rbx), %rax
	movq	_ZTISt19_Sp_make_shared_tag@GOTPCREL(%rip), %rsi
	movq	%rbx, %rdi
	call	*32(%rax)
	testq	%rax, %rax
	movq	%rax, %r12
	je	.L1500
	movq	16(%rax), %rdi
	testq	%rdi, %rdi
	je	.L1503
	movl	8(%rdi), %eax
	testl	%eax, %eax
	jne	.L1500
.L1503:
	cmpq	$0, _ZL28__gthrw___pthread_key_createPjPFvPvE@GOTPCREL(%rip)
	movq	%r12, 8(%r12)
	je	.L1788
	lock addl	$1, 12(%rbx)
	movq	16(%r12), %rdi
	testq	%rdi, %rdi
	je	.L1505
	movl	$-1, %eax
	lock xaddl	%eax, 12(%rdi)
.L1597:
	cmpl	$1, %eax
	je	.L1789
.L1505:
	movq	%rbx, 16(%r12)
.L1500:
	movl	$112, %edi
.LEHB45:
	call	_Znwm@PLT
.LEHE45:
	movq	%rax, %rbp
	movabsq	$4294967297, %rax
	movq	_ZL28__gthrw___pthread_key_createPjPFvPvE@GOTPCREL(%rip), %r14
	movq	%rax, 8(%rbp)
	movq	_ZTVSt23_Sp_counted_ptr_inplaceIN7asiopal13SocketChannelESaIS1_ELN9__gnu_cxx12_Lock_policyE2EE@GOTPCREL(%rip), %rax
	leaq	16(%rbp), %rdi
	movq	%r12, 192(%rsp)
	movq	%rbx, 200(%rsp)
	addq	$16, %rax
	testq	%r14, %r14
	movq	%rax, 0(%rbp)
	je	.L1508
	lock addl	$1, 8(%rbx)
.L1509:
	movq	248(%rsp), %rax
	movq	16(%rsp), %r13
	leaq	192(%rsp), %r12
	movq	%r12, %rsi
	movq	%rax, 280(%rsp)
	movl	224(%rsp), %eax
	movq	%r13, %rdx
	movl	$-1, 224(%rsp)
	movl	%eax, 256(%rsp)
	movzbl	228(%rsp), %eax
	movb	$0, 228(%rsp)
	movb	%al, 260(%rsp)
	movq	232(%rsp), %rax
	movq	$0, 232(%rsp)
	movq	%rax, 264(%rsp)
	movl	240(%rsp), %eax
	movl	$2, 240(%rsp)
	movl	%eax, 272(%rsp)
.LEHB46:
	call	_ZN7asiopal13SocketChannelC1ESt10shared_ptrINS_8ExecutorEEN4asio19basic_stream_socketINS4_2ip3tcpENS4_21stream_socket_serviceIS7_EEEE@PLT
.LEHE46:
	movl	256(%rsp), %esi
	cmpl	$-1, %esi
	je	.L1510
	movzbl	260(%rsp), %ecx
	movq	280(%rsp), %rax
	leaq	8(%r13), %rdx
	movq	40(%rax), %rdi
	shrb	$6, %cl
	xorl	$1, %ecx
	andl	$1, %ecx
	call	_ZN4asio6detail13epoll_reactor21deregister_descriptorEiRPNS1_16descriptor_stateEb@PLT
	movq	(%rsp), %rax
	movl	256(%rsp), %edi
	leaq	208(%rsp), %rcx
	leaq	4(%r13), %rsi
	movl	$1, %edx
	movl	$0, 208(%rsp)
	movq	%rax, 216(%rsp)
	call	_ZN4asio6detail10socket_ops5closeEiRhbRSt10error_code@PLT
.L1510:
	movq	200(%rsp), %rdi
	testq	%rdi, %rdi
	je	.L1511
	call	_ZNSt16_Sp_counted_baseILN9__gnu_cxx12_Lock_policyE2EE10_M_releaseEv@PLT
.L1511:
	movq	0(%rbp), %rax
	movq	_ZTISt19_Sp_make_shared_tag@GOTPCREL(%rip), %rsi
	movq	%rbp, %rdi
	call	*32(%rax)
	testq	%rax, %rax
	je	.L1516
	movq	16(%rax), %rdi
	testq	%rdi, %rdi
	je	.L1515
	movl	8(%rdi), %edx
	testl	%edx, %edx
	jne	.L1516
.L1515:
	testq	%r14, %r14
	movq	%rax, 8(%rax)
	je	.L1790
	lock addl	$1, 12(%rbp)
	movq	16(%rax), %rdi
	testq	%rdi, %rdi
	je	.L1518
	movl	$-1, %edx
	lock xaddl	%edx, 12(%rdi)
.L1598:
	cmpl	$1, %edx
	je	.L1791
.L1518:
	movq	%rbp, 16(%rax)
.L1516:
	movq	%rax, 48(%rsp)
	movq	%rbx, %rdi
	movq	48(%rsp), %xmm0
	movq	%rbp, 48(%rsp)
	movhps	48(%rsp), %xmm0
	movaps	%xmm0, 192(%rsp)
	call	_ZNSt16_Sp_counted_baseILN9__gnu_cxx12_Lock_policyE2EE10_M_releaseEv@PLT
	movl	224(%rsp), %esi
	cmpl	$-1, %esi
	je	.L1592
	movzbl	228(%rsp), %ecx
	movq	248(%rsp), %rax
	leaq	224(%rsp), %rbx
	leaq	8(%rbx), %rdx
	movq	40(%rax), %rdi
	shrb	$6, %cl
	xorl	$1, %ecx
	andl	$1, %ecx
	call	_ZN4asio6detail13epoll_reactor21deregister_descriptorEiRPNS1_16descriptor_stateEb@PLT
	movq	(%rsp), %rax
	movq	16(%rsp), %rcx
	leaq	4(%rbx), %rsi
	movl	224(%rsp), %edi
	movl	$1, %edx
	movl	$0, 256(%rsp)
	movq	%rax, 264(%rsp)
	call	_ZN4asio6detail10socket_ops5closeEiRhbRSt10error_code@PLT
.L1592:
	movq	24(%rsp), %rax
	testq	%r14, %r14
	movq	224(%rax), %rbp
	leaq	8(%rbp), %r13
	je	.L1521
	movq	%r13, %rdi
	call	_ZL26__gthrw_pthread_mutex_lockP15pthread_mutex_t@PLT
	testl	%eax, %eax
	jne	.L1792
	cmpb	$0, 48(%rbp)
	je	.L1600
	movq	%r13, %rdi
	call	_ZL28__gthrw_pthread_mutex_unlockP15pthread_mutex_t@PLT
.L1523:
	movq	192(%rsp), %rbp
	cmpb	$0, 56(%rbp)
	je	.L1793
	.p2align 4,,10
	.p2align 3
.L1608:
	movq	200(%rsp), %rdi
	testq	%rdi, %rdi
	je	.L1574
	call	_ZNSt16_Sp_counted_baseILN9__gnu_cxx12_Lock_policyE2EE10_M_releaseEv@PLT
	jmp	.L1574
	.p2align 4,,10
	.p2align 3
.L1453:
	pxor	%xmm0, %xmm0
	xorl	%r9d, %r9d
	movl	$2, %r10d
	testl	%eax, %eax
	movq	$0, 402(%rsp)
	movw	%r9w, 410(%rsp)
	movw	%r10w, 384(%rsp)
	movups	%xmm0, 386(%rsp)
	je	.L1456
.L1449:
	leaq	96(%rsp), %rdi
	leaq	.LC24(%rip), %rsi
.LEHB47:
	call	_ZN4asio6detail14do_throw_errorERKSt10error_codePKc@PLT
.LEHE47:
	.p2align 4,,10
	.p2align 3
.L1786:
	movq	_ZGVZN4asio15system_categoryEvE8instance@GOTPCREL(%rip), %rdi
	call	__cxa_guard_acquire@PLT
	testl	%eax, %eax
	je	.L1468
	movq	_ZGVZN4asio15system_categoryEvE8instance@GOTPCREL(%rip), %rdi
	call	__cxa_guard_release@PLT
	movq	_ZN4asio6detail15system_categoryD1Ev@GOTPCREL(%rip), %rdi
	leaq	__dso_handle(%rip), %rdx
	movq	%r12, %rsi
	call	__cxa_atexit@PLT
	jmp	.L1468
	.p2align 4,,10
	.p2align 3
.L1787:
	testl	%eax, %eax
	je	.L1794
.L1487:
	movq	32(%rsp), %rax
	movq	$0, 392(%rsp)
	movb	$0, 400(%rsp)
	addq	$16, %rax
	movq	%rax, 384(%rsp)
.L1491:
	leaq	176(%rsp), %rdi
.LEHB48:
	call	_ZN4asio6detail14do_throw_errorERKSt10error_code@PLT
.LEHE48:
	.p2align 4,,10
	.p2align 3
.L1496:
	movl	(%rbx), %edi
	movq	(%rsp), %rax
	movl	$0, 224(%rsp)
	cmpl	$-1, %edi
	movq	%rax, 232(%rsp)
	je	.L1575
	movzbl	4(%rbx), %ecx
	movq	24(%rbx), %rax
	leaq	8(%rbx), %rdx
	movl	%edi, %esi
	movq	40(%rax), %rax
	shrb	$6, %cl
	xorl	$1, %ecx
	movq	%rax, %rdi
	andl	$1, %ecx
	call	_ZN4asio6detail13epoll_reactor21deregister_descriptorEiRPNS1_16descriptor_stateEb@PLT
	movl	(%rbx), %edi
.L1575:
	leaq	224(%rsp), %rbp
	leaq	4(%rbx), %rsi
	xorl	%edx, %edx
	movq	%rbp, %rcx
.LEHB49:
	call	_ZN4asio6detail10socket_ops5closeEiRhbRSt10error_code@PLT
	movl	224(%rsp), %eax
	movl	$-1, (%rbx)
	movb	$0, 4(%rbx)
	testl	%eax, %eax
	jne	.L1795
	movq	24(%rsp), %rbx
	movq	16(%rsp), %rsi
	movl	$8, 256(%rsp)
	addq	$24, %rbx
	movq	%rbx, %rdi
	call	_ZNK7openpal6Logger9IsEnabledERKNS_10LogFiltersE@PLT
.LEHE49:
	testb	%al, %al
	jne	.L1796
.L1574:
	movq	_ZTVNSt7__cxx1119basic_ostringstreamIcSt11char_traitsIcESaIcEEE@GOTPCREL(%rip), %rax
	movq	_ZTVNSt7__cxx1119basic_ostringstreamIcSt11char_traitsIcESaIcEEE@GOTPCREL(%rip), %rcx
	movq	496(%rsp), %rdi
	addq	$64, %rax
	addq	$24, %rcx
	movq	%rax, 528(%rsp)
	movq	_ZTVNSt7__cxx1115basic_stringbufIcSt11char_traitsIcESaIcEEE@GOTPCREL(%rip), %rax
	movq	%rcx, (%rsp)
	movq	(%rsp), %xmm0
	addq	$16, %rax
	movq	%rax, (%rsp)
	leaq	96(%r15), %rax
	movhps	(%rsp), %xmm0
	cmpq	%rax, %rdi
	movaps	%xmm0, 416(%rsp)
	je	.L1578
	call	_ZdlPv@PLT
.L1578:
	leaq	64(%r15), %rdi
	movq	_ZTVSt15basic_streambufIcSt11char_traitsIcEE@GOTPCREL(%rip), %rax
	addq	$16, %rax
	movq	%rax, 424(%rsp)
	call	_ZNSt6localeD1Ev@PLT
	movq	_ZTTNSt7__cxx1119basic_ostringstreamIcSt11char_traitsIcESaIcEEE@GOTPCREL(%rip), %rax
	movq	_ZTTNSt7__cxx1119basic_ostringstreamIcSt11char_traitsIcESaIcEEE@GOTPCREL(%rip), %rcx
	leaq	112(%r15), %rdi
	movq	8(%rax), %rax
	movq	16(%rcx), %rdx
	movq	%rax, 416(%rsp)
	movq	-24(%rax), %rax
	movq	%rdx, 416(%rsp,%rax)
	movq	_ZTVSt9basic_iosIcSt11char_traitsIcEE@GOTPCREL(%rip), %rax
	addq	$16, %rax
	movq	%rax, 528(%rsp)
	call	_ZNSt8ios_baseD2Ev@PLT
	movq	952(%rsp), %rax
	xorq	%fs:40, %rax
	jne	.L1797
	addq	$968, %rsp
	.cfi_remember_state
	.cfi_def_cfa_offset 56
	popq	%rbx
	.cfi_def_cfa_offset 48
	popq	%rbp
	.cfi_def_cfa_offset 40
	popq	%r12
	.cfi_def_cfa_offset 32
	popq	%r13
	.cfi_def_cfa_offset 24
	popq	%r14
	.cfi_def_cfa_offset 16
	popq	%r15
	.cfi_def_cfa_offset 8
	ret
	.p2align 4,,10
	.p2align 3
.L1450:
	.cfi_restore_state
	movq	_ZGVZN4asio15system_categoryEvE8instance@GOTPCREL(%rip), %rdi
	call	__cxa_guard_acquire@PLT
	testl	%eax, %eax
	je	.L1770
	movq	_ZGVZN4asio15system_categoryEvE8instance@GOTPCREL(%rip), %rdi
	call	__cxa_guard_release@PLT
	movq	_ZZN4asio15system_categoryEvE8instance@GOTPCREL(%rip), %r12
	movq	_ZN4asio6detail15system_categoryD1Ev@GOTPCREL(%rip), %rdi
	leaq	__dso_handle(%rip), %rdx
	movq	%r12, %rsi
	call	__cxa_atexit@PLT
	jmp	.L1451
	.p2align 4,,10
	.p2align 3
.L1781:
	movq	_ZGVZN4asio15system_categoryEvE8instance@GOTPCREL(%rip), %rdi
	call	__cxa_guard_acquire@PLT
	testl	%eax, %eax
	je	.L1460
	movq	_ZGVZN4asio15system_categoryEvE8instance@GOTPCREL(%rip), %rdi
	call	__cxa_guard_release@PLT
	movq	_ZN4asio6detail15system_categoryD1Ev@GOTPCREL(%rip), %rdi
	leaq	__dso_handle(%rip), %rdx
	movq	%r12, %rsi
	call	__cxa_atexit@PLT
	jmp	.L1460
	.p2align 4,,10
	.p2align 3
.L1521:
	cmpb	$0, 48(%rbp)
	jne	.L1523
.L1600:
	movq	24(%rsp), %rax
	leaq	208(%rax), %rdx
	movq	%rdx, (%rsp)
	movq	%rax, %rdx
	movq	224(%rax), %rax
	movq	%rax, 208(%rsp)
	movq	232(%rdx), %rax
	testq	%rax, %rax
	movq	%rax, 216(%rsp)
	je	.L1524
	testq	%r14, %r14
	je	.L1525
	lock addl	$1, 8(%rax)
.L1524:
	movq	40(%rsp), %rsi
	movq	32(%rsp), %rdi
.LEHB50:
	call	_ZN8asiodnp315MasterTCPServer17SessionIdToStringB5cxx11Em@PLT
.LEHE50:
	movq	24(%rsp), %rcx
	movl	$56, %edi
	movq	40(%rcx), %rax
	movq	%rax, 48(%rsp)
.LEHB51:
	call	_Znwm@PLT
.LEHE51:
	movabsq	$4294967297, %rdx
	movq	%rax, %rbx
	movq	384(%rsp), %rsi
	movq	%rdx, 8(%rax)
	movq	_ZTVSt23_Sp_counted_ptr_inplaceIN7openpal6Logger8SettingsESaIS2_ELN9__gnu_cxx12_Lock_policyE2EE@GOTPCREL(%rip), %rax
	leaq	16(%rbx), %rdi
	movq	392(%rsp), %rdx
	addq	$16, %rax
	movq	%rax, (%rbx)
	movq	48(%rsp), %rax
	addq	%rsi, %rdx
	movl	32(%rax), %eax
	movl	%eax, 48(%rsp)
	leaq	32(%rbx), %rax
	movq	%rax, 16(%rbx)
.LEHB52:
	call	_ZNSt7__cxx1112basic_stringIcSt11char_traitsIcESaIcEE12_M_constructIPcEEvT_S7_St20forward_iterator_tag.isra.90
.LEHE52:
	movl	48(%rsp), %eax
	movq	_ZTISt19_Sp_make_shared_tag@GOTPCREL(%rip), %rsi
	movq	%rbx, %rdi
	movl	%eax, 48(%rbx)
	movq	(%rbx), %rax
	call	*32(%rax)
	movq	24(%rsp), %rcx
	movq	24(%rcx), %rdx
	movq	%rdx, 256(%rsp)
	movq	32(%rcx), %rdx
	testq	%rdx, %rdx
	movq	%rdx, 264(%rsp)
	je	.L1798
	testq	%r14, %r14
	je	.L1530
	lock addl	$1, 8(%rdx)
	movq	%rax, 272(%rsp)
	leaq	8(%rbx), %rax
	movq	%rbx, 280(%rsp)
.L1531:
	lock addl	$1, (%rax)
.L1533:
	movq	%rbx, %rdi
	call	_ZNSt16_Sp_counted_baseILN9__gnu_cxx12_Lock_policyE2EE10_M_releaseEv@PLT
	movl	$624, %edi
.LEHB53:
	call	_Znwm@PLT
.LEHE53:
	movq	%rax, %rbx
	movabsq	$4294967297, %rax
	movq	(%rsp), %r8
	movq	%rax, 8(%rbx)
	movq	_ZTVSt23_Sp_counted_ptr_inplaceIN8asiodnp311LinkSessionESaIS1_ELN9__gnu_cxx12_Lock_policyE2EE@GOTPCREL(%rip), %rax
	leaq	208(%rsp), %rcx
	movq	40(%rsp), %rdx
	movq	16(%rsp), %rsi
	leaq	16(%rbx), %rdi
	movq	%r12, %r9
	addq	$16, %rax
	movq	%rax, (%rbx)
.LEHB54:
	call	_ZN8asiodnp311LinkSessionC1ERKN7openpal6LoggerEmRKSt10shared_ptrIN7asiopal16IResourceManagerEERKS5_INS_16IListenCallbacksEERKS5_INS6_13IAsyncChannelEE@PLT
.LEHE54:
	movq	(%rbx), %rax
	movq	_ZTISt19_Sp_make_shared_tag@GOTPCREL(%rip), %rsi
	movq	%rbx, %rdi
	call	*32(%rax)
	testq	%rax, %rax
	movq	%rax, %r12
	je	.L1535
	movq	32(%rax), %rdi
	testq	%rdi, %rdi
	je	.L1538
	movl	8(%rdi), %eax
	testl	%eax, %eax
	jne	.L1535
.L1538:
	testq	%r14, %r14
	movq	%r12, 24(%r12)
	je	.L1799
	lock addl	$1, 12(%rbx)
	movq	32(%r12), %rdi
	testq	%rdi, %rdi
	je	.L1541
	movl	$-1, %eax
	lock xaddl	%eax, 12(%rdi)
.L1599:
	cmpl	$1, %eax
	je	.L1800
.L1541:
	movq	%rbx, 32(%r12)
.L1535:
	movq	%r12, %rdi
.LEHB55:
	call	_ZN8asiodnp311LinkSession5StartEv@PLT
.LEHE55:
	movq	280(%rsp), %rdi
	testq	%rdi, %rdi
	je	.L1545
	call	_ZNSt16_Sp_counted_baseILN9__gnu_cxx12_Lock_policyE2EE10_M_releaseEv@PLT
.L1545:
	movq	264(%rsp), %rdi
	testq	%rdi, %rdi
	je	.L1546
	call	_ZNSt16_Sp_counted_baseILN9__gnu_cxx12_Lock_policyE2EE10_M_releaseEv@PLT
.L1546:
	movq	32(%rsp), %rax
	movq	384(%rsp), %rdi
	addq	$16, %rax
	cmpq	%rax, %rdi
	je	.L1547
	call	_ZdlPv@PLT
.L1547:
	movq	216(%rsp), %rdi
	testq	%rdi, %rdi
	je	.L1548
	call	_ZNSt16_Sp_counted_baseILN9__gnu_cxx12_Lock_policyE2EE10_M_releaseEv@PLT
.L1548:
	testq	%r12, %r12
	jne	.L1801
.L1607:
	testq	%r14, %r14
	je	.L1555
	movq	%r13, %rdi
	call	_ZL28__gthrw_pthread_mutex_unlockP15pthread_mutex_t@PLT
.L1555:
	movq	%rbx, %rdi
	call	_ZNSt16_Sp_counted_baseILN9__gnu_cxx12_Lock_policyE2EE10_M_releaseEv@PLT
	testq	%r12, %r12
	jne	.L1608
	jmp	.L1523
	.p2align 4,,10
	.p2align 3
.L1784:
	testl	%eax, %eax
	je	.L1802
.L1473:
	movq	32(%rsp), %rax
	movq	$0, 392(%rsp)
	movb	$0, 400(%rsp)
	addq	$16, %rax
	movq	%rax, 384(%rsp)
.L1474:
	leaq	160(%rsp), %rdi
.LEHB56:
	call	_ZN4asio6detail14do_throw_errorERKSt10error_code@PLT
.LEHE56:
	.p2align 4,,10
	.p2align 3
.L1794:
	movq	_ZGVZN4asio15system_categoryEvE8instance@GOTPCREL(%rip), %rax
	movzbl	(%rax), %eax
	testb	%al, %al
	je	.L1803
.L1489:
	movl	$22, 176(%rsp)
	movq	%r12, 184(%rsp)
	jmp	.L1487
	.p2align 4,,10
	.p2align 3
.L1508:
	addl	$1, 8(%rbx)
	jmp	.L1509
	.p2align 4,,10
	.p2align 3
.L1796:
	movq	32(%rsp), %rbp
	leaq	8(%r15), %rsi
	movq	%rbp, %rdi
.LEHB57:
	call	_ZNKSt7__cxx1115basic_stringbufIcSt11char_traitsIcESaIcEE3strEv@PLT
	leaq	832(%rsp), %r14
	movq	384(%rsp), %r9
	leaq	.LC28(%rip), %r8
	xorl	%eax, %eax
	movl	$120, %ecx
	movl	$1, %edx
	movq	%r14, %rdi
	movl	$120, %esi
	call	__snprintf_chk@PLT
	movq	384(%rsp), %rdi
	movq	%rbp, %rax
	addq	$16, %rax
	cmpq	%rax, %rdi
	je	.L1577
	call	_ZdlPv@PLT
.L1577:
	movq	16(%rsp), %rsi
	leaq	.LC29(%rip), %rdx
	movq	%r14, %rcx
	movq	%rbx, %rdi
	movl	$8, 256(%rsp)
	call	_ZN7openpal6Logger3LogERKNS_10LogFiltersEPKcS5_@PLT
.LEHE57:
	jmp	.L1574
	.p2align 4,,10
	.p2align 3
.L1783:
	movq	_ZGVZN4asio15system_categoryEvE8instance@GOTPCREL(%rip), %rdi
	movq	%r9, 88(%rsp)
	call	__cxa_guard_acquire@PLT
	testl	%eax, %eax
	movq	88(%rsp), %r9
	je	.L1470
	movq	_ZGVZN4asio15system_categoryEvE8instance@GOTPCREL(%rip), %rdi
	call	__cxa_guard_release@PLT
	movq	_ZN4asio6detail15system_categoryD1Ev@GOTPCREL(%rip), %rdi
	leaq	__dso_handle(%rip), %rdx
	movq	%r12, %rsi
	call	__cxa_atexit@PLT
	movq	88(%rsp), %r9
	jmp	.L1470
	.p2align 4,,10
	.p2align 3
.L1801:
	leaq	40(%r12), %rax
	testq	%r14, %r14
	movq	%rbx, 264(%rsp)
	movq	%rax, 256(%rsp)
	jne	.L1804
	addl	$1, 8(%rbx)
.L1553:
	movq	16(%rsp), %rsi
	leaq	56(%rbp), %rdi
.LEHB58:
	call	_ZNSt8_Rb_treeISt10shared_ptrIN7asiopal9IResourceEES3_St9_IdentityIS3_ESt4lessIS3_ESaIS3_EE16_M_insert_uniqueIS3_EESt4pairISt17_Rb_tree_iteratorIS3_EbEOT_@PLT
.LEHE58:
	movq	264(%rsp), %rdi
	testq	%rdi, %rdi
	je	.L1607
	call	_ZNSt16_Sp_counted_baseILN9__gnu_cxx12_Lock_policyE2EE10_M_releaseEv@PLT
	jmp	.L1607
	.p2align 4,,10
	.p2align 3
.L1788:
	addl	$1, 12(%rbx)
	testq	%rdi, %rdi
	je	.L1505
	movl	12(%rdi), %eax
	leal	-1(%rax), %edx
	movl	%edx, 12(%rdi)
	jmp	.L1597
	.p2align 4,,10
	.p2align 3
.L1790:
	addl	$1, 12(%rbp)
	testq	%rdi, %rdi
	je	.L1518
	movl	12(%rdi), %edx
	leal	-1(%rdx), %ecx
	movl	%ecx, 12(%rdi)
	jmp	.L1598
	.p2align 4,,10
	.p2align 3
.L1530:
	addl	$1, 8(%rdx)
	movq	%rax, 272(%rsp)
	movq	%rbx, 280(%rsp)
.L1532:
	addl	$1, 8(%rbx)
	jmp	.L1533
	.p2align 4,,10
	.p2align 3
.L1525:
	addl	$1, 8(%rax)
	jmp	.L1524
	.p2align 4,,10
	.p2align 3
.L1793:
	movq	0(%rbp), %rax
	movb	$1, 56(%rbp)
	movq	%rbp, %rdi
.LEHB59:
	call	*32(%rax)
.LEHE59:
	movq	16(%rbp), %rbx
	testq	%rbx, %rbx
	je	.L1561
	movl	8(%rbx), %eax
	leaq	8(%rbx), %rdx
	testl	%eax, %eax
	je	.L1562
.L1759:
	leal	1(%rax), %ecx
	lock cmpxchgl	%ecx, (%rdx)
	jne	.L1805
	movq	8(%rbp), %rax
	testq	%r14, %r14
	movq	24(%rbp), %rbp
	movq	%rbx, 264(%rsp)
	movq	%rax, 256(%rsp)
	je	.L1566
	lock addl	$1, (%rdx)
.L1567:
	movq	16(%rsp), %rdi
	xorl	%eax, %eax
	movq	40(%rbp), %r12
	addq	$48, %rbp
	call	_ZN4asio28asio_handler_is_continuationEz@PLT
	movl	%eax, %r13d
	.byte	0x66
	leaq	_ZN4asio6detail15keyword_tss_ptrINS0_10call_stackINS0_15task_io_serviceENS0_27task_io_service_thread_infoEE7contextEE6value_E@tlsgd(%rip), %rdi
	.value	0x6666
	rex64
	call	__tls_get_addr@PLT
	movq	(%rax), %rax
	testq	%rax, %rax
	je	.L1568
	movq	8(%rax), %rax
	testq	%rax, %rax
	je	.L1568
	movq	(%rax), %rdx
	testq	%rdx, %rdx
	je	.L1568
	movq	$0, (%rax)
	movzbl	(%rdx), %eax
	cmpb	$39, %al
	jbe	.L1569
	movb	%al, 40(%rdx)
.L1570:
	movq	_ZN4asio6detail18completion_handlerIZN7asiopal13IAsyncChannel8ShutdownEvEUlvE_E11do_completeEPNS0_15task_io_serviceEPNS0_25task_io_service_operationERKSt10error_codem@GOTPCREL(%rip), %rax
	pxor	%xmm0, %xmm0
	movq	$0, (%rdx)
	movl	$0, 16(%rdx)
	movq	%r12, %rdi
	movzbl	%r13b, %ecx
	movq	%rbp, %rsi
	movq	%rax, 8(%rdx)
	movq	256(%rsp), %rax
	movq	%rax, 24(%rdx)
	movq	264(%rsp), %rax
	movq	%rax, 32(%rdx)
	movaps	%xmm0, 256(%rsp)
	call	_ZN4asio6detail14strand_service7do_postERPNS1_11strand_implEPNS0_25task_io_service_operationEb@PLT
	movq	264(%rsp), %rdi
	testq	%rdi, %rdi
	je	.L1596
	call	_ZNSt16_Sp_counted_baseILN9__gnu_cxx12_Lock_policyE2EE10_M_releaseEv@PLT
.L1596:
	movq	%rbx, %rdi
	call	_ZNSt16_Sp_counted_baseILN9__gnu_cxx12_Lock_policyE2EE10_M_releaseEv@PLT
	jmp	.L1608
	.p2align 4,,10
	.p2align 3
.L1804:
	lock addl	$1, 8(%rbx)
	jmp	.L1553
	.p2align 4,,10
	.p2align 3
.L1799:
	addl	$1, 12(%rbx)
	testq	%rdi, %rdi
	je	.L1541
	movl	12(%rdi), %eax
	leal	-1(%rax), %edx
	movl	%edx, 12(%rdi)
	jmp	.L1599
	.p2align 4,,10
	.p2align 3
.L1803:
	movq	_ZGVZN4asio15system_categoryEvE8instance@GOTPCREL(%rip), %rdi
	call	__cxa_guard_acquire@PLT
	testl	%eax, %eax
	je	.L1489
	movq	_ZGVZN4asio15system_categoryEvE8instance@GOTPCREL(%rip), %rdi
	call	__cxa_guard_release@PLT
	movq	_ZN4asio6detail15system_categoryD1Ev@GOTPCREL(%rip), %rdi
	leaq	__dso_handle(%rip), %rdx
	movq	%r12, %rsi
	call	__cxa_atexit@PLT
	jmp	.L1489
	.p2align 4,,10
	.p2align 3
.L1785:
	movzbl	361(%rsp), %eax
	andl	$-64, %eax
	cmpb	$-128, %al
	je	.L1476
.L1771:
	leaq	800(%rsp), %rbp
	jmp	.L1478
.L1617:
.L1776:
	movq	%rax, %rbx
	movq	32(%rsp), %rax
	movq	384(%rsp), %rdi
	addq	$16, %rax
	cmpq	%rax, %rdi
	je	.L1484
	call	_ZdlPv@PLT
.L1484:
	movq	%r15, %rdi
	call	_ZNSt7__cxx1119basic_ostringstreamIcSt11char_traitsIcESaIcEED1Ev@PLT
	movq	%rbx, %rdi
.LEHB60:
	call	_Unwind_Resume@PLT
.LEHE60:
	.p2align 4,,10
	.p2align 3
.L1780:
	call	_ZN4asio15system_categoryEv@PLT
	movl	$9, 128(%rsp)
	movq	%rax, 136(%rsp)
.L1458:
	leaq	128(%rsp), %rdi
	leaq	.LC24(%rip), %rsi
.LEHB61:
	call	_ZN4asio6detail14do_throw_errorERKSt10error_codePKc@PLT
.LEHE61:
.L1610:
	movq	%rax, %rbx
	jmp	.L1484
.L1616:
	jmp	.L1776
	.p2align 4,,10
	.p2align 3
.L1476:
	leaq	800(%rsp), %rbp
	movl	72(%rsp), %edi
	movq	%r9, 88(%rsp)
	leaq	1(%rbp), %rsi
	call	if_indextoname@PLT
	testq	%rax, %rax
	movq	88(%rsp), %r9
	jne	.L1477
	jmp	.L1478
	.p2align 4,,10
	.p2align 3
.L1798:
	testq	%r14, %r14
	movq	%rax, 272(%rsp)
	movq	%rbx, 280(%rsp)
	je	.L1532
	leaq	8(%rbx), %rax
	jmp	.L1531
	.p2align 4,,10
	.p2align 3
.L1791:
	movq	(%rdi), %rdx
	movq	%rax, 48(%rsp)
	call	*24(%rdx)
	movq	48(%rsp), %rax
	jmp	.L1518
	.p2align 4,,10
	.p2align 3
.L1789:
	movq	(%rdi), %rax
	call	*24(%rax)
	jmp	.L1505
	.p2align 4,,10
	.p2align 3
.L1802:
	call	_ZN4asio15system_categoryEv@PLT
	movl	$22, 160(%rsp)
	movq	%rax, 168(%rsp)
	jmp	.L1473
.L1569:
	movq	%rdx, %rdi
	call	_ZdlPv@PLT
.L1568:
	movl	$41, %edi
.LEHB62:
	call	_Znwm@PLT
.LEHE62:
	movq	%rax, %rdx
	movb	$40, 40(%rax)
	jmp	.L1570
	.p2align 4,,10
	.p2align 3
.L1566:
	addl	$1, 8(%rbx)
	jmp	.L1567
	.p2align 4,,10
	.p2align 3
.L1800:
	movq	(%rdi), %rax
	call	*24(%rax)
	jmp	.L1541
	.p2align 4,,10
	.p2align 3
.L1778:
	movaps	%xmm0, (%rsp)
	call	_ZN4asio15system_categoryEv@PLT
	movl	$2, %ebx
	xorl	%r11d, %r11d
	movdqa	(%rsp), %xmm0
	movl	$9, 96(%rsp)
	movq	%rax, 104(%rsp)
	movups	%xmm0, 386(%rsp)
	movq	$0, 402(%rsp)
	movw	%r11w, 410(%rsp)
	movw	%bx, 384(%rsp)
	jmp	.L1449
.L1797:
	call	__stack_chk_fail@PLT
.L1795:
	leaq	.LC27(%rip), %rsi
	movq	%rbp, %rdi
.LEHB63:
	call	_ZN4asio6detail14do_throw_errorERKSt10error_codePKc@PLT
.L1779:
	call	_ZN4asio15system_categoryEv@PLT
	leaq	112(%rsp), %rdi
	movl	$22, 112(%rsp)
	movq	%rax, 120(%rsp)
	call	_ZN4asio6detail14do_throw_errorERKSt10error_code@PLT
.LEHE63:
.L1792:
	movl	%eax, %edi
.LEHB64:
	call	_ZSt20__throw_system_errori@PLT
.LEHE64:
.L1613:
	movq	%rax, %rbx
.L1559:
	movq	200(%rsp), %rdi
	testq	%rdi, %rdi
	je	.L1484
	call	_ZNSt16_Sp_counted_baseILN9__gnu_cxx12_Lock_policyE2EE10_M_releaseEv@PLT
	jmp	.L1484
.L1782:
	call	_ZN4asio15system_categoryEv@PLT
	leaq	144(%rsp), %rdi
	movl	$22, 144(%rsp)
	movq	%rax, 152(%rsp)
.LEHB65:
	call	_ZN4asio6detail14do_throw_errorERKSt10error_code@PLT
.LEHE65:
.L1614:
	movq	%rax, %rbx
.L1447:
	movq	_ZTVSt9basic_iosIcSt11char_traitsIcEE@GOTPCREL(%rip), %rax
	leaq	112(%r15), %rdi
	addq	$16, %rax
	movq	%rax, 528(%rsp)
	call	_ZNSt8ios_baseD2Ev@PLT
	movq	%rbx, %rdi
.LEHB66:
	call	_Unwind_Resume@PLT
.LEHE66:
.L1615:
	leaq	8(%r15), %rdi
	movq	%rax, %rbx
	call	_ZNSt7__cxx1115basic_stringbufIcSt11char_traitsIcESaIcEED1Ev@PLT
	movq	-24(%rbp), %rax
	movq	%rbp, 416(%rsp)
	movq	%r12, 416(%rsp,%rax)
	jmp	.L1447
.L1619:
	movq	%rax, %rbp
.L1514:
	movq	%rbx, %rdi
	call	_ZNSt16_Sp_counted_baseILN9__gnu_cxx12_Lock_policyE2EE10_M_releaseEv@PLT
.L1502:
	movq	248(%rsp), %rax
	leaq	224(%rsp), %rsi
	movq	%rbp, %rbx
	leaq	40(%rax), %rdi
	call	_ZN4asio6detail28reactive_socket_service_base7destroyERNS1_24base_implementation_typeE@PLT
	jmp	.L1484
.L1805:
	testl	%eax, %eax
	jne	.L1759
.L1562:
.LEHB67:
	call	_ZSt20__throw_bad_weak_ptrv@PLT
.L1561:
	call	_ZSt20__throw_bad_weak_ptrv@PLT
.LEHE67:
.L1628:
	movq	264(%rsp), %rdi
	movq	%rax, %rbp
	testq	%rdi, %rdi
	je	.L1572
	call	_ZNSt16_Sp_counted_baseILN9__gnu_cxx12_Lock_policyE2EE10_M_releaseEv@PLT
.L1572:
	movq	%rbx, %rdi
	movq	%rbp, %rbx
	call	_ZNSt16_Sp_counted_baseILN9__gnu_cxx12_Lock_policyE2EE10_M_releaseEv@PLT
	jmp	.L1559
.L1611:
	jmp	.L1776
.L1618:
	movq	%rbx, %rdi
	movq	%rax, %rbp
	call	_ZdlPv@PLT
	jmp	.L1502
.L1612:
	movq	%rax, %rbp
	jmp	.L1502
.L1626:
	movq	%rbx, %rdi
	movq	%rax, %rbp
	call	_ZNSt16_Sp_counted_baseILN9__gnu_cxx12_Lock_policyE2EE10_M_releaseEv@PLT
.L1537:
	movq	16(%rsp), %rdi
	movq	%rbp, %rbx
	call	_ZN7openpal6LoggerD1Ev@PLT
.L1529:
	movq	32(%rsp), %rax
	movq	384(%rsp), %rdi
	addq	$16, %rax
	cmpq	%rax, %rdi
	je	.L1550
	call	_ZdlPv@PLT
.L1550:
	movq	216(%rsp), %rdi
	testq	%rdi, %rdi
	je	.L1552
	call	_ZNSt16_Sp_counted_baseILN9__gnu_cxx12_Lock_policyE2EE10_M_releaseEv@PLT
.L1552:
	testq	%r14, %r14
	je	.L1559
	movq	%r13, %rdi
	call	_ZL28__gthrw_pthread_mutex_unlockP15pthread_mutex_t@PLT
	jmp	.L1559
.L1620:
	movq	%rax, %r12
	movq	280(%rsp), %rax
	movq	16(%rsp), %rsi
	leaq	40(%rax), %rdi
	call	_ZN4asio6detail28reactive_socket_service_base7destroyERNS1_24base_implementation_typeE@PLT
	movq	200(%rsp), %rdi
	testq	%rdi, %rdi
	je	.L1513
	call	_ZNSt16_Sp_counted_baseILN9__gnu_cxx12_Lock_policyE2EE10_M_releaseEv@PLT
.L1513:
	movq	%rbp, %rdi
	movq	%r12, %rbp
	call	_ZdlPv@PLT
	jmp	.L1514
.L1627:
	movq	%rbx, %rdi
	movq	%rax, %rbp
	call	_ZdlPv@PLT
	jmp	.L1537
.L1624:
	movq	%rax, %rbp
	jmp	.L1537
.L1621:
	movq	264(%rsp), %rdi
	movq	%rax, %rbp
	testq	%rdi, %rdi
	je	.L1557
	call	_ZNSt16_Sp_counted_baseILN9__gnu_cxx12_Lock_policyE2EE10_M_releaseEv@PLT
.L1557:
	movq	%rbx, %rdi
	movq	%rbp, %rbx
	call	_ZNSt16_Sp_counted_baseILN9__gnu_cxx12_Lock_policyE2EE10_M_releaseEv@PLT
	jmp	.L1552
.L1625:
	movq	%rax, %rbp
	movq	%rbx, %rdi
	call	_ZdlPv@PLT
	movq	%rbp, %rbx
	jmp	.L1529
.L1623:
	movq	%rax, %rbx
	jmp	.L1529
.L1622:
	movq	%rax, %rbx
	jmp	.L1550
	.cfi_endproc
.LFE8085:
	.section	.gcc_except_table
.LLSDA8085:
	.byte	0xff
	.byte	0xff
	.byte	0x1
	.uleb128 .LLSDACSE8085-.LLSDACSB8085
.LLSDACSB8085:
	.uleb128 .LEHB38-.LFB8085
	.uleb128 .LEHE38-.LEHB38
	.uleb128 .L1614-.LFB8085
	.uleb128 0
	.uleb128 .LEHB39-.LFB8085
	.uleb128 .LEHE39-.LEHB39
	.uleb128 .L1615-.LFB8085
	.uleb128 0
	.uleb128 .LEHB40-.LFB8085
	.uleb128 .LEHE40-.LEHB40
	.uleb128 .L1610-.LFB8085
	.uleb128 0
	.uleb128 .LEHB41-.LFB8085
	.uleb128 .LEHE41-.LEHB41
	.uleb128 .L1611-.LFB8085
	.uleb128 0
	.uleb128 .LEHB42-.LFB8085
	.uleb128 .LEHE42-.LEHB42
	.uleb128 .L1610-.LFB8085
	.uleb128 0
	.uleb128 .LEHB43-.LFB8085
	.uleb128 .LEHE43-.LEHB43
	.uleb128 .L1612-.LFB8085
	.uleb128 0
	.uleb128 .LEHB44-.LFB8085
	.uleb128 .LEHE44-.LEHB44
	.uleb128 .L1618-.LFB8085
	.uleb128 0
	.uleb128 .LEHB45-.LFB8085
	.uleb128 .LEHE45-.LEHB45
	.uleb128 .L1619-.LFB8085
	.uleb128 0
	.uleb128 .LEHB46-.LFB8085
	.uleb128 .LEHE46-.LEHB46
	.uleb128 .L1620-.LFB8085
	.uleb128 0
	.uleb128 .LEHB47-.LFB8085
	.uleb128 .LEHE47-.LEHB47
	.uleb128 .L1610-.LFB8085
	.uleb128 0
	.uleb128 .LEHB48-.LFB8085
	.uleb128 .LEHE48-.LEHB48
	.uleb128 .L1617-.LFB8085
	.uleb128 0
	.uleb128 .LEHB49-.LFB8085
	.uleb128 .LEHE49-.LEHB49
	.uleb128 .L1610-.LFB8085
	.uleb128 0
	.uleb128 .LEHB50-.LFB8085
	.uleb128 .LEHE50-.LEHB50
	.uleb128 .L1622-.LFB8085
	.uleb128 0
	.uleb128 .LEHB51-.LFB8085
	.uleb128 .LEHE51-.LEHB51
	.uleb128 .L1623-.LFB8085
	.uleb128 0
	.uleb128 .LEHB52-.LFB8085
	.uleb128 .LEHE52-.LEHB52
	.uleb128 .L1625-.LFB8085
	.uleb128 0
	.uleb128 .LEHB53-.LFB8085
	.uleb128 .LEHE53-.LEHB53
	.uleb128 .L1624-.LFB8085
	.uleb128 0
	.uleb128 .LEHB54-.LFB8085
	.uleb128 .LEHE54-.LEHB54
	.uleb128 .L1627-.LFB8085
	.uleb128 0
	.uleb128 .LEHB55-.LFB8085
	.uleb128 .LEHE55-.LEHB55
	.uleb128 .L1626-.LFB8085
	.uleb128 0
	.uleb128 .LEHB56-.LFB8085
	.uleb128 .LEHE56-.LEHB56
	.uleb128 .L1616-.LFB8085
	.uleb128 0
	.uleb128 .LEHB57-.LFB8085
	.uleb128 .LEHE57-.LEHB57
	.uleb128 .L1610-.LFB8085
	.uleb128 0
	.uleb128 .LEHB58-.LFB8085
	.uleb128 .LEHE58-.LEHB58
	.uleb128 .L1621-.LFB8085
	.uleb128 0
	.uleb128 .LEHB59-.LFB8085
	.uleb128 .LEHE59-.LEHB59
	.uleb128 .L1613-.LFB8085
	.uleb128 0
	.uleb128 .LEHB60-.LFB8085
	.uleb128 .LEHE60-.LEHB60
	.uleb128 0
	.uleb128 0
	.uleb128 .LEHB61-.LFB8085
	.uleb128 .LEHE61-.LEHB61
	.uleb128 .L1610-.LFB8085
	.uleb128 0
	.uleb128 .LEHB62-.LFB8085
	.uleb128 .LEHE62-.LEHB62
	.uleb128 .L1628-.LFB8085
	.uleb128 0
	.uleb128 .LEHB63-.LFB8085
	.uleb128 .LEHE63-.LEHB63
	.uleb128 .L1610-.LFB8085
	.uleb128 0
	.uleb128 .LEHB64-.LFB8085
	.uleb128 .LEHE64-.LEHB64
	.uleb128 .L1613-.LFB8085
	.uleb128 0
	.uleb128 .LEHB65-.LFB8085
	.uleb128 .LEHE65-.LEHB65
	.uleb128 .L1610-.LFB8085
	.uleb128 0
	.uleb128 .LEHB66-.LFB8085
	.uleb128 .LEHE66-.LEHB66
	.uleb128 0
	.uleb128 0
	.uleb128 .LEHB67-.LFB8085
	.uleb128 .LEHE67-.LEHB67
	.uleb128 .L1613-.LFB8085
	.uleb128 0
.LLSDACSE8085:
	.text
	.size	_ZN8asiodnp315MasterTCPServer16AcceptConnectionEmRKSt10shared_ptrIN7asiopal8ExecutorEEN4asio19basic_stream_socketINS7_2ip3tcpENS7_21stream_socket_serviceISA_EEEE, .-_ZN8asiodnp315MasterTCPServer16AcceptConnectionEmRKSt10shared_ptrIN7asiopal8ExecutorEEN4asio19basic_stream_socketINS7_2ip3tcpENS7_21stream_socket_serviceISA_EEEE
	.section	.text.startup,"ax",@progbits
	.p2align 4,,15
	.type	_GLOBAL__sub_I_MasterTCPServer.cpp, @function
_GLOBAL__sub_I_MasterTCPServer.cpp:
.LFB11177:
	.cfi_startproc
	pushq	%rbx
	.cfi_def_cfa_offset 16
	.cfi_offset 3, -16
	call	_ZN4asio15system_categoryEv@PLT
	movq	_ZGVZN4asio5error18get_netdb_categoryEvE8instance@GOTPCREL(%rip), %rbx
	movzbl	(%rbx), %eax
	testb	%al, %al
	je	.L1831
.L1808:
	movq	_ZGVZN4asio5error21get_addrinfo_categoryEvE8instance@GOTPCREL(%rip), %rbx
	movzbl	(%rbx), %eax
	testb	%al, %al
	je	.L1832
.L1811:
	movq	_ZGVZN4asio5error17get_misc_categoryEvE8instance@GOTPCREL(%rip), %rbx
	movzbl	(%rbx), %eax
	testb	%al, %al
	je	.L1833
.L1814:
	movl	$5000, %edi
	call	_ZN7openpal12TimeDuration12MillisecondsEl@PLT
	movq	_ZGVN4asio6detail10call_stackINS0_15task_io_serviceENS0_27task_io_service_thread_infoEE4top_E@GOTPCREL(%rip), %rax
	cmpb	$0, (%rax)
	je	.L1834
.L1816:
	movq	_ZGVN4asio6detail12service_baseINS0_13epoll_reactorEE2idE@GOTPCREL(%rip), %rax
	cmpb	$0, (%rax)
	je	.L1835
.L1817:
	movq	_ZGVN4asio6detail12service_baseINS0_15task_io_serviceEE2idE@GOTPCREL(%rip), %rax
	cmpb	$0, (%rax)
	je	.L1836
.L1818:
	movq	_ZGVN4asio6detail10call_stackINS0_14strand_service11strand_implEhE4top_E@GOTPCREL(%rip), %rax
	cmpb	$0, (%rax)
	je	.L1837
.L1819:
	movq	_ZGVN4asio6detail12service_baseINS0_14strand_serviceEE2idE@GOTPCREL(%rip), %rax
	cmpb	$0, (%rax)
	je	.L1838
	popq	%rbx
	.cfi_remember_state
	.cfi_def_cfa_offset 8
	ret
.L1831:
	.cfi_restore_state
	movq	%rbx, %rdi
	call	__cxa_guard_acquire@PLT
	testl	%eax, %eax
	je	.L1808
	movq	%rbx, %rdi
	call	__cxa_guard_release@PLT
	movq	_ZZN4asio5error18get_netdb_categoryEvE8instance@GOTPCREL(%rip), %rsi
	movq	_ZN4asio5error6detail14netdb_categoryD1Ev@GOTPCREL(%rip), %rdi
	leaq	__dso_handle(%rip), %rdx
	call	__cxa_atexit@PLT
	jmp	.L1808
.L1838:
	movb	$1, (%rax)
	movq	_ZN4asio6detail12service_baseINS0_14strand_serviceEE2idE@GOTPCREL(%rip), %rsi
	leaq	__dso_handle(%rip), %rdx
	popq	%rbx
	.cfi_remember_state
	.cfi_def_cfa_offset 8
	movq	_ZN4asio6detail10service_idINS0_14strand_serviceEED1Ev@GOTPCREL(%rip), %rdi
	jmp	__cxa_atexit@PLT
.L1833:
	.cfi_restore_state
	movq	%rbx, %rdi
	call	__cxa_guard_acquire@PLT
	testl	%eax, %eax
	je	.L1814
	movq	%rbx, %rdi
	call	__cxa_guard_release@PLT
	movq	_ZZN4asio5error17get_misc_categoryEvE8instance@GOTPCREL(%rip), %rsi
	movq	_ZN4asio5error6detail13misc_categoryD1Ev@GOTPCREL(%rip), %rdi
	leaq	__dso_handle(%rip), %rdx
	call	__cxa_atexit@PLT
	jmp	.L1814
.L1832:
	movq	%rbx, %rdi
	call	__cxa_guard_acquire@PLT
	testl	%eax, %eax
	je	.L1811
	movq	%rbx, %rdi
	call	__cxa_guard_release@PLT
	movq	_ZZN4asio5error21get_addrinfo_categoryEvE8instance@GOTPCREL(%rip), %rsi
	movq	_ZN4asio5error6detail17addrinfo_categoryD1Ev@GOTPCREL(%rip), %rdi
	leaq	__dso_handle(%rip), %rdx
	call	__cxa_atexit@PLT
	jmp	.L1811
.L1837:
	movq	_ZN4asio6detail10call_stackINS0_14strand_service11strand_implEhE4top_E@GOTPCREL(%rip), %rsi
	movq	_ZN4asio6detail7tss_ptrINS0_10call_stackINS0_14strand_service11strand_implEhE7contextEED1Ev@GOTPCREL(%rip), %rdi
	leaq	__dso_handle(%rip), %rdx
	movb	$1, (%rax)
	call	__cxa_atexit@PLT
	jmp	.L1819
.L1836:
	movq	_ZN4asio6detail12service_baseINS0_15task_io_serviceEE2idE@GOTPCREL(%rip), %rsi
	movq	_ZN4asio6detail10service_idINS0_15task_io_serviceEED1Ev@GOTPCREL(%rip), %rdi
	leaq	__dso_handle(%rip), %rdx
	movb	$1, (%rax)
	call	__cxa_atexit@PLT
	jmp	.L1818
.L1835:
	movq	_ZN4asio6detail12service_baseINS0_13epoll_reactorEE2idE@GOTPCREL(%rip), %rsi
	movq	_ZN4asio6detail10service_idINS0_13epoll_reactorEED1Ev@GOTPCREL(%rip), %rdi
	leaq	__dso_handle(%rip), %rdx
	movb	$1, (%rax)
	call	__cxa_atexit@PLT
	jmp	.L1817
.L1834:
	movq	_ZN4asio6detail10call_stackINS0_15task_io_serviceENS0_27task_io_service_thread_infoEE4top_E@GOTPCREL(%rip), %rsi
	movq	_ZN4asio6detail7tss_ptrINS0_10call_stackINS0_15task_io_serviceENS0_27task_io_service_thread_infoEE7contextEED1Ev@GOTPCREL(%rip), %rdi
	leaq	__dso_handle(%rip), %rdx
	movb	$1, (%rax)
	call	__cxa_atexit@PLT
	jmp	.L1816
	.cfi_endproc
.LFE11177:
	.size	_GLOBAL__sub_I_MasterTCPServer.cpp, .-_GLOBAL__sub_I_MasterTCPServer.cpp
	.section	.init_array,"aw"
	.align 8
	.quad	_GLOBAL__sub_I_MasterTCPServer.cpp
	.weak	_ZTSSt11_Mutex_baseILN9__gnu_cxx12_Lock_policyE2EE
	.section	.rodata._ZTSSt11_Mutex_baseILN9__gnu_cxx12_Lock_policyE2EE,"aG",@progbits,_ZTSSt11_Mutex_baseILN9__gnu_cxx12_Lock_policyE2EE,comdat
	.align 32
	.type	_ZTSSt11_Mutex_baseILN9__gnu_cxx12_Lock_policyE2EE, @object
	.size	_ZTSSt11_Mutex_baseILN9__gnu_cxx12_Lock_policyE2EE, 47
_ZTSSt11_Mutex_baseILN9__gnu_cxx12_Lock_policyE2EE:
	.string	"St11_Mutex_baseILN9__gnu_cxx12_Lock_policyE2EE"
	.weak	_ZTISt11_Mutex_baseILN9__gnu_cxx12_Lock_policyE2EE
	.section	.data.rel.ro._ZTISt11_Mutex_baseILN9__gnu_cxx12_Lock_policyE2EE,"awG",@progbits,_ZTISt11_Mutex_baseILN9__gnu_cxx12_Lock_policyE2EE,comdat
	.align 8
	.type	_ZTISt11_Mutex_baseILN9__gnu_cxx12_Lock_policyE2EE, @object
	.size	_ZTISt11_Mutex_baseILN9__gnu_cxx12_Lock_policyE2EE, 16
_ZTISt11_Mutex_baseILN9__gnu_cxx12_Lock_policyE2EE:
	.quad	_ZTVN10__cxxabiv117__class_type_infoE+16
	.quad	_ZTSSt11_Mutex_baseILN9__gnu_cxx12_Lock_policyE2EE
	.weak	_ZTSN7openpal10UncopyableE
	.section	.rodata._ZTSN7openpal10UncopyableE,"aG",@progbits,_ZTSN7openpal10UncopyableE,comdat
	.align 16
	.type	_ZTSN7openpal10UncopyableE, @object
	.size	_ZTSN7openpal10UncopyableE, 23
_ZTSN7openpal10UncopyableE:
	.string	"N7openpal10UncopyableE"
	.weak	_ZTIN7openpal10UncopyableE
	.section	.data.rel.ro._ZTIN7openpal10UncopyableE,"awG",@progbits,_ZTIN7openpal10UncopyableE,comdat
	.align 8
	.type	_ZTIN7openpal10UncopyableE, @object
	.size	_ZTIN7openpal10UncopyableE, 16
_ZTIN7openpal10UncopyableE:
	.quad	_ZTVN10__cxxabiv117__class_type_infoE+16
	.quad	_ZTSN7openpal10UncopyableE
	.weak	_ZTSSt23enable_shared_from_thisIN7asiopal13IAsyncChannelEE
	.section	.rodata._ZTSSt23enable_shared_from_thisIN7asiopal13IAsyncChannelEE,"aG",@progbits,_ZTSSt23enable_shared_from_thisIN7asiopal13IAsyncChannelEE,comdat
	.align 32
	.type	_ZTSSt23enable_shared_from_thisIN7asiopal13IAsyncChannelEE, @object
	.size	_ZTSSt23enable_shared_from_thisIN7asiopal13IAsyncChannelEE, 55
_ZTSSt23enable_shared_from_thisIN7asiopal13IAsyncChannelEE:
	.string	"St23enable_shared_from_thisIN7asiopal13IAsyncChannelEE"
	.weak	_ZTISt23enable_shared_from_thisIN7asiopal13IAsyncChannelEE
	.section	.data.rel.ro._ZTISt23enable_shared_from_thisIN7asiopal13IAsyncChannelEE,"awG",@progbits,_ZTISt23enable_shared_from_thisIN7asiopal13IAsyncChannelEE,comdat
	.align 8
	.type	_ZTISt23enable_shared_from_thisIN7asiopal13IAsyncChannelEE, @object
	.size	_ZTISt23enable_shared_from_thisIN7asiopal13IAsyncChannelEE, 16
_ZTISt23enable_shared_from_thisIN7asiopal13IAsyncChannelEE:
	.quad	_ZTVN10__cxxabiv117__class_type_infoE+16
	.quad	_ZTSSt23enable_shared_from_thisIN7asiopal13IAsyncChannelEE
	.weak	_ZGVN4asio6detail12service_baseINS0_14strand_serviceEE2idE
	.section	.bss._ZGVN4asio6detail12service_baseINS0_14strand_serviceEE2idE,"awG",@nobits,_ZGVN4asio6detail12service_baseINS0_14strand_serviceEE2idE,comdat
	.align 8
	.type	_ZGVN4asio6detail12service_baseINS0_14strand_serviceEE2idE, @gnu_unique_object
	.size	_ZGVN4asio6detail12service_baseINS0_14strand_serviceEE2idE, 8
_ZGVN4asio6detail12service_baseINS0_14strand_serviceEE2idE:
	.zero	8
	.weak	_ZGVN4asio6detail10call_stackINS0_14strand_service11strand_implEhE4top_E
	.section	.bss._ZGVN4asio6detail10call_stackINS0_14strand_service11strand_implEhE4top_E,"awG",@nobits,_ZGVN4asio6detail10call_stackINS0_14strand_service11strand_implEhE4top_E,comdat
	.align 8
	.type	_ZGVN4asio6detail10call_stackINS0_14strand_service11strand_implEhE4top_E, @gnu_unique_object
	.size	_ZGVN4asio6detail10call_stackINS0_14strand_service11strand_implEhE4top_E, 8
_ZGVN4asio6detail10call_stackINS0_14strand_service11strand_implEhE4top_E:
	.zero	8
	.weak	_ZGVN4asio6detail12service_baseINS0_15task_io_serviceEE2idE
	.section	.bss._ZGVN4asio6detail12service_baseINS0_15task_io_serviceEE2idE,"awG",@nobits,_ZGVN4asio6detail12service_baseINS0_15task_io_serviceEE2idE,comdat
	.align 8
	.type	_ZGVN4asio6detail12service_baseINS0_15task_io_serviceEE2idE, @gnu_unique_object
	.size	_ZGVN4asio6detail12service_baseINS0_15task_io_serviceEE2idE, 8
_ZGVN4asio6detail12service_baseINS0_15task_io_serviceEE2idE:
	.zero	8
	.weak	_ZGVN4asio6detail12service_baseINS0_13epoll_reactorEE2idE
	.section	.bss._ZGVN4asio6detail12service_baseINS0_13epoll_reactorEE2idE,"awG",@nobits,_ZGVN4asio6detail12service_baseINS0_13epoll_reactorEE2idE,comdat
	.align 8
	.type	_ZGVN4asio6detail12service_baseINS0_13epoll_reactorEE2idE, @gnu_unique_object
	.size	_ZGVN4asio6detail12service_baseINS0_13epoll_reactorEE2idE, 8
_ZGVN4asio6detail12service_baseINS0_13epoll_reactorEE2idE:
	.zero	8
	.weak	_ZGVN4asio6detail10call_stackINS0_15task_io_serviceENS0_27task_io_service_thread_infoEE4top_E
	.section	.bss._ZGVN4asio6detail10call_stackINS0_15task_io_serviceENS0_27task_io_service_thread_infoEE4top_E,"awG",@nobits,_ZGVN4asio6detail10call_stackINS0_15task_io_serviceENS0_27task_io_service_thread_infoEE4top_E,comdat
	.align 8
	.type	_ZGVN4asio6detail10call_stackINS0_15task_io_serviceENS0_27task_io_service_thread_infoEE4top_E, @gnu_unique_object
	.size	_ZGVN4asio6detail10call_stackINS0_15task_io_serviceENS0_27task_io_service_thread_infoEE4top_E, 8
_ZGVN4asio6detail10call_stackINS0_15task_io_serviceENS0_27task_io_service_thread_infoEE4top_E:
	.zero	8
	.weak	_ZN4asio6detail12service_baseINS0_14strand_serviceEE2idE
	.section	.bss._ZN4asio6detail12service_baseINS0_14strand_serviceEE2idE,"awG",@nobits,_ZN4asio6detail12service_baseINS0_14strand_serviceEE2idE,comdat
	.type	_ZN4asio6detail12service_baseINS0_14strand_serviceEE2idE, @gnu_unique_object
	.size	_ZN4asio6detail12service_baseINS0_14strand_serviceEE2idE, 1
_ZN4asio6detail12service_baseINS0_14strand_serviceEE2idE:
	.zero	1
	.weak	_ZN4asio6detail10call_stackINS0_14strand_service11strand_implEhE4top_E
	.section	.bss._ZN4asio6detail10call_stackINS0_14strand_service11strand_implEhE4top_E,"awG",@nobits,_ZN4asio6detail10call_stackINS0_14strand_service11strand_implEhE4top_E,comdat
	.type	_ZN4asio6detail10call_stackINS0_14strand_service11strand_implEhE4top_E, @gnu_unique_object
	.size	_ZN4asio6detail10call_stackINS0_14strand_service11strand_implEhE4top_E, 1
_ZN4asio6detail10call_stackINS0_14strand_service11strand_implEhE4top_E:
	.zero	1
	.weak	_ZN4asio6detail12service_baseINS0_15task_io_serviceEE2idE
	.section	.bss._ZN4asio6detail12service_baseINS0_15task_io_serviceEE2idE,"awG",@nobits,_ZN4asio6detail12service_baseINS0_15task_io_serviceEE2idE,comdat
	.type	_ZN4asio6detail12service_baseINS0_15task_io_serviceEE2idE, @gnu_unique_object
	.size	_ZN4asio6detail12service_baseINS0_15task_io_serviceEE2idE, 1
_ZN4asio6detail12service_baseINS0_15task_io_serviceEE2idE:
	.zero	1
	.weak	_ZN4asio6detail12service_baseINS0_13epoll_reactorEE2idE
	.section	.bss._ZN4asio6detail12service_baseINS0_13epoll_reactorEE2idE,"awG",@nobits,_ZN4asio6detail12service_baseINS0_13epoll_reactorEE2idE,comdat
	.type	_ZN4asio6detail12service_baseINS0_13epoll_reactorEE2idE, @gnu_unique_object
	.size	_ZN4asio6detail12service_baseINS0_13epoll_reactorEE2idE, 1
_ZN4asio6detail12service_baseINS0_13epoll_reactorEE2idE:
	.zero	1
	.weak	_ZN4asio6detail10call_stackINS0_15task_io_serviceENS0_27task_io_service_thread_infoEE4top_E
	.section	.bss._ZN4asio6detail10call_stackINS0_15task_io_serviceENS0_27task_io_service_thread_infoEE4top_E,"awG",@nobits,_ZN4asio6detail10call_stackINS0_15task_io_serviceENS0_27task_io_service_thread_infoEE4top_E,comdat
	.type	_ZN4asio6detail10call_stackINS0_15task_io_serviceENS0_27task_io_service_thread_infoEE4top_E, @gnu_unique_object
	.size	_ZN4asio6detail10call_stackINS0_15task_io_serviceENS0_27task_io_service_thread_infoEE4top_E, 1
_ZN4asio6detail10call_stackINS0_15task_io_serviceENS0_27task_io_service_thread_infoEE4top_E:
	.zero	1
	.weak	_ZTSSt16_Sp_counted_baseILN9__gnu_cxx12_Lock_policyE2EE
	.section	.rodata._ZTSSt16_Sp_counted_baseILN9__gnu_cxx12_Lock_policyE2EE,"aG",@progbits,_ZTSSt16_Sp_counted_baseILN9__gnu_cxx12_Lock_policyE2EE,comdat
	.align 32
	.type	_ZTSSt16_Sp_counted_baseILN9__gnu_cxx12_Lock_policyE2EE, @object
	.size	_ZTSSt16_Sp_counted_baseILN9__gnu_cxx12_Lock_policyE2EE, 52
_ZTSSt16_Sp_counted_baseILN9__gnu_cxx12_Lock_policyE2EE:
	.string	"St16_Sp_counted_baseILN9__gnu_cxx12_Lock_policyE2EE"
	.weak	_ZTISt16_Sp_counted_baseILN9__gnu_cxx12_Lock_policyE2EE
	.section	.data.rel.ro._ZTISt16_Sp_counted_baseILN9__gnu_cxx12_Lock_policyE2EE,"awG",@progbits,_ZTISt16_Sp_counted_baseILN9__gnu_cxx12_Lock_policyE2EE,comdat
	.align 8
	.type	_ZTISt16_Sp_counted_baseILN9__gnu_cxx12_Lock_policyE2EE, @object
	.size	_ZTISt16_Sp_counted_baseILN9__gnu_cxx12_Lock_policyE2EE, 24
_ZTISt16_Sp_counted_baseILN9__gnu_cxx12_Lock_policyE2EE:
	.quad	_ZTVN10__cxxabiv120__si_class_type_infoE+16
	.quad	_ZTSSt16_Sp_counted_baseILN9__gnu_cxx12_Lock_policyE2EE
	.quad	_ZTISt11_Mutex_baseILN9__gnu_cxx12_Lock_policyE2EE
	.weak	_ZTSN4asio6detail15system_categoryE
	.section	.rodata._ZTSN4asio6detail15system_categoryE,"aG",@progbits,_ZTSN4asio6detail15system_categoryE,comdat
	.align 32
	.type	_ZTSN4asio6detail15system_categoryE, @object
	.size	_ZTSN4asio6detail15system_categoryE, 32
_ZTSN4asio6detail15system_categoryE:
	.string	"N4asio6detail15system_categoryE"
	.weak	_ZTIN4asio6detail15system_categoryE
	.section	.data.rel.ro._ZTIN4asio6detail15system_categoryE,"awG",@progbits,_ZTIN4asio6detail15system_categoryE,comdat
	.align 8
	.type	_ZTIN4asio6detail15system_categoryE, @object
	.size	_ZTIN4asio6detail15system_categoryE, 24
_ZTIN4asio6detail15system_categoryE:
	.quad	_ZTVN10__cxxabiv120__si_class_type_infoE+16
	.quad	_ZTSN4asio6detail15system_categoryE
	.quad	_ZTINSt3_V214error_categoryE
	.weak	_ZTSN4asio5error6detail14netdb_categoryE
	.section	.rodata._ZTSN4asio5error6detail14netdb_categoryE,"aG",@progbits,_ZTSN4asio5error6detail14netdb_categoryE,comdat
	.align 32
	.type	_ZTSN4asio5error6detail14netdb_categoryE, @object
	.size	_ZTSN4asio5error6detail14netdb_categoryE, 37
_ZTSN4asio5error6detail14netdb_categoryE:
	.string	"N4asio5error6detail14netdb_categoryE"
	.weak	_ZTIN4asio5error6detail14netdb_categoryE
	.section	.data.rel.ro._ZTIN4asio5error6detail14netdb_categoryE,"awG",@progbits,_ZTIN4asio5error6detail14netdb_categoryE,comdat
	.align 8
	.type	_ZTIN4asio5error6detail14netdb_categoryE, @object
	.size	_ZTIN4asio5error6detail14netdb_categoryE, 24
_ZTIN4asio5error6detail14netdb_categoryE:
	.quad	_ZTVN10__cxxabiv120__si_class_type_infoE+16
	.quad	_ZTSN4asio5error6detail14netdb_categoryE
	.quad	_ZTINSt3_V214error_categoryE
	.weak	_ZTSN4asio5error6detail17addrinfo_categoryE
	.section	.rodata._ZTSN4asio5error6detail17addrinfo_categoryE,"aG",@progbits,_ZTSN4asio5error6detail17addrinfo_categoryE,comdat
	.align 32
	.type	_ZTSN4asio5error6detail17addrinfo_categoryE, @object
	.size	_ZTSN4asio5error6detail17addrinfo_categoryE, 40
_ZTSN4asio5error6detail17addrinfo_categoryE:
	.string	"N4asio5error6detail17addrinfo_categoryE"
	.weak	_ZTIN4asio5error6detail17addrinfo_categoryE
	.section	.data.rel.ro._ZTIN4asio5error6detail17addrinfo_categoryE,"awG",@progbits,_ZTIN4asio5error6detail17addrinfo_categoryE,comdat
	.align 8
	.type	_ZTIN4asio5error6detail17addrinfo_categoryE, @object
	.size	_ZTIN4asio5error6detail17addrinfo_categoryE, 24
_ZTIN4asio5error6detail17addrinfo_categoryE:
	.quad	_ZTVN10__cxxabiv120__si_class_type_infoE+16
	.quad	_ZTSN4asio5error6detail17addrinfo_categoryE
	.quad	_ZTINSt3_V214error_categoryE
	.weak	_ZTSN4asio5error6detail13misc_categoryE
	.section	.rodata._ZTSN4asio5error6detail13misc_categoryE,"aG",@progbits,_ZTSN4asio5error6detail13misc_categoryE,comdat
	.align 32
	.type	_ZTSN4asio5error6detail13misc_categoryE, @object
	.size	_ZTSN4asio5error6detail13misc_categoryE, 36
_ZTSN4asio5error6detail13misc_categoryE:
	.string	"N4asio5error6detail13misc_categoryE"
	.weak	_ZTIN4asio5error6detail13misc_categoryE
	.section	.data.rel.ro._ZTIN4asio5error6detail13misc_categoryE,"awG",@progbits,_ZTIN4asio5error6detail13misc_categoryE,comdat
	.align 8
	.type	_ZTIN4asio5error6detail13misc_categoryE, @object
	.size	_ZTIN4asio5error6detail13misc_categoryE, 24
_ZTIN4asio5error6detail13misc_categoryE:
	.quad	_ZTVN10__cxxabiv120__si_class_type_infoE+16
	.quad	_ZTSN4asio5error6detail13misc_categoryE
	.quad	_ZTINSt3_V214error_categoryE
	.weak	_ZTSN8asiodnp315MasterTCPServerE
	.section	.rodata._ZTSN8asiodnp315MasterTCPServerE,"aG",@progbits,_ZTSN8asiodnp315MasterTCPServerE,comdat
	.align 16
	.type	_ZTSN8asiodnp315MasterTCPServerE, @object
	.size	_ZTSN8asiodnp315MasterTCPServerE, 29
_ZTSN8asiodnp315MasterTCPServerE:
	.string	"N8asiodnp315MasterTCPServerE"
	.weak	_ZTIN8asiodnp315MasterTCPServerE
	.section	.data.rel.ro._ZTIN8asiodnp315MasterTCPServerE,"awG",@progbits,_ZTIN8asiodnp315MasterTCPServerE,comdat
	.align 8
	.type	_ZTIN8asiodnp315MasterTCPServerE, @object
	.size	_ZTIN8asiodnp315MasterTCPServerE, 24
_ZTIN8asiodnp315MasterTCPServerE:
	.quad	_ZTVN10__cxxabiv120__si_class_type_infoE+16
	.quad	_ZTSN8asiodnp315MasterTCPServerE
	.quad	_ZTIN7asiopal9TCPServerE
	.weak	_ZTSN7asiopal13IAsyncChannelE
	.section	.rodata._ZTSN7asiopal13IAsyncChannelE,"aG",@progbits,_ZTSN7asiopal13IAsyncChannelE,comdat
	.align 16
	.type	_ZTSN7asiopal13IAsyncChannelE, @object
	.size	_ZTSN7asiopal13IAsyncChannelE, 26
_ZTSN7asiopal13IAsyncChannelE:
	.string	"N7asiopal13IAsyncChannelE"
	.weak	_ZTIN7asiopal13IAsyncChannelE
	.section	.data.rel.ro._ZTIN7asiopal13IAsyncChannelE,"awG",@progbits,_ZTIN7asiopal13IAsyncChannelE,comdat
	.align 8
	.type	_ZTIN7asiopal13IAsyncChannelE, @object
	.size	_ZTIN7asiopal13IAsyncChannelE, 56
_ZTIN7asiopal13IAsyncChannelE:
	.quad	_ZTVN10__cxxabiv121__vmi_class_type_infoE+16
	.quad	_ZTSN7asiopal13IAsyncChannelE
	.long	0
	.long	2
	.quad	_ZTISt23enable_shared_from_thisIN7asiopal13IAsyncChannelEE
	.quad	2050
	.quad	_ZTIN7openpal10UncopyableE
	.quad	0
	.weak	_ZTSSt19_Sp_make_shared_tag
	.section	.rodata._ZTSSt19_Sp_make_shared_tag,"aG",@progbits,_ZTSSt19_Sp_make_shared_tag,comdat
	.align 16
	.type	_ZTSSt19_Sp_make_shared_tag, @object
	.size	_ZTSSt19_Sp_make_shared_tag, 24
_ZTSSt19_Sp_make_shared_tag:
	.string	"St19_Sp_make_shared_tag"
	.weak	_ZTISt19_Sp_make_shared_tag
	.section	.data.rel.ro._ZTISt19_Sp_make_shared_tag,"awG",@progbits,_ZTISt19_Sp_make_shared_tag,comdat
	.align 8
	.type	_ZTISt19_Sp_make_shared_tag, @object
	.size	_ZTISt19_Sp_make_shared_tag, 16
_ZTISt19_Sp_make_shared_tag:
	.quad	_ZTVN10__cxxabiv117__class_type_infoE+16
	.quad	_ZTSSt19_Sp_make_shared_tag
	.weak	_ZTSSt23_Sp_counted_ptr_inplaceIN7openpal6Logger8SettingsESaIS2_ELN9__gnu_cxx12_Lock_policyE2EE
	.section	.rodata._ZTSSt23_Sp_counted_ptr_inplaceIN7openpal6Logger8SettingsESaIS2_ELN9__gnu_cxx12_Lock_policyE2EE,"aG",@progbits,_ZTSSt23_Sp_counted_ptr_inplaceIN7openpal6Logger8SettingsESaIS2_ELN9__gnu_cxx12_Lock_policyE2EE,comdat
	.align 32
	.type	_ZTSSt23_Sp_counted_ptr_inplaceIN7openpal6Logger8SettingsESaIS2_ELN9__gnu_cxx12_Lock_policyE2EE, @object
	.size	_ZTSSt23_Sp_counted_ptr_inplaceIN7openpal6Logger8SettingsESaIS2_ELN9__gnu_cxx12_Lock_policyE2EE, 92
_ZTSSt23_Sp_counted_ptr_inplaceIN7openpal6Logger8SettingsESaIS2_ELN9__gnu_cxx12_Lock_policyE2EE:
	.string	"St23_Sp_counted_ptr_inplaceIN7openpal6Logger8SettingsESaIS2_ELN9__gnu_cxx12_Lock_policyE2EE"
	.weak	_ZTISt23_Sp_counted_ptr_inplaceIN7openpal6Logger8SettingsESaIS2_ELN9__gnu_cxx12_Lock_policyE2EE
	.section	.data.rel.ro._ZTISt23_Sp_counted_ptr_inplaceIN7openpal6Logger8SettingsESaIS2_ELN9__gnu_cxx12_Lock_policyE2EE,"awG",@progbits,_ZTISt23_Sp_counted_ptr_inplaceIN7openpal6Logger8SettingsESaIS2_ELN9__gnu_cxx12_Lock_policyE2EE,comdat
	.align 8
	.type	_ZTISt23_Sp_counted_ptr_inplaceIN7openpal6Logger8SettingsESaIS2_ELN9__gnu_cxx12_Lock_policyE2EE, @object
	.size	_ZTISt23_Sp_counted_ptr_inplaceIN7openpal6Logger8SettingsESaIS2_ELN9__gnu_cxx12_Lock_policyE2EE, 24
_ZTISt23_Sp_counted_ptr_inplaceIN7openpal6Logger8SettingsESaIS2_ELN9__gnu_cxx12_Lock_policyE2EE:
	.quad	_ZTVN10__cxxabiv120__si_class_type_infoE+16
	.quad	_ZTSSt23_Sp_counted_ptr_inplaceIN7openpal6Logger8SettingsESaIS2_ELN9__gnu_cxx12_Lock_policyE2EE
	.quad	_ZTISt16_Sp_counted_baseILN9__gnu_cxx12_Lock_policyE2EE
	.weak	_ZTSSt23_Sp_counted_ptr_inplaceIN7asiopal8ExecutorESaIS1_ELN9__gnu_cxx12_Lock_policyE2EE
	.section	.rodata._ZTSSt23_Sp_counted_ptr_inplaceIN7asiopal8ExecutorESaIS1_ELN9__gnu_cxx12_Lock_policyE2EE,"aG",@progbits,_ZTSSt23_Sp_counted_ptr_inplaceIN7asiopal8ExecutorESaIS1_ELN9__gnu_cxx12_Lock_policyE2EE,comdat
	.align 32
	.type	_ZTSSt23_Sp_counted_ptr_inplaceIN7asiopal8ExecutorESaIS1_ELN9__gnu_cxx12_Lock_policyE2EE, @object
	.size	_ZTSSt23_Sp_counted_ptr_inplaceIN7asiopal8ExecutorESaIS1_ELN9__gnu_cxx12_Lock_policyE2EE, 85
_ZTSSt23_Sp_counted_ptr_inplaceIN7asiopal8ExecutorESaIS1_ELN9__gnu_cxx12_Lock_policyE2EE:
	.string	"St23_Sp_counted_ptr_inplaceIN7asiopal8ExecutorESaIS1_ELN9__gnu_cxx12_Lock_policyE2EE"
	.weak	_ZTISt23_Sp_counted_ptr_inplaceIN7asiopal8ExecutorESaIS1_ELN9__gnu_cxx12_Lock_policyE2EE
	.section	.data.rel.ro._ZTISt23_Sp_counted_ptr_inplaceIN7asiopal8ExecutorESaIS1_ELN9__gnu_cxx12_Lock_policyE2EE,"awG",@progbits,_ZTISt23_Sp_counted_ptr_inplaceIN7asiopal8ExecutorESaIS1_ELN9__gnu_cxx12_Lock_policyE2EE,comdat
	.align 8
	.type	_ZTISt23_Sp_counted_ptr_inplaceIN7asiopal8ExecutorESaIS1_ELN9__gnu_cxx12_Lock_policyE2EE, @object
	.size	_ZTISt23_Sp_counted_ptr_inplaceIN7asiopal8ExecutorESaIS1_ELN9__gnu_cxx12_Lock_policyE2EE, 24
_ZTISt23_Sp_counted_ptr_inplaceIN7asiopal8ExecutorESaIS1_ELN9__gnu_cxx12_Lock_policyE2EE:
	.quad	_ZTVN10__cxxabiv120__si_class_type_infoE+16
	.quad	_ZTSSt23_Sp_counted_ptr_inplaceIN7asiopal8ExecutorESaIS1_ELN9__gnu_cxx12_Lock_policyE2EE
	.quad	_ZTISt16_Sp_counted_baseILN9__gnu_cxx12_Lock_policyE2EE
	.weak	_ZTSSt23_Sp_counted_ptr_inplaceIN8asiodnp311LinkSessionESaIS1_ELN9__gnu_cxx12_Lock_policyE2EE
	.section	.rodata._ZTSSt23_Sp_counted_ptr_inplaceIN8asiodnp311LinkSessionESaIS1_ELN9__gnu_cxx12_Lock_policyE2EE,"aG",@progbits,_ZTSSt23_Sp_counted_ptr_inplaceIN8asiodnp311LinkSessionESaIS1_ELN9__gnu_cxx12_Lock_policyE2EE,comdat
	.align 32
	.type	_ZTSSt23_Sp_counted_ptr_inplaceIN8asiodnp311LinkSessionESaIS1_ELN9__gnu_cxx12_Lock_policyE2EE, @object
	.size	_ZTSSt23_Sp_counted_ptr_inplaceIN8asiodnp311LinkSessionESaIS1_ELN9__gnu_cxx12_Lock_policyE2EE, 90
_ZTSSt23_Sp_counted_ptr_inplaceIN8asiodnp311LinkSessionESaIS1_ELN9__gnu_cxx12_Lock_policyE2EE:
	.string	"St23_Sp_counted_ptr_inplaceIN8asiodnp311LinkSessionESaIS1_ELN9__gnu_cxx12_Lock_policyE2EE"
	.weak	_ZTISt23_Sp_counted_ptr_inplaceIN8asiodnp311LinkSessionESaIS1_ELN9__gnu_cxx12_Lock_policyE2EE
	.section	.data.rel.ro._ZTISt23_Sp_counted_ptr_inplaceIN8asiodnp311LinkSessionESaIS1_ELN9__gnu_cxx12_Lock_policyE2EE,"awG",@progbits,_ZTISt23_Sp_counted_ptr_inplaceIN8asiodnp311LinkSessionESaIS1_ELN9__gnu_cxx12_Lock_policyE2EE,comdat
	.align 8
	.type	_ZTISt23_Sp_counted_ptr_inplaceIN8asiodnp311LinkSessionESaIS1_ELN9__gnu_cxx12_Lock_policyE2EE, @object
	.size	_ZTISt23_Sp_counted_ptr_inplaceIN8asiodnp311LinkSessionESaIS1_ELN9__gnu_cxx12_Lock_policyE2EE, 24
_ZTISt23_Sp_counted_ptr_inplaceIN8asiodnp311LinkSessionESaIS1_ELN9__gnu_cxx12_Lock_policyE2EE:
	.quad	_ZTVN10__cxxabiv120__si_class_type_infoE+16
	.quad	_ZTSSt23_Sp_counted_ptr_inplaceIN8asiodnp311LinkSessionESaIS1_ELN9__gnu_cxx12_Lock_policyE2EE
	.quad	_ZTISt16_Sp_counted_baseILN9__gnu_cxx12_Lock_policyE2EE
	.weak	_ZTSSt23_Sp_counted_ptr_inplaceIN7asiopal13SocketChannelESaIS1_ELN9__gnu_cxx12_Lock_policyE2EE
	.section	.rodata._ZTSSt23_Sp_counted_ptr_inplaceIN7asiopal13SocketChannelESaIS1_ELN9__gnu_cxx12_Lock_policyE2EE,"aG",@progbits,_ZTSSt23_Sp_counted_ptr_inplaceIN7asiopal13SocketChannelESaIS1_ELN9__gnu_cxx12_Lock_policyE2EE,comdat
	.align 32
	.type	_ZTSSt23_Sp_counted_ptr_inplaceIN7asiopal13SocketChannelESaIS1_ELN9__gnu_cxx12_Lock_policyE2EE, @object
	.size	_ZTSSt23_Sp_counted_ptr_inplaceIN7asiopal13SocketChannelESaIS1_ELN9__gnu_cxx12_Lock_policyE2EE, 91
_ZTSSt23_Sp_counted_ptr_inplaceIN7asiopal13SocketChannelESaIS1_ELN9__gnu_cxx12_Lock_policyE2EE:
	.string	"St23_Sp_counted_ptr_inplaceIN7asiopal13SocketChannelESaIS1_ELN9__gnu_cxx12_Lock_policyE2EE"
	.weak	_ZTISt23_Sp_counted_ptr_inplaceIN7asiopal13SocketChannelESaIS1_ELN9__gnu_cxx12_Lock_policyE2EE
	.section	.data.rel.ro._ZTISt23_Sp_counted_ptr_inplaceIN7asiopal13SocketChannelESaIS1_ELN9__gnu_cxx12_Lock_policyE2EE,"awG",@progbits,_ZTISt23_Sp_counted_ptr_inplaceIN7asiopal13SocketChannelESaIS1_ELN9__gnu_cxx12_Lock_policyE2EE,comdat
	.align 8
	.type	_ZTISt23_Sp_counted_ptr_inplaceIN7asiopal13SocketChannelESaIS1_ELN9__gnu_cxx12_Lock_policyE2EE, @object
	.size	_ZTISt23_Sp_counted_ptr_inplaceIN7asiopal13SocketChannelESaIS1_ELN9__gnu_cxx12_Lock_policyE2EE, 24
_ZTISt23_Sp_counted_ptr_inplaceIN7asiopal13SocketChannelESaIS1_ELN9__gnu_cxx12_Lock_policyE2EE:
	.quad	_ZTVN10__cxxabiv120__si_class_type_infoE+16
	.quad	_ZTSSt23_Sp_counted_ptr_inplaceIN7asiopal13SocketChannelESaIS1_ELN9__gnu_cxx12_Lock_policyE2EE
	.quad	_ZTISt16_Sp_counted_baseILN9__gnu_cxx12_Lock_policyE2EE
	.weak	_ZTVN4asio6detail15system_categoryE
	.section	.data.rel.ro._ZTVN4asio6detail15system_categoryE,"awG",@progbits,_ZTVN4asio6detail15system_categoryE,comdat
	.align 8
	.type	_ZTVN4asio6detail15system_categoryE, @object
	.size	_ZTVN4asio6detail15system_categoryE, 80
_ZTVN4asio6detail15system_categoryE:
	.quad	0
	.quad	_ZTIN4asio6detail15system_categoryE
	.quad	_ZN4asio6detail15system_categoryD1Ev
	.quad	_ZN4asio6detail15system_categoryD0Ev
	.quad	_ZNK4asio6detail15system_category4nameEv
	.quad	_ZNKSt3_V214error_category10_M_messageB5cxx11Ei
	.quad	_ZNK4asio6detail15system_category7messageB5cxx11Ei
	.quad	_ZNKSt3_V214error_category23default_error_conditionEi
	.quad	_ZNKSt3_V214error_category10equivalentEiRKSt15error_condition
	.quad	_ZNKSt3_V214error_category10equivalentERKSt10error_codei
	.weak	_ZTVN4asio5error6detail14netdb_categoryE
	.section	.data.rel.ro._ZTVN4asio5error6detail14netdb_categoryE,"awG",@progbits,_ZTVN4asio5error6detail14netdb_categoryE,comdat
	.align 8
	.type	_ZTVN4asio5error6detail14netdb_categoryE, @object
	.size	_ZTVN4asio5error6detail14netdb_categoryE, 80
_ZTVN4asio5error6detail14netdb_categoryE:
	.quad	0
	.quad	_ZTIN4asio5error6detail14netdb_categoryE
	.quad	_ZN4asio5error6detail14netdb_categoryD1Ev
	.quad	_ZN4asio5error6detail14netdb_categoryD0Ev
	.quad	_ZNK4asio5error6detail14netdb_category4nameEv
	.quad	_ZNKSt3_V214error_category10_M_messageB5cxx11Ei
	.quad	_ZNK4asio5error6detail14netdb_category7messageB5cxx11Ei
	.quad	_ZNKSt3_V214error_category23default_error_conditionEi
	.quad	_ZNKSt3_V214error_category10equivalentEiRKSt15error_condition
	.quad	_ZNKSt3_V214error_category10equivalentERKSt10error_codei
	.weak	_ZTVN4asio5error6detail17addrinfo_categoryE
	.section	.data.rel.ro._ZTVN4asio5error6detail17addrinfo_categoryE,"awG",@progbits,_ZTVN4asio5error6detail17addrinfo_categoryE,comdat
	.align 8
	.type	_ZTVN4asio5error6detail17addrinfo_categoryE, @object
	.size	_ZTVN4asio5error6detail17addrinfo_categoryE, 80
_ZTVN4asio5error6detail17addrinfo_categoryE:
	.quad	0
	.quad	_ZTIN4asio5error6detail17addrinfo_categoryE
	.quad	_ZN4asio5error6detail17addrinfo_categoryD1Ev
	.quad	_ZN4asio5error6detail17addrinfo_categoryD0Ev
	.quad	_ZNK4asio5error6detail17addrinfo_category4nameEv
	.quad	_ZNKSt3_V214error_category10_M_messageB5cxx11Ei
	.quad	_ZNK4asio5error6detail17addrinfo_category7messageB5cxx11Ei
	.quad	_ZNKSt3_V214error_category23default_error_conditionEi
	.quad	_ZNKSt3_V214error_category10equivalentEiRKSt15error_condition
	.quad	_ZNKSt3_V214error_category10equivalentERKSt10error_codei
	.weak	_ZTVN4asio5error6detail13misc_categoryE
	.section	.data.rel.ro._ZTVN4asio5error6detail13misc_categoryE,"awG",@progbits,_ZTVN4asio5error6detail13misc_categoryE,comdat
	.align 8
	.type	_ZTVN4asio5error6detail13misc_categoryE, @object
	.size	_ZTVN4asio5error6detail13misc_categoryE, 80
_ZTVN4asio5error6detail13misc_categoryE:
	.quad	0
	.quad	_ZTIN4asio5error6detail13misc_categoryE
	.quad	_ZN4asio5error6detail13misc_categoryD1Ev
	.quad	_ZN4asio5error6detail13misc_categoryD0Ev
	.quad	_ZNK4asio5error6detail13misc_category4nameEv
	.quad	_ZNKSt3_V214error_category10_M_messageB5cxx11Ei
	.quad	_ZNK4asio5error6detail13misc_category7messageB5cxx11Ei
	.quad	_ZNKSt3_V214error_category23default_error_conditionEi
	.quad	_ZNKSt3_V214error_category10equivalentEiRKSt15error_condition
	.quad	_ZNKSt3_V214error_category10equivalentERKSt10error_codei
	.weak	_ZTVN7asiopal13IAsyncChannelE
	.section	.data.rel.ro._ZTVN7asiopal13IAsyncChannelE,"awG",@progbits,_ZTVN7asiopal13IAsyncChannelE,comdat
	.align 8
	.type	_ZTVN7asiopal13IAsyncChannelE, @object
	.size	_ZTVN7asiopal13IAsyncChannelE, 56
_ZTVN7asiopal13IAsyncChannelE:
	.quad	0
	.quad	_ZTIN7asiopal13IAsyncChannelE
	.quad	0
	.quad	0
	.quad	__cxa_pure_virtual
	.quad	__cxa_pure_virtual
	.quad	__cxa_pure_virtual
	.weak	_ZTVN8asiodnp315MasterTCPServerE
	.section	.data.rel.ro._ZTVN8asiodnp315MasterTCPServerE,"awG",@progbits,_ZTVN8asiodnp315MasterTCPServerE,comdat
	.align 8
	.type	_ZTVN8asiodnp315MasterTCPServerE, @object
	.size	_ZTVN8asiodnp315MasterTCPServerE, 56
_ZTVN8asiodnp315MasterTCPServerE:
	.quad	0
	.quad	_ZTIN8asiodnp315MasterTCPServerE
	.quad	_ZN8asiodnp315MasterTCPServerD1Ev
	.quad	_ZN8asiodnp315MasterTCPServerD0Ev
	.quad	_ZN7asiopal9TCPServer8ShutdownEv
	.quad	_ZN8asiodnp315MasterTCPServer10OnShutdownEv
	.quad	_ZN8asiodnp315MasterTCPServer16AcceptConnectionEmRKSt10shared_ptrIN7asiopal8ExecutorEEN4asio19basic_stream_socketINS7_2ip3tcpENS7_21stream_socket_serviceISA_EEEE
	.weak	_ZTVSt23_Sp_counted_ptr_inplaceIN7openpal6Logger8SettingsESaIS2_ELN9__gnu_cxx12_Lock_policyE2EE
	.section	.data.rel.ro._ZTVSt23_Sp_counted_ptr_inplaceIN7openpal6Logger8SettingsESaIS2_ELN9__gnu_cxx12_Lock_policyE2EE,"awG",@progbits,_ZTVSt23_Sp_counted_ptr_inplaceIN7openpal6Logger8SettingsESaIS2_ELN9__gnu_cxx12_Lock_policyE2EE,comdat
	.align 8
	.type	_ZTVSt23_Sp_counted_ptr_inplaceIN7openpal6Logger8SettingsESaIS2_ELN9__gnu_cxx12_Lock_policyE2EE, @object
	.size	_ZTVSt23_Sp_counted_ptr_inplaceIN7openpal6Logger8SettingsESaIS2_ELN9__gnu_cxx12_Lock_policyE2EE, 56
_ZTVSt23_Sp_counted_ptr_inplaceIN7openpal6Logger8SettingsESaIS2_ELN9__gnu_cxx12_Lock_policyE2EE:
	.quad	0
	.quad	_ZTISt23_Sp_counted_ptr_inplaceIN7openpal6Logger8SettingsESaIS2_ELN9__gnu_cxx12_Lock_policyE2EE
	.quad	_ZNSt23_Sp_counted_ptr_inplaceIN7openpal6Logger8SettingsESaIS2_ELN9__gnu_cxx12_Lock_policyE2EED1Ev
	.quad	_ZNSt23_Sp_counted_ptr_inplaceIN7openpal6Logger8SettingsESaIS2_ELN9__gnu_cxx12_Lock_policyE2EED0Ev
	.quad	_ZNSt23_Sp_counted_ptr_inplaceIN7openpal6Logger8SettingsESaIS2_ELN9__gnu_cxx12_Lock_policyE2EE10_M_disposeEv
	.quad	_ZNSt23_Sp_counted_ptr_inplaceIN7openpal6Logger8SettingsESaIS2_ELN9__gnu_cxx12_Lock_policyE2EE10_M_destroyEv
	.quad	_ZNSt23_Sp_counted_ptr_inplaceIN7openpal6Logger8SettingsESaIS2_ELN9__gnu_cxx12_Lock_policyE2EE14_M_get_deleterERKSt9type_info
	.weak	_ZTVSt23_Sp_counted_ptr_inplaceIN7asiopal8ExecutorESaIS1_ELN9__gnu_cxx12_Lock_policyE2EE
	.section	.data.rel.ro._ZTVSt23_Sp_counted_ptr_inplaceIN7asiopal8ExecutorESaIS1_ELN9__gnu_cxx12_Lock_policyE2EE,"awG",@progbits,_ZTVSt23_Sp_counted_ptr_inplaceIN7asiopal8ExecutorESaIS1_ELN9__gnu_cxx12_Lock_policyE2EE,comdat
	.align 8
	.type	_ZTVSt23_Sp_counted_ptr_inplaceIN7asiopal8ExecutorESaIS1_ELN9__gnu_cxx12_Lock_policyE2EE, @object
	.size	_ZTVSt23_Sp_counted_ptr_inplaceIN7asiopal8ExecutorESaIS1_ELN9__gnu_cxx12_Lock_policyE2EE, 56
_ZTVSt23_Sp_counted_ptr_inplaceIN7asiopal8ExecutorESaIS1_ELN9__gnu_cxx12_Lock_policyE2EE:
	.quad	0
	.quad	_ZTISt23_Sp_counted_ptr_inplaceIN7asiopal8ExecutorESaIS1_ELN9__gnu_cxx12_Lock_policyE2EE
	.quad	_ZNSt23_Sp_counted_ptr_inplaceIN7asiopal8ExecutorESaIS1_ELN9__gnu_cxx12_Lock_policyE2EED1Ev
	.quad	_ZNSt23_Sp_counted_ptr_inplaceIN7asiopal8ExecutorESaIS1_ELN9__gnu_cxx12_Lock_policyE2EED0Ev
	.quad	_ZNSt23_Sp_counted_ptr_inplaceIN7asiopal8ExecutorESaIS1_ELN9__gnu_cxx12_Lock_policyE2EE10_M_disposeEv
	.quad	_ZNSt23_Sp_counted_ptr_inplaceIN7asiopal8ExecutorESaIS1_ELN9__gnu_cxx12_Lock_policyE2EE10_M_destroyEv
	.quad	_ZNSt23_Sp_counted_ptr_inplaceIN7asiopal8ExecutorESaIS1_ELN9__gnu_cxx12_Lock_policyE2EE14_M_get_deleterERKSt9type_info
	.weak	_ZTVSt23_Sp_counted_ptr_inplaceIN8asiodnp311LinkSessionESaIS1_ELN9__gnu_cxx12_Lock_policyE2EE
	.section	.data.rel.ro._ZTVSt23_Sp_counted_ptr_inplaceIN8asiodnp311LinkSessionESaIS1_ELN9__gnu_cxx12_Lock_policyE2EE,"awG",@progbits,_ZTVSt23_Sp_counted_ptr_inplaceIN8asiodnp311LinkSessionESaIS1_ELN9__gnu_cxx12_Lock_policyE2EE,comdat
	.align 8
	.type	_ZTVSt23_Sp_counted_ptr_inplaceIN8asiodnp311LinkSessionESaIS1_ELN9__gnu_cxx12_Lock_policyE2EE, @object
	.size	_ZTVSt23_Sp_counted_ptr_inplaceIN8asiodnp311LinkSessionESaIS1_ELN9__gnu_cxx12_Lock_policyE2EE, 56
_ZTVSt23_Sp_counted_ptr_inplaceIN8asiodnp311LinkSessionESaIS1_ELN9__gnu_cxx12_Lock_policyE2EE:
	.quad	0
	.quad	_ZTISt23_Sp_counted_ptr_inplaceIN8asiodnp311LinkSessionESaIS1_ELN9__gnu_cxx12_Lock_policyE2EE
	.quad	_ZNSt23_Sp_counted_ptr_inplaceIN8asiodnp311LinkSessionESaIS1_ELN9__gnu_cxx12_Lock_policyE2EED1Ev
	.quad	_ZNSt23_Sp_counted_ptr_inplaceIN8asiodnp311LinkSessionESaIS1_ELN9__gnu_cxx12_Lock_policyE2EED0Ev
	.quad	_ZNSt23_Sp_counted_ptr_inplaceIN8asiodnp311LinkSessionESaIS1_ELN9__gnu_cxx12_Lock_policyE2EE10_M_disposeEv
	.quad	_ZNSt23_Sp_counted_ptr_inplaceIN8asiodnp311LinkSessionESaIS1_ELN9__gnu_cxx12_Lock_policyE2EE10_M_destroyEv
	.quad	_ZNSt23_Sp_counted_ptr_inplaceIN8asiodnp311LinkSessionESaIS1_ELN9__gnu_cxx12_Lock_policyE2EE14_M_get_deleterERKSt9type_info
	.weak	_ZTVSt23_Sp_counted_ptr_inplaceIN7asiopal13SocketChannelESaIS1_ELN9__gnu_cxx12_Lock_policyE2EE
	.section	.data.rel.ro._ZTVSt23_Sp_counted_ptr_inplaceIN7asiopal13SocketChannelESaIS1_ELN9__gnu_cxx12_Lock_policyE2EE,"awG",@progbits,_ZTVSt23_Sp_counted_ptr_inplaceIN7asiopal13SocketChannelESaIS1_ELN9__gnu_cxx12_Lock_policyE2EE,comdat
	.align 8
	.type	_ZTVSt23_Sp_counted_ptr_inplaceIN7asiopal13SocketChannelESaIS1_ELN9__gnu_cxx12_Lock_policyE2EE, @object
	.size	_ZTVSt23_Sp_counted_ptr_inplaceIN7asiopal13SocketChannelESaIS1_ELN9__gnu_cxx12_Lock_policyE2EE, 56
_ZTVSt23_Sp_counted_ptr_inplaceIN7asiopal13SocketChannelESaIS1_ELN9__gnu_cxx12_Lock_policyE2EE:
	.quad	0
	.quad	_ZTISt23_Sp_counted_ptr_inplaceIN7asiopal13SocketChannelESaIS1_ELN9__gnu_cxx12_Lock_policyE2EE
	.quad	_ZNSt23_Sp_counted_ptr_inplaceIN7asiopal13SocketChannelESaIS1_ELN9__gnu_cxx12_Lock_policyE2EED1Ev
	.quad	_ZNSt23_Sp_counted_ptr_inplaceIN7asiopal13SocketChannelESaIS1_ELN9__gnu_cxx12_Lock_policyE2EED0Ev
	.quad	_ZNSt23_Sp_counted_ptr_inplaceIN7asiopal13SocketChannelESaIS1_ELN9__gnu_cxx12_Lock_policyE2EE10_M_disposeEv
	.quad	_ZNSt23_Sp_counted_ptr_inplaceIN7asiopal13SocketChannelESaIS1_ELN9__gnu_cxx12_Lock_policyE2EE10_M_destroyEv
	.quad	_ZNSt23_Sp_counted_ptr_inplaceIN7asiopal13SocketChannelESaIS1_ELN9__gnu_cxx12_Lock_policyE2EE14_M_get_deleterERKSt9type_info
	.weak	_ZGVZN4asio5error17get_misc_categoryEvE8instance
	.section	.bss._ZGVZN4asio5error17get_misc_categoryEvE8instance,"awG",@nobits,_ZGVZN4asio5error17get_misc_categoryEvE8instance,comdat
	.align 8
	.type	_ZGVZN4asio5error17get_misc_categoryEvE8instance, @gnu_unique_object
	.size	_ZGVZN4asio5error17get_misc_categoryEvE8instance, 8
_ZGVZN4asio5error17get_misc_categoryEvE8instance:
	.zero	8
	.weak	_ZZN4asio5error17get_misc_categoryEvE8instance
	.section	.data.rel._ZZN4asio5error17get_misc_categoryEvE8instance,"awG",@progbits,_ZZN4asio5error17get_misc_categoryEvE8instance,comdat
	.align 8
