	.file	"MasterSessionStack.cpp"
	.text
	.section	.rodata._ZNK4asio6detail15system_category4nameEv.str1.1,"aMS",@progbits,1
.LC0:
	.string	"asio.system"
	.section	.text._ZNK4asio6detail15system_category4nameEv,"axG",@progbits,_ZNK4asio6detail15system_category4nameEv,comdat
	.align 2
	.p2align 4,,15
	.weak	_ZNK4asio6detail15system_category4nameEv
	.type	_ZNK4asio6detail15system_category4nameEv, @function
_ZNK4asio6detail15system_category4nameEv:
.LFB3353:
	.cfi_startproc
	leaq	.LC0(%rip), %rax
	ret
	.cfi_endproc
.LFE3353:
	.size	_ZNK4asio6detail15system_category4nameEv, .-_ZNK4asio6detail15system_category4nameEv
	.section	.rodata._ZNK4asio5error6detail14netdb_category4nameEv.str1.1,"aMS",@progbits,1
.LC1:
	.string	"asio.netdb"
	.section	.text._ZNK4asio5error6detail14netdb_category4nameEv,"axG",@progbits,_ZNK4asio5error6detail14netdb_category4nameEv,comdat
	.align 2
	.p2align 4,,15
	.weak	_ZNK4asio5error6detail14netdb_category4nameEv
	.type	_ZNK4asio5error6detail14netdb_category4nameEv, @function
_ZNK4asio5error6detail14netdb_category4nameEv:
.LFB3393:
	.cfi_startproc
	leaq	.LC1(%rip), %rax
	ret
	.cfi_endproc
.LFE3393:
	.size	_ZNK4asio5error6detail14netdb_category4nameEv, .-_ZNK4asio5error6detail14netdb_category4nameEv
	.section	.rodata._ZNK4asio5error6detail17addrinfo_category4nameEv.str1.1,"aMS",@progbits,1
.LC2:
	.string	"asio.addrinfo"
	.section	.text._ZNK4asio5error6detail17addrinfo_category4nameEv,"axG",@progbits,_ZNK4asio5error6detail17addrinfo_category4nameEv,comdat
	.align 2
	.p2align 4,,15
	.weak	_ZNK4asio5error6detail17addrinfo_category4nameEv
	.type	_ZNK4asio5error6detail17addrinfo_category4nameEv, @function
_ZNK4asio5error6detail17addrinfo_category4nameEv:
.LFB3399:
	.cfi_startproc
	leaq	.LC2(%rip), %rax
	ret
	.cfi_endproc
.LFE3399:
	.size	_ZNK4asio5error6detail17addrinfo_category4nameEv, .-_ZNK4asio5error6detail17addrinfo_category4nameEv
	.section	.rodata._ZNK4asio5error6detail13misc_category4nameEv.str1.1,"aMS",@progbits,1
.LC3:
	.string	"asio.misc"
	.section	.text._ZNK4asio5error6detail13misc_category4nameEv,"axG",@progbits,_ZNK4asio5error6detail13misc_category4nameEv,comdat
	.align 2
	.p2align 4,,15
	.weak	_ZNK4asio5error6detail13misc_category4nameEv
	.type	_ZNK4asio5error6detail13misc_category4nameEv, @function
_ZNK4asio5error6detail13misc_category4nameEv:
.LFB3405:
	.cfi_startproc
	leaq	.LC3(%rip), %rax
	ret
	.cfi_endproc
.LFE3405:
	.size	_ZNK4asio5error6detail13misc_category4nameEv, .-_ZNK4asio5error6detail13misc_category4nameEv
	.section	.text._ZNSt13__future_base13_State_baseV217_M_complete_asyncEv,"axG",@progbits,_ZNSt13__future_base13_State_baseV217_M_complete_asyncEv,comdat
	.align 2
	.p2align 4,,15
	.weak	_ZNSt13__future_base13_State_baseV217_M_complete_asyncEv
	.type	_ZNSt13__future_base13_State_baseV217_M_complete_asyncEv, @function
_ZNSt13__future_base13_State_baseV217_M_complete_asyncEv:
.LFB7341:
	.cfi_startproc
	rep ret
	.cfi_endproc
.LFE7341:
	.size	_ZNSt13__future_base13_State_baseV217_M_complete_asyncEv, .-_ZNSt13__future_base13_State_baseV217_M_complete_asyncEv
	.section	.text._ZNKSt13__future_base13_State_baseV221_M_is_deferred_futureEv,"axG",@progbits,_ZNKSt13__future_base13_State_baseV221_M_is_deferred_futureEv,comdat
	.align 2
	.p2align 4,,15
	.weak	_ZNKSt13__future_base13_State_baseV221_M_is_deferred_futureEv
	.type	_ZNKSt13__future_base13_State_baseV221_M_is_deferred_futureEv, @function
_ZNKSt13__future_base13_State_baseV221_M_is_deferred_futureEv:
.LFB7342:
	.cfi_startproc
	xorl	%eax, %eax
	ret
	.cfi_endproc
.LFE7342:
	.size	_ZNKSt13__future_base13_State_baseV221_M_is_deferred_futureEv, .-_ZNKSt13__future_base13_State_baseV221_M_is_deferred_futureEv
	.section	.text._ZZSt9call_onceIMNSt13__future_base13_State_baseV2EFvPSt8functionIFSt10unique_ptrINS0_12_Result_baseENS4_8_DeleterEEvEEPbEJPS1_S9_SA_EEvRSt9once_flagOT_DpOT0_ENUlvE0_4_FUNEv,"axG",@progbits,_ZZSt9call_onceIMNSt13__future_base13_State_baseV2EFvPSt8functionIFSt10unique_ptrINS0_12_Result_baseENS4_8_DeleterEEvEEPbEJPS1_S9_SA_EEvRSt9once_flagOT_DpOT0_ENKUlvE0_clEv,comdat
	.p2align 4,,15
	.weak	_ZZSt9call_onceIMNSt13__future_base13_State_baseV2EFvPSt8functionIFSt10unique_ptrINS0_12_Result_baseENS4_8_DeleterEEvEEPbEJPS1_S9_SA_EEvRSt9once_flagOT_DpOT0_ENUlvE0_4_FUNEv
	.type	_ZZSt9call_onceIMNSt13__future_base13_State_baseV2EFvPSt8functionIFSt10unique_ptrINS0_12_Result_baseENS4_8_DeleterEEvEEPbEJPS1_S9_SA_EEvRSt9once_flagOT_DpOT0_ENUlvE0_4_FUNEv, @function
_ZZSt9call_onceIMNSt13__future_base13_State_baseV2EFvPSt8functionIFSt10unique_ptrINS0_12_Result_baseENS4_8_DeleterEEvEEPbEJPS1_S9_SA_EEvRSt9once_flagOT_DpOT0_ENUlvE0_4_FUNEv:
.LFB8636:
	.cfi_startproc
	subq	$8, %rsp
	.cfi_def_cfa_offset 16
	.byte	0x66
	leaq	_ZSt15__once_callable@tlsgd(%rip), %rdi
	.value	0x6666
	rex64
	call	__tls_get_addr@PLT
	movq	(%rax), %rax
	movq	16(%rax), %rdx
	movq	(%rax), %rcx
	movq	(%rdx), %rsi
	movq	24(%rax), %rdx
	movq	8(%rax), %rax
	movq	8(%rcx), %rdi
	movq	(%rdx), %rdx
	addq	(%rax), %rdi
	movq	(%rcx), %rax
	testb	$1, %al
	je	.L9
	movq	(%rdi), %rcx
	movq	-1(%rcx,%rax), %rax
.L9:
	addq	$8, %rsp
	.cfi_def_cfa_offset 8
	jmp	*%rax
	.cfi_endproc
.LFE8636:
	.size	_ZZSt9call_onceIMNSt13__future_base13_State_baseV2EFvPSt8functionIFSt10unique_ptrINS0_12_Result_baseENS4_8_DeleterEEvEEPbEJPS1_S9_SA_EEvRSt9once_flagOT_DpOT0_ENUlvE0_4_FUNEv, .-_ZZSt9call_onceIMNSt13__future_base13_State_baseV2EFvPSt8functionIFSt10unique_ptrINS0_12_Result_baseENS4_8_DeleterEEvEEPbEJPS1_S9_SA_EEvRSt9once_flagOT_DpOT0_ENUlvE0_4_FUNEv
	.section	.text._ZNSt15__exception_ptr12__dest_thunkISt12future_errorEEvPv,"axG",@progbits,_ZNSt15__exception_ptr12__dest_thunkISt12future_errorEEvPv,comdat
	.p2align 4,,15
	.weak	_ZNSt15__exception_ptr12__dest_thunkISt12future_errorEEvPv
	.type	_ZNSt15__exception_ptr12__dest_thunkISt12future_errorEEvPv, @function
_ZNSt15__exception_ptr12__dest_thunkISt12future_errorEEvPv:
.LFB9263:
	.cfi_startproc
	movq	(%rdi), %rax
	jmp	*(%rax)
	.cfi_endproc
.LFE9263:
	.size	_ZNSt15__exception_ptr12__dest_thunkISt12future_errorEEvPv, .-_ZNSt15__exception_ptr12__dest_thunkISt12future_errorEEvPv
	.section	.text._ZNSt17_Function_handlerIFSt10unique_ptrINSt13__future_base12_Result_baseENS2_8_DeleterEEvENS1_13_State_baseV27_SetterIN8opendnp315StackStatisticsEOS9_EEE9_M_invokeERKSt9_Any_data,"axG",@progbits,_ZNSt17_Function_handlerIFSt10unique_ptrINSt13__future_base12_Result_baseENS2_8_DeleterEEvENS1_13_State_baseV27_SetterIN8opendnp315StackStatisticsEOS9_EEE9_M_invokeERKSt9_Any_data,comdat
	.p2align 4,,15
	.weak	_ZNSt17_Function_handlerIFSt10unique_ptrINSt13__future_base12_Result_baseENS2_8_DeleterEEvENS1_13_State_baseV27_SetterIN8opendnp315StackStatisticsEOS9_EEE9_M_invokeERKSt9_Any_data
	.type	_ZNSt17_Function_handlerIFSt10unique_ptrINSt13__future_base12_Result_baseENS2_8_DeleterEEvENS1_13_State_baseV27_SetterIN8opendnp315StackStatisticsEOS9_EEE9_M_invokeERKSt9_Any_data, @function
_ZNSt17_Function_handlerIFSt10unique_ptrINSt13__future_base12_Result_baseENS2_8_DeleterEEvENS1_13_State_baseV27_SetterIN8opendnp315StackStatisticsEOS9_EEE9_M_invokeERKSt9_Any_data:
.LFB10350:
	.cfi_startproc
	movq	(%rsi), %rdx
	movq	8(%rsi), %rcx
	movq	%rdi, %rax
	movq	16(%rdx), %rdx
	movdqu	(%rcx), %xmm0
	movups	%xmm0, 16(%rdx)
	movdqu	16(%rcx), %xmm0
	movups	%xmm0, 32(%rdx)
	movq	32(%rcx), %rcx
	movb	$1, 56(%rdx)
	movq	%rcx, 48(%rdx)
	movq	(%rsi), %rdx
	movq	16(%rdx), %rcx
	movq	$0, 16(%rdx)
	movq	%rcx, (%rdi)
	ret
	.cfi_endproc
.LFE10350:
	.size	_ZNSt17_Function_handlerIFSt10unique_ptrINSt13__future_base12_Result_baseENS2_8_DeleterEEvENS1_13_State_baseV27_SetterIN8opendnp315StackStatisticsEOS9_EEE9_M_invokeERKSt9_Any_data, .-_ZNSt17_Function_handlerIFSt10unique_ptrINSt13__future_base12_Result_baseENS2_8_DeleterEEvENS1_13_State_baseV27_SetterIN8opendnp315StackStatisticsEOS9_EEE9_M_invokeERKSt9_Any_data
	.section	.text._ZNSt14_Function_base13_Base_managerINSt13__future_base13_State_baseV27_SetterIN8opendnp315StackStatisticsEOS5_EEE10_M_managerERSt9_Any_dataRKS9_St18_Manager_operation,"axG",@progbits,_ZNSt14_Function_base13_Base_managerINSt13__future_base13_State_baseV27_SetterIN8opendnp315StackStatisticsEOS5_EEE10_M_managerERSt9_Any_dataRKS9_St18_Manager_operation,comdat
	.p2align 4,,15
	.weak	_ZNSt14_Function_base13_Base_managerINSt13__future_base13_State_baseV27_SetterIN8opendnp315StackStatisticsEOS5_EEE10_M_managerERSt9_Any_dataRKS9_St18_Manager_operation
	.type	_ZNSt14_Function_base13_Base_managerINSt13__future_base13_State_baseV27_SetterIN8opendnp315StackStatisticsEOS5_EEE10_M_managerERSt9_Any_dataRKS9_St18_Manager_operation, @function
_ZNSt14_Function_base13_Base_managerINSt13__future_base13_State_baseV27_SetterIN8opendnp315StackStatisticsEOS5_EEE10_M_managerERSt9_Any_dataRKS9_St18_Manager_operation:
.LFB10351:
	.cfi_startproc
	cmpl	$1, %edx
	je	.L18
	jb	.L19
	cmpl	$2, %edx
	jne	.L17
	movdqu	(%rsi), %xmm0
	movups	%xmm0, (%rdi)
.L17:
	xorl	%eax, %eax
	ret
	.p2align 4,,10
	.p2align 3
.L19:
	movq	_ZTINSt13__future_base13_State_baseV27_SetterIN8opendnp315StackStatisticsEOS3_EE@GOTPCREL(%rip), %rax
	movq	%rax, (%rdi)
	xorl	%eax, %eax
	ret
	.p2align 4,,10
	.p2align 3
.L18:
	movq	%rsi, (%rdi)
	xorl	%eax, %eax
	ret
	.cfi_endproc
.LFE10351:
	.size	_ZNSt14_Function_base13_Base_managerINSt13__future_base13_State_baseV27_SetterIN8opendnp315StackStatisticsEOS5_EEE10_M_managerERSt9_Any_dataRKS9_St18_Manager_operation, .-_ZNSt14_Function_base13_Base_managerINSt13__future_base13_State_baseV27_SetterIN8opendnp315StackStatisticsEOS5_EEE10_M_managerERSt9_Any_dataRKS9_St18_Manager_operation
	.section	.text._ZNSt17_Function_handlerIFSt10unique_ptrINSt13__future_base12_Result_baseENS2_8_DeleterEEvENS1_13_State_baseV27_SetterISt10shared_ptrIN8opendnp311IMasterTaskEEOSB_EEE9_M_invokeERKSt9_Any_data,"axG",@progbits,_ZNSt17_Function_handlerIFSt10unique_ptrINSt13__future_base12_Result_baseENS2_8_DeleterEEvENS1_13_State_baseV27_SetterISt10shared_ptrIN8opendnp311IMasterTaskEEOSB_EEE9_M_invokeERKSt9_Any_data,comdat
	.p2align 4,,15
	.weak	_ZNSt17_Function_handlerIFSt10unique_ptrINSt13__future_base12_Result_baseENS2_8_DeleterEEvENS1_13_State_baseV27_SetterISt10shared_ptrIN8opendnp311IMasterTaskEEOSB_EEE9_M_invokeERKSt9_Any_data
	.type	_ZNSt17_Function_handlerIFSt10unique_ptrINSt13__future_base12_Result_baseENS2_8_DeleterEEvENS1_13_State_baseV27_SetterISt10shared_ptrIN8opendnp311IMasterTaskEEOSB_EEE9_M_invokeERKSt9_Any_data, @function
_ZNSt17_Function_handlerIFSt10unique_ptrINSt13__future_base12_Result_baseENS2_8_DeleterEEvENS1_13_State_baseV27_SetterISt10shared_ptrIN8opendnp311IMasterTaskEEOSB_EEE9_M_invokeERKSt9_Any_data:
.LFB10380:
	.cfi_startproc
	movq	8(%rsi), %rcx
	movq	(%rsi), %rdx
	movq	%rdi, %rax
	movq	16(%rdx), %rdx
	movq	(%rcx), %rdi
	movq	$0, 24(%rdx)
	movq	%rdi, 16(%rdx)
	movq	8(%rcx), %rdi
	movq	$0, 8(%rcx)
	movq	%rdi, 24(%rdx)
	movq	$0, (%rcx)
	movb	$1, 32(%rdx)
	movq	(%rsi), %rdx
	movq	16(%rdx), %rcx
	movq	$0, 16(%rdx)
	movq	%rcx, (%rax)
	ret
	.cfi_endproc
.LFE10380:
	.size	_ZNSt17_Function_handlerIFSt10unique_ptrINSt13__future_base12_Result_baseENS2_8_DeleterEEvENS1_13_State_baseV27_SetterISt10shared_ptrIN8opendnp311IMasterTaskEEOSB_EEE9_M_invokeERKSt9_Any_data, .-_ZNSt17_Function_handlerIFSt10unique_ptrINSt13__future_base12_Result_baseENS2_8_DeleterEEvENS1_13_State_baseV27_SetterISt10shared_ptrIN8opendnp311IMasterTaskEEOSB_EEE9_M_invokeERKSt9_Any_data
	.section	.text._ZNSt14_Function_base13_Base_managerINSt13__future_base13_State_baseV27_SetterISt10shared_ptrIN8opendnp311IMasterTaskEEOS7_EEE10_M_managerERSt9_Any_dataRKSB_St18_Manager_operation,"axG",@progbits,_ZNSt14_Function_base13_Base_managerINSt13__future_base13_State_baseV27_SetterISt10shared_ptrIN8opendnp311IMasterTaskEEOS7_EEE10_M_managerERSt9_Any_dataRKSB_St18_Manager_operation,comdat
	.p2align 4,,15
	.weak	_ZNSt14_Function_base13_Base_managerINSt13__future_base13_State_baseV27_SetterISt10shared_ptrIN8opendnp311IMasterTaskEEOS7_EEE10_M_managerERSt9_Any_dataRKSB_St18_Manager_operation
	.type	_ZNSt14_Function_base13_Base_managerINSt13__future_base13_State_baseV27_SetterISt10shared_ptrIN8opendnp311IMasterTaskEEOS7_EEE10_M_managerERSt9_Any_dataRKSB_St18_Manager_operation, @function
_ZNSt14_Function_base13_Base_managerINSt13__future_base13_State_baseV27_SetterISt10shared_ptrIN8opendnp311IMasterTaskEEOS7_EEE10_M_managerERSt9_Any_dataRKSB_St18_Manager_operation:
.LFB10381:
	.cfi_startproc
	cmpl	$1, %edx
	je	.L24
	jb	.L25
	cmpl	$2, %edx
	jne	.L23
	movdqu	(%rsi), %xmm0
	movups	%xmm0, (%rdi)
.L23:
	xorl	%eax, %eax
	ret
	.p2align 4,,10
	.p2align 3
.L25:
	movq	_ZTINSt13__future_base13_State_baseV27_SetterISt10shared_ptrIN8opendnp311IMasterTaskEEOS5_EE@GOTPCREL(%rip), %rax
	movq	%rax, (%rdi)
	xorl	%eax, %eax
	ret
	.p2align 4,,10
	.p2align 3
.L24:
	movq	%rsi, (%rdi)
	xorl	%eax, %eax
	ret
	.cfi_endproc
.LFE10381:
	.size	_ZNSt14_Function_base13_Base_managerINSt13__future_base13_State_baseV27_SetterISt10shared_ptrIN8opendnp311IMasterTaskEEOS7_EEE10_M_managerERSt9_Any_dataRKSB_St18_Manager_operation, .-_ZNSt14_Function_base13_Base_managerINSt13__future_base13_State_baseV27_SetterISt10shared_ptrIN8opendnp311IMasterTaskEEOS7_EEE10_M_managerERSt9_Any_dataRKSB_St18_Manager_operation
	.section	.text._ZNSt13__future_base13_State_baseV2D2Ev,"axG",@progbits,_ZNSt13__future_base13_State_baseV2D5Ev,comdat
	.align 2
	.p2align 4,,15
	.weak	_ZNSt13__future_base13_State_baseV2D2Ev
	.type	_ZNSt13__future_base13_State_baseV2D2Ev, @function
_ZNSt13__future_base13_State_baseV2D2Ev:
.LFB11301:
	.cfi_startproc
	.cfi_personality 0x9b,DW.ref.__gxx_personality_v0
	.cfi_lsda 0x1b,.LLSDA11301
	movq	_ZTVNSt13__future_base13_State_baseV2E@GOTPCREL(%rip), %rax
	addq	$16, %rax
	movq	%rax, (%rdi)
	movq	8(%rdi), %rdi
	testq	%rdi, %rdi
	je	.L27
	movq	(%rdi), %rax
	jmp	*(%rax)
	.p2align 4,,10
	.p2align 3
.L27:
	rep ret
	.cfi_endproc
.LFE11301:
	.globl	__gxx_personality_v0
	.section	.gcc_except_table._ZNSt13__future_base13_State_baseV2D2Ev,"aG",@progbits,_ZNSt13__future_base13_State_baseV2D5Ev,comdat
.LLSDA11301:
	.byte	0xff
	.byte	0xff
	.byte	0x1
	.uleb128 .LLSDACSE11301-.LLSDACSB11301
.LLSDACSB11301:
.LLSDACSE11301:
	.section	.text._ZNSt13__future_base13_State_baseV2D2Ev,"axG",@progbits,_ZNSt13__future_base13_State_baseV2D5Ev,comdat
	.size	_ZNSt13__future_base13_State_baseV2D2Ev, .-_ZNSt13__future_base13_State_baseV2D2Ev
	.weak	_ZNSt13__future_base13_State_baseV2D1Ev
	.set	_ZNSt13__future_base13_State_baseV2D1Ev,_ZNSt13__future_base13_State_baseV2D2Ev
	.section	.text._ZN4asio6detail7tss_ptrINS0_10call_stackINS0_15task_io_serviceENS0_27task_io_service_thread_infoEE7contextEED2Ev,"axG",@progbits,_ZN4asio6detail7tss_ptrINS0_10call_stackINS0_15task_io_serviceENS0_27task_io_service_thread_infoEE7contextEED5Ev,comdat
	.align 2
	.p2align 4,,15
	.weak	_ZN4asio6detail7tss_ptrINS0_10call_stackINS0_15task_io_serviceENS0_27task_io_service_thread_infoEE7contextEED2Ev
	.type	_ZN4asio6detail7tss_ptrINS0_10call_stackINS0_15task_io_serviceENS0_27task_io_service_thread_infoEE7contextEED2Ev, @function
_ZN4asio6detail7tss_ptrINS0_10call_stackINS0_15task_io_serviceENS0_27task_io_service_thread_infoEE7contextEED2Ev:
.LFB11366:
	.cfi_startproc
	rep ret
	.cfi_endproc
.LFE11366:
	.size	_ZN4asio6detail7tss_ptrINS0_10call_stackINS0_15task_io_serviceENS0_27task_io_service_thread_infoEE7contextEED2Ev, .-_ZN4asio6detail7tss_ptrINS0_10call_stackINS0_15task_io_serviceENS0_27task_io_service_thread_infoEE7contextEED2Ev
	.weak	_ZN4asio6detail7tss_ptrINS0_10call_stackINS0_15task_io_serviceENS0_27task_io_service_thread_infoEE7contextEED1Ev
	.set	_ZN4asio6detail7tss_ptrINS0_10call_stackINS0_15task_io_serviceENS0_27task_io_service_thread_infoEE7contextEED1Ev,_ZN4asio6detail7tss_ptrINS0_10call_stackINS0_15task_io_serviceENS0_27task_io_service_thread_infoEE7contextEED2Ev
	.section	.text._ZN4asio6detail10service_idINS0_13epoll_reactorEED2Ev,"axG",@progbits,_ZN4asio6detail10service_idINS0_13epoll_reactorEED5Ev,comdat
	.align 2
	.p2align 4,,15
	.weak	_ZN4asio6detail10service_idINS0_13epoll_reactorEED2Ev
	.type	_ZN4asio6detail10service_idINS0_13epoll_reactorEED2Ev, @function
_ZN4asio6detail10service_idINS0_13epoll_reactorEED2Ev:
.LFB11369:
	.cfi_startproc
	rep ret
	.cfi_endproc
.LFE11369:
	.size	_ZN4asio6detail10service_idINS0_13epoll_reactorEED2Ev, .-_ZN4asio6detail10service_idINS0_13epoll_reactorEED2Ev
	.weak	_ZN4asio6detail10service_idINS0_13epoll_reactorEED1Ev
	.set	_ZN4asio6detail10service_idINS0_13epoll_reactorEED1Ev,_ZN4asio6detail10service_idINS0_13epoll_reactorEED2Ev
	.section	.text._ZN4asio6detail10service_idINS0_15task_io_serviceEED2Ev,"axG",@progbits,_ZN4asio6detail10service_idINS0_15task_io_serviceEED5Ev,comdat
	.align 2
	.p2align 4,,15
	.weak	_ZN4asio6detail10service_idINS0_15task_io_serviceEED2Ev
	.type	_ZN4asio6detail10service_idINS0_15task_io_serviceEED2Ev, @function
_ZN4asio6detail10service_idINS0_15task_io_serviceEED2Ev:
.LFB11372:
	.cfi_startproc
	rep ret
	.cfi_endproc
.LFE11372:
	.size	_ZN4asio6detail10service_idINS0_15task_io_serviceEED2Ev, .-_ZN4asio6detail10service_idINS0_15task_io_serviceEED2Ev
	.weak	_ZN4asio6detail10service_idINS0_15task_io_serviceEED1Ev
	.set	_ZN4asio6detail10service_idINS0_15task_io_serviceEED1Ev,_ZN4asio6detail10service_idINS0_15task_io_serviceEED2Ev
	.section	.text._ZN4asio6detail7tss_ptrINS0_10call_stackINS0_14strand_service11strand_implEhE7contextEED2Ev,"axG",@progbits,_ZN4asio6detail7tss_ptrINS0_10call_stackINS0_14strand_service11strand_implEhE7contextEED5Ev,comdat
	.align 2
	.p2align 4,,15
	.weak	_ZN4asio6detail7tss_ptrINS0_10call_stackINS0_14strand_service11strand_implEhE7contextEED2Ev
	.type	_ZN4asio6detail7tss_ptrINS0_10call_stackINS0_14strand_service11strand_implEhE7contextEED2Ev, @function
_ZN4asio6detail7tss_ptrINS0_10call_stackINS0_14strand_service11strand_implEhE7contextEED2Ev:
.LFB11375:
	.cfi_startproc
	rep ret
	.cfi_endproc
.LFE11375:
	.size	_ZN4asio6detail7tss_ptrINS0_10call_stackINS0_14strand_service11strand_implEhE7contextEED2Ev, .-_ZN4asio6detail7tss_ptrINS0_10call_stackINS0_14strand_service11strand_implEhE7contextEED2Ev
	.weak	_ZN4asio6detail7tss_ptrINS0_10call_stackINS0_14strand_service11strand_implEhE7contextEED1Ev
	.set	_ZN4asio6detail7tss_ptrINS0_10call_stackINS0_14strand_service11strand_implEhE7contextEED1Ev,_ZN4asio6detail7tss_ptrINS0_10call_stackINS0_14strand_service11strand_implEhE7contextEED2Ev
	.section	.text._ZN4asio6detail10service_idINS0_14strand_serviceEED2Ev,"axG",@progbits,_ZN4asio6detail10service_idINS0_14strand_serviceEED5Ev,comdat
	.align 2
	.p2align 4,,15
	.weak	_ZN4asio6detail10service_idINS0_14strand_serviceEED2Ev
	.type	_ZN4asio6detail10service_idINS0_14strand_serviceEED2Ev, @function
_ZN4asio6detail10service_idINS0_14strand_serviceEED2Ev:
.LFB11378:
	.cfi_startproc
	rep ret
	.cfi_endproc
.LFE11378:
	.size	_ZN4asio6detail10service_idINS0_14strand_serviceEED2Ev, .-_ZN4asio6detail10service_idINS0_14strand_serviceEED2Ev
	.weak	_ZN4asio6detail10service_idINS0_14strand_serviceEED1Ev
	.set	_ZN4asio6detail10service_idINS0_14strand_serviceEED1Ev,_ZN4asio6detail10service_idINS0_14strand_serviceEED2Ev
	.section	.text._ZNSt23_Sp_counted_ptr_inplaceIN8opendnp310CommandSetESaIS1_ELN9__gnu_cxx12_Lock_policyE2EED2Ev,"axG",@progbits,_ZNSt23_Sp_counted_ptr_inplaceIN8opendnp310CommandSetESaIS1_ELN9__gnu_cxx12_Lock_policyE2EED5Ev,comdat
	.align 2
	.p2align 4,,15
	.weak	_ZNSt23_Sp_counted_ptr_inplaceIN8opendnp310CommandSetESaIS1_ELN9__gnu_cxx12_Lock_policyE2EED2Ev
	.type	_ZNSt23_Sp_counted_ptr_inplaceIN8opendnp310CommandSetESaIS1_ELN9__gnu_cxx12_Lock_policyE2EED2Ev, @function
_ZNSt23_Sp_counted_ptr_inplaceIN8opendnp310CommandSetESaIS1_ELN9__gnu_cxx12_Lock_policyE2EED2Ev:
.LFB11445:
	.cfi_startproc
	rep ret
	.cfi_endproc
.LFE11445:
	.size	_ZNSt23_Sp_counted_ptr_inplaceIN8opendnp310CommandSetESaIS1_ELN9__gnu_cxx12_Lock_policyE2EED2Ev, .-_ZNSt23_Sp_counted_ptr_inplaceIN8opendnp310CommandSetESaIS1_ELN9__gnu_cxx12_Lock_policyE2EED2Ev
	.weak	_ZNSt23_Sp_counted_ptr_inplaceIN8opendnp310CommandSetESaIS1_ELN9__gnu_cxx12_Lock_policyE2EED1Ev
	.set	_ZNSt23_Sp_counted_ptr_inplaceIN8opendnp310CommandSetESaIS1_ELN9__gnu_cxx12_Lock_policyE2EED1Ev,_ZNSt23_Sp_counted_ptr_inplaceIN8opendnp310CommandSetESaIS1_ELN9__gnu_cxx12_Lock_policyE2EED2Ev
	.section	.text._ZNSt23_Sp_counted_ptr_inplaceIN8asiodnp318MasterSessionStackESaIS1_ELN9__gnu_cxx12_Lock_policyE2EED2Ev,"axG",@progbits,_ZNSt23_Sp_counted_ptr_inplaceIN8asiodnp318MasterSessionStackESaIS1_ELN9__gnu_cxx12_Lock_policyE2EED5Ev,comdat
	.align 2
	.p2align 4,,15
	.weak	_ZNSt23_Sp_counted_ptr_inplaceIN8asiodnp318MasterSessionStackESaIS1_ELN9__gnu_cxx12_Lock_policyE2EED2Ev
	.type	_ZNSt23_Sp_counted_ptr_inplaceIN8asiodnp318MasterSessionStackESaIS1_ELN9__gnu_cxx12_Lock_policyE2EED2Ev, @function
_ZNSt23_Sp_counted_ptr_inplaceIN8asiodnp318MasterSessionStackESaIS1_ELN9__gnu_cxx12_Lock_policyE2EED2Ev:
.LFB11452:
	.cfi_startproc
	rep ret
	.cfi_endproc
.LFE11452:
	.size	_ZNSt23_Sp_counted_ptr_inplaceIN8asiodnp318MasterSessionStackESaIS1_ELN9__gnu_cxx12_Lock_policyE2EED2Ev, .-_ZNSt23_Sp_counted_ptr_inplaceIN8asiodnp318MasterSessionStackESaIS1_ELN9__gnu_cxx12_Lock_policyE2EED2Ev
	.weak	_ZNSt23_Sp_counted_ptr_inplaceIN8asiodnp318MasterSessionStackESaIS1_ELN9__gnu_cxx12_Lock_policyE2EED1Ev
	.set	_ZNSt23_Sp_counted_ptr_inplaceIN8asiodnp318MasterSessionStackESaIS1_ELN9__gnu_cxx12_Lock_policyE2EED1Ev,_ZNSt23_Sp_counted_ptr_inplaceIN8asiodnp318MasterSessionStackESaIS1_ELN9__gnu_cxx12_Lock_policyE2EED2Ev
	.section	.text._ZNSt23_Sp_counted_ptr_inplaceINSt13__future_base13_State_baseV2ESaIS1_ELN9__gnu_cxx12_Lock_policyE2EED2Ev,"axG",@progbits,_ZNSt23_Sp_counted_ptr_inplaceINSt13__future_base13_State_baseV2ESaIS1_ELN9__gnu_cxx12_Lock_policyE2EED5Ev,comdat
	.align 2
	.p2align 4,,15
	.weak	_ZNSt23_Sp_counted_ptr_inplaceINSt13__future_base13_State_baseV2ESaIS1_ELN9__gnu_cxx12_Lock_policyE2EED2Ev
	.type	_ZNSt23_Sp_counted_ptr_inplaceINSt13__future_base13_State_baseV2ESaIS1_ELN9__gnu_cxx12_Lock_policyE2EED2Ev, @function
_ZNSt23_Sp_counted_ptr_inplaceINSt13__future_base13_State_baseV2ESaIS1_ELN9__gnu_cxx12_Lock_policyE2EED2Ev:
.LFB11473:
	.cfi_startproc
	rep ret
	.cfi_endproc
.LFE11473:
	.size	_ZNSt23_Sp_counted_ptr_inplaceINSt13__future_base13_State_baseV2ESaIS1_ELN9__gnu_cxx12_Lock_policyE2EED2Ev, .-_ZNSt23_Sp_counted_ptr_inplaceINSt13__future_base13_State_baseV2ESaIS1_ELN9__gnu_cxx12_Lock_policyE2EED2Ev
	.weak	_ZNSt23_Sp_counted_ptr_inplaceINSt13__future_base13_State_baseV2ESaIS1_ELN9__gnu_cxx12_Lock_policyE2EED1Ev
	.set	_ZNSt23_Sp_counted_ptr_inplaceINSt13__future_base13_State_baseV2ESaIS1_ELN9__gnu_cxx12_Lock_policyE2EED1Ev,_ZNSt23_Sp_counted_ptr_inplaceINSt13__future_base13_State_baseV2ESaIS1_ELN9__gnu_cxx12_Lock_policyE2EED2Ev
	.section	.text._ZNSt23_Sp_counted_ptr_inplaceINSt13__future_base13_State_baseV2ESaIS1_ELN9__gnu_cxx12_Lock_policyE2EE10_M_disposeEv,"axG",@progbits,_ZNSt23_Sp_counted_ptr_inplaceINSt13__future_base13_State_baseV2ESaIS1_ELN9__gnu_cxx12_Lock_policyE2EE10_M_disposeEv,comdat
	.align 2
	.p2align 4,,15
	.weak	_ZNSt23_Sp_counted_ptr_inplaceINSt13__future_base13_State_baseV2ESaIS1_ELN9__gnu_cxx12_Lock_policyE2EE10_M_disposeEv
	.type	_ZNSt23_Sp_counted_ptr_inplaceINSt13__future_base13_State_baseV2ESaIS1_ELN9__gnu_cxx12_Lock_policyE2EE10_M_disposeEv, @function
_ZNSt23_Sp_counted_ptr_inplaceINSt13__future_base13_State_baseV2ESaIS1_ELN9__gnu_cxx12_Lock_policyE2EE10_M_disposeEv:
.LFB11476:
	.cfi_startproc
	movq	%rdi, %rax
	leaq	16(%rdi), %rdi
	movq	16(%rax), %rax
	jmp	*(%rax)
	.cfi_endproc
.LFE11476:
	.size	_ZNSt23_Sp_counted_ptr_inplaceINSt13__future_base13_State_baseV2ESaIS1_ELN9__gnu_cxx12_Lock_policyE2EE10_M_disposeEv, .-_ZNSt23_Sp_counted_ptr_inplaceINSt13__future_base13_State_baseV2ESaIS1_ELN9__gnu_cxx12_Lock_policyE2EE10_M_disposeEv
	.section	.text._ZNSt23_Sp_counted_ptr_inplaceIN8asiodnp310MasterScanESaIS1_ELN9__gnu_cxx12_Lock_policyE2EED2Ev,"axG",@progbits,_ZNSt23_Sp_counted_ptr_inplaceIN8asiodnp310MasterScanESaIS1_ELN9__gnu_cxx12_Lock_policyE2EED5Ev,comdat
	.align 2
	.p2align 4,,15
	.weak	_ZNSt23_Sp_counted_ptr_inplaceIN8asiodnp310MasterScanESaIS1_ELN9__gnu_cxx12_Lock_policyE2EED2Ev
	.type	_ZNSt23_Sp_counted_ptr_inplaceIN8asiodnp310MasterScanESaIS1_ELN9__gnu_cxx12_Lock_policyE2EED2Ev, @function
_ZNSt23_Sp_counted_ptr_inplaceIN8asiodnp310MasterScanESaIS1_ELN9__gnu_cxx12_Lock_policyE2EED2Ev:
.LFB11487:
	.cfi_startproc
	rep ret
	.cfi_endproc
.LFE11487:
	.size	_ZNSt23_Sp_counted_ptr_inplaceIN8asiodnp310MasterScanESaIS1_ELN9__gnu_cxx12_Lock_policyE2EED2Ev, .-_ZNSt23_Sp_counted_ptr_inplaceIN8asiodnp310MasterScanESaIS1_ELN9__gnu_cxx12_Lock_policyE2EED2Ev
	.weak	_ZNSt23_Sp_counted_ptr_inplaceIN8asiodnp310MasterScanESaIS1_ELN9__gnu_cxx12_Lock_policyE2EED1Ev
	.set	_ZNSt23_Sp_counted_ptr_inplaceIN8asiodnp310MasterScanESaIS1_ELN9__gnu_cxx12_Lock_policyE2EED1Ev,_ZNSt23_Sp_counted_ptr_inplaceIN8asiodnp310MasterScanESaIS1_ELN9__gnu_cxx12_Lock_policyE2EED2Ev
	.section	.text._ZNSt23_Sp_counted_ptr_inplaceIN8asiodnp310MasterScanESaIS1_ELN9__gnu_cxx12_Lock_policyE2EE14_M_get_deleterERKSt9type_info,"axG",@progbits,_ZNSt23_Sp_counted_ptr_inplaceIN8asiodnp310MasterScanESaIS1_ELN9__gnu_cxx12_Lock_policyE2EE14_M_get_deleterERKSt9type_info,comdat
	.align 2
	.p2align 4,,15
	.weak	_ZNSt23_Sp_counted_ptr_inplaceIN8asiodnp310MasterScanESaIS1_ELN9__gnu_cxx12_Lock_policyE2EE14_M_get_deleterERKSt9type_info
	.type	_ZNSt23_Sp_counted_ptr_inplaceIN8asiodnp310MasterScanESaIS1_ELN9__gnu_cxx12_Lock_policyE2EE14_M_get_deleterERKSt9type_info, @function
_ZNSt23_Sp_counted_ptr_inplaceIN8asiodnp310MasterScanESaIS1_ELN9__gnu_cxx12_Lock_policyE2EE14_M_get_deleterERKSt9type_info:
.LFB11492:
	.cfi_startproc
	pushq	%rbx
	.cfi_def_cfa_offset 16
	.cfi_offset 3, -16
	movq	%rdi, %rbx
	movq	8(%rsi), %rdi
	movq	_ZTSSt19_Sp_make_shared_tag@GOTPCREL(%rip), %rsi
	cmpq	%rsi, %rdi
	je	.L40
	cmpb	$42, (%rdi)
	je	.L43
	call	strcmp@PLT
	testl	%eax, %eax
	jne	.L43
.L40:
	leaq	16(%rbx), %rax
	popq	%rbx
	.cfi_remember_state
	.cfi_def_cfa_offset 8
	ret
	.p2align 4,,10
	.p2align 3
.L43:
	.cfi_restore_state
	xorl	%eax, %eax
	popq	%rbx
	.cfi_def_cfa_offset 8
	ret
	.cfi_endproc
.LFE11492:
	.size	_ZNSt23_Sp_counted_ptr_inplaceIN8asiodnp310MasterScanESaIS1_ELN9__gnu_cxx12_Lock_policyE2EE14_M_get_deleterERKSt9type_info, .-_ZNSt23_Sp_counted_ptr_inplaceIN8asiodnp310MasterScanESaIS1_ELN9__gnu_cxx12_Lock_policyE2EE14_M_get_deleterERKSt9type_info
	.section	.text._ZNSt23_Sp_counted_ptr_inplaceINSt13__future_base13_State_baseV2ESaIS1_ELN9__gnu_cxx12_Lock_policyE2EE14_M_get_deleterERKSt9type_info,"axG",@progbits,_ZNSt23_Sp_counted_ptr_inplaceINSt13__future_base13_State_baseV2ESaIS1_ELN9__gnu_cxx12_Lock_policyE2EE14_M_get_deleterERKSt9type_info,comdat
	.align 2
	.p2align 4,,15
	.weak	_ZNSt23_Sp_counted_ptr_inplaceINSt13__future_base13_State_baseV2ESaIS1_ELN9__gnu_cxx12_Lock_policyE2EE14_M_get_deleterERKSt9type_info
	.type	_ZNSt23_Sp_counted_ptr_inplaceINSt13__future_base13_State_baseV2ESaIS1_ELN9__gnu_cxx12_Lock_policyE2EE14_M_get_deleterERKSt9type_info, @function
_ZNSt23_Sp_counted_ptr_inplaceINSt13__future_base13_State_baseV2ESaIS1_ELN9__gnu_cxx12_Lock_policyE2EE14_M_get_deleterERKSt9type_info:
.LFB11478:
	.cfi_startproc
	pushq	%rbx
	.cfi_def_cfa_offset 16
	.cfi_offset 3, -16
	movq	%rdi, %rbx
	movq	8(%rsi), %rdi
	movq	_ZTSSt19_Sp_make_shared_tag@GOTPCREL(%rip), %rsi
	cmpq	%rsi, %rdi
	je	.L46
	cmpb	$42, (%rdi)
	je	.L49
	call	strcmp@PLT
	testl	%eax, %eax
	jne	.L49
.L46:
	leaq	16(%rbx), %rax
	popq	%rbx
	.cfi_remember_state
	.cfi_def_cfa_offset 8
	ret
	.p2align 4,,10
	.p2align 3
.L49:
	.cfi_restore_state
	xorl	%eax, %eax
	popq	%rbx
	.cfi_def_cfa_offset 8
	ret
	.cfi_endproc
.LFE11478:
	.size	_ZNSt23_Sp_counted_ptr_inplaceINSt13__future_base13_State_baseV2ESaIS1_ELN9__gnu_cxx12_Lock_policyE2EE14_M_get_deleterERKSt9type_info, .-_ZNSt23_Sp_counted_ptr_inplaceINSt13__future_base13_State_baseV2ESaIS1_ELN9__gnu_cxx12_Lock_policyE2EE14_M_get_deleterERKSt9type_info
	.section	.text._ZNSt23_Sp_counted_ptr_inplaceIN8asiodnp318MasterSessionStackESaIS1_ELN9__gnu_cxx12_Lock_policyE2EE14_M_get_deleterERKSt9type_info,"axG",@progbits,_ZNSt23_Sp_counted_ptr_inplaceIN8asiodnp318MasterSessionStackESaIS1_ELN9__gnu_cxx12_Lock_policyE2EE14_M_get_deleterERKSt9type_info,comdat
	.align 2
	.p2align 4,,15
	.weak	_ZNSt23_Sp_counted_ptr_inplaceIN8asiodnp318MasterSessionStackESaIS1_ELN9__gnu_cxx12_Lock_policyE2EE14_M_get_deleterERKSt9type_info
	.type	_ZNSt23_Sp_counted_ptr_inplaceIN8asiodnp318MasterSessionStackESaIS1_ELN9__gnu_cxx12_Lock_policyE2EE14_M_get_deleterERKSt9type_info, @function
_ZNSt23_Sp_counted_ptr_inplaceIN8asiodnp318MasterSessionStackESaIS1_ELN9__gnu_cxx12_Lock_policyE2EE14_M_get_deleterERKSt9type_info:
.LFB11457:
	.cfi_startproc
	pushq	%rbx
	.cfi_def_cfa_offset 16
	.cfi_offset 3, -16
	movq	%rdi, %rbx
	movq	8(%rsi), %rdi
	movq	_ZTSSt19_Sp_make_shared_tag@GOTPCREL(%rip), %rsi
	cmpq	%rsi, %rdi
	je	.L52
	cmpb	$42, (%rdi)
	je	.L55
	call	strcmp@PLT
	testl	%eax, %eax
	jne	.L55
.L52:
	leaq	16(%rbx), %rax
	popq	%rbx
	.cfi_remember_state
	.cfi_def_cfa_offset 8
	ret
	.p2align 4,,10
	.p2align 3
.L55:
	.cfi_restore_state
	xorl	%eax, %eax
	popq	%rbx
	.cfi_def_cfa_offset 8
	ret
	.cfi_endproc
.LFE11457:
	.size	_ZNSt23_Sp_counted_ptr_inplaceIN8asiodnp318MasterSessionStackESaIS1_ELN9__gnu_cxx12_Lock_policyE2EE14_M_get_deleterERKSt9type_info, .-_ZNSt23_Sp_counted_ptr_inplaceIN8asiodnp318MasterSessionStackESaIS1_ELN9__gnu_cxx12_Lock_policyE2EE14_M_get_deleterERKSt9type_info
	.section	.text._ZNSt23_Sp_counted_ptr_inplaceIN8opendnp310CommandSetESaIS1_ELN9__gnu_cxx12_Lock_policyE2EE14_M_get_deleterERKSt9type_info,"axG",@progbits,_ZNSt23_Sp_counted_ptr_inplaceIN8opendnp310CommandSetESaIS1_ELN9__gnu_cxx12_Lock_policyE2EE14_M_get_deleterERKSt9type_info,comdat
	.align 2
	.p2align 4,,15
	.weak	_ZNSt23_Sp_counted_ptr_inplaceIN8opendnp310CommandSetESaIS1_ELN9__gnu_cxx12_Lock_policyE2EE14_M_get_deleterERKSt9type_info
	.type	_ZNSt23_Sp_counted_ptr_inplaceIN8opendnp310CommandSetESaIS1_ELN9__gnu_cxx12_Lock_policyE2EE14_M_get_deleterERKSt9type_info, @function
_ZNSt23_Sp_counted_ptr_inplaceIN8opendnp310CommandSetESaIS1_ELN9__gnu_cxx12_Lock_policyE2EE14_M_get_deleterERKSt9type_info:
.LFB11450:
	.cfi_startproc
	pushq	%rbx
	.cfi_def_cfa_offset 16
	.cfi_offset 3, -16
	movq	%rdi, %rbx
	movq	8(%rsi), %rdi
	movq	_ZTSSt19_Sp_make_shared_tag@GOTPCREL(%rip), %rsi
	cmpq	%rsi, %rdi
	je	.L58
	cmpb	$42, (%rdi)
	je	.L61
	call	strcmp@PLT
	testl	%eax, %eax
	jne	.L61
.L58:
	leaq	16(%rbx), %rax
	popq	%rbx
	.cfi_remember_state
	.cfi_def_cfa_offset 8
	ret
	.p2align 4,,10
	.p2align 3
.L61:
	.cfi_restore_state
	xorl	%eax, %eax
	popq	%rbx
	.cfi_def_cfa_offset 8
	ret
	.cfi_endproc
.LFE11450:
	.size	_ZNSt23_Sp_counted_ptr_inplaceIN8opendnp310CommandSetESaIS1_ELN9__gnu_cxx12_Lock_policyE2EE14_M_get_deleterERKSt9type_info, .-_ZNSt23_Sp_counted_ptr_inplaceIN8opendnp310CommandSetESaIS1_ELN9__gnu_cxx12_Lock_policyE2EE14_M_get_deleterERKSt9type_info
	.section	.text._ZNSt13__future_base13_State_baseV2D0Ev,"axG",@progbits,_ZNSt13__future_base13_State_baseV2D5Ev,comdat
	.align 2
	.p2align 4,,15
	.weak	_ZNSt13__future_base13_State_baseV2D0Ev
	.type	_ZNSt13__future_base13_State_baseV2D0Ev, @function
_ZNSt13__future_base13_State_baseV2D0Ev:
.LFB11303:
	.cfi_startproc
	.cfi_personality 0x9b,DW.ref.__gxx_personality_v0
	.cfi_lsda 0x1b,.LLSDA11303
	movq	_ZTVNSt13__future_base13_State_baseV2E@GOTPCREL(%rip), %rax
	pushq	%rbx
	.cfi_def_cfa_offset 16
	.cfi_offset 3, -16
	movq	%rdi, %rbx
	addq	$16, %rax
	movq	%rax, (%rdi)
	movq	8(%rdi), %rdi
	testq	%rdi, %rdi
	je	.L64
	movq	(%rdi), %rax
	call	*(%rax)
.L64:
	movq	%rbx, %rdi
	movl	$32, %esi
	popq	%rbx
	.cfi_def_cfa_offset 8
	jmp	_ZdlPvm@PLT
	.cfi_endproc
.LFE11303:
	.section	.gcc_except_table._ZNSt13__future_base13_State_baseV2D0Ev,"aG",@progbits,_ZNSt13__future_base13_State_baseV2D5Ev,comdat
.LLSDA11303:
	.byte	0xff
	.byte	0xff
	.byte	0x1
	.uleb128 .LLSDACSE11303-.LLSDACSB11303
.LLSDACSB11303:
.LLSDACSE11303:
	.section	.text._ZNSt13__future_base13_State_baseV2D0Ev,"axG",@progbits,_ZNSt13__future_base13_State_baseV2D5Ev,comdat
	.size	_ZNSt13__future_base13_State_baseV2D0Ev, .-_ZNSt13__future_base13_State_baseV2D0Ev
	.section	.text._ZNSt23_Sp_counted_ptr_inplaceIN8asiodnp310MasterScanESaIS1_ELN9__gnu_cxx12_Lock_policyE2EED0Ev,"axG",@progbits,_ZNSt23_Sp_counted_ptr_inplaceIN8asiodnp310MasterScanESaIS1_ELN9__gnu_cxx12_Lock_policyE2EED5Ev,comdat
	.align 2
	.p2align 4,,15
	.weak	_ZNSt23_Sp_counted_ptr_inplaceIN8asiodnp310MasterScanESaIS1_ELN9__gnu_cxx12_Lock_policyE2EED0Ev
	.type	_ZNSt23_Sp_counted_ptr_inplaceIN8asiodnp310MasterScanESaIS1_ELN9__gnu_cxx12_Lock_policyE2EED0Ev, @function
_ZNSt23_Sp_counted_ptr_inplaceIN8asiodnp310MasterScanESaIS1_ELN9__gnu_cxx12_Lock_policyE2EED0Ev:
.LFB11489:
	.cfi_startproc
	movl	$56, %esi
	jmp	_ZdlPvm@PLT
	.cfi_endproc
.LFE11489:
	.size	_ZNSt23_Sp_counted_ptr_inplaceIN8asiodnp310MasterScanESaIS1_ELN9__gnu_cxx12_Lock_policyE2EED0Ev, .-_ZNSt23_Sp_counted_ptr_inplaceIN8asiodnp310MasterScanESaIS1_ELN9__gnu_cxx12_Lock_policyE2EED0Ev
	.section	.text._ZNSt23_Sp_counted_ptr_inplaceINSt13__future_base13_State_baseV2ESaIS1_ELN9__gnu_cxx12_Lock_policyE2EED0Ev,"axG",@progbits,_ZNSt23_Sp_counted_ptr_inplaceINSt13__future_base13_State_baseV2ESaIS1_ELN9__gnu_cxx12_Lock_policyE2EED5Ev,comdat
	.align 2
	.p2align 4,,15
	.weak	_ZNSt23_Sp_counted_ptr_inplaceINSt13__future_base13_State_baseV2ESaIS1_ELN9__gnu_cxx12_Lock_policyE2EED0Ev
	.type	_ZNSt23_Sp_counted_ptr_inplaceINSt13__future_base13_State_baseV2ESaIS1_ELN9__gnu_cxx12_Lock_policyE2EED0Ev, @function
_ZNSt23_Sp_counted_ptr_inplaceINSt13__future_base13_State_baseV2ESaIS1_ELN9__gnu_cxx12_Lock_policyE2EED0Ev:
.LFB11475:
	.cfi_startproc
	movl	$48, %esi
	jmp	_ZdlPvm@PLT
	.cfi_endproc
.LFE11475:
	.size	_ZNSt23_Sp_counted_ptr_inplaceINSt13__future_base13_State_baseV2ESaIS1_ELN9__gnu_cxx12_Lock_policyE2EED0Ev, .-_ZNSt23_Sp_counted_ptr_inplaceINSt13__future_base13_State_baseV2ESaIS1_ELN9__gnu_cxx12_Lock_policyE2EED0Ev
	.section	.text._ZNSt23_Sp_counted_ptr_inplaceIN8asiodnp318MasterSessionStackESaIS1_ELN9__gnu_cxx12_Lock_policyE2EED0Ev,"axG",@progbits,_ZNSt23_Sp_counted_ptr_inplaceIN8asiodnp318MasterSessionStackESaIS1_ELN9__gnu_cxx12_Lock_policyE2EED5Ev,comdat
	.align 2
	.p2align 4,,15
	.weak	_ZNSt23_Sp_counted_ptr_inplaceIN8asiodnp318MasterSessionStackESaIS1_ELN9__gnu_cxx12_Lock_policyE2EED0Ev
	.type	_ZNSt23_Sp_counted_ptr_inplaceIN8asiodnp318MasterSessionStackESaIS1_ELN9__gnu_cxx12_Lock_policyE2EED0Ev, @function
_ZNSt23_Sp_counted_ptr_inplaceIN8asiodnp318MasterSessionStackESaIS1_ELN9__gnu_cxx12_Lock_policyE2EED0Ev:
.LFB11454:
	.cfi_startproc
	movl	$632, %esi
	jmp	_ZdlPvm@PLT
	.cfi_endproc
.LFE11454:
	.size	_ZNSt23_Sp_counted_ptr_inplaceIN8asiodnp318MasterSessionStackESaIS1_ELN9__gnu_cxx12_Lock_policyE2EED0Ev, .-_ZNSt23_Sp_counted_ptr_inplaceIN8asiodnp318MasterSessionStackESaIS1_ELN9__gnu_cxx12_Lock_policyE2EED0Ev
	.section	.text._ZNSt23_Sp_counted_ptr_inplaceIN8opendnp310CommandSetESaIS1_ELN9__gnu_cxx12_Lock_policyE2EED0Ev,"axG",@progbits,_ZNSt23_Sp_counted_ptr_inplaceIN8opendnp310CommandSetESaIS1_ELN9__gnu_cxx12_Lock_policyE2EED5Ev,comdat
	.align 2
	.p2align 4,,15
	.weak	_ZNSt23_Sp_counted_ptr_inplaceIN8opendnp310CommandSetESaIS1_ELN9__gnu_cxx12_Lock_policyE2EED0Ev
	.type	_ZNSt23_Sp_counted_ptr_inplaceIN8opendnp310CommandSetESaIS1_ELN9__gnu_cxx12_Lock_policyE2EED0Ev, @function
_ZNSt23_Sp_counted_ptr_inplaceIN8opendnp310CommandSetESaIS1_ELN9__gnu_cxx12_Lock_policyE2EED0Ev:
.LFB11447:
	.cfi_startproc
	movl	$40, %esi
	jmp	_ZdlPvm@PLT
	.cfi_endproc
.LFE11447:
	.size	_ZNSt23_Sp_counted_ptr_inplaceIN8opendnp310CommandSetESaIS1_ELN9__gnu_cxx12_Lock_policyE2EED0Ev, .-_ZNSt23_Sp_counted_ptr_inplaceIN8opendnp310CommandSetESaIS1_ELN9__gnu_cxx12_Lock_policyE2EED0Ev
	.section	.text._ZN7openpal5ArrayIhjED2Ev,"axG",@progbits,_ZN7openpal5ArrayIhjED5Ev,comdat
	.align 2
	.p2align 4,,15
	.weak	_ZN7openpal5ArrayIhjED2Ev
	.type	_ZN7openpal5ArrayIhjED2Ev, @function
_ZN7openpal5ArrayIhjED2Ev:
.LFB8251:
	.cfi_startproc
	movq	_ZTVN7openpal5ArrayIhjEE@GOTPCREL(%rip), %rax
	addq	$16, %rax
	movq	%rax, (%rdi)
	movq	16(%rdi), %rdi
	testq	%rdi, %rdi
	je	.L73
	jmp	_ZdaPv@PLT
	.p2align 4,,10
	.p2align 3
.L73:
	rep ret
	.cfi_endproc
.LFE8251:
	.size	_ZN7openpal5ArrayIhjED2Ev, .-_ZN7openpal5ArrayIhjED2Ev
	.weak	_ZN7openpal5ArrayIhjED1Ev
	.set	_ZN7openpal5ArrayIhjED1Ev,_ZN7openpal5ArrayIhjED2Ev
	.section	.text._ZN7openpal5ArrayIhjED0Ev,"axG",@progbits,_ZN7openpal5ArrayIhjED5Ev,comdat
	.align 2
	.p2align 4,,15
	.weak	_ZN7openpal5ArrayIhjED0Ev
	.type	_ZN7openpal5ArrayIhjED0Ev, @function
_ZN7openpal5ArrayIhjED0Ev:
.LFB8253:
	.cfi_startproc
	movq	_ZTVN7openpal5ArrayIhjEE@GOTPCREL(%rip), %rax
	pushq	%rbx
	.cfi_def_cfa_offset 16
	.cfi_offset 3, -16
	movq	%rdi, %rbx
	addq	$16, %rax
	movq	%rax, (%rdi)
	movq	16(%rdi), %rdi
	testq	%rdi, %rdi
	je	.L76
	call	_ZdaPv@PLT
.L76:
	movq	%rbx, %rdi
	movl	$24, %esi
	popq	%rbx
	.cfi_def_cfa_offset 8
	jmp	_ZdlPvm@PLT
	.cfi_endproc
.LFE8253:
	.size	_ZN7openpal5ArrayIhjED0Ev, .-_ZN7openpal5ArrayIhjED0Ev
	.section	.text._ZNSt23_Sp_counted_ptr_inplaceIN8opendnp310CommandSetESaIS1_ELN9__gnu_cxx12_Lock_policyE2EE10_M_destroyEv,"axG",@progbits,_ZNSt23_Sp_counted_ptr_inplaceIN8opendnp310CommandSetESaIS1_ELN9__gnu_cxx12_Lock_policyE2EE10_M_destroyEv,comdat
	.align 2
	.p2align 4,,15
	.weak	_ZNSt23_Sp_counted_ptr_inplaceIN8opendnp310CommandSetESaIS1_ELN9__gnu_cxx12_Lock_policyE2EE10_M_destroyEv
	.type	_ZNSt23_Sp_counted_ptr_inplaceIN8opendnp310CommandSetESaIS1_ELN9__gnu_cxx12_Lock_policyE2EE10_M_destroyEv, @function
_ZNSt23_Sp_counted_ptr_inplaceIN8opendnp310CommandSetESaIS1_ELN9__gnu_cxx12_Lock_policyE2EE10_M_destroyEv:
.LFB11449:
	.cfi_startproc
	jmp	_ZdlPv@PLT
	.cfi_endproc
.LFE11449:
	.size	_ZNSt23_Sp_counted_ptr_inplaceIN8opendnp310CommandSetESaIS1_ELN9__gnu_cxx12_Lock_policyE2EE10_M_destroyEv, .-_ZNSt23_Sp_counted_ptr_inplaceIN8opendnp310CommandSetESaIS1_ELN9__gnu_cxx12_Lock_policyE2EE10_M_destroyEv
	.section	.text._ZNSt23_Sp_counted_ptr_inplaceIN8asiodnp318MasterSessionStackESaIS1_ELN9__gnu_cxx12_Lock_policyE2EE10_M_destroyEv,"axG",@progbits,_ZNSt23_Sp_counted_ptr_inplaceIN8asiodnp318MasterSessionStackESaIS1_ELN9__gnu_cxx12_Lock_policyE2EE10_M_destroyEv,comdat
	.align 2
	.p2align 4,,15
	.weak	_ZNSt23_Sp_counted_ptr_inplaceIN8asiodnp318MasterSessionStackESaIS1_ELN9__gnu_cxx12_Lock_policyE2EE10_M_destroyEv
	.type	_ZNSt23_Sp_counted_ptr_inplaceIN8asiodnp318MasterSessionStackESaIS1_ELN9__gnu_cxx12_Lock_policyE2EE10_M_destroyEv, @function
_ZNSt23_Sp_counted_ptr_inplaceIN8asiodnp318MasterSessionStackESaIS1_ELN9__gnu_cxx12_Lock_policyE2EE10_M_destroyEv:
.LFB11456:
	.cfi_startproc
	jmp	_ZdlPv@PLT
	.cfi_endproc
.LFE11456:
	.size	_ZNSt23_Sp_counted_ptr_inplaceIN8asiodnp318MasterSessionStackESaIS1_ELN9__gnu_cxx12_Lock_policyE2EE10_M_destroyEv, .-_ZNSt23_Sp_counted_ptr_inplaceIN8asiodnp318MasterSessionStackESaIS1_ELN9__gnu_cxx12_Lock_policyE2EE10_M_destroyEv
	.section	.text._ZNSt23_Sp_counted_ptr_inplaceINSt13__future_base13_State_baseV2ESaIS1_ELN9__gnu_cxx12_Lock_policyE2EE10_M_destroyEv,"axG",@progbits,_ZNSt23_Sp_counted_ptr_inplaceINSt13__future_base13_State_baseV2ESaIS1_ELN9__gnu_cxx12_Lock_policyE2EE10_M_destroyEv,comdat
	.align 2
	.p2align 4,,15
	.weak	_ZNSt23_Sp_counted_ptr_inplaceINSt13__future_base13_State_baseV2ESaIS1_ELN9__gnu_cxx12_Lock_policyE2EE10_M_destroyEv
	.type	_ZNSt23_Sp_counted_ptr_inplaceINSt13__future_base13_State_baseV2ESaIS1_ELN9__gnu_cxx12_Lock_policyE2EE10_M_destroyEv, @function
_ZNSt23_Sp_counted_ptr_inplaceINSt13__future_base13_State_baseV2ESaIS1_ELN9__gnu_cxx12_Lock_policyE2EE10_M_destroyEv:
.LFB11477:
	.cfi_startproc
	jmp	_ZdlPv@PLT
	.cfi_endproc
.LFE11477:
	.size	_ZNSt23_Sp_counted_ptr_inplaceINSt13__future_base13_State_baseV2ESaIS1_ELN9__gnu_cxx12_Lock_policyE2EE10_M_destroyEv, .-_ZNSt23_Sp_counted_ptr_inplaceINSt13__future_base13_State_baseV2ESaIS1_ELN9__gnu_cxx12_Lock_policyE2EE10_M_destroyEv
	.section	.text._ZNSt23_Sp_counted_ptr_inplaceIN8asiodnp310MasterScanESaIS1_ELN9__gnu_cxx12_Lock_policyE2EE10_M_destroyEv,"axG",@progbits,_ZNSt23_Sp_counted_ptr_inplaceIN8asiodnp310MasterScanESaIS1_ELN9__gnu_cxx12_Lock_policyE2EE10_M_destroyEv,comdat
	.align 2
	.p2align 4,,15
	.weak	_ZNSt23_Sp_counted_ptr_inplaceIN8asiodnp310MasterScanESaIS1_ELN9__gnu_cxx12_Lock_policyE2EE10_M_destroyEv
	.type	_ZNSt23_Sp_counted_ptr_inplaceIN8asiodnp310MasterScanESaIS1_ELN9__gnu_cxx12_Lock_policyE2EE10_M_destroyEv, @function
_ZNSt23_Sp_counted_ptr_inplaceIN8asiodnp310MasterScanESaIS1_ELN9__gnu_cxx12_Lock_policyE2EE10_M_destroyEv:
.LFB11491:
	.cfi_startproc
	jmp	_ZdlPv@PLT
	.cfi_endproc
.LFE11491:
	.size	_ZNSt23_Sp_counted_ptr_inplaceIN8asiodnp310MasterScanESaIS1_ELN9__gnu_cxx12_Lock_policyE2EE10_M_destroyEv, .-_ZNSt23_Sp_counted_ptr_inplaceIN8asiodnp310MasterScanESaIS1_ELN9__gnu_cxx12_Lock_policyE2EE10_M_destroyEv
	.section	.text._ZNSt23_Sp_counted_ptr_inplaceIN8opendnp310CommandSetESaIS1_ELN9__gnu_cxx12_Lock_policyE2EE10_M_disposeEv,"axG",@progbits,_ZNSt23_Sp_counted_ptr_inplaceIN8opendnp310CommandSetESaIS1_ELN9__gnu_cxx12_Lock_policyE2EE10_M_disposeEv,comdat
	.align 2
	.p2align 4,,15
	.weak	_ZNSt23_Sp_counted_ptr_inplaceIN8opendnp310CommandSetESaIS1_ELN9__gnu_cxx12_Lock_policyE2EE10_M_disposeEv
	.type	_ZNSt23_Sp_counted_ptr_inplaceIN8opendnp310CommandSetESaIS1_ELN9__gnu_cxx12_Lock_policyE2EE10_M_disposeEv, @function
_ZNSt23_Sp_counted_ptr_inplaceIN8opendnp310CommandSetESaIS1_ELN9__gnu_cxx12_Lock_policyE2EE10_M_disposeEv:
.LFB11448:
	.cfi_startproc
	addq	$16, %rdi
	jmp	_ZN8opendnp310CommandSetD1Ev@PLT
	.cfi_endproc
.LFE11448:
	.size	_ZNSt23_Sp_counted_ptr_inplaceIN8opendnp310CommandSetESaIS1_ELN9__gnu_cxx12_Lock_policyE2EE10_M_disposeEv, .-_ZNSt23_Sp_counted_ptr_inplaceIN8opendnp310CommandSetESaIS1_ELN9__gnu_cxx12_Lock_policyE2EE10_M_disposeEv
	.section	.text._ZNSt13__future_base7_ResultIN8opendnp315StackStatisticsEED2Ev,"axG",@progbits,_ZNSt13__future_base7_ResultIN8opendnp315StackStatisticsEED5Ev,comdat
	.align 2
	.p2align 4,,15
	.weak	_ZNSt13__future_base7_ResultIN8opendnp315StackStatisticsEED2Ev
	.type	_ZNSt13__future_base7_ResultIN8opendnp315StackStatisticsEED2Ev, @function
_ZNSt13__future_base7_ResultIN8opendnp315StackStatisticsEED2Ev:
.LFB11514:
	.cfi_startproc
	movq	_ZTVNSt13__future_base7_ResultIN8opendnp315StackStatisticsEEE@GOTPCREL(%rip), %rax
	addq	$16, %rax
	movq	%rax, (%rdi)
	jmp	_ZNSt13__future_base12_Result_baseD2Ev@PLT
	.cfi_endproc
.LFE11514:
	.size	_ZNSt13__future_base7_ResultIN8opendnp315StackStatisticsEED2Ev, .-_ZNSt13__future_base7_ResultIN8opendnp315StackStatisticsEED2Ev
	.weak	_ZNSt13__future_base7_ResultIN8opendnp315StackStatisticsEED1Ev
	.set	_ZNSt13__future_base7_ResultIN8opendnp315StackStatisticsEED1Ev,_ZNSt13__future_base7_ResultIN8opendnp315StackStatisticsEED2Ev
	.section	.text._ZNSt13__future_base7_ResultIN8opendnp315StackStatisticsEED0Ev,"axG",@progbits,_ZNSt13__future_base7_ResultIN8opendnp315StackStatisticsEED5Ev,comdat
	.align 2
	.p2align 4,,15
	.weak	_ZNSt13__future_base7_ResultIN8opendnp315StackStatisticsEED0Ev
	.type	_ZNSt13__future_base7_ResultIN8opendnp315StackStatisticsEED0Ev, @function
_ZNSt13__future_base7_ResultIN8opendnp315StackStatisticsEED0Ev:
.LFB11516:
	.cfi_startproc
	movq	_ZTVNSt13__future_base7_ResultIN8opendnp315StackStatisticsEEE@GOTPCREL(%rip), %rax
	pushq	%rbx
	.cfi_def_cfa_offset 16
	.cfi_offset 3, -16
	movq	%rdi, %rbx
	addq	$16, %rax
	movq	%rax, (%rdi)
	call	_ZNSt13__future_base12_Result_baseD2Ev@PLT
	movq	%rbx, %rdi
	movl	$64, %esi
	popq	%rbx
	.cfi_def_cfa_offset 8
	jmp	_ZdlPvm@PLT
	.cfi_endproc
.LFE11516:
	.size	_ZNSt13__future_base7_ResultIN8opendnp315StackStatisticsEED0Ev, .-_ZNSt13__future_base7_ResultIN8opendnp315StackStatisticsEED0Ev
	.section	.text._ZNSt13__future_base13_State_baseV29_M_do_setEPSt8functionIFSt10unique_ptrINS_12_Result_baseENS3_8_DeleterEEvEEPb,"axG",@progbits,_ZNSt13__future_base13_State_baseV29_M_do_setEPSt8functionIFSt10unique_ptrINS_12_Result_baseENS3_8_DeleterEEvEEPb,comdat
	.align 2
	.p2align 4,,15
	.weak	_ZNSt13__future_base13_State_baseV29_M_do_setEPSt8functionIFSt10unique_ptrINS_12_Result_baseENS3_8_DeleterEEvEEPb
	.type	_ZNSt13__future_base13_State_baseV29_M_do_setEPSt8functionIFSt10unique_ptrINS_12_Result_baseENS3_8_DeleterEEvEEPb, @function
_ZNSt13__future_base13_State_baseV29_M_do_setEPSt8functionIFSt10unique_ptrINS_12_Result_baseENS3_8_DeleterEEvEEPb:
.LFB7340:
	.cfi_startproc
	.cfi_personality 0x9b,DW.ref.__gxx_personality_v0
	.cfi_lsda 0x1b,.LLSDA7340
	pushq	%rbp
	.cfi_def_cfa_offset 16
	.cfi_offset 6, -16
	pushq	%rbx
	.cfi_def_cfa_offset 24
	.cfi_offset 3, -24
	subq	$24, %rsp
	.cfi_def_cfa_offset 48
	movq	%fs:40, %rcx
	movq	%rcx, 8(%rsp)
	xorl	%ecx, %ecx
	cmpq	$0, 16(%rsi)
	je	.L97
	movq	%rdi, %rbx
	movq	%rdx, %rbp
	movq	%rsp, %rdi
.LEHB0:
	call	*24(%rsi)
.LEHE0:
	movq	8(%rbx), %rdi
	movq	(%rsp), %rax
	movb	$1, 0(%rbp)
	testq	%rdi, %rdi
	movq	%rax, 8(%rbx)
	movq	%rdi, (%rsp)
	je	.L89
	movq	(%rdi), %rax
	call	*(%rax)
.L89:
	movq	8(%rsp), %rax
	xorq	%fs:40, %rax
	jne	.L98
	addq	$24, %rsp
	.cfi_remember_state
	.cfi_def_cfa_offset 24
	popq	%rbx
	.cfi_def_cfa_offset 16
	popq	%rbp
	.cfi_def_cfa_offset 8
	ret
.L97:
	.cfi_restore_state
.LEHB1:
	call	_ZSt25__throw_bad_function_callv@PLT
.LEHE1:
.L98:
	call	__stack_chk_fail@PLT
	.cfi_endproc
.LFE7340:
	.section	.gcc_except_table._ZNSt13__future_base13_State_baseV29_M_do_setEPSt8functionIFSt10unique_ptrINS_12_Result_baseENS3_8_DeleterEEvEEPb,"aG",@progbits,_ZNSt13__future_base13_State_baseV29_M_do_setEPSt8functionIFSt10unique_ptrINS_12_Result_baseENS3_8_DeleterEEvEEPb,comdat
.LLSDA7340:
	.byte	0xff
	.byte	0xff
	.byte	0x1
	.uleb128 .LLSDACSE7340-.LLSDACSB7340
.LLSDACSB7340:
	.uleb128 .LEHB0-.LFB7340
	.uleb128 .LEHE0-.LEHB0
	.uleb128 0
	.uleb128 0
	.uleb128 .LEHB1-.LFB7340
	.uleb128 .LEHE1-.LEHB1
	.uleb128 0
	.uleb128 0
.LLSDACSE7340:
	.section	.text._ZNSt13__future_base13_State_baseV29_M_do_setEPSt8functionIFSt10unique_ptrINS_12_Result_baseENS3_8_DeleterEEvEEPb,"axG",@progbits,_ZNSt13__future_base13_State_baseV29_M_do_setEPSt8functionIFSt10unique_ptrINS_12_Result_baseENS3_8_DeleterEEvEEPb,comdat
	.size	_ZNSt13__future_base13_State_baseV29_M_do_setEPSt8functionIFSt10unique_ptrINS_12_Result_baseENS3_8_DeleterEEvEEPb, .-_ZNSt13__future_base13_State_baseV29_M_do_setEPSt8functionIFSt10unique_ptrINS_12_Result_baseENS3_8_DeleterEEvEEPb
	.text
	.p2align 4,,15
	.type	_ZNSt17_Function_handlerIFSt10shared_ptrIN8opendnp311IMasterTaskEEvEZN8asiodnp318MasterSessionStack7AddScanEN7openpal12TimeDurationERKSt6vectorINS1_6HeaderESaISA_EERKNS1_10TaskConfigEEUlvE_E9_M_invokeERKSt9_Any_data, @function
_ZNSt17_Function_handlerIFSt10shared_ptrIN8opendnp311IMasterTaskEEvEZN8asiodnp318MasterSessionStack7AddScanEN7openpal12TimeDurationERKSt6vectorINS1_6HeaderESaISA_EERKNS1_10TaskConfigEEUlvE_E9_M_invokeERKSt9_Any_data:
.LFB9478:
	.cfi_startproc
	pushq	%rbx
	.cfi_def_cfa_offset 16
	.cfi_offset 3, -16
	movq	%rdi, %rbx
	subq	$16, %rsp
	.cfi_def_cfa_offset 32
	movq	(%rsi), %rdi
	movq	%fs:40, %rax
	movq	%rax, 8(%rsp)
	xorl	%eax, %eax
	movq	(%rdi), %rax
	movq	16(%rdi), %rdx
	leaq	24(%rdi), %rcx
	movq	56(%rdi), %r8
	movq	64(%rdi), %r9
	movq	%rbx, %rdi
	leaq	96(%rax), %rsi
	call	_ZN8opendnp38MContext7AddScanEN7openpal12TimeDurationERKSt8functionIFbRNS_12HeaderWriterEEENS_10TaskConfigE@PLT
	movq	8(%rsp), %rdx
	xorq	%fs:40, %rdx
	jne	.L102
	addq	$16, %rsp
	.cfi_remember_state
	.cfi_def_cfa_offset 16
	movq	%rbx, %rax
	popq	%rbx
	.cfi_def_cfa_offset 8
	ret
.L102:
	.cfi_restore_state
	call	__stack_chk_fail@PLT
	.cfi_endproc
.LFE9478:
	.size	_ZNSt17_Function_handlerIFSt10shared_ptrIN8opendnp311IMasterTaskEEvEZN8asiodnp318MasterSessionStack7AddScanEN7openpal12TimeDurationERKSt6vectorINS1_6HeaderESaISA_EERKNS1_10TaskConfigEEUlvE_E9_M_invokeERKSt9_Any_data, .-_ZNSt17_Function_handlerIFSt10shared_ptrIN8opendnp311IMasterTaskEEvEZN8asiodnp318MasterSessionStack7AddScanEN7openpal12TimeDurationERKSt6vectorINS1_6HeaderESaISA_EERKNS1_10TaskConfigEEUlvE_E9_M_invokeERKSt9_Any_data
	.p2align 4,,15
	.type	_ZNSt17_Function_handlerIFSt10shared_ptrIN8opendnp311IMasterTaskEEvEZN8asiodnp318MasterSessionStack17AddAllObjectsScanENS1_16GroupVariationIDEN7openpal12TimeDurationERKNS1_10TaskConfigEEUlvE_E9_M_invokeERKSt9_Any_data, @function
_ZNSt17_Function_handlerIFSt10shared_ptrIN8opendnp311IMasterTaskEEvEZN8asiodnp318MasterSessionStack17AddAllObjectsScanENS1_16GroupVariationIDEN7openpal12TimeDurationERKNS1_10TaskConfigEEUlvE_E9_M_invokeERKSt9_Any_data:
.LFB9507:
	.cfi_startproc
	pushq	%rbx
	.cfi_def_cfa_offset 16
	.cfi_offset 3, -16
	movq	%rdi, %rbx
	subq	$16, %rsp
	.cfi_def_cfa_offset 32
	movq	(%rsi), %rdi
	movq	%fs:40, %rax
	movq	%rax, 8(%rsp)
	xorl	%eax, %eax
	movq	(%rdi), %rax
	movzwl	16(%rdi), %edx
	movq	24(%rdi), %rcx
	movq	32(%rdi), %r8
	movq	40(%rdi), %r9
	movq	%rbx, %rdi
	leaq	96(%rax), %rsi
	call	_ZN8opendnp38MContext17AddAllObjectsScanENS_16GroupVariationIDEN7openpal12TimeDurationENS_10TaskConfigE@PLT
	movq	8(%rsp), %rdx
	xorq	%fs:40, %rdx
	jne	.L106
	addq	$16, %rsp
	.cfi_remember_state
	.cfi_def_cfa_offset 16
	movq	%rbx, %rax
	popq	%rbx
	.cfi_def_cfa_offset 8
	ret
.L106:
	.cfi_restore_state
	call	__stack_chk_fail@PLT
	.cfi_endproc
.LFE9507:
	.size	_ZNSt17_Function_handlerIFSt10shared_ptrIN8opendnp311IMasterTaskEEvEZN8asiodnp318MasterSessionStack17AddAllObjectsScanENS1_16GroupVariationIDEN7openpal12TimeDurationERKNS1_10TaskConfigEEUlvE_E9_M_invokeERKSt9_Any_data, .-_ZNSt17_Function_handlerIFSt10shared_ptrIN8opendnp311IMasterTaskEEvEZN8asiodnp318MasterSessionStack17AddAllObjectsScanENS1_16GroupVariationIDEN7openpal12TimeDurationERKNS1_10TaskConfigEEUlvE_E9_M_invokeERKSt9_Any_data
	.p2align 4,,15
	.type	_ZNSt17_Function_handlerIFSt10shared_ptrIN8opendnp311IMasterTaskEEvEZN8asiodnp318MasterSessionStack12AddClassScanERKNS1_10ClassFieldEN7openpal12TimeDurationERKNS1_10TaskConfigEEUlvE_E9_M_invokeERKSt9_Any_data, @function
_ZNSt17_Function_handlerIFSt10shared_ptrIN8opendnp311IMasterTaskEEvEZN8asiodnp318MasterSessionStack12AddClassScanERKNS1_10ClassFieldEN7openpal12TimeDurationERKNS1_10TaskConfigEEUlvE_E9_M_invokeERKSt9_Any_data:
.LFB9511:
	.cfi_startproc
	pushq	%rbx
	.cfi_def_cfa_offset 16
	.cfi_offset 3, -16
	movq	%rdi, %rbx
	subq	$16, %rsp
	.cfi_def_cfa_offset 32
	movq	(%rsi), %rdi
	movq	%fs:40, %rax
	movq	%rax, 8(%rsp)
	xorl	%eax, %eax
	movq	(%rdi), %rax
	movq	24(%rdi), %rcx
	leaq	16(%rdi), %rdx
	movq	32(%rdi), %r8
	movq	40(%rdi), %r9
	movq	%rbx, %rdi
	leaq	96(%rax), %rsi
	call	_ZN8opendnp38MContext12AddClassScanERKNS_10ClassFieldEN7openpal12TimeDurationENS_10TaskConfigE@PLT
	movq	8(%rsp), %rdx
	xorq	%fs:40, %rdx
	jne	.L110
	addq	$16, %rsp
	.cfi_remember_state
	.cfi_def_cfa_offset 16
	movq	%rbx, %rax
	popq	%rbx
	.cfi_def_cfa_offset 8
	ret
.L110:
	.cfi_restore_state
	call	__stack_chk_fail@PLT
	.cfi_endproc
.LFE9511:
	.size	_ZNSt17_Function_handlerIFSt10shared_ptrIN8opendnp311IMasterTaskEEvEZN8asiodnp318MasterSessionStack12AddClassScanERKNS1_10ClassFieldEN7openpal12TimeDurationERKNS1_10TaskConfigEEUlvE_E9_M_invokeERKSt9_Any_data, .-_ZNSt17_Function_handlerIFSt10shared_ptrIN8opendnp311IMasterTaskEEvEZN8asiodnp318MasterSessionStack12AddClassScanERKNS1_10ClassFieldEN7openpal12TimeDurationERKNS1_10TaskConfigEEUlvE_E9_M_invokeERKSt9_Any_data
	.p2align 4,,15
	.type	_ZNSt17_Function_handlerIFSt10shared_ptrIN8opendnp311IMasterTaskEEvEZN8asiodnp318MasterSessionStack12AddRangeScanENS1_16GroupVariationIDEttN7openpal12TimeDurationERKNS1_10TaskConfigEEUlvE_E9_M_invokeERKSt9_Any_data, @function
_ZNSt17_Function_handlerIFSt10shared_ptrIN8opendnp311IMasterTaskEEvEZN8asiodnp318MasterSessionStack12AddRangeScanENS1_16GroupVariationIDEttN7openpal12TimeDurationERKNS1_10TaskConfigEEUlvE_E9_M_invokeERKSt9_Any_data:
.LFB9515:
	.cfi_startproc
	pushq	%rbx
	.cfi_def_cfa_offset 16
	.cfi_offset 3, -16
	movq	%rdi, %rbx
	subq	$16, %rsp
	.cfi_def_cfa_offset 32
	movq	(%rsi), %rdi
	movq	%fs:40, %rax
	movq	%rax, 8(%rsp)
	xorl	%eax, %eax
	movq	(%rdi), %rax
	movzwl	16(%rdi), %edx
	movzwl	18(%rdi), %ecx
	movzwl	20(%rdi), %r8d
	movq	24(%rdi), %r9
	pushq	40(%rdi)
	.cfi_def_cfa_offset 40
	leaq	96(%rax), %rsi
	pushq	32(%rdi)
	.cfi_def_cfa_offset 48
	movq	%rbx, %rdi
	call	_ZN8opendnp38MContext12AddRangeScanENS_16GroupVariationIDEttN7openpal12TimeDurationENS_10TaskConfigE@PLT
	popq	%rax
	.cfi_def_cfa_offset 40
	popq	%rdx
	.cfi_def_cfa_offset 32
	movq	8(%rsp), %rdx
	xorq	%fs:40, %rdx
	jne	.L114
	addq	$16, %rsp
	.cfi_remember_state
	.cfi_def_cfa_offset 16
	movq	%rbx, %rax
	popq	%rbx
	.cfi_def_cfa_offset 8
	ret
.L114:
	.cfi_restore_state
	call	__stack_chk_fail@PLT
	.cfi_endproc
.LFE9515:
	.size	_ZNSt17_Function_handlerIFSt10shared_ptrIN8opendnp311IMasterTaskEEvEZN8asiodnp318MasterSessionStack12AddRangeScanENS1_16GroupVariationIDEttN7openpal12TimeDurationERKNS1_10TaskConfigEEUlvE_E9_M_invokeERKSt9_Any_data, .-_ZNSt17_Function_handlerIFSt10shared_ptrIN8opendnp311IMasterTaskEEvEZN8asiodnp318MasterSessionStack12AddRangeScanENS1_16GroupVariationIDEttN7openpal12TimeDurationERKNS1_10TaskConfigEEUlvE_E9_M_invokeERKSt9_Any_data
	.section	.text._ZN4asio6detail15system_categoryD2Ev,"axG",@progbits,_ZN4asio6detail15system_categoryD5Ev,comdat
	.align 2
	.p2align 4,,15
	.weak	_ZN4asio6detail15system_categoryD2Ev
	.type	_ZN4asio6detail15system_categoryD2Ev, @function
_ZN4asio6detail15system_categoryD2Ev:
.LFB11345:
	.cfi_startproc
	movq	_ZTVN4asio6detail15system_categoryE@GOTPCREL(%rip), %rax
	addq	$16, %rax
	movq	%rax, (%rdi)
	jmp	_ZNSt3_V214error_categoryD2Ev@PLT
	.cfi_endproc
.LFE11345:
	.size	_ZN4asio6detail15system_categoryD2Ev, .-_ZN4asio6detail15system_categoryD2Ev
	.weak	_ZN4asio6detail15system_categoryD1Ev
	.set	_ZN4asio6detail15system_categoryD1Ev,_ZN4asio6detail15system_categoryD2Ev
	.section	.text._ZN4asio6detail15system_categoryD0Ev,"axG",@progbits,_ZN4asio6detail15system_categoryD5Ev,comdat
	.align 2
	.p2align 4,,15
	.weak	_ZN4asio6detail15system_categoryD0Ev
	.type	_ZN4asio6detail15system_categoryD0Ev, @function
_ZN4asio6detail15system_categoryD0Ev:
.LFB11347:
	.cfi_startproc
	movq	_ZTVN4asio6detail15system_categoryE@GOTPCREL(%rip), %rax
	pushq	%rbx
	.cfi_def_cfa_offset 16
	.cfi_offset 3, -16
	movq	%rdi, %rbx
	addq	$16, %rax
	movq	%rax, (%rdi)
	call	_ZNSt3_V214error_categoryD2Ev@PLT
	movq	%rbx, %rdi
	movl	$8, %esi
	popq	%rbx
	.cfi_def_cfa_offset 8
	jmp	_ZdlPvm@PLT
	.cfi_endproc
.LFE11347:
	.size	_ZN4asio6detail15system_categoryD0Ev, .-_ZN4asio6detail15system_categoryD0Ev
	.section	.text._ZN4asio5error6detail14netdb_categoryD2Ev,"axG",@progbits,_ZN4asio5error6detail14netdb_categoryD5Ev,comdat
	.align 2
	.p2align 4,,15
	.weak	_ZN4asio5error6detail14netdb_categoryD2Ev
	.type	_ZN4asio5error6detail14netdb_categoryD2Ev, @function
_ZN4asio5error6detail14netdb_categoryD2Ev:
.LFB11333:
	.cfi_startproc
	movq	_ZTVN4asio5error6detail14netdb_categoryE@GOTPCREL(%rip), %rax
	addq	$16, %rax
	movq	%rax, (%rdi)
	jmp	_ZNSt3_V214error_categoryD2Ev@PLT
	.cfi_endproc
.LFE11333:
	.size	_ZN4asio5error6detail14netdb_categoryD2Ev, .-_ZN4asio5error6detail14netdb_categoryD2Ev
	.weak	_ZN4asio5error6detail14netdb_categoryD1Ev
	.set	_ZN4asio5error6detail14netdb_categoryD1Ev,_ZN4asio5error6detail14netdb_categoryD2Ev
	.section	.text._ZN4asio5error6detail14netdb_categoryD0Ev,"axG",@progbits,_ZN4asio5error6detail14netdb_categoryD5Ev,comdat
	.align 2
	.p2align 4,,15
	.weak	_ZN4asio5error6detail14netdb_categoryD0Ev
	.type	_ZN4asio5error6detail14netdb_categoryD0Ev, @function
_ZN4asio5error6detail14netdb_categoryD0Ev:
.LFB11335:
	.cfi_startproc
	movq	_ZTVN4asio5error6detail14netdb_categoryE@GOTPCREL(%rip), %rax
	pushq	%rbx
	.cfi_def_cfa_offset 16
	.cfi_offset 3, -16
	movq	%rdi, %rbx
	addq	$16, %rax
	movq	%rax, (%rdi)
	call	_ZNSt3_V214error_categoryD2Ev@PLT
	movq	%rbx, %rdi
	movl	$8, %esi
	popq	%rbx
	.cfi_def_cfa_offset 8
	jmp	_ZdlPvm@PLT
	.cfi_endproc
.LFE11335:
	.size	_ZN4asio5error6detail14netdb_categoryD0Ev, .-_ZN4asio5error6detail14netdb_categoryD0Ev
	.section	.text._ZN4asio5error6detail17addrinfo_categoryD2Ev,"axG",@progbits,_ZN4asio5error6detail17addrinfo_categoryD5Ev,comdat
	.align 2
	.p2align 4,,15
	.weak	_ZN4asio5error6detail17addrinfo_categoryD2Ev
	.type	_ZN4asio5error6detail17addrinfo_categoryD2Ev, @function
_ZN4asio5error6detail17addrinfo_categoryD2Ev:
.LFB11329:
	.cfi_startproc
	movq	_ZTVN4asio5error6detail17addrinfo_categoryE@GOTPCREL(%rip), %rax
	addq	$16, %rax
	movq	%rax, (%rdi)
	jmp	_ZNSt3_V214error_categoryD2Ev@PLT
	.cfi_endproc
.LFE11329:
	.size	_ZN4asio5error6detail17addrinfo_categoryD2Ev, .-_ZN4asio5error6detail17addrinfo_categoryD2Ev
	.weak	_ZN4asio5error6detail17addrinfo_categoryD1Ev
	.set	_ZN4asio5error6detail17addrinfo_categoryD1Ev,_ZN4asio5error6detail17addrinfo_categoryD2Ev
	.section	.text._ZN4asio5error6detail17addrinfo_categoryD0Ev,"axG",@progbits,_ZN4asio5error6detail17addrinfo_categoryD5Ev,comdat
	.align 2
	.p2align 4,,15
	.weak	_ZN4asio5error6detail17addrinfo_categoryD0Ev
	.type	_ZN4asio5error6detail17addrinfo_categoryD0Ev, @function
_ZN4asio5error6detail17addrinfo_categoryD0Ev:
.LFB11331:
	.cfi_startproc
	movq	_ZTVN4asio5error6detail17addrinfo_categoryE@GOTPCREL(%rip), %rax
	pushq	%rbx
	.cfi_def_cfa_offset 16
	.cfi_offset 3, -16
	movq	%rdi, %rbx
	addq	$16, %rax
	movq	%rax, (%rdi)
	call	_ZNSt3_V214error_categoryD2Ev@PLT
	movq	%rbx, %rdi
	movl	$8, %esi
	popq	%rbx
	.cfi_def_cfa_offset 8
	jmp	_ZdlPvm@PLT
	.cfi_endproc
.LFE11331:
	.size	_ZN4asio5error6detail17addrinfo_categoryD0Ev, .-_ZN4asio5error6detail17addrinfo_categoryD0Ev
	.section	.text._ZN4asio5error6detail13misc_categoryD2Ev,"axG",@progbits,_ZN4asio5error6detail13misc_categoryD5Ev,comdat
	.align 2
	.p2align 4,,15
	.weak	_ZN4asio5error6detail13misc_categoryD2Ev
	.type	_ZN4asio5error6detail13misc_categoryD2Ev, @function
_ZN4asio5error6detail13misc_categoryD2Ev:
.LFB11325:
	.cfi_startproc
	movq	_ZTVN4asio5error6detail13misc_categoryE@GOTPCREL(%rip), %rax
	addq	$16, %rax
	movq	%rax, (%rdi)
	jmp	_ZNSt3_V214error_categoryD2Ev@PLT
	.cfi_endproc
.LFE11325:
	.size	_ZN4asio5error6detail13misc_categoryD2Ev, .-_ZN4asio5error6detail13misc_categoryD2Ev
	.weak	_ZN4asio5error6detail13misc_categoryD1Ev
	.set	_ZN4asio5error6detail13misc_categoryD1Ev,_ZN4asio5error6detail13misc_categoryD2Ev
	.section	.text._ZN4asio5error6detail13misc_categoryD0Ev,"axG",@progbits,_ZN4asio5error6detail13misc_categoryD5Ev,comdat
	.align 2
	.p2align 4,,15
	.weak	_ZN4asio5error6detail13misc_categoryD0Ev
	.type	_ZN4asio5error6detail13misc_categoryD0Ev, @function
_ZN4asio5error6detail13misc_categoryD0Ev:
.LFB11327:
	.cfi_startproc
	movq	_ZTVN4asio5error6detail13misc_categoryE@GOTPCREL(%rip), %rax
	pushq	%rbx
	.cfi_def_cfa_offset 16
	.cfi_offset 3, -16
	movq	%rdi, %rbx
	addq	$16, %rax
	movq	%rax, (%rdi)
	call	_ZNSt3_V214error_categoryD2Ev@PLT
	movq	%rbx, %rdi
	movl	$8, %esi
	popq	%rbx
	.cfi_def_cfa_offset 8
	jmp	_ZdlPvm@PLT
	.cfi_endproc
.LFE11327:
	.size	_ZN4asio5error6detail13misc_categoryD0Ev, .-_ZN4asio5error6detail13misc_categoryD0Ev
	.section	.rodata.str1.8,"aMS",@progbits,1
	.align 8
.LC4:
	.string	"basic_string::_M_construct null not valid"
	.text
	.align 2
	.p2align 4,,15
	.type	_ZNSt7__cxx1112basic_stringIcSt11char_traitsIcESaIcEE12_M_constructIPKcEEvT_S8_St20forward_iterator_tag.isra.157, @function
_ZNSt7__cxx1112basic_stringIcSt11char_traitsIcESaIcEE12_M_constructIPKcEEvT_S8_St20forward_iterator_tag.isra.157:
.LFB11844:
	.cfi_startproc
	pushq	%r12
	.cfi_def_cfa_offset 16
	.cfi_offset 12, -16
	pushq	%rbp
	.cfi_def_cfa_offset 24
	.cfi_offset 6, -24
	movq	%rsi, %r12
	pushq	%rbx
	.cfi_def_cfa_offset 32
	.cfi_offset 3, -32
	movq	%rdi, %rbp
	subq	$16, %rsp
	.cfi_def_cfa_offset 48
	movq	%fs:40, %rax
	movq	%rax, 8(%rsp)
	xorl	%eax, %eax
	testq	%rsi, %rsi
	jne	.L128
	testq	%rdx, %rdx
	jne	.L144
.L128:
	subq	%r12, %rdx
	cmpq	$15, %rdx
	movq	%rdx, %rbx
	movq	%rdx, (%rsp)
	ja	.L145
	cmpq	$1, %rdx
	movq	0(%rbp), %rax
	jne	.L131
	movzbl	(%r12), %edx
	movb	%dl, (%rax)
	movq	(%rsp), %rbx
	movq	0(%rbp), %rax
.L132:
	movq	%rbx, 8(%rbp)
	movb	$0, (%rax,%rbx)
	movq	8(%rsp), %rax
	xorq	%fs:40, %rax
	jne	.L146
	addq	$16, %rsp
	.cfi_remember_state
	.cfi_def_cfa_offset 32
	popq	%rbx
	.cfi_def_cfa_offset 24
	popq	%rbp
	.cfi_def_cfa_offset 16
	popq	%r12
	.cfi_def_cfa_offset 8
	ret
	.p2align 4,,10
	.p2align 3
.L145:
	.cfi_restore_state
	xorl	%edx, %edx
	movq	%rsp, %rsi
	movq	%rbp, %rdi
	call	_ZNSt7__cxx1112basic_stringIcSt11char_traitsIcESaIcEE9_M_createERmm@PLT
	movq	(%rsp), %rdx
	movq	%rax, 0(%rbp)
	movq	%rdx, 16(%rbp)
.L130:
	movq	%rbx, %rdx
	movq	%r12, %rsi
	movq	%rax, %rdi
	call	memcpy@PLT
	movq	(%rsp), %rbx
	movq	0(%rbp), %rax
	jmp	.L132
	.p2align 4,,10
	.p2align 3
.L131:
	testq	%rdx, %rdx
	je	.L132
	jmp	.L130
.L144:
	leaq	.LC4(%rip), %rdi
	call	_ZSt19__throw_logic_errorPKc@PLT
.L146:
	call	__stack_chk_fail@PLT
	.cfi_endproc
.LFE11844:
	.size	_ZNSt7__cxx1112basic_stringIcSt11char_traitsIcESaIcEE12_M_constructIPKcEEvT_S8_St20forward_iterator_tag.isra.157, .-_ZNSt7__cxx1112basic_stringIcSt11char_traitsIcESaIcEE12_M_constructIPKcEEvT_S8_St20forward_iterator_tag.isra.157
	.section	.text._ZNSt13__future_base7_ResultIN8opendnp315StackStatisticsEE10_M_destroyEv,"axG",@progbits,_ZNSt13__future_base7_ResultIN8opendnp315StackStatisticsEE10_M_destroyEv,comdat
	.align 2
	.p2align 4,,15
	.weak	_ZNSt13__future_base7_ResultIN8opendnp315StackStatisticsEE10_M_destroyEv
	.type	_ZNSt13__future_base7_ResultIN8opendnp315StackStatisticsEE10_M_destroyEv, @function
_ZNSt13__future_base7_ResultIN8opendnp315StackStatisticsEE10_M_destroyEv:
.LFB11512:
	.cfi_startproc
	movq	(%rdi), %rax
	movq	16(%rax), %rax
	cmpq	_ZNSt13__future_base7_ResultIN8opendnp315StackStatisticsEED0Ev@GOTPCREL(%rip), %rax
	jne	.L148
	movq	_ZTVNSt13__future_base7_ResultIN8opendnp315StackStatisticsEEE@GOTPCREL(%rip), %rax
	pushq	%rbx
	.cfi_def_cfa_offset 16
	.cfi_offset 3, -16
	movq	%rdi, %rbx
	addq	$16, %rax
	movq	%rax, (%rdi)
	call	_ZNSt13__future_base12_Result_baseD2Ev@PLT
	movq	%rbx, %rdi
	movl	$64, %esi
	popq	%rbx
	.cfi_restore 3
	.cfi_def_cfa_offset 8
	jmp	_ZdlPvm@PLT
	.p2align 4,,10
	.p2align 3
.L148:
	jmp	*%rax
	.cfi_endproc
.LFE11512:
	.size	_ZNSt13__future_base7_ResultIN8opendnp315StackStatisticsEE10_M_destroyEv, .-_ZNSt13__future_base7_ResultIN8opendnp315StackStatisticsEE10_M_destroyEv
	.section	.text._ZN4asio6detail18completion_handlerIZN7asiopal8Executor10ReturnFromIN8opendnp315StackStatisticsEEET_RKSt8functionIFS7_vEEEUlvE_E11do_completeEPNS0_15task_io_serviceEPNS0_25task_io_service_operationERKSt10error_codem,"axG",@progbits,_ZN4asio6detail18completion_handlerIZN7asiopal8Executor10ReturnFromIN8opendnp315StackStatisticsEEET_RKSt8functionIFS7_vEEEUlvE_E11do_completeEPNS0_15task_io_serviceEPNS0_25task_io_service_operationERKSt10error_codem,comdat
	.p2align 4,,15
	.weak	_ZN4asio6detail18completion_handlerIZN7asiopal8Executor10ReturnFromIN8opendnp315StackStatisticsEEET_RKSt8functionIFS7_vEEEUlvE_E11do_completeEPNS0_15task_io_serviceEPNS0_25task_io_service_operationERKSt10error_codem
	.type	_ZN4asio6detail18completion_handlerIZN7asiopal8Executor10ReturnFromIN8opendnp315StackStatisticsEEET_RKSt8functionIFS7_vEEEUlvE_E11do_completeEPNS0_15task_io_serviceEPNS0_25task_io_service_operationERKSt10error_codem, @function
_ZN4asio6detail18completion_handlerIZN7asiopal8Executor10ReturnFromIN8opendnp315StackStatisticsEEET_RKSt8functionIFS7_vEEEUlvE_E11do_completeEPNS0_15task_io_serviceEPNS0_25task_io_service_operationERKSt10error_codem:
.LFB10612:
	.cfi_startproc
	.cfi_personality 0x9b,DW.ref.__gxx_personality_v0
	.cfi_lsda 0x1b,.LLSDA10612
	pushq	%r13
	.cfi_def_cfa_offset 16
	.cfi_offset 13, -16
	pushq	%r12
	.cfi_def_cfa_offset 24
	.cfi_offset 12, -24
	movq	%rdi, %r13
	pushq	%rbp
	.cfi_def_cfa_offset 32
	.cfi_offset 6, -32
	pushq	%rbx
	.cfi_def_cfa_offset 40
	.cfi_offset 3, -40
	movq	%rsi, %rbx
	subq	$200, %rsp
	.cfi_def_cfa_offset 240
	movq	24(%rsi), %r12
	movq	32(%rsi), %rbp
	movq	%fs:40, %rax
	movq	%rax, 184(%rsp)
	xorl	%eax, %eax
	.byte	0x66
	leaq	_ZN4asio6detail15keyword_tss_ptrINS0_10call_stackINS0_15task_io_serviceENS0_27task_io_service_thread_infoEE7contextEE6value_E@tlsgd(%rip), %rdi
	.value	0x6666
	rex64
	call	__tls_get_addr@PLT
	movq	(%rax), %rax
	testq	%rax, %rax
	je	.L153
	movq	8(%rax), %rax
	testq	%rax, %rax
	je	.L153
	cmpq	$0, (%rax)
	je	.L185
.L153:
	movq	%rbx, %rdi
	call	_ZdlPv@PLT
.L154:
	testq	%r13, %r13
	je	.L152
	cmpq	$0, 16(%rbp)
	je	.L186
	leaq	96(%rsp), %r13
	movq	%rbp, %rsi
	movq	%r13, %rdi
.LEHB2:
	call	*24(%rbp)
.LEHE2:
	movq	(%r12), %rbx
	testq	%rbx, %rbx
	je	.L187
	leaq	23(%rsp), %rax
	movq	_ZNSt14_Function_base13_Base_managerINSt13__future_base13_State_baseV27_SetterIN8opendnp315StackStatisticsEOS5_EEE10_M_managerERSt9_Any_dataRKS9_St18_Manager_operation@GOTPCREL(%rip), %xmm0
	movhps	_ZNSt17_Function_handlerIFSt10unique_ptrINSt13__future_base12_Result_baseENS2_8_DeleterEEvENS1_13_State_baseV27_SetterIN8opendnp315StackStatisticsEOS9_EEE9_M_invokeERKSt9_Any_data@GOTPCREL(%rip), %xmm0
	leaq	144(%rsp), %rbp
	movq	%r12, 144(%rsp)
	movq	%rax, 40(%rsp)
	movq	_ZNSt13__future_base13_State_baseV29_M_do_setEPSt8functionIFSt10unique_ptrINS_12_Result_baseENS3_8_DeleterEEvEEPb@GOTPCREL(%rip), %rax
	movaps	%xmm0, 160(%rsp)
	movq	%r13, 152(%rsp)
	movb	$0, 23(%rsp)
	movq	%rax, 48(%rsp)
	leaq	48(%rsp), %rax
	movq	%rbp, 32(%rsp)
	movq	%rbx, 24(%rsp)
	movq	$0, 56(%rsp)
	movq	%rax, 8(%rsp)
	leaq	24(%rsp), %rax
	movq	8(%rsp), %xmm0
	movq	%rax, 8(%rsp)
	leaq	32(%rsp), %rax
	movhps	8(%rsp), %xmm0
	movq	%rax, 8(%rsp)
	leaq	40(%rsp), %rax
	movaps	%xmm0, 64(%rsp)
	movq	8(%rsp), %xmm0
	movq	%rax, 8(%rsp)
	movhps	8(%rsp), %xmm0
	movaps	%xmm0, 80(%rsp)
	.byte	0x66
	leaq	_ZSt15__once_callable@tlsgd(%rip), %rdi
	.value	0x6666
	rex64
	call	__tls_get_addr@PLT
	leaq	64(%rsp), %rdx
	movq	%rdx, (%rax)
	.byte	0x66
	leaq	_ZSt11__once_call@tlsgd(%rip), %rdi
	.value	0x6666
	rex64
	call	__tls_get_addr@PLT
	cmpq	$0, _ZL28__gthrw___pthread_key_createPjPFvPvE@GOTPCREL(%rip)
	movq	_ZZSt9call_onceIMNSt13__future_base13_State_baseV2EFvPSt8functionIFSt10unique_ptrINS0_12_Result_baseENS4_8_DeleterEEvEEPbEJPS1_S9_SA_EEvRSt9once_flagOT_DpOT0_ENUlvE0_4_FUNEv@GOTPCREL(%rip), %rdx
	leaq	24(%rbx), %rdi
	movq	%rdx, (%rax)
	je	.L169
	movq	__once_proxy@GOTPCREL(%rip), %rsi
.LEHB3:
	call	_ZL20__gthrw_pthread_oncePiPFvvE@PLT
	testl	%eax, %eax
	jne	.L158
	cmpb	$0, 23(%rsp)
	jne	.L188
	movl	$2, %edi
	call	_ZSt20__throw_future_errori@PLT
	.p2align 4,,10
	.p2align 3
.L188:
	leaq	16(%rbx), %rdi
	movl	$1, %eax
	xchgl	(%rdi), %eax
	testl	%eax, %eax
	jns	.L164
	call	_ZNSt28__atomic_futex_unsigned_base19_M_futex_notify_allEPj@PLT
.LEHE3:
.L164:
	movq	160(%rsp), %rax
	testq	%rax, %rax
	je	.L163
	movl	$3, %edx
	movq	%rbp, %rsi
	movq	%rbp, %rdi
	call	*%rax
.L163:
	sfence
.L152:
	movq	184(%rsp), %rax
	xorq	%fs:40, %rax
	jne	.L189
	addq	$200, %rsp
	.cfi_remember_state
	.cfi_def_cfa_offset 40
	popq	%rbx
	.cfi_def_cfa_offset 32
	popq	%rbp
	.cfi_def_cfa_offset 24
	popq	%r12
	.cfi_def_cfa_offset 16
	popq	%r13
	.cfi_def_cfa_offset 8
	ret
	.p2align 4,,10
	.p2align 3
.L185:
	.cfi_restore_state
	movzbl	40(%rbx), %edx
	movb	%dl, (%rbx)
	movq	%rbx, (%rax)
	jmp	.L154
.L171:
	movq	%rax, %rbx
	movq	160(%rsp), %rax
	testq	%rax, %rax
	je	.L166
	movl	$3, %edx
	movq	%rbp, %rsi
	movq	%rbp, %rdi
	call	*%rax
.L166:
	movq	%rbx, %rax
.L167:
	movq	%rax, %rdi
	sfence
.LEHB4:
	call	_Unwind_Resume@PLT
.LEHE4:
.L169:
	orl	$-1, %eax
.L158:
	movl	%eax, %edi
.LEHB5:
	call	_ZSt20__throw_system_errori@PLT
.LEHE5:
.L186:
.LEHB6:
	call	_ZSt25__throw_bad_function_callv@PLT
.L170:
	jmp	.L167
.L187:
	movl	$3, %edi
	call	_ZSt20__throw_future_errori@PLT
.LEHE6:
.L189:
	call	__stack_chk_fail@PLT
	.cfi_endproc
.LFE10612:
	.section	.gcc_except_table._ZN4asio6detail18completion_handlerIZN7asiopal8Executor10ReturnFromIN8opendnp315StackStatisticsEEET_RKSt8functionIFS7_vEEEUlvE_E11do_completeEPNS0_15task_io_serviceEPNS0_25task_io_service_operationERKSt10error_codem,"aG",@progbits,_ZN4asio6detail18completion_handlerIZN7asiopal8Executor10ReturnFromIN8opendnp315StackStatisticsEEET_RKSt8functionIFS7_vEEEUlvE_E11do_completeEPNS0_15task_io_serviceEPNS0_25task_io_service_operationERKSt10error_codem,comdat
.LLSDA10612:
	.byte	0xff
	.byte	0xff
	.byte	0x1
	.uleb128 .LLSDACSE10612-.LLSDACSB10612
.LLSDACSB10612:
	.uleb128 .LEHB2-.LFB10612
	.uleb128 .LEHE2-.LEHB2
	.uleb128 .L170-.LFB10612
	.uleb128 0
	.uleb128 .LEHB3-.LFB10612
	.uleb128 .LEHE3-.LEHB3
	.uleb128 .L171-.LFB10612
	.uleb128 0
	.uleb128 .LEHB4-.LFB10612
	.uleb128 .LEHE4-.LEHB4
	.uleb128 0
	.uleb128 0
	.uleb128 .LEHB5-.LFB10612
	.uleb128 .LEHE5-.LEHB5
	.uleb128 .L171-.LFB10612
	.uleb128 0
	.uleb128 .LEHB6-.LFB10612
	.uleb128 .LEHE6-.LEHB6
	.uleb128 .L170-.LFB10612
	.uleb128 0
.LLSDACSE10612:
	.section	.text._ZN4asio6detail18completion_handlerIZN7asiopal8Executor10ReturnFromIN8opendnp315StackStatisticsEEET_RKSt8functionIFS7_vEEEUlvE_E11do_completeEPNS0_15task_io_serviceEPNS0_25task_io_service_operationERKSt10error_codem,"axG",@progbits,_ZN4asio6detail18completion_handlerIZN7asiopal8Executor10ReturnFromIN8opendnp315StackStatisticsEEET_RKSt8functionIFS7_vEEEUlvE_E11do_completeEPNS0_15task_io_serviceEPNS0_25task_io_service_operationERKSt10error_codem,comdat
	.size	_ZN4asio6detail18completion_handlerIZN7asiopal8Executor10ReturnFromIN8opendnp315StackStatisticsEEET_RKSt8functionIFS7_vEEEUlvE_E11do_completeEPNS0_15task_io_serviceEPNS0_25task_io_service_operationERKSt10error_codem, .-_ZN4asio6detail18completion_handlerIZN7asiopal8Executor10ReturnFromIN8opendnp315StackStatisticsEEET_RKSt8functionIFS7_vEEEUlvE_E11do_completeEPNS0_15task_io_serviceEPNS0_25task_io_service_operationERKSt10error_codem
	.text
	.p2align 4,,15
	.type	_ZN4asio6detail18completion_handlerIZN8asiodnp318MasterSessionStack13SetLogFiltersERKN7openpal10LogFiltersEEUlvE_E11do_completeEPNS0_15task_io_serviceEPNS0_25task_io_service_operationERKSt10error_codem, @function
_ZN4asio6detail18completion_handlerIZN8asiodnp318MasterSessionStack13SetLogFiltersERKN7openpal10LogFiltersEEUlvE_E11do_completeEPNS0_15task_io_serviceEPNS0_25task_io_service_operationERKSt10error_codem:
.LFB10325:
	.cfi_startproc
	.cfi_personality 0x9b,DW.ref.__gxx_personality_v0
	.cfi_lsda 0x1b,.LLSDA10325
	pushq	%r13
	.cfi_def_cfa_offset 16
	.cfi_offset 13, -16
	pushq	%r12
	.cfi_def_cfa_offset 24
	.cfi_offset 12, -24
	pushq	%rbp
	.cfi_def_cfa_offset 32
	.cfi_offset 6, -32
	pushq	%rbx
	.cfi_def_cfa_offset 40
	.cfi_offset 3, -40
	movq	%rdi, %rbp
	movq	%rsi, %rbx
	subq	$8, %rsp
	.cfi_def_cfa_offset 48
	movq	32(%rsi), %r12
	movq	24(%rsi), %r13
	.byte	0x66
	leaq	_ZN4asio6detail15keyword_tss_ptrINS0_10call_stackINS0_15task_io_serviceENS0_27task_io_service_thread_infoEE7contextEE6value_E@tlsgd(%rip), %rdi
	.value	0x6666
	rex64
	call	__tls_get_addr@PLT
	movq	(%rax), %rax
	testq	%rax, %rax
	je	.L191
	movq	8(%rax), %rax
	testq	%rax, %rax
	je	.L191
	cmpq	$0, (%rax)
	je	.L206
.L191:
	movq	%rbx, %rdi
	call	_ZdlPv@PLT
.L192:
	testq	%rbp, %rbp
	je	.L190
	movq	48(%r13), %rdi
	movl	%r12d, %esi
.LEHB7:
	call	_ZN8asiodnp311LinkSession13SetLogFiltersEN7openpal10LogFiltersE@PLT
.LEHE7:
	sfence
.L190:
	addq	$8, %rsp
	.cfi_remember_state
	.cfi_def_cfa_offset 40
	popq	%rbx
	.cfi_def_cfa_offset 32
	popq	%rbp
	.cfi_def_cfa_offset 24
	popq	%r12
	.cfi_def_cfa_offset 16
	popq	%r13
	.cfi_def_cfa_offset 8
	ret
	.p2align 4,,10
	.p2align 3
.L206:
	.cfi_restore_state
	movzbl	40(%rbx), %edx
	movb	%dl, (%rbx)
	movq	%rbx, (%rax)
	jmp	.L192
.L195:
	movq	%rax, %rdi
	sfence
.LEHB8:
	call	_Unwind_Resume@PLT
.LEHE8:
	.cfi_endproc
.LFE10325:
	.section	.gcc_except_table,"a",@progbits
.LLSDA10325:
	.byte	0xff
	.byte	0xff
	.byte	0x1
	.uleb128 .LLSDACSE10325-.LLSDACSB10325
.LLSDACSB10325:
	.uleb128 .LEHB7-.LFB10325
	.uleb128 .LEHE7-.LEHB7
	.uleb128 .L195-.LFB10325
	.uleb128 0
	.uleb128 .LEHB8-.LFB10325
	.uleb128 .LEHE8-.LEHB8
	.uleb128 0
	.uleb128 0
.LLSDACSE10325:
	.text
	.size	_ZN4asio6detail18completion_handlerIZN8asiodnp318MasterSessionStack13SetLogFiltersERKN7openpal10LogFiltersEEUlvE_E11do_completeEPNS0_15task_io_serviceEPNS0_25task_io_service_operationERKSt10error_codem, .-_ZN4asio6detail18completion_handlerIZN8asiodnp318MasterSessionStack13SetLogFiltersERKN7openpal10LogFiltersEEUlvE_E11do_completeEPNS0_15task_io_serviceEPNS0_25task_io_service_operationERKSt10error_codem
	.section	.text._ZNSt23_Sp_counted_ptr_inplaceIN8asiodnp310MasterScanESaIS1_ELN9__gnu_cxx12_Lock_policyE2EE10_M_disposeEv,"axG",@progbits,_ZNSt23_Sp_counted_ptr_inplaceIN8asiodnp310MasterScanESaIS1_ELN9__gnu_cxx12_Lock_policyE2EE10_M_disposeEv,comdat
	.align 2
	.p2align 4,,15
	.weak	_ZNSt23_Sp_counted_ptr_inplaceIN8asiodnp310MasterScanESaIS1_ELN9__gnu_cxx12_Lock_policyE2EE10_M_disposeEv
	.type	_ZNSt23_Sp_counted_ptr_inplaceIN8asiodnp310MasterScanESaIS1_ELN9__gnu_cxx12_Lock_policyE2EE10_M_disposeEv, @function
_ZNSt23_Sp_counted_ptr_inplaceIN8asiodnp310MasterScanESaIS1_ELN9__gnu_cxx12_Lock_policyE2EE10_M_disposeEv:
.LFB11490:
	.cfi_startproc
	pushq	%rbp
	.cfi_def_cfa_offset 16
	.cfi_offset 6, -16
	pushq	%rbx
	.cfi_def_cfa_offset 24
	.cfi_offset 3, -24
	movq	%rdi, %rbp
	subq	$8, %rsp
	.cfi_def_cfa_offset 32
	movq	_ZTVN8asiodnp310MasterScanE@GOTPCREL(%rip), %rax
	movq	48(%rdi), %rbx
	addq	$16, %rax
	testq	%rbx, %rbx
	movq	%rax, 16(%rdi)
	je	.L209
	cmpq	$0, _ZL28__gthrw___pthread_key_createPjPFvPvE@GOTPCREL(%rip)
	je	.L210
	lock subl	$1, 8(%rbx)
	je	.L223
.L209:
	movq	32(%rbp), %rbx
	testq	%rbx, %rbx
	je	.L207
	cmpq	$0, _ZL28__gthrw___pthread_key_createPjPFvPvE@GOTPCREL(%rip)
	je	.L216
	lock subl	$1, 8(%rbx)
	je	.L224
.L207:
	addq	$8, %rsp
	.cfi_remember_state
	.cfi_def_cfa_offset 24
	popq	%rbx
	.cfi_def_cfa_offset 16
	popq	%rbp
	.cfi_def_cfa_offset 8
	ret
	.p2align 4,,10
	.p2align 3
.L216:
	.cfi_restore_state
	movl	8(%rbx), %eax
	leal	-1(%rax), %edx
	cmpl	$1, %eax
	movl	%edx, 8(%rbx)
	jne	.L207
	movq	(%rbx), %rax
	movq	%rbx, %rdi
	call	*16(%rax)
	movl	12(%rbx), %eax
	leal	-1(%rax), %edx
	movl	%edx, 12(%rbx)
	jmp	.L221
	.p2align 4,,10
	.p2align 3
.L210:
	movl	8(%rbx), %eax
	leal	-1(%rax), %edx
	cmpl	$1, %eax
	movl	%edx, 8(%rbx)
	jne	.L209
	movq	(%rbx), %rax
	movq	%rbx, %rdi
	call	*16(%rax)
	movl	12(%rbx), %eax
	leal	-1(%rax), %edx
	movl	%edx, 12(%rbx)
	jmp	.L220
	.p2align 4,,10
	.p2align 3
.L224:
	movq	(%rbx), %rax
	movq	%rbx, %rdi
	call	*16(%rax)
	movl	$-1, %eax
	lock xaddl	%eax, 12(%rbx)
.L221:
	cmpl	$1, %eax
	jne	.L207
	movq	(%rbx), %rax
	movq	%rbx, %rdi
	movq	24(%rax), %rax
	addq	$8, %rsp
	.cfi_remember_state
	.cfi_def_cfa_offset 24
	popq	%rbx
	.cfi_def_cfa_offset 16
	popq	%rbp
	.cfi_def_cfa_offset 8
	jmp	*%rax
	.p2align 4,,10
	.p2align 3
.L223:
	.cfi_restore_state
	movq	(%rbx), %rax
	movq	%rbx, %rdi
	call	*16(%rax)
	movl	$-1, %eax
	lock xaddl	%eax, 12(%rbx)
.L220:
	cmpl	$1, %eax
	jne	.L209
	movq	(%rbx), %rax
	movq	%rbx, %rdi
	call	*24(%rax)
	jmp	.L209
	.cfi_endproc
.LFE11490:
	.size	_ZNSt23_Sp_counted_ptr_inplaceIN8asiodnp310MasterScanESaIS1_ELN9__gnu_cxx12_Lock_policyE2EE10_M_disposeEv, .-_ZNSt23_Sp_counted_ptr_inplaceIN8asiodnp310MasterScanESaIS1_ELN9__gnu_cxx12_Lock_policyE2EE10_M_disposeEv
	.section	.text.unlikely,"ax",@progbits
	.align 2
	.type	_ZZN8asiodnp318MasterSessionStack6DemandERKSt10shared_ptrIN8opendnp311IMasterTaskEEENUlvE_D2Ev, @function
_ZZN8asiodnp318MasterSessionStack6DemandERKSt10shared_ptrIN8opendnp311IMasterTaskEEENUlvE_D2Ev:
.LFB7801:
	.cfi_startproc
	pushq	%rbp
	.cfi_def_cfa_offset 16
	.cfi_offset 6, -16
	pushq	%rbx
	.cfi_def_cfa_offset 24
	.cfi_offset 3, -24
	movq	%rdi, %rbp
	subq	$8, %rsp
	.cfi_def_cfa_offset 32
	movq	24(%rdi), %rbx
	testq	%rbx, %rbx
	je	.L227
	cmpq	$0, _ZL28__gthrw___pthread_key_createPjPFvPvE@GOTPCREL(%rip)
	je	.L228
	lock decl	8(%rbx)
	jne	.L227
	jmp	.L241
.L228:
	movl	8(%rbx), %eax
	leal	-1(%rax), %edx
	decl	%eax
	movl	%edx, 8(%rbx)
	jne	.L227
	jmp	.L242
.L241:
	movq	(%rbx), %rax
	movq	%rbx, %rdi
	call	*16(%rax)
	orl	$-1, %eax
	lock xaddl	%eax, 12(%rbx)
.L238:
	decl	%eax
	jne	.L227
	movq	(%rbx), %rax
	movq	%rbx, %rdi
	call	*24(%rax)
.L227:
	movq	8(%rbp), %rbx
	testq	%rbx, %rbx
	je	.L225
	cmpq	$0, _ZL28__gthrw___pthread_key_createPjPFvPvE@GOTPCREL(%rip)
	je	.L234
	lock decl	8(%rbx)
	jne	.L225
	movq	(%rbx), %rax
	movq	%rbx, %rdi
	call	*16(%rax)
	orl	$-1, %eax
	lock xaddl	%eax, 12(%rbx)
	jmp	.L239
.L234:
	movl	8(%rbx), %eax
	leal	-1(%rax), %edx
	decl	%eax
	movl	%edx, 8(%rbx)
	jne	.L225
	movq	(%rbx), %rax
	movq	%rbx, %rdi
	call	*16(%rax)
	movl	12(%rbx), %eax
	leal	-1(%rax), %edx
	movl	%edx, 12(%rbx)
.L239:
	decl	%eax
	jne	.L225
	movq	(%rbx), %rax
	movq	%rbx, %rdi
	movq	24(%rax), %rax
	popq	%rdx
	.cfi_remember_state
	.cfi_def_cfa_offset 24
	popq	%rbx
	.cfi_def_cfa_offset 16
	popq	%rbp
	.cfi_def_cfa_offset 8
	jmp	*%rax
.L242:
	.cfi_restore_state
	movq	(%rbx), %rax
	movq	%rbx, %rdi
	call	*16(%rax)
	movl	12(%rbx), %eax
	leal	-1(%rax), %edx
	movl	%edx, 12(%rbx)
	jmp	.L238
.L225:
	popq	%rax
	.cfi_def_cfa_offset 24
	popq	%rbx
	.cfi_def_cfa_offset 16
	popq	%rbp
	.cfi_def_cfa_offset 8
	ret
	.cfi_endproc
.LFE7801:
	.size	_ZZN8asiodnp318MasterSessionStack6DemandERKSt10shared_ptrIN8opendnp311IMasterTaskEEENUlvE_D2Ev, .-_ZZN8asiodnp318MasterSessionStack6DemandERKSt10shared_ptrIN8opendnp311IMasterTaskEEENUlvE_D2Ev
	.set	_ZZN8asiodnp318MasterSessionStack6DemandERKSt10shared_ptrIN8opendnp311IMasterTaskEEENUlvE_D1Ev,_ZZN8asiodnp318MasterSessionStack6DemandERKSt10shared_ptrIN8opendnp311IMasterTaskEEENUlvE_D2Ev
	.align 2
	.type	_ZZN8asiodnp318MasterSessionStack7RestartEN8opendnp311RestartTypeERKSt8functionIFvRKNS1_22RestartOperationResultEEENS1_10TaskConfigEENUlvE_D2Ev, @function
_ZZN8asiodnp318MasterSessionStack7RestartEN8opendnp311RestartTypeERKSt8functionIFvRKNS1_22RestartOperationResultEEENS1_10TaskConfigEENUlvE_D2Ev:
.LFB7942:
	.cfi_startproc
	.cfi_personality 0x9b,DW.ref.__gxx_personality_v0
	.cfi_lsda 0x1b,.LLSDA7942
	pushq	%rbx
	.cfi_def_cfa_offset 16
	.cfi_offset 3, -16
	movq	40(%rdi), %rax
	movq	%rdi, %rbx
	testq	%rax, %rax
	je	.L244
	leaq	24(%rdi), %rdi
	movl	$3, %edx
	movq	%rdi, %rsi
	call	*%rax
.L244:
	movq	8(%rbx), %rbx
	testq	%rbx, %rbx
	je	.L243
	cmpq	$0, _ZL28__gthrw___pthread_key_createPjPFvPvE@GOTPCREL(%rip)
	je	.L247
	lock decl	8(%rbx)
	jne	.L243
	movq	(%rbx), %rax
	movq	%rbx, %rdi
	call	*16(%rax)
	orl	$-1, %eax
	lock xaddl	%eax, 12(%rbx)
	jmp	.L251
.L247:
	movl	8(%rbx), %eax
	leal	-1(%rax), %edx
	decl	%eax
	movl	%edx, 8(%rbx)
	jne	.L243
	movq	(%rbx), %rax
	movq	%rbx, %rdi
	call	*16(%rax)
	movl	12(%rbx), %eax
	leal	-1(%rax), %edx
	movl	%edx, 12(%rbx)
.L251:
	decl	%eax
	jne	.L243
	movq	(%rbx), %rax
	movq	%rbx, %rdi
	popq	%rbx
	.cfi_remember_state
	.cfi_def_cfa_offset 8
	movq	24(%rax), %rax
	jmp	*%rax
.L243:
	.cfi_restore_state
	popq	%rbx
	.cfi_def_cfa_offset 8
	ret
	.cfi_endproc
.LFE7942:
	.section	.gcc_except_table
.LLSDA7942:
	.byte	0xff
	.byte	0xff
	.byte	0x1
	.uleb128 .LLSDACSE7942-.LLSDACSB7942
.LLSDACSB7942:
.LLSDACSE7942:
	.section	.text.unlikely
	.size	_ZZN8asiodnp318MasterSessionStack7RestartEN8opendnp311RestartTypeERKSt8functionIFvRKNS1_22RestartOperationResultEEENS1_10TaskConfigEENUlvE_D2Ev, .-_ZZN8asiodnp318MasterSessionStack7RestartEN8opendnp311RestartTypeERKSt8functionIFvRKNS1_22RestartOperationResultEEENS1_10TaskConfigEENUlvE_D2Ev
	.set	_ZZN8asiodnp318MasterSessionStack7RestartEN8opendnp311RestartTypeERKSt8functionIFvRKNS1_22RestartOperationResultEEENS1_10TaskConfigEENUlvE_D1Ev,_ZZN8asiodnp318MasterSessionStack7RestartEN8opendnp311RestartTypeERKSt8functionIFvRKNS1_22RestartOperationResultEEENS1_10TaskConfigEENUlvE_D2Ev
	.align 2
	.type	_ZZN8asiodnp318MasterSessionStack4ScanERKSt6vectorIN8opendnp36HeaderESaIS3_EERKNS2_10TaskConfigEENUlvE_D2Ev, @function
_ZZN8asiodnp318MasterSessionStack4ScanERKSt6vectorIN8opendnp36HeaderESaIS3_EERKNS2_10TaskConfigEENUlvE_D2Ev:
.LFB7899:
	.cfi_startproc
	.cfi_personality 0x9b,DW.ref.__gxx_personality_v0
	.cfi_lsda 0x1b,.LLSDA7899
	pushq	%rbx
	.cfi_def_cfa_offset 16
	.cfi_offset 3, -16
	movq	32(%rdi), %rax
	movq	%rdi, %rbx
	testq	%rax, %rax
	je	.L257
	leaq	16(%rdi), %rdi
	movl	$3, %edx
	movq	%rdi, %rsi
	call	*%rax
.L257:
	movq	8(%rbx), %rbx
	testq	%rbx, %rbx
	je	.L256
	cmpq	$0, _ZL28__gthrw___pthread_key_createPjPFvPvE@GOTPCREL(%rip)
	je	.L260
	lock decl	8(%rbx)
	jne	.L256
	movq	(%rbx), %rax
	movq	%rbx, %rdi
	call	*16(%rax)
	orl	$-1, %eax
	lock xaddl	%eax, 12(%rbx)
	jmp	.L264
.L260:
	movl	8(%rbx), %eax
	leal	-1(%rax), %edx
	decl	%eax
	movl	%edx, 8(%rbx)
	jne	.L256
	movq	(%rbx), %rax
	movq	%rbx, %rdi
	call	*16(%rax)
	movl	12(%rbx), %eax
	leal	-1(%rax), %edx
	movl	%edx, 12(%rbx)
.L264:
	decl	%eax
	jne	.L256
	movq	(%rbx), %rax
	movq	%rbx, %rdi
	popq	%rbx
	.cfi_remember_state
	.cfi_def_cfa_offset 8
	movq	24(%rax), %rax
	jmp	*%rax
.L256:
	.cfi_restore_state
	popq	%rbx
	.cfi_def_cfa_offset 8
	ret
	.cfi_endproc
.LFE7899:
	.section	.gcc_except_table
.LLSDA7899:
	.byte	0xff
	.byte	0xff
	.byte	0x1
	.uleb128 .LLSDACSE7899-.LLSDACSB7899
.LLSDACSB7899:
.LLSDACSE7899:
	.section	.text.unlikely
	.size	_ZZN8asiodnp318MasterSessionStack4ScanERKSt6vectorIN8opendnp36HeaderESaIS3_EERKNS2_10TaskConfigEENUlvE_D2Ev, .-_ZZN8asiodnp318MasterSessionStack4ScanERKSt6vectorIN8opendnp36HeaderESaIS3_EERKNS2_10TaskConfigEENUlvE_D2Ev
	.set	_ZZN8asiodnp318MasterSessionStack4ScanERKSt6vectorIN8opendnp36HeaderESaIS3_EERKNS2_10TaskConfigEENUlvE_D1Ev,_ZZN8asiodnp318MasterSessionStack4ScanERKSt6vectorIN8opendnp36HeaderESaIS3_EERKNS2_10TaskConfigEENUlvE_D2Ev
	.align 2
	.type	_ZZN8asiodnp318MasterSessionStack7AddScanEN7openpal12TimeDurationERKSt6vectorIN8opendnp36HeaderESaIS5_EERKNS4_10TaskConfigEENUlvE_D2Ev, @function
_ZZN8asiodnp318MasterSessionStack7AddScanEN7openpal12TimeDurationERKSt6vectorIN8opendnp36HeaderESaIS5_EERKNS4_10TaskConfigEENUlvE_D2Ev:
.LFB7840:
	.cfi_startproc
	.cfi_personality 0x9b,DW.ref.__gxx_personality_v0
	.cfi_lsda 0x1b,.LLSDA7840
	pushq	%rbx
	.cfi_def_cfa_offset 16
	.cfi_offset 3, -16
	movq	40(%rdi), %rax
	movq	%rdi, %rbx
	testq	%rax, %rax
	je	.L270
	leaq	24(%rdi), %rdi
	movl	$3, %edx
	movq	%rdi, %rsi
	call	*%rax
.L270:
	movq	8(%rbx), %rbx
	testq	%rbx, %rbx
	je	.L269
	cmpq	$0, _ZL28__gthrw___pthread_key_createPjPFvPvE@GOTPCREL(%rip)
	je	.L273
	lock decl	8(%rbx)
	jne	.L269
	movq	(%rbx), %rax
	movq	%rbx, %rdi
	call	*16(%rax)
	orl	$-1, %eax
	lock xaddl	%eax, 12(%rbx)
	jmp	.L277
.L273:
	movl	8(%rbx), %eax
	leal	-1(%rax), %edx
	decl	%eax
	movl	%edx, 8(%rbx)
	jne	.L269
	movq	(%rbx), %rax
	movq	%rbx, %rdi
	call	*16(%rax)
	movl	12(%rbx), %eax
	leal	-1(%rax), %edx
	movl	%edx, 12(%rbx)
.L277:
	decl	%eax
	jne	.L269
	movq	(%rbx), %rax
	movq	%rbx, %rdi
	popq	%rbx
	.cfi_remember_state
	.cfi_def_cfa_offset 8
	movq	24(%rax), %rax
	jmp	*%rax
.L269:
	.cfi_restore_state
	popq	%rbx
	.cfi_def_cfa_offset 8
	ret
	.cfi_endproc
.LFE7840:
	.section	.gcc_except_table
.LLSDA7840:
	.byte	0xff
	.byte	0xff
	.byte	0x1
	.uleb128 .LLSDACSE7840-.LLSDACSB7840
.LLSDACSB7840:
.LLSDACSE7840:
	.section	.text.unlikely
	.size	_ZZN8asiodnp318MasterSessionStack7AddScanEN7openpal12TimeDurationERKSt6vectorIN8opendnp36HeaderESaIS5_EERKNS4_10TaskConfigEENUlvE_D2Ev, .-_ZZN8asiodnp318MasterSessionStack7AddScanEN7openpal12TimeDurationERKSt6vectorIN8opendnp36HeaderESaIS5_EERKNS4_10TaskConfigEENUlvE_D2Ev
	.set	_ZZN8asiodnp318MasterSessionStack7AddScanEN7openpal12TimeDurationERKSt6vectorIN8opendnp36HeaderESaIS5_EERKNS4_10TaskConfigEENUlvE_D1Ev,_ZZN8asiodnp318MasterSessionStack7AddScanEN7openpal12TimeDurationERKSt6vectorIN8opendnp36HeaderESaIS5_EERKNS4_10TaskConfigEENUlvE_D2Ev
	.section	.rodata._ZNK4asio5error6detail13misc_category7messageB5cxx11Ei.str1.1,"aMS",@progbits,1
.LC5:
	.string	"Already open"
.LC6:
	.string	"End of file"
.LC7:
	.string	"Element not found"
	.section	.rodata._ZNK4asio5error6detail13misc_category7messageB5cxx11Ei.str1.8,"aMS",@progbits,1
	.align 8
.LC8:
	.string	"The descriptor does not fit into the select call's fd_set"
	.section	.text._ZNK4asio5error6detail13misc_category7messageB5cxx11Ei,"axG",@progbits,_ZNK4asio5error6detail13misc_category7messageB5cxx11Ei,comdat
	.align 2
	.p2align 4,,15
	.weak	_ZNK4asio5error6detail13misc_category7messageB5cxx11Ei
	.type	_ZNK4asio5error6detail13misc_category7messageB5cxx11Ei, @function
_ZNK4asio5error6detail13misc_category7messageB5cxx11Ei:
.LFB3406:
	.cfi_startproc
	leaq	16(%rdi), %rax
	cmpl	$1, %edx
	pushq	%rbx
	.cfi_def_cfa_offset 16
	.cfi_offset 3, -16
	movq	%rdi, %rbx
	movq	%rax, (%rdi)
	je	.L289
	cmpl	$2, %edx
	je	.L290
	cmpl	$3, %edx
	je	.L291
	cmpl	$4, %edx
	je	.L292
	movabsq	$8316298233121436513, %rcx
	movl	$28530, %edx
	movq	%rcx, 16(%rdi)
	movl	$1919230051, 8(%rax)
	movw	%dx, 12(%rax)
	movb	$114, 14(%rax)
	movq	%rbx, %rax
	movq	$15, 8(%rdi)
	movb	$0, 31(%rdi)
	popq	%rbx
	.cfi_remember_state
	.cfi_def_cfa_offset 8
	ret
	.p2align 4,,10
	.p2align 3
.L292:
	.cfi_restore_state
	leaq	57+.LC8(%rip), %rdx
	leaq	-57(%rdx), %rsi
	call	_ZNSt7__cxx1112basic_stringIcSt11char_traitsIcESaIcEE12_M_constructIPKcEEvT_S8_St20forward_iterator_tag.isra.157
	movq	%rbx, %rax
	popq	%rbx
	.cfi_remember_state
	.cfi_def_cfa_offset 8
	ret
	.p2align 4,,10
	.p2align 3
.L289:
	.cfi_restore_state
	leaq	12+.LC5(%rip), %rdx
	leaq	-12(%rdx), %rsi
	call	_ZNSt7__cxx1112basic_stringIcSt11char_traitsIcESaIcEE12_M_constructIPKcEEvT_S8_St20forward_iterator_tag.isra.157
	movq	%rbx, %rax
	popq	%rbx
	.cfi_remember_state
	.cfi_def_cfa_offset 8
	ret
	.p2align 4,,10
	.p2align 3
.L290:
	.cfi_restore_state
	leaq	11+.LC6(%rip), %rdx
	leaq	-11(%rdx), %rsi
	call	_ZNSt7__cxx1112basic_stringIcSt11char_traitsIcESaIcEE12_M_constructIPKcEEvT_S8_St20forward_iterator_tag.isra.157
	movq	%rbx, %rax
	popq	%rbx
	.cfi_remember_state
	.cfi_def_cfa_offset 8
	ret
	.p2align 4,,10
	.p2align 3
.L291:
	.cfi_restore_state
	leaq	17+.LC7(%rip), %rdx
	leaq	-17(%rdx), %rsi
	call	_ZNSt7__cxx1112basic_stringIcSt11char_traitsIcESaIcEE12_M_constructIPKcEEvT_S8_St20forward_iterator_tag.isra.157
	movq	%rbx, %rax
	popq	%rbx
	.cfi_def_cfa_offset 8
	ret
	.cfi_endproc
.LFE3406:
	.size	_ZNK4asio5error6detail13misc_category7messageB5cxx11Ei, .-_ZNK4asio5error6detail13misc_category7messageB5cxx11Ei
	.section	.rodata._ZNK4asio5error6detail14netdb_category7messageB5cxx11Ei.str1.8,"aMS",@progbits,1
	.align 8
.LC9:
	.string	"Host not found (authoritative)"
	.align 8
.LC10:
	.string	"Host not found (non-authoritative), try again later"
	.align 8
.LC11:
	.string	"The query is valid, but it does not have associated data"
	.align 8
.LC12:
	.string	"A non-recoverable error occurred during database lookup"
	.section	.text._ZNK4asio5error6detail14netdb_category7messageB5cxx11Ei,"axG",@progbits,_ZNK4asio5error6detail14netdb_category7messageB5cxx11Ei,comdat
	.align 2
	.p2align 4,,15
	.weak	_ZNK4asio5error6detail14netdb_category7messageB5cxx11Ei
	.type	_ZNK4asio5error6detail14netdb_category7messageB5cxx11Ei, @function
_ZNK4asio5error6detail14netdb_category7messageB5cxx11Ei:
.LFB3394:
	.cfi_startproc
	pushq	%rbx
	.cfi_def_cfa_offset 16
	.cfi_offset 3, -16
	movq	%rdi, %rbx
	subq	$16, %rsp
	.cfi_def_cfa_offset 32
	movq	%fs:40, %rax
	movq	%rax, 8(%rsp)
	xorl	%eax, %eax
	leaq	16(%rdi), %rax
	cmpl	$1, %edx
	movq	%rax, (%rdi)
	je	.L301
	cmpl	$2, %edx
	je	.L302
	cmpl	$4, %edx
	je	.L303
	cmpl	$3, %edx
	je	.L304
	xorl	%edx, %edx
	movq	%rsp, %rsi
	movq	$16, (%rsp)
	call	_ZNSt7__cxx1112basic_stringIcSt11char_traitsIcESaIcEE9_M_createERmm@PLT
	movq	(%rsp), %rdx
	movq	%rax, (%rbx)
	movdqa	.LC13(%rip), %xmm0
	movq	%rdx, 16(%rbx)
	movups	%xmm0, (%rax)
	movq	(%rsp), %rax
	movq	(%rbx), %rdx
	movq	%rax, 8(%rbx)
	movb	$0, (%rdx,%rax)
.L293:
	movq	8(%rsp), %rcx
	xorq	%fs:40, %rcx
	movq	%rbx, %rax
	jne	.L305
	addq	$16, %rsp
	.cfi_remember_state
	.cfi_def_cfa_offset 16
	popq	%rbx
	.cfi_def_cfa_offset 8
	ret
	.p2align 4,,10
	.p2align 3
.L304:
	.cfi_restore_state
	leaq	55+.LC12(%rip), %rdx
	leaq	-55(%rdx), %rsi
	call	_ZNSt7__cxx1112basic_stringIcSt11char_traitsIcESaIcEE12_M_constructIPKcEEvT_S8_St20forward_iterator_tag.isra.157
	jmp	.L293
	.p2align 4,,10
	.p2align 3
.L301:
	leaq	30+.LC9(%rip), %rdx
	leaq	-30(%rdx), %rsi
	call	_ZNSt7__cxx1112basic_stringIcSt11char_traitsIcESaIcEE12_M_constructIPKcEEvT_S8_St20forward_iterator_tag.isra.157
	jmp	.L293
	.p2align 4,,10
	.p2align 3
.L302:
	leaq	51+.LC10(%rip), %rdx
	leaq	-51(%rdx), %rsi
	call	_ZNSt7__cxx1112basic_stringIcSt11char_traitsIcESaIcEE12_M_constructIPKcEEvT_S8_St20forward_iterator_tag.isra.157
	jmp	.L293
	.p2align 4,,10
	.p2align 3
.L303:
	leaq	56+.LC11(%rip), %rdx
	leaq	-56(%rdx), %rsi
	call	_ZNSt7__cxx1112basic_stringIcSt11char_traitsIcESaIcEE12_M_constructIPKcEEvT_S8_St20forward_iterator_tag.isra.157
	jmp	.L293
.L305:
	call	__stack_chk_fail@PLT
	.cfi_endproc
.LFE3394:
	.size	_ZNK4asio5error6detail14netdb_category7messageB5cxx11Ei, .-_ZNK4asio5error6detail14netdb_category7messageB5cxx11Ei
	.section	.text._ZNK4asio6detail15system_category7messageB5cxx11Ei,"axG",@progbits,_ZNK4asio6detail15system_category7messageB5cxx11Ei,comdat
	.align 2
	.p2align 4,,15
	.weak	_ZNK4asio6detail15system_category7messageB5cxx11Ei
	.type	_ZNK4asio6detail15system_category7messageB5cxx11Ei, @function
_ZNK4asio6detail15system_category7messageB5cxx11Ei:
.LFB3354:
	.cfi_startproc
	pushq	%r13
	.cfi_def_cfa_offset 16
	.cfi_offset 13, -16
	pushq	%r12
	.cfi_def_cfa_offset 24
	.cfi_offset 12, -24
	pushq	%rbp
	.cfi_def_cfa_offset 32
	.cfi_offset 6, -32
	pushq	%rbx
	.cfi_def_cfa_offset 40
	.cfi_offset 3, -40
	leaq	16(%rdi), %rbp
	movq	%rdi, %rbx
	subq	$296, %rsp
	.cfi_def_cfa_offset 336
	movq	%fs:40, %rax
	movq	%rax, 280(%rsp)
	xorl	%eax, %eax
	cmpl	$125, %edx
	je	.L321
	pxor	%xmm0, %xmm0
	leaq	32(%rsp), %rdi
	movl	%edx, %r8d
	xorl	%eax, %eax
	movl	$30, %ecx
	leaq	16(%rsp), %rsi
	rep stosq
	movl	$256, %edx
	movl	%r8d, %edi
	movaps	%xmm0, 16(%rsp)
	call	strerror_r@PLT
	testq	%rax, %rax
	movq	%rax, %r12
	movq	%rbp, (%rbx)
	je	.L309
	movq	%rax, %rdi
	call	strlen@PLT
	cmpq	$15, %rax
	movq	%rax, %r13
	movq	%rax, 8(%rsp)
	ja	.L322
	cmpq	$1, %rax
	jne	.L313
	movzbl	(%r12), %edx
	movb	%dl, 16(%rbx)
.L314:
	movq	%rax, 8(%rbx)
	movb	$0, 0(%rbp,%rax)
.L306:
	movq	280(%rsp), %rcx
	xorq	%fs:40, %rcx
	movq	%rbx, %rax
	jne	.L323
	addq	$296, %rsp
	.cfi_remember_state
	.cfi_def_cfa_offset 40
	popq	%rbx
	.cfi_def_cfa_offset 32
	popq	%rbp
	.cfi_def_cfa_offset 24
	popq	%r12
	.cfi_def_cfa_offset 16
	popq	%r13
	.cfi_def_cfa_offset 8
	ret
	.p2align 4,,10
	.p2align 3
.L322:
	.cfi_restore_state
	leaq	8(%rsp), %rsi
	xorl	%edx, %edx
	movq	%rbx, %rdi
	call	_ZNSt7__cxx1112basic_stringIcSt11char_traitsIcESaIcEE9_M_createERmm@PLT
	movq	%rax, %rbp
	movq	%rax, (%rbx)
	movq	8(%rsp), %rax
	movq	%rax, 16(%rbx)
.L312:
	movq	%rbp, %rdi
	movq	%r13, %rdx
	movq	%r12, %rsi
	call	memcpy@PLT
	movq	8(%rsp), %rax
	movq	(%rbx), %rbp
	jmp	.L314
	.p2align 4,,10
	.p2align 3
.L321:
	leaq	8(%rsp), %rsi
	xorl	%edx, %edx
	movq	%rbp, (%rdi)
	movq	$18, 8(%rsp)
	call	_ZNSt7__cxx1112basic_stringIcSt11char_traitsIcESaIcEE9_M_createERmm@PLT
	movq	8(%rsp), %rdx
	movq	%rax, (%rbx)
	movdqa	.LC14(%rip), %xmm0
	movq	%rdx, 16(%rbx)
	movl	$11876, %edx
	movups	%xmm0, (%rax)
	movw	%dx, 16(%rax)
	movq	8(%rsp), %rax
	movq	(%rbx), %rdx
	movq	%rax, 8(%rbx)
	movb	$0, (%rdx,%rax)
	jmp	.L306
	.p2align 4,,10
	.p2align 3
.L313:
	testq	%rax, %rax
	je	.L314
	jmp	.L312
.L323:
	call	__stack_chk_fail@PLT
.L309:
	leaq	.LC4(%rip), %rdi
	call	_ZSt19__throw_logic_errorPKc@PLT
	.cfi_endproc
.LFE3354:
	.size	_ZNK4asio6detail15system_category7messageB5cxx11Ei, .-_ZNK4asio6detail15system_category7messageB5cxx11Ei
	.section	.text._ZNK4asio5error6detail17addrinfo_category7messageB5cxx11Ei,"axG",@progbits,_ZNK4asio5error6detail17addrinfo_category7messageB5cxx11Ei,comdat
	.align 2
	.p2align 4,,15
	.weak	_ZNK4asio5error6detail17addrinfo_category7messageB5cxx11Ei
	.type	_ZNK4asio5error6detail17addrinfo_category7messageB5cxx11Ei, @function
_ZNK4asio5error6detail17addrinfo_category7messageB5cxx11Ei:
.LFB3400:
	.cfi_startproc
	pushq	%rbx
	.cfi_def_cfa_offset 16
	.cfi_offset 3, -16
	movq	%rdi, %rbx
	subq	$16, %rsp
	.cfi_def_cfa_offset 32
	movq	%fs:40, %rax
	movq	%rax, 8(%rsp)
	xorl	%eax, %eax
	leaq	16(%rdi), %rax
	cmpl	$-8, %edx
	movq	%rax, (%rdi)
	je	.L330
	cmpl	$-7, %edx
	je	.L331
	xorl	%edx, %edx
	movq	%rsp, %rsi
	movq	$19, (%rsp)
	call	_ZNSt7__cxx1112basic_stringIcSt11char_traitsIcESaIcEE9_M_createERmm@PLT
	movq	(%rsp), %rdx
	movq	%rax, (%rbx)
	movdqa	.LC17(%rip), %xmm0
	movq	%rdx, 16(%rbx)
	movl	$28530, %edx
	movb	$114, 18(%rax)
	movups	%xmm0, (%rax)
	movw	%dx, 16(%rax)
	movq	(%rsp), %rax
	movq	(%rbx), %rdx
	movq	%rax, 8(%rbx)
	movb	$0, (%rdx,%rax)
.L324:
	movq	8(%rsp), %rcx
	xorq	%fs:40, %rcx
	movq	%rbx, %rax
	jne	.L332
	addq	$16, %rsp
	.cfi_remember_state
	.cfi_def_cfa_offset 16
	popq	%rbx
	.cfi_def_cfa_offset 8
	ret
	.p2align 4,,10
	.p2align 3
.L331:
	.cfi_restore_state
	xorl	%edx, %edx
	movq	%rsp, %rsi
	movq	$25, (%rsp)
	call	_ZNSt7__cxx1112basic_stringIcSt11char_traitsIcESaIcEE9_M_createERmm@PLT
	movq	(%rsp), %rdx
	movabsq	$7310593918082512243, %rcx
	movq	%rax, (%rbx)
	movdqa	.LC16(%rip), %xmm0
	movq	%rdx, 16(%rbx)
	movq	%rcx, 16(%rax)
	movups	%xmm0, (%rax)
	movb	$100, 24(%rax)
	movq	(%rsp), %rax
	movq	(%rbx), %rdx
	movq	%rax, 8(%rbx)
	movb	$0, (%rdx,%rax)
	jmp	.L324
	.p2align 4,,10
	.p2align 3
.L330:
	xorl	%edx, %edx
	movq	%rsp, %rsi
	movq	$17, (%rsp)
	call	_ZNSt7__cxx1112basic_stringIcSt11char_traitsIcESaIcEE9_M_createERmm@PLT
	movq	(%rsp), %rdx
	movq	%rax, (%rbx)
	movdqa	.LC15(%rip), %xmm0
	movq	%rdx, 16(%rbx)
	movb	$100, 16(%rax)
	movups	%xmm0, (%rax)
	movq	(%rsp), %rax
	movq	(%rbx), %rdx
	movq	%rax, 8(%rbx)
	movb	$0, (%rdx,%rax)
	jmp	.L324
.L332:
	call	__stack_chk_fail@PLT
	.cfi_endproc
.LFE3400:
	.size	_ZNK4asio5error6detail17addrinfo_category7messageB5cxx11Ei, .-_ZNK4asio5error6detail17addrinfo_category7messageB5cxx11Ei
	.section	.text._ZSt20__throw_bad_weak_ptrv,"axG",@progbits,_ZSt20__throw_bad_weak_ptrv,comdat
	.p2align 4,,15
	.weak	_ZSt20__throw_bad_weak_ptrv
	.type	_ZSt20__throw_bad_weak_ptrv, @function
_ZSt20__throw_bad_weak_ptrv:
.LFB1664:
	.cfi_startproc
	movl	$8, %edi
	subq	$8, %rsp
	.cfi_def_cfa_offset 16
	call	__cxa_allocate_exception@PLT
	movq	_ZTVSt12bad_weak_ptr@GOTPCREL(%rip), %rdx
	movq	_ZTISt12bad_weak_ptr@GOTPCREL(%rip), %rsi
	movq	%rax, %rdi
	addq	$16, %rdx
	movq	%rdx, (%rax)
	movq	_ZNSt12bad_weak_ptrD1Ev@GOTPCREL(%rip), %rdx
	call	__cxa_throw@PLT
	.cfi_endproc
.LFE1664:
	.size	_ZSt20__throw_bad_weak_ptrv, .-_ZSt20__throw_bad_weak_ptrv
	.section	.text._ZN4asio28asio_handler_is_continuationEz,"axG",@progbits,_ZN4asio28asio_handler_is_continuationEz,comdat
	.p2align 4,,15
	.weak	_ZN4asio28asio_handler_is_continuationEz
	.type	_ZN4asio28asio_handler_is_continuationEz, @function
_ZN4asio28asio_handler_is_continuationEz:
.LFB3180:
	.cfi_startproc
	xorl	%eax, %eax
	ret
	.cfi_endproc
.LFE3180:
	.size	_ZN4asio28asio_handler_is_continuationEz, .-_ZN4asio28asio_handler_is_continuationEz
	.section	.text._ZN4asio6detail14strand_service7do_postERPNS1_11strand_implEPNS0_25task_io_service_operationEb,"axG",@progbits,_ZN4asio6detail14strand_service7do_postERPNS1_11strand_implEPNS0_25task_io_service_operationEb,comdat
	.align 2
	.p2align 4,,15
	.weak	_ZN4asio6detail14strand_service7do_postERPNS1_11strand_implEPNS0_25task_io_service_operationEb
	.type	_ZN4asio6detail14strand_service7do_postERPNS1_11strand_implEPNS0_25task_io_service_operationEb, @function
_ZN4asio6detail14strand_service7do_postERPNS1_11strand_implEPNS0_25task_io_service_operationEb:
.LFB7068:
	.cfi_startproc
	pushq	%r13
	.cfi_def_cfa_offset 16
	.cfi_offset 13, -16
	pushq	%r12
	.cfi_def_cfa_offset 24
	.cfi_offset 12, -24
	movq	%rdi, %r13
	pushq	%rbp
	.cfi_def_cfa_offset 32
	.cfi_offset 6, -32
	pushq	%rbx
	.cfi_def_cfa_offset 40
	.cfi_offset 3, -40
	movq	%rsi, %rbp
	movq	%rdx, %rbx
	movl	%ecx, %r12d
	subq	$40, %rsp
	.cfi_def_cfa_offset 80
	movq	%fs:40, %rax
	movq	%rax, 24(%rsp)
	xorl	%eax, %eax
	movq	(%rsi), %rax
	leaq	24(%rax), %rdi
	call	pthread_mutex_lock@PLT
	movq	0(%rbp), %rdi
	cmpb	$0, 64(%rdi)
	je	.L337
	cmpq	$0, 80(%rdi)
	movq	$0, (%rbx)
	je	.L338
	movq	80(%rdi), %rax
	movq	%rbx, (%rax)
	movq	%rbx, 80(%rdi)
.L339:
	addq	$24, %rdi
	call	pthread_mutex_unlock@PLT
.L336:
	movq	24(%rsp), %rax
	xorq	%fs:40, %rax
	jne	.L370
	addq	$40, %rsp
	.cfi_remember_state
	.cfi_def_cfa_offset 40
	popq	%rbx
	.cfi_def_cfa_offset 32
	popq	%rbp
	.cfi_def_cfa_offset 24
	popq	%r12
	.cfi_def_cfa_offset 16
	popq	%r13
	.cfi_def_cfa_offset 8
	ret
	.p2align 4,,10
	.p2align 3
.L338:
	.cfi_restore_state
	movq	%rbx, 80(%rdi)
	movq	%rbx, 72(%rdi)
	jmp	.L339
	.p2align 4,,10
	.p2align 3
.L337:
	movb	$1, 64(%rdi)
	movq	0(%rbp), %rax
	leaq	24(%rax), %rdi
	call	pthread_mutex_unlock@PLT
	movq	0(%rbp), %rbp
	movq	$0, (%rbx)
	cmpq	$0, 96(%rbp)
	je	.L341
	movq	96(%rbp), %rax
	movq	%rbx, (%rax)
	movq	%rbx, 96(%rbp)
.L342:
	movq	40(%r13), %rbx
	cmpb	$0, 40(%rbx)
	jne	.L356
	testb	%r12b, %r12b
	je	.L343
.L356:
	.byte	0x66
	leaq	_ZN4asio6detail15keyword_tss_ptrINS0_10call_stackINS0_15task_io_serviceENS0_27task_io_service_thread_infoEE7contextEE6value_E@tlsgd(%rip), %rdi
	.value	0x6666
	rex64
	call	__tls_get_addr@PLT
	movq	(%rax), %rax
	testq	%rax, %rax
	jne	.L367
	jmp	.L343
	.p2align 4,,10
	.p2align 3
.L346:
	movq	16(%rax), %rax
	testq	%rax, %rax
	je	.L343
.L367:
	cmpq	(%rax), %rbx
	jne	.L346
	movq	8(%rax), %rax
	testq	%rax, %rax
	je	.L343
	addq	$1, 24(%rax)
	cmpq	$0, 16(%rax)
	movq	$0, 0(%rbp)
	je	.L349
	movq	16(%rax), %rdx
	movq	%rbp, (%rdx)
	movq	%rbp, 16(%rax)
	jmp	.L336
	.p2align 4,,10
	.p2align 3
.L343:
	lock addq	$1, 184(%rbx)
	leaq	48(%rbx), %r12
	movq	%r12, %rdi
	call	pthread_mutex_lock@PLT
	cmpq	$0, 200(%rbx)
	movq	$0, 0(%rbp)
	je	.L350
	movq	200(%rbx), %rax
	movq	%rbp, (%rax)
	movq	%rbp, 200(%rbx)
.L351:
	movq	136(%rbx), %rax
	orq	$1, %rax
	cmpq	$1, %rax
	movq	%rax, 136(%rbx)
	jne	.L371
	cmpb	$0, 176(%rbx)
	jne	.L354
	movq	144(%rbx), %rax
	testq	%rax, %rax
	je	.L354
	leaq	88(%rax), %rdx
	movb	$1, 176(%rbx)
	movl	96(%rax), %edi
	leaq	12(%rsp), %rcx
	movl	$3, %esi
	movl	$-2147483639, 12(%rsp)
	movq	%rdx, 16(%rsp)
	movl	88(%rax), %edx
	call	epoll_ctl@PLT
.L354:
	movq	%r12, %rdi
	call	pthread_mutex_unlock@PLT
	jmp	.L336
	.p2align 4,,10
	.p2align 3
.L341:
	movq	%rbx, 96(%rbp)
	movq	%rbx, 88(%rbp)
	jmp	.L342
	.p2align 4,,10
	.p2align 3
.L371:
	movq	%r12, %rdi
	call	pthread_mutex_unlock@PLT
	leaq	88(%rbx), %rdi
	call	pthread_cond_signal@PLT
	jmp	.L336
	.p2align 4,,10
	.p2align 3
.L349:
	movq	%rbp, 16(%rax)
	movq	%rbp, 8(%rax)
	jmp	.L336
	.p2align 4,,10
	.p2align 3
.L350:
	movq	%rbp, 200(%rbx)
	movq	%rbp, 192(%rbx)
	jmp	.L351
.L370:
	call	__stack_chk_fail@PLT
	.cfi_endproc
.LFE7068:
	.size	_ZN4asio6detail14strand_service7do_postERPNS1_11strand_implEPNS0_25task_io_service_operationEb, .-_ZN4asio6detail14strand_service7do_postERPNS1_11strand_implEPNS0_25task_io_service_operationEb
	.text
	.align 2
	.p2align 4,,15
	.globl	_ZN8asiodnp318MasterSessionStack13SetLogFiltersERKN7openpal10LogFiltersE
	.type	_ZN8asiodnp318MasterSessionStack13SetLogFiltersERKN7openpal10LogFiltersE, @function
_ZN8asiodnp318MasterSessionStack13SetLogFiltersERKN7openpal10LogFiltersE:
.LFB7784:
	.cfi_startproc
	pushq	%r12
	.cfi_def_cfa_offset 16
	.cfi_offset 12, -16
	pushq	%rbp
	.cfi_def_cfa_offset 24
	.cfi_offset 6, -24
	pushq	%rbx
	.cfi_def_cfa_offset 32
	.cfi_offset 3, -32
	subq	$32, %rsp
	.cfi_def_cfa_offset 64
	movq	%fs:40, %rax
	movq	%rax, 24(%rsp)
	xorl	%eax, %eax
	movl	(%rsi), %eax
	movq	32(%rdi), %rsi
	movq	%rdi, (%rsp)
	movq	%rsp, %rdi
	movl	%eax, 8(%rsp)
	xorl	%eax, %eax
	movq	40(%rsi), %r12
	leaq	48(%rsi), %rbp
	call	_ZN4asio28asio_handler_is_continuationEz@PLT
	movl	%eax, %ebx
	.byte	0x66
	leaq	_ZN4asio6detail15keyword_tss_ptrINS0_10call_stackINS0_15task_io_serviceENS0_27task_io_service_thread_infoEE7contextEE6value_E@tlsgd(%rip), %rdi
	.value	0x6666
	rex64
	call	__tls_get_addr@PLT
	movq	(%rax), %rax
	testq	%rax, %rax
	je	.L373
	movq	8(%rax), %rax
	testq	%rax, %rax
	je	.L373
	movq	(%rax), %rdx
	testq	%rdx, %rdx
	je	.L373
	movq	$0, (%rax)
	movzbl	(%rdx), %eax
	cmpb	$39, %al
	jbe	.L374
	movb	%al, 40(%rdx)
	jmp	.L375
	.p2align 4,,10
	.p2align 3
.L374:
	movq	%rdx, %rdi
	call	_ZdlPv@PLT
.L373:
	movl	$41, %edi
	call	_Znwm@PLT
	movq	%rax, %rdx
	movb	$40, 40(%rax)
.L375:
	movdqa	(%rsp), %xmm0
	leaq	_ZN4asio6detail18completion_handlerIZN8asiodnp318MasterSessionStack13SetLogFiltersERKN7openpal10LogFiltersEEUlvE_E11do_completeEPNS0_15task_io_serviceEPNS0_25task_io_service_operationERKSt10error_codem(%rip), %rax
	movzbl	%bl, %ecx
	movq	$0, (%rdx)
	movl	$0, 16(%rdx)
	movq	%rbp, %rsi
	movups	%xmm0, 24(%rdx)
	movq	%rax, 8(%rdx)
	movq	%r12, %rdi
	call	_ZN4asio6detail14strand_service7do_postERPNS1_11strand_implEPNS0_25task_io_service_operationEb@PLT
	movq	24(%rsp), %rax
	xorq	%fs:40, %rax
	jne	.L387
	addq	$32, %rsp
	.cfi_remember_state
	.cfi_def_cfa_offset 32
	popq	%rbx
	.cfi_def_cfa_offset 24
	popq	%rbp
	.cfi_def_cfa_offset 16
	popq	%r12
	.cfi_def_cfa_offset 8
	ret
.L387:
	.cfi_restore_state
	call	__stack_chk_fail@PLT
	.cfi_endproc
.LFE7784:
	.size	_ZN8asiodnp318MasterSessionStack13SetLogFiltersERKN7openpal10LogFiltersE, .-_ZN8asiodnp318MasterSessionStack13SetLogFiltersERKN7openpal10LogFiltersE
	.section	.text._ZN8opendnp314TransportStackD2Ev,"axG",@progbits,_ZN8opendnp314TransportStackD5Ev,comdat
	.align 2
	.p2align 4,,15
	.weak	_ZN8opendnp314TransportStackD2Ev
	.type	_ZN8opendnp314TransportStackD2Ev, @function
_ZN8opendnp314TransportStackD2Ev:
.LFB7755:
	.cfi_startproc
	pushq	%rbp
	.cfi_def_cfa_offset 16
	.cfi_offset 6, -16
	pushq	%rbx
	.cfi_def_cfa_offset 24
	.cfi_offset 3, -24
	movq	%rdi, %rbp
	subq	$8, %rsp
	.cfi_def_cfa_offset 32
	movq	24(%rdi), %rbx
	testq	%rbx, %rbx
	je	.L390
	cmpq	$0, _ZL28__gthrw___pthread_key_createPjPFvPvE@GOTPCREL(%rip)
	je	.L391
	lock subl	$1, 8(%rbx)
	je	.L404
.L390:
	movq	8(%rbp), %rbx
	testq	%rbx, %rbx
	je	.L388
	cmpq	$0, _ZL28__gthrw___pthread_key_createPjPFvPvE@GOTPCREL(%rip)
	je	.L397
	lock subl	$1, 8(%rbx)
	je	.L405
.L388:
	addq	$8, %rsp
	.cfi_remember_state
	.cfi_def_cfa_offset 24
	popq	%rbx
	.cfi_def_cfa_offset 16
	popq	%rbp
	.cfi_def_cfa_offset 8
	ret
	.p2align 4,,10
	.p2align 3
.L397:
	.cfi_restore_state
	movl	8(%rbx), %eax
	leal	-1(%rax), %edx
	cmpl	$1, %eax
	movl	%edx, 8(%rbx)
	jne	.L388
	movq	(%rbx), %rax
	movq	%rbx, %rdi
	call	*16(%rax)
	movl	12(%rbx), %eax
	leal	-1(%rax), %edx
	movl	%edx, 12(%rbx)
	jmp	.L402
	.p2align 4,,10
	.p2align 3
.L391:
	movl	8(%rbx), %eax
	leal	-1(%rax), %edx
	cmpl	$1, %eax
	movl	%edx, 8(%rbx)
	jne	.L390
	movq	(%rbx), %rax
	movq	%rbx, %rdi
	call	*16(%rax)
	movl	12(%rbx), %eax
	leal	-1(%rax), %edx
	movl	%edx, 12(%rbx)
	jmp	.L401
	.p2align 4,,10
	.p2align 3
.L405:
	movq	(%rbx), %rax
	movq	%rbx, %rdi
	call	*16(%rax)
	movl	$-1, %eax
	lock xaddl	%eax, 12(%rbx)
.L402:
	cmpl	$1, %eax
	jne	.L388
	movq	(%rbx), %rax
	movq	%rbx, %rdi
	movq	24(%rax), %rax
	addq	$8, %rsp
	.cfi_remember_state
	.cfi_def_cfa_offset 24
	popq	%rbx
	.cfi_def_cfa_offset 16
	popq	%rbp
	.cfi_def_cfa_offset 8
	jmp	*%rax
	.p2align 4,,10
	.p2align 3
.L404:
	.cfi_restore_state
	movq	(%rbx), %rax
	movq	%rbx, %rdi
	call	*16(%rax)
	movl	$-1, %eax
	lock xaddl	%eax, 12(%rbx)
.L401:
	cmpl	$1, %eax
	jne	.L390
	movq	(%rbx), %rax
	movq	%rbx, %rdi
	call	*24(%rax)
	jmp	.L390
	.cfi_endproc
.LFE7755:
	.size	_ZN8opendnp314TransportStackD2Ev, .-_ZN8opendnp314TransportStackD2Ev
	.weak	_ZN8opendnp314TransportStackD1Ev
	.set	_ZN8opendnp314TransportStackD1Ev,_ZN8opendnp314TransportStackD2Ev
	.text
	.align 2
	.p2align 4,,15
	.globl	_ZNK8asiodnp318MasterSessionStack16CreateStatisticsEv
	.type	_ZNK8asiodnp318MasterSessionStack16CreateStatisticsEv, @function
_ZNK8asiodnp318MasterSessionStack16CreateStatisticsEv:
.LFB7987:
	.cfi_startproc
	pushq	%rbp
	.cfi_def_cfa_offset 16
	.cfi_offset 6, -16
	pushq	%rbx
	.cfi_def_cfa_offset 24
	.cfi_offset 3, -24
	movq	%rsi, %rbp
	movq	%rdi, %rbx
	subq	$40, %rsp
	.cfi_def_cfa_offset 64
	movq	64(%rsi), %rsi
	movq	%rsp, %rdi
	movq	%fs:40, %rax
	movq	%rax, 24(%rsp)
	xorl	%eax, %eax
	call	_ZNK8opendnp314TransportLayer13GetStatisticsEv@PLT
	movq	80(%rbp), %rdi
	call	_ZNK8opendnp39LinkLayer13GetStatisticsEv@PLT
	movdqu	(%rax), %xmm0
	movq	16(%rsp), %rax
	movups	%xmm0, (%rbx)
	movq	24(%rsp), %rdx
	xorq	%fs:40, %rdx
	movdqa	(%rsp), %xmm0
	movq	%rax, 32(%rbx)
	movups	%xmm0, 16(%rbx)
	jne	.L409
	addq	$40, %rsp
	.cfi_remember_state
	.cfi_def_cfa_offset 24
	movq	%rbx, %rax
	popq	%rbx
	.cfi_def_cfa_offset 16
	popq	%rbp
	.cfi_def_cfa_offset 8
	ret
.L409:
	.cfi_restore_state
	call	__stack_chk_fail@PLT
	.cfi_endproc
.LFE7987:
	.size	_ZNK8asiodnp318MasterSessionStack16CreateStatisticsEv, .-_ZNK8asiodnp318MasterSessionStack16CreateStatisticsEv
	.p2align 4,,15
	.type	_ZNSt17_Function_handlerIFN8opendnp315StackStatisticsEvEZN8asiodnp318MasterSessionStack18GetStackStatisticsEvEUlvE_E9_M_invokeERKSt9_Any_data, @function
_ZNSt17_Function_handlerIFN8opendnp315StackStatisticsEvEZN8asiodnp318MasterSessionStack18GetStackStatisticsEvEUlvE_E9_M_invokeERKSt9_Any_data:
.LFB9452:
	.cfi_startproc
	pushq	%rbx
	.cfi_def_cfa_offset 16
	.cfi_offset 3, -16
	movq	%rdi, %rbx
	subq	$16, %rsp
	.cfi_def_cfa_offset 32
	movq	%fs:40, %rax
	movq	%rax, 8(%rsp)
	xorl	%eax, %eax
	movq	(%rsi), %rax
	movq	(%rax), %rsi
	call	_ZNK8asiodnp318MasterSessionStack16CreateStatisticsEv@PLT
	movq	8(%rsp), %rdx
	xorq	%fs:40, %rdx
	jne	.L413
	addq	$16, %rsp
	.cfi_remember_state
	.cfi_def_cfa_offset 16
	movq	%rbx, %rax
	popq	%rbx
	.cfi_def_cfa_offset 8
	ret
.L413:
	.cfi_restore_state
	call	__stack_chk_fail@PLT
	.cfi_endproc
.LFE9452:
	.size	_ZNSt17_Function_handlerIFN8opendnp315StackStatisticsEvEZN8asiodnp318MasterSessionStack18GetStackStatisticsEvEUlvE_E9_M_invokeERKSt9_Any_data, .-_ZNSt17_Function_handlerIFN8opendnp315StackStatisticsEvEZN8asiodnp318MasterSessionStack18GetStackStatisticsEvEUlvE_E9_M_invokeERKSt9_Any_data
	.section	.text._ZZSt9call_onceIMNSt13__future_base13_State_baseV2EFvPSt8functionIFSt10unique_ptrINS0_12_Result_baseENS4_8_DeleterEEvEEPbEJPS1_S9_SA_EEvRSt9once_flagOT_DpOT0_ENKUlvE0_clEv,"axG",@progbits,_ZZSt9call_onceIMNSt13__future_base13_State_baseV2EFvPSt8functionIFSt10unique_ptrINS0_12_Result_baseENS4_8_DeleterEEvEEPbEJPS1_S9_SA_EEvRSt9once_flagOT_DpOT0_ENKUlvE0_clEv,comdat
	.align 2
	.p2align 4,,15
	.weak	_ZZSt9call_onceIMNSt13__future_base13_State_baseV2EFvPSt8functionIFSt10unique_ptrINS0_12_Result_baseENS4_8_DeleterEEvEEPbEJPS1_S9_SA_EEvRSt9once_flagOT_DpOT0_ENKUlvE0_clEv
	.type	_ZZSt9call_onceIMNSt13__future_base13_State_baseV2EFvPSt8functionIFSt10unique_ptrINS0_12_Result_baseENS4_8_DeleterEEvEEPbEJPS1_S9_SA_EEvRSt9once_flagOT_DpOT0_ENKUlvE0_clEv, @function
_ZZSt9call_onceIMNSt13__future_base13_State_baseV2EFvPSt8functionIFSt10unique_ptrINS0_12_Result_baseENS4_8_DeleterEEvEEPbEJPS1_S9_SA_EEvRSt9once_flagOT_DpOT0_ENKUlvE0_clEv:
.LFB8635:
	.cfi_startproc
	subq	$8, %rsp
	.cfi_def_cfa_offset 16
	.byte	0x66
	leaq	_ZSt15__once_callable@tlsgd(%rip), %rdi
	.value	0x6666
	rex64
	call	__tls_get_addr@PLT
	movq	(%rax), %rax
	movq	16(%rax), %rdx
	movq	(%rax), %rcx
	movq	(%rdx), %rsi
	movq	24(%rax), %rdx
	movq	8(%rax), %rax
	movq	8(%rcx), %rdi
	movq	(%rdx), %rdx
	addq	(%rax), %rdi
	movq	(%rcx), %rax
	testb	$1, %al
	je	.L415
	movq	(%rdi), %rcx
	movq	-1(%rcx,%rax), %rax
.L415:
	addq	$8, %rsp
	.cfi_def_cfa_offset 8
	jmp	*%rax
	.cfi_endproc
.LFE8635:
	.size	_ZZSt9call_onceIMNSt13__future_base13_State_baseV2EFvPSt8functionIFSt10unique_ptrINS0_12_Result_baseENS4_8_DeleterEEvEEPbEJPS1_S9_SA_EEvRSt9once_flagOT_DpOT0_ENKUlvE0_clEv, .-_ZZSt9call_onceIMNSt13__future_base13_State_baseV2EFvPSt8functionIFSt10unique_ptrINS0_12_Result_baseENS4_8_DeleterEEvEEPbEJPS1_S9_SA_EEvRSt9once_flagOT_DpOT0_ENKUlvE0_clEv
	.section	.text._ZNSt8functionIFbRN8opendnp312HeaderWriterEEEC2ERKS4_,"axG",@progbits,_ZNSt8functionIFbRN8opendnp312HeaderWriterEEEC5ERKS4_,comdat
	.align 2
	.p2align 4,,15
	.weak	_ZNSt8functionIFbRN8opendnp312HeaderWriterEEEC2ERKS4_
	.type	_ZNSt8functionIFbRN8opendnp312HeaderWriterEEEC2ERKS4_, @function
_ZNSt8functionIFbRN8opendnp312HeaderWriterEEEC2ERKS4_:
.LFB8871:
	.cfi_startproc
	.cfi_personality 0x9b,DW.ref.__gxx_personality_v0
	.cfi_lsda 0x1b,.LLSDA8871
	movq	$0, 16(%rdi)
	movq	16(%rsi), %rax
	testq	%rax, %rax
	je	.L432
	pushq	%rbp
	.cfi_def_cfa_offset 16
	.cfi_offset 6, -16
	pushq	%rbx
	.cfi_def_cfa_offset 24
	.cfi_offset 3, -24
	movq	%rsi, %rbp
	movq	%rdi, %rbx
	movl	$2, %edx
	subq	$8, %rsp
	.cfi_def_cfa_offset 32
.LEHB9:
	call	*%rax
.LEHE9:
	movq	24(%rbp), %rax
	movq	%rax, 24(%rbx)
	movq	16(%rbp), %rax
	movq	%rax, 16(%rbx)
	addq	$8, %rsp
	.cfi_def_cfa_offset 24
	popq	%rbx
	.cfi_def_cfa_offset 16
	popq	%rbp
	.cfi_def_cfa_offset 8
	ret
	.p2align 4,,10
	.p2align 3
.L432:
	.cfi_restore 3
	.cfi_restore 6
	rep ret
.L424:
	.cfi_def_cfa_offset 32
	.cfi_offset 3, -24
	.cfi_offset 6, -16
	movq	%rax, %rbp
	movq	16(%rbx), %rax
	testq	%rax, %rax
	je	.L423
	movl	$3, %edx
	movq	%rbx, %rsi
	movq	%rbx, %rdi
	call	*%rax
.L423:
	movq	%rbp, %rdi
.LEHB10:
	call	_Unwind_Resume@PLT
.LEHE10:
	.cfi_endproc
.LFE8871:
	.section	.gcc_except_table
.LLSDA8871:
	.byte	0xff
	.byte	0xff
	.byte	0x1
	.uleb128 .LLSDACSE8871-.LLSDACSB8871
.LLSDACSB8871:
	.uleb128 .LEHB9-.LFB8871
	.uleb128 .LEHE9-.LEHB9
	.uleb128 .L424-.LFB8871
	.uleb128 0
	.uleb128 .LEHB10-.LFB8871
	.uleb128 .LEHE10-.LEHB10
	.uleb128 0
	.uleb128 0
.LLSDACSE8871:
	.section	.text._ZNSt8functionIFbRN8opendnp312HeaderWriterEEEC2ERKS4_,"axG",@progbits,_ZNSt8functionIFbRN8opendnp312HeaderWriterEEEC5ERKS4_,comdat
	.size	_ZNSt8functionIFbRN8opendnp312HeaderWriterEEEC2ERKS4_, .-_ZNSt8functionIFbRN8opendnp312HeaderWriterEEEC2ERKS4_
	.weak	_ZNSt8functionIFbRN8opendnp312HeaderWriterEEEC1ERKS4_
	.set	_ZNSt8functionIFbRN8opendnp312HeaderWriterEEEC1ERKS4_,_ZNSt8functionIFbRN8opendnp312HeaderWriterEEEC2ERKS4_
	.section	.text._ZNSt8functionIFvRKN8opendnp318ICommandTaskResultEEEC2ERKS5_,"axG",@progbits,_ZNSt8functionIFvRKN8opendnp318ICommandTaskResultEEEC5ERKS5_,comdat
	.align 2
	.p2align 4,,15
	.weak	_ZNSt8functionIFvRKN8opendnp318ICommandTaskResultEEEC2ERKS5_
	.type	_ZNSt8functionIFvRKN8opendnp318ICommandTaskResultEEEC2ERKS5_, @function
_ZNSt8functionIFvRKN8opendnp318ICommandTaskResultEEEC2ERKS5_:
.LFB8946:
	.cfi_startproc
	.cfi_personality 0x9b,DW.ref.__gxx_personality_v0
	.cfi_lsda 0x1b,.LLSDA8946
	movq	$0, 16(%rdi)
	movq	16(%rsi), %rax
	testq	%rax, %rax
	je	.L447
	pushq	%rbp
	.cfi_def_cfa_offset 16
	.cfi_offset 6, -16
	pushq	%rbx
	.cfi_def_cfa_offset 24
	.cfi_offset 3, -24
	movq	%rsi, %rbp
	movq	%rdi, %rbx
	movl	$2, %edx
	subq	$8, %rsp
	.cfi_def_cfa_offset 32
.LEHB11:
	call	*%rax
.LEHE11:
	movq	24(%rbp), %rax
	movq	%rax, 24(%rbx)
	movq	16(%rbp), %rax
	movq	%rax, 16(%rbx)
	addq	$8, %rsp
	.cfi_def_cfa_offset 24
	popq	%rbx
	.cfi_def_cfa_offset 16
	popq	%rbp
	.cfi_def_cfa_offset 8
	ret
	.p2align 4,,10
	.p2align 3
.L447:
	.cfi_restore 3
	.cfi_restore 6
	rep ret
.L439:
	.cfi_def_cfa_offset 32
	.cfi_offset 3, -24
	.cfi_offset 6, -16
	movq	%rax, %rbp
	movq	16(%rbx), %rax
	testq	%rax, %rax
	je	.L438
	movl	$3, %edx
	movq	%rbx, %rsi
	movq	%rbx, %rdi
	call	*%rax
.L438:
	movq	%rbp, %rdi
.LEHB12:
	call	_Unwind_Resume@PLT
.LEHE12:
	.cfi_endproc
.LFE8946:
	.section	.gcc_except_table
.LLSDA8946:
	.byte	0xff
	.byte	0xff
	.byte	0x1
	.uleb128 .LLSDACSE8946-.LLSDACSB8946
.LLSDACSB8946:
	.uleb128 .LEHB11-.LFB8946
	.uleb128 .LEHE11-.LEHB11
	.uleb128 .L439-.LFB8946
	.uleb128 0
	.uleb128 .LEHB12-.LFB8946
	.uleb128 .LEHE12-.LEHB12
	.uleb128 0
	.uleb128 0
.LLSDACSE8946:
	.section	.text._ZNSt8functionIFvRKN8opendnp318ICommandTaskResultEEEC2ERKS5_,"axG",@progbits,_ZNSt8functionIFvRKN8opendnp318ICommandTaskResultEEEC5ERKS5_,comdat
	.size	_ZNSt8functionIFvRKN8opendnp318ICommandTaskResultEEEC2ERKS5_, .-_ZNSt8functionIFvRKN8opendnp318ICommandTaskResultEEEC2ERKS5_
	.weak	_ZNSt8functionIFvRKN8opendnp318ICommandTaskResultEEEC1ERKS5_
	.set	_ZNSt8functionIFvRKN8opendnp318ICommandTaskResultEEEC1ERKS5_,_ZNSt8functionIFvRKN8opendnp318ICommandTaskResultEEEC2ERKS5_
	.section	.text._ZNSt16_Sp_counted_baseILN9__gnu_cxx12_Lock_policyE2EE10_M_releaseEv,"axG",@progbits,_ZNSt16_Sp_counted_baseILN9__gnu_cxx12_Lock_policyE2EE10_M_releaseEv,comdat
	.align 2
	.p2align 4,,15
	.weak	_ZNSt16_Sp_counted_baseILN9__gnu_cxx12_Lock_policyE2EE10_M_releaseEv
	.type	_ZNSt16_Sp_counted_baseILN9__gnu_cxx12_Lock_policyE2EE10_M_releaseEv, @function
_ZNSt16_Sp_counted_baseILN9__gnu_cxx12_Lock_policyE2EE10_M_releaseEv:
.LFB9064:
	.cfi_startproc
	cmpq	$0, _ZL28__gthrw___pthread_key_createPjPFvPvE@GOTPCREL(%rip)
	pushq	%rbx
	.cfi_def_cfa_offset 16
	.cfi_offset 3, -16
	movq	%rdi, %rbx
	je	.L451
	lock subl	$1, 8(%rdi)
	je	.L458
.L450:
	popq	%rbx
	.cfi_remember_state
	.cfi_def_cfa_offset 8
	ret
	.p2align 4,,10
	.p2align 3
.L451:
	.cfi_restore_state
	movl	8(%rdi), %eax
	leal	-1(%rax), %edx
	cmpl	$1, %eax
	movl	%edx, 8(%rdi)
	jne	.L450
	movq	(%rdi), %rax
	call	*16(%rax)
	movl	12(%rbx), %eax
	leal	-1(%rax), %edx
	movl	%edx, 12(%rbx)
	jmp	.L456
	.p2align 4,,10
	.p2align 3
.L458:
	movq	(%rdi), %rax
	call	*16(%rax)
	movl	$-1, %eax
	lock xaddl	%eax, 12(%rbx)
.L456:
	cmpl	$1, %eax
	jne	.L450
	movq	(%rbx), %rax
	movq	%rbx, %rdi
	popq	%rbx
	.cfi_def_cfa_offset 8
	movq	24(%rax), %rax
	jmp	*%rax
	.cfi_endproc
.LFE9064:
	.size	_ZNSt16_Sp_counted_baseILN9__gnu_cxx12_Lock_policyE2EE10_M_releaseEv, .-_ZNSt16_Sp_counted_baseILN9__gnu_cxx12_Lock_policyE2EE10_M_releaseEv
	.text
	.p2align 4,,15
	.type	_ZNSt14_Function_base13_Base_managerIZN8asiodnp318MasterSessionStack18GetStackStatisticsEvEUlvE_E10_M_managerERSt9_Any_dataRKS5_St18_Manager_operation, @function
_ZNSt14_Function_base13_Base_managerIZN8asiodnp318MasterSessionStack18GetStackStatisticsEvEUlvE_E10_M_managerERSt9_Any_dataRKS5_St18_Manager_operation:
.LFB9453:
	.cfi_startproc
	cmpl	$1, %edx
	je	.L461
	jb	.L462
	pushq	%rbp
	.cfi_def_cfa_offset 16
	.cfi_offset 6, -16
	pushq	%rbx
	.cfi_def_cfa_offset 24
	.cfi_offset 3, -24
	movq	%rdi, %rbx
	subq	$8, %rsp
	.cfi_def_cfa_offset 32
	cmpl	$2, %edx
	je	.L463
	cmpl	$3, %edx
	jne	.L460
	movq	(%rdi), %rbx
	testq	%rbx, %rbx
	je	.L460
	movq	8(%rbx), %rdi
	testq	%rdi, %rdi
	je	.L467
	call	_ZNSt16_Sp_counted_baseILN9__gnu_cxx12_Lock_policyE2EE10_M_releaseEv@PLT
.L467:
	movl	$16, %esi
	movq	%rbx, %rdi
	call	_ZdlPvm@PLT
.L460:
	addq	$8, %rsp
	.cfi_remember_state
	.cfi_def_cfa_offset 24
	xorl	%eax, %eax
	popq	%rbx
	.cfi_def_cfa_offset 16
	popq	%rbp
	.cfi_def_cfa_offset 8
	ret
	.p2align 4,,10
	.p2align 3
.L463:
	.cfi_restore_state
	movq	(%rsi), %rbp
	movl	$16, %edi
	call	_Znwm@PLT
	movq	0(%rbp), %rdx
	movq	%rdx, (%rax)
	movq	8(%rbp), %rdx
	testq	%rdx, %rdx
	movq	%rdx, 8(%rax)
	je	.L465
	cmpq	$0, _ZL28__gthrw___pthread_key_createPjPFvPvE@GOTPCREL(%rip)
	je	.L466
	lock addl	$1, 8(%rdx)
.L465:
	movq	%rax, (%rbx)
	addq	$8, %rsp
	.cfi_def_cfa_offset 24
	xorl	%eax, %eax
	popq	%rbx
	.cfi_def_cfa_offset 16
	popq	%rbp
	.cfi_def_cfa_offset 8
	ret
	.p2align 4,,10
	.p2align 3
.L462:
	.cfi_restore 3
	.cfi_restore 6
	leaq	_ZTIZN8asiodnp318MasterSessionStack18GetStackStatisticsEvEUlvE_(%rip), %rax
	movq	%rax, (%rdi)
	xorl	%eax, %eax
	ret
	.p2align 4,,10
	.p2align 3
.L461:
	movq	(%rsi), %rax
	movq	%rax, (%rdi)
	xorl	%eax, %eax
	ret
	.p2align 4,,10
	.p2align 3
.L466:
	.cfi_def_cfa_offset 32
	.cfi_offset 3, -24
	.cfi_offset 6, -16
	addl	$1, 8(%rdx)
	jmp	.L465
	.cfi_endproc
.LFE9453:
	.size	_ZNSt14_Function_base13_Base_managerIZN8asiodnp318MasterSessionStack18GetStackStatisticsEvEUlvE_E10_M_managerERSt9_Any_dataRKS5_St18_Manager_operation, .-_ZNSt14_Function_base13_Base_managerIZN8asiodnp318MasterSessionStack18GetStackStatisticsEvEUlvE_E10_M_managerERSt9_Any_dataRKS5_St18_Manager_operation
	.p2align 4,,15
	.type	_ZNSt14_Function_base13_Base_managerIZN8asiodnp318MasterSessionStack17AddAllObjectsScanEN8opendnp316GroupVariationIDEN7openpal12TimeDurationERKNS3_10TaskConfigEEUlvE_E10_M_managerERSt9_Any_dataRKSC_St18_Manager_operation, @function
_ZNSt14_Function_base13_Base_managerIZN8asiodnp318MasterSessionStack17AddAllObjectsScanEN8opendnp316GroupVariationIDEN7openpal12TimeDurationERKNS3_10TaskConfigEEUlvE_E10_M_managerERSt9_Any_dataRKSC_St18_Manager_operation:
.LFB9508:
	.cfi_startproc
	cmpl	$1, %edx
	je	.L483
	jb	.L484
	pushq	%rbp
	.cfi_def_cfa_offset 16
	.cfi_offset 6, -16
	pushq	%rbx
	.cfi_def_cfa_offset 24
	.cfi_offset 3, -24
	movq	%rdi, %rbx
	subq	$8, %rsp
	.cfi_def_cfa_offset 32
	cmpl	$2, %edx
	je	.L485
	cmpl	$3, %edx
	jne	.L482
	movq	(%rdi), %rbx
	testq	%rbx, %rbx
	je	.L482
	movq	8(%rbx), %rdi
	testq	%rdi, %rdi
	je	.L489
	call	_ZNSt16_Sp_counted_baseILN9__gnu_cxx12_Lock_policyE2EE10_M_releaseEv@PLT
.L489:
	movl	$48, %esi
	movq	%rbx, %rdi
	call	_ZdlPvm@PLT
.L482:
	addq	$8, %rsp
	.cfi_remember_state
	.cfi_def_cfa_offset 24
	xorl	%eax, %eax
	popq	%rbx
	.cfi_def_cfa_offset 16
	popq	%rbp
	.cfi_def_cfa_offset 8
	ret
	.p2align 4,,10
	.p2align 3
.L485:
	.cfi_restore_state
	movq	(%rsi), %rbp
	movl	$48, %edi
	call	_Znwm@PLT
	movq	0(%rbp), %rdx
	movq	%rdx, (%rax)
	movq	8(%rbp), %rdx
	testq	%rdx, %rdx
	movq	%rdx, 8(%rax)
	je	.L487
	cmpq	$0, _ZL28__gthrw___pthread_key_createPjPFvPvE@GOTPCREL(%rip)
	je	.L488
	lock addl	$1, 8(%rdx)
.L487:
	movzwl	16(%rbp), %edx
	movdqu	32(%rbp), %xmm0
	movw	%dx, 16(%rax)
	movq	24(%rbp), %rdx
	movups	%xmm0, 32(%rax)
	movq	%rax, (%rbx)
	movq	%rdx, 24(%rax)
	addq	$8, %rsp
	.cfi_def_cfa_offset 24
	xorl	%eax, %eax
	popq	%rbx
	.cfi_def_cfa_offset 16
	popq	%rbp
	.cfi_def_cfa_offset 8
	ret
	.p2align 4,,10
	.p2align 3
.L484:
	.cfi_restore 3
	.cfi_restore 6
	leaq	_ZTIZN8asiodnp318MasterSessionStack17AddAllObjectsScanEN8opendnp316GroupVariationIDEN7openpal12TimeDurationERKNS1_10TaskConfigEEUlvE_(%rip), %rax
	movq	%rax, (%rdi)
	xorl	%eax, %eax
	ret
	.p2align 4,,10
	.p2align 3
.L483:
	movq	(%rsi), %rax
	movq	%rax, (%rdi)
	xorl	%eax, %eax
	ret
	.p2align 4,,10
	.p2align 3
.L488:
	.cfi_def_cfa_offset 32
	.cfi_offset 3, -24
	.cfi_offset 6, -16
	addl	$1, 8(%rdx)
	jmp	.L487
	.cfi_endproc
.LFE9508:
	.size	_ZNSt14_Function_base13_Base_managerIZN8asiodnp318MasterSessionStack17AddAllObjectsScanEN8opendnp316GroupVariationIDEN7openpal12TimeDurationERKNS3_10TaskConfigEEUlvE_E10_M_managerERSt9_Any_dataRKSC_St18_Manager_operation, .-_ZNSt14_Function_base13_Base_managerIZN8asiodnp318MasterSessionStack17AddAllObjectsScanEN8opendnp316GroupVariationIDEN7openpal12TimeDurationERKNS3_10TaskConfigEEUlvE_E10_M_managerERSt9_Any_dataRKSC_St18_Manager_operation
	.p2align 4,,15
	.type	_ZNSt14_Function_base13_Base_managerIZN8asiodnp318MasterSessionStack12AddClassScanERKN8opendnp310ClassFieldEN7openpal12TimeDurationERKNS3_10TaskConfigEEUlvE_E10_M_managerERSt9_Any_dataRKSE_St18_Manager_operation, @function
_ZNSt14_Function_base13_Base_managerIZN8asiodnp318MasterSessionStack12AddClassScanERKN8opendnp310ClassFieldEN7openpal12TimeDurationERKNS3_10TaskConfigEEUlvE_E10_M_managerERSt9_Any_dataRKSE_St18_Manager_operation:
.LFB9512:
	.cfi_startproc
	cmpl	$1, %edx
	je	.L505
	jb	.L506
	pushq	%rbp
	.cfi_def_cfa_offset 16
	.cfi_offset 6, -16
	pushq	%rbx
	.cfi_def_cfa_offset 24
	.cfi_offset 3, -24
	movq	%rdi, %rbx
	subq	$8, %rsp
	.cfi_def_cfa_offset 32
	cmpl	$2, %edx
	je	.L507
	cmpl	$3, %edx
	jne	.L504
	movq	(%rdi), %rbx
	testq	%rbx, %rbx
	je	.L504
	movq	8(%rbx), %rdi
	testq	%rdi, %rdi
	je	.L511
	call	_ZNSt16_Sp_counted_baseILN9__gnu_cxx12_Lock_policyE2EE10_M_releaseEv@PLT
.L511:
	movl	$48, %esi
	movq	%rbx, %rdi
	call	_ZdlPvm@PLT
.L504:
	addq	$8, %rsp
	.cfi_remember_state
	.cfi_def_cfa_offset 24
	xorl	%eax, %eax
	popq	%rbx
	.cfi_def_cfa_offset 16
	popq	%rbp
	.cfi_def_cfa_offset 8
	ret
	.p2align 4,,10
	.p2align 3
.L507:
	.cfi_restore_state
	movq	(%rsi), %rbp
	movl	$48, %edi
	call	_Znwm@PLT
	movq	0(%rbp), %rdx
	movq	%rdx, (%rax)
	movq	8(%rbp), %rdx
	testq	%rdx, %rdx
	movq	%rdx, 8(%rax)
	je	.L509
	cmpq	$0, _ZL28__gthrw___pthread_key_createPjPFvPvE@GOTPCREL(%rip)
	je	.L510
	lock addl	$1, 8(%rdx)
.L509:
	movzbl	16(%rbp), %edx
	movdqu	32(%rbp), %xmm0
	movb	%dl, 16(%rax)
	movq	24(%rbp), %rdx
	movups	%xmm0, 32(%rax)
	movq	%rax, (%rbx)
	movq	%rdx, 24(%rax)
	addq	$8, %rsp
	.cfi_def_cfa_offset 24
	xorl	%eax, %eax
	popq	%rbx
	.cfi_def_cfa_offset 16
	popq	%rbp
	.cfi_def_cfa_offset 8
	ret
	.p2align 4,,10
	.p2align 3
.L506:
	.cfi_restore 3
	.cfi_restore 6
	leaq	_ZTIZN8asiodnp318MasterSessionStack12AddClassScanERKN8opendnp310ClassFieldEN7openpal12TimeDurationERKNS1_10TaskConfigEEUlvE_(%rip), %rax
	movq	%rax, (%rdi)
	xorl	%eax, %eax
	ret
	.p2align 4,,10
	.p2align 3
.L505:
	movq	(%rsi), %rax
	movq	%rax, (%rdi)
	xorl	%eax, %eax
	ret
	.p2align 4,,10
	.p2align 3
.L510:
	.cfi_def_cfa_offset 32
	.cfi_offset 3, -24
	.cfi_offset 6, -16
	addl	$1, 8(%rdx)
	jmp	.L509
	.cfi_endproc
.LFE9512:
	.size	_ZNSt14_Function_base13_Base_managerIZN8asiodnp318MasterSessionStack12AddClassScanERKN8opendnp310ClassFieldEN7openpal12TimeDurationERKNS3_10TaskConfigEEUlvE_E10_M_managerERSt9_Any_dataRKSE_St18_Manager_operation, .-_ZNSt14_Function_base13_Base_managerIZN8asiodnp318MasterSessionStack12AddClassScanERKN8opendnp310ClassFieldEN7openpal12TimeDurationERKNS3_10TaskConfigEEUlvE_E10_M_managerERSt9_Any_dataRKSE_St18_Manager_operation
	.p2align 4,,15
	.type	_ZNSt14_Function_base13_Base_managerIZN8asiodnp318MasterSessionStack12AddRangeScanEN8opendnp316GroupVariationIDEttN7openpal12TimeDurationERKNS3_10TaskConfigEEUlvE_E10_M_managerERSt9_Any_dataRKSC_St18_Manager_operation, @function
_ZNSt14_Function_base13_Base_managerIZN8asiodnp318MasterSessionStack12AddRangeScanEN8opendnp316GroupVariationIDEttN7openpal12TimeDurationERKNS3_10TaskConfigEEUlvE_E10_M_managerERSt9_Any_dataRKSC_St18_Manager_operation:
.LFB9516:
	.cfi_startproc
	cmpl	$1, %edx
	je	.L527
	jb	.L528
	pushq	%rbp
	.cfi_def_cfa_offset 16
	.cfi_offset 6, -16
	pushq	%rbx
	.cfi_def_cfa_offset 24
	.cfi_offset 3, -24
	movq	%rdi, %rbx
	subq	$8, %rsp
	.cfi_def_cfa_offset 32
	cmpl	$2, %edx
	je	.L529
	cmpl	$3, %edx
	jne	.L526
	movq	(%rdi), %rbx
	testq	%rbx, %rbx
	je	.L526
	movq	8(%rbx), %rdi
	testq	%rdi, %rdi
	je	.L533
	call	_ZNSt16_Sp_counted_baseILN9__gnu_cxx12_Lock_policyE2EE10_M_releaseEv@PLT
.L533:
	movl	$48, %esi
	movq	%rbx, %rdi
	call	_ZdlPvm@PLT
.L526:
	addq	$8, %rsp
	.cfi_remember_state
	.cfi_def_cfa_offset 24
	xorl	%eax, %eax
	popq	%rbx
	.cfi_def_cfa_offset 16
	popq	%rbp
	.cfi_def_cfa_offset 8
	ret
	.p2align 4,,10
	.p2align 3
.L529:
	.cfi_restore_state
	movq	(%rsi), %rbp
	movl	$48, %edi
	call	_Znwm@PLT
	movq	0(%rbp), %rdx
	movq	%rdx, (%rax)
	movq	8(%rbp), %rdx
	testq	%rdx, %rdx
	movq	%rdx, 8(%rax)
	je	.L531
	cmpq	$0, _ZL28__gthrw___pthread_key_createPjPFvPvE@GOTPCREL(%rip)
	je	.L532
	lock addl	$1, 8(%rdx)
.L531:
	movzwl	16(%rbp), %edx
	movdqu	32(%rbp), %xmm0
	movw	%dx, 16(%rax)
	movzwl	18(%rbp), %edx
	movw	%dx, 18(%rax)
	movzwl	20(%rbp), %edx
	movw	%dx, 20(%rax)
	movq	24(%rbp), %rdx
	movups	%xmm0, 32(%rax)
	movq	%rax, (%rbx)
	movq	%rdx, 24(%rax)
	addq	$8, %rsp
	.cfi_def_cfa_offset 24
	xorl	%eax, %eax
	popq	%rbx
	.cfi_def_cfa_offset 16
	popq	%rbp
	.cfi_def_cfa_offset 8
	ret
	.p2align 4,,10
	.p2align 3
.L528:
	.cfi_restore 3
	.cfi_restore 6
	leaq	_ZTIZN8asiodnp318MasterSessionStack12AddRangeScanEN8opendnp316GroupVariationIDEttN7openpal12TimeDurationERKNS1_10TaskConfigEEUlvE_(%rip), %rax
	movq	%rax, (%rdi)
	xorl	%eax, %eax
	ret
	.p2align 4,,10
	.p2align 3
.L527:
	movq	(%rsi), %rax
	movq	%rax, (%rdi)
	xorl	%eax, %eax
	ret
	.p2align 4,,10
	.p2align 3
.L532:
	.cfi_def_cfa_offset 32
	.cfi_offset 3, -24
	.cfi_offset 6, -16
	addl	$1, 8(%rdx)
	jmp	.L531
	.cfi_endproc
.LFE9516:
	.size	_ZNSt14_Function_base13_Base_managerIZN8asiodnp318MasterSessionStack12AddRangeScanEN8opendnp316GroupVariationIDEttN7openpal12TimeDurationERKNS3_10TaskConfigEEUlvE_E10_M_managerERSt9_Any_dataRKSC_St18_Manager_operation, .-_ZNSt14_Function_base13_Base_managerIZN8asiodnp318MasterSessionStack12AddRangeScanEN8opendnp316GroupVariationIDEttN7openpal12TimeDurationERKNS3_10TaskConfigEEUlvE_E10_M_managerERSt9_Any_dataRKSC_St18_Manager_operation
	.section	.text.unlikely
	.align 2
	.type	_ZZN8asiodnp318MasterSessionStack16SelectAndOperateEON8opendnp310CommandSetERKSt8functionIFvRKNS1_18ICommandTaskResultEEERKNS1_10TaskConfigEENUlvE_D2Ev, @function
_ZZN8asiodnp318MasterSessionStack16SelectAndOperateEON8opendnp310CommandSetERKSt8functionIFvRKNS1_18ICommandTaskResultEEERKNS1_10TaskConfigEENUlvE_D2Ev:
.LFB7974:
	.cfi_startproc
	.cfi_personality 0x9b,DW.ref.__gxx_personality_v0
	.cfi_lsda 0x1b,.LLSDA7974
	pushq	%rbx
	.cfi_def_cfa_offset 16
	.cfi_offset 3, -16
	movq	64(%rdi), %rax
	movq	%rdi, %rbx
	testq	%rax, %rax
	je	.L548
	leaq	48(%rdi), %rdi
	movl	$3, %edx
	movq	%rdi, %rsi
	call	*%rax
.L548:
	movq	24(%rbx), %rdi
	testq	%rdi, %rdi
	je	.L549
	call	_ZNSt16_Sp_counted_baseILN9__gnu_cxx12_Lock_policyE2EE10_M_releaseEv@PLT
.L549:
	movq	8(%rbx), %rdi
	testq	%rdi, %rdi
	je	.L547
	popq	%rbx
	.cfi_remember_state
	.cfi_def_cfa_offset 8
	jmp	_ZNSt16_Sp_counted_baseILN9__gnu_cxx12_Lock_policyE2EE10_M_releaseEv@PLT
.L547:
	.cfi_restore_state
	popq	%rbx
	.cfi_def_cfa_offset 8
	ret
	.cfi_endproc
.LFE7974:
	.section	.gcc_except_table
.LLSDA7974:
	.byte	0xff
	.byte	0xff
	.byte	0x1
	.uleb128 .LLSDACSE7974-.LLSDACSB7974
.LLSDACSB7974:
.LLSDACSE7974:
	.section	.text.unlikely
	.size	_ZZN8asiodnp318MasterSessionStack16SelectAndOperateEON8opendnp310CommandSetERKSt8functionIFvRKNS1_18ICommandTaskResultEEERKNS1_10TaskConfigEENUlvE_D2Ev, .-_ZZN8asiodnp318MasterSessionStack16SelectAndOperateEON8opendnp310CommandSetERKSt8functionIFvRKNS1_18ICommandTaskResultEEERKNS1_10TaskConfigEENUlvE_D2Ev
	.set	_ZZN8asiodnp318MasterSessionStack16SelectAndOperateEON8opendnp310CommandSetERKSt8functionIFvRKNS1_18ICommandTaskResultEEERKNS1_10TaskConfigEENUlvE_D1Ev,_ZZN8asiodnp318MasterSessionStack16SelectAndOperateEON8opendnp310CommandSetERKSt8functionIFvRKNS1_18ICommandTaskResultEEERKNS1_10TaskConfigEENUlvE_D2Ev
	.align 2
	.type	_ZZN8asiodnp318MasterSessionStack13DirectOperateEON8opendnp310CommandSetERKSt8functionIFvRKNS1_18ICommandTaskResultEEERKNS1_10TaskConfigEENUlvE_D2Ev, @function
_ZZN8asiodnp318MasterSessionStack13DirectOperateEON8opendnp310CommandSetERKSt8functionIFvRKNS1_18ICommandTaskResultEEERKNS1_10TaskConfigEENUlvE_D2Ev:
.LFB7982:
	.cfi_startproc
	.cfi_personality 0x9b,DW.ref.__gxx_personality_v0
	.cfi_lsda 0x1b,.LLSDA7982
	pushq	%rbx
	.cfi_def_cfa_offset 16
	.cfi_offset 3, -16
	movq	64(%rdi), %rax
	movq	%rdi, %rbx
	testq	%rax, %rax
	je	.L559
	leaq	48(%rdi), %rdi
	movl	$3, %edx
	movq	%rdi, %rsi
	call	*%rax
.L559:
	movq	24(%rbx), %rdi
	testq	%rdi, %rdi
	je	.L560
	call	_ZNSt16_Sp_counted_baseILN9__gnu_cxx12_Lock_policyE2EE10_M_releaseEv@PLT
.L560:
	movq	8(%rbx), %rdi
	testq	%rdi, %rdi
	je	.L558
	popq	%rbx
	.cfi_remember_state
	.cfi_def_cfa_offset 8
	jmp	_ZNSt16_Sp_counted_baseILN9__gnu_cxx12_Lock_policyE2EE10_M_releaseEv@PLT
.L558:
	.cfi_restore_state
	popq	%rbx
	.cfi_def_cfa_offset 8
	ret
	.cfi_endproc
.LFE7982:
	.section	.gcc_except_table
.LLSDA7982:
	.byte	0xff
	.byte	0xff
	.byte	0x1
	.uleb128 .LLSDACSE7982-.LLSDACSB7982
.LLSDACSB7982:
.LLSDACSE7982:
	.section	.text.unlikely
	.size	_ZZN8asiodnp318MasterSessionStack13DirectOperateEON8opendnp310CommandSetERKSt8functionIFvRKNS1_18ICommandTaskResultEEERKNS1_10TaskConfigEENUlvE_D2Ev, .-_ZZN8asiodnp318MasterSessionStack13DirectOperateEON8opendnp310CommandSetERKSt8functionIFvRKNS1_18ICommandTaskResultEEERKNS1_10TaskConfigEENUlvE_D2Ev
	.set	_ZZN8asiodnp318MasterSessionStack13DirectOperateEON8opendnp310CommandSetERKSt8functionIFvRKNS1_18ICommandTaskResultEEERKNS1_10TaskConfigEENUlvE_D1Ev,_ZZN8asiodnp318MasterSessionStack13DirectOperateEON8opendnp310CommandSetERKSt8functionIFvRKNS1_18ICommandTaskResultEEERKNS1_10TaskConfigEENUlvE_D2Ev
	.text
	.align 2
	.p2align 4,,15
	.globl	_ZN8asiodnp318MasterSessionStack13BeginShutdownEv
	.type	_ZN8asiodnp318MasterSessionStack13BeginShutdownEv, @function
_ZN8asiodnp318MasterSessionStack13BeginShutdownEv:
.LFB7806:
	.cfi_startproc
	.cfi_personality 0x9b,DW.ref.__gxx_personality_v0
	.cfi_lsda 0x1b,.LLSDA7806
	pushq	%r13
	.cfi_def_cfa_offset 16
	.cfi_offset 13, -16
	pushq	%r12
	.cfi_def_cfa_offset 24
	.cfi_offset 12, -24
	pushq	%rbp
	.cfi_def_cfa_offset 32
	.cfi_offset 6, -32
	pushq	%rbx
	.cfi_def_cfa_offset 40
	.cfi_offset 3, -40
	subq	$40, %rsp
	.cfi_def_cfa_offset 80
	movq	56(%rdi), %rbp
	movq	%fs:40, %rax
	movq	%rax, 24(%rsp)
	xorl	%eax, %eax
	movq	48(%rdi), %rax
	testq	%rbp, %rbp
	je	.L570
	cmpq	$0, _ZL28__gthrw___pthread_key_createPjPFvPvE@GOTPCREL(%rip)
	jne	.L599
	movl	8(%rbp), %edx
	movq	%rax, (%rsp)
	movq	32(%rdi), %rsi
	movq	%rbp, 8(%rsp)
	leal	2(%rdx), %eax
	movl	%eax, 8(%rbp)
.L572:
	movq	%rsp, %rdi
	xorl	%eax, %eax
	movq	40(%rsi), %r12
	leaq	48(%rsi), %r13
	call	_ZN4asio28asio_handler_is_continuationEz@PLT
	movl	%eax, %ebx
	.byte	0x66
	leaq	_ZN4asio6detail15keyword_tss_ptrINS0_10call_stackINS0_15task_io_serviceENS0_27task_io_service_thread_infoEE7contextEE6value_E@tlsgd(%rip), %rdi
	.value	0x6666
	rex64
	call	__tls_get_addr@PLT
	movq	(%rax), %rax
	testq	%rax, %rax
	je	.L573
	movq	8(%rax), %rax
	testq	%rax, %rax
	je	.L573
	movq	(%rax), %rdx
	testq	%rdx, %rdx
	je	.L573
	movq	$0, (%rax)
	movzbl	(%rdx), %eax
	cmpb	$39, %al
	jbe	.L574
	movb	%al, 40(%rdx)
.L575:
	leaq	_ZN4asio6detail18completion_handlerIZN8asiodnp318MasterSessionStack13BeginShutdownEvEUlvE_E11do_completeEPNS0_15task_io_serviceEPNS0_25task_io_service_operationERKSt10error_codem(%rip), %rax
	pxor	%xmm0, %xmm0
	movq	$0, (%rdx)
	movq	%r12, %rdi
	movl	$0, 16(%rdx)
	movq	%rax, 8(%rdx)
	movq	(%rsp), %rax
	movzbl	%bl, %ecx
	movq	%r13, %rsi
	movq	%rax, 24(%rdx)
	movq	8(%rsp), %rax
	movaps	%xmm0, (%rsp)
	movq	%rax, 32(%rdx)
	call	_ZN4asio6detail14strand_service7do_postERPNS1_11strand_implEPNS0_25task_io_service_operationEb@PLT
	movq	8(%rsp), %rdi
	testq	%rdi, %rdi
	je	.L583
	call	_ZNSt16_Sp_counted_baseILN9__gnu_cxx12_Lock_policyE2EE10_M_releaseEv@PLT
.L583:
	testq	%rbp, %rbp
	je	.L569
	movq	%rbp, %rdi
	call	_ZNSt16_Sp_counted_baseILN9__gnu_cxx12_Lock_policyE2EE10_M_releaseEv@PLT
.L569:
	movq	24(%rsp), %rax
	xorq	%fs:40, %rax
	jne	.L600
	addq	$40, %rsp
	.cfi_remember_state
	.cfi_def_cfa_offset 40
	popq	%rbx
	.cfi_def_cfa_offset 32
	popq	%rbp
	.cfi_def_cfa_offset 24
	popq	%r12
	.cfi_def_cfa_offset 16
	popq	%r13
	.cfi_def_cfa_offset 8
	ret
	.p2align 4,,10
	.p2align 3
.L599:
	.cfi_restore_state
	leaq	8(%rbp), %rdx
	lock addl	$1, (%rdx)
	movq	32(%rdi), %rsi
	movq	%rax, (%rsp)
	movq	%rbp, 8(%rsp)
	lock addl	$1, (%rdx)
	jmp	.L572
	.p2align 4,,10
	.p2align 3
.L574:
	movq	%rdx, %rdi
	call	_ZdlPv@PLT
.L573:
	movl	$41, %edi
.LEHB13:
	call	_Znwm@PLT
.LEHE13:
	movq	%rax, %rdx
	movb	$40, 40(%rax)
	jmp	.L575
	.p2align 4,,10
	.p2align 3
.L570:
	movq	32(%rdi), %rsi
	movq	%rax, (%rsp)
	movq	$0, 8(%rsp)
	jmp	.L572
.L600:
	call	__stack_chk_fail@PLT
.L585:
	movq	8(%rsp), %rdi
	movq	%rax, %rbx
	testq	%rdi, %rdi
	je	.L579
	call	_ZNSt16_Sp_counted_baseILN9__gnu_cxx12_Lock_policyE2EE10_M_releaseEv@PLT
.L579:
	testq	%rbp, %rbp
	je	.L581
	movq	%rbp, %rdi
	call	_ZNSt16_Sp_counted_baseILN9__gnu_cxx12_Lock_policyE2EE10_M_releaseEv@PLT
.L581:
	movq	%rbx, %rdi
.LEHB14:
	call	_Unwind_Resume@PLT
.LEHE14:
	.cfi_endproc
.LFE7806:
	.section	.gcc_except_table
.LLSDA7806:
	.byte	0xff
	.byte	0xff
	.byte	0x1
	.uleb128 .LLSDACSE7806-.LLSDACSB7806
.LLSDACSB7806:
	.uleb128 .LEHB13-.LFB7806
	.uleb128 .LEHE13-.LEHB13
	.uleb128 .L585-.LFB7806
	.uleb128 0
	.uleb128 .LEHB14-.LFB7806
	.uleb128 .LEHE14-.LEHB14
	.uleb128 0
	.uleb128 0
.LLSDACSE7806:
	.text
	.size	_ZN8asiodnp318MasterSessionStack13BeginShutdownEv, .-_ZN8asiodnp318MasterSessionStack13BeginShutdownEv
	.align 2
	.p2align 4,,15
	.globl	_ZN8asiodnp318MasterSessionStack14ScanAllObjectsEN8opendnp316GroupVariationIDERKNS1_10TaskConfigE
	.type	_ZN8asiodnp318MasterSessionStack14ScanAllObjectsEN8opendnp316GroupVariationIDERKNS1_10TaskConfigE, @function
_ZN8asiodnp318MasterSessionStack14ScanAllObjectsEN8opendnp316GroupVariationIDERKNS1_10TaskConfigE:
.LFB7904:
	.cfi_startproc
	.cfi_personality 0x9b,DW.ref.__gxx_personality_v0
	.cfi_lsda 0x1b,.LLSDA7904
	pushq	%r13
	.cfi_def_cfa_offset 16
	.cfi_offset 13, -16
	pushq	%r12
	.cfi_def_cfa_offset 24
	.cfi_offset 12, -24
	pushq	%rbp
	.cfi_def_cfa_offset 32
	.cfi_offset 6, -32
	pushq	%rbx
	.cfi_def_cfa_offset 40
	.cfi_offset 3, -40
	subq	$72, %rsp
	.cfi_def_cfa_offset 112
	movq	24(%rdi), %rbx
	movq	%fs:40, %rax
	movq	%rax, 56(%rsp)
	xorl	%eax, %eax
	testq	%rbx, %rbx
	je	.L602
	movl	8(%rbx), %eax
	leaq	8(%rbx), %rcx
	testl	%eax, %eax
	je	.L602
.L639:
	leal	1(%rax), %r8d
	lock cmpxchgl	%r8d, (%rcx)
	jne	.L643
	cmpq	$0, _ZL28__gthrw___pthread_key_createPjPFvPvE@GOTPCREL(%rip)
	movq	16(%rdi), %r11
	movl	%esi, %eax
	movzbl	%ah, %eax
	movl	(%rdx), %r9d
	movzbl	4(%rdx), %r8d
	movl	%eax, %r10d
	movq	8(%rdx), %rdx
	movq	32(%rdi), %rax
	movq	%r11, (%rsp)
	movq	%rbx, 8(%rsp)
	jne	.L644
	addl	$1, 8(%rbx)
.L608:
	movq	%rsp, %rdi
	movq	40(%rax), %r12
	leaq	48(%rax), %r13
	xorl	%eax, %eax
	movb	%sil, 16(%rsp)
	movb	%r10b, 17(%rsp)
	movl	%r9d, 24(%rsp)
	movb	%r8b, 28(%rsp)
	movq	%rdx, 32(%rsp)
	call	_ZN4asio28asio_handler_is_continuationEz@PLT
	movl	%eax, %ebp
	.byte	0x66
	leaq	_ZN4asio6detail15keyword_tss_ptrINS0_10call_stackINS0_15task_io_serviceENS0_27task_io_service_thread_infoEE7contextEE6value_E@tlsgd(%rip), %rdi
	.value	0x6666
	rex64
	call	__tls_get_addr@PLT
	movq	(%rax), %rax
	testq	%rax, %rax
	je	.L609
	movq	8(%rax), %rax
	testq	%rax, %rax
	je	.L609
	movq	(%rax), %rdx
	testq	%rdx, %rdx
	je	.L609
	movq	$0, (%rax)
	movzbl	(%rdx), %eax
	cmpb	$63, %al
	jbe	.L610
	movb	%al, 64(%rdx)
	jmp	.L611
	.p2align 4,,10
	.p2align 3
.L610:
	movq	%rdx, %rdi
	call	_ZdlPv@PLT
.L609:
	movl	$65, %edi
.LEHB15:
	call	_Znwm@PLT
.LEHE15:
	movq	%rax, %rdx
	movb	$64, 64(%rax)
.L611:
	leaq	_ZN4asio6detail18completion_handlerIZN8asiodnp318MasterSessionStack14ScanAllObjectsEN8opendnp316GroupVariationIDERKNS4_10TaskConfigEEUlvE_E11do_completeEPNS0_15task_io_serviceEPNS0_25task_io_service_operationERKSt10error_codem(%rip), %rax
	pxor	%xmm0, %xmm0
	movq	$0, (%rdx)
	movq	%r12, %rdi
	movl	$0, 16(%rdx)
	movq	%rax, 8(%rdx)
	movq	(%rsp), %rax
	movzbl	%bpl, %ecx
	movq	%r13, %rsi
	movq	%rax, 24(%rdx)
	movq	8(%rsp), %rax
	movaps	%xmm0, (%rsp)
	movq	%rax, 32(%rdx)
	movzwl	16(%rsp), %eax
	movdqu	24(%rsp), %xmm0
	movups	%xmm0, 48(%rdx)
	movw	%ax, 40(%rdx)
	call	_ZN4asio6detail14strand_service7do_postERPNS1_11strand_implEPNS0_25task_io_service_operationEb@PLT
	movq	8(%rsp), %rdi
	testq	%rdi, %rdi
	je	.L615
	call	_ZNSt16_Sp_counted_baseILN9__gnu_cxx12_Lock_policyE2EE10_M_releaseEv@PLT
.L615:
	movq	%rbx, %rdi
	call	_ZNSt16_Sp_counted_baseILN9__gnu_cxx12_Lock_policyE2EE10_M_releaseEv@PLT
	movq	56(%rsp), %rax
	xorq	%fs:40, %rax
	jne	.L645
	addq	$72, %rsp
	.cfi_remember_state
	.cfi_def_cfa_offset 40
	popq	%rbx
	.cfi_def_cfa_offset 32
	popq	%rbp
	.cfi_def_cfa_offset 24
	popq	%r12
	.cfi_def_cfa_offset 16
	popq	%r13
	.cfi_def_cfa_offset 8
	ret
	.p2align 4,,10
	.p2align 3
.L644:
	.cfi_restore_state
	lock addl	$1, (%rcx)
	jmp	.L608
.L643:
	testl	%eax, %eax
	jne	.L639
.L602:
.LEHB16:
	call	_ZSt20__throw_bad_weak_ptrv@PLT
.L645:
	call	__stack_chk_fail@PLT
.L617:
	movq	8(%rsp), %rdi
	movq	%rax, %rbp
	testq	%rdi, %rdi
	je	.L613
	call	_ZNSt16_Sp_counted_baseILN9__gnu_cxx12_Lock_policyE2EE10_M_releaseEv@PLT
.L613:
	movq	%rbx, %rdi
	call	_ZNSt16_Sp_counted_baseILN9__gnu_cxx12_Lock_policyE2EE10_M_releaseEv@PLT
	movq	%rbp, %rdi
	call	_Unwind_Resume@PLT
.LEHE16:
	.cfi_endproc
.LFE7904:
	.section	.gcc_except_table
.LLSDA7904:
	.byte	0xff
	.byte	0xff
	.byte	0x1
	.uleb128 .LLSDACSE7904-.LLSDACSB7904
.LLSDACSB7904:
	.uleb128 .LEHB15-.LFB7904
	.uleb128 .LEHE15-.LEHB15
	.uleb128 .L617-.LFB7904
	.uleb128 0
	.uleb128 .LEHB16-.LFB7904
	.uleb128 .LEHE16-.LEHB16
	.uleb128 0
	.uleb128 0
.LLSDACSE7904:
	.text
	.size	_ZN8asiodnp318MasterSessionStack14ScanAllObjectsEN8opendnp316GroupVariationIDERKNS1_10TaskConfigE, .-_ZN8asiodnp318MasterSessionStack14ScanAllObjectsEN8opendnp316GroupVariationIDERKNS1_10TaskConfigE
	.align 2
	.p2align 4,,15
	.globl	_ZN8asiodnp318MasterSessionStack11ScanClassesERKN8opendnp310ClassFieldERKNS1_10TaskConfigE
	.type	_ZN8asiodnp318MasterSessionStack11ScanClassesERKN8opendnp310ClassFieldERKNS1_10TaskConfigE, @function
_ZN8asiodnp318MasterSessionStack11ScanClassesERKN8opendnp310ClassFieldERKNS1_10TaskConfigE:
.LFB7912:
	.cfi_startproc
	.cfi_personality 0x9b,DW.ref.__gxx_personality_v0
	.cfi_lsda 0x1b,.LLSDA7912
	pushq	%r13
	.cfi_def_cfa_offset 16
	.cfi_offset 13, -16
	pushq	%r12
	.cfi_def_cfa_offset 24
	.cfi_offset 12, -24
	pushq	%rbp
	.cfi_def_cfa_offset 32
	.cfi_offset 6, -32
	pushq	%rbx
	.cfi_def_cfa_offset 40
	.cfi_offset 3, -40
	subq	$72, %rsp
	.cfi_def_cfa_offset 112
	movq	24(%rdi), %rbx
	movq	%fs:40, %rax
	movq	%rax, 56(%rsp)
	xorl	%eax, %eax
	testq	%rbx, %rbx
	je	.L647
	movl	8(%rbx), %eax
	leaq	8(%rbx), %rcx
	testl	%eax, %eax
	je	.L647
.L684:
	leal	1(%rax), %r8d
	lock cmpxchgl	%r8d, (%rcx)
	jne	.L688
	cmpq	$0, _ZL28__gthrw___pthread_key_createPjPFvPvE@GOTPCREL(%rip)
	movq	16(%rdi), %r11
	movzbl	(%rsi), %r10d
	movl	(%rdx), %r9d
	movzbl	4(%rdx), %r8d
	movq	8(%rdx), %rax
	movq	32(%rdi), %rsi
	movq	%r11, (%rsp)
	movq	%rbx, 8(%rsp)
	jne	.L689
	addl	$1, 8(%rbx)
.L653:
	movq	%rax, 32(%rsp)
	movq	%rsp, %rdi
	xorl	%eax, %eax
	movb	%r10b, 16(%rsp)
	movl	%r9d, 24(%rsp)
	leaq	48(%rsi), %r13
	movb	%r8b, 28(%rsp)
	movq	40(%rsi), %r12
	call	_ZN4asio28asio_handler_is_continuationEz@PLT
	movl	%eax, %ebp
	.byte	0x66
	leaq	_ZN4asio6detail15keyword_tss_ptrINS0_10call_stackINS0_15task_io_serviceENS0_27task_io_service_thread_infoEE7contextEE6value_E@tlsgd(%rip), %rdi
	.value	0x6666
	rex64
	call	__tls_get_addr@PLT
	movq	(%rax), %rax
	testq	%rax, %rax
	je	.L654
	movq	8(%rax), %rax
	testq	%rax, %rax
	je	.L654
	movq	(%rax), %rdx
	testq	%rdx, %rdx
	je	.L654
	movq	$0, (%rax)
	movzbl	(%rdx), %eax
	cmpb	$63, %al
	jbe	.L655
	movb	%al, 64(%rdx)
	jmp	.L656
	.p2align 4,,10
	.p2align 3
.L655:
	movq	%rdx, %rdi
	call	_ZdlPv@PLT
.L654:
	movl	$65, %edi
.LEHB17:
	call	_Znwm@PLT
.LEHE17:
	movq	%rax, %rdx
	movb	$64, 64(%rax)
.L656:
	leaq	_ZN4asio6detail18completion_handlerIZN8asiodnp318MasterSessionStack11ScanClassesERKN8opendnp310ClassFieldERKNS4_10TaskConfigEEUlvE_E11do_completeEPNS0_15task_io_serviceEPNS0_25task_io_service_operationERKSt10error_codem(%rip), %rax
	pxor	%xmm0, %xmm0
	movq	$0, (%rdx)
	movq	%r12, %rdi
	movl	$0, 16(%rdx)
	movq	%rax, 8(%rdx)
	movq	(%rsp), %rax
	movzbl	%bpl, %ecx
	movq	%r13, %rsi
	movq	%rax, 24(%rdx)
	movq	8(%rsp), %rax
	movaps	%xmm0, (%rsp)
	movq	%rax, 32(%rdx)
	movzbl	16(%rsp), %eax
	movdqu	24(%rsp), %xmm0
	movups	%xmm0, 48(%rdx)
	movb	%al, 40(%rdx)
	call	_ZN4asio6detail14strand_service7do_postERPNS1_11strand_implEPNS0_25task_io_service_operationEb@PLT
	movq	8(%rsp), %rdi
	testq	%rdi, %rdi
	je	.L660
	call	_ZNSt16_Sp_counted_baseILN9__gnu_cxx12_Lock_policyE2EE10_M_releaseEv@PLT
.L660:
	movq	%rbx, %rdi
	call	_ZNSt16_Sp_counted_baseILN9__gnu_cxx12_Lock_policyE2EE10_M_releaseEv@PLT
	movq	56(%rsp), %rax
	xorq	%fs:40, %rax
	jne	.L690
	addq	$72, %rsp
	.cfi_remember_state
	.cfi_def_cfa_offset 40
	popq	%rbx
	.cfi_def_cfa_offset 32
	popq	%rbp
	.cfi_def_cfa_offset 24
	popq	%r12
	.cfi_def_cfa_offset 16
	popq	%r13
	.cfi_def_cfa_offset 8
	ret
	.p2align 4,,10
	.p2align 3
.L689:
	.cfi_restore_state
	lock addl	$1, (%rcx)
	jmp	.L653
.L688:
	testl	%eax, %eax
	jne	.L684
.L647:
.LEHB18:
	call	_ZSt20__throw_bad_weak_ptrv@PLT
.L690:
	call	__stack_chk_fail@PLT
.L662:
	movq	8(%rsp), %rdi
	movq	%rax, %rbp
	testq	%rdi, %rdi
	je	.L658
	call	_ZNSt16_Sp_counted_baseILN9__gnu_cxx12_Lock_policyE2EE10_M_releaseEv@PLT
.L658:
	movq	%rbx, %rdi
	call	_ZNSt16_Sp_counted_baseILN9__gnu_cxx12_Lock_policyE2EE10_M_releaseEv@PLT
	movq	%rbp, %rdi
	call	_Unwind_Resume@PLT
.LEHE18:
	.cfi_endproc
.LFE7912:
	.section	.gcc_except_table
.LLSDA7912:
	.byte	0xff
	.byte	0xff
	.byte	0x1
	.uleb128 .LLSDACSE7912-.LLSDACSB7912
.LLSDACSB7912:
	.uleb128 .LEHB17-.LFB7912
	.uleb128 .LEHE17-.LEHB17
	.uleb128 .L662-.LFB7912
	.uleb128 0
	.uleb128 .LEHB18-.LFB7912
	.uleb128 .LEHE18-.LEHB18
	.uleb128 0
	.uleb128 0
.LLSDACSE7912:
	.text
	.size	_ZN8asiodnp318MasterSessionStack11ScanClassesERKN8opendnp310ClassFieldERKNS1_10TaskConfigE, .-_ZN8asiodnp318MasterSessionStack11ScanClassesERKN8opendnp310ClassFieldERKNS1_10TaskConfigE
	.align 2
	.p2align 4,,15
	.globl	_ZN8asiodnp318MasterSessionStack9ScanRangeEN8opendnp316GroupVariationIDEttRKNS1_10TaskConfigE
	.type	_ZN8asiodnp318MasterSessionStack9ScanRangeEN8opendnp316GroupVariationIDEttRKNS1_10TaskConfigE, @function
_ZN8asiodnp318MasterSessionStack9ScanRangeEN8opendnp316GroupVariationIDEttRKNS1_10TaskConfigE:
.LFB7920:
	.cfi_startproc
	.cfi_personality 0x9b,DW.ref.__gxx_personality_v0
	.cfi_lsda 0x1b,.LLSDA7920
	pushq	%r15
	.cfi_def_cfa_offset 16
	.cfi_offset 15, -16
	pushq	%r14
	.cfi_def_cfa_offset 24
	.cfi_offset 14, -24
	pushq	%r13
	.cfi_def_cfa_offset 32
	.cfi_offset 13, -32
	pushq	%r12
	.cfi_def_cfa_offset 40
	.cfi_offset 12, -40
	pushq	%rbp
	.cfi_def_cfa_offset 48
	.cfi_offset 6, -48
	pushq	%rbx
	.cfi_def_cfa_offset 56
	.cfi_offset 3, -56
	subq	$72, %rsp
	.cfi_def_cfa_offset 128
	movq	24(%rdi), %rbx
	movq	%fs:40, %rax
	movq	%rax, 56(%rsp)
	xorl	%eax, %eax
	testq	%rbx, %rbx
	je	.L692
	movl	8(%rbx), %eax
	leaq	8(%rbx), %r9
	testl	%eax, %eax
	je	.L692
	leal	1(%rax), %r10d
	movl	%edx, %r15d
	movl	%ecx, %r14d
	lock cmpxchgl	%r10d, (%r9)
	jne	.L695
.L694:
	cmpq	$0, _ZL28__gthrw___pthread_key_createPjPFvPvE@GOTPCREL(%rip)
	movq	16(%rdi), %r13
	movl	%esi, %eax
	movzbl	%ah, %eax
	movl	(%r8), %r11d
	movzbl	4(%r8), %r10d
	movl	%eax, %r12d
	movq	32(%rdi), %rbp
	movq	8(%r8), %rax
	movq	%r13, (%rsp)
	movq	%rbx, 8(%rsp)
	jne	.L732
	addl	$1, 8(%rbx)
.L698:
	movq	%rax, 32(%rsp)
	movq	%rsp, %rdi
	xorl	%eax, %eax
	movb	%sil, 16(%rsp)
	movb	%r12b, 17(%rsp)
	addq	$48, %rbp
	movw	%dx, 18(%rsp)
	movw	%cx, 20(%rsp)
	movl	%r11d, 24(%rsp)
	movb	%r10b, 28(%rsp)
	call	_ZN4asio28asio_handler_is_continuationEz@PLT
	movl	%eax, %r12d
	movq	-8(%rbp), %r13
	.byte	0x66
	leaq	_ZN4asio6detail15keyword_tss_ptrINS0_10call_stackINS0_15task_io_serviceENS0_27task_io_service_thread_infoEE7contextEE6value_E@tlsgd(%rip), %rdi
	.value	0x6666
	rex64
	call	__tls_get_addr@PLT
	movq	(%rax), %rax
	testq	%rax, %rax
	je	.L699
	movq	8(%rax), %rax
	testq	%rax, %rax
	je	.L699
	movq	(%rax), %rdx
	testq	%rdx, %rdx
	je	.L699
	movq	$0, (%rax)
	movzbl	(%rdx), %eax
	cmpb	$63, %al
	jbe	.L700
	movb	%al, 64(%rdx)
	jmp	.L701
	.p2align 4,,10
	.p2align 3
.L700:
	movq	%rdx, %rdi
	call	_ZdlPv@PLT
.L699:
	movl	$65, %edi
.LEHB19:
	call	_Znwm@PLT
.LEHE19:
	movzwl	18(%rsp), %r15d
	movzwl	20(%rsp), %r14d
	movq	%rax, %rdx
	movb	$64, 64(%rax)
.L701:
	leaq	_ZN4asio6detail18completion_handlerIZN8asiodnp318MasterSessionStack9ScanRangeEN8opendnp316GroupVariationIDEttRKNS4_10TaskConfigEEUlvE_E11do_completeEPNS0_15task_io_serviceEPNS0_25task_io_service_operationERKSt10error_codem(%rip), %rax
	pxor	%xmm0, %xmm0
	movq	$0, (%rdx)
	movq	%r13, %rdi
	movl	$0, 16(%rdx)
	movq	%rax, 8(%rdx)
	movq	(%rsp), %rax
	movzbl	%r12b, %ecx
	movw	%r15w, 42(%rdx)
	movw	%r14w, 44(%rdx)
	movq	%rbp, %rsi
	movq	%rax, 24(%rdx)
	movq	8(%rsp), %rax
	movaps	%xmm0, (%rsp)
	movq	%rax, 32(%rdx)
	movzwl	16(%rsp), %eax
	movdqu	24(%rsp), %xmm0
	movups	%xmm0, 48(%rdx)
	movw	%ax, 40(%rdx)
	call	_ZN4asio6detail14strand_service7do_postERPNS1_11strand_implEPNS0_25task_io_service_operationEb@PLT
	movq	8(%rsp), %rdi
	testq	%rdi, %rdi
	je	.L705
	call	_ZNSt16_Sp_counted_baseILN9__gnu_cxx12_Lock_policyE2EE10_M_releaseEv@PLT
.L705:
	movq	%rbx, %rdi
	call	_ZNSt16_Sp_counted_baseILN9__gnu_cxx12_Lock_policyE2EE10_M_releaseEv@PLT
	movq	56(%rsp), %rax
	xorq	%fs:40, %rax
	jne	.L733
	addq	$72, %rsp
	.cfi_remember_state
	.cfi_def_cfa_offset 56
	popq	%rbx
	.cfi_def_cfa_offset 48
	popq	%rbp
	.cfi_def_cfa_offset 40
	popq	%r12
	.cfi_def_cfa_offset 32
	popq	%r13
	.cfi_def_cfa_offset 24
	popq	%r14
	.cfi_def_cfa_offset 16
	popq	%r15
	.cfi_def_cfa_offset 8
	ret
	.p2align 4,,10
	.p2align 3
.L732:
	.cfi_restore_state
	lock addl	$1, (%r9)
	jmp	.L698
.L692:
.LEHB20:
	call	_ZSt20__throw_bad_weak_ptrv@PLT
.L733:
	call	__stack_chk_fail@PLT
.L695:
	testl	%eax, %eax
	je	.L692
	leal	1(%rax), %r10d
	lock cmpxchgl	%r10d, (%r9)
	je	.L694
	jmp	.L695
.L707:
	movq	8(%rsp), %rdi
	movq	%rax, %rbp
	testq	%rdi, %rdi
	je	.L703
	call	_ZNSt16_Sp_counted_baseILN9__gnu_cxx12_Lock_policyE2EE10_M_releaseEv@PLT
.L703:
	movq	%rbx, %rdi
	call	_ZNSt16_Sp_counted_baseILN9__gnu_cxx12_Lock_policyE2EE10_M_releaseEv@PLT
	movq	%rbp, %rdi
	call	_Unwind_Resume@PLT
.LEHE20:
	.cfi_endproc
.LFE7920:
	.section	.gcc_except_table
.LLSDA7920:
	.byte	0xff
	.byte	0xff
	.byte	0x1
	.uleb128 .LLSDACSE7920-.LLSDACSB7920
.LLSDACSB7920:
	.uleb128 .LEHB19-.LFB7920
	.uleb128 .LEHE19-.LEHB19
	.uleb128 .L707-.LFB7920
	.uleb128 0
	.uleb128 .LEHB20-.LFB7920
	.uleb128 .LEHE20-.LEHB20
	.uleb128 0
	.uleb128 0
.LLSDACSE7920:
	.text
	.size	_ZN8asiodnp318MasterSessionStack9ScanRangeEN8opendnp316GroupVariationIDEttRKNS1_10TaskConfigE, .-_ZN8asiodnp318MasterSessionStack9ScanRangeEN8opendnp316GroupVariationIDEttRKNS1_10TaskConfigE
	.align 2
	.p2align 4,,15
	.globl	_ZN8asiodnp318MasterSessionStack5WriteERKN8opendnp315TimeAndIntervalEtRKNS1_10TaskConfigE
	.type	_ZN8asiodnp318MasterSessionStack5WriteERKN8opendnp315TimeAndIntervalEtRKNS1_10TaskConfigE, @function
_ZN8asiodnp318MasterSessionStack5WriteERKN8opendnp315TimeAndIntervalEtRKNS1_10TaskConfigE:
.LFB7928:
	.cfi_startproc
	.cfi_personality 0x9b,DW.ref.__gxx_personality_v0
	.cfi_lsda 0x1b,.LLSDA7928
	pushq	%r13
	.cfi_def_cfa_offset 16
	.cfi_offset 13, -16
	pushq	%r12
	.cfi_def_cfa_offset 24
	.cfi_offset 12, -24
	pushq	%rbp
	.cfi_def_cfa_offset 32
	.cfi_offset 6, -32
	pushq	%rbx
	.cfi_def_cfa_offset 40
	.cfi_offset 3, -40
	subq	$88, %rsp
	.cfi_def_cfa_offset 128
	movq	24(%rdi), %rbx
	movq	%fs:40, %rax
	movq	%rax, 72(%rsp)
	xorl	%eax, %eax
	testq	%rbx, %rbx
	je	.L735
	movl	8(%rbx), %eax
	leaq	8(%rbx), %r8
	testl	%eax, %eax
	je	.L735
.L772:
	leal	1(%rax), %r9d
	lock cmpxchgl	%r9d, (%r8)
	jne	.L776
	cmpq	$0, _ZL28__gthrw___pthread_key_createPjPFvPvE@GOTPCREL(%rip)
	movq	16(%rdi), %r13
	movq	(%rsi), %r12
	movl	8(%rsi), %ebp
	movzbl	12(%rsi), %r11d
	movl	(%rcx), %r10d
	movzbl	4(%rcx), %r9d
	movq	8(%rcx), %rax
	movq	32(%rdi), %rsi
	movq	%r13, (%rsp)
	movq	%rbx, 8(%rsp)
	jne	.L777
	addl	$1, 8(%rbx)
.L741:
	movq	%rax, 48(%rsp)
	movq	%rsp, %rdi
	xorl	%eax, %eax
	movq	%r12, 16(%rsp)
	movl	%ebp, 24(%rsp)
	leaq	48(%rsi), %r13
	movb	%r11b, 28(%rsp)
	movw	%dx, 32(%rsp)
	movl	%r10d, 40(%rsp)
	movb	%r9b, 44(%rsp)
	movq	40(%rsi), %r12
	call	_ZN4asio28asio_handler_is_continuationEz@PLT
	movl	%eax, %ebp
	.byte	0x66
	leaq	_ZN4asio6detail15keyword_tss_ptrINS0_10call_stackINS0_15task_io_serviceENS0_27task_io_service_thread_infoEE7contextEE6value_E@tlsgd(%rip), %rdi
	.value	0x6666
	rex64
	call	__tls_get_addr@PLT
	movq	(%rax), %rax
	testq	%rax, %rax
	je	.L742
	movq	8(%rax), %rax
	testq	%rax, %rax
	je	.L742
	movq	(%rax), %rdx
	testq	%rdx, %rdx
	je	.L742
	movq	$0, (%rax)
	movzbl	(%rdx), %eax
	cmpb	$79, %al
	jbe	.L743
	movb	%al, 80(%rdx)
	jmp	.L744
	.p2align 4,,10
	.p2align 3
.L743:
	movq	%rdx, %rdi
	call	_ZdlPv@PLT
.L742:
	movl	$81, %edi
.LEHB21:
	call	_Znwm@PLT
.LEHE21:
	movq	%rax, %rdx
	movb	$80, 80(%rax)
.L744:
	leaq	_ZN4asio6detail18completion_handlerIZN8asiodnp318MasterSessionStack5WriteERKN8opendnp315TimeAndIntervalEtRKNS4_10TaskConfigEEUlvE_E11do_completeEPNS0_15task_io_serviceEPNS0_25task_io_service_operationERKSt10error_codem(%rip), %rax
	pxor	%xmm0, %xmm0
	movq	$0, (%rdx)
	movq	%r12, %rdi
	movl	$0, 16(%rdx)
	movq	%rax, 8(%rdx)
	movq	(%rsp), %rax
	movzbl	%bpl, %ecx
	movq	%r13, %rsi
	movq	%rax, 24(%rdx)
	movq	8(%rsp), %rax
	movaps	%xmm0, (%rsp)
	movdqa	16(%rsp), %xmm0
	movq	%rax, 32(%rdx)
	movzwl	32(%rsp), %eax
	movups	%xmm0, 40(%rdx)
	movdqu	40(%rsp), %xmm0
	movw	%ax, 56(%rdx)
	movups	%xmm0, 64(%rdx)
	call	_ZN4asio6detail14strand_service7do_postERPNS1_11strand_implEPNS0_25task_io_service_operationEb@PLT
	movq	8(%rsp), %rdi
	testq	%rdi, %rdi
	je	.L748
	call	_ZNSt16_Sp_counted_baseILN9__gnu_cxx12_Lock_policyE2EE10_M_releaseEv@PLT
.L748:
	movq	%rbx, %rdi
	call	_ZNSt16_Sp_counted_baseILN9__gnu_cxx12_Lock_policyE2EE10_M_releaseEv@PLT
	movq	72(%rsp), %rax
	xorq	%fs:40, %rax
	jne	.L778
	addq	$88, %rsp
	.cfi_remember_state
	.cfi_def_cfa_offset 40
	popq	%rbx
	.cfi_def_cfa_offset 32
	popq	%rbp
	.cfi_def_cfa_offset 24
	popq	%r12
	.cfi_def_cfa_offset 16
	popq	%r13
	.cfi_def_cfa_offset 8
	ret
	.p2align 4,,10
	.p2align 3
.L777:
	.cfi_restore_state
	lock addl	$1, (%r8)
	jmp	.L741
.L776:
	testl	%eax, %eax
	jne	.L772
.L735:
.LEHB22:
	call	_ZSt20__throw_bad_weak_ptrv@PLT
.L778:
	call	__stack_chk_fail@PLT
.L750:
	movq	8(%rsp), %rdi
	movq	%rax, %rbp
	testq	%rdi, %rdi
	je	.L746
	call	_ZNSt16_Sp_counted_baseILN9__gnu_cxx12_Lock_policyE2EE10_M_releaseEv@PLT
.L746:
	movq	%rbx, %rdi
	call	_ZNSt16_Sp_counted_baseILN9__gnu_cxx12_Lock_policyE2EE10_M_releaseEv@PLT
	movq	%rbp, %rdi
	call	_Unwind_Resume@PLT
.LEHE22:
	.cfi_endproc
.LFE7928:
	.section	.gcc_except_table
.LLSDA7928:
	.byte	0xff
	.byte	0xff
	.byte	0x1
	.uleb128 .LLSDACSE7928-.LLSDACSB7928
.LLSDACSB7928:
	.uleb128 .LEHB21-.LFB7928
	.uleb128 .LEHE21-.LEHB21
	.uleb128 .L750-.LFB7928
	.uleb128 0
	.uleb128 .LEHB22-.LFB7928
	.uleb128 .LEHE22-.LEHB22
	.uleb128 0
	.uleb128 0
.LLSDACSE7928:
	.text
	.size	_ZN8asiodnp318MasterSessionStack5WriteERKN8opendnp315TimeAndIntervalEtRKNS1_10TaskConfigE, .-_ZN8asiodnp318MasterSessionStack5WriteERKN8opendnp315TimeAndIntervalEtRKNS1_10TaskConfigE
	.section	.text.unlikely
	.align 2
	.type	_ZZN8asiodnp318MasterSessionStack15PerformFunctionERKNSt7__cxx1112basic_stringIcSt11char_traitsIcESaIcEEEN8opendnp312FunctionCodeERKSt6vectorINS9_6HeaderESaISC_EERKNS9_10TaskConfigEENUlvE_D2Ev, @function
_ZZN8asiodnp318MasterSessionStack15PerformFunctionERKNSt7__cxx1112basic_stringIcSt11char_traitsIcESaIcEEEN8opendnp312FunctionCodeERKSt6vectorINS9_6HeaderESaISC_EERKNS9_10TaskConfigEENUlvE_D2Ev:
.LFB7950:
	.cfi_startproc
	.cfi_personality 0x9b,DW.ref.__gxx_personality_v0
	.cfi_lsda 0x1b,.LLSDA7950
	pushq	%rbx
	.cfi_def_cfa_offset 16
	.cfi_offset 3, -16
	movq	72(%rdi), %rax
	movq	%rdi, %rbx
	testq	%rax, %rax
	je	.L780
	leaq	56(%rdi), %rdi
	movl	$3, %edx
	movq	%rdi, %rsi
	call	*%rax
.L780:
	movq	16(%rbx), %rdi
	leaq	32(%rbx), %rax
	cmpq	%rax, %rdi
	je	.L781
	call	_ZdlPv@PLT
.L781:
	movq	8(%rbx), %rdi
	testq	%rdi, %rdi
	je	.L779
	popq	%rbx
	.cfi_remember_state
	.cfi_def_cfa_offset 8
	jmp	_ZNSt16_Sp_counted_baseILN9__gnu_cxx12_Lock_policyE2EE10_M_releaseEv@PLT
.L779:
	.cfi_restore_state
	popq	%rbx
	.cfi_def_cfa_offset 8
	ret
	.cfi_endproc
.LFE7950:
	.section	.gcc_except_table
.LLSDA7950:
	.byte	0xff
	.byte	0xff
	.byte	0x1
	.uleb128 .LLSDACSE7950-.LLSDACSB7950
.LLSDACSB7950:
.LLSDACSE7950:
	.section	.text.unlikely
	.size	_ZZN8asiodnp318MasterSessionStack15PerformFunctionERKNSt7__cxx1112basic_stringIcSt11char_traitsIcESaIcEEEN8opendnp312FunctionCodeERKSt6vectorINS9_6HeaderESaISC_EERKNS9_10TaskConfigEENUlvE_D2Ev, .-_ZZN8asiodnp318MasterSessionStack15PerformFunctionERKNSt7__cxx1112basic_stringIcSt11char_traitsIcESaIcEEEN8opendnp312FunctionCodeERKSt6vectorINS9_6HeaderESaISC_EERKNS9_10TaskConfigEENUlvE_D2Ev
	.set	_ZZN8asiodnp318MasterSessionStack15PerformFunctionERKNSt7__cxx1112basic_stringIcSt11char_traitsIcESaIcEEEN8opendnp312FunctionCodeERKSt6vectorINS9_6HeaderESaISC_EERKNS9_10TaskConfigEENUlvE_D1Ev,_ZZN8asiodnp318MasterSessionStack15PerformFunctionERKNSt7__cxx1112basic_stringIcSt11char_traitsIcESaIcEEEN8opendnp312FunctionCodeERKSt6vectorINS9_6HeaderESaISC_EERKNS9_10TaskConfigEENUlvE_D2Ev
	.section	.text._ZN4asio6detail18completion_handlerIZN7asiopal8Executor10ReturnFromISt10shared_ptrIN8opendnp311IMasterTaskEEEET_RKSt8functionIFS9_vEEEUlvE_E11do_completeEPNS0_15task_io_serviceEPNS0_25task_io_service_operationERKSt10error_codem,"axG",@progbits,_ZN4asio6detail18completion_handlerIZN7asiopal8Executor10ReturnFromISt10shared_ptrIN8opendnp311IMasterTaskEEEET_RKSt8functionIFS9_vEEEUlvE_E11do_completeEPNS0_15task_io_serviceEPNS0_25task_io_service_operationERKSt10error_codem,comdat
	.p2align 4,,15
	.weak	_ZN4asio6detail18completion_handlerIZN7asiopal8Executor10ReturnFromISt10shared_ptrIN8opendnp311IMasterTaskEEEET_RKSt8functionIFS9_vEEEUlvE_E11do_completeEPNS0_15task_io_serviceEPNS0_25task_io_service_operationERKSt10error_codem
	.type	_ZN4asio6detail18completion_handlerIZN7asiopal8Executor10ReturnFromISt10shared_ptrIN8opendnp311IMasterTaskEEEET_RKSt8functionIFS9_vEEEUlvE_E11do_completeEPNS0_15task_io_serviceEPNS0_25task_io_service_operationERKSt10error_codem, @function
_ZN4asio6detail18completion_handlerIZN7asiopal8Executor10ReturnFromISt10shared_ptrIN8opendnp311IMasterTaskEEEET_RKSt8functionIFS9_vEEEUlvE_E11do_completeEPNS0_15task_io_serviceEPNS0_25task_io_service_operationERKSt10error_codem:
.LFB10639:
	.cfi_startproc
	.cfi_personality 0x9b,DW.ref.__gxx_personality_v0
	.cfi_lsda 0x1b,.LLSDA10639
	pushq	%r13
	.cfi_def_cfa_offset 16
	.cfi_offset 13, -16
	pushq	%r12
	.cfi_def_cfa_offset 24
	.cfi_offset 12, -24
	movq	%rdi, %r13
	pushq	%rbp
	.cfi_def_cfa_offset 32
	.cfi_offset 6, -32
	pushq	%rbx
	.cfi_def_cfa_offset 40
	.cfi_offset 3, -40
	movq	%rsi, %rbx
	subq	$168, %rsp
	.cfi_def_cfa_offset 208
	movq	24(%rsi), %r12
	movq	32(%rsi), %rbp
	movq	%fs:40, %rax
	movq	%rax, 152(%rsp)
	xorl	%eax, %eax
	.byte	0x66
	leaq	_ZN4asio6detail15keyword_tss_ptrINS0_10call_stackINS0_15task_io_serviceENS0_27task_io_service_thread_infoEE7contextEE6value_E@tlsgd(%rip), %rdi
	.value	0x6666
	rex64
	call	__tls_get_addr@PLT
	movq	(%rax), %rax
	testq	%rax, %rax
	je	.L788
	movq	8(%rax), %rax
	testq	%rax, %rax
	je	.L788
	cmpq	$0, (%rax)
	je	.L828
.L788:
	movq	%rbx, %rdi
	call	_ZdlPv@PLT
.L789:
	testq	%r13, %r13
	je	.L787
	cmpq	$0, 16(%rbp)
	je	.L829
	leaq	48(%rsp), %r13
	movq	%rbp, %rsi
	movq	%r13, %rdi
.LEHB23:
	call	*24(%rbp)
.LEHE23:
	movq	(%r12), %rbx
	testq	%rbx, %rbx
	je	.L830
	leaq	23(%rsp), %rax
	movq	_ZNSt14_Function_base13_Base_managerINSt13__future_base13_State_baseV27_SetterISt10shared_ptrIN8opendnp311IMasterTaskEEOS7_EEE10_M_managerERSt9_Any_dataRKSB_St18_Manager_operation@GOTPCREL(%rip), %xmm0
	movhps	_ZNSt17_Function_handlerIFSt10unique_ptrINSt13__future_base12_Result_baseENS2_8_DeleterEEvENS1_13_State_baseV27_SetterISt10shared_ptrIN8opendnp311IMasterTaskEEOSB_EEE9_M_invokeERKSt9_Any_data@GOTPCREL(%rip), %xmm0
	leaq	112(%rsp), %rbp
	movq	%r12, 112(%rsp)
	movq	%rax, 40(%rsp)
	movq	_ZNSt13__future_base13_State_baseV29_M_do_setEPSt8functionIFSt10unique_ptrINS_12_Result_baseENS3_8_DeleterEEvEEPb@GOTPCREL(%rip), %rax
	movaps	%xmm0, 128(%rsp)
	movq	%r13, 120(%rsp)
	movb	$0, 23(%rsp)
	movq	%rax, 64(%rsp)
	leaq	64(%rsp), %rax
	movq	%rbp, 32(%rsp)
	movq	%rbx, 24(%rsp)
	movq	$0, 72(%rsp)
	movq	%rax, 8(%rsp)
	leaq	24(%rsp), %rax
	movq	8(%rsp), %xmm0
	movq	%rax, 8(%rsp)
	leaq	32(%rsp), %rax
	movhps	8(%rsp), %xmm0
	movq	%rax, 8(%rsp)
	leaq	40(%rsp), %rax
	movaps	%xmm0, 80(%rsp)
	movq	8(%rsp), %xmm0
	movq	%rax, 8(%rsp)
	movhps	8(%rsp), %xmm0
	movaps	%xmm0, 96(%rsp)
	.byte	0x66
	leaq	_ZSt15__once_callable@tlsgd(%rip), %rdi
	.value	0x6666
	rex64
	call	__tls_get_addr@PLT
	leaq	80(%rsp), %rdx
	movq	%rdx, (%rax)
	.byte	0x66
	leaq	_ZSt11__once_call@tlsgd(%rip), %rdi
	.value	0x6666
	rex64
	call	__tls_get_addr@PLT
	cmpq	$0, _ZL28__gthrw___pthread_key_createPjPFvPvE@GOTPCREL(%rip)
	movq	_ZZSt9call_onceIMNSt13__future_base13_State_baseV2EFvPSt8functionIFSt10unique_ptrINS0_12_Result_baseENS4_8_DeleterEEvEEPbEJPS1_S9_SA_EEvRSt9once_flagOT_DpOT0_ENUlvE0_4_FUNEv@GOTPCREL(%rip), %rdx
	leaq	24(%rbx), %rdi
	movq	%rdx, (%rax)
	je	.L808
	movq	__once_proxy@GOTPCREL(%rip), %rsi
.LEHB24:
	call	_ZL20__gthrw_pthread_oncePiPFvvE@PLT
	testl	%eax, %eax
	jne	.L793
	cmpb	$0, 23(%rsp)
	jne	.L831
	movl	$2, %edi
	call	_ZSt20__throw_future_errori@PLT
	.p2align 4,,10
	.p2align 3
.L831:
	leaq	16(%rbx), %rdi
	movl	$1, %eax
	xchgl	(%rdi), %eax
	testl	%eax, %eax
	jns	.L799
	call	_ZNSt28__atomic_futex_unsigned_base19_M_futex_notify_allEPj@PLT
.LEHE24:
.L799:
	movq	128(%rsp), %rax
	testq	%rax, %rax
	je	.L798
	movl	$3, %edx
	movq	%rbp, %rsi
	movq	%rbp, %rdi
	call	*%rax
.L798:
	movq	56(%rsp), %rdi
	testq	%rdi, %rdi
	je	.L801
	call	_ZNSt16_Sp_counted_baseILN9__gnu_cxx12_Lock_policyE2EE10_M_releaseEv@PLT
.L801:
	sfence
.L787:
	movq	152(%rsp), %rax
	xorq	%fs:40, %rax
	jne	.L832
	addq	$168, %rsp
	.cfi_remember_state
	.cfi_def_cfa_offset 40
	popq	%rbx
	.cfi_def_cfa_offset 32
	popq	%rbp
	.cfi_def_cfa_offset 24
	popq	%r12
	.cfi_def_cfa_offset 16
	popq	%r13
	.cfi_def_cfa_offset 8
	ret
	.p2align 4,,10
	.p2align 3
.L828:
	.cfi_restore_state
	movzbl	40(%rbx), %edx
	movb	%dl, (%rbx)
	movq	%rbx, (%rax)
	jmp	.L789
.L811:
	movq	%rax, %rbx
	movq	128(%rsp), %rax
	testq	%rax, %rax
	je	.L804
	movl	$3, %edx
	movq	%rbp, %rsi
	movq	%rbp, %rdi
	call	*%rax
.L804:
	movq	56(%rsp), %rdi
	testq	%rdi, %rdi
	je	.L805
	call	_ZNSt16_Sp_counted_baseILN9__gnu_cxx12_Lock_policyE2EE10_M_releaseEv@PLT
.L805:
	movq	%rbx, %rax
.L806:
	movq	%rax, %rdi
	sfence
.LEHB25:
	call	_Unwind_Resume@PLT
.LEHE25:
.L808:
	orl	$-1, %eax
.L793:
	movl	%eax, %edi
.LEHB26:
	call	_ZSt20__throw_system_errori@PLT
.LEHE26:
.L830:
	movl	$3, %edi
.LEHB27:
	call	_ZSt20__throw_future_errori@PLT
.LEHE27:
.L810:
	movq	%rax, %rbx
	jmp	.L804
.L829:
.LEHB28:
	call	_ZSt25__throw_bad_function_callv@PLT
.LEHE28:
.L809:
	jmp	.L806
.L832:
	call	__stack_chk_fail@PLT
	.cfi_endproc
.LFE10639:
	.section	.gcc_except_table
.LLSDA10639:
	.byte	0xff
	.byte	0xff
	.byte	0x1
	.uleb128 .LLSDACSE10639-.LLSDACSB10639
.LLSDACSB10639:
	.uleb128 .LEHB23-.LFB10639
	.uleb128 .LEHE23-.LEHB23
	.uleb128 .L809-.LFB10639
	.uleb128 0
	.uleb128 .LEHB24-.LFB10639
	.uleb128 .LEHE24-.LEHB24
	.uleb128 .L811-.LFB10639
	.uleb128 0
	.uleb128 .LEHB25-.LFB10639
	.uleb128 .LEHE25-.LEHB25
	.uleb128 0
	.uleb128 0
	.uleb128 .LEHB26-.LFB10639
	.uleb128 .LEHE26-.LEHB26
	.uleb128 .L811-.LFB10639
	.uleb128 0
	.uleb128 .LEHB27-.LFB10639
	.uleb128 .LEHE27-.LEHB27
	.uleb128 .L810-.LFB10639
	.uleb128 0
	.uleb128 .LEHB28-.LFB10639
	.uleb128 .LEHE28-.LEHB28
	.uleb128 .L809-.LFB10639
	.uleb128 0
.LLSDACSE10639:
	.section	.text._ZN4asio6detail18completion_handlerIZN7asiopal8Executor10ReturnFromISt10shared_ptrIN8opendnp311IMasterTaskEEEET_RKSt8functionIFS9_vEEEUlvE_E11do_completeEPNS0_15task_io_serviceEPNS0_25task_io_service_operationERKSt10error_codem,"axG",@progbits,_ZN4asio6detail18completion_handlerIZN7asiopal8Executor10ReturnFromISt10shared_ptrIN8opendnp311IMasterTaskEEEET_RKSt8functionIFS9_vEEEUlvE_E11do_completeEPNS0_15task_io_serviceEPNS0_25task_io_service_operationERKSt10error_codem,comdat
	.size	_ZN4asio6detail18completion_handlerIZN7asiopal8Executor10ReturnFromISt10shared_ptrIN8opendnp311IMasterTaskEEEET_RKSt8functionIFS9_vEEEUlvE_E11do_completeEPNS0_15task_io_serviceEPNS0_25task_io_service_operationERKSt10error_codem, .-_ZN4asio6detail18completion_handlerIZN7asiopal8Executor10ReturnFromISt10shared_ptrIN8opendnp311IMasterTaskEEEET_RKSt8functionIFS9_vEEEUlvE_E11do_completeEPNS0_15task_io_serviceEPNS0_25task_io_service_operationERKSt10error_codem
	.section	.text._ZNSt13__future_base7_ResultISt10shared_ptrIN8opendnp311IMasterTaskEEED2Ev,"axG",@progbits,_ZNSt13__future_base7_ResultISt10shared_ptrIN8opendnp311IMasterTaskEEED5Ev,comdat
	.align 2
	.p2align 4,,15
	.weak	_ZNSt13__future_base7_ResultISt10shared_ptrIN8opendnp311IMasterTaskEEED2Ev
	.type	_ZNSt13__future_base7_ResultISt10shared_ptrIN8opendnp311IMasterTaskEEED2Ev, @function
_ZNSt13__future_base7_ResultISt10shared_ptrIN8opendnp311IMasterTaskEEED2Ev:
.LFB11509:
	.cfi_startproc
	movq	_ZTVNSt13__future_base7_ResultISt10shared_ptrIN8opendnp311IMasterTaskEEEE@GOTPCREL(%rip), %rax
	pushq	%rbx
	.cfi_def_cfa_offset 16
	.cfi_offset 3, -16
	movq	%rdi, %rbx
	addq	$16, %rax
	cmpb	$0, 32(%rdi)
	movq	%rax, (%rdi)
	je	.L834
	movq	24(%rdi), %rdi
	testq	%rdi, %rdi
	je	.L834
	call	_ZNSt16_Sp_counted_baseILN9__gnu_cxx12_Lock_policyE2EE10_M_releaseEv@PLT
.L834:
	movq	%rbx, %rdi
	popq	%rbx
	.cfi_def_cfa_offset 8
	jmp	_ZNSt13__future_base12_Result_baseD2Ev@PLT
	.cfi_endproc
.LFE11509:
	.size	_ZNSt13__future_base7_ResultISt10shared_ptrIN8opendnp311IMasterTaskEEED2Ev, .-_ZNSt13__future_base7_ResultISt10shared_ptrIN8opendnp311IMasterTaskEEED2Ev
	.weak	_ZNSt13__future_base7_ResultISt10shared_ptrIN8opendnp311IMasterTaskEEED1Ev
	.set	_ZNSt13__future_base7_ResultISt10shared_ptrIN8opendnp311IMasterTaskEEED1Ev,_ZNSt13__future_base7_ResultISt10shared_ptrIN8opendnp311IMasterTaskEEED2Ev
	.section	.text._ZNSt13__future_base7_ResultISt10shared_ptrIN8opendnp311IMasterTaskEEED0Ev,"axG",@progbits,_ZNSt13__future_base7_ResultISt10shared_ptrIN8opendnp311IMasterTaskEEED5Ev,comdat
	.align 2
	.p2align 4,,15
	.weak	_ZNSt13__future_base7_ResultISt10shared_ptrIN8opendnp311IMasterTaskEEED0Ev
	.type	_ZNSt13__future_base7_ResultISt10shared_ptrIN8opendnp311IMasterTaskEEED0Ev, @function
_ZNSt13__future_base7_ResultISt10shared_ptrIN8opendnp311IMasterTaskEEED0Ev:
.LFB11511:
	.cfi_startproc
	movq	_ZTVNSt13__future_base7_ResultISt10shared_ptrIN8opendnp311IMasterTaskEEEE@GOTPCREL(%rip), %rax
	pushq	%rbx
	.cfi_def_cfa_offset 16
	.cfi_offset 3, -16
	movq	%rdi, %rbx
	addq	$16, %rax
	cmpb	$0, 32(%rdi)
	movq	%rax, (%rdi)
	je	.L841
	movq	24(%rdi), %rdi
	testq	%rdi, %rdi
	je	.L841
	call	_ZNSt16_Sp_counted_baseILN9__gnu_cxx12_Lock_policyE2EE10_M_releaseEv@PLT
.L841:
	movq	%rbx, %rdi
	call	_ZNSt13__future_base12_Result_baseD2Ev@PLT
	movq	%rbx, %rdi
	movl	$40, %esi
	popq	%rbx
	.cfi_def_cfa_offset 8
	jmp	_ZdlPvm@PLT
	.cfi_endproc
.LFE11511:
	.size	_ZNSt13__future_base7_ResultISt10shared_ptrIN8opendnp311IMasterTaskEEED0Ev, .-_ZNSt13__future_base7_ResultISt10shared_ptrIN8opendnp311IMasterTaskEEED0Ev
	.section	.text._ZNSt13__future_base7_ResultISt10shared_ptrIN8opendnp311IMasterTaskEEE10_M_destroyEv,"axG",@progbits,_ZNSt13__future_base7_ResultISt10shared_ptrIN8opendnp311IMasterTaskEEE10_M_destroyEv,comdat
	.align 2
	.p2align 4,,15
	.weak	_ZNSt13__future_base7_ResultISt10shared_ptrIN8opendnp311IMasterTaskEEE10_M_destroyEv
	.type	_ZNSt13__future_base7_ResultISt10shared_ptrIN8opendnp311IMasterTaskEEE10_M_destroyEv, @function
_ZNSt13__future_base7_ResultISt10shared_ptrIN8opendnp311IMasterTaskEEE10_M_destroyEv:
.LFB11507:
	.cfi_startproc
	movq	(%rdi), %rax
	movq	16(%rax), %rax
	cmpq	_ZNSt13__future_base7_ResultISt10shared_ptrIN8opendnp311IMasterTaskEEED0Ev@GOTPCREL(%rip), %rax
	jne	.L848
	movq	_ZTVNSt13__future_base7_ResultISt10shared_ptrIN8opendnp311IMasterTaskEEEE@GOTPCREL(%rip), %rax
	pushq	%rbx
	.cfi_def_cfa_offset 16
	.cfi_offset 3, -16
	movq	%rdi, %rbx
	addq	$16, %rax
	cmpb	$0, 32(%rdi)
	movq	%rax, (%rdi)
	je	.L849
	movq	24(%rdi), %rdi
	testq	%rdi, %rdi
	je	.L849
	call	_ZNSt16_Sp_counted_baseILN9__gnu_cxx12_Lock_policyE2EE10_M_releaseEv@PLT
.L849:
	movq	%rbx, %rdi
	call	_ZNSt13__future_base12_Result_baseD2Ev@PLT
	movq	%rbx, %rdi
	movl	$40, %esi
	popq	%rbx
	.cfi_restore 3
	.cfi_def_cfa_offset 8
	jmp	_ZdlPvm@PLT
	.p2align 4,,10
	.p2align 3
.L848:
	jmp	*%rax
	.cfi_endproc
.LFE11507:
	.size	_ZNSt13__future_base7_ResultISt10shared_ptrIN8opendnp311IMasterTaskEEE10_M_destroyEv, .-_ZNSt13__future_base7_ResultISt10shared_ptrIN8opendnp311IMasterTaskEEE10_M_destroyEv
	.text
	.align 2
	.p2align 4,,15
	.globl	_ZN8asiodnp318MasterSessionStack6DemandERKSt10shared_ptrIN8opendnp311IMasterTaskEE
	.type	_ZN8asiodnp318MasterSessionStack6DemandERKSt10shared_ptrIN8opendnp311IMasterTaskEE, @function
_ZN8asiodnp318MasterSessionStack6DemandERKSt10shared_ptrIN8opendnp311IMasterTaskEE:
.LFB7786:
	.cfi_startproc
	.cfi_personality 0x9b,DW.ref.__gxx_personality_v0
	.cfi_lsda 0x1b,.LLSDA7786
	pushq	%r13
	.cfi_def_cfa_offset 16
	.cfi_offset 13, -16
	pushq	%r12
	.cfi_def_cfa_offset 24
	.cfi_offset 12, -24
	pushq	%rbp
	.cfi_def_cfa_offset 32
	.cfi_offset 6, -32
	pushq	%rbx
	.cfi_def_cfa_offset 40
	.cfi_offset 3, -40
	subq	$88, %rsp
	.cfi_def_cfa_offset 128
	movq	%fs:40, %rax
	movq	%rax, 72(%rsp)
	xorl	%eax, %eax
	movq	(%rsi), %rax
	movq	%rax, (%rsp)
	movq	8(%rsi), %rax
	testq	%rax, %rax
	movq	%rax, 8(%rsp)
	je	.L858
	cmpq	$0, _ZL28__gthrw___pthread_key_createPjPFvPvE@GOTPCREL(%rip)
	jne	.L928
	addl	$1, 8(%rax)
.L858:
	movq	24(%rdi), %rax
	testq	%rax, %rax
	movq	%rax, 24(%rsp)
	je	.L860
	leaq	8(%rax), %rdx
	movl	8(%rax), %eax
	testl	%eax, %eax
	je	.L861
.L925:
	leal	1(%rax), %ecx
	lock cmpxchgl	%ecx, (%rdx)
	jne	.L929
	movq	(%rsp), %rax
	movq	16(%rdi), %rdx
	movq	32(%rdi), %rsi
	movq	%rax, 32(%rsp)
	movq	8(%rsp), %rax
	movq	%rdx, 16(%rsp)
	testq	%rax, %rax
	movq	%rax, 40(%rsp)
	je	.L865
	cmpq	$0, _ZL28__gthrw___pthread_key_createPjPFvPvE@GOTPCREL(%rip)
	jne	.L930
	addl	$1, 8(%rax)
	movq	24(%rsp), %rax
	movq	%rdx, 48(%rsp)
	testq	%rax, %rax
	movq	%rax, 56(%rsp)
	je	.L868
.L869:
	addl	$1, 8(%rax)
.L868:
	leaq	32(%rsp), %r13
	xorl	%eax, %eax
	movq	40(%rsi), %r12
	leaq	48(%rsi), %rbx
	movq	%r13, %rdi
	call	_ZN4asio28asio_handler_is_continuationEz@PLT
	movl	%eax, %ebp
	.byte	0x66
	leaq	_ZN4asio6detail15keyword_tss_ptrINS0_10call_stackINS0_15task_io_serviceENS0_27task_io_service_thread_infoEE7contextEE6value_E@tlsgd(%rip), %rdi
	.value	0x6666
	rex64
	call	__tls_get_addr@PLT
	movq	(%rax), %rax
	testq	%rax, %rax
	je	.L871
	movq	8(%rax), %rax
	testq	%rax, %rax
	je	.L871
	movq	(%rax), %rdx
	testq	%rdx, %rdx
	je	.L871
	movq	$0, (%rax)
	movzbl	(%rdx), %eax
	cmpb	$55, %al
	jbe	.L872
	movb	%al, 56(%rdx)
.L873:
	leaq	_ZN4asio6detail18completion_handlerIZN8asiodnp318MasterSessionStack6DemandERKSt10shared_ptrIN8opendnp311IMasterTaskEEEUlvE_E11do_completeEPNS0_15task_io_serviceEPNS0_25task_io_service_operationERKSt10error_codem(%rip), %rax
	movq	$0, (%rdx)
	movl	$0, 16(%rdx)
	movq	%rax, 8(%rdx)
	movq	32(%rsp), %rax
	movq	%rax, 24(%rdx)
	movq	40(%rsp), %rax
	testq	%rax, %rax
	movq	%rax, 32(%rdx)
	je	.L875
	cmpq	$0, _ZL28__gthrw___pthread_key_createPjPFvPvE@GOTPCREL(%rip)
	je	.L874
	lock addl	$1, 8(%rax)
.L875:
	movq	48(%rsp), %rax
	pxor	%xmm0, %xmm0
	movq	%r12, %rdi
	movzbl	%bpl, %ecx
	movq	%rbx, %rsi
	movq	%rax, 40(%rdx)
	movq	56(%rsp), %rax
	movaps	%xmm0, 48(%rsp)
	movq	%rax, 48(%rdx)
	call	_ZN4asio6detail14strand_service7do_postERPNS1_11strand_implEPNS0_25task_io_service_operationEb@PLT
	movq	56(%rsp), %rdi
	testq	%rdi, %rdi
	je	.L876
	call	_ZNSt16_Sp_counted_baseILN9__gnu_cxx12_Lock_policyE2EE10_M_releaseEv@PLT
.L876:
	movq	40(%rsp), %rdi
	testq	%rdi, %rdi
	je	.L877
	call	_ZNSt16_Sp_counted_baseILN9__gnu_cxx12_Lock_policyE2EE10_M_releaseEv@PLT
.L877:
	movq	24(%rsp), %rdi
	testq	%rdi, %rdi
	je	.L879
	call	_ZNSt16_Sp_counted_baseILN9__gnu_cxx12_Lock_policyE2EE10_M_releaseEv@PLT
.L879:
	movq	8(%rsp), %rdi
	testq	%rdi, %rdi
	je	.L857
	call	_ZNSt16_Sp_counted_baseILN9__gnu_cxx12_Lock_policyE2EE10_M_releaseEv@PLT
.L857:
	movq	72(%rsp), %rax
	xorq	%fs:40, %rax
	jne	.L931
	addq	$88, %rsp
	.cfi_remember_state
	.cfi_def_cfa_offset 40
	popq	%rbx
	.cfi_def_cfa_offset 32
	popq	%rbp
	.cfi_def_cfa_offset 24
	popq	%r12
	.cfi_def_cfa_offset 16
	popq	%r13
	.cfi_def_cfa_offset 8
	ret
	.p2align 4,,10
	.p2align 3
.L928:
	.cfi_restore_state
	lock addl	$1, 8(%rax)
	jmp	.L858
	.p2align 4,,10
	.p2align 3
.L930:
	lock addl	$1, 8(%rax)
	movq	24(%rsp), %rdx
	movq	16(%rsp), %rax
	testq	%rdx, %rdx
	movq	%rax, 48(%rsp)
	movq	%rdx, 56(%rsp)
	leaq	8(%rdx), %rax
	je	.L868
.L885:
	lock addl	$1, (%rax)
	jmp	.L868
	.p2align 4,,10
	.p2align 3
.L872:
	movq	%rdx, %rdi
	call	_ZdlPv@PLT
.L871:
	movl	$57, %edi
.LEHB29:
	call	_Znwm@PLT
.LEHE29:
	movq	%rax, %rdx
	movb	$56, 56(%rax)
	jmp	.L873
	.p2align 4,,10
	.p2align 3
.L865:
	movq	24(%rsp), %rax
	movq	%rdx, 48(%rsp)
	testq	%rax, %rax
	movq	%rax, 56(%rsp)
	je	.L868
	cmpq	$0, _ZL28__gthrw___pthread_key_createPjPFvPvE@GOTPCREL(%rip)
	je	.L869
	addq	$8, %rax
	jmp	.L885
	.p2align 4,,10
	.p2align 3
.L874:
	addl	$1, 8(%rax)
	jmp	.L875
.L931:
	call	__stack_chk_fail@PLT
.L929:
	testl	%eax, %eax
	jne	.L925
.L861:
.LEHB30:
	call	_ZSt20__throw_bad_weak_ptrv@PLT
.LEHE30:
.L887:
	movq	8(%rsp), %rdi
	movq	%rax, %rbx
	testq	%rdi, %rdi
	je	.L883
	call	_ZNSt16_Sp_counted_baseILN9__gnu_cxx12_Lock_policyE2EE10_M_releaseEv@PLT
.L883:
	movq	%rbx, %rdi
.LEHB31:
	call	_Unwind_Resume@PLT
.LEHE31:
.L860:
.LEHB32:
	call	_ZSt20__throw_bad_weak_ptrv@PLT
.LEHE32:
.L888:
	movq	%r13, %rdi
	movq	%rax, %rbx
	call	_ZZN8asiodnp318MasterSessionStack6DemandERKSt10shared_ptrIN8opendnp311IMasterTaskEEENUlvE_D1Ev
	movq	%rsp, %rdi
	call	_ZZN8asiodnp318MasterSessionStack6DemandERKSt10shared_ptrIN8opendnp311IMasterTaskEEENUlvE_D1Ev
	movq	%rbx, %rdi
.LEHB33:
	call	_Unwind_Resume@PLT
.LEHE33:
	.cfi_endproc
.LFE7786:
	.section	.gcc_except_table
.LLSDA7786:
	.byte	0xff
	.byte	0xff
	.byte	0x1
	.uleb128 .LLSDACSE7786-.LLSDACSB7786
.LLSDACSB7786:
	.uleb128 .LEHB29-.LFB7786
	.uleb128 .LEHE29-.LEHB29
	.uleb128 .L888-.LFB7786
	.uleb128 0
	.uleb128 .LEHB30-.LFB7786
	.uleb128 .LEHE30-.LEHB30
	.uleb128 .L887-.LFB7786
	.uleb128 0
	.uleb128 .LEHB31-.LFB7786
	.uleb128 .LEHE31-.LEHB31
	.uleb128 0
	.uleb128 0
	.uleb128 .LEHB32-.LFB7786
	.uleb128 .LEHE32-.LEHB32
	.uleb128 .L887-.LFB7786
	.uleb128 0
	.uleb128 .LEHB33-.LFB7786
	.uleb128 .LEHE33-.LEHB33
	.uleb128 0
	.uleb128 0
.LLSDACSE7786:
	.text
	.size	_ZN8asiodnp318MasterSessionStack6DemandERKSt10shared_ptrIN8opendnp311IMasterTaskEE, .-_ZN8asiodnp318MasterSessionStack6DemandERKSt10shared_ptrIN8opendnp311IMasterTaskEE
	.set	.LTHUNK2,_ZN8asiodnp318MasterSessionStack6DemandERKSt10shared_ptrIN8opendnp311IMasterTaskEE
	.p2align 4,,15
	.globl	_ZThn8_N8asiodnp318MasterSessionStack6DemandERKSt10shared_ptrIN8opendnp311IMasterTaskEE
	.type	_ZThn8_N8asiodnp318MasterSessionStack6DemandERKSt10shared_ptrIN8opendnp311IMasterTaskEE, @function
_ZThn8_N8asiodnp318MasterSessionStack6DemandERKSt10shared_ptrIN8opendnp311IMasterTaskEE:
.LFB11990:
	.cfi_startproc
	subq	$8, %rdi
	jmp	.LTHUNK2
	.cfi_endproc
.LFE11990:
	.size	_ZThn8_N8asiodnp318MasterSessionStack6DemandERKSt10shared_ptrIN8opendnp311IMasterTaskEE, .-_ZThn8_N8asiodnp318MasterSessionStack6DemandERKSt10shared_ptrIN8opendnp311IMasterTaskEE
	.section	.text.unlikely
	.align 2
	.type	_ZN4asio6detail18completion_handlerIZN8asiodnp318MasterSessionStack7RestartEN8opendnp311RestartTypeERKSt8functionIFvRKNS4_22RestartOperationResultEEENS4_10TaskConfigEEUlvE_E3ptr5resetEv.isra.103, @function
_ZN4asio6detail18completion_handlerIZN8asiodnp318MasterSessionStack7RestartEN8opendnp311RestartTypeERKSt8functionIFvRKNS4_22RestartOperationResultEEENS4_10TaskConfigEEUlvE_E3ptr5resetEv.isra.103:
.LFB11790:
	.cfi_startproc
	.cfi_personality 0x9b,DW.ref.__gxx_personality_v0
	.cfi_lsda 0x1b,.LLSDA11790
	pushq	%r12
	.cfi_def_cfa_offset 16
	.cfi_offset 12, -16
	pushq	%rbp
	.cfi_def_cfa_offset 24
	.cfi_offset 6, -24
	movq	%rdi, %rbp
	pushq	%rbx
	.cfi_def_cfa_offset 32
	.cfi_offset 3, -32
	movq	(%rsi), %rbx
	testq	%rbx, %rbx
	je	.L933
	movq	64(%rbx), %rax
	movq	%rsi, %r12
	testq	%rax, %rax
	je	.L934
	leaq	48(%rbx), %rdi
	movl	$3, %edx
	movq	%rdi, %rsi
	call	*%rax
.L934:
	movq	32(%rbx), %rdi
	testq	%rdi, %rdi
	je	.L935
	call	_ZNSt16_Sp_counted_baseILN9__gnu_cxx12_Lock_policyE2EE10_M_releaseEv@PLT
.L935:
	movq	$0, (%r12)
.L933:
	movq	0(%rbp), %rbx
	testq	%rbx, %rbx
	je	.L932
	.byte	0x66
	leaq	_ZN4asio6detail15keyword_tss_ptrINS0_10call_stackINS0_15task_io_serviceENS0_27task_io_service_thread_infoEE7contextEE6value_E@tlsgd(%rip), %rdi
	.value	0x6666
	rex64
	call	__tls_get_addr@PLT
	movq	(%rax), %rax
	testq	%rax, %rax
	je	.L937
	movq	8(%rax), %rax
	testq	%rax, %rax
	je	.L937
	cmpq	$0, (%rax)
	jne	.L937
	movb	96(%rbx), %dl
	movb	%dl, (%rbx)
	movq	%rbx, (%rax)
	jmp	.L938
.L937:
	movq	%rbx, %rdi
	call	_ZdlPv@PLT
.L938:
	movq	$0, 0(%rbp)
.L932:
	popq	%rbx
	.cfi_def_cfa_offset 24
	popq	%rbp
	.cfi_def_cfa_offset 16
	popq	%r12
	.cfi_def_cfa_offset 8
	ret
	.cfi_endproc
.LFE11790:
	.section	.gcc_except_table
.LLSDA11790:
	.byte	0xff
	.byte	0xff
	.byte	0x1
	.uleb128 .LLSDACSE11790-.LLSDACSB11790
.LLSDACSB11790:
.LLSDACSE11790:
	.section	.text.unlikely
	.size	_ZN4asio6detail18completion_handlerIZN8asiodnp318MasterSessionStack7RestartEN8opendnp311RestartTypeERKSt8functionIFvRKNS4_22RestartOperationResultEEENS4_10TaskConfigEEUlvE_E3ptr5resetEv.isra.103, .-_ZN4asio6detail18completion_handlerIZN8asiodnp318MasterSessionStack7RestartEN8opendnp311RestartTypeERKSt8functionIFvRKNS4_22RestartOperationResultEEENS4_10TaskConfigEEUlvE_E3ptr5resetEv.isra.103
	.text
	.align 2
	.p2align 4,,15
	.globl	_ZN8asiodnp318MasterSessionStack7RestartEN8opendnp311RestartTypeERKSt8functionIFvRKNS1_22RestartOperationResultEEENS1_10TaskConfigE
	.type	_ZN8asiodnp318MasterSessionStack7RestartEN8opendnp311RestartTypeERKSt8functionIFvRKNS1_22RestartOperationResultEEENS1_10TaskConfigE, @function
_ZN8asiodnp318MasterSessionStack7RestartEN8opendnp311RestartTypeERKSt8functionIFvRKNS1_22RestartOperationResultEEENS1_10TaskConfigE:
.LFB7936:
	.cfi_startproc
	.cfi_personality 0x9b,DW.ref.__gxx_personality_v0
	.cfi_lsda 0x1b,.LLSDA7936
	pushq	%r15
	.cfi_def_cfa_offset 16
	.cfi_offset 15, -16
	pushq	%r14
	.cfi_def_cfa_offset 24
	.cfi_offset 14, -24
	pushq	%r13
	.cfi_def_cfa_offset 32
	.cfi_offset 13, -32
	pushq	%r12
	.cfi_def_cfa_offset 40
	.cfi_offset 12, -40
	pushq	%rbp
	.cfi_def_cfa_offset 48
	.cfi_offset 6, -48
	pushq	%rbx
	.cfi_def_cfa_offset 56
	.cfi_offset 3, -56
	subq	$216, %rsp
	.cfi_def_cfa_offset 272
	movq	%fs:40, %rax
	movq	%rax, 200(%rsp)
	xorl	%eax, %eax
	movq	24(%rdi), %rax
	testq	%rax, %rax
	movq	%rax, 40(%rsp)
	je	.L959
	movq	%rdx, %rbx
	leaq	8(%rax), %rdx
	movl	8(%rax), %eax
	testl	%eax, %eax
	je	.L959
	movq	%rcx, %r14
	leal	1(%rax), %ecx
	movq	%rdi, %rbp
	movq	%r8, %r13
	lock cmpxchgl	%ecx, (%rdx)
	jne	.L962
.L961:
	movq	16(%rbx), %rax
	movq	16(%rbp), %rdx
	movb	%sil, 48(%rsp)
	movq	$0, 72(%rsp)
	testq	%rax, %rax
	movq	%rdx, 32(%rsp)
	je	.L964
	leaq	32(%rsp), %r12
	movl	$2, %edx
	movq	%rbx, %rsi
	leaq	24(%r12), %rdi
.LEHB34:
	call	*%rax
.LEHE34:
	movq	24(%rbx), %rax
	movq	32(%rsp), %rdx
	movq	%rax, 80(%rsp)
	movq	16(%rbx), %rax
	movq	%rax, 72(%rsp)
.L964:
	movq	%rdx, 112(%rsp)
	movq	40(%rsp), %rdx
	movq	%r14, 88(%rsp)
	movq	%r13, 96(%rsp)
	movq	32(%rbp), %r14
	testq	%rdx, %rdx
	movq	%rdx, 120(%rsp)
	je	.L969
	cmpq	$0, _ZL28__gthrw___pthread_key_createPjPFvPvE@GOTPCREL(%rip)
	jne	.L1041
	addl	$1, 8(%rdx)
	movq	72(%rsp), %rax
.L969:
	movzbl	48(%rsp), %edx
	testq	%rax, %rax
	movq	$0, 152(%rsp)
	leaq	112(%rsp), %rbp
	movb	%dl, 128(%rsp)
	je	.L971
	leaq	32(%rsp), %r12
	leaq	112(%rsp), %rbp
	movl	$2, %edx
	leaq	24(%r12), %rsi
	leaq	24(%rbp), %rdi
.LEHB35:
	call	*%rax
.LEHE35:
	movdqu	72(%rsp), %xmm0
	movups	%xmm0, 152(%rsp)
.L971:
	movq	%rbp, %rdi
	xorl	%eax, %eax
	movq	40(%r14), %r13
	addq	$48, %r14
	movdqu	88(%rsp), %xmm0
	movups	%xmm0, 168(%rsp)
	call	_ZN4asio28asio_handler_is_continuationEz@PLT
	pxor	%xmm0, %xmm0
	movl	%eax, %r12d
	movq	%rbp, (%rsp)
	movups	%xmm0, 8(%rsp)
	.byte	0x66
	leaq	_ZN4asio6detail15keyword_tss_ptrINS0_10call_stackINS0_15task_io_serviceENS0_27task_io_service_thread_infoEE7contextEE6value_E@tlsgd(%rip), %rdi
	.value	0x6666
	rex64
	call	__tls_get_addr@PLT
	movq	(%rax), %rax
	testq	%rax, %rax
	je	.L977
	movq	8(%rax), %rax
	testq	%rax, %rax
	je	.L977
	movq	(%rax), %rbx
	testq	%rbx, %rbx
	je	.L977
	movq	$0, (%rax)
	movzbl	(%rbx), %eax
	cmpb	$95, %al
	jbe	.L979
	movb	%al, 96(%rbx)
	jmp	.L980
	.p2align 4,,10
	.p2align 3
.L979:
	movq	%rbx, %rdi
	call	_ZdlPv@PLT
.L977:
	movl	$97, %edi
.LEHB36:
	call	_Znwm@PLT
.LEHE36:
	movq	%rax, %rbx
	movb	$96, 96(%rax)
.L980:
	leaq	_ZN4asio6detail18completion_handlerIZN8asiodnp318MasterSessionStack7RestartEN8opendnp311RestartTypeERKSt8functionIFvRKNS4_22RestartOperationResultEEENS4_10TaskConfigEEUlvE_E11do_completeEPNS0_15task_io_serviceEPNS0_25task_io_service_operationERKSt10error_codem(%rip), %rax
	movq	%rbx, 8(%rsp)
	movl	$0, 16(%rbx)
	movq	$0, (%rbx)
	pxor	%xmm0, %xmm0
	movq	%rax, 8(%rbx)
	movq	112(%rsp), %rax
	movq	$0, 64(%rbx)
	movq	%rax, 24(%rbx)
	movq	120(%rsp), %rax
	movaps	%xmm0, 112(%rsp)
	movq	%rax, 32(%rbx)
	movzbl	128(%rsp), %eax
	movb	%al, 40(%rbx)
	movq	152(%rsp), %rax
	testq	%rax, %rax
	je	.L981
	leaq	48(%rbx), %r15
	leaq	24(%rbp), %rsi
	movl	$2, %edx
	movq	%r15, %rdi
.LEHB37:
	call	*%rax
.LEHE37:
	movdqu	152(%rsp), %xmm0
	movups	%xmm0, 64(%rbx)
.L981:
	movzbl	%r12b, %ecx
	movq	%rbx, %rdx
	movq	%r14, %rsi
	movq	%r13, %rdi
	movdqu	168(%rsp), %xmm0
	movq	%rbx, 16(%rsp)
	movups	%xmm0, 80(%rbx)
	call	_ZN4asio6detail14strand_service7do_postERPNS1_11strand_implEPNS0_25task_io_service_operationEb@PLT
	movq	152(%rsp), %rax
	testq	%rax, %rax
	je	.L987
	leaq	24(%rbp), %rdi
	movl	$3, %edx
	movq	%rdi, %rsi
	call	*%rax
.L987:
	movq	120(%rsp), %rdi
	testq	%rdi, %rdi
	je	.L989
	call	_ZNSt16_Sp_counted_baseILN9__gnu_cxx12_Lock_policyE2EE10_M_releaseEv@PLT
.L989:
	movq	72(%rsp), %rax
	testq	%rax, %rax
	je	.L991
	leaq	56(%rsp), %rdi
	movl	$3, %edx
	movq	%rdi, %rsi
	call	*%rax
.L991:
	movq	40(%rsp), %rdi
	testq	%rdi, %rdi
	je	.L958
	call	_ZNSt16_Sp_counted_baseILN9__gnu_cxx12_Lock_policyE2EE10_M_releaseEv@PLT
.L958:
	movq	200(%rsp), %rax
	xorq	%fs:40, %rax
	jne	.L1042
	addq	$216, %rsp
	.cfi_remember_state
	.cfi_def_cfa_offset 56
	popq	%rbx
	.cfi_def_cfa_offset 48
	popq	%rbp
	.cfi_def_cfa_offset 40
	popq	%r12
	.cfi_def_cfa_offset 32
	popq	%r13
	.cfi_def_cfa_offset 24
	popq	%r14
	.cfi_def_cfa_offset 16
	popq	%r15
	.cfi_def_cfa_offset 8
	ret
	.p2align 4,,10
	.p2align 3
.L1041:
	.cfi_restore_state
	lock addl	$1, 8(%rdx)
	movq	72(%rsp), %rax
	jmp	.L969
.L959:
.LEHB38:
	call	_ZSt20__throw_bad_weak_ptrv@PLT
.LEHE38:
.L962:
	testl	%eax, %eax
	je	.L959
	leal	1(%rax), %ecx
	lock cmpxchgl	%ecx, (%rdx)
	je	.L961
	jmp	.L962
.L1042:
	call	__stack_chk_fail@PLT
.L997:
	movq	%rax, %rbx
	movq	152(%rsp), %rax
	testq	%rax, %rax
	je	.L973
	leaq	24(%rbp), %rdi
	movl	$3, %edx
	movq	%rdi, %rsi
	call	*%rax
.L973:
	movq	120(%rsp), %rdi
	testq	%rdi, %rdi
	je	.L978
	call	_ZNSt16_Sp_counted_baseILN9__gnu_cxx12_Lock_policyE2EE10_M_releaseEv@PLT
.L978:
	movq	%r12, %rdi
	call	_ZZN8asiodnp318MasterSessionStack7RestartEN8opendnp311RestartTypeERKSt8functionIFvRKNS1_22RestartOperationResultEEENS1_10TaskConfigEENUlvE_D1Ev
.L1040:
	movq	%rbx, %rdi
.LEHB39:
	call	_Unwind_Resume@PLT
.LEHE39:
.L998:
	movq	%rax, %r12
	movq	64(%rbx), %rax
	testq	%rax, %rax
	je	.L983
	movl	$3, %edx
	movq	%r15, %rsi
	movq	%r15, %rdi
	call	*%rax
.L983:
	movq	32(%rbx), %rdi
	testq	%rdi, %rdi
	je	.L985
	call	_ZNSt16_Sp_counted_baseILN9__gnu_cxx12_Lock_policyE2EE10_M_releaseEv@PLT
.L985:
	movq	%rsp, %rax
	movq	%r12, %rbx
	leaq	16(%rax), %rsi
	leaq	8(%rax), %rdi
	call	_ZN4asio6detail18completion_handlerIZN8asiodnp318MasterSessionStack7RestartEN8opendnp311RestartTypeERKSt8functionIFvRKNS4_22RestartOperationResultEEENS4_10TaskConfigEEUlvE_E3ptr5resetEv.isra.103
.L988:
	movq	%rbp, %rdi
	leaq	32(%rsp), %r12
	call	_ZZN8asiodnp318MasterSessionStack7RestartEN8opendnp311RestartTypeERKSt8functionIFvRKNS1_22RestartOperationResultEEENS1_10TaskConfigEENUlvE_D1Ev
	jmp	.L978
.L995:
	movq	%rax, %rbx
	movq	72(%rsp), %rax
	testq	%rax, %rax
	je	.L966
	leaq	24(%r12), %rdi
	movl	$3, %edx
	movq	%rdi, %rsi
	call	*%rax
.L966:
	movq	40(%rsp), %rdi
	testq	%rdi, %rdi
	je	.L1040
	call	_ZNSt16_Sp_counted_baseILN9__gnu_cxx12_Lock_policyE2EE10_M_releaseEv@PLT
	jmp	.L1040
.L996:
	movq	%rax, %rbx
	jmp	.L988
	.cfi_endproc
.LFE7936:
	.section	.gcc_except_table
.LLSDA7936:
	.byte	0xff
	.byte	0xff
	.byte	0x1
	.uleb128 .LLSDACSE7936-.LLSDACSB7936
.LLSDACSB7936:
	.uleb128 .LEHB34-.LFB7936
	.uleb128 .LEHE34-.LEHB34
	.uleb128 .L995-.LFB7936
	.uleb128 0
	.uleb128 .LEHB35-.LFB7936
	.uleb128 .LEHE35-.LEHB35
	.uleb128 .L997-.LFB7936
	.uleb128 0
	.uleb128 .LEHB36-.LFB7936
	.uleb128 .LEHE36-.LEHB36
	.uleb128 .L996-.LFB7936
	.uleb128 0
	.uleb128 .LEHB37-.LFB7936
	.uleb128 .LEHE37-.LEHB37
	.uleb128 .L998-.LFB7936
	.uleb128 0
	.uleb128 .LEHB38-.LFB7936
	.uleb128 .LEHE38-.LEHB38
	.uleb128 0
	.uleb128 0
	.uleb128 .LEHB39-.LFB7936
	.uleb128 .LEHE39-.LEHB39
	.uleb128 0
	.uleb128 0
.LLSDACSE7936:
	.text
	.size	_ZN8asiodnp318MasterSessionStack7RestartEN8opendnp311RestartTypeERKSt8functionIFvRKNS1_22RestartOperationResultEEENS1_10TaskConfigE, .-_ZN8asiodnp318MasterSessionStack7RestartEN8opendnp311RestartTypeERKSt8functionIFvRKNS1_22RestartOperationResultEEENS1_10TaskConfigE
	.align 2
	.p2align 4,,15
	.globl	_ZN8asiodnp318MasterSessionStack4ScanERKSt6vectorIN8opendnp36HeaderESaIS3_EERKNS2_10TaskConfigE
	.type	_ZN8asiodnp318MasterSessionStack4ScanERKSt6vectorIN8opendnp36HeaderESaIS3_EERKNS2_10TaskConfigE, @function
_ZN8asiodnp318MasterSessionStack4ScanERKSt6vectorIN8opendnp36HeaderESaIS3_EERKNS2_10TaskConfigE:
.LFB7896:
	.cfi_startproc
	.cfi_personality 0x9b,DW.ref.__gxx_personality_v0
	.cfi_lsda 0x1b,.LLSDA7896
	pushq	%r14
	.cfi_def_cfa_offset 16
	.cfi_offset 14, -16
	pushq	%r13
	.cfi_def_cfa_offset 24
	.cfi_offset 13, -24
	pushq	%r12
	.cfi_def_cfa_offset 32
	.cfi_offset 12, -32
	pushq	%rbp
	.cfi_def_cfa_offset 40
	.cfi_offset 6, -40
	movq	%rdx, %r12
	pushq	%rbx
	.cfi_def_cfa_offset 48
	.cfi_offset 3, -48
	movq	%rdi, %rbx
	subq	$176, %rsp
	.cfi_def_cfa_offset 224
	movq	%rsp, %rbp
	movq	%rbp, %rdi
	movq	%fs:40, %rax
	movq	%rax, 168(%rsp)
	xorl	%eax, %eax
.LEHB40:
	call	_ZN8asiodnp315ConvertToLambdaERKSt6vectorIN8opendnp36HeaderESaIS2_EE@PLT
.LEHE40:
	movq	24(%rbx), %rax
	testq	%rax, %rax
	movq	%rax, 40(%rsp)
	je	.L1044
	leaq	8(%rax), %rdx
	movl	8(%rax), %eax
	testl	%eax, %eax
	je	.L1045
.L1119:
	leal	1(%rax), %ecx
	lock cmpxchgl	%ecx, (%rdx)
	jne	.L1123
	movq	16(%rsp), %rax
	movq	16(%rbx), %rdx
	movq	$0, 64(%rsp)
	testq	%rax, %rax
	movq	%rdx, 32(%rsp)
	je	.L1049
	leaq	32(%rsp), %r13
	movl	$2, %edx
	movq	%rbp, %rsi
	leaq	16(%r13), %rdi
.LEHB41:
	call	*%rax
.LEHE41:
	movdqa	16(%rsp), %xmm0
	movq	16(%rsp), %rax
	movq	32(%rsp), %rdx
	movaps	%xmm0, 64(%rsp)
.L1049:
	movq	%rdx, 96(%rsp)
	movq	40(%rsp), %rdx
	movdqu	(%r12), %xmm0
	testq	%rdx, %rdx
	movq	32(%rbx), %rbx
	movq	%rdx, 104(%rsp)
	movaps	%xmm0, 80(%rsp)
	je	.L1054
	cmpq	$0, _ZL28__gthrw___pthread_key_createPjPFvPvE@GOTPCREL(%rip)
	jne	.L1124
	addl	$1, 8(%rdx)
	movq	64(%rsp), %rax
.L1054:
	testq	%rax, %rax
	movq	$0, 128(%rsp)
	leaq	96(%rsp), %r12
	je	.L1056
	leaq	32(%rsp), %r13
	leaq	96(%rsp), %r12
	movl	$2, %edx
	leaq	16(%r13), %rsi
	leaq	16(%r12), %rdi
.LEHB42:
	call	*%rax
.LEHE42:
	movdqa	64(%rsp), %xmm0
	movaps	%xmm0, 128(%rsp)
.L1056:
	movq	%r12, %rdi
	xorl	%eax, %eax
	movq	40(%rbx), %r14
	addq	$48, %rbx
	movdqa	80(%rsp), %xmm0
	movaps	%xmm0, 144(%rsp)
	call	_ZN4asio28asio_handler_is_continuationEz@PLT
	movl	%eax, %r13d
	.byte	0x66
	leaq	_ZN4asio6detail15keyword_tss_ptrINS0_10call_stackINS0_15task_io_serviceENS0_27task_io_service_thread_infoEE7contextEE6value_E@tlsgd(%rip), %rdi
	.value	0x6666
	rex64
	call	__tls_get_addr@PLT
	movq	(%rax), %rax
	testq	%rax, %rax
	je	.L1062
	movq	8(%rax), %rax
	testq	%rax, %rax
	je	.L1062
	movq	(%rax), %rdx
	testq	%rdx, %rdx
	je	.L1062
	movq	$0, (%rax)
	movzbl	(%rdx), %eax
	cmpb	$87, %al
	jbe	.L1064
	movb	%al, 88(%rdx)
	jmp	.L1065
	.p2align 4,,10
	.p2align 3
.L1064:
	movq	%rdx, %rdi
	call	_ZdlPv@PLT
.L1062:
	movl	$89, %edi
.LEHB43:
	call	_Znwm@PLT
.LEHE43:
	movq	%rax, %rdx
	movb	$88, 88(%rax)
.L1065:
	leaq	_ZN4asio6detail18completion_handlerIZN8asiodnp318MasterSessionStack4ScanERKSt6vectorIN8opendnp36HeaderESaIS6_EERKNS5_10TaskConfigEEUlvE_E11do_completeEPNS0_15task_io_serviceEPNS0_25task_io_service_operationERKSt10error_codem(%rip), %rax
	pxor	%xmm0, %xmm0
	movq	$0, (%rdx)
	movl	$0, 16(%rdx)
	movq	%rbx, %rsi
	movq	%rax, 8(%rdx)
	movq	96(%rsp), %rax
	movq	%r14, %rdi
	movdqu	40(%rdx), %xmm1
	movq	64(%rdx), %rcx
	movq	%rax, 24(%rdx)
	movq	104(%rsp), %rax
	movaps	%xmm0, 96(%rsp)
	movdqa	112(%rsp), %xmm0
	movq	%rax, 32(%rdx)
	movq	128(%rsp), %rax
	movups	%xmm0, 40(%rdx)
	movq	$0, 128(%rsp)
	movaps	%xmm1, 112(%rsp)
	movq	%rax, 56(%rdx)
	movq	136(%rsp), %rax
	movdqa	144(%rsp), %xmm0
	movq	%rcx, 136(%rsp)
	movzbl	%r13b, %ecx
	movups	%xmm0, 72(%rdx)
	movq	%rax, 64(%rdx)
	call	_ZN4asio6detail14strand_service7do_postERPNS1_11strand_implEPNS0_25task_io_service_operationEb@PLT
	movq	128(%rsp), %rax
	testq	%rax, %rax
	je	.L1075
	leaq	16(%r12), %rdi
	movl	$3, %edx
	movq	%rdi, %rsi
	call	*%rax
.L1075:
	movq	104(%rsp), %rdi
	testq	%rdi, %rdi
	je	.L1066
	call	_ZNSt16_Sp_counted_baseILN9__gnu_cxx12_Lock_policyE2EE10_M_releaseEv@PLT
.L1066:
	movq	64(%rsp), %rax
	testq	%rax, %rax
	je	.L1068
	leaq	48(%rsp), %rdi
	movl	$3, %edx
	movq	%rdi, %rsi
	call	*%rax
.L1068:
	movq	40(%rsp), %rdi
	testq	%rdi, %rdi
	je	.L1070
	call	_ZNSt16_Sp_counted_baseILN9__gnu_cxx12_Lock_policyE2EE10_M_releaseEv@PLT
.L1070:
	movq	16(%rsp), %rax
	testq	%rax, %rax
	je	.L1043
	movl	$3, %edx
	movq	%rbp, %rsi
	movq	%rbp, %rdi
	call	*%rax
.L1043:
	movq	168(%rsp), %rax
	xorq	%fs:40, %rax
	jne	.L1125
	addq	$176, %rsp
	.cfi_remember_state
	.cfi_def_cfa_offset 48
	popq	%rbx
	.cfi_def_cfa_offset 40
	popq	%rbp
	.cfi_def_cfa_offset 32
	popq	%r12
	.cfi_def_cfa_offset 24
	popq	%r13
	.cfi_def_cfa_offset 16
	popq	%r14
	.cfi_def_cfa_offset 8
	ret
	.p2align 4,,10
	.p2align 3
.L1124:
	.cfi_restore_state
	lock addl	$1, 8(%rdx)
	movq	64(%rsp), %rax
	jmp	.L1054
.L1125:
	call	__stack_chk_fail@PLT
.L1123:
	testl	%eax, %eax
	jne	.L1119
.L1045:
.LEHB44:
	call	_ZSt20__throw_bad_weak_ptrv@PLT
.LEHE44:
.L1077:
	movq	%rax, %rbx
.L1072:
	movq	16(%rsp), %rax
	testq	%rax, %rax
	je	.L1073
	movl	$3, %edx
	movq	%rbp, %rsi
	movq	%rbp, %rdi
	call	*%rax
.L1073:
	movq	%rbx, %rdi
.LEHB45:
	call	_Unwind_Resume@PLT
.LEHE45:
.L1044:
.LEHB46:
	call	_ZSt20__throw_bad_weak_ptrv@PLT
.LEHE46:
.L1078:
	movq	%rax, %rbx
	movq	64(%rsp), %rax
	testq	%rax, %rax
	je	.L1051
	leaq	16(%r13), %rdi
	movl	$3, %edx
	movq	%rdi, %rsi
	call	*%rax
.L1051:
	movq	40(%rsp), %rdi
	testq	%rdi, %rdi
	je	.L1072
	call	_ZNSt16_Sp_counted_baseILN9__gnu_cxx12_Lock_policyE2EE10_M_releaseEv@PLT
	jmp	.L1072
.L1080:
	movq	%rax, %rbx
	movq	128(%rsp), %rax
	testq	%rax, %rax
	je	.L1058
	leaq	16(%r12), %rdi
	movl	$3, %edx
	movq	%rdi, %rsi
	call	*%rax
.L1058:
	movq	104(%rsp), %rdi
	testq	%rdi, %rdi
	je	.L1063
	call	_ZNSt16_Sp_counted_baseILN9__gnu_cxx12_Lock_policyE2EE10_M_releaseEv@PLT
.L1063:
	movq	%r13, %rdi
	call	_ZZN8asiodnp318MasterSessionStack4ScanERKSt6vectorIN8opendnp36HeaderESaIS3_EERKNS2_10TaskConfigEENUlvE_D1Ev
	jmp	.L1072
.L1079:
	movq	%r12, %rdi
	movq	%rax, %rbx
	leaq	32(%rsp), %r13
	call	_ZZN8asiodnp318MasterSessionStack4ScanERKSt6vectorIN8opendnp36HeaderESaIS3_EERKNS2_10TaskConfigEENUlvE_D1Ev
	jmp	.L1063
	.cfi_endproc
.LFE7896:
	.section	.gcc_except_table
.LLSDA7896:
	.byte	0xff
	.byte	0xff
	.byte	0x1
	.uleb128 .LLSDACSE7896-.LLSDACSB7896
.LLSDACSB7896:
	.uleb128 .LEHB40-.LFB7896
	.uleb128 .LEHE40-.LEHB40
	.uleb128 0
	.uleb128 0
	.uleb128 .LEHB41-.LFB7896
	.uleb128 .LEHE41-.LEHB41
	.uleb128 .L1078-.LFB7896
	.uleb128 0
	.uleb128 .LEHB42-.LFB7896
	.uleb128 .LEHE42-.LEHB42
	.uleb128 .L1080-.LFB7896
	.uleb128 0
	.uleb128 .LEHB43-.LFB7896
	.uleb128 .LEHE43-.LEHB43
	.uleb128 .L1079-.LFB7896
	.uleb128 0
	.uleb128 .LEHB44-.LFB7896
	.uleb128 .LEHE44-.LEHB44
	.uleb128 .L1077-.LFB7896
	.uleb128 0
	.uleb128 .LEHB45-.LFB7896
	.uleb128 .LEHE45-.LEHB45
	.uleb128 0
	.uleb128 0
	.uleb128 .LEHB46-.LFB7896
	.uleb128 .LEHE46-.LEHB46
	.uleb128 .L1077-.LFB7896
	.uleb128 0
.LLSDACSE7896:
	.text
	.size	_ZN8asiodnp318MasterSessionStack4ScanERKSt6vectorIN8opendnp36HeaderESaIS3_EERKNS2_10TaskConfigE, .-_ZN8asiodnp318MasterSessionStack4ScanERKSt6vectorIN8opendnp36HeaderESaIS3_EERKNS2_10TaskConfigE
	.p2align 4,,15
	.type	_ZNSt14_Function_base13_Base_managerIZN8asiodnp318MasterSessionStack7AddScanEN7openpal12TimeDurationERKSt6vectorIN8opendnp36HeaderESaIS7_EERKNS6_10TaskConfigEEUlvE_E10_M_managerERSt9_Any_dataRKSH_St18_Manager_operation, @function
_ZNSt14_Function_base13_Base_managerIZN8asiodnp318MasterSessionStack7AddScanEN7openpal12TimeDurationERKSt6vectorIN8opendnp36HeaderESaIS7_EERKNS6_10TaskConfigEEUlvE_E10_M_managerERSt9_Any_dataRKSH_St18_Manager_operation:
.LFB9479:
	.cfi_startproc
	.cfi_personality 0x9b,DW.ref.__gxx_personality_v0
	.cfi_lsda 0x1b,.LLSDA9479
	cmpl	$1, %edx
	je	.L1128
	jb	.L1129
	cmpl	$2, %edx
	pushq	%r12
	.cfi_def_cfa_offset 16
	.cfi_offset 12, -16
	pushq	%rbp
	.cfi_def_cfa_offset 24
	.cfi_offset 6, -24
	pushq	%rbx
	.cfi_def_cfa_offset 32
	.cfi_offset 3, -32
	movq	%rdi, %rbx
	je	.L1130
	cmpl	$3, %edx
	jne	.L1127
	movq	(%rdi), %rbx
	testq	%rbx, %rbx
	je	.L1127
	movq	40(%rbx), %rax
	testq	%rax, %rax
	je	.L1136
	leaq	24(%rbx), %rdi
	movl	$3, %edx
	movq	%rdi, %rsi
	call	*%rax
.L1136:
	movq	8(%rbx), %rdi
	testq	%rdi, %rdi
	je	.L1137
	call	_ZNSt16_Sp_counted_baseILN9__gnu_cxx12_Lock_policyE2EE10_M_releaseEv@PLT
.L1137:
	movl	$72, %esi
	movq	%rbx, %rdi
	call	_ZdlPvm@PLT
.L1127:
	popq	%rbx
	.cfi_remember_state
	.cfi_def_cfa_offset 24
	xorl	%eax, %eax
	popq	%rbp
	.cfi_def_cfa_offset 16
	popq	%r12
	.cfi_def_cfa_offset 8
	ret
	.p2align 4,,10
	.p2align 3
.L1130:
	.cfi_restore_state
	movq	(%rsi), %r12
	movl	$72, %edi
.LEHB47:
	call	_Znwm@PLT
.LEHE47:
	movq	%rax, %rbp
	movq	(%r12), %rax
	movq	%rax, 0(%rbp)
	movq	8(%r12), %rax
	testq	%rax, %rax
	movq	%rax, 8(%rbp)
	je	.L1132
	cmpq	$0, _ZL28__gthrw___pthread_key_createPjPFvPvE@GOTPCREL(%rip)
	je	.L1133
	lock addl	$1, 8(%rax)
.L1132:
	movq	16(%r12), %rax
	leaq	24(%r12), %rsi
	leaq	24(%rbp), %rdi
	movq	%rax, 16(%rbp)
.LEHB48:
	call	_ZNSt8functionIFbRN8opendnp312HeaderWriterEEEC1ERKS4_@PLT
.LEHE48:
	movdqu	56(%r12), %xmm0
	xorl	%eax, %eax
	movq	%rbp, (%rbx)
	movups	%xmm0, 56(%rbp)
	popq	%rbx
	.cfi_def_cfa_offset 24
	popq	%rbp
	.cfi_def_cfa_offset 16
	popq	%r12
	.cfi_def_cfa_offset 8
	ret
	.p2align 4,,10
	.p2align 3
.L1129:
	.cfi_restore 3
	.cfi_restore 6
	.cfi_restore 12
	leaq	_ZTIZN8asiodnp318MasterSessionStack7AddScanEN7openpal12TimeDurationERKSt6vectorIN8opendnp36HeaderESaIS5_EERKNS4_10TaskConfigEEUlvE_(%rip), %rax
	movq	%rax, (%rdi)
	xorl	%eax, %eax
	ret
	.p2align 4,,10
	.p2align 3
.L1128:
	movq	(%rsi), %rax
	movq	%rax, (%rdi)
	xorl	%eax, %eax
	ret
	.p2align 4,,10
	.p2align 3
.L1133:
	.cfi_def_cfa_offset 32
	.cfi_offset 3, -32
	.cfi_offset 6, -24
	.cfi_offset 12, -16
	addl	$1, 8(%rax)
	jmp	.L1132
.L1138:
	movq	8(%rbp), %rdi
	movq	%rax, %rbx
	testq	%rdi, %rdi
	je	.L1135
	call	_ZNSt16_Sp_counted_baseILN9__gnu_cxx12_Lock_policyE2EE10_M_releaseEv@PLT
.L1135:
	movq	%rbp, %rdi
	movl	$72, %esi
	call	_ZdlPvm@PLT
	movq	%rbx, %rdi
.LEHB49:
	call	_Unwind_Resume@PLT
.LEHE49:
	.cfi_endproc
.LFE9479:
	.section	.gcc_except_table
.LLSDA9479:
	.byte	0xff
	.byte	0xff
	.byte	0x1
	.uleb128 .LLSDACSE9479-.LLSDACSB9479
.LLSDACSB9479:
	.uleb128 .LEHB47-.LFB9479
	.uleb128 .LEHE47-.LEHB47
	.uleb128 0
	.uleb128 0
	.uleb128 .LEHB48-.LFB9479
	.uleb128 .LEHE48-.LEHB48
	.uleb128 .L1138-.LFB9479
	.uleb128 0
	.uleb128 .LEHB49-.LFB9479
	.uleb128 .LEHE49-.LEHB49
	.uleb128 0
	.uleb128 0
.LLSDACSE9479:
	.text
	.size	_ZNSt14_Function_base13_Base_managerIZN8asiodnp318MasterSessionStack7AddScanEN7openpal12TimeDurationERKSt6vectorIN8opendnp36HeaderESaIS7_EERKNS6_10TaskConfigEEUlvE_E10_M_managerERSt9_Any_dataRKSH_St18_Manager_operation, .-_ZNSt14_Function_base13_Base_managerIZN8asiodnp318MasterSessionStack7AddScanEN7openpal12TimeDurationERKSt6vectorIN8opendnp36HeaderESaIS7_EERKNS6_10TaskConfigEEUlvE_E10_M_managerERSt9_Any_dataRKSH_St18_Manager_operation
	.p2align 4,,15
	.type	_ZN4asio6detail18completion_handlerIZN8asiodnp318MasterSessionStack7RestartEN8opendnp311RestartTypeERKSt8functionIFvRKNS4_22RestartOperationResultEEENS4_10TaskConfigEEUlvE_E11do_completeEPNS0_15task_io_serviceEPNS0_25task_io_service_operationERKSt10error_codem, @function
_ZN4asio6detail18completion_handlerIZN8asiodnp318MasterSessionStack7RestartEN8opendnp311RestartTypeERKSt8functionIFvRKNS4_22RestartOperationResultEEENS4_10TaskConfigEEUlvE_E11do_completeEPNS0_15task_io_serviceEPNS0_25task_io_service_operationERKSt10error_codem:
.LFB10434:
	.cfi_startproc
	.cfi_personality 0x9b,DW.ref.__gxx_personality_v0
	.cfi_lsda 0x1b,.LLSDA10434
	pushq	%r13
	.cfi_def_cfa_offset 16
	.cfi_offset 13, -16
	pushq	%r12
	.cfi_def_cfa_offset 24
	.cfi_offset 12, -24
	movq	%rdi, %r13
	pushq	%rbp
	.cfi_def_cfa_offset 32
	.cfi_offset 6, -32
	pushq	%rbx
	.cfi_def_cfa_offset 40
	.cfi_offset 3, -40
	movq	%rsi, %rbx
	subq	$120, %rsp
	.cfi_def_cfa_offset 160
	movq	%fs:40, %rax
	movq	%rax, 104(%rsp)
	xorl	%eax, %eax
	leaq	24(%rsi), %rax
	movq	%rsi, 8(%rsp)
	movq	%rsi, 16(%rsp)
	movq	$0, 72(%rsp)
	movq	%rax, (%rsp)
	movq	24(%rsi), %rax
	movq	$0, 24(%rsi)
	movq	%rax, 32(%rsp)
	movq	32(%rsi), %rax
	movq	$0, 32(%rsi)
	movq	%rax, 40(%rsp)
	movzbl	40(%rsi), %eax
	movb	%al, 48(%rsp)
	movq	64(%rsi), %rax
	testq	%rax, %rax
	je	.L1159
	leaq	32(%rsp), %rbp
	leaq	48(%rsi), %rsi
	movl	$2, %edx
	leaq	24(%rbp), %rdi
.LEHB50:
	call	*%rax
.LEHE50:
	movdqu	64(%rbx), %xmm0
	movq	16(%rsp), %r12
	movq	%rbp, (%rsp)
	movups	%xmm0, 72(%rsp)
	testq	%r12, %r12
	movdqu	80(%rbx), %xmm0
	movups	%xmm0, 88(%rsp)
	je	.L1161
.L1160:
	movq	64(%r12), %rax
	testq	%rax, %rax
	je	.L1166
	leaq	48(%r12), %rdi
	movl	$3, %edx
	movq	%rdi, %rsi
	call	*%rax
.L1166:
	movq	32(%r12), %rdi
	testq	%rdi, %rdi
	je	.L1167
	call	_ZNSt16_Sp_counted_baseILN9__gnu_cxx12_Lock_policyE2EE10_M_releaseEv@PLT
.L1167:
	movq	$0, 16(%rsp)
.L1161:
	movq	8(%rsp), %rbx
	testq	%rbx, %rbx
	je	.L1168
	.byte	0x66
	leaq	_ZN4asio6detail15keyword_tss_ptrINS0_10call_stackINS0_15task_io_serviceENS0_27task_io_service_thread_infoEE7contextEE6value_E@tlsgd(%rip), %rdi
	.value	0x6666
	rex64
	call	__tls_get_addr@PLT
	movq	(%rax), %rax
	testq	%rax, %rax
	je	.L1169
	movq	8(%rax), %rax
	testq	%rax, %rax
	je	.L1169
	cmpq	$0, (%rax)
	je	.L1232
.L1169:
	movq	%rbx, %rdi
	call	_ZdlPv@PLT
.L1170:
	movq	$0, 8(%rsp)
.L1168:
	testq	%r13, %r13
	je	.L1171
	movq	32(%rsp), %rax
	movzbl	48(%rsp), %esi
	leaq	24(%rbp), %rdx
	movq	88(%rsp), %rcx
	movq	96(%rsp), %r8
	leaq	96(%rax), %rdi
.LEHB51:
	call	_ZN8opendnp38MContext7RestartENS_11RestartTypeERKSt8functionIFvRKNS_22RestartOperationResultEEENS_10TaskConfigE@PLT
.LEHE51:
	sfence
.L1171:
	movq	72(%rsp), %rax
	testq	%rax, %rax
	je	.L1172
	leaq	24(%rbp), %rdi
	movl	$3, %edx
	movq	%rdi, %rsi
	call	*%rax
.L1172:
	movq	40(%rsp), %rdi
	testq	%rdi, %rdi
	je	.L1173
	call	_ZNSt16_Sp_counted_baseILN9__gnu_cxx12_Lock_policyE2EE10_M_releaseEv@PLT
.L1173:
	movq	16(%rsp), %rbx
	testq	%rbx, %rbx
	je	.L1174
	movq	64(%rbx), %rax
	testq	%rax, %rax
	je	.L1175
	leaq	48(%rbx), %rdi
	movl	$3, %edx
	movq	%rdi, %rsi
	call	*%rax
.L1175:
	movq	32(%rbx), %rdi
	testq	%rdi, %rdi
	je	.L1176
	call	_ZNSt16_Sp_counted_baseILN9__gnu_cxx12_Lock_policyE2EE10_M_releaseEv@PLT
.L1176:
	movq	$0, 16(%rsp)
.L1174:
	movq	8(%rsp), %rbx
	testq	%rbx, %rbx
	je	.L1158
	.byte	0x66
	leaq	_ZN4asio6detail15keyword_tss_ptrINS0_10call_stackINS0_15task_io_serviceENS0_27task_io_service_thread_infoEE7contextEE6value_E@tlsgd(%rip), %rdi
	.value	0x6666
	rex64
	call	__tls_get_addr@PLT
	movq	(%rax), %rax
	testq	%rax, %rax
	je	.L1178
	movq	8(%rax), %rax
	testq	%rax, %rax
	je	.L1178
	cmpq	$0, (%rax)
	je	.L1233
.L1178:
	movq	%rbx, %rdi
	call	_ZdlPv@PLT
.L1158:
	movq	104(%rsp), %rax
	xorq	%fs:40, %rax
	jne	.L1234
	addq	$120, %rsp
	.cfi_remember_state
	.cfi_def_cfa_offset 40
	popq	%rbx
	.cfi_def_cfa_offset 32
	popq	%rbp
	.cfi_def_cfa_offset 24
	popq	%r12
	.cfi_def_cfa_offset 16
	popq	%r13
	.cfi_def_cfa_offset 8
	ret
	.p2align 4,,10
	.p2align 3
.L1233:
	.cfi_restore_state
	movzbl	96(%rbx), %edx
	movb	%dl, (%rbx)
	movq	%rbx, (%rax)
	jmp	.L1158
	.p2align 4,,10
	.p2align 3
.L1232:
	movzbl	96(%rbx), %edx
	movb	%dl, (%rbx)
	movq	%rbx, (%rax)
	jmp	.L1170
	.p2align 4,,10
	.p2align 3
.L1159:
	movdqu	80(%rsi), %xmm0
	leaq	32(%rsp), %rbp
	movq	%rsi, %r12
	movups	%xmm0, 88(%rsp)
	movq	%rbp, (%rsp)
	jmp	.L1160
.L1234:
	call	__stack_chk_fail@PLT
.L1182:
	movq	%rax, %rbx
	movq	72(%rsp), %rax
	testq	%rax, %rax
	je	.L1163
	leaq	24(%rbp), %rdi
	movl	$3, %edx
	movq	%rdi, %rsi
	call	*%rax
.L1163:
	movq	40(%rsp), %rdi
	testq	%rdi, %rdi
	je	.L1165
	call	_ZNSt16_Sp_counted_baseILN9__gnu_cxx12_Lock_policyE2EE10_M_releaseEv@PLT
.L1165:
	movq	%rsp, %rax
	leaq	8(%rax), %rdi
	leaq	16(%rax), %rsi
	call	_ZN4asio6detail18completion_handlerIZN8asiodnp318MasterSessionStack7RestartEN8opendnp311RestartTypeERKSt8functionIFvRKNS4_22RestartOperationResultEEENS4_10TaskConfigEEUlvE_E3ptr5resetEv.isra.103
	movq	%rbx, %rdi
.LEHB52:
	call	_Unwind_Resume@PLT
.LEHE52:
.L1181:
	movq	%rbp, %rdi
	movq	%rax, %rbx
	sfence
	call	_ZZN8asiodnp318MasterSessionStack7RestartEN8opendnp311RestartTypeERKSt8functionIFvRKNS1_22RestartOperationResultEEENS1_10TaskConfigEENUlvE_D1Ev
	jmp	.L1165
	.cfi_endproc
.LFE10434:
	.section	.gcc_except_table
.LLSDA10434:
	.byte	0xff
	.byte	0xff
	.byte	0x1
	.uleb128 .LLSDACSE10434-.LLSDACSB10434
.LLSDACSB10434:
	.uleb128 .LEHB50-.LFB10434
	.uleb128 .LEHE50-.LEHB50
	.uleb128 .L1182-.LFB10434
	.uleb128 0
	.uleb128 .LEHB51-.LFB10434
	.uleb128 .LEHE51-.LEHB51
	.uleb128 .L1181-.LFB10434
	.uleb128 0
	.uleb128 .LEHB52-.LFB10434
	.uleb128 .LEHE52-.LEHB52
	.uleb128 0
	.uleb128 0
.LLSDACSE10434:
	.text
	.size	_ZN4asio6detail18completion_handlerIZN8asiodnp318MasterSessionStack7RestartEN8opendnp311RestartTypeERKSt8functionIFvRKNS4_22RestartOperationResultEEENS4_10TaskConfigEEUlvE_E11do_completeEPNS0_15task_io_serviceEPNS0_25task_io_service_operationERKSt10error_codem, .-_ZN4asio6detail18completion_handlerIZN8asiodnp318MasterSessionStack7RestartEN8opendnp311RestartTypeERKSt8functionIFvRKNS4_22RestartOperationResultEEENS4_10TaskConfigEEUlvE_E11do_completeEPNS0_15task_io_serviceEPNS0_25task_io_service_operationERKSt10error_codem
	.section	.text.unlikely
	.align 2
	.type	_ZN4asio6detail18completion_handlerIZN8asiodnp318MasterSessionStack13DirectOperateEON8opendnp310CommandSetERKSt8functionIFvRKNS4_18ICommandTaskResultEEERKNS4_10TaskConfigEEUlvE_E3ptr5resetEv.isra.108, @function
_ZN4asio6detail18completion_handlerIZN8asiodnp318MasterSessionStack13DirectOperateEON8opendnp310CommandSetERKSt8functionIFvRKNS4_18ICommandTaskResultEEERKNS4_10TaskConfigEEUlvE_E3ptr5resetEv.isra.108:
.LFB11795:
	.cfi_startproc
	.cfi_personality 0x9b,DW.ref.__gxx_personality_v0
	.cfi_lsda 0x1b,.LLSDA11795
	pushq	%r12
	.cfi_def_cfa_offset 16
	.cfi_offset 12, -16
	pushq	%rbp
	.cfi_def_cfa_offset 24
	.cfi_offset 6, -24
	movq	%rdi, %rbp
	pushq	%rbx
	.cfi_def_cfa_offset 32
	.cfi_offset 3, -32
	movq	(%rsi), %rbx
	testq	%rbx, %rbx
	je	.L1236
	movq	88(%rbx), %rax
	movq	%rsi, %r12
	testq	%rax, %rax
	je	.L1237
	leaq	72(%rbx), %rdi
	movl	$3, %edx
	movq	%rdi, %rsi
	call	*%rax
.L1237:
	movq	48(%rbx), %rdi
	testq	%rdi, %rdi
	je	.L1238
	call	_ZNSt16_Sp_counted_baseILN9__gnu_cxx12_Lock_policyE2EE10_M_releaseEv@PLT
.L1238:
	movq	32(%rbx), %rdi
	testq	%rdi, %rdi
	je	.L1239
	call	_ZNSt16_Sp_counted_baseILN9__gnu_cxx12_Lock_policyE2EE10_M_releaseEv@PLT
.L1239:
	movq	$0, (%r12)
.L1236:
	movq	0(%rbp), %rbx
	testq	%rbx, %rbx
	je	.L1235
	.byte	0x66
	leaq	_ZN4asio6detail15keyword_tss_ptrINS0_10call_stackINS0_15task_io_serviceENS0_27task_io_service_thread_infoEE7contextEE6value_E@tlsgd(%rip), %rdi
	.value	0x6666
	rex64
	call	__tls_get_addr@PLT
	movq	(%rax), %rax
	testq	%rax, %rax
	je	.L1241
	movq	8(%rax), %rax
	testq	%rax, %rax
	je	.L1241
	cmpq	$0, (%rax)
	jne	.L1241
	movb	104(%rbx), %dl
	movb	%dl, (%rbx)
	movq	%rbx, (%rax)
	jmp	.L1242
.L1241:
	movq	%rbx, %rdi
	call	_ZdlPv@PLT
.L1242:
	movq	$0, 0(%rbp)
.L1235:
	popq	%rbx
	.cfi_def_cfa_offset 24
	popq	%rbp
	.cfi_def_cfa_offset 16
	popq	%r12
	.cfi_def_cfa_offset 8
	ret
	.cfi_endproc
.LFE11795:
	.section	.gcc_except_table
.LLSDA11795:
	.byte	0xff
	.byte	0xff
	.byte	0x1
	.uleb128 .LLSDACSE11795-.LLSDACSB11795
.LLSDACSB11795:
.LLSDACSE11795:
	.section	.text.unlikely
	.size	_ZN4asio6detail18completion_handlerIZN8asiodnp318MasterSessionStack13DirectOperateEON8opendnp310CommandSetERKSt8functionIFvRKNS4_18ICommandTaskResultEEERKNS4_10TaskConfigEEUlvE_E3ptr5resetEv.isra.108, .-_ZN4asio6detail18completion_handlerIZN8asiodnp318MasterSessionStack13DirectOperateEON8opendnp310CommandSetERKSt8functionIFvRKNS4_18ICommandTaskResultEEERKNS4_10TaskConfigEEUlvE_E3ptr5resetEv.isra.108
	.align 2
	.type	_ZN4asio6detail18completion_handlerIZN8asiodnp318MasterSessionStack15PerformFunctionERKNSt7__cxx1112basic_stringIcSt11char_traitsIcESaIcEEEN8opendnp312FunctionCodeERKSt6vectorINSC_6HeaderESaISF_EERKNSC_10TaskConfigEEUlvE_E3ptr5resetEv.isra.155, @function
_ZN4asio6detail18completion_handlerIZN8asiodnp318MasterSessionStack15PerformFunctionERKNSt7__cxx1112basic_stringIcSt11char_traitsIcESaIcEEEN8opendnp312FunctionCodeERKSt6vectorINSC_6HeaderESaISF_EERKNSC_10TaskConfigEEUlvE_E3ptr5resetEv.isra.155:
.LFB11842:
	.cfi_startproc
	.cfi_personality 0x9b,DW.ref.__gxx_personality_v0
	.cfi_lsda 0x1b,.LLSDA11842
	pushq	%r12
	.cfi_def_cfa_offset 16
	.cfi_offset 12, -16
	pushq	%rbp
	.cfi_def_cfa_offset 24
	.cfi_offset 6, -24
	movq	%rdi, %rbp
	pushq	%rbx
	.cfi_def_cfa_offset 32
	.cfi_offset 3, -32
	movq	(%rsi), %rbx
	testq	%rbx, %rbx
	je	.L1266
	movq	96(%rbx), %rax
	movq	%rsi, %r12
	testq	%rax, %rax
	je	.L1267
	leaq	80(%rbx), %rdi
	movl	$3, %edx
	movq	%rdi, %rsi
	call	*%rax
.L1267:
	movq	40(%rbx), %rdi
	leaq	56(%rbx), %rax
	cmpq	%rax, %rdi
	je	.L1268
	call	_ZdlPv@PLT
.L1268:
	movq	32(%rbx), %rdi
	testq	%rdi, %rdi
	je	.L1269
	call	_ZNSt16_Sp_counted_baseILN9__gnu_cxx12_Lock_policyE2EE10_M_releaseEv@PLT
.L1269:
	movq	$0, (%r12)
.L1266:
	movq	0(%rbp), %rbx
	testq	%rbx, %rbx
	je	.L1265
	.byte	0x66
	leaq	_ZN4asio6detail15keyword_tss_ptrINS0_10call_stackINS0_15task_io_serviceENS0_27task_io_service_thread_infoEE7contextEE6value_E@tlsgd(%rip), %rdi
	.value	0x6666
	rex64
	call	__tls_get_addr@PLT
	movq	(%rax), %rax
	testq	%rax, %rax
	je	.L1271
	movq	8(%rax), %rax
	testq	%rax, %rax
	je	.L1271
	cmpq	$0, (%rax)
	jne	.L1271
	movb	128(%rbx), %dl
	movb	%dl, (%rbx)
	movq	%rbx, (%rax)
	jmp	.L1272
.L1271:
	movq	%rbx, %rdi
	call	_ZdlPv@PLT
.L1272:
	movq	$0, 0(%rbp)
.L1265:
	popq	%rbx
	.cfi_def_cfa_offset 24
	popq	%rbp
	.cfi_def_cfa_offset 16
	popq	%r12
	.cfi_def_cfa_offset 8
	ret
	.cfi_endproc
.LFE11842:
	.section	.gcc_except_table
.LLSDA11842:
	.byte	0xff
	.byte	0xff
	.byte	0x1
	.uleb128 .LLSDACSE11842-.LLSDACSB11842
.LLSDACSB11842:
.LLSDACSE11842:
	.section	.text.unlikely
	.size	_ZN4asio6detail18completion_handlerIZN8asiodnp318MasterSessionStack15PerformFunctionERKNSt7__cxx1112basic_stringIcSt11char_traitsIcESaIcEEEN8opendnp312FunctionCodeERKSt6vectorINSC_6HeaderESaISF_EERKNSC_10TaskConfigEEUlvE_E3ptr5resetEv.isra.155, .-_ZN4asio6detail18completion_handlerIZN8asiodnp318MasterSessionStack15PerformFunctionERKNSt7__cxx1112basic_stringIcSt11char_traitsIcESaIcEEEN8opendnp312FunctionCodeERKSt6vectorINSC_6HeaderESaISF_EERKNSC_10TaskConfigEEUlvE_E3ptr5resetEv.isra.155
	.align 2
	.type	_ZN4asio6detail18completion_handlerIZN8asiodnp318MasterSessionStack16SelectAndOperateEON8opendnp310CommandSetERKSt8functionIFvRKNS4_18ICommandTaskResultEEERKNS4_10TaskConfigEEUlvE_E3ptr5resetEv.isra.106, @function
_ZN4asio6detail18completion_handlerIZN8asiodnp318MasterSessionStack16SelectAndOperateEON8opendnp310CommandSetERKSt8functionIFvRKNS4_18ICommandTaskResultEEERKNS4_10TaskConfigEEUlvE_E3ptr5resetEv.isra.106:
.LFB11793:
	.cfi_startproc
	.cfi_personality 0x9b,DW.ref.__gxx_personality_v0
	.cfi_lsda 0x1b,.LLSDA11793
	pushq	%r12
	.cfi_def_cfa_offset 16
	.cfi_offset 12, -16
	pushq	%rbp
	.cfi_def_cfa_offset 24
	.cfi_offset 6, -24
	movq	%rdi, %rbp
	pushq	%rbx
	.cfi_def_cfa_offset 32
	.cfi_offset 3, -32
	movq	(%rsi), %rbx
	testq	%rbx, %rbx
	je	.L1293
	movq	88(%rbx), %rax
	movq	%rsi, %r12
	testq	%rax, %rax
	je	.L1294
	leaq	72(%rbx), %rdi
	movl	$3, %edx
	movq	%rdi, %rsi
	call	*%rax
.L1294:
	movq	48(%rbx), %rdi
	testq	%rdi, %rdi
	je	.L1295
	call	_ZNSt16_Sp_counted_baseILN9__gnu_cxx12_Lock_policyE2EE10_M_releaseEv@PLT
.L1295:
	movq	32(%rbx), %rdi
	testq	%rdi, %rdi
	je	.L1296
	call	_ZNSt16_Sp_counted_baseILN9__gnu_cxx12_Lock_policyE2EE10_M_releaseEv@PLT
.L1296:
	movq	$0, (%r12)
.L1293:
	movq	0(%rbp), %rbx
	testq	%rbx, %rbx
	je	.L1292
	.byte	0x66
	leaq	_ZN4asio6detail15keyword_tss_ptrINS0_10call_stackINS0_15task_io_serviceENS0_27task_io_service_thread_infoEE7contextEE6value_E@tlsgd(%rip), %rdi
	.value	0x6666
	rex64
	call	__tls_get_addr@PLT
	movq	(%rax), %rax
	testq	%rax, %rax
	je	.L1298
	movq	8(%rax), %rax
	testq	%rax, %rax
	je	.L1298
	cmpq	$0, (%rax)
	jne	.L1298
	movb	104(%rbx), %dl
	movb	%dl, (%rbx)
	movq	%rbx, (%rax)
	jmp	.L1299
.L1298:
	movq	%rbx, %rdi
	call	_ZdlPv@PLT
.L1299:
	movq	$0, 0(%rbp)
.L1292:
	popq	%rbx
	.cfi_def_cfa_offset 24
	popq	%rbp
	.cfi_def_cfa_offset 16
	popq	%r12
	.cfi_def_cfa_offset 8
	ret
	.cfi_endproc
.LFE11793:
	.section	.gcc_except_table
.LLSDA11793:
	.byte	0xff
	.byte	0xff
	.byte	0x1
	.uleb128 .LLSDACSE11793-.LLSDACSB11793
.LLSDACSB11793:
.LLSDACSE11793:
	.section	.text.unlikely
	.size	_ZN4asio6detail18completion_handlerIZN8asiodnp318MasterSessionStack16SelectAndOperateEON8opendnp310CommandSetERKSt8functionIFvRKNS4_18ICommandTaskResultEEERKNS4_10TaskConfigEEUlvE_E3ptr5resetEv.isra.106, .-_ZN4asio6detail18completion_handlerIZN8asiodnp318MasterSessionStack16SelectAndOperateEON8opendnp310CommandSetERKSt8functionIFvRKNS4_18ICommandTaskResultEEERKNS4_10TaskConfigEEUlvE_E3ptr5resetEv.isra.106
	.text
	.align 2
	.p2align 4,,15
	.globl	_ZN8asiodnp318MasterSessionStack13DirectOperateEON8opendnp310CommandSetERKSt8functionIFvRKNS1_18ICommandTaskResultEEERKNS1_10TaskConfigE
	.type	_ZN8asiodnp318MasterSessionStack13DirectOperateEON8opendnp310CommandSetERKSt8functionIFvRKNS1_18ICommandTaskResultEEERKNS1_10TaskConfigE, @function
_ZN8asiodnp318MasterSessionStack13DirectOperateEON8opendnp310CommandSetERKSt8functionIFvRKNS1_18ICommandTaskResultEEERKNS1_10TaskConfigE:
.LFB7979:
	.cfi_startproc
	.cfi_personality 0x9b,DW.ref.__gxx_personality_v0
	.cfi_lsda 0x1b,.LLSDA7979
	pushq	%r15
	.cfi_def_cfa_offset 16
	.cfi_offset 15, -16
	pushq	%r14
	.cfi_def_cfa_offset 24
	.cfi_offset 14, -24
	movq	%rsi, %r14
	pushq	%r13
	.cfi_def_cfa_offset 32
	.cfi_offset 13, -32
	pushq	%r12
	.cfi_def_cfa_offset 40
	.cfi_offset 12, -40
	movq	%rcx, %r13
	pushq	%rbp
	.cfi_def_cfa_offset 48
	.cfi_offset 6, -48
	pushq	%rbx
	.cfi_def_cfa_offset 56
	.cfi_offset 3, -56
	movq	%rdi, %rbx
	movl	$40, %edi
	movq	%rdx, %r12
	subq	$216, %rsp
	.cfi_def_cfa_offset 272
	movq	%fs:40, %rax
	movq	%rax, 200(%rsp)
	xorl	%eax, %eax
.LEHB53:
	call	_Znwm@PLT
.LEHE53:
	movq	%rax, %rbp
	movabsq	$4294967297, %rax
	movq	%r14, %rsi
	movq	%rax, 8(%rbp)
	movq	_ZTVSt23_Sp_counted_ptr_inplaceIN8opendnp310CommandSetESaIS1_ELN9__gnu_cxx12_Lock_policyE2EE@GOTPCREL(%rip), %rax
	leaq	16(%rbp), %rdi
	addq	$16, %rax
	movq	%rax, 0(%rbp)
.LEHB54:
	call	_ZN8opendnp310CommandSetC1EOS0_@PLT
.LEHE54:
	movq	0(%rbp), %rax
	movq	_ZTISt19_Sp_make_shared_tag@GOTPCREL(%rip), %rsi
	movq	%rbp, %rdi
	call	*32(%rax)
	movq	%rax, %rcx
	movq	24(%rbx), %rax
	testq	%rax, %rax
	movq	%rax, 40(%rsp)
	je	.L1443
	leaq	8(%rax), %rdx
	movl	8(%rax), %eax
	testl	%eax, %eax
	je	.L1326
.L1437:
	leal	1(%rax), %esi
	lock cmpxchgl	%esi, (%rdx)
	jne	.L1444
	movq	_ZL28__gthrw___pthread_key_createPjPFvPvE@GOTPCREL(%rip), %r14
	movq	16(%rbx), %rax
	movq	%rcx, 48(%rsp)
	movq	%rbp, 56(%rsp)
	testq	%r14, %r14
	movq	%rax, 32(%rsp)
	jne	.L1445
	addl	$1, 8(%rbp)
.L1331:
	movq	16(%r12), %rax
	movq	$0, 96(%rsp)
	movdqu	0(%r13), %xmm0
	testq	%rax, %rax
	movaps	%xmm0, 64(%rsp)
	je	.L1332
	leaq	32(%rsp), %r13
	movl	$2, %edx
	movq	%r12, %rsi
	leaq	48(%r13), %rdi
.LEHB55:
	call	*%rax
.LEHE55:
	movdqu	16(%r12), %xmm0
	movaps	%xmm0, 96(%rsp)
.L1332:
	movq	32(%rsp), %rax
	movq	32(%rbx), %r15
	movq	%rax, 112(%rsp)
	movq	40(%rsp), %rax
	testq	%rax, %rax
	movq	%rax, 120(%rsp)
	je	.L1337
	testq	%r14, %r14
	jne	.L1446
	addl	$1, 8(%rax)
	movq	48(%rsp), %rax
	movq	%rax, 128(%rsp)
	movq	56(%rsp), %rax
	testq	%rax, %rax
	movq	%rax, 136(%rsp)
	je	.L1340
.L1341:
	addl	$1, 8(%rax)
.L1340:
	movq	96(%rsp), %rax
	movq	$0, 176(%rsp)
	leaq	112(%rsp), %r12
	movdqa	64(%rsp), %xmm0
	testq	%rax, %rax
	movaps	%xmm0, 144(%rsp)
	je	.L1343
	leaq	32(%rsp), %r13
	leaq	112(%rsp), %r12
	movl	$2, %edx
	leaq	48(%r13), %rsi
	leaq	48(%r12), %rdi
.LEHB56:
	call	*%rax
.LEHE56:
	movdqa	96(%rsp), %xmm0
	movaps	%xmm0, 176(%rsp)
.L1343:
	movq	%r12, %rdi
	xorl	%eax, %eax
	movq	40(%r15), %r14
	call	_ZN4asio28asio_handler_is_continuationEz@PLT
	pxor	%xmm0, %xmm0
	movl	%eax, %r13d
	movq	%r12, (%rsp)
	addq	$48, %r15
	movups	%xmm0, 8(%rsp)
	.byte	0x66
	leaq	_ZN4asio6detail15keyword_tss_ptrINS0_10call_stackINS0_15task_io_serviceENS0_27task_io_service_thread_infoEE7contextEE6value_E@tlsgd(%rip), %rdi
	.value	0x6666
	rex64
	call	__tls_get_addr@PLT
	movq	(%rax), %rax
	testq	%rax, %rax
	je	.L1349
	movq	8(%rax), %rax
	testq	%rax, %rax
	je	.L1349
	movq	(%rax), %rbx
	testq	%rbx, %rbx
	je	.L1349
	movq	$0, (%rax)
	movzbl	(%rbx), %eax
	cmpb	$103, %al
	jbe	.L1350
	movb	%al, 104(%rbx)
.L1351:
	leaq	_ZN4asio6detail18completion_handlerIZN8asiodnp318MasterSessionStack13DirectOperateEON8opendnp310CommandSetERKSt8functionIFvRKNS4_18ICommandTaskResultEEERKNS4_10TaskConfigEEUlvE_E11do_completeEPNS0_15task_io_serviceEPNS0_25task_io_service_operationERKSt10error_codem(%rip), %rax
	movq	%rbx, 8(%rsp)
	leaq	48(%r12), %rsi
	movdqa	144(%rsp), %xmm0
	leaq	72(%rbx), %rdi
	movq	%rax, 8(%rbx)
	movq	112(%rsp), %rax
	movups	%xmm0, 56(%rbx)
	movq	$0, (%rbx)
	movl	$0, 16(%rbx)
	movq	%rax, 24(%rbx)
	movq	120(%rsp), %rax
	movq	$0, 112(%rsp)
	movq	$0, 120(%rsp)
	movq	%rax, 32(%rbx)
	movq	128(%rsp), %rax
	movq	$0, 128(%rsp)
	movq	%rax, 40(%rbx)
	movq	136(%rsp), %rax
	movq	$0, 136(%rsp)
	movq	%rax, 48(%rbx)
.LEHB57:
	call	_ZNSt8functionIFvRKN8opendnp318ICommandTaskResultEEEC1ERKS5_@PLT
.LEHE57:
	movzbl	%r13b, %ecx
	movq	%rbx, %rdx
	movq	%r15, %rsi
	movq	%r14, %rdi
	movq	%rbx, 16(%rsp)
	call	_ZN4asio6detail14strand_service7do_postERPNS1_11strand_implEPNS0_25task_io_service_operationEb@PLT
	movq	176(%rsp), %rax
	testq	%rax, %rax
	je	.L1356
	leaq	48(%r12), %rdi
	movl	$3, %edx
	movq	%rdi, %rsi
	call	*%rax
.L1356:
	movq	136(%rsp), %rdi
	testq	%rdi, %rdi
	je	.L1357
	call	_ZNSt16_Sp_counted_baseILN9__gnu_cxx12_Lock_policyE2EE10_M_releaseEv@PLT
.L1357:
	movq	120(%rsp), %rdi
	testq	%rdi, %rdi
	je	.L1358
	call	_ZNSt16_Sp_counted_baseILN9__gnu_cxx12_Lock_policyE2EE10_M_releaseEv@PLT
.L1358:
	movq	96(%rsp), %rax
	testq	%rax, %rax
	je	.L1360
	leaq	80(%rsp), %rdi
	movl	$3, %edx
	movq	%rdi, %rsi
	call	*%rax
.L1360:
	movq	56(%rsp), %rdi
	testq	%rdi, %rdi
	je	.L1361
	call	_ZNSt16_Sp_counted_baseILN9__gnu_cxx12_Lock_policyE2EE10_M_releaseEv@PLT
.L1361:
	movq	40(%rsp), %rdi
	testq	%rdi, %rdi
	je	.L1362
	call	_ZNSt16_Sp_counted_baseILN9__gnu_cxx12_Lock_policyE2EE10_M_releaseEv@PLT
.L1362:
	movq	%rbp, %rdi
	call	_ZNSt16_Sp_counted_baseILN9__gnu_cxx12_Lock_policyE2EE10_M_releaseEv@PLT
	movq	200(%rsp), %rax
	xorq	%fs:40, %rax
	jne	.L1447
	addq	$216, %rsp
	.cfi_remember_state
	.cfi_def_cfa_offset 56
	popq	%rbx
	.cfi_def_cfa_offset 48
	popq	%rbp
	.cfi_def_cfa_offset 40
	popq	%r12
	.cfi_def_cfa_offset 32
	popq	%r13
	.cfi_def_cfa_offset 24
	popq	%r14
	.cfi_def_cfa_offset 16
	popq	%r15
	.cfi_def_cfa_offset 8
	ret
	.p2align 4,,10
	.p2align 3
.L1446:
	.cfi_restore_state
	lock addl	$1, 8(%rax)
	movq	56(%rsp), %rdx
	movq	48(%rsp), %rax
	testq	%rdx, %rdx
	movq	%rax, 128(%rsp)
	movq	%rdx, 136(%rsp)
	leaq	8(%rdx), %rax
	je	.L1340
.L1366:
	lock addl	$1, (%rax)
	jmp	.L1340
	.p2align 4,,10
	.p2align 3
.L1350:
	movq	%rbx, %rdi
	call	_ZdlPv@PLT
.L1349:
	movl	$105, %edi
.LEHB58:
	call	_Znwm@PLT
.LEHE58:
	movq	%rax, %rbx
	movb	$104, 104(%rax)
	jmp	.L1351
	.p2align 4,,10
	.p2align 3
.L1445:
	lock addl	$1, 8(%rbp)
	jmp	.L1331
	.p2align 4,,10
	.p2align 3
.L1337:
	movq	48(%rsp), %rax
	movq	%rax, 128(%rsp)
	movq	56(%rsp), %rax
	testq	%rax, %rax
	movq	%rax, 136(%rsp)
	je	.L1340
	testq	%r14, %r14
	je	.L1341
	addq	$8, %rax
	jmp	.L1366
.L1447:
	call	__stack_chk_fail@PLT
.L1444:
	testl	%eax, %eax
	jne	.L1437
.L1326:
.LEHB59:
	call	_ZSt20__throw_bad_weak_ptrv@PLT
.LEHE59:
.L1368:
	movq	%rax, %rbx
.L1364:
	movq	%rbp, %rdi
	call	_ZNSt16_Sp_counted_baseILN9__gnu_cxx12_Lock_policyE2EE10_M_releaseEv@PLT
	movq	%rbx, %rdi
.LEHB60:
	call	_Unwind_Resume@PLT
.LEHE60:
.L1443:
.LEHB61:
	call	_ZSt20__throw_bad_weak_ptrv@PLT
.LEHE61:
.L1370:
	movq	%rax, %rbx
	movq	96(%rsp), %rax
	testq	%rax, %rax
	je	.L1334
	leaq	48(%r13), %rdi
	movl	$3, %edx
	movq	%rdi, %rsi
	call	*%rax
.L1334:
	movq	56(%rsp), %rdi
	testq	%rdi, %rdi
	je	.L1336
	call	_ZNSt16_Sp_counted_baseILN9__gnu_cxx12_Lock_policyE2EE10_M_releaseEv@PLT
.L1336:
	movq	40(%rsp), %rdi
	testq	%rdi, %rdi
	je	.L1364
	call	_ZNSt16_Sp_counted_baseILN9__gnu_cxx12_Lock_policyE2EE10_M_releaseEv@PLT
	jmp	.L1364
.L1369:
	movq	%rax, %rbx
	movq	%rbp, %rdi
	call	_ZdlPv@PLT
	movq	%rbx, %rdi
.LEHB62:
	call	_Unwind_Resume@PLT
.LEHE62:
.L1372:
	movq	%rax, %rbx
	movq	176(%rsp), %rax
	testq	%rax, %rax
	je	.L1345
	leaq	48(%r12), %rdi
	movl	$3, %edx
	movq	%rdi, %rsi
	call	*%rax
.L1345:
	movq	136(%rsp), %rdi
	testq	%rdi, %rdi
	je	.L1346
	call	_ZNSt16_Sp_counted_baseILN9__gnu_cxx12_Lock_policyE2EE10_M_releaseEv@PLT
.L1346:
	movq	120(%rsp), %rdi
	testq	%rdi, %rdi
	je	.L1348
	call	_ZNSt16_Sp_counted_baseILN9__gnu_cxx12_Lock_policyE2EE10_M_releaseEv@PLT
.L1348:
	movq	%r13, %rdi
	call	_ZZN8asiodnp318MasterSessionStack13DirectOperateEON8opendnp310CommandSetERKSt8functionIFvRKNS1_18ICommandTaskResultEEERKNS1_10TaskConfigEENUlvE_D1Ev
	jmp	.L1364
.L1373:
	movq	48(%rbx), %rdi
	movq	%rax, %r13
	testq	%rdi, %rdi
	je	.L1353
	call	_ZNSt16_Sp_counted_baseILN9__gnu_cxx12_Lock_policyE2EE10_M_releaseEv@PLT
.L1353:
	movq	32(%rbx), %rdi
	testq	%rdi, %rdi
	je	.L1354
	call	_ZNSt16_Sp_counted_baseILN9__gnu_cxx12_Lock_policyE2EE10_M_releaseEv@PLT
.L1354:
	movq	%rsp, %rax
	movq	%r13, %rbx
	leaq	16(%rax), %rsi
	leaq	8(%rax), %rdi
	call	_ZN4asio6detail18completion_handlerIZN8asiodnp318MasterSessionStack13DirectOperateEON8opendnp310CommandSetERKSt8functionIFvRKNS4_18ICommandTaskResultEEERKNS4_10TaskConfigEEUlvE_E3ptr5resetEv.isra.108
.L1355:
	movq	%r12, %rdi
	leaq	32(%rsp), %r13
	call	_ZZN8asiodnp318MasterSessionStack13DirectOperateEON8opendnp310CommandSetERKSt8functionIFvRKNS1_18ICommandTaskResultEEERKNS1_10TaskConfigEENUlvE_D1Ev
	jmp	.L1348
.L1371:
	movq	%rax, %rbx
	jmp	.L1355
	.cfi_endproc
.LFE7979:
	.section	.gcc_except_table
.LLSDA7979:
	.byte	0xff
	.byte	0xff
	.byte	0x1
	.uleb128 .LLSDACSE7979-.LLSDACSB7979
.LLSDACSB7979:
	.uleb128 .LEHB53-.LFB7979
	.uleb128 .LEHE53-.LEHB53
	.uleb128 0
	.uleb128 0
	.uleb128 .LEHB54-.LFB7979
	.uleb128 .LEHE54-.LEHB54
	.uleb128 .L1369-.LFB7979
	.uleb128 0
	.uleb128 .LEHB55-.LFB7979
	.uleb128 .LEHE55-.LEHB55
	.uleb128 .L1370-.LFB7979
	.uleb128 0
	.uleb128 .LEHB56-.LFB7979
	.uleb128 .LEHE56-.LEHB56
	.uleb128 .L1372-.LFB7979
	.uleb128 0
	.uleb128 .LEHB57-.LFB7979
	.uleb128 .LEHE57-.LEHB57
	.uleb128 .L1373-.LFB7979
	.uleb128 0
	.uleb128 .LEHB58-.LFB7979
	.uleb128 .LEHE58-.LEHB58
	.uleb128 .L1371-.LFB7979
	.uleb128 0
	.uleb128 .LEHB59-.LFB7979
	.uleb128 .LEHE59-.LEHB59
	.uleb128 .L1368-.LFB7979
	.uleb128 0
	.uleb128 .LEHB60-.LFB7979
	.uleb128 .LEHE60-.LEHB60
	.uleb128 0
	.uleb128 0
	.uleb128 .LEHB61-.LFB7979
	.uleb128 .LEHE61-.LEHB61
	.uleb128 .L1368-.LFB7979
	.uleb128 0
	.uleb128 .LEHB62-.LFB7979
	.uleb128 .LEHE62-.LEHB62
	.uleb128 0
	.uleb128 0
.LLSDACSE7979:
	.text
	.size	_ZN8asiodnp318MasterSessionStack13DirectOperateEON8opendnp310CommandSetERKSt8functionIFvRKNS1_18ICommandTaskResultEEERKNS1_10TaskConfigE, .-_ZN8asiodnp318MasterSessionStack13DirectOperateEON8opendnp310CommandSetERKSt8functionIFvRKNS1_18ICommandTaskResultEEERKNS1_10TaskConfigE
	.align 2
	.p2align 4,,15
	.globl	_ZN8asiodnp318MasterSessionStack16SelectAndOperateEON8opendnp310CommandSetERKSt8functionIFvRKNS1_18ICommandTaskResultEEERKNS1_10TaskConfigE
	.type	_ZN8asiodnp318MasterSessionStack16SelectAndOperateEON8opendnp310CommandSetERKSt8functionIFvRKNS1_18ICommandTaskResultEEERKNS1_10TaskConfigE, @function
_ZN8asiodnp318MasterSessionStack16SelectAndOperateEON8opendnp310CommandSetERKSt8functionIFvRKNS1_18ICommandTaskResultEEERKNS1_10TaskConfigE:
.LFB7955:
	.cfi_startproc
	.cfi_personality 0x9b,DW.ref.__gxx_personality_v0
	.cfi_lsda 0x1b,.LLSDA7955
	pushq	%r15
	.cfi_def_cfa_offset 16
	.cfi_offset 15, -16
	pushq	%r14
	.cfi_def_cfa_offset 24
	.cfi_offset 14, -24
	movq	%rsi, %r14
	pushq	%r13
	.cfi_def_cfa_offset 32
	.cfi_offset 13, -32
	pushq	%r12
	.cfi_def_cfa_offset 40
	.cfi_offset 12, -40
	movq	%rcx, %r13
	pushq	%rbp
	.cfi_def_cfa_offset 48
	.cfi_offset 6, -48
	pushq	%rbx
	.cfi_def_cfa_offset 56
	.cfi_offset 3, -56
	movq	%rdi, %rbx
	movl	$40, %edi
	movq	%rdx, %r12
	subq	$216, %rsp
	.cfi_def_cfa_offset 272
	movq	%fs:40, %rax
	movq	%rax, 200(%rsp)
	xorl	%eax, %eax
.LEHB63:
	call	_Znwm@PLT
.LEHE63:
	movq	%rax, %rbp
	movabsq	$4294967297, %rax
	movq	%r14, %rsi
	movq	%rax, 8(%rbp)
	movq	_ZTVSt23_Sp_counted_ptr_inplaceIN8opendnp310CommandSetESaIS1_ELN9__gnu_cxx12_Lock_policyE2EE@GOTPCREL(%rip), %rax
	leaq	16(%rbp), %rdi
	addq	$16, %rax
	movq	%rax, 0(%rbp)
.LEHB64:
	call	_ZN8opendnp310CommandSetC1EOS0_@PLT
.LEHE64:
	movq	0(%rbp), %rax
	movq	_ZTISt19_Sp_make_shared_tag@GOTPCREL(%rip), %rsi
	movq	%rbp, %rdi
	call	*32(%rax)
	movq	%rax, %rcx
	movq	24(%rbx), %rax
	testq	%rax, %rax
	movq	%rax, 40(%rsp)
	je	.L1569
	leaq	8(%rax), %rdx
	movl	8(%rax), %eax
	testl	%eax, %eax
	je	.L1452
.L1563:
	leal	1(%rax), %esi
	lock cmpxchgl	%esi, (%rdx)
	jne	.L1570
	movq	_ZL28__gthrw___pthread_key_createPjPFvPvE@GOTPCREL(%rip), %r14
	movq	16(%rbx), %rax
	movq	%rcx, 48(%rsp)
	movq	%rbp, 56(%rsp)
	testq	%r14, %r14
	movq	%rax, 32(%rsp)
	jne	.L1571
	addl	$1, 8(%rbp)
.L1457:
	movq	16(%r12), %rax
	movq	$0, 96(%rsp)
	movdqu	0(%r13), %xmm0
	testq	%rax, %rax
	movaps	%xmm0, 64(%rsp)
	je	.L1458
	leaq	32(%rsp), %r13
	movl	$2, %edx
	movq	%r12, %rsi
	leaq	48(%r13), %rdi
.LEHB65:
	call	*%rax
.LEHE65:
	movdqu	16(%r12), %xmm0
	movaps	%xmm0, 96(%rsp)
.L1458:
	movq	32(%rsp), %rax
	movq	32(%rbx), %r15
	movq	%rax, 112(%rsp)
	movq	40(%rsp), %rax
	testq	%rax, %rax
	movq	%rax, 120(%rsp)
	je	.L1463
	testq	%r14, %r14
	jne	.L1572
	addl	$1, 8(%rax)
	movq	48(%rsp), %rax
	movq	%rax, 128(%rsp)
	movq	56(%rsp), %rax
	testq	%rax, %rax
	movq	%rax, 136(%rsp)
	je	.L1466
.L1467:
	addl	$1, 8(%rax)
.L1466:
	movq	96(%rsp), %rax
	movq	$0, 176(%rsp)
	leaq	112(%rsp), %r12
	movdqa	64(%rsp), %xmm0
	testq	%rax, %rax
	movaps	%xmm0, 144(%rsp)
	je	.L1469
	leaq	32(%rsp), %r13
	leaq	112(%rsp), %r12
	movl	$2, %edx
	leaq	48(%r13), %rsi
	leaq	48(%r12), %rdi
.LEHB66:
	call	*%rax
.LEHE66:
	movdqa	96(%rsp), %xmm0
	movaps	%xmm0, 176(%rsp)
.L1469:
	movq	%r12, %rdi
	xorl	%eax, %eax
	movq	40(%r15), %r14
	call	_ZN4asio28asio_handler_is_continuationEz@PLT
	pxor	%xmm0, %xmm0
	movl	%eax, %r13d
	movq	%r12, (%rsp)
	addq	$48, %r15
	movups	%xmm0, 8(%rsp)
	.byte	0x66
	leaq	_ZN4asio6detail15keyword_tss_ptrINS0_10call_stackINS0_15task_io_serviceENS0_27task_io_service_thread_infoEE7contextEE6value_E@tlsgd(%rip), %rdi
	.value	0x6666
	rex64
	call	__tls_get_addr@PLT
	movq	(%rax), %rax
	testq	%rax, %rax
	je	.L1475
	movq	8(%rax), %rax
	testq	%rax, %rax
	je	.L1475
	movq	(%rax), %rbx
	testq	%rbx, %rbx
	je	.L1475
	movq	$0, (%rax)
	movzbl	(%rbx), %eax
	cmpb	$103, %al
	jbe	.L1476
	movb	%al, 104(%rbx)
.L1477:
	leaq	_ZN4asio6detail18completion_handlerIZN8asiodnp318MasterSessionStack16SelectAndOperateEON8opendnp310CommandSetERKSt8functionIFvRKNS4_18ICommandTaskResultEEERKNS4_10TaskConfigEEUlvE_E11do_completeEPNS0_15task_io_serviceEPNS0_25task_io_service_operationERKSt10error_codem(%rip), %rax
	movq	%rbx, 8(%rsp)
	leaq	48(%r12), %rsi
	movdqa	144(%rsp), %xmm0
	leaq	72(%rbx), %rdi
	movq	%rax, 8(%rbx)
	movq	112(%rsp), %rax
	movups	%xmm0, 56(%rbx)
	movq	$0, (%rbx)
	movl	$0, 16(%rbx)
	movq	%rax, 24(%rbx)
	movq	120(%rsp), %rax
	movq	$0, 112(%rsp)
	movq	$0, 120(%rsp)
	movq	%rax, 32(%rbx)
	movq	128(%rsp), %rax
	movq	$0, 128(%rsp)
	movq	%rax, 40(%rbx)
	movq	136(%rsp), %rax
	movq	$0, 136(%rsp)
	movq	%rax, 48(%rbx)
.LEHB67:
	call	_ZNSt8functionIFvRKN8opendnp318ICommandTaskResultEEEC1ERKS5_@PLT
.LEHE67:
	movzbl	%r13b, %ecx
	movq	%rbx, %rdx
	movq	%r15, %rsi
	movq	%r14, %rdi
	movq	%rbx, 16(%rsp)
	call	_ZN4asio6detail14strand_service7do_postERPNS1_11strand_implEPNS0_25task_io_service_operationEb@PLT
	movq	176(%rsp), %rax
	testq	%rax, %rax
	je	.L1482
	leaq	48(%r12), %rdi
	movl	$3, %edx
	movq	%rdi, %rsi
	call	*%rax
.L1482:
	movq	136(%rsp), %rdi
	testq	%rdi, %rdi
	je	.L1483
	call	_ZNSt16_Sp_counted_baseILN9__gnu_cxx12_Lock_policyE2EE10_M_releaseEv@PLT
.L1483:
	movq	120(%rsp), %rdi
	testq	%rdi, %rdi
	je	.L1484
	call	_ZNSt16_Sp_counted_baseILN9__gnu_cxx12_Lock_policyE2EE10_M_releaseEv@PLT
.L1484:
	movq	96(%rsp), %rax
	testq	%rax, %rax
	je	.L1486
	leaq	80(%rsp), %rdi
	movl	$3, %edx
	movq	%rdi, %rsi
	call	*%rax
.L1486:
	movq	56(%rsp), %rdi
	testq	%rdi, %rdi
	je	.L1487
	call	_ZNSt16_Sp_counted_baseILN9__gnu_cxx12_Lock_policyE2EE10_M_releaseEv@PLT
.L1487:
	movq	40(%rsp), %rdi
	testq	%rdi, %rdi
	je	.L1488
	call	_ZNSt16_Sp_counted_baseILN9__gnu_cxx12_Lock_policyE2EE10_M_releaseEv@PLT
.L1488:
	movq	%rbp, %rdi
	call	_ZNSt16_Sp_counted_baseILN9__gnu_cxx12_Lock_policyE2EE10_M_releaseEv@PLT
	movq	200(%rsp), %rax
	xorq	%fs:40, %rax
	jne	.L1573
	addq	$216, %rsp
	.cfi_remember_state
	.cfi_def_cfa_offset 56
	popq	%rbx
	.cfi_def_cfa_offset 48
	popq	%rbp
	.cfi_def_cfa_offset 40
	popq	%r12
	.cfi_def_cfa_offset 32
	popq	%r13
	.cfi_def_cfa_offset 24
	popq	%r14
	.cfi_def_cfa_offset 16
	popq	%r15
	.cfi_def_cfa_offset 8
	ret
	.p2align 4,,10
	.p2align 3
.L1572:
	.cfi_restore_state
	lock addl	$1, 8(%rax)
	movq	56(%rsp), %rdx
	movq	48(%rsp), %rax
	testq	%rdx, %rdx
	movq	%rax, 128(%rsp)
	movq	%rdx, 136(%rsp)
	leaq	8(%rdx), %rax
	je	.L1466
.L1492:
	lock addl	$1, (%rax)
	jmp	.L1466
	.p2align 4,,10
	.p2align 3
.L1476:
	movq	%rbx, %rdi
	call	_ZdlPv@PLT
.L1475:
	movl	$105, %edi
.LEHB68:
	call	_Znwm@PLT
.LEHE68:
	movq	%rax, %rbx
	movb	$104, 104(%rax)
	jmp	.L1477
	.p2align 4,,10
	.p2align 3
.L1571:
	lock addl	$1, 8(%rbp)
	jmp	.L1457
	.p2align 4,,10
	.p2align 3
.L1463:
	movq	48(%rsp), %rax
	movq	%rax, 128(%rsp)
	movq	56(%rsp), %rax
	testq	%rax, %rax
	movq	%rax, 136(%rsp)
	je	.L1466
	testq	%r14, %r14
	je	.L1467
	addq	$8, %rax
	jmp	.L1492
.L1573:
	call	__stack_chk_fail@PLT
.L1570:
	testl	%eax, %eax
	jne	.L1563
.L1452:
.LEHB69:
	call	_ZSt20__throw_bad_weak_ptrv@PLT
.LEHE69:
.L1494:
	movq	%rax, %rbx
.L1490:
	movq	%rbp, %rdi
	call	_ZNSt16_Sp_counted_baseILN9__gnu_cxx12_Lock_policyE2EE10_M_releaseEv@PLT
	movq	%rbx, %rdi
.LEHB70:
	call	_Unwind_Resume@PLT
.LEHE70:
.L1569:
.LEHB71:
	call	_ZSt20__throw_bad_weak_ptrv@PLT
.LEHE71:
.L1496:
	movq	%rax, %rbx
	movq	96(%rsp), %rax
	testq	%rax, %rax
	je	.L1460
	leaq	48(%r13), %rdi
	movl	$3, %edx
	movq	%rdi, %rsi
	call	*%rax
.L1460:
	movq	56(%rsp), %rdi
	testq	%rdi, %rdi
	je	.L1462
	call	_ZNSt16_Sp_counted_baseILN9__gnu_cxx12_Lock_policyE2EE10_M_releaseEv@PLT
.L1462:
	movq	40(%rsp), %rdi
	testq	%rdi, %rdi
	je	.L1490
	call	_ZNSt16_Sp_counted_baseILN9__gnu_cxx12_Lock_policyE2EE10_M_releaseEv@PLT
	jmp	.L1490
.L1495:
	movq	%rax, %rbx
	movq	%rbp, %rdi
	call	_ZdlPv@PLT
	movq	%rbx, %rdi
.LEHB72:
	call	_Unwind_Resume@PLT
.LEHE72:
.L1498:
	movq	%rax, %rbx
	movq	176(%rsp), %rax
	testq	%rax, %rax
	je	.L1471
	leaq	48(%r12), %rdi
	movl	$3, %edx
	movq	%rdi, %rsi
	call	*%rax
.L1471:
	movq	136(%rsp), %rdi
	testq	%rdi, %rdi
	je	.L1472
	call	_ZNSt16_Sp_counted_baseILN9__gnu_cxx12_Lock_policyE2EE10_M_releaseEv@PLT
.L1472:
	movq	120(%rsp), %rdi
	testq	%rdi, %rdi
	je	.L1474
	call	_ZNSt16_Sp_counted_baseILN9__gnu_cxx12_Lock_policyE2EE10_M_releaseEv@PLT
.L1474:
	movq	%r13, %rdi
	call	_ZZN8asiodnp318MasterSessionStack16SelectAndOperateEON8opendnp310CommandSetERKSt8functionIFvRKNS1_18ICommandTaskResultEEERKNS1_10TaskConfigEENUlvE_D1Ev
	jmp	.L1490
.L1499:
	movq	48(%rbx), %rdi
	movq	%rax, %r13
	testq	%rdi, %rdi
	je	.L1479
	call	_ZNSt16_Sp_counted_baseILN9__gnu_cxx12_Lock_policyE2EE10_M_releaseEv@PLT
.L1479:
	movq	32(%rbx), %rdi
	testq	%rdi, %rdi
	je	.L1480
	call	_ZNSt16_Sp_counted_baseILN9__gnu_cxx12_Lock_policyE2EE10_M_releaseEv@PLT
.L1480:
	movq	%rsp, %rax
	movq	%r13, %rbx
	leaq	16(%rax), %rsi
	leaq	8(%rax), %rdi
	call	_ZN4asio6detail18completion_handlerIZN8asiodnp318MasterSessionStack16SelectAndOperateEON8opendnp310CommandSetERKSt8functionIFvRKNS4_18ICommandTaskResultEEERKNS4_10TaskConfigEEUlvE_E3ptr5resetEv.isra.106
.L1481:
	movq	%r12, %rdi
	leaq	32(%rsp), %r13
	call	_ZZN8asiodnp318MasterSessionStack16SelectAndOperateEON8opendnp310CommandSetERKSt8functionIFvRKNS1_18ICommandTaskResultEEERKNS1_10TaskConfigEENUlvE_D1Ev
	jmp	.L1474
.L1497:
	movq	%rax, %rbx
	jmp	.L1481
	.cfi_endproc
.LFE7955:
	.section	.gcc_except_table
.LLSDA7955:
	.byte	0xff
	.byte	0xff
	.byte	0x1
	.uleb128 .LLSDACSE7955-.LLSDACSB7955
.LLSDACSB7955:
	.uleb128 .LEHB63-.LFB7955
	.uleb128 .LEHE63-.LEHB63
	.uleb128 0
	.uleb128 0
	.uleb128 .LEHB64-.LFB7955
	.uleb128 .LEHE64-.LEHB64
	.uleb128 .L1495-.LFB7955
	.uleb128 0
	.uleb128 .LEHB65-.LFB7955
	.uleb128 .LEHE65-.LEHB65
	.uleb128 .L1496-.LFB7955
	.uleb128 0
	.uleb128 .LEHB66-.LFB7955
	.uleb128 .LEHE66-.LEHB66
	.uleb128 .L1498-.LFB7955
	.uleb128 0
	.uleb128 .LEHB67-.LFB7955
	.uleb128 .LEHE67-.LEHB67
	.uleb128 .L1499-.LFB7955
	.uleb128 0
	.uleb128 .LEHB68-.LFB7955
	.uleb128 .LEHE68-.LEHB68
	.uleb128 .L1497-.LFB7955
	.uleb128 0
	.uleb128 .LEHB69-.LFB7955
	.uleb128 .LEHE69-.LEHB69
	.uleb128 .L1494-.LFB7955
	.uleb128 0
	.uleb128 .LEHB70-.LFB7955
	.uleb128 .LEHE70-.LEHB70
	.uleb128 0
	.uleb128 0
	.uleb128 .LEHB71-.LFB7955
	.uleb128 .LEHE71-.LEHB71
	.uleb128 .L1494-.LFB7955
	.uleb128 0
	.uleb128 .LEHB72-.LFB7955
	.uleb128 .LEHE72-.LEHB72
	.uleb128 0
	.uleb128 0
.LLSDACSE7955:
	.text
	.size	_ZN8asiodnp318MasterSessionStack16SelectAndOperateEON8opendnp310CommandSetERKSt8functionIFvRKNS1_18ICommandTaskResultEEERKNS1_10TaskConfigE, .-_ZN8asiodnp318MasterSessionStack16SelectAndOperateEON8opendnp310CommandSetERKSt8functionIFvRKNS1_18ICommandTaskResultEEERKNS1_10TaskConfigE
	.align 2
	.p2align 4,,15
	.globl	_ZN8asiodnp318MasterSessionStack15PerformFunctionERKNSt7__cxx1112basic_stringIcSt11char_traitsIcESaIcEEEN8opendnp312FunctionCodeERKSt6vectorINS9_6HeaderESaISC_EERKNS9_10TaskConfigE
	.type	_ZN8asiodnp318MasterSessionStack15PerformFunctionERKNSt7__cxx1112basic_stringIcSt11char_traitsIcESaIcEEEN8opendnp312FunctionCodeERKSt6vectorINS9_6HeaderESaISC_EERKNS9_10TaskConfigE, @function
_ZN8asiodnp318MasterSessionStack15PerformFunctionERKNSt7__cxx1112basic_stringIcSt11char_traitsIcESaIcEEEN8opendnp312FunctionCodeERKSt6vectorINS9_6HeaderESaISC_EERKNS9_10TaskConfigE:
.LFB7947:
	.cfi_startproc
	.cfi_personality 0x9b,DW.ref.__gxx_personality_v0
	.cfi_lsda 0x1b,.LLSDA7947
	pushq	%r15
	.cfi_def_cfa_offset 16
	.cfi_offset 15, -16
	pushq	%r14
	.cfi_def_cfa_offset 24
	.cfi_offset 14, -24
	movq	%r8, %r15
	pushq	%r13
	.cfi_def_cfa_offset 32
	.cfi_offset 13, -32
	pushq	%r12
	.cfi_def_cfa_offset 40
	.cfi_offset 12, -40
	movq	%rdi, %r12
	pushq	%rbp
	.cfi_def_cfa_offset 48
	.cfi_offset 6, -48
	pushq	%rbx
	.cfi_def_cfa_offset 56
	.cfi_offset 3, -56
	movq	%rsi, %rbx
	movq	%rcx, %rsi
	subq	$376, %rsp
	.cfi_def_cfa_offset 432
	leaq	96(%rsp), %r13
	movl	%edx, 8(%rsp)
	movq	%fs:40, %rax
	movq	%rax, 360(%rsp)
	xorl	%eax, %eax
	movq	%r13, %rdi
.LEHB73:
	call	_ZN8asiodnp315ConvertToLambdaERKSt6vectorIN8opendnp36HeaderESaIS2_EE@PLT
.LEHE73:
	movq	24(%r12), %rax
	testq	%rax, %rax
	movq	%rax, 136(%rsp)
	je	.L1575
	leaq	8(%rax), %rdx
	movl	8(%rax), %eax
	testl	%eax, %eax
	je	.L1576
.L1706:
	leal	1(%rax), %ecx
	lock cmpxchgl	%ecx, (%rdx)
	jne	.L1709
	movq	16(%r12), %rax
	leaq	128(%rsp), %rbp
	movq	(%rbx), %r14
	movq	8(%rbx), %rbx
	movq	%rax, 128(%rsp)
	leaq	32(%rbp), %rax
	movq	%rax, 144(%rsp)
	movq	%r14, %rax
	addq	%rbx, %rax
	je	.L1580
	testq	%r14, %r14
	je	.L1710
.L1580:
	cmpq	$15, %rbx
	movq	%rbx, 40(%rsp)
	ja	.L1711
	cmpq	$1, %rbx
	jne	.L1583
	movzbl	(%r14), %eax
	movb	%al, 160(%rsp)
	leaq	32(%rbp), %rax
.L1584:
	movq	%rbx, 152(%rsp)
	movb	$0, (%rax,%rbx)
	movzbl	8(%rsp), %eax
	movq	$0, 200(%rsp)
	movb	%al, 176(%rsp)
	movq	112(%rsp), %rax
	testq	%rax, %rax
	je	.L1586
	leaq	56(%rbp), %rdi
	movl	$2, %edx
	movq	%r13, %rsi
.LEHB74:
	call	*%rax
.LEHE74:
	movdqa	112(%rsp), %xmm0
	movups	%xmm0, 200(%rsp)
.L1586:
	movq	128(%rsp), %rax
	movq	32(%r12), %r14
	movq	%rax, 240(%rsp)
	movq	136(%rsp), %rax
	movdqu	(%r15), %xmm0
	testq	%rax, %rax
	movq	%rax, 248(%rsp)
	movups	%xmm0, 216(%rsp)
	je	.L1591
	cmpq	$0, _ZL28__gthrw___pthread_key_createPjPFvPvE@GOTPCREL(%rip)
	je	.L1592
	lock addl	$1, 8(%rax)
.L1591:
	leaq	240(%rsp), %r12
	movq	144(%rsp), %r15
	movq	152(%rsp), %rbx
	leaq	32(%r12), %rax
	movq	%rax, 256(%rsp)
	movq	%r15, %rax
	addq	%rbx, %rax
	je	.L1593
	testq	%r15, %r15
	je	.L1712
.L1593:
	cmpq	$15, %rbx
	movq	%rbx, 48(%rsp)
	ja	.L1713
	cmpq	$1, %rbx
	jne	.L1596
	movzbl	(%r15), %eax
	movb	%al, 272(%rsp)
	leaq	32(%r12), %rax
.L1597:
	movq	%rbx, 264(%rsp)
	movb	$0, (%rax,%rbx)
	movzbl	176(%rsp), %eax
	movq	$0, 312(%rsp)
	movb	%al, 288(%rsp)
	movq	200(%rsp), %rax
	testq	%rax, %rax
	je	.L1598
	leaq	56(%rbp), %rsi
	leaq	56(%r12), %rdi
	movl	$2, %edx
.LEHB75:
	call	*%rax
.LEHE75:
	movdqu	200(%rsp), %xmm0
	movups	%xmm0, 312(%rsp)
.L1598:
	movq	40(%r14), %rax
	movq	%r12, %rdi
	movq	%rax, 8(%rsp)
	leaq	48(%r14), %rax
	movdqu	216(%rsp), %xmm0
	movq	%rax, 16(%rsp)
	xorl	%eax, %eax
	movups	%xmm0, 328(%rsp)
	call	_ZN4asio28asio_handler_is_continuationEz@PLT
	pxor	%xmm0, %xmm0
	movb	%al, 31(%rsp)
	movq	%r12, 64(%rsp)
	movups	%xmm0, 72(%rsp)
	.byte	0x66
	leaq	_ZN4asio6detail15keyword_tss_ptrINS0_10call_stackINS0_15task_io_serviceENS0_27task_io_service_thread_infoEE7contextEE6value_E@tlsgd(%rip), %rdi
	.value	0x6666
	rex64
	call	__tls_get_addr@PLT
	movq	(%rax), %rax
	testq	%rax, %rax
	je	.L1604
	movq	8(%rax), %rax
	testq	%rax, %rax
	je	.L1604
	movq	(%rax), %rbx
	testq	%rbx, %rbx
	je	.L1604
	movq	$0, (%rax)
	movzbl	(%rbx), %eax
	testb	%al, %al
	jns	.L1608
	movb	%al, 128(%rbx)
.L1609:
	leaq	_ZN4asio6detail18completion_handlerIZN8asiodnp318MasterSessionStack15PerformFunctionERKNSt7__cxx1112basic_stringIcSt11char_traitsIcESaIcEEEN8opendnp312FunctionCodeERKSt6vectorINSC_6HeaderESaISF_EERKNSC_10TaskConfigEEUlvE_E11do_completeEPNS0_15task_io_serviceEPNS0_25task_io_service_operationERKSt10error_codem(%rip), %rax
	movq	%rbx, 72(%rsp)
	movl	$0, 16(%rbx)
	movq	$0, (%rbx)
	pxor	%xmm0, %xmm0
	movq	%rax, 8(%rbx)
	movq	240(%rsp), %rax
	movq	256(%rsp), %r15
	movq	%rax, 24(%rbx)
	movq	248(%rsp), %rax
	movq	264(%rsp), %r14
	movq	%r15, %rcx
	movaps	%xmm0, 240(%rsp)
	movq	%rax, 32(%rbx)
	leaq	56(%rbx), %rax
	addq	%r14, %rcx
	movq	%rax, 40(%rbx)
	je	.L1632
	testq	%r15, %r15
	je	.L1714
.L1632:
	cmpq	$15, %r14
	movq	%r14, 56(%rsp)
	ja	.L1715
	cmpq	$1, %r14
	jne	.L1612
	movzbl	(%r15), %edx
	movb	%dl, 56(%rbx)
.L1613:
	movq	%r14, 48(%rbx)
	movb	$0, (%rax,%r14)
	movzbl	288(%rsp), %eax
	movq	104(%rbx), %rdx
	movdqu	296(%rsp), %xmm0
	movzbl	31(%rsp), %ecx
	movq	16(%rsp), %rsi
	movdqu	80(%rbx), %xmm1
	movb	%al, 72(%rbx)
	movq	312(%rsp), %rax
	movups	%xmm0, 80(%rbx)
	movq	8(%rsp), %rdi
	movq	$0, 312(%rsp)
	movups	%xmm1, 296(%rsp)
	movq	%rax, 96(%rbx)
	movq	320(%rsp), %rax
	movdqu	328(%rsp), %xmm0
	movq	%rdx, 320(%rsp)
	movq	%rbx, %rdx
	movq	%rbx, 80(%rsp)
	movups	%xmm0, 112(%rbx)
	movq	%rax, 104(%rbx)
	call	_ZN4asio6detail14strand_service7do_postERPNS1_11strand_implEPNS0_25task_io_service_operationEb@PLT
	movq	312(%rsp), %rax
	testq	%rax, %rax
	je	.L1615
	leaq	56(%r12), %rdi
	movl	$3, %edx
	movq	%rdi, %rsi
	call	*%rax
.L1615:
	movq	256(%rsp), %rdi
	addq	$32, %r12
	cmpq	%r12, %rdi
	je	.L1619
	call	_ZdlPv@PLT
.L1619:
	movq	248(%rsp), %rdi
	testq	%rdi, %rdi
	je	.L1620
	call	_ZNSt16_Sp_counted_baseILN9__gnu_cxx12_Lock_policyE2EE10_M_releaseEv@PLT
.L1620:
	movq	200(%rsp), %rax
	testq	%rax, %rax
	je	.L1622
	leaq	56(%rbp), %rdi
	movl	$3, %edx
	movq	%rdi, %rsi
	call	*%rax
.L1622:
	movq	144(%rsp), %rdi
	addq	$32, %rbp
	cmpq	%rbp, %rdi
	je	.L1623
	call	_ZdlPv@PLT
.L1623:
	movq	136(%rsp), %rdi
	testq	%rdi, %rdi
	je	.L1624
	call	_ZNSt16_Sp_counted_baseILN9__gnu_cxx12_Lock_policyE2EE10_M_releaseEv@PLT
.L1624:
	movq	112(%rsp), %rax
	testq	%rax, %rax
	je	.L1574
	movl	$3, %edx
	movq	%r13, %rsi
	movq	%r13, %rdi
	call	*%rax
.L1574:
	movq	360(%rsp), %rax
	xorq	%fs:40, %rax
	jne	.L1716
	addq	$376, %rsp
	.cfi_remember_state
	.cfi_def_cfa_offset 56
	popq	%rbx
	.cfi_def_cfa_offset 48
	popq	%rbp
	.cfi_def_cfa_offset 40
	popq	%r12
	.cfi_def_cfa_offset 32
	popq	%r13
	.cfi_def_cfa_offset 24
	popq	%r14
	.cfi_def_cfa_offset 16
	popq	%r15
	.cfi_def_cfa_offset 8
	ret
	.p2align 4,,10
	.p2align 3
.L1608:
	.cfi_restore_state
	movq	%rbx, %rdi
	call	_ZdlPv@PLT
.L1604:
	movl	$129, %edi
.LEHB76:
	call	_Znwm@PLT
.LEHE76:
	movq	%rax, %rbx
	movb	$-128, 128(%rax)
	jmp	.L1609
	.p2align 4,,10
	.p2align 3
.L1592:
	addl	$1, 8(%rax)
	jmp	.L1591
	.p2align 4,,10
	.p2align 3
.L1711:
	leaq	40(%rsp), %rsi
	leaq	16(%rbp), %rdi
	xorl	%edx, %edx
.LEHB77:
	call	_ZNSt7__cxx1112basic_stringIcSt11char_traitsIcESaIcEE9_M_createERmm@PLT
.LEHE77:
	movq	40(%rsp), %rdx
	movq	%rax, 144(%rsp)
	movq	%rdx, 160(%rsp)
.L1582:
	movq	%rbx, %rdx
	movq	%r14, %rsi
	movq	%rax, %rdi
	call	memcpy@PLT
	movq	40(%rsp), %rbx
	movq	144(%rsp), %rax
	jmp	.L1584
	.p2align 4,,10
	.p2align 3
.L1713:
	leaq	48(%rsp), %rsi
	leaq	16(%r12), %rdi
	xorl	%edx, %edx
.LEHB78:
	call	_ZNSt7__cxx1112basic_stringIcSt11char_traitsIcESaIcEE9_M_createERmm@PLT
.LEHE78:
	movq	48(%rsp), %rdx
	movq	%rax, 256(%rsp)
	movq	%rdx, 272(%rsp)
.L1595:
	movq	%rbx, %rdx
	movq	%r15, %rsi
	movq	%rax, %rdi
	call	memcpy@PLT
	movq	48(%rsp), %rbx
	movq	256(%rsp), %rax
	jmp	.L1597
	.p2align 4,,10
	.p2align 3
.L1715:
	leaq	56(%rsp), %rsi
	leaq	40(%rbx), %rdi
	xorl	%edx, %edx
.LEHB79:
	call	_ZNSt7__cxx1112basic_stringIcSt11char_traitsIcESaIcEE9_M_createERmm@PLT
.LEHE79:
	movq	56(%rsp), %rdx
	movq	%rax, 40(%rbx)
	movq	%rdx, 56(%rbx)
.L1611:
	movq	%r14, %rdx
	movq	%r15, %rsi
	movq	%rax, %rdi
	call	memcpy@PLT
	movq	56(%rsp), %r14
	movq	40(%rbx), %rax
	jmp	.L1613
	.p2align 4,,10
	.p2align 3
.L1583:
	testq	%rbx, %rbx
	leaq	32(%rbp), %rax
	je	.L1584
	jmp	.L1582
	.p2align 4,,10
	.p2align 3
.L1596:
	testq	%rbx, %rbx
	leaq	32(%r12), %rax
	je	.L1597
	jmp	.L1595
	.p2align 4,,10
	.p2align 3
.L1612:
	testq	%r14, %r14
	je	.L1613
	jmp	.L1611
.L1710:
	leaq	.LC4(%rip), %rdi
.LEHB80:
	call	_ZSt19__throw_logic_errorPKc@PLT
.LEHE80:
.L1637:
	movq	%rax, %rbx
.L1626:
	movq	136(%rsp), %rdi
	testq	%rdi, %rdi
	je	.L1628
	call	_ZNSt16_Sp_counted_baseILN9__gnu_cxx12_Lock_policyE2EE10_M_releaseEv@PLT
.L1628:
	movq	112(%rsp), %rax
	testq	%rax, %rax
	je	.L1629
	movl	$3, %edx
	movq	%r13, %rsi
	movq	%r13, %rdi
	call	*%rax
.L1629:
	movq	%rbx, %rdi
.LEHB81:
	call	_Unwind_Resume@PLT
.LEHE81:
.L1575:
.LEHB82:
	call	_ZSt20__throw_bad_weak_ptrv@PLT
.L1636:
	movq	%rax, %rbx
	jmp	.L1628
.L1709:
	testl	%eax, %eax
	jne	.L1706
.L1576:
	call	_ZSt20__throw_bad_weak_ptrv@PLT
.LEHE82:
.L1716:
	call	__stack_chk_fail@PLT
.L1712:
	leaq	.LC4(%rip), %rdi
.LEHB83:
	call	_ZSt19__throw_logic_errorPKc@PLT
.LEHE83:
.L1640:
	movq	%rax, %rbx
.L1605:
	movq	248(%rsp), %rdi
	testq	%rdi, %rdi
	je	.L1607
	call	_ZNSt16_Sp_counted_baseILN9__gnu_cxx12_Lock_policyE2EE10_M_releaseEv@PLT
.L1607:
	movq	%rbp, %rdi
	call	_ZZN8asiodnp318MasterSessionStack15PerformFunctionERKNSt7__cxx1112basic_stringIcSt11char_traitsIcESaIcEEEN8opendnp312FunctionCodeERKSt6vectorINS9_6HeaderESaISC_EERKNS9_10TaskConfigEENUlvE_D1Ev
	jmp	.L1628
.L1714:
	leaq	.LC4(%rip), %rdi
.LEHB84:
	call	_ZSt19__throw_logic_errorPKc@PLT
.LEHE84:
.L1642:
	movq	32(%rbx), %rdi
	movq	%rax, %r14
	testq	%rdi, %rdi
	je	.L1617
	call	_ZNSt16_Sp_counted_baseILN9__gnu_cxx12_Lock_policyE2EE10_M_releaseEv@PLT
.L1617:
	leaq	80(%rsp), %rsi
	leaq	72(%rsp), %rdi
	movq	%r14, %rbx
	call	_ZN4asio6detail18completion_handlerIZN8asiodnp318MasterSessionStack15PerformFunctionERKNSt7__cxx1112basic_stringIcSt11char_traitsIcESaIcEEEN8opendnp312FunctionCodeERKSt6vectorINSC_6HeaderESaISF_EERKNSC_10TaskConfigEEUlvE_E3ptr5resetEv.isra.155
.L1618:
	movq	%r12, %rdi
	call	_ZZN8asiodnp318MasterSessionStack15PerformFunctionERKNSt7__cxx1112basic_stringIcSt11char_traitsIcESaIcEEEN8opendnp312FunctionCodeERKSt6vectorINS9_6HeaderESaISC_EERKNS9_10TaskConfigEENUlvE_D1Ev
	jmp	.L1607
.L1639:
	movq	%rax, %rbx
	jmp	.L1618
.L1638:
	movq	%rax, %rbx
	movq	200(%rsp), %rax
	testq	%rax, %rax
	je	.L1588
	leaq	56(%rbp), %rdi
	movl	$3, %edx
	movq	%rdi, %rsi
	call	*%rax
.L1588:
	movq	144(%rsp), %rdi
	addq	$32, %rbp
	cmpq	%rbp, %rdi
	je	.L1626
	call	_ZdlPv@PLT
	jmp	.L1626
.L1641:
	movq	%rax, %rbx
	movq	312(%rsp), %rax
	testq	%rax, %rax
	je	.L1600
	leaq	56(%r12), %rdi
	movl	$3, %edx
	movq	%rdi, %rsi
	call	*%rax
.L1600:
	movq	256(%rsp), %rdi
	addq	$32, %r12
	cmpq	%r12, %rdi
	je	.L1605
	call	_ZdlPv@PLT
	jmp	.L1605
	.cfi_endproc
.LFE7947:
	.section	.gcc_except_table
.LLSDA7947:
	.byte	0xff
	.byte	0xff
	.byte	0x1
	.uleb128 .LLSDACSE7947-.LLSDACSB7947
.LLSDACSB7947:
	.uleb128 .LEHB73-.LFB7947
	.uleb128 .LEHE73-.LEHB73
	.uleb128 0
	.uleb128 0
	.uleb128 .LEHB74-.LFB7947
	.uleb128 .LEHE74-.LEHB74
	.uleb128 .L1638-.LFB7947
	.uleb128 0
	.uleb128 .LEHB75-.LFB7947
	.uleb128 .LEHE75-.LEHB75
	.uleb128 .L1641-.LFB7947
	.uleb128 0
	.uleb128 .LEHB76-.LFB7947
	.uleb128 .LEHE76-.LEHB76
	.uleb128 .L1639-.LFB7947
	.uleb128 0
	.uleb128 .LEHB77-.LFB7947
	.uleb128 .LEHE77-.LEHB77
	.uleb128 .L1637-.LFB7947
	.uleb128 0
	.uleb128 .LEHB78-.LFB7947
	.uleb128 .LEHE78-.LEHB78
	.uleb128 .L1640-.LFB7947
	.uleb128 0
	.uleb128 .LEHB79-.LFB7947
	.uleb128 .LEHE79-.LEHB79
	.uleb128 .L1642-.LFB7947
	.uleb128 0
	.uleb128 .LEHB80-.LFB7947
	.uleb128 .LEHE80-.LEHB80
	.uleb128 .L1637-.LFB7947
	.uleb128 0
	.uleb128 .LEHB81-.LFB7947
	.uleb128 .LEHE81-.LEHB81
	.uleb128 0
	.uleb128 0
	.uleb128 .LEHB82-.LFB7947
	.uleb128 .LEHE82-.LEHB82
	.uleb128 .L1636-.LFB7947
	.uleb128 0
	.uleb128 .LEHB83-.LFB7947
	.uleb128 .LEHE83-.LEHB83
	.uleb128 .L1640-.LFB7947
	.uleb128 0
	.uleb128 .LEHB84-.LFB7947
	.uleb128 .LEHE84-.LEHB84
	.uleb128 .L1642-.LFB7947
	.uleb128 0
.LLSDACSE7947:
	.text
	.size	_ZN8asiodnp318MasterSessionStack15PerformFunctionERKNSt7__cxx1112basic_stringIcSt11char_traitsIcESaIcEEEN8opendnp312FunctionCodeERKSt6vectorINS9_6HeaderESaISC_EERKNS9_10TaskConfigE, .-_ZN8asiodnp318MasterSessionStack15PerformFunctionERKNSt7__cxx1112basic_stringIcSt11char_traitsIcESaIcEEEN8opendnp312FunctionCodeERKSt6vectorINS9_6HeaderESaISC_EERKNS9_10TaskConfigE
	.p2align 4,,15
	.type	_ZN4asio6detail18completion_handlerIZN8asiodnp318MasterSessionStack13DirectOperateEON8opendnp310CommandSetERKSt8functionIFvRKNS4_18ICommandTaskResultEEERKNS4_10TaskConfigEEUlvE_E11do_completeEPNS0_15task_io_serviceEPNS0_25task_io_service_operationERKSt10error_codem, @function
_ZN4asio6detail18completion_handlerIZN8asiodnp318MasterSessionStack13DirectOperateEON8opendnp310CommandSetERKSt8functionIFvRKNS4_18ICommandTaskResultEEERKNS4_10TaskConfigEEUlvE_E11do_completeEPNS0_15task_io_serviceEPNS0_25task_io_service_operationERKSt10error_codem:
.LFB10452:
	.cfi_startproc
	.cfi_personality 0x9b,DW.ref.__gxx_personality_v0
	.cfi_lsda 0x1b,.LLSDA10452
	pushq	%r12
	.cfi_def_cfa_offset 16
	.cfi_offset 12, -16
	pushq	%rbp
	.cfi_def_cfa_offset 24
	.cfi_offset 6, -24
	movq	%rdi, %r12
	pushq	%rbx
	.cfi_def_cfa_offset 32
	.cfi_offset 3, -32
	movq	%rsi, %rbx
	addq	$-128, %rsp
	.cfi_def_cfa_offset 160
	movq	%fs:40, %rax
	movq	%rax, 120(%rsp)
	xorl	%eax, %eax
	leaq	24(%rsi), %rax
	movdqu	56(%rsi), %xmm0
	movq	%rsi, 8(%rsp)
	movq	%rsi, 16(%rsp)
	movq	%rax, (%rsp)
	movq	24(%rsi), %rax
	movaps	%xmm0, 64(%rsp)
	movq	$0, 24(%rsi)
	movq	$0, 96(%rsp)
	movq	%rax, 32(%rsp)
	movq	32(%rsi), %rax
	movq	$0, 32(%rsi)
	movq	%rax, 40(%rsp)
	movq	40(%rsi), %rax
	movq	$0, 40(%rsi)
	movq	%rax, 48(%rsp)
	movq	48(%rsi), %rax
	movq	$0, 48(%rsi)
	movq	%rax, 56(%rsp)
	movq	88(%rsi), %rax
	testq	%rax, %rax
	je	.L1718
	leaq	32(%rsp), %rbp
	leaq	72(%rsi), %rsi
	movl	$2, %edx
	leaq	48(%rbp), %rdi
.LEHB85:
	call	*%rax
.LEHE85:
	movdqu	88(%rbx), %xmm0
	movq	16(%rsp), %rbx
	movq	%rbp, (%rsp)
	movaps	%xmm0, 96(%rsp)
	testq	%rbx, %rbx
	je	.L1720
.L1719:
	movq	88(%rbx), %rax
	testq	%rax, %rax
	je	.L1726
	leaq	72(%rbx), %rdi
	movl	$3, %edx
	movq	%rdi, %rsi
	call	*%rax
.L1726:
	movq	48(%rbx), %rdi
	testq	%rdi, %rdi
	je	.L1727
	call	_ZNSt16_Sp_counted_baseILN9__gnu_cxx12_Lock_policyE2EE10_M_releaseEv@PLT
.L1727:
	movq	32(%rbx), %rdi
	testq	%rdi, %rdi
	je	.L1728
	call	_ZNSt16_Sp_counted_baseILN9__gnu_cxx12_Lock_policyE2EE10_M_releaseEv@PLT
.L1728:
	movq	$0, 16(%rsp)
.L1720:
	movq	8(%rsp), %rbx
	testq	%rbx, %rbx
	je	.L1729
	.byte	0x66
	leaq	_ZN4asio6detail15keyword_tss_ptrINS0_10call_stackINS0_15task_io_serviceENS0_27task_io_service_thread_infoEE7contextEE6value_E@tlsgd(%rip), %rdi
	.value	0x6666
	rex64
	call	__tls_get_addr@PLT
	movq	(%rax), %rax
	testq	%rax, %rax
	je	.L1730
	movq	8(%rax), %rax
	testq	%rax, %rax
	je	.L1730
	cmpq	$0, (%rax)
	je	.L1807
.L1730:
	movq	%rbx, %rdi
	call	_ZdlPv@PLT
.L1731:
	movq	$0, 8(%rsp)
.L1729:
	testq	%r12, %r12
	je	.L1732
	movq	32(%rsp), %rax
	movq	48(%rsp), %rsi
	leaq	32(%rbp), %rcx
	leaq	48(%rbp), %rdx
	leaq	96(%rax), %rdi
.LEHB86:
	call	_ZN8opendnp38MContext13DirectOperateEONS_10CommandSetERKSt8functionIFvRKNS_18ICommandTaskResultEEERKNS_10TaskConfigE@PLT
.LEHE86:
	sfence
.L1732:
	movq	96(%rsp), %rax
	testq	%rax, %rax
	je	.L1733
	leaq	48(%rbp), %rdi
	movl	$3, %edx
	movq	%rdi, %rsi
	call	*%rax
.L1733:
	movq	56(%rsp), %rdi
	testq	%rdi, %rdi
	je	.L1734
	call	_ZNSt16_Sp_counted_baseILN9__gnu_cxx12_Lock_policyE2EE10_M_releaseEv@PLT
.L1734:
	movq	40(%rsp), %rdi
	testq	%rdi, %rdi
	je	.L1735
	call	_ZNSt16_Sp_counted_baseILN9__gnu_cxx12_Lock_policyE2EE10_M_releaseEv@PLT
.L1735:
	movq	16(%rsp), %rbx
	testq	%rbx, %rbx
	je	.L1736
	movq	88(%rbx), %rax
	testq	%rax, %rax
	je	.L1737
	leaq	72(%rbx), %rdi
	movl	$3, %edx
	movq	%rdi, %rsi
	call	*%rax
.L1737:
	movq	48(%rbx), %rdi
	testq	%rdi, %rdi
	je	.L1738
	call	_ZNSt16_Sp_counted_baseILN9__gnu_cxx12_Lock_policyE2EE10_M_releaseEv@PLT
.L1738:
	movq	32(%rbx), %rdi
	testq	%rdi, %rdi
	je	.L1739
	call	_ZNSt16_Sp_counted_baseILN9__gnu_cxx12_Lock_policyE2EE10_M_releaseEv@PLT
.L1739:
	movq	$0, 16(%rsp)
.L1736:
	movq	8(%rsp), %rbx
	testq	%rbx, %rbx
	je	.L1717
	.byte	0x66
	leaq	_ZN4asio6detail15keyword_tss_ptrINS0_10call_stackINS0_15task_io_serviceENS0_27task_io_service_thread_infoEE7contextEE6value_E@tlsgd(%rip), %rdi
	.value	0x6666
	rex64
	call	__tls_get_addr@PLT
	movq	(%rax), %rax
	testq	%rax, %rax
	je	.L1741
	movq	8(%rax), %rax
	testq	%rax, %rax
	je	.L1741
	cmpq	$0, (%rax)
	je	.L1808
.L1741:
	movq	%rbx, %rdi
	call	_ZdlPv@PLT
.L1717:
	movq	120(%rsp), %rax
	xorq	%fs:40, %rax
	jne	.L1809
	subq	$-128, %rsp
	.cfi_remember_state
	.cfi_def_cfa_offset 32
	popq	%rbx
	.cfi_def_cfa_offset 24
	popq	%rbp
	.cfi_def_cfa_offset 16
	popq	%r12
	.cfi_def_cfa_offset 8
	ret
	.p2align 4,,10
	.p2align 3
.L1808:
	.cfi_restore_state
	movzbl	104(%rbx), %edx
	movb	%dl, (%rbx)
	movq	%rbx, (%rax)
	jmp	.L1717
	.p2align 4,,10
	.p2align 3
.L1807:
	movzbl	104(%rbx), %edx
	movb	%dl, (%rbx)
	movq	%rbx, (%rax)
	jmp	.L1731
	.p2align 4,,10
	.p2align 3
.L1718:
	leaq	32(%rsp), %rbp
	movq	%rbp, (%rsp)
	jmp	.L1719
.L1809:
	call	__stack_chk_fail@PLT
.L1745:
	movq	%rax, %rbx
	movq	96(%rsp), %rax
	testq	%rax, %rax
	je	.L1722
	leaq	48(%rbp), %rdi
	movl	$3, %edx
	movq	%rdi, %rsi
	call	*%rax
.L1722:
	movq	56(%rsp), %rdi
	testq	%rdi, %rdi
	je	.L1723
	call	_ZNSt16_Sp_counted_baseILN9__gnu_cxx12_Lock_policyE2EE10_M_releaseEv@PLT
.L1723:
	movq	40(%rsp), %rdi
	testq	%rdi, %rdi
	je	.L1725
	call	_ZNSt16_Sp_counted_baseILN9__gnu_cxx12_Lock_policyE2EE10_M_releaseEv@PLT
.L1725:
	movq	%rsp, %rax
	leaq	8(%rax), %rdi
	leaq	16(%rax), %rsi
	call	_ZN4asio6detail18completion_handlerIZN8asiodnp318MasterSessionStack13DirectOperateEON8opendnp310CommandSetERKSt8functionIFvRKNS4_18ICommandTaskResultEEERKNS4_10TaskConfigEEUlvE_E3ptr5resetEv.isra.108
	movq	%rbx, %rdi
.LEHB87:
	call	_Unwind_Resume@PLT
.LEHE87:
.L1744:
	movq	%rbp, %rdi
	movq	%rax, %rbx
	sfence
	call	_ZZN8asiodnp318MasterSessionStack13DirectOperateEON8opendnp310CommandSetERKSt8functionIFvRKNS1_18ICommandTaskResultEEERKNS1_10TaskConfigEENUlvE_D1Ev
	jmp	.L1725
	.cfi_endproc
.LFE10452:
	.section	.gcc_except_table
.LLSDA10452:
	.byte	0xff
	.byte	0xff
	.byte	0x1
	.uleb128 .LLSDACSE10452-.LLSDACSB10452
.LLSDACSB10452:
	.uleb128 .LEHB85-.LFB10452
	.uleb128 .LEHE85-.LEHB85
	.uleb128 .L1745-.LFB10452
	.uleb128 0
	.uleb128 .LEHB86-.LFB10452
	.uleb128 .LEHE86-.LEHB86
	.uleb128 .L1744-.LFB10452
	.uleb128 0
	.uleb128 .LEHB87-.LFB10452
	.uleb128 .LEHE87-.LEHB87
	.uleb128 0
	.uleb128 0
.LLSDACSE10452:
	.text
	.size	_ZN4asio6detail18completion_handlerIZN8asiodnp318MasterSessionStack13DirectOperateEON8opendnp310CommandSetERKSt8functionIFvRKNS4_18ICommandTaskResultEEERKNS4_10TaskConfigEEUlvE_E11do_completeEPNS0_15task_io_serviceEPNS0_25task_io_service_operationERKSt10error_codem, .-_ZN4asio6detail18completion_handlerIZN8asiodnp318MasterSessionStack13DirectOperateEON8opendnp310CommandSetERKSt8functionIFvRKNS4_18ICommandTaskResultEEERKNS4_10TaskConfigEEUlvE_E11do_completeEPNS0_15task_io_serviceEPNS0_25task_io_service_operationERKSt10error_codem
	.p2align 4,,15
	.type	_ZN4asio6detail18completion_handlerIZN8asiodnp318MasterSessionStack16SelectAndOperateEON8opendnp310CommandSetERKSt8functionIFvRKNS4_18ICommandTaskResultEEERKNS4_10TaskConfigEEUlvE_E11do_completeEPNS0_15task_io_serviceEPNS0_25task_io_service_operationERKSt10error_codem, @function
_ZN4asio6detail18completion_handlerIZN8asiodnp318MasterSessionStack16SelectAndOperateEON8opendnp310CommandSetERKSt8functionIFvRKNS4_18ICommandTaskResultEEERKNS4_10TaskConfigEEUlvE_E11do_completeEPNS0_15task_io_serviceEPNS0_25task_io_service_operationERKSt10error_codem:
.LFB10447:
	.cfi_startproc
	.cfi_personality 0x9b,DW.ref.__gxx_personality_v0
	.cfi_lsda 0x1b,.LLSDA10447
	pushq	%r12
	.cfi_def_cfa_offset 16
	.cfi_offset 12, -16
	pushq	%rbp
	.cfi_def_cfa_offset 24
	.cfi_offset 6, -24
	movq	%rdi, %r12
	pushq	%rbx
	.cfi_def_cfa_offset 32
	.cfi_offset 3, -32
	movq	%rsi, %rbx
	addq	$-128, %rsp
	.cfi_def_cfa_offset 160
	movq	%fs:40, %rax
	movq	%rax, 120(%rsp)
	xorl	%eax, %eax
	leaq	24(%rsi), %rax
	movdqu	56(%rsi), %xmm0
	movq	%rsi, 8(%rsp)
	movq	%rsi, 16(%rsp)
	movq	%rax, (%rsp)
	movq	24(%rsi), %rax
	movaps	%xmm0, 64(%rsp)
	movq	$0, 24(%rsi)
	movq	$0, 96(%rsp)
	movq	%rax, 32(%rsp)
	movq	32(%rsi), %rax
	movq	$0, 32(%rsi)
	movq	%rax, 40(%rsp)
	movq	40(%rsi), %rax
	movq	$0, 40(%rsi)
	movq	%rax, 48(%rsp)
	movq	48(%rsi), %rax
	movq	$0, 48(%rsi)
	movq	%rax, 56(%rsp)
	movq	88(%rsi), %rax
	testq	%rax, %rax
	je	.L1811
	leaq	32(%rsp), %rbp
	leaq	72(%rsi), %rsi
	movl	$2, %edx
	leaq	48(%rbp), %rdi
.LEHB88:
	call	*%rax
.LEHE88:
	movdqu	88(%rbx), %xmm0
	movq	16(%rsp), %rbx
	movq	%rbp, (%rsp)
	movaps	%xmm0, 96(%rsp)
	testq	%rbx, %rbx
	je	.L1813
.L1812:
	movq	88(%rbx), %rax
	testq	%rax, %rax
	je	.L1819
	leaq	72(%rbx), %rdi
	movl	$3, %edx
	movq	%rdi, %rsi
	call	*%rax
.L1819:
	movq	48(%rbx), %rdi
	testq	%rdi, %rdi
	je	.L1820
	call	_ZNSt16_Sp_counted_baseILN9__gnu_cxx12_Lock_policyE2EE10_M_releaseEv@PLT
.L1820:
	movq	32(%rbx), %rdi
	testq	%rdi, %rdi
	je	.L1821
	call	_ZNSt16_Sp_counted_baseILN9__gnu_cxx12_Lock_policyE2EE10_M_releaseEv@PLT
.L1821:
	movq	$0, 16(%rsp)
.L1813:
	movq	8(%rsp), %rbx
	testq	%rbx, %rbx
	je	.L1822
	.byte	0x66
	leaq	_ZN4asio6detail15keyword_tss_ptrINS0_10call_stackINS0_15task_io_serviceENS0_27task_io_service_thread_infoEE7contextEE6value_E@tlsgd(%rip), %rdi
	.value	0x6666
	rex64
	call	__tls_get_addr@PLT
	movq	(%rax), %rax
	testq	%rax, %rax
	je	.L1823
	movq	8(%rax), %rax
	testq	%rax, %rax
	je	.L1823
	cmpq	$0, (%rax)
	je	.L1900
.L1823:
	movq	%rbx, %rdi
	call	_ZdlPv@PLT
.L1824:
	movq	$0, 8(%rsp)
.L1822:
	testq	%r12, %r12
	je	.L1825
	movq	32(%rsp), %rax
	movq	48(%rsp), %rsi
	leaq	32(%rbp), %rcx
	leaq	48(%rbp), %rdx
	leaq	96(%rax), %rdi
.LEHB89:
	call	_ZN8opendnp38MContext16SelectAndOperateEONS_10CommandSetERKSt8functionIFvRKNS_18ICommandTaskResultEEERKNS_10TaskConfigE@PLT
.LEHE89:
	sfence
.L1825:
	movq	96(%rsp), %rax
	testq	%rax, %rax
	je	.L1826
	leaq	48(%rbp), %rdi
	movl	$3, %edx
	movq	%rdi, %rsi
	call	*%rax
.L1826:
	movq	56(%rsp), %rdi
	testq	%rdi, %rdi
	je	.L1827
	call	_ZNSt16_Sp_counted_baseILN9__gnu_cxx12_Lock_policyE2EE10_M_releaseEv@PLT
.L1827:
	movq	40(%rsp), %rdi
	testq	%rdi, %rdi
	je	.L1828
	call	_ZNSt16_Sp_counted_baseILN9__gnu_cxx12_Lock_policyE2EE10_M_releaseEv@PLT
.L1828:
	movq	16(%rsp), %rbx
	testq	%rbx, %rbx
	je	.L1829
	movq	88(%rbx), %rax
	testq	%rax, %rax
	je	.L1830
	leaq	72(%rbx), %rdi
	movl	$3, %edx
	movq	%rdi, %rsi
	call	*%rax
.L1830:
	movq	48(%rbx), %rdi
	testq	%rdi, %rdi
	je	.L1831
	call	_ZNSt16_Sp_counted_baseILN9__gnu_cxx12_Lock_policyE2EE10_M_releaseEv@PLT
.L1831:
	movq	32(%rbx), %rdi
	testq	%rdi, %rdi
	je	.L1832
	call	_ZNSt16_Sp_counted_baseILN9__gnu_cxx12_Lock_policyE2EE10_M_releaseEv@PLT
.L1832:
	movq	$0, 16(%rsp)
.L1829:
	movq	8(%rsp), %rbx
	testq	%rbx, %rbx
	je	.L1810
	.byte	0x66
	leaq	_ZN4asio6detail15keyword_tss_ptrINS0_10call_stackINS0_15task_io_serviceENS0_27task_io_service_thread_infoEE7contextEE6value_E@tlsgd(%rip), %rdi
	.value	0x6666
	rex64
	call	__tls_get_addr@PLT
	movq	(%rax), %rax
	testq	%rax, %rax
	je	.L1834
	movq	8(%rax), %rax
	testq	%rax, %rax
	je	.L1834
	cmpq	$0, (%rax)
	je	.L1901
.L1834:
	movq	%rbx, %rdi
	call	_ZdlPv@PLT
.L1810:
	movq	120(%rsp), %rax
	xorq	%fs:40, %rax
	jne	.L1902
	subq	$-128, %rsp
	.cfi_remember_state
	.cfi_def_cfa_offset 32
	popq	%rbx
	.cfi_def_cfa_offset 24
	popq	%rbp
	.cfi_def_cfa_offset 16
	popq	%r12
	.cfi_def_cfa_offset 8
	ret
	.p2align 4,,10
	.p2align 3
.L1901:
	.cfi_restore_state
	movzbl	104(%rbx), %edx
	movb	%dl, (%rbx)
	movq	%rbx, (%rax)
	jmp	.L1810
	.p2align 4,,10
	.p2align 3
.L1900:
	movzbl	104(%rbx), %edx
	movb	%dl, (%rbx)
	movq	%rbx, (%rax)
	jmp	.L1824
	.p2align 4,,10
	.p2align 3
.L1811:
	leaq	32(%rsp), %rbp
	movq	%rbp, (%rsp)
	jmp	.L1812
.L1902:
	call	__stack_chk_fail@PLT
.L1838:
	movq	%rax, %rbx
	movq	96(%rsp), %rax
	testq	%rax, %rax
	je	.L1815
	leaq	48(%rbp), %rdi
	movl	$3, %edx
	movq	%rdi, %rsi
	call	*%rax
.L1815:
	movq	56(%rsp), %rdi
	testq	%rdi, %rdi
	je	.L1816
	call	_ZNSt16_Sp_counted_baseILN9__gnu_cxx12_Lock_policyE2EE10_M_releaseEv@PLT
.L1816:
	movq	40(%rsp), %rdi
	testq	%rdi, %rdi
	je	.L1818
	call	_ZNSt16_Sp_counted_baseILN9__gnu_cxx12_Lock_policyE2EE10_M_releaseEv@PLT
.L1818:
	movq	%rsp, %rax
	leaq	8(%rax), %rdi
	leaq	16(%rax), %rsi
	call	_ZN4asio6detail18completion_handlerIZN8asiodnp318MasterSessionStack16SelectAndOperateEON8opendnp310CommandSetERKSt8functionIFvRKNS4_18ICommandTaskResultEEERKNS4_10TaskConfigEEUlvE_E3ptr5resetEv.isra.106
	movq	%rbx, %rdi
.LEHB90:
	call	_Unwind_Resume@PLT
.LEHE90:
.L1837:
	movq	%rbp, %rdi
	movq	%rax, %rbx
	sfence
	call	_ZZN8asiodnp318MasterSessionStack16SelectAndOperateEON8opendnp310CommandSetERKSt8functionIFvRKNS1_18ICommandTaskResultEEERKNS1_10TaskConfigEENUlvE_D1Ev
	jmp	.L1818
	.cfi_endproc
.LFE10447:
	.section	.gcc_except_table
.LLSDA10447:
	.byte	0xff
	.byte	0xff
	.byte	0x1
	.uleb128 .LLSDACSE10447-.LLSDACSB10447
.LLSDACSB10447:
	.uleb128 .LEHB88-.LFB10447
	.uleb128 .LEHE88-.LEHB88
	.uleb128 .L1838-.LFB10447
	.uleb128 0
	.uleb128 .LEHB89-.LFB10447
	.uleb128 .LEHE89-.LEHB89
	.uleb128 .L1837-.LFB10447
	.uleb128 0
	.uleb128 .LEHB90-.LFB10447
	.uleb128 .LEHE90-.LEHB90
	.uleb128 0
	.uleb128 0
.LLSDACSE10447:
	.text
	.size	_ZN4asio6detail18completion_handlerIZN8asiodnp318MasterSessionStack16SelectAndOperateEON8opendnp310CommandSetERKSt8functionIFvRKNS4_18ICommandTaskResultEEERKNS4_10TaskConfigEEUlvE_E11do_completeEPNS0_15task_io_serviceEPNS0_25task_io_service_operationERKSt10error_codem, .-_ZN4asio6detail18completion_handlerIZN8asiodnp318MasterSessionStack16SelectAndOperateEON8opendnp310CommandSetERKSt8functionIFvRKNS4_18ICommandTaskResultEEERKNS4_10TaskConfigEEUlvE_E11do_completeEPNS0_15task_io_serviceEPNS0_25task_io_service_operationERKSt10error_codem
	.p2align 4,,15
	.type	_ZN4asio6detail18completion_handlerIZN8asiodnp318MasterSessionStack15PerformFunctionERKNSt7__cxx1112basic_stringIcSt11char_traitsIcESaIcEEEN8opendnp312FunctionCodeERKSt6vectorINSC_6HeaderESaISF_EERKNSC_10TaskConfigEEUlvE_E11do_completeEPNS0_15task_io_serviceEPNS0_25task_io_service_operationERKSt10error_codem, @function
_ZN4asio6detail18completion_handlerIZN8asiodnp318MasterSessionStack15PerformFunctionERKNSt7__cxx1112basic_stringIcSt11char_traitsIcESaIcEEEN8opendnp312FunctionCodeERKSt6vectorINSC_6HeaderESaISF_EERKNSC_10TaskConfigEEUlvE_E11do_completeEPNS0_15task_io_serviceEPNS0_25task_io_service_operationERKSt10error_codem:
.LFB10439:
	.cfi_startproc
	.cfi_personality 0x9b,DW.ref.__gxx_personality_v0
	.cfi_lsda 0x1b,.LLSDA10439
	pushq	%r14
	.cfi_def_cfa_offset 16
	.cfi_offset 14, -16
	pushq	%r13
	.cfi_def_cfa_offset 24
	.cfi_offset 13, -24
	movq	%rdi, %r14
	pushq	%r12
	.cfi_def_cfa_offset 32
	.cfi_offset 12, -32
	pushq	%rbp
	.cfi_def_cfa_offset 40
	.cfi_offset 6, -40
	pushq	%rbx
	.cfi_def_cfa_offset 48
	.cfi_offset 3, -48
	movq	%rsi, %rbx
	subq	$160, %rsp
	.cfi_def_cfa_offset 208
	movq	40(%rsi), %r13
	movq	48(%rsi), %r12
	movq	%fs:40, %rax
	movq	%rax, 152(%rsp)
	xorl	%eax, %eax
	leaq	24(%rsi), %rax
	leaq	48(%rsp), %rbp
	movq	%rsi, 24(%rsp)
	movq	%rsi, 32(%rsp)
	movq	%rax, 16(%rsp)
	movq	24(%rsi), %rax
