	.file	"MasterStack.cpp"
	.text
	.section	.rodata._ZNK4asio6detail15system_category4nameEv.str1.1,"aMS",@progbits,1
.LC0:
	.string	"asio.system"
	.section	.text._ZNK4asio6detail15system_category4nameEv,"axG",@progbits,_ZNK4asio6detail15system_category4nameEv,comdat
	.align 2
	.p2align 4,,15
	.weak	_ZNK4asio6detail15system_category4nameEv
	.type	_ZNK4asio6detail15system_category4nameEv, @function
_ZNK4asio6detail15system_category4nameEv:
.LFB2755:
	.cfi_startproc
	leaq	.LC0(%rip), %rax
	ret
	.cfi_endproc
.LFE2755:
	.size	_ZNK4asio6detail15system_category4nameEv, .-_ZNK4asio6detail15system_category4nameEv
	.section	.rodata._ZNK4asio5error6detail14netdb_category4nameEv.str1.1,"aMS",@progbits,1
.LC1:
	.string	"asio.netdb"
	.section	.text._ZNK4asio5error6detail14netdb_category4nameEv,"axG",@progbits,_ZNK4asio5error6detail14netdb_category4nameEv,comdat
	.align 2
	.p2align 4,,15
	.weak	_ZNK4asio5error6detail14netdb_category4nameEv
	.type	_ZNK4asio5error6detail14netdb_category4nameEv, @function
_ZNK4asio5error6detail14netdb_category4nameEv:
.LFB2795:
	.cfi_startproc
	leaq	.LC1(%rip), %rax
	ret
	.cfi_endproc
.LFE2795:
	.size	_ZNK4asio5error6detail14netdb_category4nameEv, .-_ZNK4asio5error6detail14netdb_category4nameEv
	.section	.rodata._ZNK4asio5error6detail17addrinfo_category4nameEv.str1.1,"aMS",@progbits,1
.LC2:
	.string	"asio.addrinfo"
	.section	.text._ZNK4asio5error6detail17addrinfo_category4nameEv,"axG",@progbits,_ZNK4asio5error6detail17addrinfo_category4nameEv,comdat
	.align 2
	.p2align 4,,15
	.weak	_ZNK4asio5error6detail17addrinfo_category4nameEv
	.type	_ZNK4asio5error6detail17addrinfo_category4nameEv, @function
_ZNK4asio5error6detail17addrinfo_category4nameEv:
.LFB2801:
	.cfi_startproc
	leaq	.LC2(%rip), %rax
	ret
	.cfi_endproc
.LFE2801:
	.size	_ZNK4asio5error6detail17addrinfo_category4nameEv, .-_ZNK4asio5error6detail17addrinfo_category4nameEv
	.section	.rodata._ZNK4asio5error6detail13misc_category4nameEv.str1.1,"aMS",@progbits,1
.LC3:
	.string	"asio.misc"
	.section	.text._ZNK4asio5error6detail13misc_category4nameEv,"axG",@progbits,_ZNK4asio5error6detail13misc_category4nameEv,comdat
	.align 2
	.p2align 4,,15
	.weak	_ZNK4asio5error6detail13misc_category4nameEv
	.type	_ZNK4asio5error6detail13misc_category4nameEv, @function
_ZNK4asio5error6detail13misc_category4nameEv:
.LFB2807:
	.cfi_startproc
	leaq	.LC3(%rip), %rax
	ret
	.cfi_endproc
.LFE2807:
	.size	_ZNK4asio5error6detail13misc_category4nameEv, .-_ZNK4asio5error6detail13misc_category4nameEv
	.section	.text._ZNSt13__future_base13_State_baseV217_M_complete_asyncEv,"axG",@progbits,_ZNSt13__future_base13_State_baseV217_M_complete_asyncEv,comdat
	.align 2
	.p2align 4,,15
	.weak	_ZNSt13__future_base13_State_baseV217_M_complete_asyncEv
	.type	_ZNSt13__future_base13_State_baseV217_M_complete_asyncEv, @function
_ZNSt13__future_base13_State_baseV217_M_complete_asyncEv:
.LFB6743:
	.cfi_startproc
	rep ret
	.cfi_endproc
.LFE6743:
	.size	_ZNSt13__future_base13_State_baseV217_M_complete_asyncEv, .-_ZNSt13__future_base13_State_baseV217_M_complete_asyncEv
	.section	.text._ZNKSt13__future_base13_State_baseV221_M_is_deferred_futureEv,"axG",@progbits,_ZNKSt13__future_base13_State_baseV221_M_is_deferred_futureEv,comdat
	.align 2
	.p2align 4,,15
	.weak	_ZNKSt13__future_base13_State_baseV221_M_is_deferred_futureEv
	.type	_ZNKSt13__future_base13_State_baseV221_M_is_deferred_futureEv, @function
_ZNKSt13__future_base13_State_baseV221_M_is_deferred_futureEv:
.LFB6744:
	.cfi_startproc
	xorl	%eax, %eax
	ret
	.cfi_endproc
.LFE6744:
	.size	_ZNKSt13__future_base13_State_baseV221_M_is_deferred_futureEv, .-_ZNKSt13__future_base13_State_baseV221_M_is_deferred_futureEv
	.section	.text._ZNSt15__exception_ptr12__dest_thunkISt12future_errorEEvPv,"axG",@progbits,_ZNSt15__exception_ptr12__dest_thunkISt12future_errorEEvPv,comdat
	.p2align 4,,15
	.weak	_ZNSt15__exception_ptr12__dest_thunkISt12future_errorEEvPv
	.type	_ZNSt15__exception_ptr12__dest_thunkISt12future_errorEEvPv, @function
_ZNSt15__exception_ptr12__dest_thunkISt12future_errorEEvPv:
.LFB9651:
	.cfi_startproc
	movq	(%rdi), %rax
	jmp	*(%rax)
	.cfi_endproc
.LFE9651:
	.size	_ZNSt15__exception_ptr12__dest_thunkISt12future_errorEEvPv, .-_ZNSt15__exception_ptr12__dest_thunkISt12future_errorEEvPv
	.section	.text._ZNSt17_Function_handlerIFSt10unique_ptrINSt13__future_base12_Result_baseENS2_8_DeleterEEvENS1_13_State_baseV27_SetterIbObEEE9_M_invokeERKSt9_Any_data,"axG",@progbits,_ZNSt17_Function_handlerIFSt10unique_ptrINSt13__future_base12_Result_baseENS2_8_DeleterEEvENS1_13_State_baseV27_SetterIbObEEE9_M_invokeERKSt9_Any_data,comdat
	.p2align 4,,15
	.weak	_ZNSt17_Function_handlerIFSt10unique_ptrINSt13__future_base12_Result_baseENS2_8_DeleterEEvENS1_13_State_baseV27_SetterIbObEEE9_M_invokeERKSt9_Any_data
	.type	_ZNSt17_Function_handlerIFSt10unique_ptrINSt13__future_base12_Result_baseENS2_8_DeleterEEvENS1_13_State_baseV27_SetterIbObEEE9_M_invokeERKSt9_Any_data, @function
_ZNSt17_Function_handlerIFSt10unique_ptrINSt13__future_base12_Result_baseENS2_8_DeleterEEvENS1_13_State_baseV27_SetterIbObEEE9_M_invokeERKSt9_Any_data:
.LFB10930:
	.cfi_startproc
	movq	8(%rsi), %rcx
	movq	(%rsi), %rdx
	movq	%rdi, %rax
	movzbl	(%rcx), %ecx
	movq	16(%rdx), %rdx
	movb	$1, 17(%rdx)
	movb	%cl, 16(%rdx)
	movq	(%rsi), %rdx
	movq	16(%rdx), %rcx
	movq	$0, 16(%rdx)
	movq	%rcx, (%rdi)
	ret
	.cfi_endproc
.LFE10930:
	.size	_ZNSt17_Function_handlerIFSt10unique_ptrINSt13__future_base12_Result_baseENS2_8_DeleterEEvENS1_13_State_baseV27_SetterIbObEEE9_M_invokeERKSt9_Any_data, .-_ZNSt17_Function_handlerIFSt10unique_ptrINSt13__future_base12_Result_baseENS2_8_DeleterEEvENS1_13_State_baseV27_SetterIbObEEE9_M_invokeERKSt9_Any_data
	.section	.text._ZNSt14_Function_base13_Base_managerINSt13__future_base13_State_baseV27_SetterIbObEEE10_M_managerERSt9_Any_dataRKS7_St18_Manager_operation,"axG",@progbits,_ZNSt14_Function_base13_Base_managerINSt13__future_base13_State_baseV27_SetterIbObEEE10_M_managerERSt9_Any_dataRKS7_St18_Manager_operation,comdat
	.p2align 4,,15
	.weak	_ZNSt14_Function_base13_Base_managerINSt13__future_base13_State_baseV27_SetterIbObEEE10_M_managerERSt9_Any_dataRKS7_St18_Manager_operation
	.type	_ZNSt14_Function_base13_Base_managerINSt13__future_base13_State_baseV27_SetterIbObEEE10_M_managerERSt9_Any_dataRKS7_St18_Manager_operation, @function
_ZNSt14_Function_base13_Base_managerINSt13__future_base13_State_baseV27_SetterIbObEEE10_M_managerERSt9_Any_dataRKS7_St18_Manager_operation:
.LFB10931:
	.cfi_startproc
	cmpl	$1, %edx
	je	.L12
	jb	.L13
	cmpl	$2, %edx
	jne	.L11
	movdqu	(%rsi), %xmm0
	movups	%xmm0, (%rdi)
.L11:
	xorl	%eax, %eax
	ret
	.p2align 4,,10
	.p2align 3
.L13:
	movq	_ZTINSt13__future_base13_State_baseV27_SetterIbObEE@GOTPCREL(%rip), %rax
	movq	%rax, (%rdi)
	xorl	%eax, %eax
	ret
	.p2align 4,,10
	.p2align 3
.L12:
	movq	%rsi, (%rdi)
	xorl	%eax, %eax
	ret
	.cfi_endproc
.LFE10931:
	.size	_ZNSt14_Function_base13_Base_managerINSt13__future_base13_State_baseV27_SetterIbObEEE10_M_managerERSt9_Any_dataRKS7_St18_Manager_operation, .-_ZNSt14_Function_base13_Base_managerINSt13__future_base13_State_baseV27_SetterIbObEEE10_M_managerERSt9_Any_dataRKS7_St18_Manager_operation
	.section	.text._ZNSt17_Function_handlerIFSt10unique_ptrINSt13__future_base12_Result_baseENS2_8_DeleterEEvENS1_13_State_baseV27_SetterIN8opendnp315StackStatisticsEOS9_EEE9_M_invokeERKSt9_Any_data,"axG",@progbits,_ZNSt17_Function_handlerIFSt10unique_ptrINSt13__future_base12_Result_baseENS2_8_DeleterEEvENS1_13_State_baseV27_SetterIN8opendnp315StackStatisticsEOS9_EEE9_M_invokeERKSt9_Any_data,comdat
	.p2align 4,,15
	.weak	_ZNSt17_Function_handlerIFSt10unique_ptrINSt13__future_base12_Result_baseENS2_8_DeleterEEvENS1_13_State_baseV27_SetterIN8opendnp315StackStatisticsEOS9_EEE9_M_invokeERKSt9_Any_data
	.type	_ZNSt17_Function_handlerIFSt10unique_ptrINSt13__future_base12_Result_baseENS2_8_DeleterEEvENS1_13_State_baseV27_SetterIN8opendnp315StackStatisticsEOS9_EEE9_M_invokeERKSt9_Any_data, @function
_ZNSt17_Function_handlerIFSt10unique_ptrINSt13__future_base12_Result_baseENS2_8_DeleterEEvENS1_13_State_baseV27_SetterIN8opendnp315StackStatisticsEOS9_EEE9_M_invokeERKSt9_Any_data:
.LFB10982:
	.cfi_startproc
	movq	(%rsi), %rdx
	movq	8(%rsi), %rcx
	movq	%rdi, %rax
	movq	16(%rdx), %rdx
	movdqu	(%rcx), %xmm0
	movups	%xmm0, 16(%rdx)
	movdqu	16(%rcx), %xmm0
	movups	%xmm0, 32(%rdx)
	movq	32(%rcx), %rcx
	movb	$1, 56(%rdx)
	movq	%rcx, 48(%rdx)
	movq	(%rsi), %rdx
	movq	16(%rdx), %rcx
	movq	$0, 16(%rdx)
	movq	%rcx, (%rdi)
	ret
	.cfi_endproc
.LFE10982:
	.size	_ZNSt17_Function_handlerIFSt10unique_ptrINSt13__future_base12_Result_baseENS2_8_DeleterEEvENS1_13_State_baseV27_SetterIN8opendnp315StackStatisticsEOS9_EEE9_M_invokeERKSt9_Any_data, .-_ZNSt17_Function_handlerIFSt10unique_ptrINSt13__future_base12_Result_baseENS2_8_DeleterEEvENS1_13_State_baseV27_SetterIN8opendnp315StackStatisticsEOS9_EEE9_M_invokeERKSt9_Any_data
	.section	.text._ZNSt14_Function_base13_Base_managerINSt13__future_base13_State_baseV27_SetterIN8opendnp315StackStatisticsEOS5_EEE10_M_managerERSt9_Any_dataRKS9_St18_Manager_operation,"axG",@progbits,_ZNSt14_Function_base13_Base_managerINSt13__future_base13_State_baseV27_SetterIN8opendnp315StackStatisticsEOS5_EEE10_M_managerERSt9_Any_dataRKS9_St18_Manager_operation,comdat
	.p2align 4,,15
	.weak	_ZNSt14_Function_base13_Base_managerINSt13__future_base13_State_baseV27_SetterIN8opendnp315StackStatisticsEOS5_EEE10_M_managerERSt9_Any_dataRKS9_St18_Manager_operation
	.type	_ZNSt14_Function_base13_Base_managerINSt13__future_base13_State_baseV27_SetterIN8opendnp315StackStatisticsEOS5_EEE10_M_managerERSt9_Any_dataRKS9_St18_Manager_operation, @function
_ZNSt14_Function_base13_Base_managerINSt13__future_base13_State_baseV27_SetterIN8opendnp315StackStatisticsEOS5_EEE10_M_managerERSt9_Any_dataRKS9_St18_Manager_operation:
.LFB10983:
	.cfi_startproc
	cmpl	$1, %edx
	je	.L18
	jb	.L19
	cmpl	$2, %edx
	jne	.L17
	movdqu	(%rsi), %xmm0
	movups	%xmm0, (%rdi)
.L17:
	xorl	%eax, %eax
	ret
	.p2align 4,,10
	.p2align 3
.L19:
	movq	_ZTINSt13__future_base13_State_baseV27_SetterIN8opendnp315StackStatisticsEOS3_EE@GOTPCREL(%rip), %rax
	movq	%rax, (%rdi)
	xorl	%eax, %eax
	ret
	.p2align 4,,10
	.p2align 3
.L18:
	movq	%rsi, (%rdi)
	xorl	%eax, %eax
	ret
	.cfi_endproc
.LFE10983:
	.size	_ZNSt14_Function_base13_Base_managerINSt13__future_base13_State_baseV27_SetterIN8opendnp315StackStatisticsEOS5_EEE10_M_managerERSt9_Any_dataRKS9_St18_Manager_operation, .-_ZNSt14_Function_base13_Base_managerINSt13__future_base13_State_baseV27_SetterIN8opendnp315StackStatisticsEOS5_EEE10_M_managerERSt9_Any_dataRKS9_St18_Manager_operation
	.section	.text._ZNSt17_Function_handlerIFSt10unique_ptrINSt13__future_base12_Result_baseENS2_8_DeleterEEvENS1_13_State_baseV27_SetterISt10shared_ptrIN8opendnp311IMasterTaskEEOSB_EEE9_M_invokeERKSt9_Any_data,"axG",@progbits,_ZNSt17_Function_handlerIFSt10unique_ptrINSt13__future_base12_Result_baseENS2_8_DeleterEEvENS1_13_State_baseV27_SetterISt10shared_ptrIN8opendnp311IMasterTaskEEOSB_EEE9_M_invokeERKSt9_Any_data,comdat
	.p2align 4,,15
	.weak	_ZNSt17_Function_handlerIFSt10unique_ptrINSt13__future_base12_Result_baseENS2_8_DeleterEEvENS1_13_State_baseV27_SetterISt10shared_ptrIN8opendnp311IMasterTaskEEOSB_EEE9_M_invokeERKSt9_Any_data
	.type	_ZNSt17_Function_handlerIFSt10unique_ptrINSt13__future_base12_Result_baseENS2_8_DeleterEEvENS1_13_State_baseV27_SetterISt10shared_ptrIN8opendnp311IMasterTaskEEOSB_EEE9_M_invokeERKSt9_Any_data, @function
_ZNSt17_Function_handlerIFSt10unique_ptrINSt13__future_base12_Result_baseENS2_8_DeleterEEvENS1_13_State_baseV27_SetterISt10shared_ptrIN8opendnp311IMasterTaskEEOSB_EEE9_M_invokeERKSt9_Any_data:
.LFB11022:
	.cfi_startproc
	movq	8(%rsi), %rcx
	movq	(%rsi), %rdx
	movq	%rdi, %rax
	movq	16(%rdx), %rdx
	movq	(%rcx), %rdi
	movq	$0, 24(%rdx)
	movq	%rdi, 16(%rdx)
	movq	8(%rcx), %rdi
	movq	$0, 8(%rcx)
	movq	%rdi, 24(%rdx)
	movq	$0, (%rcx)
	movb	$1, 32(%rdx)
	movq	(%rsi), %rdx
	movq	16(%rdx), %rcx
	movq	$0, 16(%rdx)
	movq	%rcx, (%rax)
	ret
	.cfi_endproc
.LFE11022:
	.size	_ZNSt17_Function_handlerIFSt10unique_ptrINSt13__future_base12_Result_baseENS2_8_DeleterEEvENS1_13_State_baseV27_SetterISt10shared_ptrIN8opendnp311IMasterTaskEEOSB_EEE9_M_invokeERKSt9_Any_data, .-_ZNSt17_Function_handlerIFSt10unique_ptrINSt13__future_base12_Result_baseENS2_8_DeleterEEvENS1_13_State_baseV27_SetterISt10shared_ptrIN8opendnp311IMasterTaskEEOSB_EEE9_M_invokeERKSt9_Any_data
	.section	.text._ZNSt14_Function_base13_Base_managerINSt13__future_base13_State_baseV27_SetterISt10shared_ptrIN8opendnp311IMasterTaskEEOS7_EEE10_M_managerERSt9_Any_dataRKSB_St18_Manager_operation,"axG",@progbits,_ZNSt14_Function_base13_Base_managerINSt13__future_base13_State_baseV27_SetterISt10shared_ptrIN8opendnp311IMasterTaskEEOS7_EEE10_M_managerERSt9_Any_dataRKSB_St18_Manager_operation,comdat
	.p2align 4,,15
	.weak	_ZNSt14_Function_base13_Base_managerINSt13__future_base13_State_baseV27_SetterISt10shared_ptrIN8opendnp311IMasterTaskEEOS7_EEE10_M_managerERSt9_Any_dataRKSB_St18_Manager_operation
	.type	_ZNSt14_Function_base13_Base_managerINSt13__future_base13_State_baseV27_SetterISt10shared_ptrIN8opendnp311IMasterTaskEEOS7_EEE10_M_managerERSt9_Any_dataRKSB_St18_Manager_operation, @function
_ZNSt14_Function_base13_Base_managerINSt13__future_base13_State_baseV27_SetterISt10shared_ptrIN8opendnp311IMasterTaskEEOS7_EEE10_M_managerERSt9_Any_dataRKSB_St18_Manager_operation:
.LFB11023:
	.cfi_startproc
	cmpl	$1, %edx
	je	.L24
	jb	.L25
	cmpl	$2, %edx
	jne	.L23
	movdqu	(%rsi), %xmm0
	movups	%xmm0, (%rdi)
.L23:
	xorl	%eax, %eax
	ret
	.p2align 4,,10
	.p2align 3
.L25:
	movq	_ZTINSt13__future_base13_State_baseV27_SetterISt10shared_ptrIN8opendnp311IMasterTaskEEOS5_EE@GOTPCREL(%rip), %rax
	movq	%rax, (%rdi)
	xorl	%eax, %eax
	ret
	.p2align 4,,10
	.p2align 3
.L24:
	movq	%rsi, (%rdi)
	xorl	%eax, %eax
	ret
	.cfi_endproc
.LFE11023:
	.size	_ZNSt14_Function_base13_Base_managerINSt13__future_base13_State_baseV27_SetterISt10shared_ptrIN8opendnp311IMasterTaskEEOS7_EEE10_M_managerERSt9_Any_dataRKSB_St18_Manager_operation, .-_ZNSt14_Function_base13_Base_managerINSt13__future_base13_State_baseV27_SetterISt10shared_ptrIN8opendnp311IMasterTaskEEOS7_EEE10_M_managerERSt9_Any_dataRKSB_St18_Manager_operation
	.section	.text._ZNSt13__future_base13_State_baseV2D2Ev,"axG",@progbits,_ZNSt13__future_base13_State_baseV2D5Ev,comdat
	.align 2
	.p2align 4,,15
	.weak	_ZNSt13__future_base13_State_baseV2D2Ev
	.type	_ZNSt13__future_base13_State_baseV2D2Ev, @function
_ZNSt13__future_base13_State_baseV2D2Ev:
.LFB11999:
	.cfi_startproc
	.cfi_personality 0x9b,DW.ref.__gxx_personality_v0
	.cfi_lsda 0x1b,.LLSDA11999
	movq	_ZTVNSt13__future_base13_State_baseV2E@GOTPCREL(%rip), %rax
	addq	$16, %rax
	movq	%rax, (%rdi)
	movq	8(%rdi), %rdi
	testq	%rdi, %rdi
	je	.L27
	movq	(%rdi), %rax
	jmp	*(%rax)
	.p2align 4,,10
	.p2align 3
.L27:
	rep ret
	.cfi_endproc
.LFE11999:
	.globl	__gxx_personality_v0
	.section	.gcc_except_table._ZNSt13__future_base13_State_baseV2D2Ev,"aG",@progbits,_ZNSt13__future_base13_State_baseV2D5Ev,comdat
.LLSDA11999:
	.byte	0xff
	.byte	0xff
	.byte	0x1
	.uleb128 .LLSDACSE11999-.LLSDACSB11999
.LLSDACSB11999:
.LLSDACSE11999:
	.section	.text._ZNSt13__future_base13_State_baseV2D2Ev,"axG",@progbits,_ZNSt13__future_base13_State_baseV2D5Ev,comdat
	.size	_ZNSt13__future_base13_State_baseV2D2Ev, .-_ZNSt13__future_base13_State_baseV2D2Ev
	.weak	_ZNSt13__future_base13_State_baseV2D1Ev
	.set	_ZNSt13__future_base13_State_baseV2D1Ev,_ZNSt13__future_base13_State_baseV2D2Ev
	.section	.text._ZN4asio6detail7tss_ptrINS0_10call_stackINS0_15task_io_serviceENS0_27task_io_service_thread_infoEE7contextEED2Ev,"axG",@progbits,_ZN4asio6detail7tss_ptrINS0_10call_stackINS0_15task_io_serviceENS0_27task_io_service_thread_infoEE7contextEED5Ev,comdat
	.align 2
	.p2align 4,,15
	.weak	_ZN4asio6detail7tss_ptrINS0_10call_stackINS0_15task_io_serviceENS0_27task_io_service_thread_infoEE7contextEED2Ev
	.type	_ZN4asio6detail7tss_ptrINS0_10call_stackINS0_15task_io_serviceENS0_27task_io_service_thread_infoEE7contextEED2Ev, @function
_ZN4asio6detail7tss_ptrINS0_10call_stackINS0_15task_io_serviceENS0_27task_io_service_thread_infoEE7contextEED2Ev:
.LFB12064:
	.cfi_startproc
	rep ret
	.cfi_endproc
.LFE12064:
	.size	_ZN4asio6detail7tss_ptrINS0_10call_stackINS0_15task_io_serviceENS0_27task_io_service_thread_infoEE7contextEED2Ev, .-_ZN4asio6detail7tss_ptrINS0_10call_stackINS0_15task_io_serviceENS0_27task_io_service_thread_infoEE7contextEED2Ev
	.weak	_ZN4asio6detail7tss_ptrINS0_10call_stackINS0_15task_io_serviceENS0_27task_io_service_thread_infoEE7contextEED1Ev
	.set	_ZN4asio6detail7tss_ptrINS0_10call_stackINS0_15task_io_serviceENS0_27task_io_service_thread_infoEE7contextEED1Ev,_ZN4asio6detail7tss_ptrINS0_10call_stackINS0_15task_io_serviceENS0_27task_io_service_thread_infoEE7contextEED2Ev
	.section	.text._ZN4asio6detail10service_idINS0_13epoll_reactorEED2Ev,"axG",@progbits,_ZN4asio6detail10service_idINS0_13epoll_reactorEED5Ev,comdat
	.align 2
	.p2align 4,,15
	.weak	_ZN4asio6detail10service_idINS0_13epoll_reactorEED2Ev
	.type	_ZN4asio6detail10service_idINS0_13epoll_reactorEED2Ev, @function
_ZN4asio6detail10service_idINS0_13epoll_reactorEED2Ev:
.LFB12067:
	.cfi_startproc
	rep ret
	.cfi_endproc
.LFE12067:
	.size	_ZN4asio6detail10service_idINS0_13epoll_reactorEED2Ev, .-_ZN4asio6detail10service_idINS0_13epoll_reactorEED2Ev
	.weak	_ZN4asio6detail10service_idINS0_13epoll_reactorEED1Ev
	.set	_ZN4asio6detail10service_idINS0_13epoll_reactorEED1Ev,_ZN4asio6detail10service_idINS0_13epoll_reactorEED2Ev
	.section	.text._ZN4asio6detail10service_idINS0_15task_io_serviceEED2Ev,"axG",@progbits,_ZN4asio6detail10service_idINS0_15task_io_serviceEED5Ev,comdat
	.align 2
	.p2align 4,,15
	.weak	_ZN4asio6detail10service_idINS0_15task_io_serviceEED2Ev
	.type	_ZN4asio6detail10service_idINS0_15task_io_serviceEED2Ev, @function
_ZN4asio6detail10service_idINS0_15task_io_serviceEED2Ev:
.LFB12070:
	.cfi_startproc
	rep ret
	.cfi_endproc
.LFE12070:
	.size	_ZN4asio6detail10service_idINS0_15task_io_serviceEED2Ev, .-_ZN4asio6detail10service_idINS0_15task_io_serviceEED2Ev
	.weak	_ZN4asio6detail10service_idINS0_15task_io_serviceEED1Ev
	.set	_ZN4asio6detail10service_idINS0_15task_io_serviceEED1Ev,_ZN4asio6detail10service_idINS0_15task_io_serviceEED2Ev
	.section	.text._ZN4asio6detail7tss_ptrINS0_10call_stackINS0_14strand_service11strand_implEhE7contextEED2Ev,"axG",@progbits,_ZN4asio6detail7tss_ptrINS0_10call_stackINS0_14strand_service11strand_implEhE7contextEED5Ev,comdat
	.align 2
	.p2align 4,,15
	.weak	_ZN4asio6detail7tss_ptrINS0_10call_stackINS0_14strand_service11strand_implEhE7contextEED2Ev
	.type	_ZN4asio6detail7tss_ptrINS0_10call_stackINS0_14strand_service11strand_implEhE7contextEED2Ev, @function
_ZN4asio6detail7tss_ptrINS0_10call_stackINS0_14strand_service11strand_implEhE7contextEED2Ev:
.LFB12073:
	.cfi_startproc
	rep ret
	.cfi_endproc
.LFE12073:
	.size	_ZN4asio6detail7tss_ptrINS0_10call_stackINS0_14strand_service11strand_implEhE7contextEED2Ev, .-_ZN4asio6detail7tss_ptrINS0_10call_stackINS0_14strand_service11strand_implEhE7contextEED2Ev
	.weak	_ZN4asio6detail7tss_ptrINS0_10call_stackINS0_14strand_service11strand_implEhE7contextEED1Ev
	.set	_ZN4asio6detail7tss_ptrINS0_10call_stackINS0_14strand_service11strand_implEhE7contextEED1Ev,_ZN4asio6detail7tss_ptrINS0_10call_stackINS0_14strand_service11strand_implEhE7contextEED2Ev
	.section	.text._ZN4asio6detail10service_idINS0_14strand_serviceEED2Ev,"axG",@progbits,_ZN4asio6detail10service_idINS0_14strand_serviceEED5Ev,comdat
	.align 2
	.p2align 4,,15
	.weak	_ZN4asio6detail10service_idINS0_14strand_serviceEED2Ev
	.type	_ZN4asio6detail10service_idINS0_14strand_serviceEED2Ev, @function
_ZN4asio6detail10service_idINS0_14strand_serviceEED2Ev:
.LFB12076:
	.cfi_startproc
	rep ret
	.cfi_endproc
.LFE12076:
	.size	_ZN4asio6detail10service_idINS0_14strand_serviceEED2Ev, .-_ZN4asio6detail10service_idINS0_14strand_serviceEED2Ev
	.weak	_ZN4asio6detail10service_idINS0_14strand_serviceEED1Ev
	.set	_ZN4asio6detail10service_idINS0_14strand_serviceEED1Ev,_ZN4asio6detail10service_idINS0_14strand_serviceEED2Ev
	.section	.text._ZNSt23_Sp_counted_ptr_inplaceIN8opendnp310CommandSetESaIS1_ELN9__gnu_cxx12_Lock_policyE2EED2Ev,"axG",@progbits,_ZNSt23_Sp_counted_ptr_inplaceIN8opendnp310CommandSetESaIS1_ELN9__gnu_cxx12_Lock_policyE2EED5Ev,comdat
	.align 2
	.p2align 4,,15
	.weak	_ZNSt23_Sp_counted_ptr_inplaceIN8opendnp310CommandSetESaIS1_ELN9__gnu_cxx12_Lock_policyE2EED2Ev
	.type	_ZNSt23_Sp_counted_ptr_inplaceIN8opendnp310CommandSetESaIS1_ELN9__gnu_cxx12_Lock_policyE2EED2Ev, @function
_ZNSt23_Sp_counted_ptr_inplaceIN8opendnp310CommandSetESaIS1_ELN9__gnu_cxx12_Lock_policyE2EED2Ev:
.LFB12143:
	.cfi_startproc
	rep ret
	.cfi_endproc
.LFE12143:
	.size	_ZNSt23_Sp_counted_ptr_inplaceIN8opendnp310CommandSetESaIS1_ELN9__gnu_cxx12_Lock_policyE2EED2Ev, .-_ZNSt23_Sp_counted_ptr_inplaceIN8opendnp310CommandSetESaIS1_ELN9__gnu_cxx12_Lock_policyE2EED2Ev
	.weak	_ZNSt23_Sp_counted_ptr_inplaceIN8opendnp310CommandSetESaIS1_ELN9__gnu_cxx12_Lock_policyE2EED1Ev
	.set	_ZNSt23_Sp_counted_ptr_inplaceIN8opendnp310CommandSetESaIS1_ELN9__gnu_cxx12_Lock_policyE2EED1Ev,_ZNSt23_Sp_counted_ptr_inplaceIN8opendnp310CommandSetESaIS1_ELN9__gnu_cxx12_Lock_policyE2EED2Ev
	.section	.text._ZNSt23_Sp_counted_ptr_inplaceIN8asiodnp310MasterScanESaIS1_ELN9__gnu_cxx12_Lock_policyE2EED2Ev,"axG",@progbits,_ZNSt23_Sp_counted_ptr_inplaceIN8asiodnp310MasterScanESaIS1_ELN9__gnu_cxx12_Lock_policyE2EED5Ev,comdat
	.align 2
	.p2align 4,,15
	.weak	_ZNSt23_Sp_counted_ptr_inplaceIN8asiodnp310MasterScanESaIS1_ELN9__gnu_cxx12_Lock_policyE2EED2Ev
	.type	_ZNSt23_Sp_counted_ptr_inplaceIN8asiodnp310MasterScanESaIS1_ELN9__gnu_cxx12_Lock_policyE2EED2Ev, @function
_ZNSt23_Sp_counted_ptr_inplaceIN8asiodnp310MasterScanESaIS1_ELN9__gnu_cxx12_Lock_policyE2EED2Ev:
.LFB12157:
	.cfi_startproc
	rep ret
	.cfi_endproc
.LFE12157:
	.size	_ZNSt23_Sp_counted_ptr_inplaceIN8asiodnp310MasterScanESaIS1_ELN9__gnu_cxx12_Lock_policyE2EED2Ev, .-_ZNSt23_Sp_counted_ptr_inplaceIN8asiodnp310MasterScanESaIS1_ELN9__gnu_cxx12_Lock_policyE2EED2Ev
	.weak	_ZNSt23_Sp_counted_ptr_inplaceIN8asiodnp310MasterScanESaIS1_ELN9__gnu_cxx12_Lock_policyE2EED1Ev
	.set	_ZNSt23_Sp_counted_ptr_inplaceIN8asiodnp310MasterScanESaIS1_ELN9__gnu_cxx12_Lock_policyE2EED1Ev,_ZNSt23_Sp_counted_ptr_inplaceIN8asiodnp310MasterScanESaIS1_ELN9__gnu_cxx12_Lock_policyE2EED2Ev
	.section	.text._ZNSt23_Sp_counted_ptr_inplaceINSt13__future_base13_State_baseV2ESaIS1_ELN9__gnu_cxx12_Lock_policyE2EED2Ev,"axG",@progbits,_ZNSt23_Sp_counted_ptr_inplaceINSt13__future_base13_State_baseV2ESaIS1_ELN9__gnu_cxx12_Lock_policyE2EED5Ev,comdat
	.align 2
	.p2align 4,,15
	.weak	_ZNSt23_Sp_counted_ptr_inplaceINSt13__future_base13_State_baseV2ESaIS1_ELN9__gnu_cxx12_Lock_policyE2EED2Ev
	.type	_ZNSt23_Sp_counted_ptr_inplaceINSt13__future_base13_State_baseV2ESaIS1_ELN9__gnu_cxx12_Lock_policyE2EED2Ev, @function
_ZNSt23_Sp_counted_ptr_inplaceINSt13__future_base13_State_baseV2ESaIS1_ELN9__gnu_cxx12_Lock_policyE2EED2Ev:
.LFB12178:
	.cfi_startproc
	rep ret
	.cfi_endproc
.LFE12178:
	.size	_ZNSt23_Sp_counted_ptr_inplaceINSt13__future_base13_State_baseV2ESaIS1_ELN9__gnu_cxx12_Lock_policyE2EED2Ev, .-_ZNSt23_Sp_counted_ptr_inplaceINSt13__future_base13_State_baseV2ESaIS1_ELN9__gnu_cxx12_Lock_policyE2EED2Ev
	.weak	_ZNSt23_Sp_counted_ptr_inplaceINSt13__future_base13_State_baseV2ESaIS1_ELN9__gnu_cxx12_Lock_policyE2EED1Ev
	.set	_ZNSt23_Sp_counted_ptr_inplaceINSt13__future_base13_State_baseV2ESaIS1_ELN9__gnu_cxx12_Lock_policyE2EED1Ev,_ZNSt23_Sp_counted_ptr_inplaceINSt13__future_base13_State_baseV2ESaIS1_ELN9__gnu_cxx12_Lock_policyE2EED2Ev
	.section	.text._ZNSt23_Sp_counted_ptr_inplaceINSt13__future_base13_State_baseV2ESaIS1_ELN9__gnu_cxx12_Lock_policyE2EE10_M_disposeEv,"axG",@progbits,_ZNSt23_Sp_counted_ptr_inplaceINSt13__future_base13_State_baseV2ESaIS1_ELN9__gnu_cxx12_Lock_policyE2EE10_M_disposeEv,comdat
	.align 2
	.p2align 4,,15
	.weak	_ZNSt23_Sp_counted_ptr_inplaceINSt13__future_base13_State_baseV2ESaIS1_ELN9__gnu_cxx12_Lock_policyE2EE10_M_disposeEv
	.type	_ZNSt23_Sp_counted_ptr_inplaceINSt13__future_base13_State_baseV2ESaIS1_ELN9__gnu_cxx12_Lock_policyE2EE10_M_disposeEv, @function
_ZNSt23_Sp_counted_ptr_inplaceINSt13__future_base13_State_baseV2ESaIS1_ELN9__gnu_cxx12_Lock_policyE2EE10_M_disposeEv:
.LFB12181:
	.cfi_startproc
	movq	%rdi, %rax
	leaq	16(%rdi), %rdi
	movq	16(%rax), %rax
	jmp	*(%rax)
	.cfi_endproc
.LFE12181:
	.size	_ZNSt23_Sp_counted_ptr_inplaceINSt13__future_base13_State_baseV2ESaIS1_ELN9__gnu_cxx12_Lock_policyE2EE10_M_disposeEv, .-_ZNSt23_Sp_counted_ptr_inplaceINSt13__future_base13_State_baseV2ESaIS1_ELN9__gnu_cxx12_Lock_policyE2EE10_M_disposeEv
	.section	.text._ZNSt23_Sp_counted_ptr_inplaceIN8opendnp310CommandSetESaIS1_ELN9__gnu_cxx12_Lock_policyE2EE10_M_disposeEv,"axG",@progbits,_ZNSt23_Sp_counted_ptr_inplaceIN8opendnp310CommandSetESaIS1_ELN9__gnu_cxx12_Lock_policyE2EE10_M_disposeEv,comdat
	.align 2
	.p2align 4,,15
	.weak	_ZNSt23_Sp_counted_ptr_inplaceIN8opendnp310CommandSetESaIS1_ELN9__gnu_cxx12_Lock_policyE2EE10_M_disposeEv
	.type	_ZNSt23_Sp_counted_ptr_inplaceIN8opendnp310CommandSetESaIS1_ELN9__gnu_cxx12_Lock_policyE2EE10_M_disposeEv, @function
_ZNSt23_Sp_counted_ptr_inplaceIN8opendnp310CommandSetESaIS1_ELN9__gnu_cxx12_Lock_policyE2EE10_M_disposeEv:
.LFB12146:
	.cfi_startproc
	addq	$16, %rdi
	jmp	_ZN8opendnp310CommandSetD1Ev@PLT
	.cfi_endproc
.LFE12146:
	.size	_ZNSt23_Sp_counted_ptr_inplaceIN8opendnp310CommandSetESaIS1_ELN9__gnu_cxx12_Lock_policyE2EE10_M_disposeEv, .-_ZNSt23_Sp_counted_ptr_inplaceIN8opendnp310CommandSetESaIS1_ELN9__gnu_cxx12_Lock_policyE2EE10_M_disposeEv
	.section	.text._ZNSt13__future_base13_State_baseV2D0Ev,"axG",@progbits,_ZNSt13__future_base13_State_baseV2D5Ev,comdat
	.align 2
	.p2align 4,,15
	.weak	_ZNSt13__future_base13_State_baseV2D0Ev
	.type	_ZNSt13__future_base13_State_baseV2D0Ev, @function
_ZNSt13__future_base13_State_baseV2D0Ev:
.LFB12001:
	.cfi_startproc
	.cfi_personality 0x9b,DW.ref.__gxx_personality_v0
	.cfi_lsda 0x1b,.LLSDA12001
	movq	_ZTVNSt13__future_base13_State_baseV2E@GOTPCREL(%rip), %rax
	pushq	%rbx
	.cfi_def_cfa_offset 16
	.cfi_offset 3, -16
	movq	%rdi, %rbx
	addq	$16, %rax
	movq	%rax, (%rdi)
	movq	8(%rdi), %rdi
	testq	%rdi, %rdi
	je	.L40
	movq	(%rdi), %rax
	call	*(%rax)
.L40:
	movq	%rbx, %rdi
	movl	$32, %esi
	popq	%rbx
	.cfi_def_cfa_offset 8
	jmp	_ZdlPvm@PLT
	.cfi_endproc
.LFE12001:
	.section	.gcc_except_table._ZNSt13__future_base13_State_baseV2D0Ev,"aG",@progbits,_ZNSt13__future_base13_State_baseV2D5Ev,comdat
.LLSDA12001:
	.byte	0xff
	.byte	0xff
	.byte	0x1
	.uleb128 .LLSDACSE12001-.LLSDACSB12001
.LLSDACSB12001:
.LLSDACSE12001:
	.section	.text._ZNSt13__future_base13_State_baseV2D0Ev,"axG",@progbits,_ZNSt13__future_base13_State_baseV2D5Ev,comdat
	.size	_ZNSt13__future_base13_State_baseV2D0Ev, .-_ZNSt13__future_base13_State_baseV2D0Ev
	.section	.text._ZNSt23_Sp_counted_ptr_inplaceINSt13__future_base13_State_baseV2ESaIS1_ELN9__gnu_cxx12_Lock_policyE2EED0Ev,"axG",@progbits,_ZNSt23_Sp_counted_ptr_inplaceINSt13__future_base13_State_baseV2ESaIS1_ELN9__gnu_cxx12_Lock_policyE2EED5Ev,comdat
	.align 2
	.p2align 4,,15
	.weak	_ZNSt23_Sp_counted_ptr_inplaceINSt13__future_base13_State_baseV2ESaIS1_ELN9__gnu_cxx12_Lock_policyE2EED0Ev
	.type	_ZNSt23_Sp_counted_ptr_inplaceINSt13__future_base13_State_baseV2ESaIS1_ELN9__gnu_cxx12_Lock_policyE2EED0Ev, @function
_ZNSt23_Sp_counted_ptr_inplaceINSt13__future_base13_State_baseV2ESaIS1_ELN9__gnu_cxx12_Lock_policyE2EED0Ev:
.LFB12180:
	.cfi_startproc
	movl	$48, %esi
	jmp	_ZdlPvm@PLT
	.cfi_endproc
.LFE12180:
	.size	_ZNSt23_Sp_counted_ptr_inplaceINSt13__future_base13_State_baseV2ESaIS1_ELN9__gnu_cxx12_Lock_policyE2EED0Ev, .-_ZNSt23_Sp_counted_ptr_inplaceINSt13__future_base13_State_baseV2ESaIS1_ELN9__gnu_cxx12_Lock_policyE2EED0Ev
	.section	.text._ZNSt23_Sp_counted_ptr_inplaceIN8asiodnp310MasterScanESaIS1_ELN9__gnu_cxx12_Lock_policyE2EED0Ev,"axG",@progbits,_ZNSt23_Sp_counted_ptr_inplaceIN8asiodnp310MasterScanESaIS1_ELN9__gnu_cxx12_Lock_policyE2EED5Ev,comdat
	.align 2
	.p2align 4,,15
	.weak	_ZNSt23_Sp_counted_ptr_inplaceIN8asiodnp310MasterScanESaIS1_ELN9__gnu_cxx12_Lock_policyE2EED0Ev
	.type	_ZNSt23_Sp_counted_ptr_inplaceIN8asiodnp310MasterScanESaIS1_ELN9__gnu_cxx12_Lock_policyE2EED0Ev, @function
_ZNSt23_Sp_counted_ptr_inplaceIN8asiodnp310MasterScanESaIS1_ELN9__gnu_cxx12_Lock_policyE2EED0Ev:
.LFB12159:
	.cfi_startproc
	movl	$56, %esi
	jmp	_ZdlPvm@PLT
	.cfi_endproc
.LFE12159:
	.size	_ZNSt23_Sp_counted_ptr_inplaceIN8asiodnp310MasterScanESaIS1_ELN9__gnu_cxx12_Lock_policyE2EED0Ev, .-_ZNSt23_Sp_counted_ptr_inplaceIN8asiodnp310MasterScanESaIS1_ELN9__gnu_cxx12_Lock_policyE2EED0Ev
	.section	.text._ZNSt23_Sp_counted_ptr_inplaceIN8opendnp310CommandSetESaIS1_ELN9__gnu_cxx12_Lock_policyE2EED0Ev,"axG",@progbits,_ZNSt23_Sp_counted_ptr_inplaceIN8opendnp310CommandSetESaIS1_ELN9__gnu_cxx12_Lock_policyE2EED5Ev,comdat
	.align 2
	.p2align 4,,15
	.weak	_ZNSt23_Sp_counted_ptr_inplaceIN8opendnp310CommandSetESaIS1_ELN9__gnu_cxx12_Lock_policyE2EED0Ev
	.type	_ZNSt23_Sp_counted_ptr_inplaceIN8opendnp310CommandSetESaIS1_ELN9__gnu_cxx12_Lock_policyE2EED0Ev, @function
_ZNSt23_Sp_counted_ptr_inplaceIN8opendnp310CommandSetESaIS1_ELN9__gnu_cxx12_Lock_policyE2EED0Ev:
.LFB12145:
	.cfi_startproc
	movl	$40, %esi
	jmp	_ZdlPvm@PLT
	.cfi_endproc
.LFE12145:
	.size	_ZNSt23_Sp_counted_ptr_inplaceIN8opendnp310CommandSetESaIS1_ELN9__gnu_cxx12_Lock_policyE2EED0Ev, .-_ZNSt23_Sp_counted_ptr_inplaceIN8opendnp310CommandSetESaIS1_ELN9__gnu_cxx12_Lock_policyE2EED0Ev
	.section	.text._ZNSt23_Sp_counted_ptr_inplaceIN8opendnp310CommandSetESaIS1_ELN9__gnu_cxx12_Lock_policyE2EE10_M_destroyEv,"axG",@progbits,_ZNSt23_Sp_counted_ptr_inplaceIN8opendnp310CommandSetESaIS1_ELN9__gnu_cxx12_Lock_policyE2EE10_M_destroyEv,comdat
	.align 2
	.p2align 4,,15
	.weak	_ZNSt23_Sp_counted_ptr_inplaceIN8opendnp310CommandSetESaIS1_ELN9__gnu_cxx12_Lock_policyE2EE10_M_destroyEv
	.type	_ZNSt23_Sp_counted_ptr_inplaceIN8opendnp310CommandSetESaIS1_ELN9__gnu_cxx12_Lock_policyE2EE10_M_destroyEv, @function
_ZNSt23_Sp_counted_ptr_inplaceIN8opendnp310CommandSetESaIS1_ELN9__gnu_cxx12_Lock_policyE2EE10_M_destroyEv:
.LFB12147:
	.cfi_startproc
	jmp	_ZdlPv@PLT
	.cfi_endproc
.LFE12147:
	.size	_ZNSt23_Sp_counted_ptr_inplaceIN8opendnp310CommandSetESaIS1_ELN9__gnu_cxx12_Lock_policyE2EE10_M_destroyEv, .-_ZNSt23_Sp_counted_ptr_inplaceIN8opendnp310CommandSetESaIS1_ELN9__gnu_cxx12_Lock_policyE2EE10_M_destroyEv
	.section	.text._ZNSt23_Sp_counted_ptr_inplaceIN8asiodnp310MasterScanESaIS1_ELN9__gnu_cxx12_Lock_policyE2EE10_M_destroyEv,"axG",@progbits,_ZNSt23_Sp_counted_ptr_inplaceIN8asiodnp310MasterScanESaIS1_ELN9__gnu_cxx12_Lock_policyE2EE10_M_destroyEv,comdat
	.align 2
	.p2align 4,,15
	.weak	_ZNSt23_Sp_counted_ptr_inplaceIN8asiodnp310MasterScanESaIS1_ELN9__gnu_cxx12_Lock_policyE2EE10_M_destroyEv
	.type	_ZNSt23_Sp_counted_ptr_inplaceIN8asiodnp310MasterScanESaIS1_ELN9__gnu_cxx12_Lock_policyE2EE10_M_destroyEv, @function
_ZNSt23_Sp_counted_ptr_inplaceIN8asiodnp310MasterScanESaIS1_ELN9__gnu_cxx12_Lock_policyE2EE10_M_destroyEv:
.LFB12161:
	.cfi_startproc
	jmp	_ZdlPv@PLT
	.cfi_endproc
.LFE12161:
	.size	_ZNSt23_Sp_counted_ptr_inplaceIN8asiodnp310MasterScanESaIS1_ELN9__gnu_cxx12_Lock_policyE2EE10_M_destroyEv, .-_ZNSt23_Sp_counted_ptr_inplaceIN8asiodnp310MasterScanESaIS1_ELN9__gnu_cxx12_Lock_policyE2EE10_M_destroyEv
	.section	.text._ZNSt23_Sp_counted_ptr_inplaceINSt13__future_base13_State_baseV2ESaIS1_ELN9__gnu_cxx12_Lock_policyE2EE10_M_destroyEv,"axG",@progbits,_ZNSt23_Sp_counted_ptr_inplaceINSt13__future_base13_State_baseV2ESaIS1_ELN9__gnu_cxx12_Lock_policyE2EE10_M_destroyEv,comdat
	.align 2
	.p2align 4,,15
	.weak	_ZNSt23_Sp_counted_ptr_inplaceINSt13__future_base13_State_baseV2ESaIS1_ELN9__gnu_cxx12_Lock_policyE2EE10_M_destroyEv
	.type	_ZNSt23_Sp_counted_ptr_inplaceINSt13__future_base13_State_baseV2ESaIS1_ELN9__gnu_cxx12_Lock_policyE2EE10_M_destroyEv, @function
_ZNSt23_Sp_counted_ptr_inplaceINSt13__future_base13_State_baseV2ESaIS1_ELN9__gnu_cxx12_Lock_policyE2EE10_M_destroyEv:
.LFB12182:
	.cfi_startproc
	jmp	_ZdlPv@PLT
	.cfi_endproc
.LFE12182:
	.size	_ZNSt23_Sp_counted_ptr_inplaceINSt13__future_base13_State_baseV2ESaIS1_ELN9__gnu_cxx12_Lock_policyE2EE10_M_destroyEv, .-_ZNSt23_Sp_counted_ptr_inplaceINSt13__future_base13_State_baseV2ESaIS1_ELN9__gnu_cxx12_Lock_policyE2EE10_M_destroyEv
	.section	.text._ZNSt13__future_base7_ResultIbED2Ev,"axG",@progbits,_ZNSt13__future_base7_ResultIbED5Ev,comdat
	.align 2
	.p2align 4,,15
	.weak	_ZNSt13__future_base7_ResultIbED2Ev
	.type	_ZNSt13__future_base7_ResultIbED2Ev, @function
_ZNSt13__future_base7_ResultIbED2Ev:
.LFB12210:
	.cfi_startproc
	movq	_ZTVNSt13__future_base7_ResultIbEE@GOTPCREL(%rip), %rax
	addq	$16, %rax
	movq	%rax, (%rdi)
	jmp	_ZNSt13__future_base12_Result_baseD2Ev@PLT
	.cfi_endproc
.LFE12210:
	.size	_ZNSt13__future_base7_ResultIbED2Ev, .-_ZNSt13__future_base7_ResultIbED2Ev
	.weak	_ZNSt13__future_base7_ResultIbED1Ev
	.set	_ZNSt13__future_base7_ResultIbED1Ev,_ZNSt13__future_base7_ResultIbED2Ev
	.section	.text._ZNSt13__future_base7_ResultIbED0Ev,"axG",@progbits,_ZNSt13__future_base7_ResultIbED5Ev,comdat
	.align 2
	.p2align 4,,15
	.weak	_ZNSt13__future_base7_ResultIbED0Ev
	.type	_ZNSt13__future_base7_ResultIbED0Ev, @function
_ZNSt13__future_base7_ResultIbED0Ev:
.LFB12212:
	.cfi_startproc
	movq	_ZTVNSt13__future_base7_ResultIbEE@GOTPCREL(%rip), %rax
	pushq	%rbx
	.cfi_def_cfa_offset 16
	.cfi_offset 3, -16
	movq	%rdi, %rbx
	addq	$16, %rax
	movq	%rax, (%rdi)
	call	_ZNSt13__future_base12_Result_baseD2Ev@PLT
	movq	%rbx, %rdi
	movl	$24, %esi
	popq	%rbx
	.cfi_def_cfa_offset 8
	jmp	_ZdlPvm@PLT
	.cfi_endproc
.LFE12212:
	.size	_ZNSt13__future_base7_ResultIbED0Ev, .-_ZNSt13__future_base7_ResultIbED0Ev
	.section	.text._ZNSt13__future_base7_ResultIN8opendnp315StackStatisticsEED2Ev,"axG",@progbits,_ZNSt13__future_base7_ResultIN8opendnp315StackStatisticsEED5Ev,comdat
	.align 2
	.p2align 4,,15
	.weak	_ZNSt13__future_base7_ResultIN8opendnp315StackStatisticsEED2Ev
	.type	_ZNSt13__future_base7_ResultIN8opendnp315StackStatisticsEED2Ev, @function
_ZNSt13__future_base7_ResultIN8opendnp315StackStatisticsEED2Ev:
.LFB12205:
	.cfi_startproc
	movq	_ZTVNSt13__future_base7_ResultIN8opendnp315StackStatisticsEEE@GOTPCREL(%rip), %rax
	addq	$16, %rax
	movq	%rax, (%rdi)
	jmp	_ZNSt13__future_base12_Result_baseD2Ev@PLT
	.cfi_endproc
.LFE12205:
	.size	_ZNSt13__future_base7_ResultIN8opendnp315StackStatisticsEED2Ev, .-_ZNSt13__future_base7_ResultIN8opendnp315StackStatisticsEED2Ev
	.weak	_ZNSt13__future_base7_ResultIN8opendnp315StackStatisticsEED1Ev
	.set	_ZNSt13__future_base7_ResultIN8opendnp315StackStatisticsEED1Ev,_ZNSt13__future_base7_ResultIN8opendnp315StackStatisticsEED2Ev
	.section	.text._ZNSt13__future_base7_ResultIN8opendnp315StackStatisticsEED0Ev,"axG",@progbits,_ZNSt13__future_base7_ResultIN8opendnp315StackStatisticsEED5Ev,comdat
	.align 2
	.p2align 4,,15
	.weak	_ZNSt13__future_base7_ResultIN8opendnp315StackStatisticsEED0Ev
	.type	_ZNSt13__future_base7_ResultIN8opendnp315StackStatisticsEED0Ev, @function
_ZNSt13__future_base7_ResultIN8opendnp315StackStatisticsEED0Ev:
.LFB12207:
	.cfi_startproc
	movq	_ZTVNSt13__future_base7_ResultIN8opendnp315StackStatisticsEEE@GOTPCREL(%rip), %rax
	pushq	%rbx
	.cfi_def_cfa_offset 16
	.cfi_offset 3, -16
	movq	%rdi, %rbx
	addq	$16, %rax
	movq	%rax, (%rdi)
	call	_ZNSt13__future_base12_Result_baseD2Ev@PLT
	movq	%rbx, %rdi
	movl	$64, %esi
	popq	%rbx
	.cfi_def_cfa_offset 8
	jmp	_ZdlPvm@PLT
	.cfi_endproc
.LFE12207:
	.size	_ZNSt13__future_base7_ResultIN8opendnp315StackStatisticsEED0Ev, .-_ZNSt13__future_base7_ResultIN8opendnp315StackStatisticsEED0Ev
	.section	.text._ZNSt23_Sp_counted_ptr_inplaceINSt13__future_base13_State_baseV2ESaIS1_ELN9__gnu_cxx12_Lock_policyE2EE14_M_get_deleterERKSt9type_info,"axG",@progbits,_ZNSt23_Sp_counted_ptr_inplaceINSt13__future_base13_State_baseV2ESaIS1_ELN9__gnu_cxx12_Lock_policyE2EE14_M_get_deleterERKSt9type_info,comdat
	.align 2
	.p2align 4,,15
	.weak	_ZNSt23_Sp_counted_ptr_inplaceINSt13__future_base13_State_baseV2ESaIS1_ELN9__gnu_cxx12_Lock_policyE2EE14_M_get_deleterERKSt9type_info
	.type	_ZNSt23_Sp_counted_ptr_inplaceINSt13__future_base13_State_baseV2ESaIS1_ELN9__gnu_cxx12_Lock_policyE2EE14_M_get_deleterERKSt9type_info, @function
_ZNSt23_Sp_counted_ptr_inplaceINSt13__future_base13_State_baseV2ESaIS1_ELN9__gnu_cxx12_Lock_policyE2EE14_M_get_deleterERKSt9type_info:
.LFB12183:
	.cfi_startproc
	pushq	%rbx
	.cfi_def_cfa_offset 16
	.cfi_offset 3, -16
	movq	%rdi, %rbx
	movq	8(%rsi), %rdi
	movq	_ZTSSt19_Sp_make_shared_tag@GOTPCREL(%rip), %rsi
	cmpq	%rsi, %rdi
	je	.L58
	cmpb	$42, (%rdi)
	je	.L61
	call	strcmp@PLT
	testl	%eax, %eax
	jne	.L61
.L58:
	leaq	16(%rbx), %rax
	popq	%rbx
	.cfi_remember_state
	.cfi_def_cfa_offset 8
	ret
	.p2align 4,,10
	.p2align 3
.L61:
	.cfi_restore_state
	xorl	%eax, %eax
	popq	%rbx
	.cfi_def_cfa_offset 8
	ret
	.cfi_endproc
.LFE12183:
	.size	_ZNSt23_Sp_counted_ptr_inplaceINSt13__future_base13_State_baseV2ESaIS1_ELN9__gnu_cxx12_Lock_policyE2EE14_M_get_deleterERKSt9type_info, .-_ZNSt23_Sp_counted_ptr_inplaceINSt13__future_base13_State_baseV2ESaIS1_ELN9__gnu_cxx12_Lock_policyE2EE14_M_get_deleterERKSt9type_info
	.section	.text._ZNSt23_Sp_counted_ptr_inplaceIN8asiodnp310MasterScanESaIS1_ELN9__gnu_cxx12_Lock_policyE2EE14_M_get_deleterERKSt9type_info,"axG",@progbits,_ZNSt23_Sp_counted_ptr_inplaceIN8asiodnp310MasterScanESaIS1_ELN9__gnu_cxx12_Lock_policyE2EE14_M_get_deleterERKSt9type_info,comdat
	.align 2
	.p2align 4,,15
	.weak	_ZNSt23_Sp_counted_ptr_inplaceIN8asiodnp310MasterScanESaIS1_ELN9__gnu_cxx12_Lock_policyE2EE14_M_get_deleterERKSt9type_info
	.type	_ZNSt23_Sp_counted_ptr_inplaceIN8asiodnp310MasterScanESaIS1_ELN9__gnu_cxx12_Lock_policyE2EE14_M_get_deleterERKSt9type_info, @function
_ZNSt23_Sp_counted_ptr_inplaceIN8asiodnp310MasterScanESaIS1_ELN9__gnu_cxx12_Lock_policyE2EE14_M_get_deleterERKSt9type_info:
.LFB12162:
	.cfi_startproc
	pushq	%rbx
	.cfi_def_cfa_offset 16
	.cfi_offset 3, -16
	movq	%rdi, %rbx
	movq	8(%rsi), %rdi
	movq	_ZTSSt19_Sp_make_shared_tag@GOTPCREL(%rip), %rsi
	cmpq	%rsi, %rdi
	je	.L64
	cmpb	$42, (%rdi)
	je	.L67
	call	strcmp@PLT
	testl	%eax, %eax
	jne	.L67
.L64:
	leaq	16(%rbx), %rax
	popq	%rbx
	.cfi_remember_state
	.cfi_def_cfa_offset 8
	ret
	.p2align 4,,10
	.p2align 3
.L67:
	.cfi_restore_state
	xorl	%eax, %eax
	popq	%rbx
	.cfi_def_cfa_offset 8
	ret
	.cfi_endproc
.LFE12162:
	.size	_ZNSt23_Sp_counted_ptr_inplaceIN8asiodnp310MasterScanESaIS1_ELN9__gnu_cxx12_Lock_policyE2EE14_M_get_deleterERKSt9type_info, .-_ZNSt23_Sp_counted_ptr_inplaceIN8asiodnp310MasterScanESaIS1_ELN9__gnu_cxx12_Lock_policyE2EE14_M_get_deleterERKSt9type_info
	.section	.text._ZNSt23_Sp_counted_ptr_inplaceIN8opendnp310CommandSetESaIS1_ELN9__gnu_cxx12_Lock_policyE2EE14_M_get_deleterERKSt9type_info,"axG",@progbits,_ZNSt23_Sp_counted_ptr_inplaceIN8opendnp310CommandSetESaIS1_ELN9__gnu_cxx12_Lock_policyE2EE14_M_get_deleterERKSt9type_info,comdat
	.align 2
	.p2align 4,,15
	.weak	_ZNSt23_Sp_counted_ptr_inplaceIN8opendnp310CommandSetESaIS1_ELN9__gnu_cxx12_Lock_policyE2EE14_M_get_deleterERKSt9type_info
	.type	_ZNSt23_Sp_counted_ptr_inplaceIN8opendnp310CommandSetESaIS1_ELN9__gnu_cxx12_Lock_policyE2EE14_M_get_deleterERKSt9type_info, @function
_ZNSt23_Sp_counted_ptr_inplaceIN8opendnp310CommandSetESaIS1_ELN9__gnu_cxx12_Lock_policyE2EE14_M_get_deleterERKSt9type_info:
.LFB12148:
	.cfi_startproc
	pushq	%rbx
	.cfi_def_cfa_offset 16
	.cfi_offset 3, -16
	movq	%rdi, %rbx
	movq	8(%rsi), %rdi
	movq	_ZTSSt19_Sp_make_shared_tag@GOTPCREL(%rip), %rsi
	cmpq	%rsi, %rdi
	je	.L70
	cmpb	$42, (%rdi)
	je	.L73
	call	strcmp@PLT
	testl	%eax, %eax
	jne	.L73
.L70:
	leaq	16(%rbx), %rax
	popq	%rbx
	.cfi_remember_state
	.cfi_def_cfa_offset 8
	ret
	.p2align 4,,10
	.p2align 3
.L73:
	.cfi_restore_state
	xorl	%eax, %eax
	popq	%rbx
	.cfi_def_cfa_offset 8
	ret
	.cfi_endproc
.LFE12148:
	.size	_ZNSt23_Sp_counted_ptr_inplaceIN8opendnp310CommandSetESaIS1_ELN9__gnu_cxx12_Lock_policyE2EE14_M_get_deleterERKSt9type_info, .-_ZNSt23_Sp_counted_ptr_inplaceIN8opendnp310CommandSetESaIS1_ELN9__gnu_cxx12_Lock_policyE2EE14_M_get_deleterERKSt9type_info
	.section	.text._ZN7openpal5ArrayIhjED2Ev,"axG",@progbits,_ZN7openpal5ArrayIhjED5Ev,comdat
	.align 2
	.p2align 4,,15
	.weak	_ZN7openpal5ArrayIhjED2Ev
	.type	_ZN7openpal5ArrayIhjED2Ev, @function
_ZN7openpal5ArrayIhjED2Ev:
.LFB9173:
	.cfi_startproc
	movq	_ZTVN7openpal5ArrayIhjEE@GOTPCREL(%rip), %rax
	addq	$16, %rax
	movq	%rax, (%rdi)
	movq	16(%rdi), %rdi
	testq	%rdi, %rdi
	je	.L75
	jmp	_ZdaPv@PLT
	.p2align 4,,10
	.p2align 3
.L75:
	rep ret
	.cfi_endproc
.LFE9173:
	.size	_ZN7openpal5ArrayIhjED2Ev, .-_ZN7openpal5ArrayIhjED2Ev
	.weak	_ZN7openpal5ArrayIhjED1Ev
	.set	_ZN7openpal5ArrayIhjED1Ev,_ZN7openpal5ArrayIhjED2Ev
	.section	.text._ZN7openpal5ArrayIhjED0Ev,"axG",@progbits,_ZN7openpal5ArrayIhjED5Ev,comdat
	.align 2
	.p2align 4,,15
	.weak	_ZN7openpal5ArrayIhjED0Ev
	.type	_ZN7openpal5ArrayIhjED0Ev, @function
_ZN7openpal5ArrayIhjED0Ev:
.LFB9175:
	.cfi_startproc
	movq	_ZTVN7openpal5ArrayIhjEE@GOTPCREL(%rip), %rax
	pushq	%rbx
	.cfi_def_cfa_offset 16
	.cfi_offset 3, -16
	movq	%rdi, %rbx
	addq	$16, %rax
	movq	%rax, (%rdi)
	movq	16(%rdi), %rdi
	testq	%rdi, %rdi
	je	.L78
	call	_ZdaPv@PLT
.L78:
	movq	%rbx, %rdi
	movl	$24, %esi
	popq	%rbx
	.cfi_def_cfa_offset 8
	jmp	_ZdlPvm@PLT
	.cfi_endproc
.LFE9175:
	.size	_ZN7openpal5ArrayIhjED0Ev, .-_ZN7openpal5ArrayIhjED0Ev
	.section	.text._ZNSt13__future_base13_State_baseV29_M_do_setEPSt8functionIFSt10unique_ptrINS_12_Result_baseENS3_8_DeleterEEvEEPb,"axG",@progbits,_ZNSt13__future_base13_State_baseV29_M_do_setEPSt8functionIFSt10unique_ptrINS_12_Result_baseENS3_8_DeleterEEvEEPb,comdat
	.align 2
	.p2align 4,,15
	.weak	_ZNSt13__future_base13_State_baseV29_M_do_setEPSt8functionIFSt10unique_ptrINS_12_Result_baseENS3_8_DeleterEEvEEPb
	.type	_ZNSt13__future_base13_State_baseV29_M_do_setEPSt8functionIFSt10unique_ptrINS_12_Result_baseENS3_8_DeleterEEvEEPb, @function
_ZNSt13__future_base13_State_baseV29_M_do_setEPSt8functionIFSt10unique_ptrINS_12_Result_baseENS3_8_DeleterEEvEEPb:
.LFB6742:
	.cfi_startproc
	.cfi_personality 0x9b,DW.ref.__gxx_personality_v0
	.cfi_lsda 0x1b,.LLSDA6742
	pushq	%rbp
	.cfi_def_cfa_offset 16
	.cfi_offset 6, -16
	pushq	%rbx
	.cfi_def_cfa_offset 24
	.cfi_offset 3, -24
	subq	$24, %rsp
	.cfi_def_cfa_offset 48
	movq	%fs:40, %rcx
	movq	%rcx, 8(%rsp)
	xorl	%ecx, %ecx
	cmpq	$0, 16(%rsi)
	je	.L91
	movq	%rdi, %rbx
	movq	%rdx, %rbp
	movq	%rsp, %rdi
.LEHB0:
	call	*24(%rsi)
.LEHE0:
	movq	8(%rbx), %rdi
	movq	(%rsp), %rax
	movb	$1, 0(%rbp)
	testq	%rdi, %rdi
	movq	%rax, 8(%rbx)
	movq	%rdi, (%rsp)
	je	.L83
	movq	(%rdi), %rax
	call	*(%rax)
.L83:
	movq	8(%rsp), %rax
	xorq	%fs:40, %rax
	jne	.L92
	addq	$24, %rsp
	.cfi_remember_state
	.cfi_def_cfa_offset 24
	popq	%rbx
	.cfi_def_cfa_offset 16
	popq	%rbp
	.cfi_def_cfa_offset 8
	ret
.L91:
	.cfi_restore_state
.LEHB1:
	call	_ZSt25__throw_bad_function_callv@PLT
.LEHE1:
.L92:
	call	__stack_chk_fail@PLT
	.cfi_endproc
.LFE6742:
	.section	.gcc_except_table._ZNSt13__future_base13_State_baseV29_M_do_setEPSt8functionIFSt10unique_ptrINS_12_Result_baseENS3_8_DeleterEEvEEPb,"aG",@progbits,_ZNSt13__future_base13_State_baseV29_M_do_setEPSt8functionIFSt10unique_ptrINS_12_Result_baseENS3_8_DeleterEEvEEPb,comdat
.LLSDA6742:
	.byte	0xff
	.byte	0xff
	.byte	0x1
	.uleb128 .LLSDACSE6742-.LLSDACSB6742
.LLSDACSB6742:
	.uleb128 .LEHB0-.LFB6742
	.uleb128 .LEHE0-.LEHB0
	.uleb128 0
	.uleb128 0
	.uleb128 .LEHB1-.LFB6742
	.uleb128 .LEHE1-.LEHB1
	.uleb128 0
	.uleb128 0
.LLSDACSE6742:
	.section	.text._ZNSt13__future_base13_State_baseV29_M_do_setEPSt8functionIFSt10unique_ptrINS_12_Result_baseENS3_8_DeleterEEvEEPb,"axG",@progbits,_ZNSt13__future_base13_State_baseV29_M_do_setEPSt8functionIFSt10unique_ptrINS_12_Result_baseENS3_8_DeleterEEvEEPb,comdat
	.size	_ZNSt13__future_base13_State_baseV29_M_do_setEPSt8functionIFSt10unique_ptrINS_12_Result_baseENS3_8_DeleterEEvEEPb, .-_ZNSt13__future_base13_State_baseV29_M_do_setEPSt8functionIFSt10unique_ptrINS_12_Result_baseENS3_8_DeleterEEvEEPb
	.text
	.p2align 4,,15
	.type	_ZNSt17_Function_handlerIFN8opendnp315StackStatisticsEvEZN8asiodnp311MasterStack18GetStackStatisticsEvEUlvE_E9_M_invokeERKSt9_Any_data, @function
_ZNSt17_Function_handlerIFN8opendnp315StackStatisticsEvEZN8asiodnp311MasterStack18GetStackStatisticsEvEUlvE_E9_M_invokeERKSt9_Any_data:
.LFB9927:
	.cfi_startproc
	pushq	%rbp
	.cfi_def_cfa_offset 16
	.cfi_offset 6, -16
	pushq	%rbx
	.cfi_def_cfa_offset 24
	.cfi_offset 3, -24
	movq	%rdi, %rbx
	subq	$40, %rsp
	.cfi_def_cfa_offset 64
	movq	%fs:40, %rax
	movq	%rax, 24(%rsp)
	xorl	%eax, %eax
	movq	(%rsi), %rax
	movq	%rsp, %rdi
	movq	(%rax), %rbp
	movq	136(%rbp), %rsi
	call	_ZNK8opendnp314TransportLayer13GetStatisticsEv@PLT
	movq	152(%rbp), %rdi
	call	_ZNK8opendnp39LinkLayer13GetStatisticsEv@PLT
	movdqu	(%rax), %xmm0
	movq	16(%rsp), %rax
	movups	%xmm0, (%rbx)
	movq	24(%rsp), %rdx
	xorq	%fs:40, %rdx
	movdqa	(%rsp), %xmm0
	movq	%rax, 32(%rbx)
	movups	%xmm0, 16(%rbx)
	jne	.L96
	addq	$40, %rsp
	.cfi_remember_state
	.cfi_def_cfa_offset 24
	movq	%rbx, %rax
	popq	%rbx
	.cfi_def_cfa_offset 16
	popq	%rbp
	.cfi_def_cfa_offset 8
	ret
.L96:
	.cfi_restore_state
	call	__stack_chk_fail@PLT
	.cfi_endproc
.LFE9927:
	.size	_ZNSt17_Function_handlerIFN8opendnp315StackStatisticsEvEZN8asiodnp311MasterStack18GetStackStatisticsEvEUlvE_E9_M_invokeERKSt9_Any_data, .-_ZNSt17_Function_handlerIFN8opendnp315StackStatisticsEvEZN8asiodnp311MasterStack18GetStackStatisticsEvEUlvE_E9_M_invokeERKSt9_Any_data
	.p2align 4,,15
	.type	_ZNSt17_Function_handlerIFSt10shared_ptrIN8opendnp311IMasterTaskEEvEZN8asiodnp311MasterStack7AddScanEN7openpal12TimeDurationERKSt6vectorINS1_6HeaderESaISA_EERKNS1_10TaskConfigEEUlvE_E9_M_invokeERKSt9_Any_data, @function
_ZNSt17_Function_handlerIFSt10shared_ptrIN8opendnp311IMasterTaskEEvEZN8asiodnp311MasterStack7AddScanEN7openpal12TimeDurationERKSt6vectorINS1_6HeaderESaISA_EERKNS1_10TaskConfigEEUlvE_E9_M_invokeERKSt9_Any_data:
.LFB9970:
	.cfi_startproc
	pushq	%rbx
	.cfi_def_cfa_offset 16
	.cfi_offset 3, -16
	movq	%rdi, %rbx
	subq	$16, %rsp
	.cfi_def_cfa_offset 32
	movq	(%rsi), %rdi
	movq	%fs:40, %rax
	movq	%rax, 8(%rsp)
	xorl	%eax, %eax
	movq	(%rdi), %rax
	movq	48(%rdi), %rdx
	leaq	16(%rdi), %rcx
	movq	56(%rdi), %r8
	movq	64(%rdi), %r9
	movq	%rbx, %rdi
	leaq	168(%rax), %rsi
	call	_ZN8opendnp38MContext7AddScanEN7openpal12TimeDurationERKSt8functionIFbRNS_12HeaderWriterEEENS_10TaskConfigE@PLT
	movq	8(%rsp), %rdx
	xorq	%fs:40, %rdx
	jne	.L100
	addq	$16, %rsp
	.cfi_remember_state
	.cfi_def_cfa_offset 16
	movq	%rbx, %rax
	popq	%rbx
	.cfi_def_cfa_offset 8
	ret
.L100:
	.cfi_restore_state
	call	__stack_chk_fail@PLT
	.cfi_endproc
.LFE9970:
	.size	_ZNSt17_Function_handlerIFSt10shared_ptrIN8opendnp311IMasterTaskEEvEZN8asiodnp311MasterStack7AddScanEN7openpal12TimeDurationERKSt6vectorINS1_6HeaderESaISA_EERKNS1_10TaskConfigEEUlvE_E9_M_invokeERKSt9_Any_data, .-_ZNSt17_Function_handlerIFSt10shared_ptrIN8opendnp311IMasterTaskEEvEZN8asiodnp311MasterStack7AddScanEN7openpal12TimeDurationERKSt6vectorINS1_6HeaderESaISA_EERKNS1_10TaskConfigEEUlvE_E9_M_invokeERKSt9_Any_data
	.p2align 4,,15
	.type	_ZNSt17_Function_handlerIFSt10shared_ptrIN8opendnp311IMasterTaskEEvEZN8asiodnp311MasterStack17AddAllObjectsScanENS1_16GroupVariationIDEN7openpal12TimeDurationERKNS1_10TaskConfigEEUlvE_E9_M_invokeERKSt9_Any_data, @function
_ZNSt17_Function_handlerIFSt10shared_ptrIN8opendnp311IMasterTaskEEvEZN8asiodnp311MasterStack17AddAllObjectsScanENS1_16GroupVariationIDEN7openpal12TimeDurationERKNS1_10TaskConfigEEUlvE_E9_M_invokeERKSt9_Any_data:
.LFB9999:
	.cfi_startproc
	pushq	%rbx
	.cfi_def_cfa_offset 16
	.cfi_offset 3, -16
	movq	%rdi, %rbx
	subq	$16, %rsp
	.cfi_def_cfa_offset 32
	movq	(%rsi), %rdi
	movq	%fs:40, %rax
	movq	%rax, 8(%rsp)
	xorl	%eax, %eax
	movq	(%rdi), %rax
	movzwl	16(%rdi), %edx
	movq	24(%rdi), %rcx
	movq	32(%rdi), %r8
	movq	40(%rdi), %r9
	movq	%rbx, %rdi
	leaq	168(%rax), %rsi
	call	_ZN8opendnp38MContext17AddAllObjectsScanENS_16GroupVariationIDEN7openpal12TimeDurationENS_10TaskConfigE@PLT
	movq	8(%rsp), %rdx
	xorq	%fs:40, %rdx
	jne	.L104
	addq	$16, %rsp
	.cfi_remember_state
	.cfi_def_cfa_offset 16
	movq	%rbx, %rax
	popq	%rbx
	.cfi_def_cfa_offset 8
	ret
.L104:
	.cfi_restore_state
	call	__stack_chk_fail@PLT
	.cfi_endproc
.LFE9999:
	.size	_ZNSt17_Function_handlerIFSt10shared_ptrIN8opendnp311IMasterTaskEEvEZN8asiodnp311MasterStack17AddAllObjectsScanENS1_16GroupVariationIDEN7openpal12TimeDurationERKNS1_10TaskConfigEEUlvE_E9_M_invokeERKSt9_Any_data, .-_ZNSt17_Function_handlerIFSt10shared_ptrIN8opendnp311IMasterTaskEEvEZN8asiodnp311MasterStack17AddAllObjectsScanENS1_16GroupVariationIDEN7openpal12TimeDurationERKNS1_10TaskConfigEEUlvE_E9_M_invokeERKSt9_Any_data
	.p2align 4,,15
	.type	_ZNSt17_Function_handlerIFSt10shared_ptrIN8opendnp311IMasterTaskEEvEZN8asiodnp311MasterStack12AddClassScanERKNS1_10ClassFieldEN7openpal12TimeDurationERKNS1_10TaskConfigEEUlvE_E9_M_invokeERKSt9_Any_data, @function
_ZNSt17_Function_handlerIFSt10shared_ptrIN8opendnp311IMasterTaskEEvEZN8asiodnp311MasterStack12AddClassScanERKNS1_10ClassFieldEN7openpal12TimeDurationERKNS1_10TaskConfigEEUlvE_E9_M_invokeERKSt9_Any_data:
.LFB10003:
	.cfi_startproc
	pushq	%rbx
	.cfi_def_cfa_offset 16
	.cfi_offset 3, -16
	movq	%rdi, %rbx
	subq	$16, %rsp
	.cfi_def_cfa_offset 32
	movq	(%rsi), %rdi
	movq	%fs:40, %rax
	movq	%rax, 8(%rsp)
	xorl	%eax, %eax
	movq	(%rdi), %rax
	movq	24(%rdi), %rcx
	leaq	16(%rdi), %rdx
	movq	32(%rdi), %r8
	movq	40(%rdi), %r9
	movq	%rbx, %rdi
	leaq	168(%rax), %rsi
	call	_ZN8opendnp38MContext12AddClassScanERKNS_10ClassFieldEN7openpal12TimeDurationENS_10TaskConfigE@PLT
	movq	8(%rsp), %rdx
	xorq	%fs:40, %rdx
	jne	.L108
	addq	$16, %rsp
	.cfi_remember_state
	.cfi_def_cfa_offset 16
	movq	%rbx, %rax
	popq	%rbx
	.cfi_def_cfa_offset 8
	ret
.L108:
	.cfi_restore_state
	call	__stack_chk_fail@PLT
	.cfi_endproc
.LFE10003:
	.size	_ZNSt17_Function_handlerIFSt10shared_ptrIN8opendnp311IMasterTaskEEvEZN8asiodnp311MasterStack12AddClassScanERKNS1_10ClassFieldEN7openpal12TimeDurationERKNS1_10TaskConfigEEUlvE_E9_M_invokeERKSt9_Any_data, .-_ZNSt17_Function_handlerIFSt10shared_ptrIN8opendnp311IMasterTaskEEvEZN8asiodnp311MasterStack12AddClassScanERKNS1_10ClassFieldEN7openpal12TimeDurationERKNS1_10TaskConfigEEUlvE_E9_M_invokeERKSt9_Any_data
	.p2align 4,,15
	.type	_ZNSt17_Function_handlerIFSt10shared_ptrIN8opendnp311IMasterTaskEEvEZN8asiodnp311MasterStack12AddRangeScanENS1_16GroupVariationIDEttN7openpal12TimeDurationERKNS1_10TaskConfigEEUlvE_E9_M_invokeERKSt9_Any_data, @function
_ZNSt17_Function_handlerIFSt10shared_ptrIN8opendnp311IMasterTaskEEvEZN8asiodnp311MasterStack12AddRangeScanENS1_16GroupVariationIDEttN7openpal12TimeDurationERKNS1_10TaskConfigEEUlvE_E9_M_invokeERKSt9_Any_data:
.LFB10007:
	.cfi_startproc
	pushq	%rbx
	.cfi_def_cfa_offset 16
	.cfi_offset 3, -16
	movq	%rdi, %rbx
	subq	$16, %rsp
	.cfi_def_cfa_offset 32
	movq	(%rsi), %rdi
	movq	%fs:40, %rax
	movq	%rax, 8(%rsp)
	xorl	%eax, %eax
	movq	(%rdi), %rax
	movzwl	16(%rdi), %edx
	movzwl	18(%rdi), %ecx
	movzwl	20(%rdi), %r8d
	movq	24(%rdi), %r9
	pushq	40(%rdi)
	.cfi_def_cfa_offset 40
	leaq	168(%rax), %rsi
	pushq	32(%rdi)
	.cfi_def_cfa_offset 48
	movq	%rbx, %rdi
	call	_ZN8opendnp38MContext12AddRangeScanENS_16GroupVariationIDEttN7openpal12TimeDurationENS_10TaskConfigE@PLT
	popq	%rax
	.cfi_def_cfa_offset 40
	popq	%rdx
	.cfi_def_cfa_offset 32
	movq	8(%rsp), %rdx
	xorq	%fs:40, %rdx
	jne	.L112
	addq	$16, %rsp
	.cfi_remember_state
	.cfi_def_cfa_offset 16
	movq	%rbx, %rax
	popq	%rbx
	.cfi_def_cfa_offset 8
	ret
.L112:
	.cfi_restore_state
	call	__stack_chk_fail@PLT
	.cfi_endproc
.LFE10007:
	.size	_ZNSt17_Function_handlerIFSt10shared_ptrIN8opendnp311IMasterTaskEEvEZN8asiodnp311MasterStack12AddRangeScanENS1_16GroupVariationIDEttN7openpal12TimeDurationERKNS1_10TaskConfigEEUlvE_E9_M_invokeERKSt9_Any_data, .-_ZNSt17_Function_handlerIFSt10shared_ptrIN8opendnp311IMasterTaskEEvEZN8asiodnp311MasterStack12AddRangeScanENS1_16GroupVariationIDEttN7openpal12TimeDurationERKNS1_10TaskConfigEEUlvE_E9_M_invokeERKSt9_Any_data
	.section	.text._ZN4asio6detail15system_categoryD2Ev,"axG",@progbits,_ZN4asio6detail15system_categoryD5Ev,comdat
	.align 2
	.p2align 4,,15
	.weak	_ZN4asio6detail15system_categoryD2Ev
	.type	_ZN4asio6detail15system_categoryD2Ev, @function
_ZN4asio6detail15system_categoryD2Ev:
.LFB12043:
	.cfi_startproc
	movq	_ZTVN4asio6detail15system_categoryE@GOTPCREL(%rip), %rax
	addq	$16, %rax
	movq	%rax, (%rdi)
	jmp	_ZNSt3_V214error_categoryD2Ev@PLT
	.cfi_endproc
.LFE12043:
	.size	_ZN4asio6detail15system_categoryD2Ev, .-_ZN4asio6detail15system_categoryD2Ev
	.weak	_ZN4asio6detail15system_categoryD1Ev
	.set	_ZN4asio6detail15system_categoryD1Ev,_ZN4asio6detail15system_categoryD2Ev
	.section	.text._ZN4asio6detail15system_categoryD0Ev,"axG",@progbits,_ZN4asio6detail15system_categoryD5Ev,comdat
	.align 2
	.p2align 4,,15
	.weak	_ZN4asio6detail15system_categoryD0Ev
	.type	_ZN4asio6detail15system_categoryD0Ev, @function
_ZN4asio6detail15system_categoryD0Ev:
.LFB12045:
	.cfi_startproc
	movq	_ZTVN4asio6detail15system_categoryE@GOTPCREL(%rip), %rax
	pushq	%rbx
	.cfi_def_cfa_offset 16
	.cfi_offset 3, -16
	movq	%rdi, %rbx
	addq	$16, %rax
	movq	%rax, (%rdi)
	call	_ZNSt3_V214error_categoryD2Ev@PLT
	movq	%rbx, %rdi
	movl	$8, %esi
	popq	%rbx
	.cfi_def_cfa_offset 8
	jmp	_ZdlPvm@PLT
	.cfi_endproc
.LFE12045:
	.size	_ZN4asio6detail15system_categoryD0Ev, .-_ZN4asio6detail15system_categoryD0Ev
	.section	.text._ZN4asio5error6detail14netdb_categoryD2Ev,"axG",@progbits,_ZN4asio5error6detail14netdb_categoryD5Ev,comdat
	.align 2
	.p2align 4,,15
	.weak	_ZN4asio5error6detail14netdb_categoryD2Ev
	.type	_ZN4asio5error6detail14netdb_categoryD2Ev, @function
_ZN4asio5error6detail14netdb_categoryD2Ev:
.LFB12031:
	.cfi_startproc
	movq	_ZTVN4asio5error6detail14netdb_categoryE@GOTPCREL(%rip), %rax
	addq	$16, %rax
	movq	%rax, (%rdi)
	jmp	_ZNSt3_V214error_categoryD2Ev@PLT
	.cfi_endproc
.LFE12031:
	.size	_ZN4asio5error6detail14netdb_categoryD2Ev, .-_ZN4asio5error6detail14netdb_categoryD2Ev
	.weak	_ZN4asio5error6detail14netdb_categoryD1Ev
	.set	_ZN4asio5error6detail14netdb_categoryD1Ev,_ZN4asio5error6detail14netdb_categoryD2Ev
	.section	.text._ZN4asio5error6detail14netdb_categoryD0Ev,"axG",@progbits,_ZN4asio5error6detail14netdb_categoryD5Ev,comdat
	.align 2
	.p2align 4,,15
	.weak	_ZN4asio5error6detail14netdb_categoryD0Ev
	.type	_ZN4asio5error6detail14netdb_categoryD0Ev, @function
_ZN4asio5error6detail14netdb_categoryD0Ev:
.LFB12033:
	.cfi_startproc
	movq	_ZTVN4asio5error6detail14netdb_categoryE@GOTPCREL(%rip), %rax
	pushq	%rbx
	.cfi_def_cfa_offset 16
	.cfi_offset 3, -16
	movq	%rdi, %rbx
	addq	$16, %rax
	movq	%rax, (%rdi)
	call	_ZNSt3_V214error_categoryD2Ev@PLT
	movq	%rbx, %rdi
	movl	$8, %esi
	popq	%rbx
	.cfi_def_cfa_offset 8
	jmp	_ZdlPvm@PLT
	.cfi_endproc
.LFE12033:
	.size	_ZN4asio5error6detail14netdb_categoryD0Ev, .-_ZN4asio5error6detail14netdb_categoryD0Ev
	.section	.text._ZN4asio5error6detail17addrinfo_categoryD2Ev,"axG",@progbits,_ZN4asio5error6detail17addrinfo_categoryD5Ev,comdat
	.align 2
	.p2align 4,,15
	.weak	_ZN4asio5error6detail17addrinfo_categoryD2Ev
	.type	_ZN4asio5error6detail17addrinfo_categoryD2Ev, @function
_ZN4asio5error6detail17addrinfo_categoryD2Ev:
.LFB12027:
	.cfi_startproc
	movq	_ZTVN4asio5error6detail17addrinfo_categoryE@GOTPCREL(%rip), %rax
	addq	$16, %rax
	movq	%rax, (%rdi)
	jmp	_ZNSt3_V214error_categoryD2Ev@PLT
	.cfi_endproc
.LFE12027:
	.size	_ZN4asio5error6detail17addrinfo_categoryD2Ev, .-_ZN4asio5error6detail17addrinfo_categoryD2Ev
	.weak	_ZN4asio5error6detail17addrinfo_categoryD1Ev
	.set	_ZN4asio5error6detail17addrinfo_categoryD1Ev,_ZN4asio5error6detail17addrinfo_categoryD2Ev
	.section	.text._ZN4asio5error6detail17addrinfo_categoryD0Ev,"axG",@progbits,_ZN4asio5error6detail17addrinfo_categoryD5Ev,comdat
	.align 2
	.p2align 4,,15
	.weak	_ZN4asio5error6detail17addrinfo_categoryD0Ev
	.type	_ZN4asio5error6detail17addrinfo_categoryD0Ev, @function
_ZN4asio5error6detail17addrinfo_categoryD0Ev:
.LFB12029:
	.cfi_startproc
	movq	_ZTVN4asio5error6detail17addrinfo_categoryE@GOTPCREL(%rip), %rax
	pushq	%rbx
	.cfi_def_cfa_offset 16
	.cfi_offset 3, -16
	movq	%rdi, %rbx
	addq	$16, %rax
	movq	%rax, (%rdi)
	call	_ZNSt3_V214error_categoryD2Ev@PLT
	movq	%rbx, %rdi
	movl	$8, %esi
	popq	%rbx
	.cfi_def_cfa_offset 8
	jmp	_ZdlPvm@PLT
	.cfi_endproc
.LFE12029:
	.size	_ZN4asio5error6detail17addrinfo_categoryD0Ev, .-_ZN4asio5error6detail17addrinfo_categoryD0Ev
	.section	.text._ZN4asio5error6detail13misc_categoryD2Ev,"axG",@progbits,_ZN4asio5error6detail13misc_categoryD5Ev,comdat
	.align 2
	.p2align 4,,15
	.weak	_ZN4asio5error6detail13misc_categoryD2Ev
	.type	_ZN4asio5error6detail13misc_categoryD2Ev, @function
_ZN4asio5error6detail13misc_categoryD2Ev:
.LFB12023:
	.cfi_startproc
	movq	_ZTVN4asio5error6detail13misc_categoryE@GOTPCREL(%rip), %rax
	addq	$16, %rax
	movq	%rax, (%rdi)
	jmp	_ZNSt3_V214error_categoryD2Ev@PLT
	.cfi_endproc
.LFE12023:
	.size	_ZN4asio5error6detail13misc_categoryD2Ev, .-_ZN4asio5error6detail13misc_categoryD2Ev
	.weak	_ZN4asio5error6detail13misc_categoryD1Ev
	.set	_ZN4asio5error6detail13misc_categoryD1Ev,_ZN4asio5error6detail13misc_categoryD2Ev
	.section	.text._ZN4asio5error6detail13misc_categoryD0Ev,"axG",@progbits,_ZN4asio5error6detail13misc_categoryD5Ev,comdat
	.align 2
	.p2align 4,,15
	.weak	_ZN4asio5error6detail13misc_categoryD0Ev
	.type	_ZN4asio5error6detail13misc_categoryD0Ev, @function
_ZN4asio5error6detail13misc_categoryD0Ev:
.LFB12025:
	.cfi_startproc
	movq	_ZTVN4asio5error6detail13misc_categoryE@GOTPCREL(%rip), %rax
	pushq	%rbx
	.cfi_def_cfa_offset 16
	.cfi_offset 3, -16
	movq	%rdi, %rbx
	addq	$16, %rax
	movq	%rax, (%rdi)
	call	_ZNSt3_V214error_categoryD2Ev@PLT
	movq	%rbx, %rdi
	movl	$8, %esi
	popq	%rbx
	.cfi_def_cfa_offset 8
	jmp	_ZdlPvm@PLT
	.cfi_endproc
.LFE12025:
	.size	_ZN4asio5error6detail13misc_categoryD0Ev, .-_ZN4asio5error6detail13misc_categoryD0Ev
	.section	.rodata.str1.8,"aMS",@progbits,1
	.align 8
.LC4:
	.string	"basic_string::_M_construct null not valid"
	.text
	.align 2
	.p2align 4,,15
	.type	_ZNSt7__cxx1112basic_stringIcSt11char_traitsIcESaIcEE12_M_constructIPKcEEvT_S8_St20forward_iterator_tag.isra.171, @function
_ZNSt7__cxx1112basic_stringIcSt11char_traitsIcESaIcEE12_M_constructIPKcEEvT_S8_St20forward_iterator_tag.isra.171:
.LFB12522:
	.cfi_startproc
	pushq	%r12
	.cfi_def_cfa_offset 16
	.cfi_offset 12, -16
	pushq	%rbp
	.cfi_def_cfa_offset 24
	.cfi_offset 6, -24
	movq	%rsi, %r12
	pushq	%rbx
	.cfi_def_cfa_offset 32
	.cfi_offset 3, -32
	movq	%rdi, %rbp
	subq	$16, %rsp
	.cfi_def_cfa_offset 48
	movq	%fs:40, %rax
	movq	%rax, 8(%rsp)
	xorl	%eax, %eax
	testq	%rsi, %rsi
	jne	.L126
	testq	%rdx, %rdx
	jne	.L142
.L126:
	subq	%r12, %rdx
	cmpq	$15, %rdx
	movq	%rdx, %rbx
	movq	%rdx, (%rsp)
	ja	.L143
	cmpq	$1, %rdx
	movq	0(%rbp), %rax
	jne	.L129
	movzbl	(%r12), %edx
	movb	%dl, (%rax)
	movq	(%rsp), %rbx
	movq	0(%rbp), %rax
.L130:
	movq	%rbx, 8(%rbp)
	movb	$0, (%rax,%rbx)
	movq	8(%rsp), %rax
	xorq	%fs:40, %rax
	jne	.L144
	addq	$16, %rsp
	.cfi_remember_state
	.cfi_def_cfa_offset 32
	popq	%rbx
	.cfi_def_cfa_offset 24
	popq	%rbp
	.cfi_def_cfa_offset 16
	popq	%r12
	.cfi_def_cfa_offset 8
	ret
	.p2align 4,,10
	.p2align 3
.L143:
	.cfi_restore_state
	xorl	%edx, %edx
	movq	%rsp, %rsi
	movq	%rbp, %rdi
	call	_ZNSt7__cxx1112basic_stringIcSt11char_traitsIcESaIcEE9_M_createERmm@PLT
	movq	(%rsp), %rdx
	movq	%rax, 0(%rbp)
	movq	%rdx, 16(%rbp)
.L128:
	movq	%rbx, %rdx
	movq	%r12, %rsi
	movq	%rax, %rdi
	call	memcpy@PLT
	movq	(%rsp), %rbx
	movq	0(%rbp), %rax
	jmp	.L130
	.p2align 4,,10
	.p2align 3
.L129:
	testq	%rdx, %rdx
	je	.L130
	jmp	.L128
.L142:
	leaq	.LC4(%rip), %rdi
	call	_ZSt19__throw_logic_errorPKc@PLT
.L144:
	call	__stack_chk_fail@PLT
	.cfi_endproc
.LFE12522:
	.size	_ZNSt7__cxx1112basic_stringIcSt11char_traitsIcESaIcEE12_M_constructIPKcEEvT_S8_St20forward_iterator_tag.isra.171, .-_ZNSt7__cxx1112basic_stringIcSt11char_traitsIcESaIcEE12_M_constructIPKcEEvT_S8_St20forward_iterator_tag.isra.171
	.set	_ZNSt7__cxx1112basic_stringIcSt11char_traitsIcESaIcEE12_M_constructIPcEEvT_S7_St20forward_iterator_tag.isra.178,_ZNSt7__cxx1112basic_stringIcSt11char_traitsIcESaIcEE12_M_constructIPKcEEvT_S8_St20forward_iterator_tag.isra.171
	.section	.rodata.str1.1,"aMS",@progbits,1
.LC5:
	.string	"std::future_error: "
	.text
	.align 2
	.p2align 4,,15
	.type	_ZNSt13__future_base13_State_baseV216_M_break_promiseESt10unique_ptrINS_12_Result_baseENS2_8_DeleterEE.part.175, @function
_ZNSt13__future_base13_State_baseV216_M_break_promiseESt10unique_ptrINS_12_Result_baseENS2_8_DeleterEE.part.175:
.LFB12526:
	.cfi_startproc
	.cfi_personality 0x9b,DW.ref.__gxx_personality_v0
	.cfi_lsda 0x1b,.LLSDA12526
	pushq	%r15
	.cfi_def_cfa_offset 16
	.cfi_offset 15, -16
	pushq	%r14
	.cfi_def_cfa_offset 24
	.cfi_offset 14, -24
	pushq	%r13
	.cfi_def_cfa_offset 32
	.cfi_offset 13, -32
	pushq	%r12
	.cfi_def_cfa_offset 40
	.cfi_offset 12, -40
	movq	%rsi, %r13
	pushq	%rbp
	.cfi_def_cfa_offset 48
	.cfi_offset 6, -48
	pushq	%rbx
	.cfi_def_cfa_offset 56
	.cfi_offset 3, -56
	movq	%rdi, %rbx
	subq	$136, %rsp
	.cfi_def_cfa_offset 192
	movq	%fs:40, %rax
	movq	%rax, 120(%rsp)
	xorl	%eax, %eax
	call	_ZSt15future_categoryv@PLT
	movq	%rax, %r14
	movq	(%rax), %rax
	leaq	48(%rsp), %rbp
	movl	$4, %edx
	movq	%r14, %rsi
	movq	%rbp, %rdi
.LEHB2:
	call	*32(%rax)
.LEHE2:
	leaq	.LC5(%rip), %rcx
	movl	$19, %r8d
	xorl	%edx, %edx
	xorl	%esi, %esi
	movq	%rbp, %rdi
.LEHB3:
	call	_ZNSt7__cxx1112basic_stringIcSt11char_traitsIcESaIcEE10_M_replaceEmmPKcm@PLT
.LEHE3:
	leaq	80(%rsp), %r12
	leaq	16(%r12), %rdx
	movq	%rdx, 80(%rsp)
	movq	(%rax), %rcx
	leaq	16(%rax), %rdx
	cmpq	%rdx, %rcx
	je	.L161
	movq	%rcx, 80(%rsp)
	movq	16(%rax), %rcx
	movq	%rcx, 96(%rsp)
.L147:
	movq	8(%rax), %rcx
	leaq	16(%rsp), %r15
	movb	$0, 16(%rax)
	movq	%r12, %rsi
	movq	%r15, %rdi
	movq	%rcx, 88(%rsp)
	movq	%rdx, (%rax)
	movq	$0, 8(%rax)
.LEHB4:
	call	_ZNSt11logic_errorC2ERKNSt7__cxx1112basic_stringIcSt11char_traitsIcESaIcEEE@PLT
.LEHE4:
	movq	80(%rsp), %rdi
	addq	$16, %r12
	cmpq	%r12, %rdi
	je	.L148
	call	_ZdlPv@PLT
.L148:
	movq	48(%rsp), %rdi
	addq	$16, %rbp
	cmpq	%rbp, %rdi
	je	.L149
	call	_ZdlPv@PLT
.L149:
	movq	_ZTVSt12future_error@GOTPCREL(%rip), %rax
	movl	$32, %edi
	movl	$4, 32(%rsp)
	movq	%r14, 40(%rsp)
	leaq	16(%rax), %r12
	movq	%r12, 16(%rsp)
	call	__cxa_allocate_exception@PLT
	movq	_ZNSt15__exception_ptr12__dest_thunkISt12future_errorEEvPv@GOTPCREL(%rip), %rdx
	movq	_ZTISt12future_error@GOTPCREL(%rip), %rsi
	movq	%rax, %rbp
	movq	%rax, %rdi
	call	__cxa_init_primary_exception@PLT
	testq	%rbp, %rbp
	je	.L151
	movq	%r15, %rsi
	movq	%rbp, %rdi
	call	_ZNSt11logic_errorC2ERKS_@PLT
	movq	%r12, 0(%rbp)
	movdqa	32(%rsp), %xmm0
	movups	%xmm0, 16(%rbp)
.L151:
	leaq	8(%rsp), %r12
	movq	%rbp, %rsi
	movq	%rsp, %rbp
	movq	%r12, %rdi
	call	_ZNSt15__exception_ptr13exception_ptrC1EPv@PLT
	movq	0(%r13), %rax
	movq	%rbp, %rdi
	leaq	8(%rax), %rsi
	movq	8(%rsp), %rax
	movq	$0, 8(%rsp)
	movq	%rax, (%rsp)
	call	_ZNSt15__exception_ptr13exception_ptr4swapERS0_@PLT
	movq	%rbp, %rdi
	call	_ZNSt15__exception_ptr13exception_ptrD1Ev@PLT
	movq	%r12, %rdi
	call	_ZNSt15__exception_ptr13exception_ptrD1Ev@PLT
	movq	%r15, %rdi
	call	_ZNSt12future_errorD1Ev@PLT
	movq	8(%rbx), %rax
	movq	0(%r13), %rdx
	leaq	16(%rbx), %rdi
	movq	%rax, 0(%r13)
	movl	$1, %eax
	movq	%rdx, 8(%rbx)
	xchgl	(%rdi), %eax
	testl	%eax, %eax
	js	.L162
.L145:
	movq	120(%rsp), %rax
	xorq	%fs:40, %rax
	jne	.L163
	addq	$136, %rsp
	.cfi_remember_state
	.cfi_def_cfa_offset 56
	popq	%rbx
	.cfi_def_cfa_offset 48
	popq	%rbp
	.cfi_def_cfa_offset 40
	popq	%r12
	.cfi_def_cfa_offset 32
	popq	%r13
	.cfi_def_cfa_offset 24
	popq	%r14
	.cfi_def_cfa_offset 16
	popq	%r15
	.cfi_def_cfa_offset 8
	ret
	.p2align 4,,10
	.p2align 3
.L161:
	.cfi_restore_state
	movdqu	16(%rax), %xmm0
	movaps	%xmm0, 96(%rsp)
	jmp	.L147
	.p2align 4,,10
	.p2align 3
.L162:
.LEHB5:
	call	_ZNSt28__atomic_futex_unsigned_base19_M_futex_notify_allEPj@PLT
	jmp	.L145
.L163:
	call	__stack_chk_fail@PLT
.L159:
	movq	80(%rsp), %rdi
	addq	$16, %r12
	movq	%rax, %rbx
	cmpq	%r12, %rdi
	je	.L154
	call	_ZdlPv@PLT
.L154:
	movq	48(%rsp), %rdi
	addq	$16, %rbp
	cmpq	%rbp, %rdi
	je	.L155
	call	_ZdlPv@PLT
.L155:
	movq	%rbx, %rdi
	call	_Unwind_Resume@PLT
.LEHE5:
.L158:
	movq	%rax, %rbx
	jmp	.L154
	.cfi_endproc
.LFE12526:
	.section	.gcc_except_table,"a",@progbits
.LLSDA12526:
	.byte	0xff
	.byte	0xff
	.byte	0x1
	.uleb128 .LLSDACSE12526-.LLSDACSB12526
.LLSDACSB12526:
	.uleb128 .LEHB2-.LFB12526
	.uleb128 .LEHE2-.LEHB2
	.uleb128 0
	.uleb128 0
	.uleb128 .LEHB3-.LFB12526
	.uleb128 .LEHE3-.LEHB3
	.uleb128 .L158-.LFB12526
	.uleb128 0
	.uleb128 .LEHB4-.LFB12526
	.uleb128 .LEHE4-.LEHB4
	.uleb128 .L159-.LFB12526
	.uleb128 0
	.uleb128 .LEHB5-.LFB12526
	.uleb128 .LEHE5-.LEHB5
	.uleb128 0
	.uleb128 0
.LLSDACSE12526:
	.text
	.size	_ZNSt13__future_base13_State_baseV216_M_break_promiseESt10unique_ptrINS_12_Result_baseENS2_8_DeleterEE.part.175, .-_ZNSt13__future_base13_State_baseV216_M_break_promiseESt10unique_ptrINS_12_Result_baseENS2_8_DeleterEE.part.175
	.section	.text._ZNSt13__future_base7_ResultIN8opendnp315StackStatisticsEE10_M_destroyEv,"axG",@progbits,_ZNSt13__future_base7_ResultIN8opendnp315StackStatisticsEE10_M_destroyEv,comdat
	.align 2
	.p2align 4,,15
	.weak	_ZNSt13__future_base7_ResultIN8opendnp315StackStatisticsEE10_M_destroyEv
	.type	_ZNSt13__future_base7_ResultIN8opendnp315StackStatisticsEE10_M_destroyEv, @function
_ZNSt13__future_base7_ResultIN8opendnp315StackStatisticsEE10_M_destroyEv:
.LFB12203:
	.cfi_startproc
	movq	(%rdi), %rax
	movq	16(%rax), %rax
	cmpq	_ZNSt13__future_base7_ResultIN8opendnp315StackStatisticsEED0Ev@GOTPCREL(%rip), %rax
	jne	.L165
	movq	_ZTVNSt13__future_base7_ResultIN8opendnp315StackStatisticsEEE@GOTPCREL(%rip), %rax
	pushq	%rbx
	.cfi_def_cfa_offset 16
	.cfi_offset 3, -16
	movq	%rdi, %rbx
	addq	$16, %rax
	movq	%rax, (%rdi)
	call	_ZNSt13__future_base12_Result_baseD2Ev@PLT
	movq	%rbx, %rdi
	movl	$64, %esi
	popq	%rbx
	.cfi_restore 3
	.cfi_def_cfa_offset 8
	jmp	_ZdlPvm@PLT
	.p2align 4,,10
	.p2align 3
.L165:
	jmp	*%rax
	.cfi_endproc
.LFE12203:
	.size	_ZNSt13__future_base7_ResultIN8opendnp315StackStatisticsEE10_M_destroyEv, .-_ZNSt13__future_base7_ResultIN8opendnp315StackStatisticsEE10_M_destroyEv
	.section	.text._ZNSt13__future_base7_ResultIbE10_M_destroyEv,"axG",@progbits,_ZNSt13__future_base7_ResultIbE10_M_destroyEv,comdat
	.align 2
	.p2align 4,,15
	.weak	_ZNSt13__future_base7_ResultIbE10_M_destroyEv
	.type	_ZNSt13__future_base7_ResultIbE10_M_destroyEv, @function
_ZNSt13__future_base7_ResultIbE10_M_destroyEv:
.LFB12208:
	.cfi_startproc
	movq	(%rdi), %rax
	movq	16(%rax), %rax
	cmpq	_ZNSt13__future_base7_ResultIbED0Ev@GOTPCREL(%rip), %rax
	jne	.L170
	movq	_ZTVNSt13__future_base7_ResultIbEE@GOTPCREL(%rip), %rax
	pushq	%rbx
	.cfi_def_cfa_offset 16
	.cfi_offset 3, -16
	movq	%rdi, %rbx
	addq	$16, %rax
	movq	%rax, (%rdi)
	call	_ZNSt13__future_base12_Result_baseD2Ev@PLT
	movq	%rbx, %rdi
	movl	$24, %esi
	popq	%rbx
	.cfi_restore 3
	.cfi_def_cfa_offset 8
	jmp	_ZdlPvm@PLT
	.p2align 4,,10
	.p2align 3
.L170:
	jmp	*%rax
	.cfi_endproc
.LFE12208:
	.size	_ZNSt13__future_base7_ResultIbE10_M_destroyEv, .-_ZNSt13__future_base7_ResultIbE10_M_destroyEv
	.section	.text._ZZSt9call_onceIMNSt13__future_base13_State_baseV2EFvPSt8functionIFSt10unique_ptrINS0_12_Result_baseENS4_8_DeleterEEvEEPbEJPS1_S9_SA_EEvRSt9once_flagOT_DpOT0_ENUlvE0_4_FUNEv,"axG",@progbits,_ZZSt9call_onceIMNSt13__future_base13_State_baseV2EFvPSt8functionIFSt10unique_ptrINS0_12_Result_baseENS4_8_DeleterEEvEEPbEJPS1_S9_SA_EEvRSt9once_flagOT_DpOT0_ENKUlvE0_clEv,comdat
	.p2align 4,,15
	.weak	_ZZSt9call_onceIMNSt13__future_base13_State_baseV2EFvPSt8functionIFSt10unique_ptrINS0_12_Result_baseENS4_8_DeleterEEvEEPbEJPS1_S9_SA_EEvRSt9once_flagOT_DpOT0_ENUlvE0_4_FUNEv
	.type	_ZZSt9call_onceIMNSt13__future_base13_State_baseV2EFvPSt8functionIFSt10unique_ptrINS0_12_Result_baseENS4_8_DeleterEEvEEPbEJPS1_S9_SA_EEvRSt9once_flagOT_DpOT0_ENUlvE0_4_FUNEv, @function
_ZZSt9call_onceIMNSt13__future_base13_State_baseV2EFvPSt8functionIFSt10unique_ptrINS0_12_Result_baseENS4_8_DeleterEEvEEPbEJPS1_S9_SA_EEvRSt9once_flagOT_DpOT0_ENUlvE0_4_FUNEv:
.LFB8958:
	.cfi_startproc
	subq	$8, %rsp
	.cfi_def_cfa_offset 16
	.byte	0x66
	leaq	_ZSt15__once_callable@tlsgd(%rip), %rdi
	.value	0x6666
	rex64
	call	__tls_get_addr@PLT
	movq	(%rax), %rax
	movq	16(%rax), %rdx
	movq	(%rax), %rcx
	movq	(%rdx), %rsi
	movq	24(%rax), %rdx
	movq	8(%rax), %rax
	movq	8(%rcx), %rdi
	movq	(%rdx), %rdx
	addq	(%rax), %rdi
	movq	(%rcx), %rax
	testb	$1, %al
	je	.L175
	movq	(%rdi), %rcx
	movq	-1(%rcx,%rax), %rax
.L175:
	addq	$8, %rsp
	.cfi_def_cfa_offset 8
	jmp	*%rax
	.cfi_endproc
.LFE8958:
	.size	_ZZSt9call_onceIMNSt13__future_base13_State_baseV2EFvPSt8functionIFSt10unique_ptrINS0_12_Result_baseENS4_8_DeleterEEvEEPbEJPS1_S9_SA_EEvRSt9once_flagOT_DpOT0_ENUlvE0_4_FUNEv, .-_ZZSt9call_onceIMNSt13__future_base13_State_baseV2EFvPSt8functionIFSt10unique_ptrINS0_12_Result_baseENS4_8_DeleterEEvEEPbEJPS1_S9_SA_EEvRSt9once_flagOT_DpOT0_ENUlvE0_4_FUNEv
	.section	.rodata._ZNK4asio6detail15system_category7messageB5cxx11Ei.str1.1,"aMS",@progbits,1
.LC6:
	.string	"Operation aborted."
	.section	.text._ZNK4asio6detail15system_category7messageB5cxx11Ei,"axG",@progbits,_ZNK4asio6detail15system_category7messageB5cxx11Ei,comdat
	.align 2
	.p2align 4,,15
	.weak	_ZNK4asio6detail15system_category7messageB5cxx11Ei
	.type	_ZNK4asio6detail15system_category7messageB5cxx11Ei, @function
_ZNK4asio6detail15system_category7messageB5cxx11Ei:
.LFB2756:
	.cfi_startproc
	pushq	%r12
	.cfi_def_cfa_offset 16
	.cfi_offset 12, -16
	pushq	%rbp
	.cfi_def_cfa_offset 24
	.cfi_offset 6, -24
	leaq	16(%rdi), %r12
	pushq	%rbx
	.cfi_def_cfa_offset 32
	.cfi_offset 3, -32
	movq	%rdi, %rbx
	subq	$272, %rsp
	.cfi_def_cfa_offset 304
	movq	%fs:40, %rax
	movq	%rax, 264(%rsp)
	xorl	%eax, %eax
	cmpl	$125, %edx
	je	.L188
	pxor	%xmm0, %xmm0
	leaq	16(%rsp), %rdi
	movl	%edx, %r8d
	xorl	%eax, %eax
	movl	$30, %ecx
	movl	$256, %edx
	rep stosq
	movq	%rsp, %rsi
	movl	%r8d, %edi
	movaps	%xmm0, (%rsp)
	call	strerror_r@PLT
	testq	%rax, %rax
	movq	%rax, %rbp
	movq	$-1, %rdx
	movq	%r12, (%rbx)
	je	.L183
	movq	%rax, %rdi
	call	strlen@PLT
	leaq	0(%rbp,%rax), %rdx
.L183:
	movq	%rbp, %rsi
	movq	%rbx, %rdi
	call	_ZNSt7__cxx1112basic_stringIcSt11char_traitsIcESaIcEE12_M_constructIPKcEEvT_S8_St20forward_iterator_tag.isra.171
.L180:
	movq	264(%rsp), %rcx
	xorq	%fs:40, %rcx
	movq	%rbx, %rax
	jne	.L189
	addq	$272, %rsp
	.cfi_remember_state
	.cfi_def_cfa_offset 32
	popq	%rbx
	.cfi_def_cfa_offset 24
	popq	%rbp
	.cfi_def_cfa_offset 16
	popq	%r12
	.cfi_def_cfa_offset 8
	ret
	.p2align 4,,10
	.p2align 3
.L188:
	.cfi_restore_state
	leaq	18+.LC6(%rip), %rdx
	movq	%r12, (%rdi)
	leaq	-18(%rdx), %rsi
	call	_ZNSt7__cxx1112basic_stringIcSt11char_traitsIcESaIcEE12_M_constructIPKcEEvT_S8_St20forward_iterator_tag.isra.171
	jmp	.L180
.L189:
	call	__stack_chk_fail@PLT
	.cfi_endproc
.LFE2756:
	.size	_ZNK4asio6detail15system_category7messageB5cxx11Ei, .-_ZNK4asio6detail15system_category7messageB5cxx11Ei
	.section	.rodata._ZNK4asio5error6detail17addrinfo_category7messageB5cxx11Ei.str1.1,"aMS",@progbits,1
.LC7:
	.string	"Service not found"
.LC8:
	.string	"Socket type not supported"
.LC9:
	.string	"asio.addrinfo error"
	.section	.text._ZNK4asio5error6detail17addrinfo_category7messageB5cxx11Ei,"axG",@progbits,_ZNK4asio5error6detail17addrinfo_category7messageB5cxx11Ei,comdat
	.align 2
	.p2align 4,,15
	.weak	_ZNK4asio5error6detail17addrinfo_category7messageB5cxx11Ei
	.type	_ZNK4asio5error6detail17addrinfo_category7messageB5cxx11Ei, @function
_ZNK4asio5error6detail17addrinfo_category7messageB5cxx11Ei:
.LFB2802:
	.cfi_startproc
	leaq	16(%rdi), %rax
	cmpl	$-8, %edx
	pushq	%rbx
	.cfi_def_cfa_offset 16
	.cfi_offset 3, -16
	movq	%rdi, %rbx
	movq	%rax, (%rdi)
	je	.L195
	cmpl	$-7, %edx
	je	.L196
	leaq	19+.LC9(%rip), %rdx
	leaq	-19(%rdx), %rsi
	call	_ZNSt7__cxx1112basic_stringIcSt11char_traitsIcESaIcEE12_M_constructIPKcEEvT_S8_St20forward_iterator_tag.isra.171
	movq	%rbx, %rax
	popq	%rbx
	.cfi_remember_state
	.cfi_def_cfa_offset 8
	ret
	.p2align 4,,10
	.p2align 3
.L196:
	.cfi_restore_state
	leaq	25+.LC8(%rip), %rdx
	leaq	-25(%rdx), %rsi
	call	_ZNSt7__cxx1112basic_stringIcSt11char_traitsIcESaIcEE12_M_constructIPKcEEvT_S8_St20forward_iterator_tag.isra.171
	movq	%rbx, %rax
	popq	%rbx
	.cfi_remember_state
	.cfi_def_cfa_offset 8
	ret
	.p2align 4,,10
	.p2align 3
.L195:
	.cfi_restore_state
	leaq	17+.LC7(%rip), %rdx
	leaq	-17(%rdx), %rsi
	call	_ZNSt7__cxx1112basic_stringIcSt11char_traitsIcESaIcEE12_M_constructIPKcEEvT_S8_St20forward_iterator_tag.isra.171
	movq	%rbx, %rax
	popq	%rbx
	.cfi_def_cfa_offset 8
	ret
	.cfi_endproc
.LFE2802:
	.size	_ZNK4asio5error6detail17addrinfo_category7messageB5cxx11Ei, .-_ZNK4asio5error6detail17addrinfo_category7messageB5cxx11Ei
	.section	.text._ZN4asio6detail18completion_handlerIZN7asiopal8Executor10ReturnFromIbEET_RKSt8functionIFS5_vEEEUlvE_E11do_completeEPNS0_15task_io_serviceEPNS0_25task_io_service_operationERKSt10error_codem,"axG",@progbits,_ZN4asio6detail18completion_handlerIZN7asiopal8Executor10ReturnFromIbEET_RKSt8functionIFS5_vEEEUlvE_E11do_completeEPNS0_15task_io_serviceEPNS0_25task_io_service_operationERKSt10error_codem,comdat
	.p2align 4,,15
	.weak	_ZN4asio6detail18completion_handlerIZN7asiopal8Executor10ReturnFromIbEET_RKSt8functionIFS5_vEEEUlvE_E11do_completeEPNS0_15task_io_serviceEPNS0_25task_io_service_operationERKSt10error_codem
	.type	_ZN4asio6detail18completion_handlerIZN7asiopal8Executor10ReturnFromIbEET_RKSt8functionIFS5_vEEEUlvE_E11do_completeEPNS0_15task_io_serviceEPNS0_25task_io_service_operationERKSt10error_codem, @function
_ZN4asio6detail18completion_handlerIZN7asiopal8Executor10ReturnFromIbEET_RKSt8functionIFS5_vEEEUlvE_E11do_completeEPNS0_15task_io_serviceEPNS0_25task_io_service_operationERKSt10error_codem:
.LFB11278:
	.cfi_startproc
	.cfi_personality 0x9b,DW.ref.__gxx_personality_v0
	.cfi_lsda 0x1b,.LLSDA11278
	pushq	%r13
	.cfi_def_cfa_offset 16
	.cfi_offset 13, -16
	pushq	%r12
	.cfi_def_cfa_offset 24
	.cfi_offset 12, -24
	movq	%rdi, %r13
	pushq	%rbp
	.cfi_def_cfa_offset 32
	.cfi_offset 6, -32
	pushq	%rbx
	.cfi_def_cfa_offset 40
	.cfi_offset 3, -40
	movq	%rsi, %rbx
	subq	$152, %rsp
	.cfi_def_cfa_offset 192
	movq	24(%rsi), %r12
	movq	32(%rsi), %rbp
	movq	%fs:40, %rax
	movq	%rax, 136(%rsp)
	xorl	%eax, %eax
	.byte	0x66
	leaq	_ZN4asio6detail15keyword_tss_ptrINS0_10call_stackINS0_15task_io_serviceENS0_27task_io_service_thread_infoEE7contextEE6value_E@tlsgd(%rip), %rdi
	.value	0x6666
	rex64
	call	__tls_get_addr@PLT
	movq	(%rax), %rax
	testq	%rax, %rax
	je	.L198
	movq	8(%rax), %rax
	testq	%rax, %rax
	je	.L198
	cmpq	$0, (%rax)
	je	.L230
.L198:
	movq	%rbx, %rdi
	call	_ZdlPv@PLT
.L199:
	testq	%r13, %r13
	je	.L197
	cmpq	$0, 16(%rbp)
	je	.L231
	movq	%rbp, %rdi
.LEHB6:
	call	*24(%rbp)
.LEHE6:
	movq	(%r12), %rbx
	movb	%al, 22(%rsp)
	testq	%rbx, %rbx
	je	.L232
	leaq	22(%rsp), %rax
	movq	_ZNSt14_Function_base13_Base_managerINSt13__future_base13_State_baseV27_SetterIbObEEE10_M_managerERSt9_Any_dataRKS7_St18_Manager_operation@GOTPCREL(%rip), %xmm0
	movhps	_ZNSt17_Function_handlerIFSt10unique_ptrINSt13__future_base12_Result_baseENS2_8_DeleterEEvENS1_13_State_baseV27_SetterIbObEEE9_M_invokeERKSt9_Any_data@GOTPCREL(%rip), %xmm0
	leaq	96(%rsp), %rbp
	movq	%r12, 96(%rsp)
	movq	%rax, 104(%rsp)
	leaq	23(%rsp), %rax
	movb	$0, 23(%rsp)
	movaps	%xmm0, 112(%rsp)
	movq	%rax, 40(%rsp)
	movq	_ZNSt13__future_base13_State_baseV29_M_do_setEPSt8functionIFSt10unique_ptrINS_12_Result_baseENS3_8_DeleterEEvEEPb@GOTPCREL(%rip), %rax
	movq	%rax, 48(%rsp)
	leaq	48(%rsp), %rax
	movq	%rbp, 32(%rsp)
	movq	%rbx, 24(%rsp)
	movq	$0, 56(%rsp)
	movq	%rax, 8(%rsp)
	leaq	24(%rsp), %rax
	movq	8(%rsp), %xmm0
	movq	%rax, 8(%rsp)
	leaq	32(%rsp), %rax
	movhps	8(%rsp), %xmm0
	movq	%rax, 8(%rsp)
	leaq	40(%rsp), %rax
	movaps	%xmm0, 64(%rsp)
	movq	8(%rsp), %xmm0
	movq	%rax, 8(%rsp)
	movhps	8(%rsp), %xmm0
	movaps	%xmm0, 80(%rsp)
	.byte	0x66
	leaq	_ZSt15__once_callable@tlsgd(%rip), %rdi
	.value	0x6666
	rex64
	call	__tls_get_addr@PLT
	leaq	64(%rsp), %rdx
	movq	%rdx, (%rax)
	.byte	0x66
	leaq	_ZSt11__once_call@tlsgd(%rip), %rdi
	.value	0x6666
	rex64
	call	__tls_get_addr@PLT
	cmpq	$0, _ZL28__gthrw___pthread_key_createPjPFvPvE@GOTPCREL(%rip)
	movq	_ZZSt9call_onceIMNSt13__future_base13_State_baseV2EFvPSt8functionIFSt10unique_ptrINS0_12_Result_baseENS4_8_DeleterEEvEEPbEJPS1_S9_SA_EEvRSt9once_flagOT_DpOT0_ENUlvE0_4_FUNEv@GOTPCREL(%rip), %rdx
	leaq	24(%rbx), %rdi
	movq	%rdx, (%rax)
	je	.L214
	movq	__once_proxy@GOTPCREL(%rip), %rsi
.LEHB7:
	call	_ZL20__gthrw_pthread_oncePiPFvvE@PLT
	testl	%eax, %eax
	jne	.L203
	cmpb	$0, 23(%rsp)
	jne	.L233
	movl	$2, %edi
	call	_ZSt20__throw_future_errori@PLT
	.p2align 4,,10
	.p2align 3
.L233:
	leaq	16(%rbx), %rdi
	movl	$1, %eax
	xchgl	(%rdi), %eax
	testl	%eax, %eax
	jns	.L209
	call	_ZNSt28__atomic_futex_unsigned_base19_M_futex_notify_allEPj@PLT
.LEHE7:
.L209:
	movq	112(%rsp), %rax
	testq	%rax, %rax
	je	.L208
	movl	$3, %edx
	movq	%rbp, %rsi
	movq	%rbp, %rdi
	call	*%rax
.L208:
	sfence
.L197:
	movq	136(%rsp), %rax
	xorq	%fs:40, %rax
	jne	.L234
	addq	$152, %rsp
	.cfi_remember_state
	.cfi_def_cfa_offset 40
	popq	%rbx
	.cfi_def_cfa_offset 32
	popq	%rbp
	.cfi_def_cfa_offset 24
	popq	%r12
	.cfi_def_cfa_offset 16
	popq	%r13
	.cfi_def_cfa_offset 8
	ret
	.p2align 4,,10
	.p2align 3
.L230:
	.cfi_restore_state
	movzbl	40(%rbx), %edx
	movb	%dl, (%rbx)
	movq	%rbx, (%rax)
	jmp	.L199
.L216:
	movq	%rax, %rbx
	movq	112(%rsp), %rax
	testq	%rax, %rax
	je	.L211
	movl	$3, %edx
	movq	%rbp, %rsi
	movq	%rbp, %rdi
	call	*%rax
.L211:
	movq	%rbx, %rax
.L212:
	movq	%rax, %rdi
	sfence
.LEHB8:
	call	_Unwind_Resume@PLT
.LEHE8:
.L214:
	orl	$-1, %eax
.L203:
	movl	%eax, %edi
.LEHB9:
	call	_ZSt20__throw_system_errori@PLT
.LEHE9:
.L231:
.LEHB10:
	call	_ZSt25__throw_bad_function_callv@PLT
.L215:
	jmp	.L212
.L232:
	movl	$3, %edi
	call	_ZSt20__throw_future_errori@PLT
.LEHE10:
.L234:
	call	__stack_chk_fail@PLT
	.cfi_endproc
.LFE11278:
	.section	.gcc_except_table
.LLSDA11278:
	.byte	0xff
	.byte	0xff
	.byte	0x1
	.uleb128 .LLSDACSE11278-.LLSDACSB11278
.LLSDACSB11278:
	.uleb128 .LEHB6-.LFB11278
	.uleb128 .LEHE6-.LEHB6
	.uleb128 .L215-.LFB11278
	.uleb128 0
	.uleb128 .LEHB7-.LFB11278
	.uleb128 .LEHE7-.LEHB7
	.uleb128 .L216-.LFB11278
	.uleb128 0
	.uleb128 .LEHB8-.LFB11278
	.uleb128 .LEHE8-.LEHB8
	.uleb128 0
	.uleb128 0
	.uleb128 .LEHB9-.LFB11278
	.uleb128 .LEHE9-.LEHB9
	.uleb128 .L216-.LFB11278
	.uleb128 0
	.uleb128 .LEHB10-.LFB11278
	.uleb128 .LEHE10-.LEHB10
	.uleb128 .L215-.LFB11278
	.uleb128 0
.LLSDACSE11278:
	.section	.text._ZN4asio6detail18completion_handlerIZN7asiopal8Executor10ReturnFromIbEET_RKSt8functionIFS5_vEEEUlvE_E11do_completeEPNS0_15task_io_serviceEPNS0_25task_io_service_operationERKSt10error_codem,"axG",@progbits,_ZN4asio6detail18completion_handlerIZN7asiopal8Executor10ReturnFromIbEET_RKSt8functionIFS5_vEEEUlvE_E11do_completeEPNS0_15task_io_serviceEPNS0_25task_io_service_operationERKSt10error_codem,comdat
	.size	_ZN4asio6detail18completion_handlerIZN7asiopal8Executor10ReturnFromIbEET_RKSt8functionIFS5_vEEEUlvE_E11do_completeEPNS0_15task_io_serviceEPNS0_25task_io_service_operationERKSt10error_codem, .-_ZN4asio6detail18completion_handlerIZN7asiopal8Executor10ReturnFromIbEET_RKSt8functionIFS5_vEEEUlvE_E11do_completeEPNS0_15task_io_serviceEPNS0_25task_io_service_operationERKSt10error_codem
	.section	.text._ZN4asio6detail18completion_handlerIZN7asiopal8Executor10ReturnFromIN8opendnp315StackStatisticsEEET_RKSt8functionIFS7_vEEEUlvE_E11do_completeEPNS0_15task_io_serviceEPNS0_25task_io_service_operationERKSt10error_codem,"axG",@progbits,_ZN4asio6detail18completion_handlerIZN7asiopal8Executor10ReturnFromIN8opendnp315StackStatisticsEEET_RKSt8functionIFS7_vEEEUlvE_E11do_completeEPNS0_15task_io_serviceEPNS0_25task_io_service_operationERKSt10error_codem,comdat
	.p2align 4,,15
	.weak	_ZN4asio6detail18completion_handlerIZN7asiopal8Executor10ReturnFromIN8opendnp315StackStatisticsEEET_RKSt8functionIFS7_vEEEUlvE_E11do_completeEPNS0_15task_io_serviceEPNS0_25task_io_service_operationERKSt10error_codem
	.type	_ZN4asio6detail18completion_handlerIZN7asiopal8Executor10ReturnFromIN8opendnp315StackStatisticsEEET_RKSt8functionIFS7_vEEEUlvE_E11do_completeEPNS0_15task_io_serviceEPNS0_25task_io_service_operationERKSt10error_codem, @function
_ZN4asio6detail18completion_handlerIZN7asiopal8Executor10ReturnFromIN8opendnp315StackStatisticsEEET_RKSt8functionIFS7_vEEEUlvE_E11do_completeEPNS0_15task_io_serviceEPNS0_25task_io_service_operationERKSt10error_codem:
.LFB11313:
	.cfi_startproc
	.cfi_personality 0x9b,DW.ref.__gxx_personality_v0
	.cfi_lsda 0x1b,.LLSDA11313
	pushq	%r13
	.cfi_def_cfa_offset 16
	.cfi_offset 13, -16
	pushq	%r12
	.cfi_def_cfa_offset 24
	.cfi_offset 12, -24
	movq	%rdi, %r13
	pushq	%rbp
	.cfi_def_cfa_offset 32
	.cfi_offset 6, -32
	pushq	%rbx
	.cfi_def_cfa_offset 40
	.cfi_offset 3, -40
	movq	%rsi, %rbx
	subq	$200, %rsp
	.cfi_def_cfa_offset 240
	movq	24(%rsi), %r12
	movq	32(%rsi), %rbp
	movq	%fs:40, %rax
	movq	%rax, 184(%rsp)
	xorl	%eax, %eax
	.byte	0x66
	leaq	_ZN4asio6detail15keyword_tss_ptrINS0_10call_stackINS0_15task_io_serviceENS0_27task_io_service_thread_infoEE7contextEE6value_E@tlsgd(%rip), %rdi
	.value	0x6666
	rex64
	call	__tls_get_addr@PLT
	movq	(%rax), %rax
	testq	%rax, %rax
	je	.L236
	movq	8(%rax), %rax
	testq	%rax, %rax
	je	.L236
	cmpq	$0, (%rax)
	je	.L268
.L236:
	movq	%rbx, %rdi
	call	_ZdlPv@PLT
.L237:
	testq	%r13, %r13
	je	.L235
	cmpq	$0, 16(%rbp)
	je	.L269
	leaq	96(%rsp), %r13
	movq	%rbp, %rsi
	movq	%r13, %rdi
.LEHB11:
	call	*24(%rbp)
.LEHE11:
	movq	(%r12), %rbx
	testq	%rbx, %rbx
	je	.L270
	leaq	23(%rsp), %rax
	movq	_ZNSt14_Function_base13_Base_managerINSt13__future_base13_State_baseV27_SetterIN8opendnp315StackStatisticsEOS5_EEE10_M_managerERSt9_Any_dataRKS9_St18_Manager_operation@GOTPCREL(%rip), %xmm0
	movhps	_ZNSt17_Function_handlerIFSt10unique_ptrINSt13__future_base12_Result_baseENS2_8_DeleterEEvENS1_13_State_baseV27_SetterIN8opendnp315StackStatisticsEOS9_EEE9_M_invokeERKSt9_Any_data@GOTPCREL(%rip), %xmm0
	leaq	144(%rsp), %rbp
	movq	%r12, 144(%rsp)
	movq	%rax, 40(%rsp)
	movq	_ZNSt13__future_base13_State_baseV29_M_do_setEPSt8functionIFSt10unique_ptrINS_12_Result_baseENS3_8_DeleterEEvEEPb@GOTPCREL(%rip), %rax
	movaps	%xmm0, 160(%rsp)
	movq	%r13, 152(%rsp)
	movb	$0, 23(%rsp)
	movq	%rax, 48(%rsp)
	leaq	48(%rsp), %rax
	movq	%rbp, 32(%rsp)
	movq	%rbx, 24(%rsp)
	movq	$0, 56(%rsp)
	movq	%rax, 8(%rsp)
	leaq	24(%rsp), %rax
	movq	8(%rsp), %xmm0
	movq	%rax, 8(%rsp)
	leaq	32(%rsp), %rax
	movhps	8(%rsp), %xmm0
	movq	%rax, 8(%rsp)
	leaq	40(%rsp), %rax
	movaps	%xmm0, 64(%rsp)
	movq	8(%rsp), %xmm0
	movq	%rax, 8(%rsp)
	movhps	8(%rsp), %xmm0
	movaps	%xmm0, 80(%rsp)
	.byte	0x66
	leaq	_ZSt15__once_callable@tlsgd(%rip), %rdi
	.value	0x6666
	rex64
	call	__tls_get_addr@PLT
	leaq	64(%rsp), %rdx
	movq	%rdx, (%rax)
	.byte	0x66
	leaq	_ZSt11__once_call@tlsgd(%rip), %rdi
	.value	0x6666
	rex64
	call	__tls_get_addr@PLT
	cmpq	$0, _ZL28__gthrw___pthread_key_createPjPFvPvE@GOTPCREL(%rip)
	movq	_ZZSt9call_onceIMNSt13__future_base13_State_baseV2EFvPSt8functionIFSt10unique_ptrINS0_12_Result_baseENS4_8_DeleterEEvEEPbEJPS1_S9_SA_EEvRSt9once_flagOT_DpOT0_ENUlvE0_4_FUNEv@GOTPCREL(%rip), %rdx
	leaq	24(%rbx), %rdi
	movq	%rdx, (%rax)
	je	.L252
	movq	__once_proxy@GOTPCREL(%rip), %rsi
.LEHB12:
	call	_ZL20__gthrw_pthread_oncePiPFvvE@PLT
	testl	%eax, %eax
	jne	.L241
	cmpb	$0, 23(%rsp)
	jne	.L271
	movl	$2, %edi
	call	_ZSt20__throw_future_errori@PLT
	.p2align 4,,10
	.p2align 3
.L271:
	leaq	16(%rbx), %rdi
	movl	$1, %eax
	xchgl	(%rdi), %eax
	testl	%eax, %eax
	jns	.L247
	call	_ZNSt28__atomic_futex_unsigned_base19_M_futex_notify_allEPj@PLT
.LEHE12:
.L247:
	movq	160(%rsp), %rax
	testq	%rax, %rax
	je	.L246
	movl	$3, %edx
	movq	%rbp, %rsi
	movq	%rbp, %rdi
	call	*%rax
.L246:
	sfence
.L235:
	movq	184(%rsp), %rax
	xorq	%fs:40, %rax
	jne	.L272
	addq	$200, %rsp
	.cfi_remember_state
	.cfi_def_cfa_offset 40
	popq	%rbx
	.cfi_def_cfa_offset 32
	popq	%rbp
	.cfi_def_cfa_offset 24
	popq	%r12
	.cfi_def_cfa_offset 16
	popq	%r13
	.cfi_def_cfa_offset 8
	ret
	.p2align 4,,10
	.p2align 3
.L268:
	.cfi_restore_state
	movzbl	40(%rbx), %edx
	movb	%dl, (%rbx)
	movq	%rbx, (%rax)
	jmp	.L237
.L254:
	movq	%rax, %rbx
	movq	160(%rsp), %rax
	testq	%rax, %rax
	je	.L249
	movl	$3, %edx
	movq	%rbp, %rsi
	movq	%rbp, %rdi
	call	*%rax
.L249:
	movq	%rbx, %rax
.L250:
	movq	%rax, %rdi
	sfence
.LEHB13:
	call	_Unwind_Resume@PLT
.LEHE13:
.L252:
	orl	$-1, %eax
.L241:
	movl	%eax, %edi
.LEHB14:
	call	_ZSt20__throw_system_errori@PLT
.LEHE14:
.L269:
.LEHB15:
	call	_ZSt25__throw_bad_function_callv@PLT
.L253:
	jmp	.L250
.L270:
	movl	$3, %edi
	call	_ZSt20__throw_future_errori@PLT
.LEHE15:
.L272:
	call	__stack_chk_fail@PLT
	.cfi_endproc
.LFE11313:
	.section	.gcc_except_table
.LLSDA11313:
	.byte	0xff
	.byte	0xff
	.byte	0x1
	.uleb128 .LLSDACSE11313-.LLSDACSB11313
.LLSDACSB11313:
	.uleb128 .LEHB11-.LFB11313
	.uleb128 .LEHE11-.LEHB11
	.uleb128 .L253-.LFB11313
	.uleb128 0
	.uleb128 .LEHB12-.LFB11313
	.uleb128 .LEHE12-.LEHB12
	.uleb128 .L254-.LFB11313
	.uleb128 0
	.uleb128 .LEHB13-.LFB11313
	.uleb128 .LEHE13-.LEHB13
	.uleb128 0
	.uleb128 0
	.uleb128 .LEHB14-.LFB11313
	.uleb128 .LEHE14-.LEHB14
	.uleb128 .L254-.LFB11313
	.uleb128 0
	.uleb128 .LEHB15-.LFB11313
	.uleb128 .LEHE15-.LEHB15
	.uleb128 .L253-.LFB11313
	.uleb128 0
.LLSDACSE11313:
	.section	.text._ZN4asio6detail18completion_handlerIZN7asiopal8Executor10ReturnFromIN8opendnp315StackStatisticsEEET_RKSt8functionIFS7_vEEEUlvE_E11do_completeEPNS0_15task_io_serviceEPNS0_25task_io_service_operationERKSt10error_codem,"axG",@progbits,_ZN4asio6detail18completion_handlerIZN7asiopal8Executor10ReturnFromIN8opendnp315StackStatisticsEEET_RKSt8functionIFS7_vEEEUlvE_E11do_completeEPNS0_15task_io_serviceEPNS0_25task_io_service_operationERKSt10error_codem,comdat
	.size	_ZN4asio6detail18completion_handlerIZN7asiopal8Executor10ReturnFromIN8opendnp315StackStatisticsEEET_RKSt8functionIFS7_vEEEUlvE_E11do_completeEPNS0_15task_io_serviceEPNS0_25task_io_service_operationERKSt10error_codem, .-_ZN4asio6detail18completion_handlerIZN7asiopal8Executor10ReturnFromIN8opendnp315StackStatisticsEEET_RKSt8functionIFS7_vEEEUlvE_E11do_completeEPNS0_15task_io_serviceEPNS0_25task_io_service_operationERKSt10error_codem
	.section	.rodata._ZNK4asio5error6detail13misc_category7messageB5cxx11Ei.str1.1,"aMS",@progbits,1
.LC10:
	.string	"Already open"
.LC11:
	.string	"End of file"
.LC12:
	.string	"Element not found"
	.section	.rodata._ZNK4asio5error6detail13misc_category7messageB5cxx11Ei.str1.8,"aMS",@progbits,1
	.align 8
.LC13:
	.string	"The descriptor does not fit into the select call's fd_set"
	.section	.rodata._ZNK4asio5error6detail13misc_category7messageB5cxx11Ei.str1.1
.LC14:
	.string	"asio.misc error"
	.section	.text._ZNK4asio5error6detail13misc_category7messageB5cxx11Ei,"axG",@progbits,_ZNK4asio5error6detail13misc_category7messageB5cxx11Ei,comdat
	.align 2
	.p2align 4,,15
	.weak	_ZNK4asio5error6detail13misc_category7messageB5cxx11Ei
	.type	_ZNK4asio5error6detail13misc_category7messageB5cxx11Ei, @function
_ZNK4asio5error6detail13misc_category7messageB5cxx11Ei:
.LFB2808:
	.cfi_startproc
	leaq	16(%rdi), %rax
	cmpl	$1, %edx
	pushq	%rbx
	.cfi_def_cfa_offset 16
	.cfi_offset 3, -16
	movq	%rdi, %rbx
	movq	%rax, (%rdi)
	je	.L280
	cmpl	$2, %edx
	je	.L281
	cmpl	$3, %edx
	je	.L282
	cmpl	$4, %edx
	je	.L283
	leaq	15+.LC14(%rip), %rdx
	leaq	-15(%rdx), %rsi
	call	_ZNSt7__cxx1112basic_stringIcSt11char_traitsIcESaIcEE12_M_constructIPKcEEvT_S8_St20forward_iterator_tag.isra.171
	movq	%rbx, %rax
	popq	%rbx
	.cfi_remember_state
	.cfi_def_cfa_offset 8
	ret
	.p2align 4,,10
	.p2align 3
.L283:
	.cfi_restore_state
	leaq	57+.LC13(%rip), %rdx
	leaq	-57(%rdx), %rsi
	call	_ZNSt7__cxx1112basic_stringIcSt11char_traitsIcESaIcEE12_M_constructIPKcEEvT_S8_St20forward_iterator_tag.isra.171
	movq	%rbx, %rax
	popq	%rbx
	.cfi_remember_state
	.cfi_def_cfa_offset 8
	ret
	.p2align 4,,10
	.p2align 3
.L280:
	.cfi_restore_state
	leaq	12+.LC10(%rip), %rdx
	leaq	-12(%rdx), %rsi
	call	_ZNSt7__cxx1112basic_stringIcSt11char_traitsIcESaIcEE12_M_constructIPKcEEvT_S8_St20forward_iterator_tag.isra.171
	movq	%rbx, %rax
	popq	%rbx
	.cfi_remember_state
	.cfi_def_cfa_offset 8
	ret
	.p2align 4,,10
	.p2align 3
.L281:
	.cfi_restore_state
	leaq	11+.LC11(%rip), %rdx
	leaq	-11(%rdx), %rsi
	call	_ZNSt7__cxx1112basic_stringIcSt11char_traitsIcESaIcEE12_M_constructIPKcEEvT_S8_St20forward_iterator_tag.isra.171
	movq	%rbx, %rax
	popq	%rbx
	.cfi_remember_state
	.cfi_def_cfa_offset 8
	ret
	.p2align 4,,10
	.p2align 3
.L282:
	.cfi_restore_state
	leaq	17+.LC12(%rip), %rdx
	leaq	-17(%rdx), %rsi
	call	_ZNSt7__cxx1112basic_stringIcSt11char_traitsIcESaIcEE12_M_constructIPKcEEvT_S8_St20forward_iterator_tag.isra.171
	movq	%rbx, %rax
	popq	%rbx
	.cfi_def_cfa_offset 8
	ret
	.cfi_endproc
.LFE2808:
	.size	_ZNK4asio5error6detail13misc_category7messageB5cxx11Ei, .-_ZNK4asio5error6detail13misc_category7messageB5cxx11Ei
	.section	.rodata._ZNK4asio5error6detail14netdb_category7messageB5cxx11Ei.str1.8,"aMS",@progbits,1
	.align 8
.LC15:
	.string	"Host not found (authoritative)"
	.align 8
.LC16:
	.string	"Host not found (non-authoritative), try again later"
	.align 8
.LC17:
	.string	"The query is valid, but it does not have associated data"
	.align 8
.LC18:
	.string	"A non-recoverable error occurred during database lookup"
	.section	.rodata._ZNK4asio5error6detail14netdb_category7messageB5cxx11Ei.str1.1,"aMS",@progbits,1
.LC19:
	.string	"asio.netdb error"
	.section	.text._ZNK4asio5error6detail14netdb_category7messageB5cxx11Ei,"axG",@progbits,_ZNK4asio5error6detail14netdb_category7messageB5cxx11Ei,comdat
	.align 2
	.p2align 4,,15
	.weak	_ZNK4asio5error6detail14netdb_category7messageB5cxx11Ei
	.type	_ZNK4asio5error6detail14netdb_category7messageB5cxx11Ei, @function
_ZNK4asio5error6detail14netdb_category7messageB5cxx11Ei:
.LFB2796:
	.cfi_startproc
	leaq	16(%rdi), %rax
	cmpl	$1, %edx
	pushq	%rbx
	.cfi_def_cfa_offset 16
	.cfi_offset 3, -16
	movq	%rdi, %rbx
	movq	%rax, (%rdi)
	je	.L291
	cmpl	$2, %edx
	je	.L292
	cmpl	$4, %edx
	je	.L293
	cmpl	$3, %edx
	je	.L294
	leaq	16+.LC19(%rip), %rdx
	leaq	-16(%rdx), %rsi
	call	_ZNSt7__cxx1112basic_stringIcSt11char_traitsIcESaIcEE12_M_constructIPKcEEvT_S8_St20forward_iterator_tag.isra.171
	movq	%rbx, %rax
	popq	%rbx
	.cfi_remember_state
	.cfi_def_cfa_offset 8
	ret
	.p2align 4,,10
	.p2align 3
.L294:
	.cfi_restore_state
	leaq	55+.LC18(%rip), %rdx
	leaq	-55(%rdx), %rsi
	call	_ZNSt7__cxx1112basic_stringIcSt11char_traitsIcESaIcEE12_M_constructIPKcEEvT_S8_St20forward_iterator_tag.isra.171
	movq	%rbx, %rax
	popq	%rbx
	.cfi_remember_state
	.cfi_def_cfa_offset 8
	ret
	.p2align 4,,10
	.p2align 3
.L291:
	.cfi_restore_state
	leaq	30+.LC15(%rip), %rdx
	leaq	-30(%rdx), %rsi
	call	_ZNSt7__cxx1112basic_stringIcSt11char_traitsIcESaIcEE12_M_constructIPKcEEvT_S8_St20forward_iterator_tag.isra.171
	movq	%rbx, %rax
	popq	%rbx
	.cfi_remember_state
	.cfi_def_cfa_offset 8
	ret
	.p2align 4,,10
	.p2align 3
.L292:
	.cfi_restore_state
	leaq	51+.LC16(%rip), %rdx
	leaq	-51(%rdx), %rsi
	call	_ZNSt7__cxx1112basic_stringIcSt11char_traitsIcESaIcEE12_M_constructIPKcEEvT_S8_St20forward_iterator_tag.isra.171
	movq	%rbx, %rax
	popq	%rbx
	.cfi_remember_state
	.cfi_def_cfa_offset 8
	ret
	.p2align 4,,10
	.p2align 3
.L293:
	.cfi_restore_state
	leaq	56+.LC17(%rip), %rdx
	leaq	-56(%rdx), %rsi
	call	_ZNSt7__cxx1112basic_stringIcSt11char_traitsIcESaIcEE12_M_constructIPKcEEvT_S8_St20forward_iterator_tag.isra.171
	movq	%rbx, %rax
	popq	%rbx
	.cfi_def_cfa_offset 8
	ret
	.cfi_endproc
.LFE2796:
	.size	_ZNK4asio5error6detail14netdb_category7messageB5cxx11Ei, .-_ZNK4asio5error6detail14netdb_category7messageB5cxx11Ei
	.section	.text._ZNSt23_Sp_counted_ptr_inplaceIN8asiodnp310MasterScanESaIS1_ELN9__gnu_cxx12_Lock_policyE2EE10_M_disposeEv,"axG",@progbits,_ZNSt23_Sp_counted_ptr_inplaceIN8asiodnp310MasterScanESaIS1_ELN9__gnu_cxx12_Lock_policyE2EE10_M_disposeEv,comdat
	.align 2
	.p2align 4,,15
	.weak	_ZNSt23_Sp_counted_ptr_inplaceIN8asiodnp310MasterScanESaIS1_ELN9__gnu_cxx12_Lock_policyE2EE10_M_disposeEv
	.type	_ZNSt23_Sp_counted_ptr_inplaceIN8asiodnp310MasterScanESaIS1_ELN9__gnu_cxx12_Lock_policyE2EE10_M_disposeEv, @function
_ZNSt23_Sp_counted_ptr_inplaceIN8asiodnp310MasterScanESaIS1_ELN9__gnu_cxx12_Lock_policyE2EE10_M_disposeEv:
.LFB12160:
	.cfi_startproc
	pushq	%rbp
	.cfi_def_cfa_offset 16
	.cfi_offset 6, -16
	pushq	%rbx
	.cfi_def_cfa_offset 24
	.cfi_offset 3, -24
	movq	%rdi, %rbp
	subq	$8, %rsp
	.cfi_def_cfa_offset 32
	movq	_ZTVN8asiodnp310MasterScanE@GOTPCREL(%rip), %rax
	movq	48(%rdi), %rbx
	addq	$16, %rax
	testq	%rbx, %rbx
	movq	%rax, 16(%rdi)
	je	.L297
	cmpq	$0, _ZL28__gthrw___pthread_key_createPjPFvPvE@GOTPCREL(%rip)
	je	.L298
	lock subl	$1, 8(%rbx)
	je	.L311
.L297:
	movq	32(%rbp), %rbx
	testq	%rbx, %rbx
	je	.L295
	cmpq	$0, _ZL28__gthrw___pthread_key_createPjPFvPvE@GOTPCREL(%rip)
	je	.L304
	lock subl	$1, 8(%rbx)
	je	.L312
.L295:
	addq	$8, %rsp
	.cfi_remember_state
	.cfi_def_cfa_offset 24
	popq	%rbx
	.cfi_def_cfa_offset 16
	popq	%rbp
	.cfi_def_cfa_offset 8
	ret
	.p2align 4,,10
	.p2align 3
.L304:
	.cfi_restore_state
	movl	8(%rbx), %eax
	leal	-1(%rax), %edx
	cmpl	$1, %eax
	movl	%edx, 8(%rbx)
	jne	.L295
	movq	(%rbx), %rax
	movq	%rbx, %rdi
	call	*16(%rax)
	movl	12(%rbx), %eax
	leal	-1(%rax), %edx
	movl	%edx, 12(%rbx)
	jmp	.L309
	.p2align 4,,10
	.p2align 3
.L298:
	movl	8(%rbx), %eax
	leal	-1(%rax), %edx
	cmpl	$1, %eax
	movl	%edx, 8(%rbx)
	jne	.L297
	movq	(%rbx), %rax
	movq	%rbx, %rdi
	call	*16(%rax)
	movl	12(%rbx), %eax
	leal	-1(%rax), %edx
	movl	%edx, 12(%rbx)
	jmp	.L308
	.p2align 4,,10
	.p2align 3
.L312:
	movq	(%rbx), %rax
	movq	%rbx, %rdi
	call	*16(%rax)
	movl	$-1, %eax
	lock xaddl	%eax, 12(%rbx)
.L309:
	cmpl	$1, %eax
	jne	.L295
	movq	(%rbx), %rax
	movq	%rbx, %rdi
	movq	24(%rax), %rax
	addq	$8, %rsp
	.cfi_remember_state
	.cfi_def_cfa_offset 24
	popq	%rbx
	.cfi_def_cfa_offset 16
	popq	%rbp
	.cfi_def_cfa_offset 8
	jmp	*%rax
	.p2align 4,,10
	.p2align 3
.L311:
	.cfi_restore_state
	movq	(%rbx), %rax
	movq	%rbx, %rdi
	call	*16(%rax)
	movl	$-1, %eax
	lock xaddl	%eax, 12(%rbx)
.L308:
	cmpl	$1, %eax
	jne	.L297
	movq	(%rbx), %rax
	movq	%rbx, %rdi
	call	*24(%rax)
	jmp	.L297
	.cfi_endproc
.LFE12160:
	.size	_ZNSt23_Sp_counted_ptr_inplaceIN8asiodnp310MasterScanESaIS1_ELN9__gnu_cxx12_Lock_policyE2EE10_M_disposeEv, .-_ZNSt23_Sp_counted_ptr_inplaceIN8asiodnp310MasterScanESaIS1_ELN9__gnu_cxx12_Lock_policyE2EE10_M_disposeEv
	.section	.text.unlikely,"ax",@progbits
	.align 2
	.type	_ZZN8asiodnp311MasterStack6DemandERKSt10shared_ptrIN8opendnp311IMasterTaskEEENUlvE_D2Ev, @function
_ZZN8asiodnp311MasterStack6DemandERKSt10shared_ptrIN8opendnp311IMasterTaskEEENUlvE_D2Ev:
.LFB8181:
	.cfi_startproc
	pushq	%rbp
	.cfi_def_cfa_offset 16
	.cfi_offset 6, -16
	pushq	%rbx
	.cfi_def_cfa_offset 24
	.cfi_offset 3, -24
	movq	%rdi, %rbp
	subq	$8, %rsp
	.cfi_def_cfa_offset 32
	movq	24(%rdi), %rbx
	testq	%rbx, %rbx
	je	.L315
	cmpq	$0, _ZL28__gthrw___pthread_key_createPjPFvPvE@GOTPCREL(%rip)
	je	.L316
	lock decl	8(%rbx)
	jne	.L315
	jmp	.L329
.L316:
	movl	8(%rbx), %eax
	leal	-1(%rax), %edx
	decl	%eax
	movl	%edx, 8(%rbx)
	jne	.L315
	jmp	.L330
.L329:
	movq	(%rbx), %rax
	movq	%rbx, %rdi
	call	*16(%rax)
	orl	$-1, %eax
	lock xaddl	%eax, 12(%rbx)
.L326:
	decl	%eax
	jne	.L315
	movq	(%rbx), %rax
	movq	%rbx, %rdi
	call	*24(%rax)
.L315:
	movq	8(%rbp), %rbx
	testq	%rbx, %rbx
	je	.L313
	cmpq	$0, _ZL28__gthrw___pthread_key_createPjPFvPvE@GOTPCREL(%rip)
	je	.L322
	lock decl	8(%rbx)
	jne	.L313
	movq	(%rbx), %rax
	movq	%rbx, %rdi
	call	*16(%rax)
	orl	$-1, %eax
	lock xaddl	%eax, 12(%rbx)
	jmp	.L327
.L322:
	movl	8(%rbx), %eax
	leal	-1(%rax), %edx
	decl	%eax
	movl	%edx, 8(%rbx)
	jne	.L313
	movq	(%rbx), %rax
	movq	%rbx, %rdi
	call	*16(%rax)
	movl	12(%rbx), %eax
	leal	-1(%rax), %edx
	movl	%edx, 12(%rbx)
.L327:
	decl	%eax
	jne	.L313
	movq	(%rbx), %rax
	movq	%rbx, %rdi
	movq	24(%rax), %rax
	popq	%rdx
	.cfi_remember_state
	.cfi_def_cfa_offset 24
	popq	%rbx
	.cfi_def_cfa_offset 16
	popq	%rbp
	.cfi_def_cfa_offset 8
	jmp	*%rax
.L330:
	.cfi_restore_state
	movq	(%rbx), %rax
	movq	%rbx, %rdi
	call	*16(%rax)
	movl	12(%rbx), %eax
	leal	-1(%rax), %edx
	movl	%edx, 12(%rbx)
	jmp	.L326
.L313:
	popq	%rax
	.cfi_def_cfa_offset 24
	popq	%rbx
	.cfi_def_cfa_offset 16
	popq	%rbp
	.cfi_def_cfa_offset 8
	ret
	.cfi_endproc
.LFE8181:
	.size	_ZZN8asiodnp311MasterStack6DemandERKSt10shared_ptrIN8opendnp311IMasterTaskEEENUlvE_D2Ev, .-_ZZN8asiodnp311MasterStack6DemandERKSt10shared_ptrIN8opendnp311IMasterTaskEEENUlvE_D2Ev
	.set	_ZZN8asiodnp311MasterStack6DemandERKSt10shared_ptrIN8opendnp311IMasterTaskEEENUlvE_D1Ev,_ZZN8asiodnp311MasterStack6DemandERKSt10shared_ptrIN8opendnp311IMasterTaskEEENUlvE_D2Ev
	.section	.text._ZSt20__throw_bad_weak_ptrv,"axG",@progbits,_ZSt20__throw_bad_weak_ptrv,comdat
	.p2align 4,,15
	.weak	_ZSt20__throw_bad_weak_ptrv
	.type	_ZSt20__throw_bad_weak_ptrv, @function
_ZSt20__throw_bad_weak_ptrv:
.LFB1534:
	.cfi_startproc
	movl	$8, %edi
	subq	$8, %rsp
	.cfi_def_cfa_offset 16
	call	__cxa_allocate_exception@PLT
	movq	_ZTVSt12bad_weak_ptr@GOTPCREL(%rip), %rdx
	movq	_ZTISt12bad_weak_ptr@GOTPCREL(%rip), %rsi
	movq	%rax, %rdi
	addq	$16, %rdx
	movq	%rdx, (%rax)
	movq	_ZNSt12bad_weak_ptrD1Ev@GOTPCREL(%rip), %rdx
	call	__cxa_throw@PLT
	.cfi_endproc
.LFE1534:
	.size	_ZSt20__throw_bad_weak_ptrv, .-_ZSt20__throw_bad_weak_ptrv
	.section	.text._ZNSt16_Sp_counted_baseILN9__gnu_cxx12_Lock_policyE2EE15_M_add_ref_lockEv,"axG",@progbits,_ZNSt16_Sp_counted_baseILN9__gnu_cxx12_Lock_policyE2EE15_M_add_ref_lockEv,comdat
	.align 2
	.p2align 4,,15
	.weak	_ZNSt16_Sp_counted_baseILN9__gnu_cxx12_Lock_policyE2EE15_M_add_ref_lockEv
	.type	_ZNSt16_Sp_counted_baseILN9__gnu_cxx12_Lock_policyE2EE15_M_add_ref_lockEv, @function
_ZNSt16_Sp_counted_baseILN9__gnu_cxx12_Lock_policyE2EE15_M_add_ref_lockEv:
.LFB1551:
	.cfi_startproc
	movl	8(%rdi), %eax
	testl	%eax, %eax
	je	.L334
	leaq	8(%rdi), %rdx
	leal	1(%rax), %ecx
	lock cmpxchgl	%ecx, (%rdx)
	jne	.L336
	rep ret
.L336:
	testl	%eax, %eax
	je	.L334
	leal	1(%rax), %ecx
	lock cmpxchgl	%ecx, (%rdx)
	jne	.L336
	ret
.L334:
	subq	$8, %rsp
	.cfi_def_cfa_offset 16
	call	_ZSt20__throw_bad_weak_ptrv@PLT
	.cfi_endproc
.LFE1551:
	.size	_ZNSt16_Sp_counted_baseILN9__gnu_cxx12_Lock_policyE2EE15_M_add_ref_lockEv, .-_ZNSt16_Sp_counted_baseILN9__gnu_cxx12_Lock_policyE2EE15_M_add_ref_lockEv
	.section	.text._ZN4asio6detail16thread_info_base8allocateEPS1_m,"axG",@progbits,_ZN4asio6detail16thread_info_base8allocateEPS1_m,comdat
	.p2align 4,,15
	.weak	_ZN4asio6detail16thread_info_base8allocateEPS1_m
	.type	_ZN4asio6detail16thread_info_base8allocateEPS1_m, @function
_ZN4asio6detail16thread_info_base8allocateEPS1_m:
.LFB2549:
	.cfi_startproc
	testq	%rdi, %rdi
	pushq	%rbx
	.cfi_def_cfa_offset 16
	.cfi_offset 3, -16
	movq	%rsi, %rbx
	je	.L349
	movq	(%rdi), %rax
	testq	%rax, %rax
	je	.L349
	movq	$0, (%rdi)
	movzbl	(%rax), %ecx
	cmpq	%rsi, %rcx
	movq	%rcx, %rdx
	jb	.L350
	movb	%dl, (%rax,%rbx)
	popq	%rbx
	.cfi_remember_state
	.cfi_def_cfa_offset 8
	ret
	.p2align 4,,10
	.p2align 3
.L350:
	.cfi_restore_state
	movq	%rax, %rdi
	call	_ZdlPv@PLT
.L349:
	leaq	1(%rbx), %rdi
	call	_Znwm@PLT
	cmpq	$256, %rbx
	movl	$0, %edx
	cmovb	%rbx, %rdx
	movb	%dl, (%rax,%rbx)
	popq	%rbx
	.cfi_def_cfa_offset 8
	ret
	.cfi_endproc
.LFE2549:
	.size	_ZN4asio6detail16thread_info_base8allocateEPS1_m, .-_ZN4asio6detail16thread_info_base8allocateEPS1_m
	.section	.text._ZN4asio28asio_handler_is_continuationEz,"axG",@progbits,_ZN4asio28asio_handler_is_continuationEz,comdat
	.p2align 4,,15
	.weak	_ZN4asio28asio_handler_is_continuationEz
	.type	_ZN4asio28asio_handler_is_continuationEz, @function
_ZN4asio28asio_handler_is_continuationEz:
.LFB2555:
	.cfi_startproc
	xorl	%eax, %eax
	ret
	.cfi_endproc
.LFE2555:
	.size	_ZN4asio28asio_handler_is_continuationEz, .-_ZN4asio28asio_handler_is_continuationEz
	.section	.text._ZN4asio6detail14strand_service7do_postERPNS1_11strand_implEPNS0_25task_io_service_operationEb,"axG",@progbits,_ZN4asio6detail14strand_service7do_postERPNS1_11strand_implEPNS0_25task_io_service_operationEb,comdat
	.align 2
	.p2align 4,,15
	.weak	_ZN4asio6detail14strand_service7do_postERPNS1_11strand_implEPNS0_25task_io_service_operationEb
	.type	_ZN4asio6detail14strand_service7do_postERPNS1_11strand_implEPNS0_25task_io_service_operationEb, @function
_ZN4asio6detail14strand_service7do_postERPNS1_11strand_implEPNS0_25task_io_service_operationEb:
.LFB6470:
	.cfi_startproc
	pushq	%r13
	.cfi_def_cfa_offset 16
	.cfi_offset 13, -16
	pushq	%r12
	.cfi_def_cfa_offset 24
	.cfi_offset 12, -24
	movq	%rdi, %r13
	pushq	%rbp
	.cfi_def_cfa_offset 32
	.cfi_offset 6, -32
	pushq	%rbx
	.cfi_def_cfa_offset 40
	.cfi_offset 3, -40
	movq	%rsi, %rbp
	movq	%rdx, %rbx
	movl	%ecx, %r12d
	subq	$40, %rsp
	.cfi_def_cfa_offset 80
	movq	%fs:40, %rax
	movq	%rax, 24(%rsp)
	xorl	%eax, %eax
	movq	(%rsi), %rax
	leaq	24(%rax), %rdi
	call	pthread_mutex_lock@PLT
	movq	0(%rbp), %rdi
	cmpb	$0, 64(%rdi)
	je	.L364
	cmpq	$0, 80(%rdi)
	movq	$0, (%rbx)
	je	.L365
	movq	80(%rdi), %rax
	movq	%rbx, (%rax)
	movq	%rbx, 80(%rdi)
.L366:
	addq	$24, %rdi
	call	pthread_mutex_unlock@PLT
.L363:
	movq	24(%rsp), %rax
	xorq	%fs:40, %rax
	jne	.L397
	addq	$40, %rsp
	.cfi_remember_state
	.cfi_def_cfa_offset 40
	popq	%rbx
	.cfi_def_cfa_offset 32
	popq	%rbp
	.cfi_def_cfa_offset 24
	popq	%r12
	.cfi_def_cfa_offset 16
	popq	%r13
	.cfi_def_cfa_offset 8
	ret
	.p2align 4,,10
	.p2align 3
.L365:
	.cfi_restore_state
	movq	%rbx, 80(%rdi)
	movq	%rbx, 72(%rdi)
	jmp	.L366
	.p2align 4,,10
	.p2align 3
.L364:
	movb	$1, 64(%rdi)
	movq	0(%rbp), %rax
	leaq	24(%rax), %rdi
	call	pthread_mutex_unlock@PLT
	movq	0(%rbp), %rbp
	movq	$0, (%rbx)
	cmpq	$0, 96(%rbp)
	je	.L368
	movq	96(%rbp), %rax
	movq	%rbx, (%rax)
	movq	%rbx, 96(%rbp)
.L369:
	movq	40(%r13), %rbx
	cmpb	$0, 40(%rbx)
	jne	.L383
	testb	%r12b, %r12b
	je	.L370
.L383:
	.byte	0x66
	leaq	_ZN4asio6detail15keyword_tss_ptrINS0_10call_stackINS0_15task_io_serviceENS0_27task_io_service_thread_infoEE7contextEE6value_E@tlsgd(%rip), %rdi
	.value	0x6666
	rex64
	call	__tls_get_addr@PLT
	movq	(%rax), %rax
	testq	%rax, %rax
	jne	.L394
	jmp	.L370
	.p2align 4,,10
	.p2align 3
.L373:
	movq	16(%rax), %rax
	testq	%rax, %rax
	je	.L370
.L394:
	cmpq	(%rax), %rbx
	jne	.L373
	movq	8(%rax), %rax
	testq	%rax, %rax
	je	.L370
	addq	$1, 24(%rax)
	cmpq	$0, 16(%rax)
	movq	$0, 0(%rbp)
	je	.L376
	movq	16(%rax), %rdx
	movq	%rbp, (%rdx)
	movq	%rbp, 16(%rax)
	jmp	.L363
	.p2align 4,,10
	.p2align 3
.L370:
	lock addq	$1, 184(%rbx)
	leaq	48(%rbx), %r12
	movq	%r12, %rdi
	call	pthread_mutex_lock@PLT
	cmpq	$0, 200(%rbx)
	movq	$0, 0(%rbp)
	je	.L377
	movq	200(%rbx), %rax
	movq	%rbp, (%rax)
	movq	%rbp, 200(%rbx)
.L378:
	movq	136(%rbx), %rax
	orq	$1, %rax
	cmpq	$1, %rax
	movq	%rax, 136(%rbx)
	jne	.L398
	cmpb	$0, 176(%rbx)
	jne	.L381
	movq	144(%rbx), %rax
	testq	%rax, %rax
	je	.L381
	leaq	88(%rax), %rdx
	movb	$1, 176(%rbx)
	movl	96(%rax), %edi
	leaq	12(%rsp), %rcx
	movl	$3, %esi
	movl	$-2147483639, 12(%rsp)
	movq	%rdx, 16(%rsp)
	movl	88(%rax), %edx
	call	epoll_ctl@PLT
.L381:
	movq	%r12, %rdi
	call	pthread_mutex_unlock@PLT
	jmp	.L363
	.p2align 4,,10
	.p2align 3
.L368:
	movq	%rbx, 96(%rbp)
	movq	%rbx, 88(%rbp)
	jmp	.L369
	.p2align 4,,10
	.p2align 3
.L398:
	movq	%r12, %rdi
	call	pthread_mutex_unlock@PLT
	leaq	88(%rbx), %rdi
	call	pthread_cond_signal@PLT
	jmp	.L363
	.p2align 4,,10
	.p2align 3
.L376:
	movq	%rbp, 16(%rax)
	movq	%rbp, 8(%rax)
	jmp	.L363
	.p2align 4,,10
	.p2align 3
.L377:
	movq	%rbp, 200(%rbx)
	movq	%rbp, 192(%rbx)
	jmp	.L378
.L397:
	call	__stack_chk_fail@PLT
	.cfi_endproc
.LFE6470:
	.size	_ZN4asio6detail14strand_service7do_postERPNS1_11strand_implEPNS0_25task_io_service_operationEb, .-_ZN4asio6detail14strand_service7do_postERPNS1_11strand_implEPNS0_25task_io_service_operationEb
	.section	.text._ZNSt13__future_base13_State_baseV24waitEv,"axG",@progbits,_ZNSt13__future_base13_State_baseV24waitEv,comdat
	.align 2
	.p2align 4,,15
	.weak	_ZNSt13__future_base13_State_baseV24waitEv
	.type	_ZNSt13__future_base13_State_baseV24waitEv, @function
_ZNSt13__future_base13_State_baseV24waitEv:
.LFB6705:
	.cfi_startproc
	pushq	%rbp
	.cfi_def_cfa_offset 16
	.cfi_offset 6, -16
	pushq	%rbx
	.cfi_def_cfa_offset 24
	.cfi_offset 3, -24
	movq	%rdi, %rbp
	subq	$8, %rsp
	.cfi_def_cfa_offset 32
	movq	(%rdi), %rax
	call	*16(%rax)
	movl	16(%rbp), %edx
	andl	$2147483647, %edx
	cmpl	$1, %edx
	je	.L400
	leaq	16(%rbp), %rbx
	.p2align 4,,10
	.p2align 3
.L401:
	lock orl	$-2147483648, (%rbx)
	xorl	%ecx, %ecx
	xorl	%r9d, %r9d
	xorl	%r8d, %r8d
	orl	$-2147483648, %edx
	movq	%rbx, %rsi
	movq	%rbx, %rdi
	call	_ZNSt28__atomic_futex_unsigned_base19_M_futex_wait_untilEPjjbNSt6chrono8durationIlSt5ratioILl1ELl1EEEENS2_IlS3_ILl1ELl1000000000EEEE@PLT
	movl	(%rbx), %edx
	xorl	$1, %eax
	andl	$2147483647, %edx
	cmpl	$1, %edx
	sete	%cl
	orb	%cl, %al
	je	.L401
.L400:
	movq	8(%rbp), %rax
	addq	$8, %rsp
	.cfi_def_cfa_offset 24
	popq	%rbx
	.cfi_def_cfa_offset 16
	popq	%rbp
	.cfi_def_cfa_offset 8
	ret
	.cfi_endproc
.LFE6705:
	.size	_ZNSt13__future_base13_State_baseV24waitEv, .-_ZNSt13__future_base13_State_baseV24waitEv
	.section	.text._ZN7openpal6LoggerD2Ev,"axG",@progbits,_ZN7openpal6LoggerD5Ev,comdat
	.align 2
	.p2align 4,,15
	.weak	_ZN7openpal6LoggerD2Ev
	.type	_ZN7openpal6LoggerD2Ev, @function
_ZN7openpal6LoggerD2Ev:
.LFB6992:
	.cfi_startproc
	pushq	%rbp
	.cfi_def_cfa_offset 16
	.cfi_offset 6, -16
	pushq	%rbx
	.cfi_def_cfa_offset 24
	.cfi_offset 3, -24
	movq	%rdi, %rbp
	subq	$8, %rsp
	.cfi_def_cfa_offset 32
	movq	24(%rdi), %rbx
	testq	%rbx, %rbx
	je	.L410
	cmpq	$0, _ZL28__gthrw___pthread_key_createPjPFvPvE@GOTPCREL(%rip)
	je	.L411
	lock subl	$1, 8(%rbx)
	je	.L424
.L410:
	movq	8(%rbp), %rbx
	testq	%rbx, %rbx
	je	.L408
	cmpq	$0, _ZL28__gthrw___pthread_key_createPjPFvPvE@GOTPCREL(%rip)
	je	.L417
	lock subl	$1, 8(%rbx)
	je	.L425
.L408:
	addq	$8, %rsp
	.cfi_remember_state
	.cfi_def_cfa_offset 24
	popq	%rbx
	.cfi_def_cfa_offset 16
	popq	%rbp
	.cfi_def_cfa_offset 8
	ret
	.p2align 4,,10
	.p2align 3
.L417:
	.cfi_restore_state
	movl	8(%rbx), %eax
	leal	-1(%rax), %edx
	cmpl	$1, %eax
	movl	%edx, 8(%rbx)
	jne	.L408
	movq	(%rbx), %rax
	movq	%rbx, %rdi
	call	*16(%rax)
	movl	12(%rbx), %eax
	leal	-1(%rax), %edx
	movl	%edx, 12(%rbx)
	jmp	.L422
	.p2align 4,,10
	.p2align 3
.L411:
	movl	8(%rbx), %eax
	leal	-1(%rax), %edx
	cmpl	$1, %eax
	movl	%edx, 8(%rbx)
	jne	.L410
	movq	(%rbx), %rax
	movq	%rbx, %rdi
	call	*16(%rax)
	movl	12(%rbx), %eax
	leal	-1(%rax), %edx
	movl	%edx, 12(%rbx)
	jmp	.L421
	.p2align 4,,10
	.p2align 3
.L425:
	movq	(%rbx), %rax
	movq	%rbx, %rdi
	call	*16(%rax)
	movl	$-1, %eax
	lock xaddl	%eax, 12(%rbx)
.L422:
	cmpl	$1, %eax
	jne	.L408
	movq	(%rbx), %rax
	movq	%rbx, %rdi
	movq	24(%rax), %rax
	addq	$8, %rsp
	.cfi_remember_state
	.cfi_def_cfa_offset 24
	popq	%rbx
	.cfi_def_cfa_offset 16
	popq	%rbp
	.cfi_def_cfa_offset 8
	jmp	*%rax
	.p2align 4,,10
	.p2align 3
.L424:
	.cfi_restore_state
	movq	(%rbx), %rax
	movq	%rbx, %rdi
	call	*16(%rax)
	movl	$-1, %eax
	lock xaddl	%eax, 12(%rbx)
.L421:
	cmpl	$1, %eax
	jne	.L410
	movq	(%rbx), %rax
	movq	%rbx, %rdi
	call	*24(%rax)
	jmp	.L410
	.cfi_endproc
.LFE6992:
	.size	_ZN7openpal6LoggerD2Ev, .-_ZN7openpal6LoggerD2Ev
	.weak	_ZN7openpal6LoggerD1Ev
	.set	_ZN7openpal6LoggerD1Ev,_ZN7openpal6LoggerD2Ev
	.section	.text._ZNSt12__shared_ptrIN8asiodnp311MasterStackELN9__gnu_cxx12_Lock_policyE2EEC2ERKS4_,"axG",@progbits,_ZNSt12__shared_ptrIN8asiodnp311MasterStackELN9__gnu_cxx12_Lock_policyE2EEC5ERKS4_,comdat
	.align 2
	.p2align 4,,15
	.weak	_ZNSt12__shared_ptrIN8asiodnp311MasterStackELN9__gnu_cxx12_Lock_policyE2EEC2ERKS4_
	.type	_ZNSt12__shared_ptrIN8asiodnp311MasterStackELN9__gnu_cxx12_Lock_policyE2EEC2ERKS4_, @function
_ZNSt12__shared_ptrIN8asiodnp311MasterStackELN9__gnu_cxx12_Lock_policyE2EEC2ERKS4_:
.LFB8131:
	.cfi_startproc
	movq	(%rsi), %rax
	movq	%rax, (%rdi)
	movq	8(%rsi), %rax
	testq	%rax, %rax
	movq	%rax, 8(%rdi)
	je	.L426
	cmpq	$0, _ZL28__gthrw___pthread_key_createPjPFvPvE@GOTPCREL(%rip)
	jne	.L432
	addl	$1, 8(%rax)
.L426:
	rep ret
	.p2align 4,,10
	.p2align 3
.L432:
	lock addl	$1, 8(%rax)
	ret
	.cfi_endproc
.LFE8131:
	.size	_ZNSt12__shared_ptrIN8asiodnp311MasterStackELN9__gnu_cxx12_Lock_policyE2EEC2ERKS4_, .-_ZNSt12__shared_ptrIN8asiodnp311MasterStackELN9__gnu_cxx12_Lock_policyE2EEC2ERKS4_
	.weak	_ZNSt12__shared_ptrIN8asiodnp311MasterStackELN9__gnu_cxx12_Lock_policyE2EEC1ERKS4_
	.set	_ZNSt12__shared_ptrIN8asiodnp311MasterStackELN9__gnu_cxx12_Lock_policyE2EEC1ERKS4_,_ZNSt12__shared_ptrIN8asiodnp311MasterStackELN9__gnu_cxx12_Lock_policyE2EEC2ERKS4_
	.section	.text._ZZSt9call_onceIMNSt13__future_base13_State_baseV2EFvPSt8functionIFSt10unique_ptrINS0_12_Result_baseENS4_8_DeleterEEvEEPbEJPS1_S9_SA_EEvRSt9once_flagOT_DpOT0_ENKUlvE0_clEv,"axG",@progbits,_ZZSt9call_onceIMNSt13__future_base13_State_baseV2EFvPSt8functionIFSt10unique_ptrINS0_12_Result_baseENS4_8_DeleterEEvEEPbEJPS1_S9_SA_EEvRSt9once_flagOT_DpOT0_ENKUlvE0_clEv,comdat
	.align 2
	.p2align 4,,15
	.weak	_ZZSt9call_onceIMNSt13__future_base13_State_baseV2EFvPSt8functionIFSt10unique_ptrINS0_12_Result_baseENS4_8_DeleterEEvEEPbEJPS1_S9_SA_EEvRSt9once_flagOT_DpOT0_ENKUlvE0_clEv
	.type	_ZZSt9call_onceIMNSt13__future_base13_State_baseV2EFvPSt8functionIFSt10unique_ptrINS0_12_Result_baseENS4_8_DeleterEEvEEPbEJPS1_S9_SA_EEvRSt9once_flagOT_DpOT0_ENKUlvE0_clEv, @function
_ZZSt9call_onceIMNSt13__future_base13_State_baseV2EFvPSt8functionIFSt10unique_ptrINS0_12_Result_baseENS4_8_DeleterEEvEEPbEJPS1_S9_SA_EEvRSt9once_flagOT_DpOT0_ENKUlvE0_clEv:
.LFB8957:
	.cfi_startproc
	subq	$8, %rsp
	.cfi_def_cfa_offset 16
	.byte	0x66
	leaq	_ZSt15__once_callable@tlsgd(%rip), %rdi
	.value	0x6666
	rex64
	call	__tls_get_addr@PLT
	movq	(%rax), %rax
	movq	16(%rax), %rdx
	movq	(%rax), %rcx
	movq	(%rdx), %rsi
	movq	24(%rax), %rdx
	movq	8(%rax), %rax
	movq	8(%rcx), %rdi
	movq	(%rdx), %rdx
	addq	(%rax), %rdi
	movq	(%rcx), %rax
	testb	$1, %al
	je	.L434
	movq	(%rdi), %rcx
	movq	-1(%rcx,%rax), %rax
.L434:
	addq	$8, %rsp
	.cfi_def_cfa_offset 8
	jmp	*%rax
	.cfi_endproc
.LFE8957:
	.size	_ZZSt9call_onceIMNSt13__future_base13_State_baseV2EFvPSt8functionIFSt10unique_ptrINS0_12_Result_baseENS4_8_DeleterEEvEEPbEJPS1_S9_SA_EEvRSt9once_flagOT_DpOT0_ENKUlvE0_clEv, .-_ZZSt9call_onceIMNSt13__future_base13_State_baseV2EFvPSt8functionIFSt10unique_ptrINS0_12_Result_baseENS4_8_DeleterEEvEEPbEJPS1_S9_SA_EEvRSt9once_flagOT_DpOT0_ENKUlvE0_clEv
	.section	.text._ZNSt8functionIFbRN8opendnp312HeaderWriterEEEC2ERKS4_,"axG",@progbits,_ZNSt8functionIFbRN8opendnp312HeaderWriterEEEC5ERKS4_,comdat
	.align 2
	.p2align 4,,15
	.weak	_ZNSt8functionIFbRN8opendnp312HeaderWriterEEEC2ERKS4_
	.type	_ZNSt8functionIFbRN8opendnp312HeaderWriterEEEC2ERKS4_, @function
_ZNSt8functionIFbRN8opendnp312HeaderWriterEEEC2ERKS4_:
.LFB9294:
	.cfi_startproc
	.cfi_personality 0x9b,DW.ref.__gxx_personality_v0
	.cfi_lsda 0x1b,.LLSDA9294
	movq	$0, 16(%rdi)
	movq	16(%rsi), %rax
	testq	%rax, %rax
	je	.L451
	pushq	%rbp
	.cfi_def_cfa_offset 16
	.cfi_offset 6, -16
	pushq	%rbx
	.cfi_def_cfa_offset 24
	.cfi_offset 3, -24
	movq	%rsi, %rbp
	movq	%rdi, %rbx
	movl	$2, %edx
	subq	$8, %rsp
	.cfi_def_cfa_offset 32
.LEHB16:
	call	*%rax
.LEHE16:
	movq	24(%rbp), %rax
	movq	%rax, 24(%rbx)
	movq	16(%rbp), %rax
	movq	%rax, 16(%rbx)
	addq	$8, %rsp
	.cfi_def_cfa_offset 24
	popq	%rbx
	.cfi_def_cfa_offset 16
	popq	%rbp
	.cfi_def_cfa_offset 8
	ret
	.p2align 4,,10
	.p2align 3
.L451:
	.cfi_restore 3
	.cfi_restore 6
	rep ret
.L443:
	.cfi_def_cfa_offset 32
	.cfi_offset 3, -24
	.cfi_offset 6, -16
	movq	%rax, %rbp
	movq	16(%rbx), %rax
	testq	%rax, %rax
	je	.L442
	movl	$3, %edx
	movq	%rbx, %rsi
	movq	%rbx, %rdi
	call	*%rax
.L442:
	movq	%rbp, %rdi
.LEHB17:
	call	_Unwind_Resume@PLT
.LEHE17:
	.cfi_endproc
.LFE9294:
	.section	.gcc_except_table
.LLSDA9294:
	.byte	0xff
	.byte	0xff
	.byte	0x1
	.uleb128 .LLSDACSE9294-.LLSDACSB9294
.LLSDACSB9294:
	.uleb128 .LEHB16-.LFB9294
	.uleb128 .LEHE16-.LEHB16
	.uleb128 .L443-.LFB9294
	.uleb128 0
	.uleb128 .LEHB17-.LFB9294
	.uleb128 .LEHE17-.LEHB17
	.uleb128 0
	.uleb128 0
.LLSDACSE9294:
	.section	.text._ZNSt8functionIFbRN8opendnp312HeaderWriterEEEC2ERKS4_,"axG",@progbits,_ZNSt8functionIFbRN8opendnp312HeaderWriterEEEC5ERKS4_,comdat
	.size	_ZNSt8functionIFbRN8opendnp312HeaderWriterEEEC2ERKS4_, .-_ZNSt8functionIFbRN8opendnp312HeaderWriterEEEC2ERKS4_
	.weak	_ZNSt8functionIFbRN8opendnp312HeaderWriterEEEC1ERKS4_
	.set	_ZNSt8functionIFbRN8opendnp312HeaderWriterEEEC1ERKS4_,_ZNSt8functionIFbRN8opendnp312HeaderWriterEEEC2ERKS4_
	.section	.text._ZNSt8functionIFvRKN8opendnp318ICommandTaskResultEEEC2ERKS5_,"axG",@progbits,_ZNSt8functionIFvRKN8opendnp318ICommandTaskResultEEEC5ERKS5_,comdat
	.align 2
	.p2align 4,,15
	.weak	_ZNSt8functionIFvRKN8opendnp318ICommandTaskResultEEEC2ERKS5_
	.type	_ZNSt8functionIFvRKN8opendnp318ICommandTaskResultEEEC2ERKS5_, @function
_ZNSt8functionIFvRKN8opendnp318ICommandTaskResultEEEC2ERKS5_:
.LFB9372:
	.cfi_startproc
	.cfi_personality 0x9b,DW.ref.__gxx_personality_v0
	.cfi_lsda 0x1b,.LLSDA9372
	movq	$0, 16(%rdi)
	movq	16(%rsi), %rax
	testq	%rax, %rax
	je	.L466
	pushq	%rbp
	.cfi_def_cfa_offset 16
	.cfi_offset 6, -16
	pushq	%rbx
	.cfi_def_cfa_offset 24
	.cfi_offset 3, -24
	movq	%rsi, %rbp
	movq	%rdi, %rbx
	movl	$2, %edx
	subq	$8, %rsp
	.cfi_def_cfa_offset 32
.LEHB18:
	call	*%rax
.LEHE18:
	movq	24(%rbp), %rax
	movq	%rax, 24(%rbx)
	movq	16(%rbp), %rax
	movq	%rax, 16(%rbx)
	addq	$8, %rsp
	.cfi_def_cfa_offset 24
	popq	%rbx
	.cfi_def_cfa_offset 16
	popq	%rbp
	.cfi_def_cfa_offset 8
	ret
	.p2align 4,,10
	.p2align 3
.L466:
	.cfi_restore 3
	.cfi_restore 6
	rep ret
.L458:
	.cfi_def_cfa_offset 32
	.cfi_offset 3, -24
	.cfi_offset 6, -16
	movq	%rax, %rbp
	movq	16(%rbx), %rax
	testq	%rax, %rax
	je	.L457
	movl	$3, %edx
	movq	%rbx, %rsi
	movq	%rbx, %rdi
	call	*%rax
.L457:
	movq	%rbp, %rdi
.LEHB19:
	call	_Unwind_Resume@PLT
.LEHE19:
	.cfi_endproc
.LFE9372:
	.section	.gcc_except_table
.LLSDA9372:
	.byte	0xff
	.byte	0xff
	.byte	0x1
	.uleb128 .LLSDACSE9372-.LLSDACSB9372
.LLSDACSB9372:
	.uleb128 .LEHB18-.LFB9372
	.uleb128 .LEHE18-.LEHB18
	.uleb128 .L458-.LFB9372
	.uleb128 0
	.uleb128 .LEHB19-.LFB9372
	.uleb128 .LEHE19-.LEHB19
	.uleb128 0
	.uleb128 0
.LLSDACSE9372:
	.section	.text._ZNSt8functionIFvRKN8opendnp318ICommandTaskResultEEEC2ERKS5_,"axG",@progbits,_ZNSt8functionIFvRKN8opendnp318ICommandTaskResultEEEC5ERKS5_,comdat
	.size	_ZNSt8functionIFvRKN8opendnp318ICommandTaskResultEEEC2ERKS5_, .-_ZNSt8functionIFvRKN8opendnp318ICommandTaskResultEEEC2ERKS5_
	.weak	_ZNSt8functionIFvRKN8opendnp318ICommandTaskResultEEEC1ERKS5_
	.set	_ZNSt8functionIFvRKN8opendnp318ICommandTaskResultEEEC1ERKS5_,_ZNSt8functionIFvRKN8opendnp318ICommandTaskResultEEEC2ERKS5_
	.section	.text._ZNSt16_Sp_counted_baseILN9__gnu_cxx12_Lock_policyE2EE10_M_releaseEv,"axG",@progbits,_ZNSt16_Sp_counted_baseILN9__gnu_cxx12_Lock_policyE2EE10_M_releaseEv,comdat
	.align 2
	.p2align 4,,15
	.weak	_ZNSt16_Sp_counted_baseILN9__gnu_cxx12_Lock_policyE2EE10_M_releaseEv
	.type	_ZNSt16_Sp_counted_baseILN9__gnu_cxx12_Lock_policyE2EE10_M_releaseEv, @function
_ZNSt16_Sp_counted_baseILN9__gnu_cxx12_Lock_policyE2EE10_M_releaseEv:
.LFB9628:
	.cfi_startproc
	cmpq	$0, _ZL28__gthrw___pthread_key_createPjPFvPvE@GOTPCREL(%rip)
	pushq	%rbx
	.cfi_def_cfa_offset 16
	.cfi_offset 3, -16
	movq	%rdi, %rbx
	je	.L470
	lock subl	$1, 8(%rdi)
	je	.L477
.L469:
	popq	%rbx
	.cfi_remember_state
	.cfi_def_cfa_offset 8
	ret
	.p2align 4,,10
	.p2align 3
.L470:
	.cfi_restore_state
	movl	8(%rdi), %eax
	leal	-1(%rax), %edx
	cmpl	$1, %eax
	movl	%edx, 8(%rdi)
	jne	.L469
	movq	(%rdi), %rax
	call	*16(%rax)
	movl	12(%rbx), %eax
	leal	-1(%rax), %edx
	movl	%edx, 12(%rbx)
	jmp	.L475
	.p2align 4,,10
	.p2align 3
.L477:
	movq	(%rdi), %rax
	call	*16(%rax)
	movl	$-1, %eax
	lock xaddl	%eax, 12(%rbx)
.L475:
	cmpl	$1, %eax
	jne	.L469
	movq	(%rbx), %rax
	movq	%rbx, %rdi
	popq	%rbx
	.cfi_def_cfa_offset 8
	movq	24(%rax), %rax
	jmp	*%rax
	.cfi_endproc
.LFE9628:
	.size	_ZNSt16_Sp_counted_baseILN9__gnu_cxx12_Lock_policyE2EE10_M_releaseEv, .-_ZNSt16_Sp_counted_baseILN9__gnu_cxx12_Lock_policyE2EE10_M_releaseEv
	.text
	.p2align 4,,15
	.type	_ZNSt14_Function_base13_Base_managerIZN8asiodnp311MasterStack6EnableEvEUlvE_E10_M_managerERSt9_Any_dataRKS5_St18_Manager_operation, @function
_ZNSt14_Function_base13_Base_managerIZN8asiodnp311MasterStack6EnableEvEUlvE_E10_M_managerERSt9_Any_dataRKS5_St18_Manager_operation:
.LFB9891:
	.cfi_startproc
	cmpl	$1, %edx
	je	.L480
	jb	.L481
	cmpl	$2, %edx
	pushq	%r12
	.cfi_def_cfa_offset 16
	.cfi_offset 12, -16
	pushq	%rbp
	.cfi_def_cfa_offset 24
	.cfi_offset 6, -24
	pushq	%rbx
	.cfi_def_cfa_offset 32
	.cfi_offset 3, -32
	movq	%rdi, %rbx
	je	.L482
	cmpl	$3, %edx
	jne	.L479
	movq	(%rdi), %rbx
	testq	%rbx, %rbx
	je	.L479
	movq	8(%rbx), %rdi
	testq	%rdi, %rdi
	je	.L484
	call	_ZNSt16_Sp_counted_baseILN9__gnu_cxx12_Lock_policyE2EE10_M_releaseEv@PLT
.L484:
	movq	%rbx, %rdi
	movl	$16, %esi
	call	_ZdlPvm@PLT
	popq	%rbx
	.cfi_remember_state
	.cfi_def_cfa_offset 24
	xorl	%eax, %eax
	popq	%rbp
	.cfi_def_cfa_offset 16
	popq	%r12
	.cfi_def_cfa_offset 8
	ret
	.p2align 4,,10
	.p2align 3
.L482:
	.cfi_restore_state
	movq	(%rsi), %r12
	movl	$16, %edi
	call	_Znwm@PLT
	movq	%rax, %rbp
	movq	%rax, %rdi
	movq	%r12, %rsi
	call	_ZNSt12__shared_ptrIN8asiodnp311MasterStackELN9__gnu_cxx12_Lock_policyE2EEC2ERKS4_@PLT
	movq	%rbp, (%rbx)
.L479:
	popq	%rbx
	.cfi_def_cfa_offset 24
	xorl	%eax, %eax
	popq	%rbp
	.cfi_def_cfa_offset 16
	popq	%r12
	.cfi_def_cfa_offset 8
	ret
	.p2align 4,,10
	.p2align 3
.L481:
	.cfi_restore 3
	.cfi_restore 6
	.cfi_restore 12
	leaq	_ZTIZN8asiodnp311MasterStack6EnableEvEUlvE_(%rip), %rax
	movq	%rax, (%rdi)
	xorl	%eax, %eax
	ret
	.p2align 4,,10
	.p2align 3
.L480:
	movq	(%rsi), %rax
	movq	%rax, (%rdi)
	xorl	%eax, %eax
	ret
	.cfi_endproc
.LFE9891:
	.size	_ZNSt14_Function_base13_Base_managerIZN8asiodnp311MasterStack6EnableEvEUlvE_E10_M_managerERSt9_Any_dataRKS5_St18_Manager_operation, .-_ZNSt14_Function_base13_Base_managerIZN8asiodnp311MasterStack6EnableEvEUlvE_E10_M_managerERSt9_Any_dataRKS5_St18_Manager_operation
	.p2align 4,,15
	.type	_ZNSt14_Function_base13_Base_managerIZN8asiodnp311MasterStack7DisableEvEUlvE_E10_M_managerERSt9_Any_dataRKS5_St18_Manager_operation, @function
_ZNSt14_Function_base13_Base_managerIZN8asiodnp311MasterStack7DisableEvEUlvE_E10_M_managerERSt9_Any_dataRKS5_St18_Manager_operation:
.LFB9912:
	.cfi_startproc
	cmpl	$1, %edx
	je	.L497
	jb	.L498
	cmpl	$2, %edx
	pushq	%r12
	.cfi_def_cfa_offset 16
	.cfi_offset 12, -16
	pushq	%rbp
	.cfi_def_cfa_offset 24
	.cfi_offset 6, -24
	pushq	%rbx
	.cfi_def_cfa_offset 32
	.cfi_offset 3, -32
	movq	%rdi, %rbx
	je	.L499
	cmpl	$3, %edx
	jne	.L496
	movq	(%rdi), %rbx
	testq	%rbx, %rbx
	je	.L496
	movq	8(%rbx), %rdi
	testq	%rdi, %rdi
	je	.L501
	call	_ZNSt16_Sp_counted_baseILN9__gnu_cxx12_Lock_policyE2EE10_M_releaseEv@PLT
.L501:
	movq	%rbx, %rdi
	movl	$16, %esi
	call	_ZdlPvm@PLT
	popq	%rbx
	.cfi_remember_state
	.cfi_def_cfa_offset 24
	xorl	%eax, %eax
	popq	%rbp
	.cfi_def_cfa_offset 16
	popq	%r12
	.cfi_def_cfa_offset 8
	ret
	.p2align 4,,10
	.p2align 3
.L499:
	.cfi_restore_state
	movq	(%rsi), %r12
	movl	$16, %edi
	call	_Znwm@PLT
	movq	%rax, %rbp
	movq	%rax, %rdi
	movq	%r12, %rsi
	call	_ZNSt12__shared_ptrIN8asiodnp311MasterStackELN9__gnu_cxx12_Lock_policyE2EEC2ERKS4_@PLT
	movq	%rbp, (%rbx)
.L496:
	popq	%rbx
	.cfi_def_cfa_offset 24
	xorl	%eax, %eax
	popq	%rbp
	.cfi_def_cfa_offset 16
	popq	%r12
	.cfi_def_cfa_offset 8
	ret
	.p2align 4,,10
	.p2align 3
.L498:
	.cfi_restore 3
	.cfi_restore 6
	.cfi_restore 12
	leaq	_ZTIZN8asiodnp311MasterStack7DisableEvEUlvE_(%rip), %rax
	movq	%rax, (%rdi)
	xorl	%eax, %eax
	ret
	.p2align 4,,10
	.p2align 3
.L497:
	movq	(%rsi), %rax
	movq	%rax, (%rdi)
	xorl	%eax, %eax
	ret
	.cfi_endproc
.LFE9912:
	.size	_ZNSt14_Function_base13_Base_managerIZN8asiodnp311MasterStack7DisableEvEUlvE_E10_M_managerERSt9_Any_dataRKS5_St18_Manager_operation, .-_ZNSt14_Function_base13_Base_managerIZN8asiodnp311MasterStack7DisableEvEUlvE_E10_M_managerERSt9_Any_dataRKS5_St18_Manager_operation
	.p2align 4,,15
	.type	_ZNSt14_Function_base13_Base_managerIZN8asiodnp311MasterStack18GetStackStatisticsEvEUlvE_E10_M_managerERSt9_Any_dataRKS5_St18_Manager_operation, @function
_ZNSt14_Function_base13_Base_managerIZN8asiodnp311MasterStack18GetStackStatisticsEvEUlvE_E10_M_managerERSt9_Any_dataRKS5_St18_Manager_operation:
.LFB9928:
	.cfi_startproc
	cmpl	$1, %edx
	je	.L514
	jb	.L515
	cmpl	$2, %edx
	pushq	%r12
	.cfi_def_cfa_offset 16
	.cfi_offset 12, -16
	pushq	%rbp
	.cfi_def_cfa_offset 24
	.cfi_offset 6, -24
	pushq	%rbx
	.cfi_def_cfa_offset 32
	.cfi_offset 3, -32
	movq	%rdi, %rbx
	je	.L516
	cmpl	$3, %edx
	jne	.L513
	movq	(%rdi), %rbx
	testq	%rbx, %rbx
	je	.L513
	movq	8(%rbx), %rdi
	testq	%rdi, %rdi
	je	.L518
	call	_ZNSt16_Sp_counted_baseILN9__gnu_cxx12_Lock_policyE2EE10_M_releaseEv@PLT
.L518:
	movq	%rbx, %rdi
	movl	$16, %esi
	call	_ZdlPvm@PLT
	popq	%rbx
	.cfi_remember_state
	.cfi_def_cfa_offset 24
	xorl	%eax, %eax
	popq	%rbp
	.cfi_def_cfa_offset 16
	popq	%r12
	.cfi_def_cfa_offset 8
	ret
	.p2align 4,,10
	.p2align 3
.L516:
	.cfi_restore_state
	movq	(%rsi), %r12
	movl	$16, %edi
	call	_Znwm@PLT
	movq	%rax, %rbp
	movq	%rax, %rdi
	movq	%r12, %rsi
	call	_ZNSt12__shared_ptrIN8asiodnp311MasterStackELN9__gnu_cxx12_Lock_policyE2EEC2ERKS4_@PLT
	movq	%rbp, (%rbx)
.L513:
	popq	%rbx
	.cfi_def_cfa_offset 24
	xorl	%eax, %eax
	popq	%rbp
	.cfi_def_cfa_offset 16
	popq	%r12
	.cfi_def_cfa_offset 8
	ret
	.p2align 4,,10
	.p2align 3
.L515:
	.cfi_restore 3
	.cfi_restore 6
	.cfi_restore 12
	leaq	_ZTIZN8asiodnp311MasterStack18GetStackStatisticsEvEUlvE_(%rip), %rax
	movq	%rax, (%rdi)
	xorl	%eax, %eax
	ret
	.p2align 4,,10
	.p2align 3
.L514:
	movq	(%rsi), %rax
	movq	%rax, (%rdi)
	xorl	%eax, %eax
	ret
	.cfi_endproc
.LFE9928:
	.size	_ZNSt14_Function_base13_Base_managerIZN8asiodnp311MasterStack18GetStackStatisticsEvEUlvE_E10_M_managerERSt9_Any_dataRKS5_St18_Manager_operation, .-_ZNSt14_Function_base13_Base_managerIZN8asiodnp311MasterStack18GetStackStatisticsEvEUlvE_E10_M_managerERSt9_Any_dataRKS5_St18_Manager_operation
	.section	.text.unlikely
	.align 2
	.type	_ZZN8asiodnp311MasterStack7AddScanEN7openpal12TimeDurationERKSt6vectorIN8opendnp36HeaderESaIS5_EERKNS4_10TaskConfigEENUlvE_D2Ev, @function
_ZZN8asiodnp311MasterStack7AddScanEN7openpal12TimeDurationERKSt6vectorIN8opendnp36HeaderESaIS5_EERKNS4_10TaskConfigEENUlvE_D2Ev:
.LFB8200:
	.cfi_startproc
	.cfi_personality 0x9b,DW.ref.__gxx_personality_v0
	.cfi_lsda 0x1b,.LLSDA8200
	pushq	%rbx
	.cfi_def_cfa_offset 16
	.cfi_offset 3, -16
	movq	32(%rdi), %rax
	movq	%rdi, %rbx
	testq	%rax, %rax
	je	.L530
	leaq	16(%rdi), %rdi
	movl	$3, %edx
	movq	%rdi, %rsi
	call	*%rax
.L530:
	movq	8(%rbx), %rdi
	testq	%rdi, %rdi
	je	.L529
	popq	%rbx
	.cfi_remember_state
	.cfi_def_cfa_offset 8
	jmp	_ZNSt16_Sp_counted_baseILN9__gnu_cxx12_Lock_policyE2EE10_M_releaseEv@PLT
.L529:
	.cfi_restore_state
	popq	%rbx
	.cfi_def_cfa_offset 8
	ret
	.cfi_endproc
.LFE8200:
	.section	.gcc_except_table
.LLSDA8200:
	.byte	0xff
	.byte	0xff
	.byte	0x1
	.uleb128 .LLSDACSE8200-.LLSDACSB8200
.LLSDACSB8200:
.LLSDACSE8200:
	.section	.text.unlikely
	.size	_ZZN8asiodnp311MasterStack7AddScanEN7openpal12TimeDurationERKSt6vectorIN8opendnp36HeaderESaIS5_EERKNS4_10TaskConfigEENUlvE_D2Ev, .-_ZZN8asiodnp311MasterStack7AddScanEN7openpal12TimeDurationERKSt6vectorIN8opendnp36HeaderESaIS5_EERKNS4_10TaskConfigEENUlvE_D2Ev
	.set	_ZZN8asiodnp311MasterStack7AddScanEN7openpal12TimeDurationERKSt6vectorIN8opendnp36HeaderESaIS5_EERKNS4_10TaskConfigEENUlvE_D1Ev,_ZZN8asiodnp311MasterStack7AddScanEN7openpal12TimeDurationERKSt6vectorIN8opendnp36HeaderESaIS5_EERKNS4_10TaskConfigEENUlvE_D2Ev
	.text
	.p2align 4,,15
	.type	_ZNSt14_Function_base13_Base_managerIZN8asiodnp311MasterStack17AddAllObjectsScanEN8opendnp316GroupVariationIDEN7openpal12TimeDurationERKNS3_10TaskConfigEEUlvE_E10_M_managerERSt9_Any_dataRKSC_St18_Manager_operation, @function
_ZNSt14_Function_base13_Base_managerIZN8asiodnp311MasterStack17AddAllObjectsScanEN8opendnp316GroupVariationIDEN7openpal12TimeDurationERKNS3_10TaskConfigEEUlvE_E10_M_managerERSt9_Any_dataRKSC_St18_Manager_operation:
.LFB10000:
	.cfi_startproc
	cmpl	$1, %edx
	je	.L538
	jb	.L539
	cmpl	$2, %edx
	pushq	%r12
	.cfi_def_cfa_offset 16
	.cfi_offset 12, -16
	pushq	%rbp
	.cfi_def_cfa_offset 24
	.cfi_offset 6, -24
	pushq	%rbx
	.cfi_def_cfa_offset 32
	.cfi_offset 3, -32
	movq	%rdi, %rbx
	je	.L540
	cmpl	$3, %edx
	jne	.L537
	movq	(%rdi), %rbx
	testq	%rbx, %rbx
	je	.L537
	movq	8(%rbx), %rdi
	testq	%rdi, %rdi
	je	.L542
	call	_ZNSt16_Sp_counted_baseILN9__gnu_cxx12_Lock_policyE2EE10_M_releaseEv@PLT
.L542:
	movq	%rbx, %rdi
	movl	$48, %esi
	call	_ZdlPvm@PLT
	popq	%rbx
	.cfi_remember_state
	.cfi_def_cfa_offset 24
	xorl	%eax, %eax
	popq	%rbp
	.cfi_def_cfa_offset 16
	popq	%r12
	.cfi_def_cfa_offset 8
	ret
	.p2align 4,,10
	.p2align 3
.L540:
	.cfi_restore_state
	movq	(%rsi), %r12
	movl	$48, %edi
	call	_Znwm@PLT
	movq	%rax, %rdi
	movq	%rax, %rbp
	movq	%r12, %rsi
	call	_ZNSt12__shared_ptrIN8asiodnp311MasterStackELN9__gnu_cxx12_Lock_policyE2EEC2ERKS4_@PLT
	movzwl	16(%r12), %eax
	movdqu	32(%r12), %xmm0
	movw	%ax, 16(%rbp)
	movq	24(%r12), %rax
	movups	%xmm0, 32(%rbp)
	movq	%rbp, (%rbx)
	movq	%rax, 24(%rbp)
.L537:
	popq	%rbx
	.cfi_def_cfa_offset 24
	xorl	%eax, %eax
	popq	%rbp
	.cfi_def_cfa_offset 16
	popq	%r12
	.cfi_def_cfa_offset 8
	ret
	.p2align 4,,10
	.p2align 3
.L539:
	.cfi_restore 3
	.cfi_restore 6
	.cfi_restore 12
	leaq	_ZTIZN8asiodnp311MasterStack17AddAllObjectsScanEN8opendnp316GroupVariationIDEN7openpal12TimeDurationERKNS1_10TaskConfigEEUlvE_(%rip), %rax
	movq	%rax, (%rdi)
	xorl	%eax, %eax
	ret
	.p2align 4,,10
	.p2align 3
.L538:
	movq	(%rsi), %rax
	movq	%rax, (%rdi)
	xorl	%eax, %eax
	ret
	.cfi_endproc
.LFE10000:
	.size	_ZNSt14_Function_base13_Base_managerIZN8asiodnp311MasterStack17AddAllObjectsScanEN8opendnp316GroupVariationIDEN7openpal12TimeDurationERKNS3_10TaskConfigEEUlvE_E10_M_managerERSt9_Any_dataRKSC_St18_Manager_operation, .-_ZNSt14_Function_base13_Base_managerIZN8asiodnp311MasterStack17AddAllObjectsScanEN8opendnp316GroupVariationIDEN7openpal12TimeDurationERKNS3_10TaskConfigEEUlvE_E10_M_managerERSt9_Any_dataRKSC_St18_Manager_operation
	.p2align 4,,15
	.type	_ZNSt14_Function_base13_Base_managerIZN8asiodnp311MasterStack12AddClassScanERKN8opendnp310ClassFieldEN7openpal12TimeDurationERKNS3_10TaskConfigEEUlvE_E10_M_managerERSt9_Any_dataRKSE_St18_Manager_operation, @function
_ZNSt14_Function_base13_Base_managerIZN8asiodnp311MasterStack12AddClassScanERKN8opendnp310ClassFieldEN7openpal12TimeDurationERKNS3_10TaskConfigEEUlvE_E10_M_managerERSt9_Any_dataRKSE_St18_Manager_operation:
.LFB10004:
	.cfi_startproc
	cmpl	$1, %edx
	je	.L555
	jb	.L556
	cmpl	$2, %edx
	pushq	%r12
	.cfi_def_cfa_offset 16
	.cfi_offset 12, -16
	pushq	%rbp
	.cfi_def_cfa_offset 24
	.cfi_offset 6, -24
	pushq	%rbx
	.cfi_def_cfa_offset 32
	.cfi_offset 3, -32
	movq	%rdi, %rbx
	je	.L557
	cmpl	$3, %edx
	jne	.L554
	movq	(%rdi), %rbx
	testq	%rbx, %rbx
	je	.L554
	movq	8(%rbx), %rdi
	testq	%rdi, %rdi
	je	.L559
	call	_ZNSt16_Sp_counted_baseILN9__gnu_cxx12_Lock_policyE2EE10_M_releaseEv@PLT
.L559:
	movq	%rbx, %rdi
	movl	$48, %esi
	call	_ZdlPvm@PLT
	popq	%rbx
	.cfi_remember_state
	.cfi_def_cfa_offset 24
	xorl	%eax, %eax
	popq	%rbp
	.cfi_def_cfa_offset 16
	popq	%r12
	.cfi_def_cfa_offset 8
	ret
	.p2align 4,,10
	.p2align 3
.L557:
	.cfi_restore_state
	movq	(%rsi), %r12
	movl	$48, %edi
	call	_Znwm@PLT
	movq	%rax, %rdi
	movq	%rax, %rbp
	movq	%r12, %rsi
	call	_ZNSt12__shared_ptrIN8asiodnp311MasterStackELN9__gnu_cxx12_Lock_policyE2EEC2ERKS4_@PLT
	movzbl	16(%r12), %eax
	movdqu	32(%r12), %xmm0
	movb	%al, 16(%rbp)
	movq	24(%r12), %rax
	movups	%xmm0, 32(%rbp)
	movq	%rbp, (%rbx)
	movq	%rax, 24(%rbp)
.L554:
	popq	%rbx
	.cfi_def_cfa_offset 24
	xorl	%eax, %eax
	popq	%rbp
	.cfi_def_cfa_offset 16
	popq	%r12
	.cfi_def_cfa_offset 8
	ret
	.p2align 4,,10
	.p2align 3
.L556:
	.cfi_restore 3
	.cfi_restore 6
	.cfi_restore 12
	leaq	_ZTIZN8asiodnp311MasterStack12AddClassScanERKN8opendnp310ClassFieldEN7openpal12TimeDurationERKNS1_10TaskConfigEEUlvE_(%rip), %rax
	movq	%rax, (%rdi)
	xorl	%eax, %eax
	ret
	.p2align 4,,10
	.p2align 3
.L555:
	movq	(%rsi), %rax
	movq	%rax, (%rdi)
	xorl	%eax, %eax
	ret
	.cfi_endproc
.LFE10004:
	.size	_ZNSt14_Function_base13_Base_managerIZN8asiodnp311MasterStack12AddClassScanERKN8opendnp310ClassFieldEN7openpal12TimeDurationERKNS3_10TaskConfigEEUlvE_E10_M_managerERSt9_Any_dataRKSE_St18_Manager_operation, .-_ZNSt14_Function_base13_Base_managerIZN8asiodnp311MasterStack12AddClassScanERKN8opendnp310ClassFieldEN7openpal12TimeDurationERKNS3_10TaskConfigEEUlvE_E10_M_managerERSt9_Any_dataRKSE_St18_Manager_operation
	.p2align 4,,15
	.type	_ZNSt14_Function_base13_Base_managerIZN8asiodnp311MasterStack12AddRangeScanEN8opendnp316GroupVariationIDEttN7openpal12TimeDurationERKNS3_10TaskConfigEEUlvE_E10_M_managerERSt9_Any_dataRKSC_St18_Manager_operation, @function
_ZNSt14_Function_base13_Base_managerIZN8asiodnp311MasterStack12AddRangeScanEN8opendnp316GroupVariationIDEttN7openpal12TimeDurationERKNS3_10TaskConfigEEUlvE_E10_M_managerERSt9_Any_dataRKSC_St18_Manager_operation:
.LFB10008:
	.cfi_startproc
	cmpl	$1, %edx
	je	.L572
	jb	.L573
	cmpl	$2, %edx
	pushq	%r12
	.cfi_def_cfa_offset 16
	.cfi_offset 12, -16
	pushq	%rbp
	.cfi_def_cfa_offset 24
	.cfi_offset 6, -24
	pushq	%rbx
	.cfi_def_cfa_offset 32
	.cfi_offset 3, -32
	movq	%rdi, %rbx
	je	.L574
	cmpl	$3, %edx
	jne	.L571
	movq	(%rdi), %rbx
	testq	%rbx, %rbx
	je	.L571
	movq	8(%rbx), %rdi
	testq	%rdi, %rdi
	je	.L576
	call	_ZNSt16_Sp_counted_baseILN9__gnu_cxx12_Lock_policyE2EE10_M_releaseEv@PLT
.L576:
	movq	%rbx, %rdi
	movl	$48, %esi
	call	_ZdlPvm@PLT
	popq	%rbx
	.cfi_remember_state
	.cfi_def_cfa_offset 24
	xorl	%eax, %eax
	popq	%rbp
	.cfi_def_cfa_offset 16
	popq	%r12
	.cfi_def_cfa_offset 8
	ret
	.p2align 4,,10
	.p2align 3
.L574:
	.cfi_restore_state
	movq	(%rsi), %r12
	movl	$48, %edi
	call	_Znwm@PLT
	movq	%rax, %rdi
	movq	%rax, %rbp
	movq	%r12, %rsi
	call	_ZNSt12__shared_ptrIN8asiodnp311MasterStackELN9__gnu_cxx12_Lock_policyE2EEC2ERKS4_@PLT
	movzwl	16(%r12), %eax
	movdqu	32(%r12), %xmm0
	movw	%ax, 16(%rbp)
	movzwl	18(%r12), %eax
	movw	%ax, 18(%rbp)
	movzwl	20(%r12), %eax
	movw	%ax, 20(%rbp)
	movq	24(%r12), %rax
	movups	%xmm0, 32(%rbp)
	movq	%rbp, (%rbx)
	movq	%rax, 24(%rbp)
.L571:
	popq	%rbx
	.cfi_def_cfa_offset 24
	xorl	%eax, %eax
	popq	%rbp
	.cfi_def_cfa_offset 16
	popq	%r12
	.cfi_def_cfa_offset 8
	ret
	.p2align 4,,10
	.p2align 3
.L573:
	.cfi_restore 3
	.cfi_restore 6
	.cfi_restore 12
	leaq	_ZTIZN8asiodnp311MasterStack12AddRangeScanEN8opendnp316GroupVariationIDEttN7openpal12TimeDurationERKNS1_10TaskConfigEEUlvE_(%rip), %rax
	movq	%rax, (%rdi)
	xorl	%eax, %eax
	ret
	.p2align 4,,10
	.p2align 3
.L572:
	movq	(%rsi), %rax
	movq	%rax, (%rdi)
	xorl	%eax, %eax
	ret
	.cfi_endproc
.LFE10008:
	.size	_ZNSt14_Function_base13_Base_managerIZN8asiodnp311MasterStack12AddRangeScanEN8opendnp316GroupVariationIDEttN7openpal12TimeDurationERKNS3_10TaskConfigEEUlvE_E10_M_managerERSt9_Any_dataRKSC_St18_Manager_operation, .-_ZNSt14_Function_base13_Base_managerIZN8asiodnp311MasterStack12AddRangeScanEN8opendnp316GroupVariationIDEttN7openpal12TimeDurationERKNS3_10TaskConfigEEUlvE_E10_M_managerERSt9_Any_dataRKSC_St18_Manager_operation
	.section	.text.unlikely
	.align 2
	.type	_ZZN8asiodnp311MasterStack4ScanERKSt6vectorIN8opendnp36HeaderESaIS3_EERKNS2_10TaskConfigEENUlvE_D2Ev, @function
_ZZN8asiodnp311MasterStack4ScanERKSt6vectorIN8opendnp36HeaderESaIS3_EERKNS2_10TaskConfigEENUlvE_D2Ev:
.LFB8259:
	.cfi_startproc
	.cfi_personality 0x9b,DW.ref.__gxx_personality_v0
	.cfi_lsda 0x1b,.LLSDA8259
	pushq	%rbx
	.cfi_def_cfa_offset 16
	.cfi_offset 3, -16
	movq	32(%rdi), %rax
	movq	%rdi, %rbx
	testq	%rax, %rax
	je	.L588
	leaq	16(%rdi), %rdi
	movl	$3, %edx
	movq	%rdi, %rsi
	call	*%rax
.L588:
	movq	8(%rbx), %rdi
	testq	%rdi, %rdi
	je	.L587
	popq	%rbx
	.cfi_remember_state
	.cfi_def_cfa_offset 8
	jmp	_ZNSt16_Sp_counted_baseILN9__gnu_cxx12_Lock_policyE2EE10_M_releaseEv@PLT
.L587:
	.cfi_restore_state
	popq	%rbx
	.cfi_def_cfa_offset 8
	ret
	.cfi_endproc
.LFE8259:
	.section	.gcc_except_table
.LLSDA8259:
	.byte	0xff
	.byte	0xff
	.byte	0x1
	.uleb128 .LLSDACSE8259-.LLSDACSB8259
.LLSDACSB8259:
.LLSDACSE8259:
	.section	.text.unlikely
	.size	_ZZN8asiodnp311MasterStack4ScanERKSt6vectorIN8opendnp36HeaderESaIS3_EERKNS2_10TaskConfigEENUlvE_D2Ev, .-_ZZN8asiodnp311MasterStack4ScanERKSt6vectorIN8opendnp36HeaderESaIS3_EERKNS2_10TaskConfigEENUlvE_D2Ev
	.set	_ZZN8asiodnp311MasterStack4ScanERKSt6vectorIN8opendnp36HeaderESaIS3_EERKNS2_10TaskConfigEENUlvE_D1Ev,_ZZN8asiodnp311MasterStack4ScanERKSt6vectorIN8opendnp36HeaderESaIS3_EERKNS2_10TaskConfigEENUlvE_D2Ev
	.align 2
	.type	_ZZN8asiodnp311MasterStack7RestartEN8opendnp311RestartTypeERKSt8functionIFvRKNS1_22RestartOperationResultEEENS1_10TaskConfigEENUlvE_D2Ev, @function
_ZZN8asiodnp311MasterStack7RestartEN8opendnp311RestartTypeERKSt8functionIFvRKNS1_22RestartOperationResultEEENS1_10TaskConfigEENUlvE_D2Ev:
.LFB8302:
	.cfi_startproc
	.cfi_personality 0x9b,DW.ref.__gxx_personality_v0
	.cfi_lsda 0x1b,.LLSDA8302
	pushq	%rbx
	.cfi_def_cfa_offset 16
	.cfi_offset 3, -16
	movq	40(%rdi), %rax
	movq	%rdi, %rbx
	testq	%rax, %rax
	je	.L595
	leaq	24(%rdi), %rdi
	movl	$3, %edx
	movq	%rdi, %rsi
	call	*%rax
.L595:
	movq	8(%rbx), %rdi
	testq	%rdi, %rdi
	je	.L594
	popq	%rbx
	.cfi_remember_state
	.cfi_def_cfa_offset 8
	jmp	_ZNSt16_Sp_counted_baseILN9__gnu_cxx12_Lock_policyE2EE10_M_releaseEv@PLT
.L594:
	.cfi_restore_state
	popq	%rbx
	.cfi_def_cfa_offset 8
	ret
	.cfi_endproc
.LFE8302:
	.section	.gcc_except_table
.LLSDA8302:
	.byte	0xff
	.byte	0xff
	.byte	0x1
	.uleb128 .LLSDACSE8302-.LLSDACSB8302
.LLSDACSB8302:
.LLSDACSE8302:
	.section	.text.unlikely
	.size	_ZZN8asiodnp311MasterStack7RestartEN8opendnp311RestartTypeERKSt8functionIFvRKNS1_22RestartOperationResultEEENS1_10TaskConfigEENUlvE_D2Ev, .-_ZZN8asiodnp311MasterStack7RestartEN8opendnp311RestartTypeERKSt8functionIFvRKNS1_22RestartOperationResultEEENS1_10TaskConfigEENUlvE_D2Ev
	.set	_ZZN8asiodnp311MasterStack7RestartEN8opendnp311RestartTypeERKSt8functionIFvRKNS1_22RestartOperationResultEEENS1_10TaskConfigEENUlvE_D1Ev,_ZZN8asiodnp311MasterStack7RestartEN8opendnp311RestartTypeERKSt8functionIFvRKNS1_22RestartOperationResultEEENS1_10TaskConfigEENUlvE_D2Ev
	.align 2
	.type	_ZZN8asiodnp311MasterStack16SelectAndOperateEON8opendnp310CommandSetERKSt8functionIFvRKNS1_18ICommandTaskResultEEERKNS1_10TaskConfigEENUlvE_D2Ev, @function
_ZZN8asiodnp311MasterStack16SelectAndOperateEON8opendnp310CommandSetERKSt8functionIFvRKNS1_18ICommandTaskResultEEERKNS1_10TaskConfigEENUlvE_D2Ev:
.LFB8334:
	.cfi_startproc
	.cfi_personality 0x9b,DW.ref.__gxx_personality_v0
	.cfi_lsda 0x1b,.LLSDA8334
	pushq	%rbx
	.cfi_def_cfa_offset 16
	.cfi_offset 3, -16
	movq	64(%rdi), %rax
	movq	%rdi, %rbx
	testq	%rax, %rax
	je	.L602
	leaq	48(%rdi), %rdi
	movl	$3, %edx
	movq	%rdi, %rsi
	call	*%rax
.L602:
	movq	24(%rbx), %rdi
	testq	%rdi, %rdi
	je	.L603
	call	_ZNSt16_Sp_counted_baseILN9__gnu_cxx12_Lock_policyE2EE10_M_releaseEv@PLT
.L603:
	movq	8(%rbx), %rdi
	testq	%rdi, %rdi
	je	.L601
	popq	%rbx
	.cfi_remember_state
	.cfi_def_cfa_offset 8
	jmp	_ZNSt16_Sp_counted_baseILN9__gnu_cxx12_Lock_policyE2EE10_M_releaseEv@PLT
.L601:
	.cfi_restore_state
	popq	%rbx
	.cfi_def_cfa_offset 8
	ret
	.cfi_endproc
.LFE8334:
	.section	.gcc_except_table
.LLSDA8334:
	.byte	0xff
	.byte	0xff
	.byte	0x1
	.uleb128 .LLSDACSE8334-.LLSDACSB8334
.LLSDACSB8334:
.LLSDACSE8334:
	.section	.text.unlikely
	.size	_ZZN8asiodnp311MasterStack16SelectAndOperateEON8opendnp310CommandSetERKSt8functionIFvRKNS1_18ICommandTaskResultEEERKNS1_10TaskConfigEENUlvE_D2Ev, .-_ZZN8asiodnp311MasterStack16SelectAndOperateEON8opendnp310CommandSetERKSt8functionIFvRKNS1_18ICommandTaskResultEEERKNS1_10TaskConfigEENUlvE_D2Ev
	.set	_ZZN8asiodnp311MasterStack16SelectAndOperateEON8opendnp310CommandSetERKSt8functionIFvRKNS1_18ICommandTaskResultEEERKNS1_10TaskConfigEENUlvE_D1Ev,_ZZN8asiodnp311MasterStack16SelectAndOperateEON8opendnp310CommandSetERKSt8functionIFvRKNS1_18ICommandTaskResultEEERKNS1_10TaskConfigEENUlvE_D2Ev
	.align 2
	.type	_ZZN8asiodnp311MasterStack13DirectOperateEON8opendnp310CommandSetERKSt8functionIFvRKNS1_18ICommandTaskResultEEERKNS1_10TaskConfigEENUlvE_D2Ev, @function
_ZZN8asiodnp311MasterStack13DirectOperateEON8opendnp310CommandSetERKSt8functionIFvRKNS1_18ICommandTaskResultEEERKNS1_10TaskConfigEENUlvE_D2Ev:
.LFB8342:
	.cfi_startproc
	.cfi_personality 0x9b,DW.ref.__gxx_personality_v0
	.cfi_lsda 0x1b,.LLSDA8342
	pushq	%rbx
	.cfi_def_cfa_offset 16
	.cfi_offset 3, -16
	movq	64(%rdi), %rax
	movq	%rdi, %rbx
	testq	%rax, %rax
	je	.L613
	leaq	48(%rdi), %rdi
	movl	$3, %edx
	movq	%rdi, %rsi
	call	*%rax
.L613:
	movq	24(%rbx), %rdi
	testq	%rdi, %rdi
	je	.L614
	call	_ZNSt16_Sp_counted_baseILN9__gnu_cxx12_Lock_policyE2EE10_M_releaseEv@PLT
.L614:
	movq	8(%rbx), %rdi
	testq	%rdi, %rdi
	je	.L612
	popq	%rbx
	.cfi_remember_state
	.cfi_def_cfa_offset 8
	jmp	_ZNSt16_Sp_counted_baseILN9__gnu_cxx12_Lock_policyE2EE10_M_releaseEv@PLT
.L612:
	.cfi_restore_state
	popq	%rbx
	.cfi_def_cfa_offset 8
	ret
	.cfi_endproc
.LFE8342:
	.section	.gcc_except_table
.LLSDA8342:
	.byte	0xff
	.byte	0xff
	.byte	0x1
	.uleb128 .LLSDACSE8342-.LLSDACSB8342
.LLSDACSB8342:
.LLSDACSE8342:
	.section	.text.unlikely
	.size	_ZZN8asiodnp311MasterStack13DirectOperateEON8opendnp310CommandSetERKSt8functionIFvRKNS1_18ICommandTaskResultEEERKNS1_10TaskConfigEENUlvE_D2Ev, .-_ZZN8asiodnp311MasterStack13DirectOperateEON8opendnp310CommandSetERKSt8functionIFvRKNS1_18ICommandTaskResultEEERKNS1_10TaskConfigEENUlvE_D2Ev
	.set	_ZZN8asiodnp311MasterStack13DirectOperateEON8opendnp310CommandSetERKSt8functionIFvRKNS1_18ICommandTaskResultEEERKNS1_10TaskConfigEENUlvE_D1Ev,_ZZN8asiodnp311MasterStack13DirectOperateEON8opendnp310CommandSetERKSt8functionIFvRKNS1_18ICommandTaskResultEEERKNS1_10TaskConfigEENUlvE_D2Ev
	.text
	.p2align 4,,15
	.type	_ZNSt17_Function_handlerIFbvEZN8asiodnp311MasterStack6EnableEvEUlvE_E9_M_invokeERKSt9_Any_data, @function
_ZNSt17_Function_handlerIFbvEZN8asiodnp311MasterStack6EnableEvEUlvE_E9_M_invokeERKSt9_Any_data:
.LFB9890:
	.cfi_startproc
	.cfi_personality 0x9b,DW.ref.__gxx_personality_v0
	.cfi_lsda 0x1b,.LLSDA9890
	pushq	%rbx
	.cfi_def_cfa_offset 16
	.cfi_offset 3, -16
	subq	$48, %rsp
	.cfi_def_cfa_offset 64
	movq	(%rdi), %rdx
	movq	%fs:40, %rax
	movq	%rax, 40(%rsp)
	xorl	%eax, %eax
	movq	(%rdx), %rax
	movq	104(%rax), %rdi
	addq	$16, %rax
	movq	%rax, 16(%rsp)
	movq	8(%rdx), %rax
	testq	%rax, %rax
	movq	%rax, 24(%rsp)
	je	.L624
	cmpq	$0, _ZL28__gthrw___pthread_key_createPjPFvPvE@GOTPCREL(%rip)
	jne	.L644
	addl	$1, 8(%rax)
.L624:
	leaq	16(%rsp), %rsi
.LEHB20:
	call	_ZN8asiodnp39IOHandler6EnableERKSt10shared_ptrIN8opendnp312ILinkSessionEE@PLT
.LEHE20:
	movq	24(%rsp), %rbx
	testq	%rbx, %rbx
	je	.L623
	cmpq	$0, _ZL28__gthrw___pthread_key_createPjPFvPvE@GOTPCREL(%rip)
	je	.L628
	lock subl	$1, 8(%rbx)
	je	.L645
.L623:
	movq	40(%rsp), %rcx
	xorq	%fs:40, %rcx
	jne	.L646
	addq	$48, %rsp
	.cfi_remember_state
	.cfi_def_cfa_offset 16
	popq	%rbx
	.cfi_def_cfa_offset 8
	ret
	.p2align 4,,10
	.p2align 3
.L644:
	.cfi_restore_state
	lock addl	$1, 8(%rax)
	jmp	.L624
	.p2align 4,,10
	.p2align 3
.L628:
	movl	8(%rbx), %edx
	leal	-1(%rdx), %ecx
	cmpl	$1, %edx
	movl	%ecx, 8(%rbx)
	jne	.L623
	movq	(%rbx), %rdx
	movb	%al, 15(%rsp)
	movq	%rbx, %rdi
	call	*16(%rdx)
	movl	12(%rbx), %edx
	movzbl	15(%rsp), %eax
	leal	-1(%rdx), %ecx
	movl	%ecx, 12(%rbx)
	jmp	.L634
	.p2align 4,,10
	.p2align 3
.L645:
	movq	(%rbx), %rdx
	movb	%al, 15(%rsp)
	movq	%rbx, %rdi
	call	*16(%rdx)
	movl	$-1, %edx
	lock xaddl	%edx, 12(%rbx)
	movzbl	15(%rsp), %eax
.L634:
	cmpl	$1, %edx
	jne	.L623
	movq	(%rbx), %rdx
	movb	%al, 15(%rsp)
	movq	%rbx, %rdi
	call	*24(%rdx)
	movzbl	15(%rsp), %eax
	jmp	.L623
.L646:
	call	__stack_chk_fail@PLT
.L636:
	movq	24(%rsp), %rdi
	movq	%rax, %rbx
	testq	%rdi, %rdi
	je	.L633
	call	_ZNSt16_Sp_counted_baseILN9__gnu_cxx12_Lock_policyE2EE10_M_releaseEv@PLT
.L633:
	movq	%rbx, %rdi
.LEHB21:
	call	_Unwind_Resume@PLT
.LEHE21:
	.cfi_endproc
.LFE9890:
	.section	.gcc_except_table
.LLSDA9890:
	.byte	0xff
	.byte	0xff
	.byte	0x1
	.uleb128 .LLSDACSE9890-.LLSDACSB9890
.LLSDACSB9890:
	.uleb128 .LEHB20-.LFB9890
	.uleb128 .LEHE20-.LEHB20
	.uleb128 .L636-.LFB9890
	.uleb128 0
	.uleb128 .LEHB21-.LFB9890
	.uleb128 .LEHE21-.LEHB21
	.uleb128 0
	.uleb128 0
.LLSDACSE9890:
	.text
	.size	_ZNSt17_Function_handlerIFbvEZN8asiodnp311MasterStack6EnableEvEUlvE_E9_M_invokeERKSt9_Any_data, .-_ZNSt17_Function_handlerIFbvEZN8asiodnp311MasterStack6EnableEvEUlvE_E9_M_invokeERKSt9_Any_data
	.p2align 4,,15
	.type	_ZNSt17_Function_handlerIFbvEZN8asiodnp311MasterStack7DisableEvEUlvE_E9_M_invokeERKSt9_Any_data, @function
_ZNSt17_Function_handlerIFbvEZN8asiodnp311MasterStack7DisableEvEUlvE_E9_M_invokeERKSt9_Any_data:
.LFB9911:
	.cfi_startproc
	.cfi_personality 0x9b,DW.ref.__gxx_personality_v0
	.cfi_lsda 0x1b,.LLSDA9911
	pushq	%rbx
	.cfi_def_cfa_offset 16
	.cfi_offset 3, -16
	subq	$48, %rsp
	.cfi_def_cfa_offset 64
	movq	(%rdi), %rdx
	movq	%fs:40, %rax
	movq	%rax, 40(%rsp)
	xorl	%eax, %eax
	movq	(%rdx), %rax
	movq	104(%rax), %rdi
	addq	$16, %rax
	movq	%rax, 16(%rsp)
	movq	8(%rdx), %rax
	testq	%rax, %rax
	movq	%rax, 24(%rsp)
	je	.L648
	cmpq	$0, _ZL28__gthrw___pthread_key_createPjPFvPvE@GOTPCREL(%rip)
	jne	.L668
	addl	$1, 8(%rax)
.L648:
	leaq	16(%rsp), %rsi
.LEHB22:
	call	_ZN8asiodnp39IOHandler7DisableERKSt10shared_ptrIN8opendnp312ILinkSessionEE@PLT
.LEHE22:
	movq	24(%rsp), %rbx
	testq	%rbx, %rbx
	je	.L647
	cmpq	$0, _ZL28__gthrw___pthread_key_createPjPFvPvE@GOTPCREL(%rip)
	je	.L652
	lock subl	$1, 8(%rbx)
	je	.L669
.L647:
	movq	40(%rsp), %rcx
	xorq	%fs:40, %rcx
	jne	.L670
	addq	$48, %rsp
	.cfi_remember_state
	.cfi_def_cfa_offset 16
	popq	%rbx
	.cfi_def_cfa_offset 8
	ret
	.p2align 4,,10
	.p2align 3
.L668:
	.cfi_restore_state
	lock addl	$1, 8(%rax)
	jmp	.L648
	.p2align 4,,10
	.p2align 3
.L652:
	movl	8(%rbx), %edx
	leal	-1(%rdx), %ecx
	cmpl	$1, %edx
	movl	%ecx, 8(%rbx)
	jne	.L647
	movq	(%rbx), %rdx
	movb	%al, 15(%rsp)
	movq	%rbx, %rdi
	call	*16(%rdx)
	movl	12(%rbx), %edx
	movzbl	15(%rsp), %eax
	leal	-1(%rdx), %ecx
	movl	%ecx, 12(%rbx)
	jmp	.L658
	.p2align 4,,10
	.p2align 3
.L669:
	movq	(%rbx), %rdx
	movb	%al, 15(%rsp)
	movq	%rbx, %rdi
	call	*16(%rdx)
	movl	$-1, %edx
	lock xaddl	%edx, 12(%rbx)
	movzbl	15(%rsp), %eax
.L658:
	cmpl	$1, %edx
	jne	.L647
	movq	(%rbx), %rdx
	movb	%al, 15(%rsp)
	movq	%rbx, %rdi
	call	*24(%rdx)
	movzbl	15(%rsp), %eax
	jmp	.L647
.L670:
	call	__stack_chk_fail@PLT
.L660:
	movq	24(%rsp), %rdi
	movq	%rax, %rbx
	testq	%rdi, %rdi
	je	.L657
	call	_ZNSt16_Sp_counted_baseILN9__gnu_cxx12_Lock_policyE2EE10_M_releaseEv@PLT
.L657:
	movq	%rbx, %rdi
.LEHB23:
	call	_Unwind_Resume@PLT
.LEHE23:
	.cfi_endproc
.LFE9911:
	.section	.gcc_except_table
.LLSDA9911:
	.byte	0xff
	.byte	0xff
	.byte	0x1
	.uleb128 .LLSDACSE9911-.LLSDACSB9911
.LLSDACSB9911:
	.uleb128 .LEHB22-.LFB9911
	.uleb128 .LEHE22-.LEHB22
	.uleb128 .L660-.LFB9911
	.uleb128 0
	.uleb128 .LEHB23-.LFB9911
	.uleb128 .LEHE23-.LEHB23
	.uleb128 0
	.uleb128 0
.LLSDACSE9911:
	.text
	.size	_ZNSt17_Function_handlerIFbvEZN8asiodnp311MasterStack7DisableEvEUlvE_E9_M_invokeERKSt9_Any_data, .-_ZNSt17_Function_handlerIFbvEZN8asiodnp311MasterStack7DisableEvEUlvE_E9_M_invokeERKSt9_Any_data
	.align 2
	.p2align 4,,15
	.globl	_ZN8asiodnp311MasterStack13SetLogFiltersERKN7openpal10LogFiltersE
	.type	_ZN8asiodnp311MasterStack13SetLogFiltersERKN7openpal10LogFiltersE, @function
_ZN8asiodnp311MasterStack13SetLogFiltersERKN7openpal10LogFiltersE:
.LFB8186:
	.cfi_startproc
	.cfi_personality 0x9b,DW.ref.__gxx_personality_v0
	.cfi_lsda 0x1b,.LLSDA8186
	pushq	%r13
	.cfi_def_cfa_offset 16
	.cfi_offset 13, -16
	pushq	%r12
	.cfi_def_cfa_offset 24
	.cfi_offset 12, -24
	pushq	%rbp
	.cfi_def_cfa_offset 32
	.cfi_offset 6, -32
	pushq	%rbx
	.cfi_def_cfa_offset 40
	.cfi_offset 3, -40
	subq	$56, %rsp
	.cfi_def_cfa_offset 96
	movq	48(%rdi), %rbx
	movq	%fs:40, %rax
	movq	%rax, 40(%rsp)
	xorl	%eax, %eax
	testq	%rbx, %rbx
	je	.L672
	movl	8(%rbx), %eax
	leaq	8(%rbx), %rdx
	testl	%eax, %eax
	je	.L672
.L709:
	leal	1(%rax), %ecx
	lock cmpxchgl	%ecx, (%rdx)
	jne	.L713
	cmpq	$0, _ZL28__gthrw___pthread_key_createPjPFvPvE@GOTPCREL(%rip)
	movq	40(%rdi), %rcx
	movl	(%rsi), %eax
	movq	%rbx, 8(%rsp)
	movq	88(%rdi), %rsi
	movq	%rcx, (%rsp)
	jne	.L714
	addl	$1, 8(%rbx)
.L678:
	movl	%eax, 16(%rsp)
	movq	%rsp, %rdi
	xorl	%eax, %eax
	movq	40(%rsi), %r12
	leaq	48(%rsi), %r13
	call	_ZN4asio28asio_handler_is_continuationEz@PLT
	movl	%eax, %ebp
	.byte	0x66
	leaq	_ZN4asio6detail15keyword_tss_ptrINS0_10call_stackINS0_15task_io_serviceENS0_27task_io_service_thread_infoEE7contextEE6value_E@tlsgd(%rip), %rdi
	.value	0x6666
	rex64
	call	__tls_get_addr@PLT
	movq	(%rax), %rax
	testq	%rax, %rax
	je	.L679
	movq	8(%rax), %rax
	testq	%rax, %rax
	je	.L679
	movq	(%rax), %rdx
	testq	%rdx, %rdx
	je	.L679
	movq	$0, (%rax)
	movzbl	(%rdx), %eax
	cmpb	$47, %al
	jbe	.L680
	movb	%al, 48(%rdx)
	jmp	.L681
	.p2align 4,,10
	.p2align 3
.L680:
	movq	%rdx, %rdi
	call	_ZdlPv@PLT
.L679:
	movl	$49, %edi
.LEHB24:
	call	_Znwm@PLT
.LEHE24:
	movq	%rax, %rdx
	movb	$48, 48(%rax)
.L681:
	leaq	_ZN4asio6detail18completion_handlerIZN8asiodnp311MasterStack13SetLogFiltersERKN7openpal10LogFiltersEEUlvE_E11do_completeEPNS0_15task_io_serviceEPNS0_25task_io_service_operationERKSt10error_codem(%rip), %rax
	pxor	%xmm0, %xmm0
	movq	$0, (%rdx)
	movq	%r12, %rdi
	movl	$0, 16(%rdx)
	movq	%rax, 8(%rdx)
	movq	(%rsp), %rax
	movzbl	%bpl, %ecx
	movq	%r13, %rsi
	movq	%rax, 24(%rdx)
	movq	8(%rsp), %rax
	movaps	%xmm0, (%rsp)
	movq	%rax, 32(%rdx)
	movl	16(%rsp), %eax
	movl	%eax, 40(%rdx)
	call	_ZN4asio6detail14strand_service7do_postERPNS1_11strand_implEPNS0_25task_io_service_operationEb@PLT
	movq	8(%rsp), %rdi
	testq	%rdi, %rdi
	je	.L685
	call	_ZNSt16_Sp_counted_baseILN9__gnu_cxx12_Lock_policyE2EE10_M_releaseEv@PLT
.L685:
	movq	%rbx, %rdi
	call	_ZNSt16_Sp_counted_baseILN9__gnu_cxx12_Lock_policyE2EE10_M_releaseEv@PLT
	movq	40(%rsp), %rax
	xorq	%fs:40, %rax
	jne	.L715
	addq	$56, %rsp
	.cfi_remember_state
	.cfi_def_cfa_offset 40
	popq	%rbx
	.cfi_def_cfa_offset 32
	popq	%rbp
	.cfi_def_cfa_offset 24
	popq	%r12
	.cfi_def_cfa_offset 16
	popq	%r13
	.cfi_def_cfa_offset 8
	ret
	.p2align 4,,10
	.p2align 3
.L714:
	.cfi_restore_state
	lock addl	$1, (%rdx)
	jmp	.L678
.L713:
	testl	%eax, %eax
	jne	.L709
.L672:
.LEHB25:
	call	_ZSt20__throw_bad_weak_ptrv@PLT
.L715:
	call	__stack_chk_fail@PLT
.L687:
	movq	8(%rsp), %rdi
	movq	%rax, %rbp
	testq	%rdi, %rdi
	je	.L683
	call	_ZNSt16_Sp_counted_baseILN9__gnu_cxx12_Lock_policyE2EE10_M_releaseEv@PLT
.L683:
	movq	%rbx, %rdi
	call	_ZNSt16_Sp_counted_baseILN9__gnu_cxx12_Lock_policyE2EE10_M_releaseEv@PLT
	movq	%rbp, %rdi
	call	_Unwind_Resume@PLT
.LEHE25:
	.cfi_endproc
.LFE8186:
	.section	.gcc_except_table
.LLSDA8186:
	.byte	0xff
	.byte	0xff
	.byte	0x1
	.uleb128 .LLSDACSE8186-.LLSDACSB8186
.LLSDACSB8186:
	.uleb128 .LEHB24-.LFB8186
	.uleb128 .LEHE24-.LEHB24
	.uleb128 .L687-.LFB8186
	.uleb128 0
	.uleb128 .LEHB25-.LFB8186
	.uleb128 .LEHE25-.LEHB25
	.uleb128 0
	.uleb128 0
.LLSDACSE8186:
	.text
	.size	_ZN8asiodnp311MasterStack13SetLogFiltersERKN7openpal10LogFiltersE, .-_ZN8asiodnp311MasterStack13SetLogFiltersERKN7openpal10LogFiltersE
	.align 2
	.p2align 4,,15
	.globl	_ZN8asiodnp311MasterStack14ScanAllObjectsEN8opendnp316GroupVariationIDERKNS1_10TaskConfigE
	.type	_ZN8asiodnp311MasterStack14ScanAllObjectsEN8opendnp316GroupVariationIDERKNS1_10TaskConfigE, @function
_ZN8asiodnp311MasterStack14ScanAllObjectsEN8opendnp316GroupVariationIDERKNS1_10TaskConfigE:
.LFB8264:
	.cfi_startproc
	.cfi_personality 0x9b,DW.ref.__gxx_personality_v0
	.cfi_lsda 0x1b,.LLSDA8264
	pushq	%r13
	.cfi_def_cfa_offset 16
	.cfi_offset 13, -16
	pushq	%r12
	.cfi_def_cfa_offset 24
	.cfi_offset 12, -24
	pushq	%rbp
	.cfi_def_cfa_offset 32
	.cfi_offset 6, -32
	pushq	%rbx
	.cfi_def_cfa_offset 40
	.cfi_offset 3, -40
	subq	$72, %rsp
	.cfi_def_cfa_offset 112
	movq	48(%rdi), %rbx
	movq	%fs:40, %rax
	movq	%rax, 56(%rsp)
	xorl	%eax, %eax
	testq	%rbx, %rbx
	je	.L717
	movl	8(%rbx), %eax
	leaq	8(%rbx), %rcx
	testl	%eax, %eax
	je	.L717
.L754:
	leal	1(%rax), %r8d
	lock cmpxchgl	%r8d, (%rcx)
	jne	.L758
	cmpq	$0, _ZL28__gthrw___pthread_key_createPjPFvPvE@GOTPCREL(%rip)
	movq	40(%rdi), %r11
	movl	%esi, %eax
	movzbl	%ah, %eax
	movl	(%rdx), %r9d
	movzbl	4(%rdx), %r8d
	movl	%eax, %r10d
	movq	8(%rdx), %rdx
	movq	88(%rdi), %rax
	movq	%r11, (%rsp)
	movq	%rbx, 8(%rsp)
	jne	.L759
	addl	$1, 8(%rbx)
.L723:
	movq	%rsp, %rdi
	movq	40(%rax), %r12
	leaq	48(%rax), %r13
	xorl	%eax, %eax
	movb	%sil, 16(%rsp)
	movb	%r10b, 17(%rsp)
	movl	%r9d, 24(%rsp)
	movb	%r8b, 28(%rsp)
	movq	%rdx, 32(%rsp)
	call	_ZN4asio28asio_handler_is_continuationEz@PLT
	movl	%eax, %ebp
	.byte	0x66
	leaq	_ZN4asio6detail15keyword_tss_ptrINS0_10call_stackINS0_15task_io_serviceENS0_27task_io_service_thread_infoEE7contextEE6value_E@tlsgd(%rip), %rdi
	.value	0x6666
	rex64
	call	__tls_get_addr@PLT
	movq	(%rax), %rax
	testq	%rax, %rax
	je	.L724
	movq	8(%rax), %rax
	testq	%rax, %rax
	je	.L724
	movq	(%rax), %rdx
	testq	%rdx, %rdx
	je	.L724
	movq	$0, (%rax)
	movzbl	(%rdx), %eax
	cmpb	$63, %al
	jbe	.L725
	movb	%al, 64(%rdx)
	jmp	.L726
	.p2align 4,,10
	.p2align 3
.L725:
	movq	%rdx, %rdi
	call	_ZdlPv@PLT
.L724:
	movl	$65, %edi
.LEHB26:
	call	_Znwm@PLT
.LEHE26:
	movq	%rax, %rdx
	movb	$64, 64(%rax)
.L726:
	leaq	_ZN4asio6detail18completion_handlerIZN8asiodnp311MasterStack14ScanAllObjectsEN8opendnp316GroupVariationIDERKNS4_10TaskConfigEEUlvE_E11do_completeEPNS0_15task_io_serviceEPNS0_25task_io_service_operationERKSt10error_codem(%rip), %rax
	pxor	%xmm0, %xmm0
	movq	$0, (%rdx)
	movq	%r12, %rdi
	movl	$0, 16(%rdx)
	movq	%rax, 8(%rdx)
	movq	(%rsp), %rax
	movzbl	%bpl, %ecx
	movq	%r13, %rsi
	movq	%rax, 24(%rdx)
	movq	8(%rsp), %rax
	movaps	%xmm0, (%rsp)
	movq	%rax, 32(%rdx)
	movzwl	16(%rsp), %eax
	movdqu	24(%rsp), %xmm0
	movups	%xmm0, 48(%rdx)
	movw	%ax, 40(%rdx)
	call	_ZN4asio6detail14strand_service7do_postERPNS1_11strand_implEPNS0_25task_io_service_operationEb@PLT
	movq	8(%rsp), %rdi
	testq	%rdi, %rdi
	je	.L730
	call	_ZNSt16_Sp_counted_baseILN9__gnu_cxx12_Lock_policyE2EE10_M_releaseEv@PLT
.L730:
	movq	%rbx, %rdi
	call	_ZNSt16_Sp_counted_baseILN9__gnu_cxx12_Lock_policyE2EE10_M_releaseEv@PLT
	movq	56(%rsp), %rax
	xorq	%fs:40, %rax
	jne	.L760
	addq	$72, %rsp
	.cfi_remember_state
	.cfi_def_cfa_offset 40
	popq	%rbx
	.cfi_def_cfa_offset 32
	popq	%rbp
	.cfi_def_cfa_offset 24
	popq	%r12
	.cfi_def_cfa_offset 16
	popq	%r13
	.cfi_def_cfa_offset 8
	ret
	.p2align 4,,10
	.p2align 3
.L759:
	.cfi_restore_state
	lock addl	$1, (%rcx)
	jmp	.L723
.L758:
	testl	%eax, %eax
	jne	.L754
.L717:
.LEHB27:
	call	_ZSt20__throw_bad_weak_ptrv@PLT
.L760:
	call	__stack_chk_fail@PLT
.L732:
	movq	8(%rsp), %rdi
	movq	%rax, %rbp
	testq	%rdi, %rdi
	je	.L728
	call	_ZNSt16_Sp_counted_baseILN9__gnu_cxx12_Lock_policyE2EE10_M_releaseEv@PLT
.L728:
	movq	%rbx, %rdi
	call	_ZNSt16_Sp_counted_baseILN9__gnu_cxx12_Lock_policyE2EE10_M_releaseEv@PLT
	movq	%rbp, %rdi
	call	_Unwind_Resume@PLT
.LEHE27:
	.cfi_endproc
.LFE8264:
	.section	.gcc_except_table
.LLSDA8264:
	.byte	0xff
	.byte	0xff
	.byte	0x1
	.uleb128 .LLSDACSE8264-.LLSDACSB8264
.LLSDACSB8264:
	.uleb128 .LEHB26-.LFB8264
	.uleb128 .LEHE26-.LEHB26
	.uleb128 .L732-.LFB8264
	.uleb128 0
	.uleb128 .LEHB27-.LFB8264
	.uleb128 .LEHE27-.LEHB27
	.uleb128 0
	.uleb128 0
.LLSDACSE8264:
	.text
	.size	_ZN8asiodnp311MasterStack14ScanAllObjectsEN8opendnp316GroupVariationIDERKNS1_10TaskConfigE, .-_ZN8asiodnp311MasterStack14ScanAllObjectsEN8opendnp316GroupVariationIDERKNS1_10TaskConfigE
	.align 2
	.p2align 4,,15
	.globl	_ZN8asiodnp311MasterStack11ScanClassesERKN8opendnp310ClassFieldERKNS1_10TaskConfigE
	.type	_ZN8asiodnp311MasterStack11ScanClassesERKN8opendnp310ClassFieldERKNS1_10TaskConfigE, @function
_ZN8asiodnp311MasterStack11ScanClassesERKN8opendnp310ClassFieldERKNS1_10TaskConfigE:
.LFB8272:
	.cfi_startproc
	.cfi_personality 0x9b,DW.ref.__gxx_personality_v0
	.cfi_lsda 0x1b,.LLSDA8272
	pushq	%r13
	.cfi_def_cfa_offset 16
	.cfi_offset 13, -16
	pushq	%r12
	.cfi_def_cfa_offset 24
	.cfi_offset 12, -24
	pushq	%rbp
	.cfi_def_cfa_offset 32
	.cfi_offset 6, -32
	pushq	%rbx
	.cfi_def_cfa_offset 40
	.cfi_offset 3, -40
	subq	$72, %rsp
	.cfi_def_cfa_offset 112
	movq	48(%rdi), %rbx
	movq	%fs:40, %rax
	movq	%rax, 56(%rsp)
	xorl	%eax, %eax
	testq	%rbx, %rbx
	je	.L762
	movl	8(%rbx), %eax
	leaq	8(%rbx), %rcx
	testl	%eax, %eax
	je	.L762
.L799:
	leal	1(%rax), %r8d
	lock cmpxchgl	%r8d, (%rcx)
	jne	.L803
	cmpq	$0, _ZL28__gthrw___pthread_key_createPjPFvPvE@GOTPCREL(%rip)
	movq	40(%rdi), %r11
	movzbl	(%rsi), %r10d
	movl	(%rdx), %r9d
	movzbl	4(%rdx), %r8d
	movq	8(%rdx), %rax
	movq	88(%rdi), %rsi
	movq	%r11, (%rsp)
	movq	%rbx, 8(%rsp)
	jne	.L804
	addl	$1, 8(%rbx)
.L768:
	movq	%rax, 32(%rsp)
	movq	%rsp, %rdi
	xorl	%eax, %eax
	movb	%r10b, 16(%rsp)
	movl	%r9d, 24(%rsp)
	leaq	48(%rsi), %r13
	movb	%r8b, 28(%rsp)
	movq	40(%rsi), %r12
	call	_ZN4asio28asio_handler_is_continuationEz@PLT
	movl	%eax, %ebp
	.byte	0x66
	leaq	_ZN4asio6detail15keyword_tss_ptrINS0_10call_stackINS0_15task_io_serviceENS0_27task_io_service_thread_infoEE7contextEE6value_E@tlsgd(%rip), %rdi
	.value	0x6666
	rex64
	call	__tls_get_addr@PLT
	movq	(%rax), %rax
	testq	%rax, %rax
	je	.L769
	movq	8(%rax), %rax
	testq	%rax, %rax
	je	.L769
	movq	(%rax), %rdx
	testq	%rdx, %rdx
	je	.L769
	movq	$0, (%rax)
	movzbl	(%rdx), %eax
	cmpb	$63, %al
	jbe	.L770
	movb	%al, 64(%rdx)
	jmp	.L771
	.p2align 4,,10
	.p2align 3
.L770:
	movq	%rdx, %rdi
	call	_ZdlPv@PLT
.L769:
	movl	$65, %edi
.LEHB28:
	call	_Znwm@PLT
.LEHE28:
	movq	%rax, %rdx
	movb	$64, 64(%rax)
.L771:
	leaq	_ZN4asio6detail18completion_handlerIZN8asiodnp311MasterStack11ScanClassesERKN8opendnp310ClassFieldERKNS4_10TaskConfigEEUlvE_E11do_completeEPNS0_15task_io_serviceEPNS0_25task_io_service_operationERKSt10error_codem(%rip), %rax
	pxor	%xmm0, %xmm0
	movq	$0, (%rdx)
	movq	%r12, %rdi
	movl	$0, 16(%rdx)
	movq	%rax, 8(%rdx)
	movq	(%rsp), %rax
	movzbl	%bpl, %ecx
	movq	%r13, %rsi
	movq	%rax, 24(%rdx)
	movq	8(%rsp), %rax
	movaps	%xmm0, (%rsp)
	movq	%rax, 32(%rdx)
	movzbl	16(%rsp), %eax
	movdqu	24(%rsp), %xmm0
	movups	%xmm0, 48(%rdx)
	movb	%al, 40(%rdx)
	call	_ZN4asio6detail14strand_service7do_postERPNS1_11strand_implEPNS0_25task_io_service_operationEb@PLT
	movq	8(%rsp), %rdi
	testq	%rdi, %rdi
	je	.L775
	call	_ZNSt16_Sp_counted_baseILN9__gnu_cxx12_Lock_policyE2EE10_M_releaseEv@PLT
.L775:
	movq	%rbx, %rdi
	call	_ZNSt16_Sp_counted_baseILN9__gnu_cxx12_Lock_policyE2EE10_M_releaseEv@PLT
	movq	56(%rsp), %rax
	xorq	%fs:40, %rax
	jne	.L805
	addq	$72, %rsp
	.cfi_remember_state
	.cfi_def_cfa_offset 40
	popq	%rbx
	.cfi_def_cfa_offset 32
	popq	%rbp
	.cfi_def_cfa_offset 24
	popq	%r12
	.cfi_def_cfa_offset 16
	popq	%r13
	.cfi_def_cfa_offset 8
	ret
	.p2align 4,,10
	.p2align 3
.L804:
	.cfi_restore_state
	lock addl	$1, (%rcx)
	jmp	.L768
.L803:
	testl	%eax, %eax
	jne	.L799
.L762:
.LEHB29:
	call	_ZSt20__throw_bad_weak_ptrv@PLT
.L805:
	call	__stack_chk_fail@PLT
.L777:
	movq	8(%rsp), %rdi
	movq	%rax, %rbp
	testq	%rdi, %rdi
	je	.L773
	call	_ZNSt16_Sp_counted_baseILN9__gnu_cxx12_Lock_policyE2EE10_M_releaseEv@PLT
.L773:
	movq	%rbx, %rdi
	call	_ZNSt16_Sp_counted_baseILN9__gnu_cxx12_Lock_policyE2EE10_M_releaseEv@PLT
	movq	%rbp, %rdi
	call	_Unwind_Resume@PLT
.LEHE29:
	.cfi_endproc
.LFE8272:
	.section	.gcc_except_table
.LLSDA8272:
	.byte	0xff
	.byte	0xff
	.byte	0x1
	.uleb128 .LLSDACSE8272-.LLSDACSB8272
.LLSDACSB8272:
	.uleb128 .LEHB28-.LFB8272
	.uleb128 .LEHE28-.LEHB28
	.uleb128 .L777-.LFB8272
	.uleb128 0
	.uleb128 .LEHB29-.LFB8272
	.uleb128 .LEHE29-.LEHB29
	.uleb128 0
	.uleb128 0
.LLSDACSE8272:
	.text
	.size	_ZN8asiodnp311MasterStack11ScanClassesERKN8opendnp310ClassFieldERKNS1_10TaskConfigE, .-_ZN8asiodnp311MasterStack11ScanClassesERKN8opendnp310ClassFieldERKNS1_10TaskConfigE
	.align 2
	.p2align 4,,15
	.globl	_ZN8asiodnp311MasterStack9ScanRangeEN8opendnp316GroupVariationIDEttRKNS1_10TaskConfigE
	.type	_ZN8asiodnp311MasterStack9ScanRangeEN8opendnp316GroupVariationIDEttRKNS1_10TaskConfigE, @function
_ZN8asiodnp311MasterStack9ScanRangeEN8opendnp316GroupVariationIDEttRKNS1_10TaskConfigE:
.LFB8280:
	.cfi_startproc
	.cfi_personality 0x9b,DW.ref.__gxx_personality_v0
	.cfi_lsda 0x1b,.LLSDA8280
	pushq	%r15
	.cfi_def_cfa_offset 16
	.cfi_offset 15, -16
	pushq	%r14
	.cfi_def_cfa_offset 24
	.cfi_offset 14, -24
	pushq	%r13
	.cfi_def_cfa_offset 32
	.cfi_offset 13, -32
	pushq	%r12
	.cfi_def_cfa_offset 40
	.cfi_offset 12, -40
	pushq	%rbp
	.cfi_def_cfa_offset 48
	.cfi_offset 6, -48
	pushq	%rbx
	.cfi_def_cfa_offset 56
	.cfi_offset 3, -56
	subq	$72, %rsp
	.cfi_def_cfa_offset 128
	movq	48(%rdi), %rbx
	movq	%fs:40, %rax
	movq	%rax, 56(%rsp)
	xorl	%eax, %eax
	testq	%rbx, %rbx
	je	.L807
	movl	8(%rbx), %eax
	leaq	8(%rbx), %r9
	testl	%eax, %eax
	je	.L807
	leal	1(%rax), %r10d
	movl	%edx, %r15d
	movl	%ecx, %r14d
	lock cmpxchgl	%r10d, (%r9)
	jne	.L810
.L809:
	cmpq	$0, _ZL28__gthrw___pthread_key_createPjPFvPvE@GOTPCREL(%rip)
	movq	40(%rdi), %r13
	movl	%esi, %eax
	movzbl	%ah, %eax
	movl	(%r8), %r11d
	movzbl	4(%r8), %r10d
	movl	%eax, %r12d
	movq	88(%rdi), %rbp
	movq	8(%r8), %rax
	movq	%r13, (%rsp)
	movq	%rbx, 8(%rsp)
	jne	.L847
	addl	$1, 8(%rbx)
.L813:
	movq	%rax, 32(%rsp)
	movq	%rsp, %rdi
	xorl	%eax, %eax
	movb	%sil, 16(%rsp)
	movb	%r12b, 17(%rsp)
	addq	$48, %rbp
	movw	%dx, 18(%rsp)
	movw	%cx, 20(%rsp)
	movl	%r11d, 24(%rsp)
	movb	%r10b, 28(%rsp)
	call	_ZN4asio28asio_handler_is_continuationEz@PLT
	movl	%eax, %r12d
	movq	-8(%rbp), %r13
	.byte	0x66
	leaq	_ZN4asio6detail15keyword_tss_ptrINS0_10call_stackINS0_15task_io_serviceENS0_27task_io_service_thread_infoEE7contextEE6value_E@tlsgd(%rip), %rdi
	.value	0x6666
	rex64
	call	__tls_get_addr@PLT
	movq	(%rax), %rax
	testq	%rax, %rax
	je	.L814
	movq	8(%rax), %rax
	testq	%rax, %rax
	je	.L814
	movq	(%rax), %rdx
	testq	%rdx, %rdx
	je	.L814
	movq	$0, (%rax)
	movzbl	(%rdx), %eax
	cmpb	$63, %al
	jbe	.L815
	movb	%al, 64(%rdx)
	jmp	.L816
	.p2align 4,,10
	.p2align 3
.L815:
	movq	%rdx, %rdi
	call	_ZdlPv@PLT
.L814:
	movl	$65, %edi
.LEHB30:
	call	_Znwm@PLT
.LEHE30:
	movzwl	18(%rsp), %r15d
	movzwl	20(%rsp), %r14d
	movq	%rax, %rdx
	movb	$64, 64(%rax)
.L816:
	leaq	_ZN4asio6detail18completion_handlerIZN8asiodnp311MasterStack9ScanRangeEN8opendnp316GroupVariationIDEttRKNS4_10TaskConfigEEUlvE_E11do_completeEPNS0_15task_io_serviceEPNS0_25task_io_service_operationERKSt10error_codem(%rip), %rax
	pxor	%xmm0, %xmm0
	movq	$0, (%rdx)
	movq	%r13, %rdi
	movl	$0, 16(%rdx)
	movq	%rax, 8(%rdx)
	movq	(%rsp), %rax
	movzbl	%r12b, %ecx
	movw	%r15w, 42(%rdx)
	movw	%r14w, 44(%rdx)
	movq	%rbp, %rsi
	movq	%rax, 24(%rdx)
	movq	8(%rsp), %rax
	movaps	%xmm0, (%rsp)
	movq	%rax, 32(%rdx)
	movzwl	16(%rsp), %eax
	movdqu	24(%rsp), %xmm0
	movups	%xmm0, 48(%rdx)
	movw	%ax, 40(%rdx)
	call	_ZN4asio6detail14strand_service7do_postERPNS1_11strand_implEPNS0_25task_io_service_operationEb@PLT
	movq	8(%rsp), %rdi
	testq	%rdi, %rdi
	je	.L820
	call	_ZNSt16_Sp_counted_baseILN9__gnu_cxx12_Lock_policyE2EE10_M_releaseEv@PLT
.L820:
	movq	%rbx, %rdi
	call	_ZNSt16_Sp_counted_baseILN9__gnu_cxx12_Lock_policyE2EE10_M_releaseEv@PLT
	movq	56(%rsp), %rax
	xorq	%fs:40, %rax
	jne	.L848
	addq	$72, %rsp
	.cfi_remember_state
	.cfi_def_cfa_offset 56
	popq	%rbx
	.cfi_def_cfa_offset 48
	popq	%rbp
	.cfi_def_cfa_offset 40
	popq	%r12
	.cfi_def_cfa_offset 32
	popq	%r13
	.cfi_def_cfa_offset 24
	popq	%r14
	.cfi_def_cfa_offset 16
	popq	%r15
	.cfi_def_cfa_offset 8
	ret
	.p2align 4,,10
	.p2align 3
.L847:
	.cfi_restore_state
	lock addl	$1, (%r9)
	jmp	.L813
.L807:
.LEHB31:
	call	_ZSt20__throw_bad_weak_ptrv@PLT
.L848:
	call	__stack_chk_fail@PLT
.L810:
	testl	%eax, %eax
	je	.L807
	leal	1(%rax), %r10d
	lock cmpxchgl	%r10d, (%r9)
	je	.L809
	jmp	.L810
.L822:
	movq	8(%rsp), %rdi
	movq	%rax, %rbp
	testq	%rdi, %rdi
	je	.L818
	call	_ZNSt16_Sp_counted_baseILN9__gnu_cxx12_Lock_policyE2EE10_M_releaseEv@PLT
.L818:
	movq	%rbx, %rdi
	call	_ZNSt16_Sp_counted_baseILN9__gnu_cxx12_Lock_policyE2EE10_M_releaseEv@PLT
	movq	%rbp, %rdi
	call	_Unwind_Resume@PLT
.LEHE31:
	.cfi_endproc
.LFE8280:
	.section	.gcc_except_table
.LLSDA8280:
	.byte	0xff
	.byte	0xff
	.byte	0x1
	.uleb128 .LLSDACSE8280-.LLSDACSB8280
.LLSDACSB8280:
	.uleb128 .LEHB30-.LFB8280
	.uleb128 .LEHE30-.LEHB30
	.uleb128 .L822-.LFB8280
	.uleb128 0
	.uleb128 .LEHB31-.LFB8280
	.uleb128 .LEHE31-.LEHB31
	.uleb128 0
	.uleb128 0
.LLSDACSE8280:
	.text
	.size	_ZN8asiodnp311MasterStack9ScanRangeEN8opendnp316GroupVariationIDEttRKNS1_10TaskConfigE, .-_ZN8asiodnp311MasterStack9ScanRangeEN8opendnp316GroupVariationIDEttRKNS1_10TaskConfigE
	.align 2
	.p2align 4,,15
	.globl	_ZN8asiodnp311MasterStack5WriteERKN8opendnp315TimeAndIntervalEtRKNS1_10TaskConfigE
	.type	_ZN8asiodnp311MasterStack5WriteERKN8opendnp315TimeAndIntervalEtRKNS1_10TaskConfigE, @function
_ZN8asiodnp311MasterStack5WriteERKN8opendnp315TimeAndIntervalEtRKNS1_10TaskConfigE:
.LFB8288:
	.cfi_startproc
	.cfi_personality 0x9b,DW.ref.__gxx_personality_v0
	.cfi_lsda 0x1b,.LLSDA8288
	pushq	%r13
	.cfi_def_cfa_offset 16
	.cfi_offset 13, -16
	pushq	%r12
	.cfi_def_cfa_offset 24
	.cfi_offset 12, -24
	pushq	%rbp
	.cfi_def_cfa_offset 32
	.cfi_offset 6, -32
	pushq	%rbx
	.cfi_def_cfa_offset 40
	.cfi_offset 3, -40
	subq	$88, %rsp
	.cfi_def_cfa_offset 128
	movq	48(%rdi), %rbx
	movq	%fs:40, %rax
	movq	%rax, 72(%rsp)
	xorl	%eax, %eax
	testq	%rbx, %rbx
	je	.L850
	movl	8(%rbx), %eax
	leaq	8(%rbx), %r8
	testl	%eax, %eax
	je	.L850
.L887:
	leal	1(%rax), %r9d
	lock cmpxchgl	%r9d, (%r8)
	jne	.L891
	cmpq	$0, _ZL28__gthrw___pthread_key_createPjPFvPvE@GOTPCREL(%rip)
	movq	40(%rdi), %r13
	movq	(%rsi), %r12
	movl	8(%rsi), %ebp
	movzbl	12(%rsi), %r11d
	movl	(%rcx), %r10d
	movzbl	4(%rcx), %r9d
	movq	8(%rcx), %rax
	movq	88(%rdi), %rsi
	movq	%r13, (%rsp)
	movq	%rbx, 8(%rsp)
	jne	.L892
	addl	$1, 8(%rbx)
.L856:
	movq	%rax, 48(%rsp)
	movq	%rsp, %rdi
	xorl	%eax, %eax
	movq	%r12, 16(%rsp)
	movl	%ebp, 24(%rsp)
	leaq	48(%rsi), %r13
	movb	%r11b, 28(%rsp)
	movw	%dx, 32(%rsp)
	movl	%r10d, 40(%rsp)
	movb	%r9b, 44(%rsp)
	movq	40(%rsi), %r12
	call	_ZN4asio28asio_handler_is_continuationEz@PLT
	movl	%eax, %ebp
	.byte	0x66
	leaq	_ZN4asio6detail15keyword_tss_ptrINS0_10call_stackINS0_15task_io_serviceENS0_27task_io_service_thread_infoEE7contextEE6value_E@tlsgd(%rip), %rdi
	.value	0x6666
	rex64
	call	__tls_get_addr@PLT
	movq	(%rax), %rax
	testq	%rax, %rax
	je	.L857
	movq	8(%rax), %rax
	testq	%rax, %rax
	je	.L857
	movq	(%rax), %rdx
	testq	%rdx, %rdx
	je	.L857
	movq	$0, (%rax)
	movzbl	(%rdx), %eax
	cmpb	$79, %al
	jbe	.L858
	movb	%al, 80(%rdx)
	jmp	.L859
	.p2align 4,,10
	.p2align 3
.L858:
	movq	%rdx, %rdi
	call	_ZdlPv@PLT
.L857:
	movl	$81, %edi
.LEHB32:
	call	_Znwm@PLT
.LEHE32:
	movq	%rax, %rdx
	movb	$80, 80(%rax)
.L859:
	leaq	_ZN4asio6detail18completion_handlerIZN8asiodnp311MasterStack5WriteERKN8opendnp315TimeAndIntervalEtRKNS4_10TaskConfigEEUlvE_E11do_completeEPNS0_15task_io_serviceEPNS0_25task_io_service_operationERKSt10error_codem(%rip), %rax
	pxor	%xmm0, %xmm0
	movq	$0, (%rdx)
	movq	%r12, %rdi
	movl	$0, 16(%rdx)
	movq	%rax, 8(%rdx)
	movq	(%rsp), %rax
	movzbl	%bpl, %ecx
	movq	%r13, %rsi
	movq	%rax, 24(%rdx)
	movq	8(%rsp), %rax
	movaps	%xmm0, (%rsp)
	movdqa	16(%rsp), %xmm0
	movq	%rax, 32(%rdx)
	movzwl	32(%rsp), %eax
	movups	%xmm0, 40(%rdx)
	movdqu	40(%rsp), %xmm0
	movw	%ax, 56(%rdx)
	movups	%xmm0, 64(%rdx)
	call	_ZN4asio6detail14strand_service7do_postERPNS1_11strand_implEPNS0_25task_io_service_operationEb@PLT
	movq	8(%rsp), %rdi
	testq	%rdi, %rdi
	je	.L863
	call	_ZNSt16_Sp_counted_baseILN9__gnu_cxx12_Lock_policyE2EE10_M_releaseEv@PLT
.L863:
	movq	%rbx, %rdi
	call	_ZNSt16_Sp_counted_baseILN9__gnu_cxx12_Lock_policyE2EE10_M_releaseEv@PLT
	movq	72(%rsp), %rax
	xorq	%fs:40, %rax
	jne	.L893
	addq	$88, %rsp
	.cfi_remember_state
	.cfi_def_cfa_offset 40
	popq	%rbx
	.cfi_def_cfa_offset 32
	popq	%rbp
	.cfi_def_cfa_offset 24
	popq	%r12
	.cfi_def_cfa_offset 16
	popq	%r13
	.cfi_def_cfa_offset 8
	ret
	.p2align 4,,10
	.p2align 3
.L892:
	.cfi_restore_state
	lock addl	$1, (%r8)
	jmp	.L856
.L891:
	testl	%eax, %eax
	jne	.L887
.L850:
.LEHB33:
	call	_ZSt20__throw_bad_weak_ptrv@PLT
.L893:
	call	__stack_chk_fail@PLT
.L865:
	movq	8(%rsp), %rdi
	movq	%rax, %rbp
	testq	%rdi, %rdi
	je	.L861
	call	_ZNSt16_Sp_counted_baseILN9__gnu_cxx12_Lock_policyE2EE10_M_releaseEv@PLT
.L861:
	movq	%rbx, %rdi
	call	_ZNSt16_Sp_counted_baseILN9__gnu_cxx12_Lock_policyE2EE10_M_releaseEv@PLT
	movq	%rbp, %rdi
	call	_Unwind_Resume@PLT
.LEHE33:
	.cfi_endproc
.LFE8288:
	.section	.gcc_except_table
.LLSDA8288:
	.byte	0xff
	.byte	0xff
	.byte	0x1
	.uleb128 .LLSDACSE8288-.LLSDACSB8288
.LLSDACSB8288:
	.uleb128 .LEHB32-.LFB8288
	.uleb128 .LEHE32-.LEHB32
	.uleb128 .L865-.LFB8288
	.uleb128 0
	.uleb128 .LEHB33-.LFB8288
	.uleb128 .LEHE33-.LEHB33
	.uleb128 0
	.uleb128 0
.LLSDACSE8288:
	.text
	.size	_ZN8asiodnp311MasterStack5WriteERKN8opendnp315TimeAndIntervalEtRKNS1_10TaskConfigE, .-_ZN8asiodnp311MasterStack5WriteERKN8opendnp315TimeAndIntervalEtRKNS1_10TaskConfigE
	.section	.text._ZN8asiodnp311MasterStack13BeginTransmitERKN7openpal6RSliceERN8opendnp312ILinkSessionE,"axG",@progbits,_ZN8asiodnp311MasterStack13BeginTransmitERKN7openpal6RSliceERN8opendnp312ILinkSessionE,comdat
	.align 2
	.p2align 4,,15
	.weak	_ZN8asiodnp311MasterStack13BeginTransmitERKN7openpal6RSliceERN8opendnp312ILinkSessionE
	.type	_ZN8asiodnp311MasterStack13BeginTransmitERKN7openpal6RSliceERN8opendnp312ILinkSessionE, @function
_ZN8asiodnp311MasterStack13BeginTransmitERKN7openpal6RSliceERN8opendnp312ILinkSessionE:
.LFB8059:
	.cfi_startproc
	.cfi_personality 0x9b,DW.ref.__gxx_personality_v0
	.cfi_lsda 0x1b,.LLSDA8059
	pushq	%rbx
	.cfi_def_cfa_offset 16
	.cfi_offset 3, -16
	movq	%rdi, %r8
	subq	$32, %rsp
	.cfi_def_cfa_offset 48
	movq	48(%r8), %rcx
	movq	104(%rdi), %rdi
	movq	%fs:40, %rax
	movq	%rax, 24(%rsp)
	xorl	%eax, %eax
	testq	%rcx, %rcx
	je	.L895
	movl	8(%rcx), %eax
	leaq	8(%rcx), %r9
	testl	%eax, %eax
	je	.L895
	movq	%rsi, %rdx
	leal	1(%rax), %esi
	lock cmpxchgl	%esi, (%r9)
	jne	.L898
.L897:
	movq	40(%r8), %r8
	movl	$0, %esi
	movq	%rcx, 8(%rsp)
	leaq	16(%r8), %rax
	testq	%r8, %r8
	cmove	%rsi, %rax
	movq	%rsp, %rsi
	movq	%rax, (%rsp)
.LEHB34:
	call	_ZN8asiodnp39IOHandler13BeginTransmitERKSt10shared_ptrIN8opendnp312ILinkSessionEERKN7openpal6RSliceE@PLT
.LEHE34:
	movq	8(%rsp), %rdi
	testq	%rdi, %rdi
	je	.L894
	call	_ZNSt16_Sp_counted_baseILN9__gnu_cxx12_Lock_policyE2EE10_M_releaseEv@PLT
.L894:
	movq	24(%rsp), %rax
	xorq	%fs:40, %rax
	jne	.L924
	addq	$32, %rsp
	.cfi_remember_state
	.cfi_def_cfa_offset 16
	popq	%rbx
	.cfi_def_cfa_offset 8
	ret
.L895:
	.cfi_restore_state
.LEHB35:
	call	_ZSt20__throw_bad_weak_ptrv@PLT
.L924:
	call	__stack_chk_fail@PLT
.L898:
	testl	%eax, %eax
	je	.L895
	leal	1(%rax), %esi
	lock cmpxchgl	%esi, (%r9)
	je	.L897
	jmp	.L898
.L906:
	movq	8(%rsp), %rdi
	movq	%rax, %rbx
	testq	%rdi, %rdi
	je	.L903
	call	_ZNSt16_Sp_counted_baseILN9__gnu_cxx12_Lock_policyE2EE10_M_releaseEv@PLT
.L903:
	movq	%rbx, %rdi
	call	_Unwind_Resume@PLT
.LEHE35:
	.cfi_endproc
.LFE8059:
	.section	.gcc_except_table
.LLSDA8059:
	.byte	0xff
	.byte	0xff
	.byte	0x1
	.uleb128 .LLSDACSE8059-.LLSDACSB8059
.LLSDACSB8059:
	.uleb128 .LEHB34-.LFB8059
	.uleb128 .LEHE34-.LEHB34
	.uleb128 .L906-.LFB8059
	.uleb128 0
	.uleb128 .LEHB35-.LFB8059
	.uleb128 .LEHE35-.LEHB35
	.uleb128 0
	.uleb128 0
.LLSDACSE8059:
	.section	.text._ZN8asiodnp311MasterStack13BeginTransmitERKN7openpal6RSliceERN8opendnp312ILinkSessionE,"axG",@progbits,_ZN8asiodnp311MasterStack13BeginTransmitERKN7openpal6RSliceERN8opendnp312ILinkSessionE,comdat
	.size	_ZN8asiodnp311MasterStack13BeginTransmitERKN7openpal6RSliceERN8opendnp312ILinkSessionE, .-_ZN8asiodnp311MasterStack13BeginTransmitERKN7openpal6RSliceERN8opendnp312ILinkSessionE
	.text
	.align 2
	.p2align 4,,15
	.globl	_ZN8asiodnp311MasterStack8ShutdownEv
	.type	_ZN8asiodnp311MasterStack8ShutdownEv, @function
_ZN8asiodnp311MasterStack8ShutdownEv:
.LFB8151:
	.cfi_startproc
	.cfi_personality 0x9b,DW.ref.__gxx_personality_v0
	.cfi_lsda 0x1b,.LLSDA8151
	pushq	%r14
	.cfi_def_cfa_offset 16
	.cfi_offset 14, -16
	pushq	%r13
	.cfi_def_cfa_offset 24
	.cfi_offset 13, -24
	pushq	%r12
	.cfi_def_cfa_offset 32
	.cfi_offset 12, -32
	pushq	%rbp
	.cfi_def_cfa_offset 40
	.cfi_offset 6, -40
	pushq	%rbx
	.cfi_def_cfa_offset 48
	.cfi_offset 3, -48
	subq	$48, %rsp
	.cfi_def_cfa_offset 96
	movq	48(%rdi), %rbx
	movq	%fs:40, %rax
	movq	%rax, 40(%rsp)
	xorl	%eax, %eax
	testq	%rbx, %rbx
	je	.L926
	movl	8(%rbx), %eax
	leaq	8(%rbx), %rbp
	testl	%eax, %eax
	je	.L926
.L963:
	leal	1(%rax), %edx
	lock cmpxchgl	%edx, 0(%rbp)
	jne	.L968
	movq	_ZL28__gthrw___pthread_key_createPjPFvPvE@GOTPCREL(%rip), %r12
	movq	40(%rdi), %r14
	testq	%r12, %r12
	jne	.L969
	movq	88(%rdi), %r13
	addl	$2, 8(%rbx)
.L932:
	movl	$16, %edi
	movq	$0, 16(%rsp)
.LEHB36:
	call	_Znwm@PLT
.LEHE36:
	testq	%r12, %r12
	movq	%r14, (%rax)
	movq	%rbx, 8(%rax)
	jne	.L970
	addl	$1, 8(%rbx)
.L934:
	movq	_ZNSt14_Function_base13_Base_managerIZN8asiodnp39StackBase15PerformShutdownINS1_11MasterStackEEEvRKSt10shared_ptrIT_EEUlvE_E10_M_managerERSt9_Any_dataRKSC_St18_Manager_operation@GOTPCREL(%rip), %xmm0
	movq	%rsp, %rbp
	movq	%r13, %rdi
	movhps	_ZNSt17_Function_handlerIFvvEZN8asiodnp39StackBase15PerformShutdownINS1_11MasterStackEEEvRKSt10shared_ptrIT_EEUlvE_E9_M_invokeERKSt9_Any_data@GOTPCREL(%rip), %xmm0
	movq	%rbp, %rsi
	movq	%rax, (%rsp)
	movaps	%xmm0, 16(%rsp)
.LEHB37:
	call	_ZN7asiopal8Executor18BlockUntilAndFlushERKSt8functionIFvvEE@PLT
.LEHE37:
	movq	16(%rsp), %rax
	testq	%rax, %rax
	je	.L939
	movl	$3, %edx
	movq	%rbp, %rsi
	movq	%rbp, %rdi
	call	*%rax
.L939:
	movq	%rbx, %rdi
	call	_ZNSt16_Sp_counted_baseILN9__gnu_cxx12_Lock_policyE2EE10_M_releaseEv@PLT
	movq	%rbx, %rdi
	call	_ZNSt16_Sp_counted_baseILN9__gnu_cxx12_Lock_policyE2EE10_M_releaseEv@PLT
	movq	%rbx, %rdi
	call	_ZNSt16_Sp_counted_baseILN9__gnu_cxx12_Lock_policyE2EE10_M_releaseEv@PLT
	movq	40(%rsp), %rax
	xorq	%fs:40, %rax
	jne	.L971
	addq	$48, %rsp
	.cfi_remember_state
	.cfi_def_cfa_offset 48
	popq	%rbx
	.cfi_def_cfa_offset 40
	popq	%rbp
	.cfi_def_cfa_offset 32
	popq	%r12
	.cfi_def_cfa_offset 24
	popq	%r13
	.cfi_def_cfa_offset 16
	popq	%r14
	.cfi_def_cfa_offset 8
	ret
	.p2align 4,,10
	.p2align 3
.L969:
	.cfi_restore_state
	lock addl	$1, 0(%rbp)
	movq	88(%rdi), %r13
	lock addl	$1, 0(%rbp)
	jmp	.L932
	.p2align 4,,10
	.p2align 3
.L970:
	lock addl	$1, 0(%rbp)
	jmp	.L934
.L968:
	testl	%eax, %eax
	jne	.L963
.L926:
.LEHB38:
	call	_ZSt20__throw_bad_weak_ptrv@PLT
.LEHE38:
.L971:
	call	__stack_chk_fail@PLT
.L944:
	movq	%rax, %rbp
	movq	16(%rsp), %rax
	testq	%rax, %rax
	je	.L938
	movq	%rsp, %rdi
	movl	$3, %edx
	movq	%rdi, %rsi
	call	*%rax
.L938:
	movq	%rbx, %rdi
	call	_ZNSt16_Sp_counted_baseILN9__gnu_cxx12_Lock_policyE2EE10_M_releaseEv@PLT
	movq	%rbx, %rdi
	call	_ZNSt16_Sp_counted_baseILN9__gnu_cxx12_Lock_policyE2EE10_M_releaseEv@PLT
	movq	%rbx, %rdi
	call	_ZNSt16_Sp_counted_baseILN9__gnu_cxx12_Lock_policyE2EE10_M_releaseEv@PLT
	movq	%rbp, %rdi
.LEHB39:
	call	_Unwind_Resume@PLT
.LEHE39:
.L943:
	movq	%rax, %r12
	movq	16(%rsp), %rax
	testq	%rax, %rax
	je	.L941
	movl	$3, %edx
	movq	%rbp, %rsi
	movq	%rbp, %rdi
	call	*%rax
.L941:
	movq	%r12, %rbp
	jmp	.L938
	.cfi_endproc
.LFE8151:
	.section	.gcc_except_table
.LLSDA8151:
	.byte	0xff
	.byte	0xff
	.byte	0x1
	.uleb128 .LLSDACSE8151-.LLSDACSB8151
.LLSDACSB8151:
	.uleb128 .LEHB36-.LFB8151
	.uleb128 .LEHE36-.LEHB36
	.uleb128 .L944-.LFB8151
	.uleb128 0
	.uleb128 .LEHB37-.LFB8151
	.uleb128 .LEHE37-.LEHB37
	.uleb128 .L943-.LFB8151
	.uleb128 0
	.uleb128 .LEHB38-.LFB8151
	.uleb128 .LEHE38-.LEHB38
	.uleb128 0
	.uleb128 0
	.uleb128 .LEHB39-.LFB8151
	.uleb128 .LEHE39-.LEHB39
	.uleb128 0
	.uleb128 0
.LLSDACSE8151:
	.text
	.size	_ZN8asiodnp311MasterStack8ShutdownEv, .-_ZN8asiodnp311MasterStack8ShutdownEv
	.set	.LTHUNK13,_ZN8asiodnp311MasterStack8ShutdownEv
	.p2align 4,,15
	.globl	_ZThn8_N8asiodnp311MasterStack8ShutdownEv
	.type	_ZThn8_N8asiodnp311MasterStack8ShutdownEv, @function
_ZThn8_N8asiodnp311MasterStack8ShutdownEv:
.LFB12668:
	.cfi_startproc
	subq	$8, %rdi
	jmp	.LTHUNK13
	.cfi_endproc
.LFE12668:
	.size	_ZThn8_N8asiodnp311MasterStack8ShutdownEv, .-_ZThn8_N8asiodnp311MasterStack8ShutdownEv
	.section	.text._ZNSt14_Function_base13_Base_managerIZN8asiodnp39StackBase15PerformShutdownINS1_11MasterStackEEEvRKSt10shared_ptrIT_EEUlvE_E10_M_managerERSt9_Any_dataRKSC_St18_Manager_operation,"axG",@progbits,_ZNSt14_Function_base13_Base_managerIZN8asiodnp39StackBase15PerformShutdownINS1_11MasterStackEEEvRKSt10shared_ptrIT_EEUlvE_E10_M_managerERSt9_Any_dataRKSC_St18_Manager_operation,comdat
	.p2align 4,,15
	.weak	_ZNSt14_Function_base13_Base_managerIZN8asiodnp39StackBase15PerformShutdownINS1_11MasterStackEEEvRKSt10shared_ptrIT_EEUlvE_E10_M_managerERSt9_Any_dataRKSC_St18_Manager_operation
	.type	_ZNSt14_Function_base13_Base_managerIZN8asiodnp39StackBase15PerformShutdownINS1_11MasterStackEEEvRKSt10shared_ptrIT_EEUlvE_E10_M_managerERSt9_Any_dataRKSC_St18_Manager_operation, @function
_ZNSt14_Function_base13_Base_managerIZN8asiodnp39StackBase15PerformShutdownINS1_11MasterStackEEEvRKSt10shared_ptrIT_EEUlvE_E10_M_managerERSt9_Any_dataRKSC_St18_Manager_operation:
.LFB10475:
	.cfi_startproc
	cmpl	$1, %edx
	je	.L974
	jb	.L975
	cmpl	$2, %edx
	pushq	%r12
	.cfi_def_cfa_offset 16
	.cfi_offset 12, -16
	pushq	%rbp
	.cfi_def_cfa_offset 24
	.cfi_offset 6, -24
	pushq	%rbx
	.cfi_def_cfa_offset 32
	.cfi_offset 3, -32
	movq	%rdi, %rbx
	je	.L976
	cmpl	$3, %edx
	jne	.L973
	movq	(%rdi), %rbx
	testq	%rbx, %rbx
	je	.L973
	movq	8(%rbx), %rdi
	testq	%rdi, %rdi
	je	.L978
	call	_ZNSt16_Sp_counted_baseILN9__gnu_cxx12_Lock_policyE2EE10_M_releaseEv@PLT
.L978:
	movq	%rbx, %rdi
	movl	$16, %esi
	call	_ZdlPvm@PLT
	popq	%rbx
	.cfi_remember_state
	.cfi_def_cfa_offset 24
	xorl	%eax, %eax
	popq	%rbp
	.cfi_def_cfa_offset 16
	popq	%r12
	.cfi_def_cfa_offset 8
	ret
	.p2align 4,,10
	.p2align 3
.L976:
	.cfi_restore_state
	movq	(%rsi), %r12
	movl	$16, %edi
	call	_Znwm@PLT
	movq	%rax, %rbp
	movq	%rax, %rdi
	movq	%r12, %rsi
	call	_ZNSt12__shared_ptrIN8asiodnp311MasterStackELN9__gnu_cxx12_Lock_policyE2EEC2ERKS4_@PLT
	movq	%rbp, (%rbx)
.L973:
	popq	%rbx
	.cfi_def_cfa_offset 24
	xorl	%eax, %eax
	popq	%rbp
	.cfi_def_cfa_offset 16
	popq	%r12
	.cfi_def_cfa_offset 8
	ret
	.p2align 4,,10
	.p2align 3
.L975:
	.cfi_restore 3
	.cfi_restore 6
	.cfi_restore 12
	movq	_ZTIZN8asiodnp39StackBase15PerformShutdownINS_11MasterStackEEEvRKSt10shared_ptrIT_EEUlvE_@GOTPCREL(%rip), %rax
	movq	%rax, (%rdi)
	xorl	%eax, %eax
	ret
	.p2align 4,,10
	.p2align 3
.L974:
	movq	(%rsi), %rax
	movq	%rax, (%rdi)
	xorl	%eax, %eax
	ret
	.cfi_endproc
.LFE10475:
	.size	_ZNSt14_Function_base13_Base_managerIZN8asiodnp39StackBase15PerformShutdownINS1_11MasterStackEEEvRKSt10shared_ptrIT_EEUlvE_E10_M_managerERSt9_Any_dataRKSC_St18_Manager_operation, .-_ZNSt14_Function_base13_Base_managerIZN8asiodnp39StackBase15PerformShutdownINS1_11MasterStackEEEvRKSt10shared_ptrIT_EEUlvE_E10_M_managerERSt9_Any_dataRKSC_St18_Manager_operation
	.section	.text.unlikely
	.align 2
	.type	_ZZN8asiodnp311MasterStack15PerformFunctionERKNSt7__cxx1112basic_stringIcSt11char_traitsIcESaIcEEEN8opendnp312FunctionCodeERKSt6vectorINS9_6HeaderESaISC_EERKNS9_10TaskConfigEENUlvE_D2Ev, @function
_ZZN8asiodnp311MasterStack15PerformFunctionERKNSt7__cxx1112basic_stringIcSt11char_traitsIcESaIcEEEN8opendnp312FunctionCodeERKSt6vectorINS9_6HeaderESaISC_EERKNS9_10TaskConfigEENUlvE_D2Ev:
.LFB8310:
	.cfi_startproc
	.cfi_personality 0x9b,DW.ref.__gxx_personality_v0
	.cfi_lsda 0x1b,.LLSDA8310
	pushq	%rbx
	.cfi_def_cfa_offset 16
	.cfi_offset 3, -16
	movq	72(%rdi), %rax
	movq	%rdi, %rbx
	testq	%rax, %rax
	je	.L990
	leaq	56(%rdi), %rdi
	movl	$3, %edx
	movq	%rdi, %rsi
	call	*%rax
.L990:
	movq	16(%rbx), %rdi
	leaq	32(%rbx), %rax
	cmpq	%rax, %rdi
	je	.L991
	call	_ZdlPv@PLT
.L991:
	movq	8(%rbx), %rdi
	testq	%rdi, %rdi
	je	.L989
	popq	%rbx
	.cfi_remember_state
	.cfi_def_cfa_offset 8
	jmp	_ZNSt16_Sp_counted_baseILN9__gnu_cxx12_Lock_policyE2EE10_M_releaseEv@PLT
.L989:
	.cfi_restore_state
	popq	%rbx
	.cfi_def_cfa_offset 8
	ret
	.cfi_endproc
.LFE8310:
	.section	.gcc_except_table
.LLSDA8310:
	.byte	0xff
	.byte	0xff
	.byte	0x1
	.uleb128 .LLSDACSE8310-.LLSDACSB8310
.LLSDACSB8310:
.LLSDACSE8310:
	.section	.text.unlikely
	.size	_ZZN8asiodnp311MasterStack15PerformFunctionERKNSt7__cxx1112basic_stringIcSt11char_traitsIcESaIcEEEN8opendnp312FunctionCodeERKSt6vectorINS9_6HeaderESaISC_EERKNS9_10TaskConfigEENUlvE_D2Ev, .-_ZZN8asiodnp311MasterStack15PerformFunctionERKNSt7__cxx1112basic_stringIcSt11char_traitsIcESaIcEEEN8opendnp312FunctionCodeERKSt6vectorINS9_6HeaderESaISC_EERKNS9_10TaskConfigEENUlvE_D2Ev
	.set	_ZZN8asiodnp311MasterStack15PerformFunctionERKNSt7__cxx1112basic_stringIcSt11char_traitsIcESaIcEEEN8opendnp312FunctionCodeERKSt6vectorINS9_6HeaderESaISC_EERKNS9_10TaskConfigEENUlvE_D1Ev,_ZZN8asiodnp311MasterStack15PerformFunctionERKNSt7__cxx1112basic_stringIcSt11char_traitsIcESaIcEEEN8opendnp312FunctionCodeERKSt6vectorINS9_6HeaderESaISC_EERKNS9_10TaskConfigEENUlvE_D2Ev
	.section	.text._ZN4asio6detail18completion_handlerIZN7asiopal8Executor10ReturnFromISt10shared_ptrIN8opendnp311IMasterTaskEEEET_RKSt8functionIFS9_vEEEUlvE_E11do_completeEPNS0_15task_io_serviceEPNS0_25task_io_service_operationERKSt10error_codem,"axG",@progbits,_ZN4asio6detail18completion_handlerIZN7asiopal8Executor10ReturnFromISt10shared_ptrIN8opendnp311IMasterTaskEEEET_RKSt8functionIFS9_vEEEUlvE_E11do_completeEPNS0_15task_io_serviceEPNS0_25task_io_service_operationERKSt10error_codem,comdat
	.p2align 4,,15
	.weak	_ZN4asio6detail18completion_handlerIZN7asiopal8Executor10ReturnFromISt10shared_ptrIN8opendnp311IMasterTaskEEEET_RKSt8functionIFS9_vEEEUlvE_E11do_completeEPNS0_15task_io_serviceEPNS0_25task_io_service_operationERKSt10error_codem
	.type	_ZN4asio6detail18completion_handlerIZN7asiopal8Executor10ReturnFromISt10shared_ptrIN8opendnp311IMasterTaskEEEET_RKSt8functionIFS9_vEEEUlvE_E11do_completeEPNS0_15task_io_serviceEPNS0_25task_io_service_operationERKSt10error_codem, @function
_ZN4asio6detail18completion_handlerIZN7asiopal8Executor10ReturnFromISt10shared_ptrIN8opendnp311IMasterTaskEEEET_RKSt8functionIFS9_vEEEUlvE_E11do_completeEPNS0_15task_io_serviceEPNS0_25task_io_service_operationERKSt10error_codem:
.LFB11344:
	.cfi_startproc
	.cfi_personality 0x9b,DW.ref.__gxx_personality_v0
	.cfi_lsda 0x1b,.LLSDA11344
	pushq	%r13
	.cfi_def_cfa_offset 16
	.cfi_offset 13, -16
	pushq	%r12
	.cfi_def_cfa_offset 24
	.cfi_offset 12, -24
	movq	%rdi, %r13
	pushq	%rbp
	.cfi_def_cfa_offset 32
	.cfi_offset 6, -32
	pushq	%rbx
	.cfi_def_cfa_offset 40
	.cfi_offset 3, -40
	movq	%rsi, %rbx
	subq	$168, %rsp
	.cfi_def_cfa_offset 208
	movq	24(%rsi), %r12
	movq	32(%rsi), %rbp
	movq	%fs:40, %rax
	movq	%rax, 152(%rsp)
	xorl	%eax, %eax
	.byte	0x66
	leaq	_ZN4asio6detail15keyword_tss_ptrINS0_10call_stackINS0_15task_io_serviceENS0_27task_io_service_thread_infoEE7contextEE6value_E@tlsgd(%rip), %rdi
	.value	0x6666
	rex64
	call	__tls_get_addr@PLT
	movq	(%rax), %rax
	testq	%rax, %rax
	je	.L998
	movq	8(%rax), %rax
	testq	%rax, %rax
	je	.L998
	cmpq	$0, (%rax)
	je	.L1038
.L998:
	movq	%rbx, %rdi
	call	_ZdlPv@PLT
.L999:
	testq	%r13, %r13
	je	.L997
	cmpq	$0, 16(%rbp)
	je	.L1039
	leaq	48(%rsp), %r13
	movq	%rbp, %rsi
	movq	%r13, %rdi
.LEHB40:
	call	*24(%rbp)
.LEHE40:
	movq	(%r12), %rbx
	testq	%rbx, %rbx
	je	.L1040
	leaq	23(%rsp), %rax
	movq	_ZNSt14_Function_base13_Base_managerINSt13__future_base13_State_baseV27_SetterISt10shared_ptrIN8opendnp311IMasterTaskEEOS7_EEE10_M_managerERSt9_Any_dataRKSB_St18_Manager_operation@GOTPCREL(%rip), %xmm0
	movhps	_ZNSt17_Function_handlerIFSt10unique_ptrINSt13__future_base12_Result_baseENS2_8_DeleterEEvENS1_13_State_baseV27_SetterISt10shared_ptrIN8opendnp311IMasterTaskEEOSB_EEE9_M_invokeERKSt9_Any_data@GOTPCREL(%rip), %xmm0
	leaq	112(%rsp), %rbp
	movq	%r12, 112(%rsp)
	movq	%rax, 40(%rsp)
	movq	_ZNSt13__future_base13_State_baseV29_M_do_setEPSt8functionIFSt10unique_ptrINS_12_Result_baseENS3_8_DeleterEEvEEPb@GOTPCREL(%rip), %rax
	movaps	%xmm0, 128(%rsp)
	movq	%r13, 120(%rsp)
	movb	$0, 23(%rsp)
	movq	%rax, 64(%rsp)
	leaq	64(%rsp), %rax
	movq	%rbp, 32(%rsp)
	movq	%rbx, 24(%rsp)
	movq	$0, 72(%rsp)
	movq	%rax, 8(%rsp)
	leaq	24(%rsp), %rax
	movq	8(%rsp), %xmm0
	movq	%rax, 8(%rsp)
	leaq	32(%rsp), %rax
	movhps	8(%rsp), %xmm0
	movq	%rax, 8(%rsp)
	leaq	40(%rsp), %rax
	movaps	%xmm0, 80(%rsp)
	movq	8(%rsp), %xmm0
	movq	%rax, 8(%rsp)
	movhps	8(%rsp), %xmm0
	movaps	%xmm0, 96(%rsp)
	.byte	0x66
	leaq	_ZSt15__once_callable@tlsgd(%rip), %rdi
	.value	0x6666
	rex64
	call	__tls_get_addr@PLT
	leaq	80(%rsp), %rdx
	movq	%rdx, (%rax)
	.byte	0x66
	leaq	_ZSt11__once_call@tlsgd(%rip), %rdi
	.value	0x6666
	rex64
	call	__tls_get_addr@PLT
	cmpq	$0, _ZL28__gthrw___pthread_key_createPjPFvPvE@GOTPCREL(%rip)
	movq	_ZZSt9call_onceIMNSt13__future_base13_State_baseV2EFvPSt8functionIFSt10unique_ptrINS0_12_Result_baseENS4_8_DeleterEEvEEPbEJPS1_S9_SA_EEvRSt9once_flagOT_DpOT0_ENUlvE0_4_FUNEv@GOTPCREL(%rip), %rdx
	leaq	24(%rbx), %rdi
	movq	%rdx, (%rax)
	je	.L1018
	movq	__once_proxy@GOTPCREL(%rip), %rsi
.LEHB41:
	call	_ZL20__gthrw_pthread_oncePiPFvvE@PLT
	testl	%eax, %eax
	jne	.L1003
	cmpb	$0, 23(%rsp)
	jne	.L1041
	movl	$2, %edi
	call	_ZSt20__throw_future_errori@PLT
	.p2align 4,,10
	.p2align 3
.L1041:
	leaq	16(%rbx), %rdi
	movl	$1, %eax
	xchgl	(%rdi), %eax
	testl	%eax, %eax
	jns	.L1009
	call	_ZNSt28__atomic_futex_unsigned_base19_M_futex_notify_allEPj@PLT
.LEHE41:
.L1009:
	movq	128(%rsp), %rax
	testq	%rax, %rax
	je	.L1008
	movl	$3, %edx
	movq	%rbp, %rsi
	movq	%rbp, %rdi
	call	*%rax
.L1008:
	movq	56(%rsp), %rdi
	testq	%rdi, %rdi
	je	.L1011
	call	_ZNSt16_Sp_counted_baseILN9__gnu_cxx12_Lock_policyE2EE10_M_releaseEv@PLT
.L1011:
	sfence
.L997:
	movq	152(%rsp), %rax
	xorq	%fs:40, %rax
	jne	.L1042
	addq	$168, %rsp
	.cfi_remember_state
	.cfi_def_cfa_offset 40
	popq	%rbx
	.cfi_def_cfa_offset 32
	popq	%rbp
	.cfi_def_cfa_offset 24
	popq	%r12
	.cfi_def_cfa_offset 16
	popq	%r13
	.cfi_def_cfa_offset 8
	ret
	.p2align 4,,10
	.p2align 3
.L1038:
	.cfi_restore_state
	movzbl	40(%rbx), %edx
	movb	%dl, (%rbx)
	movq	%rbx, (%rax)
	jmp	.L999
.L1021:
	movq	%rax, %rbx
	movq	128(%rsp), %rax
	testq	%rax, %rax
	je	.L1014
	movl	$3, %edx
	movq	%rbp, %rsi
	movq	%rbp, %rdi
	call	*%rax
.L1014:
	movq	56(%rsp), %rdi
	testq	%rdi, %rdi
	je	.L1015
	call	_ZNSt16_Sp_counted_baseILN9__gnu_cxx12_Lock_policyE2EE10_M_releaseEv@PLT
.L1015:
	movq	%rbx, %rax
.L1016:
	movq	%rax, %rdi
	sfence
.LEHB42:
	call	_Unwind_Resume@PLT
.LEHE42:
.L1018:
	orl	$-1, %eax
.L1003:
	movl	%eax, %edi
.LEHB43:
	call	_ZSt20__throw_system_errori@PLT
.LEHE43:
.L1040:
	movl	$3, %edi
.LEHB44:
	call	_ZSt20__throw_future_errori@PLT
.LEHE44:
.L1020:
	movq	%rax, %rbx
	jmp	.L1014
.L1039:
.LEHB45:
	call	_ZSt25__throw_bad_function_callv@PLT
.LEHE45:
.L1019:
	jmp	.L1016
.L1042:
	call	__stack_chk_fail@PLT
	.cfi_endproc
.LFE11344:
	.section	.gcc_except_table
.LLSDA11344:
	.byte	0xff
	.byte	0xff
	.byte	0x1
	.uleb128 .LLSDACSE11344-.LLSDACSB11344
.LLSDACSB11344:
	.uleb128 .LEHB40-.LFB11344
	.uleb128 .LEHE40-.LEHB40
	.uleb128 .L1019-.LFB11344
	.uleb128 0
	.uleb128 .LEHB41-.LFB11344
	.uleb128 .LEHE41-.LEHB41
	.uleb128 .L1021-.LFB11344
	.uleb128 0
	.uleb128 .LEHB42-.LFB11344
	.uleb128 .LEHE42-.LEHB42
	.uleb128 0
	.uleb128 0
	.uleb128 .LEHB43-.LFB11344
	.uleb128 .LEHE43-.LEHB43
	.uleb128 .L1021-.LFB11344
	.uleb128 0
	.uleb128 .LEHB44-.LFB11344
	.uleb128 .LEHE44-.LEHB44
	.uleb128 .L1020-.LFB11344
	.uleb128 0
	.uleb128 .LEHB45-.LFB11344
	.uleb128 .LEHE45-.LEHB45
	.uleb128 .L1019-.LFB11344
	.uleb128 0
.LLSDACSE11344:
	.section	.text._ZN4asio6detail18completion_handlerIZN7asiopal8Executor10ReturnFromISt10shared_ptrIN8opendnp311IMasterTaskEEEET_RKSt8functionIFS9_vEEEUlvE_E11do_completeEPNS0_15task_io_serviceEPNS0_25task_io_service_operationERKSt10error_codem,"axG",@progbits,_ZN4asio6detail18completion_handlerIZN7asiopal8Executor10ReturnFromISt10shared_ptrIN8opendnp311IMasterTaskEEEET_RKSt8functionIFS9_vEEEUlvE_E11do_completeEPNS0_15task_io_serviceEPNS0_25task_io_service_operationERKSt10error_codem,comdat
	.size	_ZN4asio6detail18completion_handlerIZN7asiopal8Executor10ReturnFromISt10shared_ptrIN8opendnp311IMasterTaskEEEET_RKSt8functionIFS9_vEEEUlvE_E11do_completeEPNS0_15task_io_serviceEPNS0_25task_io_service_operationERKSt10error_codem, .-_ZN4asio6detail18completion_handlerIZN7asiopal8Executor10ReturnFromISt10shared_ptrIN8opendnp311IMasterTaskEEEET_RKSt8functionIFS9_vEEEUlvE_E11do_completeEPNS0_15task_io_serviceEPNS0_25task_io_service_operationERKSt10error_codem
	.section	.text._ZNSt13__future_base7_ResultISt10shared_ptrIN8opendnp311IMasterTaskEEED2Ev,"axG",@progbits,_ZNSt13__future_base7_ResultISt10shared_ptrIN8opendnp311IMasterTaskEEED5Ev,comdat
	.align 2
	.p2align 4,,15
	.weak	_ZNSt13__future_base7_ResultISt10shared_ptrIN8opendnp311IMasterTaskEEED2Ev
	.type	_ZNSt13__future_base7_ResultISt10shared_ptrIN8opendnp311IMasterTaskEEED2Ev, @function
_ZNSt13__future_base7_ResultISt10shared_ptrIN8opendnp311IMasterTaskEEED2Ev:
.LFB12200:
	.cfi_startproc
	movq	_ZTVNSt13__future_base7_ResultISt10shared_ptrIN8opendnp311IMasterTaskEEEE@GOTPCREL(%rip), %rax
	pushq	%rbx
	.cfi_def_cfa_offset 16
	.cfi_offset 3, -16
	movq	%rdi, %rbx
	addq	$16, %rax
	cmpb	$0, 32(%rdi)
	movq	%rax, (%rdi)
	je	.L1044
	movq	24(%rdi), %rdi
	testq	%rdi, %rdi
	je	.L1044
	call	_ZNSt16_Sp_counted_baseILN9__gnu_cxx12_Lock_policyE2EE10_M_releaseEv@PLT
.L1044:
	movq	%rbx, %rdi
	popq	%rbx
	.cfi_def_cfa_offset 8
	jmp	_ZNSt13__future_base12_Result_baseD2Ev@PLT
	.cfi_endproc
.LFE12200:
	.size	_ZNSt13__future_base7_ResultISt10shared_ptrIN8opendnp311IMasterTaskEEED2Ev, .-_ZNSt13__future_base7_ResultISt10shared_ptrIN8opendnp311IMasterTaskEEED2Ev
	.weak	_ZNSt13__future_base7_ResultISt10shared_ptrIN8opendnp311IMasterTaskEEED1Ev
	.set	_ZNSt13__future_base7_ResultISt10shared_ptrIN8opendnp311IMasterTaskEEED1Ev,_ZNSt13__future_base7_ResultISt10shared_ptrIN8opendnp311IMasterTaskEEED2Ev
	.section	.text._ZNSt17_Function_handlerIFvvEZN8asiodnp39StackBase15PerformShutdownINS1_11MasterStackEEEvRKSt10shared_ptrIT_EEUlvE_E9_M_invokeERKSt9_Any_data,"axG",@progbits,_ZNSt17_Function_handlerIFvvEZN8asiodnp39StackBase15PerformShutdownINS1_11MasterStackEEEvRKSt10shared_ptrIT_EEUlvE_E9_M_invokeERKSt9_Any_data,comdat
	.p2align 4,,15
	.weak	_ZNSt17_Function_handlerIFvvEZN8asiodnp39StackBase15PerformShutdownINS1_11MasterStackEEEvRKSt10shared_ptrIT_EEUlvE_E9_M_invokeERKSt9_Any_data
	.type	_ZNSt17_Function_handlerIFvvEZN8asiodnp39StackBase15PerformShutdownINS1_11MasterStackEEEvRKSt10shared_ptrIT_EEUlvE_E9_M_invokeERKSt9_Any_data, @function
_ZNSt17_Function_handlerIFvvEZN8asiodnp39StackBase15PerformShutdownINS1_11MasterStackEEEvRKSt10shared_ptrIT_EEUlvE_E9_M_invokeERKSt9_Any_data:
.LFB10474:
	.cfi_startproc
	.cfi_personality 0x9b,DW.ref.__gxx_personality_v0
	.cfi_lsda 0x1b,.LLSDA10474
	pushq	%r13
	.cfi_def_cfa_offset 16
	.cfi_offset 13, -16
	pushq	%r12
	.cfi_def_cfa_offset 24
	.cfi_offset 12, -24
	pushq	%rbp
	.cfi_def_cfa_offset 32
	.cfi_offset 6, -32
	pushq	%rbx
	.cfi_def_cfa_offset 40
	.cfi_offset 3, -40
	subq	$40, %rsp
	.cfi_def_cfa_offset 80
	movq	(%rdi), %rbp
	movq	%fs:40, %rax
	movq	%rax, 24(%rsp)
	xorl	%eax, %eax
	movq	0(%rbp), %rax
	movq	104(%rax), %rdi
	addq	$16, %rax
	movq	%rax, (%rsp)
	movq	8(%rbp), %rax
	testq	%rax, %rax
	movq	%rax, 8(%rsp)
	je	.L1051
	cmpq	$0, _ZL28__gthrw___pthread_key_createPjPFvPvE@GOTPCREL(%rip)
	jne	.L1119
	addl	$1, 8(%rax)
.L1051:
	movq	%rsp, %r12
	movq	%r12, %rsi
.LEHB46:
	call	_ZN8asiodnp39IOHandler6RemoveERKSt10shared_ptrIN8opendnp312ILinkSessionEE@PLT
.LEHE46:
	movq	8(%rsp), %rbx
	testq	%rbx, %rbx
	je	.L1054
	cmpq	$0, _ZL28__gthrw___pthread_key_createPjPFvPvE@GOTPCREL(%rip)
	je	.L1055
	lock subl	$1, 8(%rbx)
	je	.L1120
.L1054:
	movq	8(%rbp), %rbx
	movq	0(%rbp), %rax
	testq	%rbx, %rbx
	je	.L1059
	cmpq	$0, _ZL28__gthrw___pthread_key_createPjPFvPvE@GOTPCREL(%rip)
	jne	.L1121
	movl	8(%rbx), %edx
	movq	88(%rax), %rbp
	movq	%rax, (%rsp)
	movq	%rbx, 8(%rsp)
	leal	2(%rdx), %eax
	movl	%eax, 8(%rbx)
.L1061:
	movq	%r12, %rdi
	xorl	%eax, %eax
	movq	40(%rbp), %r13
	call	_ZN4asio28asio_handler_is_continuationEz@PLT
	movl	%eax, %r12d
	addq	$48, %rbp
	.byte	0x66
	leaq	_ZN4asio6detail15keyword_tss_ptrINS0_10call_stackINS0_15task_io_serviceENS0_27task_io_service_thread_infoEE7contextEE6value_E@tlsgd(%rip), %rdi
	.value	0x6666
	rex64
	call	__tls_get_addr@PLT
	movq	(%rax), %rax
	testq	%rax, %rax
	je	.L1062
	movq	8(%rax), %rax
	testq	%rax, %rax
	je	.L1062
	movq	(%rax), %rdx
	testq	%rdx, %rdx
	je	.L1062
	movq	$0, (%rax)
	movzbl	(%rdx), %eax
	cmpb	$39, %al
	jbe	.L1063
	movb	%al, 40(%rdx)
.L1064:
	movq	_ZN4asio6detail18completion_handlerIZZN8asiodnp39StackBase15PerformShutdownINS2_11MasterStackEEEvRKSt10shared_ptrIT_EENKUlvE_clEvEUlvE_E11do_completeEPNS0_15task_io_serviceEPNS0_25task_io_service_operationERKSt10error_codem@GOTPCREL(%rip), %rax
	movq	$0, (%rdx)
	movzbl	%r12b, %ecx
	movl	$0, 16(%rdx)
	movq	%rax, 8(%rdx)
	movq	(%rsp), %rax
	movq	%rax, 24(%rdx)
	movq	8(%rsp), %rax
	testq	%rax, %rax
	movq	%rax, 32(%rdx)
	je	.L1122
	cmpq	$0, _ZL28__gthrw___pthread_key_createPjPFvPvE@GOTPCREL(%rip)
	je	.L1065
	lock addl	$1, 8(%rax)
	movq	%rbp, %rsi
	movq	%r13, %rdi
	call	_ZN4asio6detail14strand_service7do_postERPNS1_11strand_implEPNS0_25task_io_service_operationEb@PLT
	movq	8(%rsp), %rbp
	testq	%rbp, %rbp
	leaq	8(%rbp), %rax
	je	.L1067
.L1087:
	lock subl	$1, (%rax)
	jne	.L1067
	movq	0(%rbp), %rax
	movq	%rbp, %rdi
	call	*16(%rax)
	movl	$-1, %eax
	lock xaddl	%eax, 12(%rbp)
.L1088:
	cmpl	$1, %eax
	je	.L1123
	.p2align 4,,10
	.p2align 3
.L1067:
	testq	%rbx, %rbx
	je	.L1050
	cmpq	$0, _ZL28__gthrw___pthread_key_createPjPFvPvE@GOTPCREL(%rip)
	je	.L1078
	lock subl	$1, 8(%rbx)
	jne	.L1050
	movq	(%rbx), %rax
	movq	%rbx, %rdi
	call	*16(%rax)
	movl	$-1, %eax
	lock xaddl	%eax, 12(%rbx)
.L1089:
	cmpl	$1, %eax
	je	.L1124
	.p2align 4,,10
	.p2align 3
.L1050:
	movq	24(%rsp), %rax
	xorq	%fs:40, %rax
	jne	.L1125
	addq	$40, %rsp
	.cfi_remember_state
	.cfi_def_cfa_offset 40
	popq	%rbx
	.cfi_def_cfa_offset 32
	popq	%rbp
	.cfi_def_cfa_offset 24
	popq	%r12
	.cfi_def_cfa_offset 16
	popq	%r13
	.cfi_def_cfa_offset 8
	ret
	.p2align 4,,10
	.p2align 3
.L1121:
	.cfi_restore_state
	leaq	8(%rbx), %rdx
	lock addl	$1, (%rdx)
	movq	0(%rbp), %rcx
	movq	88(%rcx), %rbp
	movq	%rax, (%rsp)
	movq	%rbx, 8(%rsp)
	lock addl	$1, (%rdx)
	jmp	.L1061
	.p2align 4,,10
	.p2align 3
.L1119:
	lock addl	$1, 8(%rax)
	jmp	.L1051
	.p2align 4,,10
	.p2align 3
.L1055:
	movl	8(%rbx), %eax
	leal	-1(%rax), %edx
	cmpl	$1, %eax
	movl	%edx, 8(%rbx)
	jne	.L1054
	movq	(%rbx), %rax
	movq	%rbx, %rdi
	call	*16(%rax)
	movl	12(%rbx), %eax
	leal	-1(%rax), %edx
	movl	%edx, 12(%rbx)
	jmp	.L1086
	.p2align 4,,10
	.p2align 3
.L1063:
	movq	%rdx, %rdi
	call	_ZdlPv@PLT
.L1062:
	movl	$41, %edi
.LEHB47:
	call	_Znwm@PLT
.LEHE47:
	movq	%rax, %rdx
	movb	$40, 40(%rax)
	jmp	.L1064
	.p2align 4,,10
	.p2align 3
.L1122:
	movq	%rbp, %rsi
	movq	%r13, %rdi
	call	_ZN4asio6detail14strand_service7do_postERPNS1_11strand_implEPNS0_25task_io_service_operationEb@PLT
	movq	8(%rsp), %rbp
	testq	%rbp, %rbp
	je	.L1067
	cmpq	$0, _ZL28__gthrw___pthread_key_createPjPFvPvE@GOTPCREL(%rip)
	je	.L1068
	leaq	8(%rbp), %rax
	jmp	.L1087
	.p2align 4,,10
	.p2align 3
.L1059:
	movq	88(%rax), %rbp
	movq	%rax, (%rsp)
	movq	$0, 8(%rsp)
	jmp	.L1061
	.p2align 4,,10
	.p2align 3
.L1065:
	addl	$1, 8(%rax)
	movq	%rbp, %rsi
	movq	%r13, %rdi
	call	_ZN4asio6detail14strand_service7do_postERPNS1_11strand_implEPNS0_25task_io_service_operationEb@PLT
	movq	8(%rsp), %rbp
	testq	%rbp, %rbp
	je	.L1067
.L1068:
	movl	8(%rbp), %eax
	leal	-1(%rax), %edx
	cmpl	$1, %eax
	movl	%edx, 8(%rbp)
	jne	.L1067
	movq	0(%rbp), %rax
	movq	%rbp, %rdi
	call	*16(%rax)
	movl	12(%rbp), %eax
	leal	-1(%rax), %edx
	movl	%edx, 12(%rbp)
	jmp	.L1088
	.p2align 4,,10
	.p2align 3
.L1078:
	movl	8(%rbx), %eax
	leal	-1(%rax), %edx
	cmpl	$1, %eax
	movl	%edx, 8(%rbx)
	jne	.L1050
	movq	(%rbx), %rax
	movq	%rbx, %rdi
	call	*16(%rax)
	movl	12(%rbx), %eax
	leal	-1(%rax), %edx
	movl	%edx, 12(%rbx)
	jmp	.L1089
	.p2align 4,,10
	.p2align 3
.L1120:
	movq	(%rbx), %rax
	movq	%rbx, %rdi
	call	*16(%rax)
	movl	$-1, %eax
	lock xaddl	%eax, 12(%rbx)
.L1086:
	cmpl	$1, %eax
	jne	.L1054
	movq	(%rbx), %rax
	movq	%rbx, %rdi
	call	*24(%rax)
	jmp	.L1054
	.p2align 4,,10
	.p2align 3
.L1123:
	movq	0(%rbp), %rax
	movq	%rbp, %rdi
	call	*24(%rax)
	jmp	.L1067
	.p2align 4,,10
	.p2align 3
.L1124:
	movq	(%rbx), %rax
	movq	%rbx, %rdi
	call	*24(%rax)
	jmp	.L1050
.L1125:
	call	__stack_chk_fail@PLT
.L1091:
	movq	8(%rsp), %rdi
	movq	%rax, %rbx
	testq	%rdi, %rdi
	je	.L1083
	call	_ZNSt16_Sp_counted_baseILN9__gnu_cxx12_Lock_policyE2EE10_M_releaseEv@PLT
.L1083:
	movq	%rbx, %rdi
.LEHB48:
	call	_Unwind_Resume@PLT
.L1092:
	movq	8(%rsp), %rdi
	movq	%rax, %rbp
	testq	%rdi, %rdi
	je	.L1075
	call	_ZNSt16_Sp_counted_baseILN9__gnu_cxx12_Lock_policyE2EE10_M_releaseEv@PLT
.L1075:
	testq	%rbx, %rbx
	je	.L1077
	movq	%rbx, %rdi
	call	_ZNSt16_Sp_counted_baseILN9__gnu_cxx12_Lock_policyE2EE10_M_releaseEv@PLT
.L1077:
	movq	%rbp, %rdi
	call	_Unwind_Resume@PLT
.LEHE48:
	.cfi_endproc
.LFE10474:
	.section	.gcc_except_table
.LLSDA10474:
	.byte	0xff
	.byte	0xff
	.byte	0x1
	.uleb128 .LLSDACSE10474-.LLSDACSB10474
.LLSDACSB10474:
	.uleb128 .LEHB46-.LFB10474
	.uleb128 .LEHE46-.LEHB46
	.uleb128 .L1091-.LFB10474
	.uleb128 0
	.uleb128 .LEHB47-.LFB10474
	.uleb128 .LEHE47-.LEHB47
	.uleb128 .L1092-.LFB10474
	.uleb128 0
	.uleb128 .LEHB48-.LFB10474
	.uleb128 .LEHE48-.LEHB48
	.uleb128 0
	.uleb128 0
.LLSDACSE10474:
	.section	.text._ZNSt17_Function_handlerIFvvEZN8asiodnp39StackBase15PerformShutdownINS1_11MasterStackEEEvRKSt10shared_ptrIT_EEUlvE_E9_M_invokeERKSt9_Any_data,"axG",@progbits,_ZNSt17_Function_handlerIFvvEZN8asiodnp39StackBase15PerformShutdownINS1_11MasterStackEEEvRKSt10shared_ptrIT_EEUlvE_E9_M_invokeERKSt9_Any_data,comdat
	.size	_ZNSt17_Function_handlerIFvvEZN8asiodnp39StackBase15PerformShutdownINS1_11MasterStackEEEvRKSt10shared_ptrIT_EEUlvE_E9_M_invokeERKSt9_Any_data, .-_ZNSt17_Function_handlerIFvvEZN8asiodnp39StackBase15PerformShutdownINS1_11MasterStackEEEvRKSt10shared_ptrIT_EEUlvE_E9_M_invokeERKSt9_Any_data
	.section	.text._ZNSt13__future_base7_ResultISt10shared_ptrIN8opendnp311IMasterTaskEEED0Ev,"axG",@progbits,_ZNSt13__future_base7_ResultISt10shared_ptrIN8opendnp311IMasterTaskEEED5Ev,comdat
	.align 2
	.p2align 4,,15
	.weak	_ZNSt13__future_base7_ResultISt10shared_ptrIN8opendnp311IMasterTaskEEED0Ev
	.type	_ZNSt13__future_base7_ResultISt10shared_ptrIN8opendnp311IMasterTaskEEED0Ev, @function
_ZNSt13__future_base7_ResultISt10shared_ptrIN8opendnp311IMasterTaskEEED0Ev:
.LFB12202:
	.cfi_startproc
	movq	_ZTVNSt13__future_base7_ResultISt10shared_ptrIN8opendnp311IMasterTaskEEEE@GOTPCREL(%rip), %rax
	pushq	%rbx
	.cfi_def_cfa_offset 16
	.cfi_offset 3, -16
	movq	%rdi, %rbx
	addq	$16, %rax
	cmpb	$0, 32(%rdi)
	movq	%rax, (%rdi)
	je	.L1127
	movq	24(%rdi), %rdi
	testq	%rdi, %rdi
	je	.L1127
	call	_ZNSt16_Sp_counted_baseILN9__gnu_cxx12_Lock_policyE2EE10_M_releaseEv@PLT
.L1127:
	movq	%rbx, %rdi
	call	_ZNSt13__future_base12_Result_baseD2Ev@PLT
	movq	%rbx, %rdi
	movl	$40, %esi
	popq	%rbx
	.cfi_def_cfa_offset 8
	jmp	_ZdlPvm@PLT
	.cfi_endproc
.LFE12202:
	.size	_ZNSt13__future_base7_ResultISt10shared_ptrIN8opendnp311IMasterTaskEEED0Ev, .-_ZNSt13__future_base7_ResultISt10shared_ptrIN8opendnp311IMasterTaskEEED0Ev
	.section	.text._ZNSt13__future_base7_ResultISt10shared_ptrIN8opendnp311IMasterTaskEEE10_M_destroyEv,"axG",@progbits,_ZNSt13__future_base7_ResultISt10shared_ptrIN8opendnp311IMasterTaskEEE10_M_destroyEv,comdat
	.align 2
	.p2align 4,,15
	.weak	_ZNSt13__future_base7_ResultISt10shared_ptrIN8opendnp311IMasterTaskEEE10_M_destroyEv
	.type	_ZNSt13__future_base7_ResultISt10shared_ptrIN8opendnp311IMasterTaskEEE10_M_destroyEv, @function
_ZNSt13__future_base7_ResultISt10shared_ptrIN8opendnp311IMasterTaskEEE10_M_destroyEv:
.LFB12198:
	.cfi_startproc
	movq	(%rdi), %rax
	movq	16(%rax), %rax
	cmpq	_ZNSt13__future_base7_ResultISt10shared_ptrIN8opendnp311IMasterTaskEEED0Ev@GOTPCREL(%rip), %rax
	jne	.L1134
	movq	_ZTVNSt13__future_base7_ResultISt10shared_ptrIN8opendnp311IMasterTaskEEEE@GOTPCREL(%rip), %rax
	pushq	%rbx
	.cfi_def_cfa_offset 16
	.cfi_offset 3, -16
	movq	%rdi, %rbx
	addq	$16, %rax
	cmpb	$0, 32(%rdi)
	movq	%rax, (%rdi)
	je	.L1135
	movq	24(%rdi), %rdi
	testq	%rdi, %rdi
	je	.L1135
	call	_ZNSt16_Sp_counted_baseILN9__gnu_cxx12_Lock_policyE2EE10_M_releaseEv@PLT
.L1135:
	movq	%rbx, %rdi
	call	_ZNSt13__future_base12_Result_baseD2Ev@PLT
	movq	%rbx, %rdi
	movl	$40, %esi
	popq	%rbx
	.cfi_restore 3
	.cfi_def_cfa_offset 8
	jmp	_ZdlPvm@PLT
	.p2align 4,,10
	.p2align 3
.L1134:
	jmp	*%rax
	.cfi_endproc
.LFE12198:
	.size	_ZNSt13__future_base7_ResultISt10shared_ptrIN8opendnp311IMasterTaskEEE10_M_destroyEv, .-_ZNSt13__future_base7_ResultISt10shared_ptrIN8opendnp311IMasterTaskEEE10_M_destroyEv
	.section	.text._ZN8asiodnp39StackBaseD2Ev,"axG",@progbits,_ZN8asiodnp39StackBaseD5Ev,comdat
	.align 2
	.p2align 4,,15
	.weak	_ZN8asiodnp39StackBaseD2Ev
	.type	_ZN8asiodnp39StackBaseD2Ev, @function
_ZN8asiodnp39StackBaseD2Ev:
.LFB8095:
	.cfi_startproc
	pushq	%rbx
	.cfi_def_cfa_offset 16
	.cfi_offset 3, -16
	movq	%rdi, %rbx
	movq	104(%rdi), %rdi
	testq	%rdi, %rdi
	je	.L1144
	call	_ZNSt16_Sp_counted_baseILN9__gnu_cxx12_Lock_policyE2EE10_M_releaseEv@PLT
.L1144:
	movq	88(%rbx), %rdi
	testq	%rdi, %rdi
	je	.L1145
	call	_ZNSt16_Sp_counted_baseILN9__gnu_cxx12_Lock_policyE2EE10_M_releaseEv@PLT
.L1145:
	movq	72(%rbx), %rdi
	testq	%rdi, %rdi
	je	.L1146
	call	_ZNSt16_Sp_counted_baseILN9__gnu_cxx12_Lock_policyE2EE10_M_releaseEv@PLT
.L1146:
	movq	56(%rbx), %rdi
	testq	%rdi, %rdi
	je	.L1147
	call	_ZNSt16_Sp_counted_baseILN9__gnu_cxx12_Lock_policyE2EE10_M_releaseEv@PLT
.L1147:
	movq	40(%rbx), %rdi
	testq	%rdi, %rdi
	je	.L1148
	call	_ZNSt16_Sp_counted_baseILN9__gnu_cxx12_Lock_policyE2EE10_M_releaseEv@PLT
.L1148:
	movq	24(%rbx), %rdi
	testq	%rdi, %rdi
	je	.L1149
	call	_ZNSt16_Sp_counted_baseILN9__gnu_cxx12_Lock_policyE2EE10_M_releaseEv@PLT
.L1149:
	movq	8(%rbx), %rdi
	testq	%rdi, %rdi
	je	.L1143
	popq	%rbx
	.cfi_remember_state
	.cfi_def_cfa_offset 8
	jmp	_ZNSt16_Sp_counted_baseILN9__gnu_cxx12_Lock_policyE2EE10_M_releaseEv@PLT
	.p2align 4,,10
	.p2align 3
.L1143:
	.cfi_restore_state
	popq	%rbx
	.cfi_def_cfa_offset 8
	ret
	.cfi_endproc
.LFE8095:
	.size	_ZN8asiodnp39StackBaseD2Ev, .-_ZN8asiodnp39StackBaseD2Ev
	.weak	_ZN8asiodnp39StackBaseD1Ev
	.set	_ZN8asiodnp39StackBaseD1Ev,_ZN8asiodnp39StackBaseD2Ev
	.text
	.p2align 4,,15
	.type	_ZN4asio6detail18completion_handlerIZN8asiodnp311MasterStack13SetLogFiltersERKN7openpal10LogFiltersEEUlvE_E11do_completeEPNS0_15task_io_serviceEPNS0_25task_io_service_operationERKSt10error_codem, @function
_ZN4asio6detail18completion_handlerIZN8asiodnp311MasterStack13SetLogFiltersERKN7openpal10LogFiltersEEUlvE_E11do_completeEPNS0_15task_io_serviceEPNS0_25task_io_service_operationERKSt10error_codem:
.LFB11007:
	.cfi_startproc
	.cfi_personality 0x9b,DW.ref.__gxx_personality_v0
	pushq	%r14
	.cfi_def_cfa_offset 16
	.cfi_offset 14, -16
	pushq	%r13
	.cfi_def_cfa_offset 24
	.cfi_offset 13, -24
	pushq	%r12
	.cfi_def_cfa_offset 32
	.cfi_offset 12, -32
	pushq	%rbp
	.cfi_def_cfa_offset 40
	.cfi_offset 6, -40
	movq	%rdi, %r12
	pushq	%rbx
	.cfi_def_cfa_offset 48
	.cfi_offset 3, -48
	movq	24(%rsi), %r14
	movq	%rsi, %rbx
	movq	32(%rsi), %rbp
	movl	40(%rsi), %r13d
	.byte	0x66
	leaq	_ZN4asio6detail15keyword_tss_ptrINS0_10call_stackINS0_15task_io_serviceENS0_27task_io_service_thread_infoEE7contextEE6value_E@tlsgd(%rip), %rdi
	.value	0x6666
	rex64
	call	__tls_get_addr@PLT
	movq	(%rax), %rax
	testq	%rax, %rax
	je	.L1171
	movq	8(%rax), %rax
	testq	%rax, %rax
	je	.L1171
	cmpq	$0, (%rax)
	je	.L1185
.L1171:
	movq	%rbx, %rdi
	call	_ZdlPv@PLT
.L1172:
	testq	%r12, %r12
	je	.L1173
	movq	72(%r14), %rax
	movl	%r13d, 32(%rax)
	sfence
.L1173:
	testq	%rbp, %rbp
	je	.L1170
	popq	%rbx
	.cfi_remember_state
	.cfi_def_cfa_offset 40
	movq	%rbp, %rdi
	popq	%rbp
	.cfi_def_cfa_offset 32
	popq	%r12
	.cfi_def_cfa_offset 24
	popq	%r13
	.cfi_def_cfa_offset 16
	popq	%r14
	.cfi_def_cfa_offset 8
	jmp	_ZNSt16_Sp_counted_baseILN9__gnu_cxx12_Lock_policyE2EE10_M_releaseEv@PLT
	.p2align 4,,10
	.p2align 3
.L1170:
	.cfi_restore_state
	popq	%rbx
	.cfi_remember_state
	.cfi_def_cfa_offset 40
	popq	%rbp
	.cfi_def_cfa_offset 32
	popq	%r12
	.cfi_def_cfa_offset 24
	popq	%r13
	.cfi_def_cfa_offset 16
	popq	%r14
	.cfi_def_cfa_offset 8
	ret
	.p2align 4,,10
	.p2align 3
.L1185:
	.cfi_restore_state
	movzbl	48(%rbx), %edx
	movb	%dl, (%rbx)
	movq	%rbx, (%rax)
	jmp	.L1172
	.cfi_endproc
.LFE11007:
	.size	_ZN4asio6detail18completion_handlerIZN8asiodnp311MasterStack13SetLogFiltersERKN7openpal10LogFiltersEEUlvE_E11do_completeEPNS0_15task_io_serviceEPNS0_25task_io_service_operationERKSt10error_codem, .-_ZN4asio6detail18completion_handlerIZN8asiodnp311MasterStack13SetLogFiltersERKN7openpal10LogFiltersEEUlvE_E11do_completeEPNS0_15task_io_serviceEPNS0_25task_io_service_operationERKSt10error_codem
	.align 2
	.p2align 4,,15
	.globl	_ZN8asiodnp311MasterStack6DemandERKSt10shared_ptrIN8opendnp311IMasterTaskEE
	.type	_ZN8asiodnp311MasterStack6DemandERKSt10shared_ptrIN8opendnp311IMasterTaskEE, @function
_ZN8asiodnp311MasterStack6DemandERKSt10shared_ptrIN8opendnp311IMasterTaskEE:
.LFB8166:
	.cfi_startproc
	.cfi_personality 0x9b,DW.ref.__gxx_personality_v0
	.cfi_lsda 0x1b,.LLSDA8166
	pushq	%r13
	.cfi_def_cfa_offset 16
	.cfi_offset 13, -16
	pushq	%r12
	.cfi_def_cfa_offset 24
	.cfi_offset 12, -24
	pushq	%rbp
	.cfi_def_cfa_offset 32
	.cfi_offset 6, -32
	pushq	%rbx
	.cfi_def_cfa_offset 40
	.cfi_offset 3, -40
	subq	$88, %rsp
	.cfi_def_cfa_offset 128
	movq	%fs:40, %rax
	movq	%rax, 72(%rsp)
	xorl	%eax, %eax
	movq	(%rsi), %rax
	movq	%rax, (%rsp)
	movq	8(%rsi), %rax
	testq	%rax, %rax
	movq	%rax, 8(%rsp)
	je	.L1187
	cmpq	$0, _ZL28__gthrw___pthread_key_createPjPFvPvE@GOTPCREL(%rip)
	jne	.L1257
	addl	$1, 8(%rax)
.L1187:
	movq	48(%rdi), %rax
	testq	%rax, %rax
	movq	%rax, 24(%rsp)
	je	.L1189
	leaq	8(%rax), %rdx
	movl	8(%rax), %eax
	testl	%eax, %eax
	je	.L1190
.L1254:
	leal	1(%rax), %ecx
	lock cmpxchgl	%ecx, (%rdx)
	jne	.L1258
	movq	(%rsp), %rax
	movq	40(%rdi), %rdx
	movq	88(%rdi), %rsi
	movq	%rax, 32(%rsp)
	movq	8(%rsp), %rax
	movq	%rdx, 16(%rsp)
	testq	%rax, %rax
	movq	%rax, 40(%rsp)
	je	.L1194
	cmpq	$0, _ZL28__gthrw___pthread_key_createPjPFvPvE@GOTPCREL(%rip)
	jne	.L1259
	addl	$1, 8(%rax)
	movq	24(%rsp), %rax
	movq	%rdx, 48(%rsp)
	testq	%rax, %rax
	movq	%rax, 56(%rsp)
	je	.L1197
.L1198:
	addl	$1, 8(%rax)
.L1197:
	leaq	32(%rsp), %r13
	xorl	%eax, %eax
	movq	40(%rsi), %r12
	leaq	48(%rsi), %rbx
	movq	%r13, %rdi
	call	_ZN4asio28asio_handler_is_continuationEz@PLT
	movl	%eax, %ebp
	.byte	0x66
	leaq	_ZN4asio6detail15keyword_tss_ptrINS0_10call_stackINS0_15task_io_serviceENS0_27task_io_service_thread_infoEE7contextEE6value_E@tlsgd(%rip), %rdi
	.value	0x6666
	rex64
	call	__tls_get_addr@PLT
	movq	(%rax), %rax
	testq	%rax, %rax
	je	.L1200
	movq	8(%rax), %rax
	testq	%rax, %rax
	je	.L1200
	movq	(%rax), %rdx
	testq	%rdx, %rdx
	je	.L1200
	movq	$0, (%rax)
	movzbl	(%rdx), %eax
	cmpb	$55, %al
	jbe	.L1201
	movb	%al, 56(%rdx)
.L1202:
	leaq	_ZN4asio6detail18completion_handlerIZN8asiodnp311MasterStack6DemandERKSt10shared_ptrIN8opendnp311IMasterTaskEEEUlvE_E11do_completeEPNS0_15task_io_serviceEPNS0_25task_io_service_operationERKSt10error_codem(%rip), %rax
	movq	$0, (%rdx)
	movl	$0, 16(%rdx)
	movq	%rax, 8(%rdx)
	movq	32(%rsp), %rax
	movq	%rax, 24(%rdx)
	movq	40(%rsp), %rax
	testq	%rax, %rax
	movq	%rax, 32(%rdx)
	je	.L1204
	cmpq	$0, _ZL28__gthrw___pthread_key_createPjPFvPvE@GOTPCREL(%rip)
	je	.L1203
	lock addl	$1, 8(%rax)
.L1204:
	movq	48(%rsp), %rax
	pxor	%xmm0, %xmm0
	movq	%r12, %rdi
	movzbl	%bpl, %ecx
	movq	%rbx, %rsi
	movq	%rax, 40(%rdx)
	movq	56(%rsp), %rax
	movaps	%xmm0, 48(%rsp)
	movq	%rax, 48(%rdx)
	call	_ZN4asio6detail14strand_service7do_postERPNS1_11strand_implEPNS0_25task_io_service_operationEb@PLT
	movq	56(%rsp), %rdi
	testq	%rdi, %rdi
	je	.L1205
	call	_ZNSt16_Sp_counted_baseILN9__gnu_cxx12_Lock_policyE2EE10_M_releaseEv@PLT
.L1205:
	movq	40(%rsp), %rdi
	testq	%rdi, %rdi
	je	.L1206
	call	_ZNSt16_Sp_counted_baseILN9__gnu_cxx12_Lock_policyE2EE10_M_releaseEv@PLT
.L1206:
	movq	24(%rsp), %rdi
	testq	%rdi, %rdi
	je	.L1208
	call	_ZNSt16_Sp_counted_baseILN9__gnu_cxx12_Lock_policyE2EE10_M_releaseEv@PLT
.L1208:
	movq	8(%rsp), %rdi
	testq	%rdi, %rdi
	je	.L1186
	call	_ZNSt16_Sp_counted_baseILN9__gnu_cxx12_Lock_policyE2EE10_M_releaseEv@PLT
.L1186:
	movq	72(%rsp), %rax
	xorq	%fs:40, %rax
	jne	.L1260
	addq	$88, %rsp
	.cfi_remember_state
	.cfi_def_cfa_offset 40
	popq	%rbx
	.cfi_def_cfa_offset 32
	popq	%rbp
	.cfi_def_cfa_offset 24
	popq	%r12
	.cfi_def_cfa_offset 16
	popq	%r13
	.cfi_def_cfa_offset 8
	ret
	.p2align 4,,10
	.p2align 3
.L1257:
	.cfi_restore_state
	lock addl	$1, 8(%rax)
	jmp	.L1187
	.p2align 4,,10
	.p2align 3
.L1259:
	lock addl	$1, 8(%rax)
	movq	24(%rsp), %rdx
	movq	16(%rsp), %rax
	testq	%rdx, %rdx
	movq	%rax, 48(%rsp)
	movq	%rdx, 56(%rsp)
	leaq	8(%rdx), %rax
	je	.L1197
.L1214:
	lock addl	$1, (%rax)
	jmp	.L1197
	.p2align 4,,10
	.p2align 3
.L1201:
	movq	%rdx, %rdi
	call	_ZdlPv@PLT
.L1200:
	movl	$57, %edi
.LEHB49:
	call	_Znwm@PLT
.LEHE49:
	movq	%rax, %rdx
	movb	$56, 56(%rax)
	jmp	.L1202
	.p2align 4,,10
	.p2align 3
.L1194:
	movq	24(%rsp), %rax
	movq	%rdx, 48(%rsp)
	testq	%rax, %rax
	movq	%rax, 56(%rsp)
	je	.L1197
	cmpq	$0, _ZL28__gthrw___pthread_key_createPjPFvPvE@GOTPCREL(%rip)
	je	.L1198
	addq	$8, %rax
	jmp	.L1214
	.p2align 4,,10
	.p2align 3
.L1203:
	addl	$1, 8(%rax)
	jmp	.L1204
.L1260:
	call	__stack_chk_fail@PLT
.L1258:
	testl	%eax, %eax
	jne	.L1254
.L1190:
.LEHB50:
	call	_ZSt20__throw_bad_weak_ptrv@PLT
.LEHE50:
.L1216:
	movq	8(%rsp), %rdi
	movq	%rax, %rbx
	testq	%rdi, %rdi
	je	.L1212
	call	_ZNSt16_Sp_counted_baseILN9__gnu_cxx12_Lock_policyE2EE10_M_releaseEv@PLT
.L1212:
	movq	%rbx, %rdi
.LEHB51:
	call	_Unwind_Resume@PLT
.LEHE51:
.L1189:
.LEHB52:
	call	_ZSt20__throw_bad_weak_ptrv@PLT
.LEHE52:
.L1217:
	movq	%r13, %rdi
	movq	%rax, %rbx
	call	_ZZN8asiodnp311MasterStack6DemandERKSt10shared_ptrIN8opendnp311IMasterTaskEEENUlvE_D1Ev
	movq	%rsp, %rdi
	call	_ZZN8asiodnp311MasterStack6DemandERKSt10shared_ptrIN8opendnp311IMasterTaskEEENUlvE_D1Ev
	movq	%rbx, %rdi
.LEHB53:
	call	_Unwind_Resume@PLT
.LEHE53:
	.cfi_endproc
.LFE8166:
	.section	.gcc_except_table
.LLSDA8166:
	.byte	0xff
	.byte	0xff
	.byte	0x1
	.uleb128 .LLSDACSE8166-.LLSDACSB8166
.LLSDACSB8166:
	.uleb128 .LEHB49-.LFB8166
	.uleb128 .LEHE49-.LEHB49
	.uleb128 .L1217-.LFB8166
	.uleb128 0
	.uleb128 .LEHB50-.LFB8166
	.uleb128 .LEHE50-.LEHB50
	.uleb128 .L1216-.LFB8166
	.uleb128 0
	.uleb128 .LEHB51-.LFB8166
	.uleb128 .LEHE51-.LEHB51
	.uleb128 0
	.uleb128 0
	.uleb128 .LEHB52-.LFB8166
	.uleb128 .LEHE52-.LEHB52
	.uleb128 .L1216-.LFB8166
	.uleb128 0
	.uleb128 .LEHB53-.LFB8166
	.uleb128 .LEHE53-.LEHB53
	.uleb128 0
	.uleb128 0
.LLSDACSE8166:
	.text
	.size	_ZN8asiodnp311MasterStack6DemandERKSt10shared_ptrIN8opendnp311IMasterTaskEE, .-_ZN8asiodnp311MasterStack6DemandERKSt10shared_ptrIN8opendnp311IMasterTaskEE
	.set	.LTHUNK15,_ZN8asiodnp311MasterStack6DemandERKSt10shared_ptrIN8opendnp311IMasterTaskEE
	.p2align 4,,15
	.globl	_ZThn32_N8asiodnp311MasterStack6DemandERKSt10shared_ptrIN8opendnp311IMasterTaskEE
	.type	_ZThn32_N8asiodnp311MasterStack6DemandERKSt10shared_ptrIN8opendnp311IMasterTaskEE, @function
_ZThn32_N8asiodnp311MasterStack6DemandERKSt10shared_ptrIN8opendnp311IMasterTaskEE:
.LFB12674:
	.cfi_startproc
	subq	$32, %rdi
	jmp	.LTHUNK15
	.cfi_endproc
.LFE12674:
	.size	_ZThn32_N8asiodnp311MasterStack6DemandERKSt10shared_ptrIN8opendnp311IMasterTaskEE, .-_ZThn32_N8asiodnp311MasterStack6DemandERKSt10shared_ptrIN8opendnp311IMasterTaskEE
	.section	.text._ZN8asiodnp311MasterStack13BeginTransmitERKN7openpal6RSliceERN8opendnp312ILinkSessionE,"axG",@progbits,_ZN8asiodnp311MasterStack13BeginTransmitERKN7openpal6RSliceERN8opendnp312ILinkSessionE,comdat
	.p2align 4,,15
	.weak	_ZThn24_N8asiodnp311MasterStack13BeginTransmitERKN7openpal6RSliceERN8opendnp312ILinkSessionE
	.type	_ZThn24_N8asiodnp311MasterStack13BeginTransmitERKN7openpal6RSliceERN8opendnp312ILinkSessionE, @function
_ZThn24_N8asiodnp311MasterStack13BeginTransmitERKN7openpal6RSliceERN8opendnp312ILinkSessionE:
.LFB12631:
	.cfi_startproc
	.cfi_personality 0x9b,DW.ref.__gxx_personality_v0
	.cfi_lsda 0x1b,.LLSDA12631
	pushq	%rbx
	.cfi_def_cfa_offset 16
	.cfi_offset 3, -16
	movq	%rdi, %r8
	subq	$32, %rsp
	.cfi_def_cfa_offset 48
	movq	24(%r8), %rcx
	movq	80(%rdi), %rdi
	movq	%fs:40, %rax
	movq	%rax, 24(%rsp)
	xorl	%eax, %eax
	testq	%rcx, %rcx
	je	.L1262
	movl	8(%rcx), %eax
	leaq	8(%rcx), %r9
	testl	%eax, %eax
	je	.L1262
	movq	%rsi, %rdx
	leal	1(%rax), %esi
	lock cmpxchgl	%esi, (%r9)
	jne	.L1265
.L1264:
	movq	16(%r8), %r8
	movl	$0, %esi
	movq	%rcx, 8(%rsp)
	leaq	16(%r8), %rax
	testq	%r8, %r8
	cmove	%rsi, %rax
	movq	%rsp, %rsi
	movq	%rax, (%rsp)
.LEHB54:
	call	_ZN8asiodnp39IOHandler13BeginTransmitERKSt10shared_ptrIN8opendnp312ILinkSessionEERKN7openpal6RSliceE@PLT
.LEHE54:
	movq	8(%rsp), %rbx
	testq	%rbx, %rbx
	je	.L1261
	cmpq	$0, _ZL28__gthrw___pthread_key_createPjPFvPvE@GOTPCREL(%rip)
	je	.L1270
	lock subl	$1, 8(%rbx)
	je	.L1294
.L1261:
	movq	24(%rsp), %rax
	xorq	%fs:40, %rax
	jne	.L1295
	addq	$32, %rsp
	.cfi_remember_state
	.cfi_def_cfa_offset 16
	popq	%rbx
	.cfi_def_cfa_offset 8
	ret
	.p2align 4,,10
	.p2align 3
.L1270:
	.cfi_restore_state
	movl	8(%rbx), %eax
	leal	-1(%rax), %edx
	cmpl	$1, %eax
	movl	%edx, 8(%rbx)
	jne	.L1261
	movq	(%rbx), %rax
	movq	%rbx, %rdi
	call	*16(%rax)
	movl	12(%rbx), %eax
	leal	-1(%rax), %edx
	movl	%edx, 12(%rbx)
	jmp	.L1276
	.p2align 4,,10
	.p2align 3
.L1294:
	movq	(%rbx), %rax
	movq	%rbx, %rdi
	call	*16(%rax)
	movl	$-1, %eax
	lock xaddl	%eax, 12(%rbx)
.L1276:
	cmpl	$1, %eax
	jne	.L1261
	movq	(%rbx), %rax
	movq	%rbx, %rdi
	call	*24(%rax)
	jmp	.L1261
.L1262:
.LEHB55:
	call	_ZSt20__throw_bad_weak_ptrv@PLT
.L1265:
	testl	%eax, %eax
	je	.L1262
	leal	1(%rax), %esi
	lock cmpxchgl	%esi, (%r9)
	je	.L1264
	jmp	.L1265
.L1295:
	call	__stack_chk_fail@PLT
.L1279:
	movq	8(%rsp), %rdi
	movq	%rax, %rbx
	testq	%rdi, %rdi
	je	.L1275
	call	_ZNSt16_Sp_counted_baseILN9__gnu_cxx12_Lock_policyE2EE10_M_releaseEv@PLT
.L1275:
	movq	%rbx, %rdi
	call	_Unwind_Resume@PLT
.LEHE55:
	.cfi_endproc
.LFE12631:
	.section	.gcc_except_table
.LLSDA12631:
	.byte	0xff
	.byte	0xff
	.byte	0x1
	.uleb128 .LLSDACSE12631-.LLSDACSB12631
.LLSDACSB12631:
	.uleb128 .LEHB54-.LFB12631
	.uleb128 .LEHE54-.LEHB54
	.uleb128 .L1279-.LFB12631
	.uleb128 0
	.uleb128 .LEHB55-.LFB12631
	.uleb128 .LEHE55-.LEHB55
	.uleb128 0
	.uleb128 0
.LLSDACSE12631:
	.section	.text._ZN8asiodnp311MasterStack13BeginTransmitERKN7openpal6RSliceERN8opendnp312ILinkSessionE,"axG",@progbits,_ZN8asiodnp311MasterStack13BeginTransmitERKN7openpal6RSliceERN8opendnp312ILinkSessionE,comdat
	.size	_ZThn24_N8asiodnp311MasterStack13BeginTransmitERKN7openpal6RSliceERN8opendnp312ILinkSessionE, .-_ZThn24_N8asiodnp311MasterStack13BeginTransmitERKN7openpal6RSliceERN8opendnp312ILinkSessionE
	.text
	.align 2
	.p2align 4,,15
	.globl	_ZN8asiodnp311MasterStack4ScanERKSt6vectorIN8opendnp36HeaderESaIS3_EERKNS2_10TaskConfigE
	.type	_ZN8asiodnp311MasterStack4ScanERKSt6vectorIN8opendnp36HeaderESaIS3_EERKNS2_10TaskConfigE, @function
_ZN8asiodnp311MasterStack4ScanERKSt6vectorIN8opendnp36HeaderESaIS3_EERKNS2_10TaskConfigE:
.LFB8256:
	.cfi_startproc
	.cfi_personality 0x9b,DW.ref.__gxx_personality_v0
	.cfi_lsda 0x1b,.LLSDA8256
	pushq	%r13
	.cfi_def_cfa_offset 16
	.cfi_offset 13, -16
	pushq	%r12
	.cfi_def_cfa_offset 24
	.cfi_offset 12, -24
	pushq	%rbp
	.cfi_def_cfa_offset 32
	.cfi_offset 6, -32
	pushq	%rbx
	.cfi_def_cfa_offset 40
	.cfi_offset 3, -40
	subq	$152, %rsp
	.cfi_def_cfa_offset 192
	movq	%fs:40, %rax
	movq	%rax, 136(%rsp)
	xorl	%eax, %eax
	movq	48(%rdi), %rax
	testq	%rax, %rax
	movq	%rax, 8(%rsp)
	je	.L1297
	movq	%rdx, %rbp
	leaq	8(%rax), %rdx
	movl	8(%rax), %eax
	testl	%eax, %eax
	je	.L1297
	leal	1(%rax), %ecx
	movq	%rdi, %rbx
	lock cmpxchgl	%ecx, (%rdx)
	jne	.L1300
.L1299:
	movq	40(%rbx), %rax
	leaq	16(%rsp), %rdi
	movq	%rax, (%rsp)
.LEHB56:
	call	_ZN8asiodnp315ConvertToLambdaERKSt6vectorIN8opendnp36HeaderESaIS2_EE@PLT
.LEHE56:
	movq	(%rsp), %rax
	movq	88(%rbx), %r13
	movdqu	0(%rbp), %xmm0
	movq	%rax, 64(%rsp)
	movq	8(%rsp), %rax
	movaps	%xmm0, 48(%rsp)
	testq	%rax, %rax
	movq	%rax, 72(%rsp)
	je	.L1302
	cmpq	$0, _ZL28__gthrw___pthread_key_createPjPFvPvE@GOTPCREL(%rip)
	jne	.L1363
	addl	$1, 8(%rax)
.L1302:
	movq	32(%rsp), %rax
	movq	$0, 96(%rsp)
	leaq	64(%rsp), %rbp
	testq	%rax, %rax
	je	.L1304
	leaq	64(%rsp), %rbp
	movq	%rsp, %r12
	movl	$2, %edx
	leaq	16(%r12), %rsi
	leaq	16(%rbp), %rdi
.LEHB57:
	call	*%rax
.LEHE57:
	movdqa	32(%rsp), %xmm0
	movaps	%xmm0, 96(%rsp)
.L1304:
	movq	%rbp, %rdi
	xorl	%eax, %eax
	movq	40(%r13), %r12
	addq	$48, %r13
	movdqa	48(%rsp), %xmm0
	movaps	%xmm0, 112(%rsp)
	call	_ZN4asio28asio_handler_is_continuationEz@PLT
	movl	%eax, %ebx
	.byte	0x66
	leaq	_ZN4asio6detail15keyword_tss_ptrINS0_10call_stackINS0_15task_io_serviceENS0_27task_io_service_thread_infoEE7contextEE6value_E@tlsgd(%rip), %rdi
	.value	0x6666
	rex64
	call	__tls_get_addr@PLT
	movq	(%rax), %rax
	testq	%rax, %rax
	je	.L1310
	movq	8(%rax), %rax
	testq	%rax, %rax
	je	.L1310
	movq	(%rax), %rdx
	testq	%rdx, %rdx
	je	.L1310
	movq	$0, (%rax)
	movzbl	(%rdx), %eax
	cmpb	$87, %al
	jbe	.L1312
	movb	%al, 88(%rdx)
	jmp	.L1313
	.p2align 4,,10
	.p2align 3
.L1312:
	movq	%rdx, %rdi
	call	_ZdlPv@PLT
.L1310:
	movl	$89, %edi
.LEHB58:
	call	_Znwm@PLT
.LEHE58:
	movq	%rax, %rdx
	movb	$88, 88(%rax)
.L1313:
	leaq	_ZN4asio6detail18completion_handlerIZN8asiodnp311MasterStack4ScanERKSt6vectorIN8opendnp36HeaderESaIS6_EERKNS5_10TaskConfigEEUlvE_E11do_completeEPNS0_15task_io_serviceEPNS0_25task_io_service_operationERKSt10error_codem(%rip), %rax
	pxor	%xmm0, %xmm0
	movq	$0, (%rdx)
	movl	$0, 16(%rdx)
	movq	%r13, %rsi
	movq	%rax, 8(%rdx)
	movq	64(%rsp), %rax
	movq	%r12, %rdi
	movdqu	40(%rdx), %xmm1
	movq	64(%rdx), %rcx
	movq	%rax, 24(%rdx)
	movq	72(%rsp), %rax
	movaps	%xmm0, 64(%rsp)
	movdqa	80(%rsp), %xmm0
	movq	%rax, 32(%rdx)
	movq	96(%rsp), %rax
	movups	%xmm0, 40(%rdx)
	movq	$0, 96(%rsp)
	movaps	%xmm1, 80(%rsp)
	movq	%rax, 56(%rdx)
	movq	104(%rsp), %rax
	movdqa	112(%rsp), %xmm0
	movq	%rcx, 104(%rsp)
	movzbl	%bl, %ecx
	movups	%xmm0, 72(%rdx)
	movq	%rax, 64(%rdx)
	call	_ZN4asio6detail14strand_service7do_postERPNS1_11strand_implEPNS0_25task_io_service_operationEb@PLT
	movq	96(%rsp), %rax
	testq	%rax, %rax
	je	.L1322
	leaq	16(%rbp), %rdi
	movl	$3, %edx
	movq	%rdi, %rsi
	call	*%rax
.L1322:
	movq	72(%rsp), %rdi
	testq	%rdi, %rdi
	je	.L1314
	call	_ZNSt16_Sp_counted_baseILN9__gnu_cxx12_Lock_policyE2EE10_M_releaseEv@PLT
.L1314:
	movq	32(%rsp), %rax
	testq	%rax, %rax
	je	.L1316
	leaq	16(%rsp), %rdi
	movl	$3, %edx
	movq	%rdi, %rsi
	call	*%rax
.L1316:
	movq	8(%rsp), %rdi
	testq	%rdi, %rdi
	je	.L1296
	call	_ZNSt16_Sp_counted_baseILN9__gnu_cxx12_Lock_policyE2EE10_M_releaseEv@PLT
.L1296:
	movq	136(%rsp), %rax
	xorq	%fs:40, %rax
	jne	.L1364
	addq	$152, %rsp
	.cfi_remember_state
	.cfi_def_cfa_offset 40
	popq	%rbx
	.cfi_def_cfa_offset 32
	popq	%rbp
	.cfi_def_cfa_offset 24
	popq	%r12
	.cfi_def_cfa_offset 16
	popq	%r13
	.cfi_def_cfa_offset 8
	ret
	.p2align 4,,10
	.p2align 3
.L1363:
	.cfi_restore_state
	lock addl	$1, 8(%rax)
	jmp	.L1302
.L1297:
.LEHB59:
	call	_ZSt20__throw_bad_weak_ptrv@PLT
.L1300:
	testl	%eax, %eax
	je	.L1297
	leal	1(%rax), %ecx
	lock cmpxchgl	%ecx, (%rdx)
	je	.L1299
	jmp	.L1300
.L1364:
	call	__stack_chk_fail@PLT
.L1325:
	movq	%rbp, %rdi
	movq	%rsp, %r12
	movq	%rax, %rbx
	call	_ZZN8asiodnp311MasterStack4ScanERKSt6vectorIN8opendnp36HeaderESaIS3_EERKNS2_10TaskConfigEENUlvE_D1Ev
.L1311:
	movq	%r12, %rdi
	call	_ZZN8asiodnp311MasterStack4ScanERKSt6vectorIN8opendnp36HeaderESaIS3_EERKNS2_10TaskConfigEENUlvE_D1Ev
.L1362:
	movq	%rbx, %rdi
	call	_Unwind_Resume@PLT
.LEHE59:
.L1326:
	movq	%rax, %rbx
	movq	96(%rsp), %rax
	testq	%rax, %rax
	je	.L1306
	leaq	16(%rbp), %rdi
	movl	$3, %edx
	movq	%rdi, %rsi
	call	*%rax
.L1306:
	movq	72(%rsp), %rdi
	testq	%rdi, %rdi
	je	.L1311
	call	_ZNSt16_Sp_counted_baseILN9__gnu_cxx12_Lock_policyE2EE10_M_releaseEv@PLT
	jmp	.L1311
.L1324:
	movq	8(%rsp), %rdi
	movq	%rax, %rbx
	testq	%rdi, %rdi
	je	.L1362
	call	_ZNSt16_Sp_counted_baseILN9__gnu_cxx12_Lock_policyE2EE10_M_releaseEv@PLT
	jmp	.L1362
	.cfi_endproc
.LFE8256:
	.section	.gcc_except_table
.LLSDA8256:
	.byte	0xff
	.byte	0xff
	.byte	0x1
	.uleb128 .LLSDACSE8256-.LLSDACSB8256
.LLSDACSB8256:
	.uleb128 .LEHB56-.LFB8256
	.uleb128 .LEHE56-.LEHB56
	.uleb128 .L1324-.LFB8256
	.uleb128 0
	.uleb128 .LEHB57-.LFB8256
	.uleb128 .LEHE57-.LEHB57
	.uleb128 .L1326-.LFB8256
	.uleb128 0
	.uleb128 .LEHB58-.LFB8256
	.uleb128 .LEHE58-.LEHB58
	.uleb128 .L1325-.LFB8256
	.uleb128 0
	.uleb128 .LEHB59-.LFB8256
	.uleb128 .LEHE59-.LEHB59
	.uleb128 0
	.uleb128 0
.LLSDACSE8256:
	.text
	.size	_ZN8asiodnp311MasterStack4ScanERKSt6vectorIN8opendnp36HeaderESaIS3_EERKNS2_10TaskConfigE, .-_ZN8asiodnp311MasterStack4ScanERKSt6vectorIN8opendnp36HeaderESaIS3_EERKNS2_10TaskConfigE
	.section	.text.unlikely
	.align 2
	.type	_ZN4asio6detail18completion_handlerIZN8asiodnp311MasterStack7RestartEN8opendnp311RestartTypeERKSt8functionIFvRKNS4_22RestartOperationResultEEENS4_10TaskConfigEEUlvE_E3ptr5resetEv.isra.105, @function
_ZN4asio6detail18completion_handlerIZN8asiodnp311MasterStack7RestartEN8opendnp311RestartTypeERKSt8functionIFvRKNS4_22RestartOperationResultEEENS4_10TaskConfigEEUlvE_E3ptr5resetEv.isra.105:
.LFB12456:
	.cfi_startproc
	.cfi_personality 0x9b,DW.ref.__gxx_personality_v0
	.cfi_lsda 0x1b,.LLSDA12456
	pushq	%r12
	.cfi_def_cfa_offset 16
	.cfi_offset 12, -16
	pushq	%rbp
	.cfi_def_cfa_offset 24
	.cfi_offset 6, -24
	movq	%rdi, %rbp
	pushq	%rbx
	.cfi_def_cfa_offset 32
	.cfi_offset 3, -32
	movq	(%rsi), %rbx
	testq	%rbx, %rbx
	je	.L1366
	movq	64(%rbx), %rax
	movq	%rsi, %r12
	testq	%rax, %rax
	je	.L1367
	leaq	48(%rbx), %rdi
	movl	$3, %edx
	movq	%rdi, %rsi
	call	*%rax
.L1367:
	movq	32(%rbx), %rdi
	testq	%rdi, %rdi
	je	.L1368
	call	_ZNSt16_Sp_counted_baseILN9__gnu_cxx12_Lock_policyE2EE10_M_releaseEv@PLT
.L1368:
	movq	$0, (%r12)
.L1366:
	movq	0(%rbp), %rbx
	testq	%rbx, %rbx
	je	.L1365
	.byte	0x66
	leaq	_ZN4asio6detail15keyword_tss_ptrINS0_10call_stackINS0_15task_io_serviceENS0_27task_io_service_thread_infoEE7contextEE6value_E@tlsgd(%rip), %rdi
	.value	0x6666
	rex64
	call	__tls_get_addr@PLT
	movq	(%rax), %rax
	testq	%rax, %rax
	je	.L1370
	movq	8(%rax), %rax
	testq	%rax, %rax
	je	.L1370
	cmpq	$0, (%rax)
	jne	.L1370
	movb	96(%rbx), %dl
	movb	%dl, (%rbx)
	movq	%rbx, (%rax)
	jmp	.L1371
.L1370:
	movq	%rbx, %rdi
	call	_ZdlPv@PLT
.L1371:
	movq	$0, 0(%rbp)
.L1365:
	popq	%rbx
	.cfi_def_cfa_offset 24
	popq	%rbp
	.cfi_def_cfa_offset 16
	popq	%r12
	.cfi_def_cfa_offset 8
	ret
	.cfi_endproc
.LFE12456:
	.section	.gcc_except_table
.LLSDA12456:
	.byte	0xff
	.byte	0xff
	.byte	0x1
	.uleb128 .LLSDACSE12456-.LLSDACSB12456
.LLSDACSB12456:
.LLSDACSE12456:
	.section	.text.unlikely
	.size	_ZN4asio6detail18completion_handlerIZN8asiodnp311MasterStack7RestartEN8opendnp311RestartTypeERKSt8functionIFvRKNS4_22RestartOperationResultEEENS4_10TaskConfigEEUlvE_E3ptr5resetEv.isra.105, .-_ZN4asio6detail18completion_handlerIZN8asiodnp311MasterStack7RestartEN8opendnp311RestartTypeERKSt8functionIFvRKNS4_22RestartOperationResultEEENS4_10TaskConfigEEUlvE_E3ptr5resetEv.isra.105
	.text
	.align 2
	.p2align 4,,15
	.globl	_ZN8asiodnp311MasterStack7RestartEN8opendnp311RestartTypeERKSt8functionIFvRKNS1_22RestartOperationResultEEENS1_10TaskConfigE
	.type	_ZN8asiodnp311MasterStack7RestartEN8opendnp311RestartTypeERKSt8functionIFvRKNS1_22RestartOperationResultEEENS1_10TaskConfigE, @function
_ZN8asiodnp311MasterStack7RestartEN8opendnp311RestartTypeERKSt8functionIFvRKNS1_22RestartOperationResultEEENS1_10TaskConfigE:
.LFB8296:
	.cfi_startproc
	.cfi_personality 0x9b,DW.ref.__gxx_personality_v0
	.cfi_lsda 0x1b,.LLSDA8296
	pushq	%r15
	.cfi_def_cfa_offset 16
	.cfi_offset 15, -16
	pushq	%r14
	.cfi_def_cfa_offset 24
	.cfi_offset 14, -24
	pushq	%r13
	.cfi_def_cfa_offset 32
	.cfi_offset 13, -32
	pushq	%r12
	.cfi_def_cfa_offset 40
	.cfi_offset 12, -40
	pushq	%rbp
	.cfi_def_cfa_offset 48
	.cfi_offset 6, -48
	pushq	%rbx
	.cfi_def_cfa_offset 56
	.cfi_offset 3, -56
	subq	$216, %rsp
	.cfi_def_cfa_offset 272
	movq	%fs:40, %rax
	movq	%rax, 200(%rsp)
	xorl	%eax, %eax
	movq	48(%rdi), %rax
	testq	%rax, %rax
	movq	%rax, 40(%rsp)
	je	.L1392
	movq	%rdx, %rbx
	leaq	8(%rax), %rdx
	movl	8(%rax), %eax
	testl	%eax, %eax
	je	.L1392
	movq	%rcx, %r14
	leal	1(%rax), %ecx
	movq	%rdi, %rbp
	movq	%r8, %r13
	lock cmpxchgl	%ecx, (%rdx)
	jne	.L1395
.L1394:
	movq	16(%rbx), %rax
	movq	40(%rbp), %rdx
	movb	%sil, 48(%rsp)
	movq	$0, 72(%rsp)
	testq	%rax, %rax
	movq	%rdx, 32(%rsp)
	je	.L1397
	leaq	32(%rsp), %r12
	movl	$2, %edx
	movq	%rbx, %rsi
	leaq	24(%r12), %rdi
.LEHB60:
	call	*%rax
.LEHE60:
	movq	24(%rbx), %rax
	movq	32(%rsp), %rdx
	movq	%rax, 80(%rsp)
	movq	16(%rbx), %rax
	movq	%rax, 72(%rsp)
.L1397:
	movq	%rdx, 112(%rsp)
	movq	40(%rsp), %rdx
	movq	%r14, 88(%rsp)
	movq	%r13, 96(%rsp)
	movq	88(%rbp), %r14
	testq	%rdx, %rdx
	movq	%rdx, 120(%rsp)
	je	.L1402
	cmpq	$0, _ZL28__gthrw___pthread_key_createPjPFvPvE@GOTPCREL(%rip)
	jne	.L1474
	addl	$1, 8(%rdx)
	movq	72(%rsp), %rax
.L1402:
	movzbl	48(%rsp), %edx
	testq	%rax, %rax
	movq	$0, 152(%rsp)
	leaq	112(%rsp), %rbp
	movb	%dl, 128(%rsp)
	je	.L1404
	leaq	32(%rsp), %r12
	leaq	112(%rsp), %rbp
	movl	$2, %edx
	leaq	24(%r12), %rsi
	leaq	24(%rbp), %rdi
.LEHB61:
	call	*%rax
.LEHE61:
	movdqu	72(%rsp), %xmm0
	movups	%xmm0, 152(%rsp)
.L1404:
	movq	%rbp, %rdi
	xorl	%eax, %eax
	movq	40(%r14), %r13
	addq	$48, %r14
	movdqu	88(%rsp), %xmm0
	movups	%xmm0, 168(%rsp)
	call	_ZN4asio28asio_handler_is_continuationEz@PLT
	pxor	%xmm0, %xmm0
	movl	%eax, %r12d
	movq	%rbp, (%rsp)
	movups	%xmm0, 8(%rsp)
	.byte	0x66
	leaq	_ZN4asio6detail15keyword_tss_ptrINS0_10call_stackINS0_15task_io_serviceENS0_27task_io_service_thread_infoEE7contextEE6value_E@tlsgd(%rip), %rdi
	.value	0x6666
	rex64
	call	__tls_get_addr@PLT
	movq	(%rax), %rax
	testq	%rax, %rax
	je	.L1410
	movq	8(%rax), %rax
	testq	%rax, %rax
	je	.L1410
	movq	(%rax), %rbx
	testq	%rbx, %rbx
	je	.L1410
	movq	$0, (%rax)
	movzbl	(%rbx), %eax
	cmpb	$95, %al
	jbe	.L1412
	movb	%al, 96(%rbx)
	jmp	.L1413
	.p2align 4,,10
	.p2align 3
.L1412:
	movq	%rbx, %rdi
	call	_ZdlPv@PLT
.L1410:
	movl	$97, %edi
.LEHB62:
	call	_Znwm@PLT
.LEHE62:
	movq	%rax, %rbx
	movb	$96, 96(%rax)
.L1413:
	leaq	_ZN4asio6detail18completion_handlerIZN8asiodnp311MasterStack7RestartEN8opendnp311RestartTypeERKSt8functionIFvRKNS4_22RestartOperationResultEEENS4_10TaskConfigEEUlvE_E11do_completeEPNS0_15task_io_serviceEPNS0_25task_io_service_operationERKSt10error_codem(%rip), %rax
	movq	%rbx, 8(%rsp)
	movl	$0, 16(%rbx)
	movq	$0, (%rbx)
	pxor	%xmm0, %xmm0
	movq	%rax, 8(%rbx)
	movq	112(%rsp), %rax
	movq	$0, 64(%rbx)
	movq	%rax, 24(%rbx)
	movq	120(%rsp), %rax
	movaps	%xmm0, 112(%rsp)
	movq	%rax, 32(%rbx)
	movzbl	128(%rsp), %eax
	movb	%al, 40(%rbx)
	movq	152(%rsp), %rax
	testq	%rax, %rax
	je	.L1414
	leaq	48(%rbx), %r15
	leaq	24(%rbp), %rsi
	movl	$2, %edx
	movq	%r15, %rdi
.LEHB63:
	call	*%rax
.LEHE63:
	movdqu	152(%rsp), %xmm0
	movups	%xmm0, 64(%rbx)
.L1414:
	movzbl	%r12b, %ecx
	movq	%rbx, %rdx
	movq	%r14, %rsi
	movq	%r13, %rdi
	movdqu	168(%rsp), %xmm0
	movq	%rbx, 16(%rsp)
	movups	%xmm0, 80(%rbx)
	call	_ZN4asio6detail14strand_service7do_postERPNS1_11strand_implEPNS0_25task_io_service_operationEb@PLT
	movq	152(%rsp), %rax
	testq	%rax, %rax
	je	.L1420
	leaq	24(%rbp), %rdi
	movl	$3, %edx
	movq	%rdi, %rsi
	call	*%rax
.L1420:
	movq	120(%rsp), %rdi
	testq	%rdi, %rdi
	je	.L1422
	call	_ZNSt16_Sp_counted_baseILN9__gnu_cxx12_Lock_policyE2EE10_M_releaseEv@PLT
.L1422:
	movq	72(%rsp), %rax
	testq	%rax, %rax
	je	.L1424
	leaq	56(%rsp), %rdi
	movl	$3, %edx
	movq	%rdi, %rsi
	call	*%rax
.L1424:
	movq	40(%rsp), %rdi
	testq	%rdi, %rdi
	je	.L1391
	call	_ZNSt16_Sp_counted_baseILN9__gnu_cxx12_Lock_policyE2EE10_M_releaseEv@PLT
.L1391:
	movq	200(%rsp), %rax
	xorq	%fs:40, %rax
	jne	.L1475
	addq	$216, %rsp
	.cfi_remember_state
	.cfi_def_cfa_offset 56
	popq	%rbx
	.cfi_def_cfa_offset 48
	popq	%rbp
	.cfi_def_cfa_offset 40
	popq	%r12
	.cfi_def_cfa_offset 32
	popq	%r13
	.cfi_def_cfa_offset 24
	popq	%r14
	.cfi_def_cfa_offset 16
	popq	%r15
	.cfi_def_cfa_offset 8
	ret
	.p2align 4,,10
	.p2align 3
.L1474:
	.cfi_restore_state
	lock addl	$1, 8(%rdx)
	movq	72(%rsp), %rax
	jmp	.L1402
.L1392:
.LEHB64:
	call	_ZSt20__throw_bad_weak_ptrv@PLT
.LEHE64:
.L1395:
	testl	%eax, %eax
	je	.L1392
	leal	1(%rax), %ecx
	lock cmpxchgl	%ecx, (%rdx)
	je	.L1394
	jmp	.L1395
.L1475:
	call	__stack_chk_fail@PLT
.L1430:
	movq	%rax, %rbx
	movq	152(%rsp), %rax
	testq	%rax, %rax
	je	.L1406
	leaq	24(%rbp), %rdi
	movl	$3, %edx
	movq	%rdi, %rsi
	call	*%rax
.L1406:
	movq	120(%rsp), %rdi
	testq	%rdi, %rdi
	je	.L1411
	call	_ZNSt16_Sp_counted_baseILN9__gnu_cxx12_Lock_policyE2EE10_M_releaseEv@PLT
.L1411:
	movq	%r12, %rdi
	call	_ZZN8asiodnp311MasterStack7RestartEN8opendnp311RestartTypeERKSt8functionIFvRKNS1_22RestartOperationResultEEENS1_10TaskConfigEENUlvE_D1Ev
.L1473:
	movq	%rbx, %rdi
.LEHB65:
	call	_Unwind_Resume@PLT
.LEHE65:
.L1431:
	movq	%rax, %r12
	movq	64(%rbx), %rax
	testq	%rax, %rax
	je	.L1416
	movl	$3, %edx
	movq	%r15, %rsi
	movq	%r15, %rdi
	call	*%rax
.L1416:
	movq	32(%rbx), %rdi
	testq	%rdi, %rdi
	je	.L1418
	call	_ZNSt16_Sp_counted_baseILN9__gnu_cxx12_Lock_policyE2EE10_M_releaseEv@PLT
.L1418:
	movq	%rsp, %rax
	movq	%r12, %rbx
	leaq	16(%rax), %rsi
	leaq	8(%rax), %rdi
	call	_ZN4asio6detail18completion_handlerIZN8asiodnp311MasterStack7RestartEN8opendnp311RestartTypeERKSt8functionIFvRKNS4_22RestartOperationResultEEENS4_10TaskConfigEEUlvE_E3ptr5resetEv.isra.105
.L1421:
	movq	%rbp, %rdi
	leaq	32(%rsp), %r12
	call	_ZZN8asiodnp311MasterStack7RestartEN8opendnp311RestartTypeERKSt8functionIFvRKNS1_22RestartOperationResultEEENS1_10TaskConfigEENUlvE_D1Ev
	jmp	.L1411
.L1428:
	movq	%rax, %rbx
	movq	72(%rsp), %rax
	testq	%rax, %rax
	je	.L1399
	leaq	24(%r12), %rdi
	movl	$3, %edx
	movq	%rdi, %rsi
	call	*%rax
.L1399:
	movq	40(%rsp), %rdi
	testq	%rdi, %rdi
	je	.L1473
	call	_ZNSt16_Sp_counted_baseILN9__gnu_cxx12_Lock_policyE2EE10_M_releaseEv@PLT
	jmp	.L1473
.L1429:
	movq	%rax, %rbx
	jmp	.L1421
	.cfi_endproc
.LFE8296:
	.section	.gcc_except_table
.LLSDA8296:
	.byte	0xff
	.byte	0xff
	.byte	0x1
	.uleb128 .LLSDACSE8296-.LLSDACSB8296
.LLSDACSB8296:
	.uleb128 .LEHB60-.LFB8296
	.uleb128 .LEHE60-.LEHB60
	.uleb128 .L1428-.LFB8296
	.uleb128 0
	.uleb128 .LEHB61-.LFB8296
	.uleb128 .LEHE61-.LEHB61
	.uleb128 .L1430-.LFB8296
	.uleb128 0
	.uleb128 .LEHB62-.LFB8296
	.uleb128 .LEHE62-.LEHB62
	.uleb128 .L1429-.LFB8296
	.uleb128 0
	.uleb128 .LEHB63-.LFB8296
	.uleb128 .LEHE63-.LEHB63
	.uleb128 .L1431-.LFB8296
	.uleb128 0
	.uleb128 .LEHB64-.LFB8296
	.uleb128 .LEHE64-.LEHB64
	.uleb128 0
	.uleb128 0
	.uleb128 .LEHB65-.LFB8296
	.uleb128 .LEHE65-.LEHB65
	.uleb128 0
	.uleb128 0
.LLSDACSE8296:
	.text
	.size	_ZN8asiodnp311MasterStack7RestartEN8opendnp311RestartTypeERKSt8functionIFvRKNS1_22RestartOperationResultEEENS1_10TaskConfigE, .-_ZN8asiodnp311MasterStack7RestartEN8opendnp311RestartTypeERKSt8functionIFvRKNS1_22RestartOperationResultEEENS1_10TaskConfigE
	.p2align 4,,15
	.type	_ZNSt14_Function_base13_Base_managerIZN8asiodnp311MasterStack7AddScanEN7openpal12TimeDurationERKSt6vectorIN8opendnp36HeaderESaIS7_EERKNS6_10TaskConfigEEUlvE_E10_M_managerERSt9_Any_dataRKSH_St18_Manager_operation, @function
_ZNSt14_Function_base13_Base_managerIZN8asiodnp311MasterStack7AddScanEN7openpal12TimeDurationERKSt6vectorIN8opendnp36HeaderESaIS7_EERKNS6_10TaskConfigEEUlvE_E10_M_managerERSt9_Any_dataRKSH_St18_Manager_operation:
.LFB9971:
	.cfi_startproc
	.cfi_personality 0x9b,DW.ref.__gxx_personality_v0
	.cfi_lsda 0x1b,.LLSDA9971
	cmpl	$1, %edx
	je	.L1478
	jb	.L1479
	cmpl	$2, %edx
	pushq	%r12
	.cfi_def_cfa_offset 16
	.cfi_offset 12, -16
	pushq	%rbp
	.cfi_def_cfa_offset 24
	.cfi_offset 6, -24
	pushq	%rbx
	.cfi_def_cfa_offset 32
	.cfi_offset 3, -32
	movq	%rdi, %rbx
	je	.L1480
	cmpl	$3, %edx
	jne	.L1477
	movq	(%rdi), %rbx
	testq	%rbx, %rbx
	je	.L1477
	movq	32(%rbx), %rax
	testq	%rax, %rax
	je	.L1484
	leaq	16(%rbx), %rdi
	movl	$3, %edx
	movq	%rdi, %rsi
	call	*%rax
.L1484:
	movq	8(%rbx), %rdi
	testq	%rdi, %rdi
	je	.L1485
	call	_ZNSt16_Sp_counted_baseILN9__gnu_cxx12_Lock_policyE2EE10_M_releaseEv@PLT
.L1485:
	movq	%rbx, %rdi
	movl	$72, %esi
	call	_ZdlPvm@PLT
	popq	%rbx
	.cfi_remember_state
	.cfi_def_cfa_offset 24
	xorl	%eax, %eax
	popq	%rbp
	.cfi_def_cfa_offset 16
	popq	%r12
	.cfi_def_cfa_offset 8
	ret
	.p2align 4,,10
	.p2align 3
.L1480:
	.cfi_restore_state
	movq	(%rsi), %r12
	movl	$72, %edi
.LEHB66:
	call	_Znwm@PLT
.LEHE66:
	movq	%rax, %rbp
	movq	%rax, %rdi
	movq	%r12, %rsi
	call	_ZNSt12__shared_ptrIN8asiodnp311MasterStackELN9__gnu_cxx12_Lock_policyE2EEC2ERKS4_@PLT
	leaq	16(%r12), %rsi
	leaq	16(%rbp), %rdi
.LEHB67:
	call	_ZNSt8functionIFbRN8opendnp312HeaderWriterEEEC1ERKS4_@PLT
.LEHE67:
	movq	48(%r12), %rax
	movq	%rax, 48(%rbp)
	movdqu	56(%r12), %xmm0
	movq	%rbp, (%rbx)
	movups	%xmm0, 56(%rbp)
.L1477:
	popq	%rbx
	.cfi_def_cfa_offset 24
	xorl	%eax, %eax
	popq	%rbp
	.cfi_def_cfa_offset 16
	popq	%r12
	.cfi_def_cfa_offset 8
	ret
	.p2align 4,,10
	.p2align 3
.L1479:
	.cfi_restore 3
	.cfi_restore 6
	.cfi_restore 12
	leaq	_ZTIZN8asiodnp311MasterStack7AddScanEN7openpal12TimeDurationERKSt6vectorIN8opendnp36HeaderESaIS5_EERKNS4_10TaskConfigEEUlvE_(%rip), %rax
	movq	%rax, (%rdi)
	xorl	%eax, %eax
	ret
	.p2align 4,,10
	.p2align 3
.L1478:
	movq	(%rsi), %rax
	movq	%rax, (%rdi)
	xorl	%eax, %eax
	ret
.L1486:
	.cfi_def_cfa_offset 32
	.cfi_offset 3, -32
	.cfi_offset 6, -24
	.cfi_offset 12, -16
	movq	8(%rbp), %rdi
	movq	%rax, %rbx
	testq	%rdi, %rdi
	je	.L1483
	call	_ZNSt16_Sp_counted_baseILN9__gnu_cxx12_Lock_policyE2EE10_M_releaseEv@PLT
.L1483:
	movq	%rbp, %rdi
	movl	$72, %esi
	call	_ZdlPvm@PLT
	movq	%rbx, %rdi
.LEHB68:
	call	_Unwind_Resume@PLT
.LEHE68:
	.cfi_endproc
.LFE9971:
	.section	.gcc_except_table
.LLSDA9971:
	.byte	0xff
	.byte	0xff
	.byte	0x1
	.uleb128 .LLSDACSE9971-.LLSDACSB9971
.LLSDACSB9971:
	.uleb128 .LEHB66-.LFB9971
	.uleb128 .LEHE66-.LEHB66
	.uleb128 0
	.uleb128 0
	.uleb128 .LEHB67-.LFB9971
	.uleb128 .LEHE67-.LEHB67
	.uleb128 .L1486-.LFB9971
	.uleb128 0
	.uleb128 .LEHB68-.LFB9971
	.uleb128 .LEHE68-.LEHB68
	.uleb128 0
	.uleb128 0
.LLSDACSE9971:
	.text
	.size	_ZNSt14_Function_base13_Base_managerIZN8asiodnp311MasterStack7AddScanEN7openpal12TimeDurationERKSt6vectorIN8opendnp36HeaderESaIS7_EERKNS6_10TaskConfigEEUlvE_E10_M_managerERSt9_Any_dataRKSH_St18_Manager_operation, .-_ZNSt14_Function_base13_Base_managerIZN8asiodnp311MasterStack7AddScanEN7openpal12TimeDurationERKSt6vectorIN8opendnp36HeaderESaIS7_EERKNS6_10TaskConfigEEUlvE_E10_M_managerERSt9_Any_dataRKSH_St18_Manager_operation
	.p2align 4,,15
	.type	_ZN4asio6detail18completion_handlerIZN8asiodnp311MasterStack7RestartEN8opendnp311RestartTypeERKSt8functionIFvRKNS4_22RestartOperationResultEEENS4_10TaskConfigEEUlvE_E11do_completeEPNS0_15task_io_serviceEPNS0_25task_io_service_operationERKSt10error_codem, @function
_ZN4asio6detail18completion_handlerIZN8asiodnp311MasterStack7RestartEN8opendnp311RestartTypeERKSt8functionIFvRKNS4_22RestartOperationResultEEENS4_10TaskConfigEEUlvE_E11do_completeEPNS0_15task_io_serviceEPNS0_25task_io_service_operationERKSt10error_codem:
.LFB11076:
	.cfi_startproc
	.cfi_personality 0x9b,DW.ref.__gxx_personality_v0
	.cfi_lsda 0x1b,.LLSDA11076
	pushq	%r13
	.cfi_def_cfa_offset 16
	.cfi_offset 13, -16
	pushq	%r12
	.cfi_def_cfa_offset 24
	.cfi_offset 12, -24
	movq	%rdi, %r13
	pushq	%rbp
	.cfi_def_cfa_offset 32
	.cfi_offset 6, -32
	pushq	%rbx
	.cfi_def_cfa_offset 40
	.cfi_offset 3, -40
	movq	%rsi, %rbx
	subq	$120, %rsp
	.cfi_def_cfa_offset 160
	movq	%fs:40, %rax
	movq	%rax, 104(%rsp)
	xorl	%eax, %eax
	leaq	24(%rsi), %rax
	movq	%rsi, 8(%rsp)
	movq	%rsi, 16(%rsp)
	movq	$0, 72(%rsp)
	movq	%rax, (%rsp)
	movq	24(%rsi), %rax
	movq	$0, 24(%rsi)
	movq	%rax, 32(%rsp)
	movq	32(%rsi), %rax
	movq	$0, 32(%rsi)
	movq	%rax, 40(%rsp)
	movzbl	40(%rsi), %eax
	movb	%al, 48(%rsp)
	movq	64(%rsi), %rax
	testq	%rax, %rax
	je	.L1504
	leaq	32(%rsp), %rbp
	leaq	48(%rsi), %rsi
	movl	$2, %edx
	leaq	24(%rbp), %rdi
.LEHB69:
	call	*%rax
.LEHE69:
	movdqu	64(%rbx), %xmm0
	movq	16(%rsp), %r12
	movq	%rbp, (%rsp)
	movups	%xmm0, 72(%rsp)
	testq	%r12, %r12
	movdqu	80(%rbx), %xmm0
	movups	%xmm0, 88(%rsp)
	je	.L1506
.L1505:
	movq	64(%r12), %rax
	testq	%rax, %rax
	je	.L1511
	leaq	48(%r12), %rdi
	movl	$3, %edx
	movq	%rdi, %rsi
	call	*%rax
.L1511:
	movq	32(%r12), %rdi
	testq	%rdi, %rdi
	je	.L1512
	call	_ZNSt16_Sp_counted_baseILN9__gnu_cxx12_Lock_policyE2EE10_M_releaseEv@PLT
.L1512:
	movq	$0, 16(%rsp)
.L1506:
	movq	8(%rsp), %rbx
	testq	%rbx, %rbx
	je	.L1513
	.byte	0x66
	leaq	_ZN4asio6detail15keyword_tss_ptrINS0_10call_stackINS0_15task_io_serviceENS0_27task_io_service_thread_infoEE7contextEE6value_E@tlsgd(%rip), %rdi
	.value	0x6666
	rex64
	call	__tls_get_addr@PLT
	movq	(%rax), %rax
	testq	%rax, %rax
	je	.L1514
	movq	8(%rax), %rax
	testq	%rax, %rax
	je	.L1514
	cmpq	$0, (%rax)
	je	.L1577
.L1514:
	movq	%rbx, %rdi
	call	_ZdlPv@PLT
.L1515:
	movq	$0, 8(%rsp)
.L1513:
	testq	%r13, %r13
	je	.L1516
	movq	32(%rsp), %rax
	movzbl	48(%rsp), %esi
	leaq	24(%rbp), %rdx
	movq	88(%rsp), %rcx
	movq	96(%rsp), %r8
	leaq	168(%rax), %rdi
.LEHB70:
	call	_ZN8opendnp38MContext7RestartENS_11RestartTypeERKSt8functionIFvRKNS_22RestartOperationResultEEENS_10TaskConfigE@PLT
.LEHE70:
	sfence
.L1516:
	movq	72(%rsp), %rax
	testq	%rax, %rax
	je	.L1517
	leaq	24(%rbp), %rdi
	movl	$3, %edx
	movq	%rdi, %rsi
	call	*%rax
.L1517:
	movq	40(%rsp), %rdi
	testq	%rdi, %rdi
	je	.L1518
	call	_ZNSt16_Sp_counted_baseILN9__gnu_cxx12_Lock_policyE2EE10_M_releaseEv@PLT
.L1518:
	movq	16(%rsp), %rbx
	testq	%rbx, %rbx
	je	.L1519
	movq	64(%rbx), %rax
	testq	%rax, %rax
	je	.L1520
	leaq	48(%rbx), %rdi
	movl	$3, %edx
	movq	%rdi, %rsi
	call	*%rax
.L1520:
	movq	32(%rbx), %rdi
	testq	%rdi, %rdi
	je	.L1521
	call	_ZNSt16_Sp_counted_baseILN9__gnu_cxx12_Lock_policyE2EE10_M_releaseEv@PLT
.L1521:
	movq	$0, 16(%rsp)
.L1519:
	movq	8(%rsp), %rbx
	testq	%rbx, %rbx
	je	.L1503
	.byte	0x66
	leaq	_ZN4asio6detail15keyword_tss_ptrINS0_10call_stackINS0_15task_io_serviceENS0_27task_io_service_thread_infoEE7contextEE6value_E@tlsgd(%rip), %rdi
	.value	0x6666
	rex64
	call	__tls_get_addr@PLT
	movq	(%rax), %rax
	testq	%rax, %rax
	je	.L1523
	movq	8(%rax), %rax
	testq	%rax, %rax
	je	.L1523
	cmpq	$0, (%rax)
	je	.L1578
.L1523:
	movq	%rbx, %rdi
	call	_ZdlPv@PLT
.L1503:
	movq	104(%rsp), %rax
	xorq	%fs:40, %rax
	jne	.L1579
	addq	$120, %rsp
	.cfi_remember_state
	.cfi_def_cfa_offset 40
	popq	%rbx
	.cfi_def_cfa_offset 32
	popq	%rbp
	.cfi_def_cfa_offset 24
	popq	%r12
	.cfi_def_cfa_offset 16
	popq	%r13
	.cfi_def_cfa_offset 8
	ret
	.p2align 4,,10
	.p2align 3
.L1578:
	.cfi_restore_state
	movzbl	96(%rbx), %edx
	movb	%dl, (%rbx)
	movq	%rbx, (%rax)
	jmp	.L1503
	.p2align 4,,10
	.p2align 3
.L1577:
	movzbl	96(%rbx), %edx
	movb	%dl, (%rbx)
	movq	%rbx, (%rax)
	jmp	.L1515
	.p2align 4,,10
	.p2align 3
.L1504:
	movdqu	80(%rsi), %xmm0
	leaq	32(%rsp), %rbp
	movq	%rsi, %r12
	movups	%xmm0, 88(%rsp)
	movq	%rbp, (%rsp)
	jmp	.L1505
.L1579:
	call	__stack_chk_fail@PLT
.L1527:
	movq	%rax, %rbx
	movq	72(%rsp), %rax
	testq	%rax, %rax
	je	.L1508
	leaq	24(%rbp), %rdi
	movl	$3, %edx
	movq	%rdi, %rsi
	call	*%rax
.L1508:
	movq	40(%rsp), %rdi
	testq	%rdi, %rdi
	je	.L1510
	call	_ZNSt16_Sp_counted_baseILN9__gnu_cxx12_Lock_policyE2EE10_M_releaseEv@PLT
.L1510:
	movq	%rsp, %rax
	leaq	8(%rax), %rdi
	leaq	16(%rax), %rsi
	call	_ZN4asio6detail18completion_handlerIZN8asiodnp311MasterStack7RestartEN8opendnp311RestartTypeERKSt8functionIFvRKNS4_22RestartOperationResultEEENS4_10TaskConfigEEUlvE_E3ptr5resetEv.isra.105
	movq	%rbx, %rdi
.LEHB71:
	call	_Unwind_Resume@PLT
.LEHE71:
.L1526:
	movq	%rbp, %rdi
	movq	%rax, %rbx
	sfence
	call	_ZZN8asiodnp311MasterStack7RestartEN8opendnp311RestartTypeERKSt8functionIFvRKNS1_22RestartOperationResultEEENS1_10TaskConfigEENUlvE_D1Ev
	jmp	.L1510
	.cfi_endproc
.LFE11076:
	.section	.gcc_except_table
.LLSDA11076:
	.byte	0xff
	.byte	0xff
	.byte	0x1
	.uleb128 .LLSDACSE11076-.LLSDACSB11076
.LLSDACSB11076:
	.uleb128 .LEHB69-.LFB11076
	.uleb128 .LEHE69-.LEHB69
	.uleb128 .L1527-.LFB11076
	.uleb128 0
	.uleb128 .LEHB70-.LFB11076
	.uleb128 .LEHE70-.LEHB70
	.uleb128 .L1526-.LFB11076
	.uleb128 0
	.uleb128 .LEHB71-.LFB11076
	.uleb128 .LEHE71-.LEHB71
	.uleb128 0
	.uleb128 0
.LLSDACSE11076:
	.text
	.size	_ZN4asio6detail18completion_handlerIZN8asiodnp311MasterStack7RestartEN8opendnp311RestartTypeERKSt8functionIFvRKNS4_22RestartOperationResultEEENS4_10TaskConfigEEUlvE_E11do_completeEPNS0_15task_io_serviceEPNS0_25task_io_service_operationERKSt10error_codem, .-_ZN4asio6detail18completion_handlerIZN8asiodnp311MasterStack7RestartEN8opendnp311RestartTypeERKSt8functionIFvRKNS4_22RestartOperationResultEEENS4_10TaskConfigEEUlvE_E11do_completeEPNS0_15task_io_serviceEPNS0_25task_io_service_operationERKSt10error_codem
	.section	.text.unlikely
	.align 2
	.type	_ZN4asio6detail18completion_handlerIZN8asiodnp311MasterStack16SelectAndOperateEON8opendnp310CommandSetERKSt8functionIFvRKNS4_18ICommandTaskResultEEERKNS4_10TaskConfigEEUlvE_E3ptr5resetEv.isra.106, @function
_ZN4asio6detail18completion_handlerIZN8asiodnp311MasterStack16SelectAndOperateEON8opendnp310CommandSetERKSt8functionIFvRKNS4_18ICommandTaskResultEEERKNS4_10TaskConfigEEUlvE_E3ptr5resetEv.isra.106:
.LFB12457:
	.cfi_startproc
	.cfi_personality 0x9b,DW.ref.__gxx_personality_v0
	.cfi_lsda 0x1b,.LLSDA12457
	pushq	%r12
	.cfi_def_cfa_offset 16
	.cfi_offset 12, -16
	pushq	%rbp
	.cfi_def_cfa_offset 24
	.cfi_offset 6, -24
	movq	%rdi, %rbp
	pushq	%rbx
	.cfi_def_cfa_offset 32
	.cfi_offset 3, -32
	movq	(%rsi), %rbx
	testq	%rbx, %rbx
	je	.L1581
	movq	88(%rbx), %rax
	movq	%rsi, %r12
	testq	%rax, %rax
	je	.L1582
	leaq	72(%rbx), %rdi
	movl	$3, %edx
	movq	%rdi, %rsi
	call	*%rax
.L1582:
	movq	48(%rbx), %rdi
	testq	%rdi, %rdi
	je	.L1583
	call	_ZNSt16_Sp_counted_baseILN9__gnu_cxx12_Lock_policyE2EE10_M_releaseEv@PLT
.L1583:
	movq	32(%rbx), %rdi
	testq	%rdi, %rdi
	je	.L1584
	call	_ZNSt16_Sp_counted_baseILN9__gnu_cxx12_Lock_policyE2EE10_M_releaseEv@PLT
.L1584:
	movq	$0, (%r12)
.L1581:
	movq	0(%rbp), %rbx
	testq	%rbx, %rbx
	je	.L1580
	.byte	0x66
	leaq	_ZN4asio6detail15keyword_tss_ptrINS0_10call_stackINS0_15task_io_serviceENS0_27task_io_service_thread_infoEE7contextEE6value_E@tlsgd(%rip), %rdi
	.value	0x6666
	rex64
	call	__tls_get_addr@PLT
	movq	(%rax), %rax
	testq	%rax, %rax
	je	.L1586
	movq	8(%rax), %rax
	testq	%rax, %rax
	je	.L1586
	cmpq	$0, (%rax)
	jne	.L1586
	movb	104(%rbx), %dl
	movb	%dl, (%rbx)
	movq	%rbx, (%rax)
	jmp	.L1587
.L1586:
	movq	%rbx, %rdi
	call	_ZdlPv@PLT
.L1587:
	movq	$0, 0(%rbp)
.L1580:
	popq	%rbx
	.cfi_def_cfa_offset 24
	popq	%rbp
	.cfi_def_cfa_offset 16
	popq	%r12
	.cfi_def_cfa_offset 8
	ret
	.cfi_endproc
.LFE12457:
	.section	.gcc_except_table
.LLSDA12457:
	.byte	0xff
	.byte	0xff
	.byte	0x1
	.uleb128 .LLSDACSE12457-.LLSDACSB12457
.LLSDACSB12457:
.LLSDACSE12457:
	.section	.text.unlikely
	.size	_ZN4asio6detail18completion_handlerIZN8asiodnp311MasterStack16SelectAndOperateEON8opendnp310CommandSetERKSt8functionIFvRKNS4_18ICommandTaskResultEEERKNS4_10TaskConfigEEUlvE_E3ptr5resetEv.isra.106, .-_ZN4asio6detail18completion_handlerIZN8asiodnp311MasterStack16SelectAndOperateEON8opendnp310CommandSetERKSt8functionIFvRKNS4_18ICommandTaskResultEEERKNS4_10TaskConfigEEUlvE_E3ptr5resetEv.isra.106
	.align 2
	.type	_ZN4asio6detail18completion_handlerIZN8asiodnp311MasterStack15PerformFunctionERKNSt7__cxx1112basic_stringIcSt11char_traitsIcESaIcEEEN8opendnp312FunctionCodeERKSt6vectorINSC_6HeaderESaISF_EERKNSC_10TaskConfigEEUlvE_E3ptr5resetEv.isra.169, @function
_ZN4asio6detail18completion_handlerIZN8asiodnp311MasterStack15PerformFunctionERKNSt7__cxx1112basic_stringIcSt11char_traitsIcESaIcEEEN8opendnp312FunctionCodeERKSt6vectorINSC_6HeaderESaISF_EERKNSC_10TaskConfigEEUlvE_E3ptr5resetEv.isra.169:
.LFB12520:
	.cfi_startproc
	.cfi_personality 0x9b,DW.ref.__gxx_personality_v0
	.cfi_lsda 0x1b,.LLSDA12520
	pushq	%r12
	.cfi_def_cfa_offset 16
	.cfi_offset 12, -16
	pushq	%rbp
	.cfi_def_cfa_offset 24
	.cfi_offset 6, -24
	movq	%rdi, %rbp
	pushq	%rbx
	.cfi_def_cfa_offset 32
	.cfi_offset 3, -32
	movq	(%rsi), %rbx
	testq	%rbx, %rbx
	je	.L1611
	movq	96(%rbx), %rax
	movq	%rsi, %r12
	testq	%rax, %rax
	je	.L1612
	leaq	80(%rbx), %rdi
	movl	$3, %edx
	movq	%rdi, %rsi
	call	*%rax
.L1612:
	movq	40(%rbx), %rdi
	leaq	56(%rbx), %rax
	cmpq	%rax, %rdi
	je	.L1613
	call	_ZdlPv@PLT
.L1613:
	movq	32(%rbx), %rdi
	testq	%rdi, %rdi
	je	.L1614
	call	_ZNSt16_Sp_counted_baseILN9__gnu_cxx12_Lock_policyE2EE10_M_releaseEv@PLT
.L1614:
	movq	$0, (%r12)
.L1611:
	movq	0(%rbp), %rbx
	testq	%rbx, %rbx
	je	.L1610
	.byte	0x66
	leaq	_ZN4asio6detail15keyword_tss_ptrINS0_10call_stackINS0_15task_io_serviceENS0_27task_io_service_thread_infoEE7contextEE6value_E@tlsgd(%rip), %rdi
	.value	0x6666
	rex64
	call	__tls_get_addr@PLT
	movq	(%rax), %rax
	testq	%rax, %rax
	je	.L1616
	movq	8(%rax), %rax
	testq	%rax, %rax
	je	.L1616
	cmpq	$0, (%rax)
	jne	.L1616
	movb	128(%rbx), %dl
	movb	%dl, (%rbx)
	movq	%rbx, (%rax)
	jmp	.L1617
.L1616:
	movq	%rbx, %rdi
	call	_ZdlPv@PLT
.L1617:
	movq	$0, 0(%rbp)
.L1610:
	popq	%rbx
	.cfi_def_cfa_offset 24
	popq	%rbp
	.cfi_def_cfa_offset 16
	popq	%r12
	.cfi_def_cfa_offset 8
	ret
	.cfi_endproc
.LFE12520:
	.section	.gcc_except_table
.LLSDA12520:
	.byte	0xff
	.byte	0xff
	.byte	0x1
	.uleb128 .LLSDACSE12520-.LLSDACSB12520
.LLSDACSB12520:
.LLSDACSE12520:
	.section	.text.unlikely
	.size	_ZN4asio6detail18completion_handlerIZN8asiodnp311MasterStack15PerformFunctionERKNSt7__cxx1112basic_stringIcSt11char_traitsIcESaIcEEEN8opendnp312FunctionCodeERKSt6vectorINSC_6HeaderESaISF_EERKNSC_10TaskConfigEEUlvE_E3ptr5resetEv.isra.169, .-_ZN4asio6detail18completion_handlerIZN8asiodnp311MasterStack15PerformFunctionERKNSt7__cxx1112basic_stringIcSt11char_traitsIcESaIcEEEN8opendnp312FunctionCodeERKSt6vectorINSC_6HeaderESaISF_EERKNSC_10TaskConfigEEUlvE_E3ptr5resetEv.isra.169
	.text
	.align 2
	.p2align 4,,15
	.globl	_ZN8asiodnp311MasterStack15PerformFunctionERKNSt7__cxx1112basic_stringIcSt11char_traitsIcESaIcEEEN8opendnp312FunctionCodeERKSt6vectorINS9_6HeaderESaISC_EERKNS9_10TaskConfigE
	.type	_ZN8asiodnp311MasterStack15PerformFunctionERKNSt7__cxx1112basic_stringIcSt11char_traitsIcESaIcEEEN8opendnp312FunctionCodeERKSt6vectorINS9_6HeaderESaISC_EERKNS9_10TaskConfigE, @function
_ZN8asiodnp311MasterStack15PerformFunctionERKNSt7__cxx1112basic_stringIcSt11char_traitsIcESaIcEEEN8opendnp312FunctionCodeERKSt6vectorINS9_6HeaderESaISC_EERKNS9_10TaskConfigE:
.LFB8307:
	.cfi_startproc
	.cfi_personality 0x9b,DW.ref.__gxx_personality_v0
	.cfi_lsda 0x1b,.LLSDA8307
	pushq	%r15
	.cfi_def_cfa_offset 16
	.cfi_offset 15, -16
	pushq	%r14
	.cfi_def_cfa_offset 24
	.cfi_offset 14, -24
	pushq	%r13
	.cfi_def_cfa_offset 32
	.cfi_offset 13, -32
	pushq	%r12
	.cfi_def_cfa_offset 40
	.cfi_offset 12, -40
	pushq	%rbp
	.cfi_def_cfa_offset 48
	.cfi_offset 6, -48
	pushq	%rbx
	.cfi_def_cfa_offset 56
	.cfi_offset 3, -56
	movq	%rdi, %rbx
	subq	$280, %rsp
	.cfi_def_cfa_offset 336
	movq	%fs:40, %rax
	movq	%rax, 264(%rsp)
	xorl	%eax, %eax
	movq	48(%rdi), %rax
	testq	%rax, %rax
	movq	%rax, 40(%rsp)
	je	.L1638
	movl	%edx, %r14d
	leaq	8(%rax), %rdx
	movl	8(%rax), %eax
	testl	%eax, %eax
	je	.L1638
	movq	%rcx, %r13
	leal	1(%rax), %ecx
	movq	%rsi, %rdi
	movq	%r8, %rbp
	lock cmpxchgl	%ecx, (%rdx)
	jne	.L1641
.L1640:
	movq	40(%rbx), %rax
	leaq	32(%rsp), %r12
	movq	(%rdi), %rsi
	movq	8(%rdi), %rdx
	leaq	16(%r12), %rdi
	movq	%rax, 32(%rsp)
	leaq	32(%r12), %rax
	addq	%rsi, %rdx
	movq	%rax, 48(%rsp)
.LEHB72:
	call	_ZNSt7__cxx1112basic_stringIcSt11char_traitsIcESaIcEE12_M_constructIPcEEvT_S7_St20forward_iterator_tag.isra.178
.LEHE72:
	leaq	88(%rsp), %rdi
	movq	%r13, %rsi
	movb	%r14b, 80(%rsp)
.LEHB73:
	call	_ZN8asiodnp315ConvertToLambdaERKSt6vectorIN8opendnp36HeaderESaIS2_EE@PLT
.LEHE73:
	movdqu	0(%rbp), %xmm0
	leaq	144(%rsp), %rbp
	movq	%r12, %rsi
	movq	88(%rbx), %r13
	movq	%rbp, %rdi
	movups	%xmm0, 120(%rsp)
	call	_ZNSt12__shared_ptrIN8asiodnp311MasterStackELN9__gnu_cxx12_Lock_policyE2EEC2ERKS4_@PLT
	leaq	32(%rbp), %rax
	leaq	16(%rbp), %rdi
	movq	48(%rsp), %rsi
	movq	56(%rsp), %rdx
	movq	%rax, 160(%rsp)
	addq	%rsi, %rdx
.LEHB74:
	call	_ZNSt7__cxx1112basic_stringIcSt11char_traitsIcESaIcEE12_M_constructIPcEEvT_S7_St20forward_iterator_tag.isra.178
.LEHE74:
	movzbl	80(%rsp), %eax
	movq	$0, 216(%rsp)
	movb	%al, 192(%rsp)
	movq	104(%rsp), %rax
	testq	%rax, %rax
	je	.L1643
	leaq	56(%r12), %rsi
	leaq	56(%rbp), %rdi
	movl	$2, %edx
.LEHB75:
	call	*%rax
.LEHE75:
	movdqu	104(%rsp), %xmm0
	movups	%xmm0, 216(%rsp)
.L1643:
	movq	%rbp, %rdi
	xorl	%eax, %eax
	movq	40(%r13), %r15
	addq	$48, %r13
	movdqu	120(%rsp), %xmm0
	movups	%xmm0, 232(%rsp)
	call	_ZN4asio28asio_handler_is_continuationEz@PLT
	pxor	%xmm0, %xmm0
	movl	%eax, %r14d
	movq	%rbp, (%rsp)
	movups	%xmm0, 8(%rsp)
	.byte	0x66
	leaq	_ZN4asio6detail15keyword_tss_ptrINS0_10call_stackINS0_15task_io_serviceENS0_27task_io_service_thread_infoEE7contextEE6value_E@tlsgd(%rip), %rdi
	.value	0x6666
	rex64
	call	__tls_get_addr@PLT
	movq	(%rax), %rax
	testq	%rax, %rax
	je	.L1649
	movq	8(%rax), %rax
	testq	%rax, %rax
	je	.L1649
	movq	(%rax), %rbx
	testq	%rbx, %rbx
	je	.L1649
	movq	$0, (%rax)
	movzbl	(%rbx), %eax
	testb	%al, %al
	jns	.L1653
	movb	%al, 128(%rbx)
	jmp	.L1654
	.p2align 4,,10
	.p2align 3
.L1653:
	movq	%rbx, %rdi
	call	_ZdlPv@PLT
.L1649:
	movl	$129, %edi
.LEHB76:
	call	_Znwm@PLT
.LEHE76:
	movq	%rax, %rbx
	movb	$-128, 128(%rax)
.L1654:
	leaq	_ZN4asio6detail18completion_handlerIZN8asiodnp311MasterStack15PerformFunctionERKNSt7__cxx1112basic_stringIcSt11char_traitsIcESaIcEEEN8opendnp312FunctionCodeERKSt6vectorINSC_6HeaderESaISF_EERKNSC_10TaskConfigEEUlvE_E11do_completeEPNS0_15task_io_serviceEPNS0_25task_io_service_operationERKSt10error_codem(%rip), %rax
	movq	%rbx, 8(%rsp)
	movl	$0, 16(%rbx)
	movq	$0, (%rbx)
	pxor	%xmm0, %xmm0
	movq	%rax, 8(%rbx)
	movq	144(%rsp), %rax
	leaq	40(%rbx), %rdi
	movq	160(%rsp), %rsi
	movq	%rax, 24(%rbx)
	movq	152(%rsp), %rax
	movq	168(%rsp), %rdx
	movaps	%xmm0, 144(%rsp)
	movq	%rax, 32(%rbx)
	leaq	56(%rbx), %rax
	addq	%rsi, %rdx
	movq	%rax, 40(%rbx)
.LEHB77:
	call	_ZNSt7__cxx1112basic_stringIcSt11char_traitsIcESaIcEE12_M_constructIPcEEvT_S7_St20forward_iterator_tag.isra.178
.LEHE77:
	movzbl	192(%rsp), %eax
	movq	104(%rbx), %rdx
	movzbl	%r14b, %ecx
	movdqu	200(%rsp), %xmm0
	movq	%r13, %rsi
	movq	%r15, %rdi
	movq	%rbx, 16(%rsp)
	movdqu	80(%rbx), %xmm1
	movb	%al, 72(%rbx)
	movq	216(%rsp), %rax
	movups	%xmm0, 80(%rbx)
	movq	$0, 216(%rsp)
	movups	%xmm1, 200(%rsp)
	movq	%rax, 96(%rbx)
	movq	224(%rsp), %rax
	movdqu	232(%rsp), %xmm0
	movq	%rdx, 224(%rsp)
	movq	%rbx, %rdx
	movups	%xmm0, 112(%rbx)
	movq	%rax, 104(%rbx)
	call	_ZN4asio6detail14strand_service7do_postERPNS1_11strand_implEPNS0_25task_io_service_operationEb@PLT
	movq	216(%rsp), %rax
	testq	%rax, %rax
	je	.L1656
	leaq	56(%rbp), %rdi
	movl	$3, %edx
	movq	%rdi, %rsi
	call	*%rax
.L1656:
	movq	160(%rsp), %rdi
	addq	$32, %rbp
	cmpq	%rbp, %rdi
	je	.L1660
	call	_ZdlPv@PLT
.L1660:
	movq	152(%rsp), %rdi
	testq	%rdi, %rdi
	je	.L1661
	call	_ZNSt16_Sp_counted_baseILN9__gnu_cxx12_Lock_policyE2EE10_M_releaseEv@PLT
.L1661:
	movq	104(%rsp), %rax
	testq	%rax, %rax
	je	.L1663
	leaq	56(%r12), %rdi
	movl	$3, %edx
	movq	%rdi, %rsi
	call	*%rax
.L1663:
	movq	48(%rsp), %rdi
	addq	$32, %r12
	cmpq	%r12, %rdi
	je	.L1664
	call	_ZdlPv@PLT
.L1664:
	movq	40(%rsp), %rdi
	testq	%rdi, %rdi
	je	.L1637
	call	_ZNSt16_Sp_counted_baseILN9__gnu_cxx12_Lock_policyE2EE10_M_releaseEv@PLT
.L1637:
	movq	264(%rsp), %rax
	xorq	%fs:40, %rax
	jne	.L1718
	addq	$280, %rsp
	.cfi_remember_state
	.cfi_def_cfa_offset 56
	popq	%rbx
	.cfi_def_cfa_offset 48
	popq	%rbp
	.cfi_def_cfa_offset 40
	popq	%r12
	.cfi_def_cfa_offset 32
	popq	%r13
	.cfi_def_cfa_offset 24
	popq	%r14
	.cfi_def_cfa_offset 16
	popq	%r15
	.cfi_def_cfa_offset 8
	ret
.L1638:
	.cfi_restore_state
.LEHB78:
	call	_ZSt20__throw_bad_weak_ptrv@PLT
.L1641:
	testl	%eax, %eax
	je	.L1638
	leal	1(%rax), %ecx
	lock cmpxchgl	%ecx, (%rdx)
	je	.L1640
	jmp	.L1641
.L1718:
	call	__stack_chk_fail@PLT
.L1674:
	movq	%rax, %rbx
.L1659:
	movq	%rbp, %rdi
	call	_ZZN8asiodnp311MasterStack15PerformFunctionERKNSt7__cxx1112basic_stringIcSt11char_traitsIcESaIcEEEN8opendnp312FunctionCodeERKSt6vectorINS9_6HeaderESaISC_EERKNS9_10TaskConfigEENUlvE_D1Ev
.L1652:
	movq	%r12, %rdi
	call	_ZZN8asiodnp311MasterStack15PerformFunctionERKNSt7__cxx1112basic_stringIcSt11char_traitsIcESaIcEEEN8opendnp312FunctionCodeERKSt6vectorINS9_6HeaderESaISC_EERKNS9_10TaskConfigEENUlvE_D1Ev
.L1717:
	movq	%rbx, %rdi
	call	_Unwind_Resume@PLT
.LEHE78:
.L1676:
	movq	%rax, %rbx
	movq	216(%rsp), %rax
	testq	%rax, %rax
	je	.L1645
	leaq	56(%rbp), %rdi
	movl	$3, %edx
	movq	%rdi, %rsi
	call	*%rax
.L1645:
	movq	160(%rsp), %rdi
	addq	$32, %rbp
	cmpq	%rbp, %rdi
	je	.L1650
	call	_ZdlPv@PLT
.L1650:
	movq	152(%rsp), %rdi
	testq	%rdi, %rdi
	je	.L1652
	call	_ZNSt16_Sp_counted_baseILN9__gnu_cxx12_Lock_policyE2EE10_M_releaseEv@PLT
	jmp	.L1652
.L1672:
	movq	%rax, %rbx
.L1668:
	movq	40(%rsp), %rdi
	testq	%rdi, %rdi
	je	.L1717
	call	_ZNSt16_Sp_counted_baseILN9__gnu_cxx12_Lock_policyE2EE10_M_releaseEv@PLT
	jmp	.L1717
.L1677:
	movq	32(%rbx), %rdi
	movq	%rax, %r13
	testq	%rdi, %rdi
	je	.L1658
	call	_ZNSt16_Sp_counted_baseILN9__gnu_cxx12_Lock_policyE2EE10_M_releaseEv@PLT
.L1658:
	movq	%rsp, %rax
	movq	%r13, %rbx
	leaq	16(%rax), %rsi
	leaq	8(%rax), %rdi
	call	_ZN4asio6detail18completion_handlerIZN8asiodnp311MasterStack15PerformFunctionERKNSt7__cxx1112basic_stringIcSt11char_traitsIcESaIcEEEN8opendnp312FunctionCodeERKSt6vectorINSC_6HeaderESaISF_EERKNSC_10TaskConfigEEUlvE_E3ptr5resetEv.isra.169
	jmp	.L1659
.L1673:
	movq	48(%rsp), %rdi
	addq	$32, %r12
	movq	%rax, %rbx
	cmpq	%r12, %rdi
	je	.L1668
	call	_ZdlPv@PLT
	jmp	.L1668
.L1675:
	movq	%rax, %rbx
	jmp	.L1650
	.cfi_endproc
.LFE8307:
	.section	.gcc_except_table
.LLSDA8307:
	.byte	0xff
	.byte	0xff
	.byte	0x1
	.uleb128 .LLSDACSE8307-.LLSDACSB8307
.LLSDACSB8307:
	.uleb128 .LEHB72-.LFB8307
	.uleb128 .LEHE72-.LEHB72
	.uleb128 .L1672-.LFB8307
	.uleb128 0
	.uleb128 .LEHB73-.LFB8307
	.uleb128 .LEHE73-.LEHB73
	.uleb128 .L1673-.LFB8307
	.uleb128 0
	.uleb128 .LEHB74-.LFB8307
	.uleb128 .LEHE74-.LEHB74
	.uleb128 .L1675-.LFB8307
	.uleb128 0
	.uleb128 .LEHB75-.LFB8307
	.uleb128 .LEHE75-.LEHB75
	.uleb128 .L1676-.LFB8307
	.uleb128 0
	.uleb128 .LEHB76-.LFB8307
	.uleb128 .LEHE76-.LEHB76
	.uleb128 .L1674-.LFB8307
	.uleb128 0
	.uleb128 .LEHB77-.LFB8307
	.uleb128 .LEHE77-.LEHB77
	.uleb128 .L1677-.LFB8307
	.uleb128 0
	.uleb128 .LEHB78-.LFB8307
	.uleb128 .LEHE78-.LEHB78
	.uleb128 0
	.uleb128 0
.LLSDACSE8307:
	.text
	.size	_ZN8asiodnp311MasterStack15PerformFunctionERKNSt7__cxx1112basic_stringIcSt11char_traitsIcESaIcEEEN8opendnp312FunctionCodeERKSt6vectorINS9_6HeaderESaISC_EERKNS9_10TaskConfigE, .-_ZN8asiodnp311MasterStack15PerformFunctionERKNSt7__cxx1112basic_stringIcSt11char_traitsIcESaIcEEEN8opendnp312FunctionCodeERKSt6vectorINS9_6HeaderESaISC_EERKNS9_10TaskConfigE
	.section	.text.unlikely
	.align 2
	.type	_ZN4asio6detail18completion_handlerIZN8asiodnp311MasterStack13DirectOperateEON8opendnp310CommandSetERKSt8functionIFvRKNS4_18ICommandTaskResultEEERKNS4_10TaskConfigEEUlvE_E3ptr5resetEv.isra.107, @function
_ZN4asio6detail18completion_handlerIZN8asiodnp311MasterStack13DirectOperateEON8opendnp310CommandSetERKSt8functionIFvRKNS4_18ICommandTaskResultEEERKNS4_10TaskConfigEEUlvE_E3ptr5resetEv.isra.107:
.LFB12458:
	.cfi_startproc
	.cfi_personality 0x9b,DW.ref.__gxx_personality_v0
	.cfi_lsda 0x1b,.LLSDA12458
	pushq	%r12
	.cfi_def_cfa_offset 16
	.cfi_offset 12, -16
	pushq	%rbp
	.cfi_def_cfa_offset 24
	.cfi_offset 6, -24
	movq	%rdi, %rbp
	pushq	%rbx
	.cfi_def_cfa_offset 32
	.cfi_offset 3, -32
	movq	(%rsi), %rbx
	testq	%rbx, %rbx
