	.file	"MasterContext.cpp"
	.text
	.section	.text._ZN8opendnp318IMasterApplication12OnReceiveIINERKNS_8IINFieldE,"axG",@progbits,_ZN8opendnp318IMasterApplication12OnReceiveIINERKNS_8IINFieldE,comdat
	.align 2
	.p2align 4,,15
	.weak	_ZN8opendnp318IMasterApplication12OnReceiveIINERKNS_8IINFieldE
	.type	_ZN8opendnp318IMasterApplication12OnReceiveIINERKNS_8IINFieldE, @function
_ZN8opendnp318IMasterApplication12OnReceiveIINERKNS_8IINFieldE:
.LFB2452:
	.cfi_startproc
	rep ret
	.cfi_endproc
.LFE2452:
	.size	_ZN8opendnp318IMasterApplication12OnReceiveIINERKNS_8IINFieldE, .-_ZN8opendnp318IMasterApplication12OnReceiveIINERKNS_8IINFieldE
	.section	.text._ZN8opendnp318IMasterApplication6OnOpenEv,"axG",@progbits,_ZN8opendnp318IMasterApplication6OnOpenEv,comdat
	.align 2
	.p2align 4,,15
	.weak	_ZN8opendnp318IMasterApplication6OnOpenEv
	.type	_ZN8opendnp318IMasterApplication6OnOpenEv, @function
_ZN8opendnp318IMasterApplication6OnOpenEv:
.LFB2455:
	.cfi_startproc
	rep ret
	.cfi_endproc
.LFE2455:
	.size	_ZN8opendnp318IMasterApplication6OnOpenEv, .-_ZN8opendnp318IMasterApplication6OnOpenEv
	.section	.text._ZN8opendnp318IMasterApplication7OnCloseEv,"axG",@progbits,_ZN8opendnp318IMasterApplication7OnCloseEv,comdat
	.align 2
	.p2align 4,,15
	.weak	_ZN8opendnp318IMasterApplication7OnCloseEv
	.type	_ZN8opendnp318IMasterApplication7OnCloseEv, @function
_ZN8opendnp318IMasterApplication7OnCloseEv:
.LFB2456:
	.cfi_startproc
	rep ret
	.cfi_endproc
.LFE2456:
	.size	_ZN8opendnp318IMasterApplication7OnCloseEv, .-_ZN8opendnp318IMasterApplication7OnCloseEv
	.section	.text._ZN8opendnp312NullTaskLock7AcquireERNS_17IScheduleCallbackE,"axG",@progbits,_ZN8opendnp312NullTaskLock7AcquireERNS_17IScheduleCallbackE,comdat
	.align 2
	.p2align 4,,15
	.weak	_ZN8opendnp312NullTaskLock7AcquireERNS_17IScheduleCallbackE
	.type	_ZN8opendnp312NullTaskLock7AcquireERNS_17IScheduleCallbackE, @function
_ZN8opendnp312NullTaskLock7AcquireERNS_17IScheduleCallbackE:
.LFB3029:
	.cfi_startproc
	movl	$1, %eax
	ret
	.cfi_endproc
.LFE3029:
	.size	_ZN8opendnp312NullTaskLock7AcquireERNS_17IScheduleCallbackE, .-_ZN8opendnp312NullTaskLock7AcquireERNS_17IScheduleCallbackE
	.section	.text._ZN8opendnp312NullTaskLock7ReleaseERNS_17IScheduleCallbackE,"axG",@progbits,_ZN8opendnp312NullTaskLock7ReleaseERNS_17IScheduleCallbackE,comdat
	.align 2
	.p2align 4,,15
	.weak	_ZN8opendnp312NullTaskLock7ReleaseERNS_17IScheduleCallbackE
	.type	_ZN8opendnp312NullTaskLock7ReleaseERNS_17IScheduleCallbackE, @function
_ZN8opendnp312NullTaskLock7ReleaseERNS_17IScheduleCallbackE:
.LFB3030:
	.cfi_startproc
	movl	$1, %eax
	ret
	.cfi_endproc
.LFE3030:
	.size	_ZN8opendnp312NullTaskLock7ReleaseERNS_17IScheduleCallbackE, .-_ZN8opendnp312NullTaskLock7ReleaseERNS_17IScheduleCallbackE
	.section	.text._ZN8opendnp38MContext17RecordLastRequestERKN7openpal6RSliceE,"axG",@progbits,_ZN8opendnp38MContext17RecordLastRequestERKN7openpal6RSliceE,comdat
	.align 2
	.p2align 4,,15
	.weak	_ZN8opendnp38MContext17RecordLastRequestERKN7openpal6RSliceE
	.type	_ZN8opendnp38MContext17RecordLastRequestERKN7openpal6RSliceE, @function
_ZN8opendnp38MContext17RecordLastRequestERKN7openpal6RSliceE:
.LFB3043:
	.cfi_startproc
	rep ret
	.cfi_endproc
.LFE3043:
	.size	_ZN8opendnp38MContext17RecordLastRequestERKN7openpal6RSliceE, .-_ZN8opendnp38MContext17RecordLastRequestERKN7openpal6RSliceE
	.section	.text._ZN8opendnp38MContext21MeetsUserRequirementsERKSt10shared_ptrINS_11IMasterTaskEE,"axG",@progbits,_ZN8opendnp38MContext21MeetsUserRequirementsERKSt10shared_ptrINS_11IMasterTaskEE,comdat
	.align 2
	.p2align 4,,15
	.weak	_ZN8opendnp38MContext21MeetsUserRequirementsERKSt10shared_ptrINS_11IMasterTaskEE
	.type	_ZN8opendnp38MContext21MeetsUserRequirementsERKSt10shared_ptrINS_11IMasterTaskEE, @function
_ZN8opendnp38MContext21MeetsUserRequirementsERKSt10shared_ptrINS_11IMasterTaskEE:
.LFB3044:
	.cfi_startproc
	movl	$1, %eax
	ret
	.cfi_endproc
.LFE3044:
	.size	_ZN8opendnp38MContext21MeetsUserRequirementsERKSt10shared_ptrINS_11IMasterTaskEE, .-_ZN8opendnp38MContext21MeetsUserRequirementsERKSt10shared_ptrINS_11IMasterTaskEE
	.section	.text._ZN8opendnp38MContext6CanRunERKNS_11IMasterTaskE,"axG",@progbits,_ZN8opendnp38MContext6CanRunERKNS_11IMasterTaskE,comdat
	.align 2
	.p2align 4,,15
	.weak	_ZN8opendnp38MContext6CanRunERKNS_11IMasterTaskE
	.type	_ZN8opendnp38MContext6CanRunERKNS_11IMasterTaskE, @function
_ZN8opendnp38MContext6CanRunERKNS_11IMasterTaskE:
.LFB3045:
	.cfi_startproc
	movl	$1, %eax
	ret
	.cfi_endproc
.LFE3045:
	.size	_ZN8opendnp38MContext6CanRunERKNS_11IMasterTaskE, .-_ZN8opendnp38MContext6CanRunERKNS_11IMasterTaskE
	.text
	.p2align 4,,15
	.type	_ZNSt14_Function_base13_Base_managerIZN8opendnp38MContext16PostCheckForTaskEvEUlvE_E10_M_managerERSt9_Any_dataRKS5_St18_Manager_operation, @function
_ZNSt14_Function_base13_Base_managerIZN8opendnp38MContext16PostCheckForTaskEvEUlvE_E10_M_managerERSt9_Any_dataRKS5_St18_Manager_operation:
.LFB4075:
	.cfi_startproc
	cmpl	$1, %edx
	je	.L12
	jb	.L13
	cmpl	$2, %edx
	jne	.L11
	movq	(%rsi), %rax
	movq	%rax, (%rdi)
.L11:
	xorl	%eax, %eax
	ret
	.p2align 4,,10
	.p2align 3
.L13:
	leaq	_ZTIZN8opendnp38MContext16PostCheckForTaskEvEUlvE_(%rip), %rax
	movq	%rax, (%rdi)
	xorl	%eax, %eax
	ret
	.p2align 4,,10
	.p2align 3
.L12:
	movq	%rsi, (%rdi)
	xorl	%eax, %eax
	ret
	.cfi_endproc
.LFE4075:
	.size	_ZNSt14_Function_base13_Base_managerIZN8opendnp38MContext16PostCheckForTaskEvEUlvE_E10_M_managerERSt9_Any_dataRKS5_St18_Manager_operation, .-_ZNSt14_Function_base13_Base_managerIZN8opendnp38MContext16PostCheckForTaskEvEUlvE_E10_M_managerERSt9_Any_dataRKS5_St18_Manager_operation
	.p2align 4,,15
	.type	_ZNSt14_Function_base13_Base_managerIZN8opendnp38MContext12AddClassScanERKNS1_10ClassFieldEN7openpal12TimeDurationENS1_10TaskConfigEEUlRNS1_12HeaderWriterEE_E10_M_managerERSt9_Any_dataRKSD_St18_Manager_operation, @function
_ZNSt14_Function_base13_Base_managerIZN8opendnp38MContext12AddClassScanERKNS1_10ClassFieldEN7openpal12TimeDurationENS1_10TaskConfigEEUlRNS1_12HeaderWriterEE_E10_M_managerERSt9_Any_dataRKSD_St18_Manager_operation:
.LFB4099:
	.cfi_startproc
	cmpl	$1, %edx
	je	.L17
	jb	.L18
	cmpl	$2, %edx
	jne	.L16
	movzbl	(%rsi), %eax
	movb	%al, (%rdi)
.L16:
	xorl	%eax, %eax
	ret
	.p2align 4,,10
	.p2align 3
.L18:
	leaq	_ZTIZN8opendnp38MContext12AddClassScanERKNS_10ClassFieldEN7openpal12TimeDurationENS_10TaskConfigEEUlRNS_12HeaderWriterEE_(%rip), %rax
	movq	%rax, (%rdi)
	xorl	%eax, %eax
	ret
	.p2align 4,,10
	.p2align 3
.L17:
	movq	%rsi, (%rdi)
	xorl	%eax, %eax
	ret
	.cfi_endproc
.LFE4099:
	.size	_ZNSt14_Function_base13_Base_managerIZN8opendnp38MContext12AddClassScanERKNS1_10ClassFieldEN7openpal12TimeDurationENS1_10TaskConfigEEUlRNS1_12HeaderWriterEE_E10_M_managerERSt9_Any_dataRKSD_St18_Manager_operation, .-_ZNSt14_Function_base13_Base_managerIZN8opendnp38MContext12AddClassScanERKNS1_10ClassFieldEN7openpal12TimeDurationENS1_10TaskConfigEEUlRNS1_12HeaderWriterEE_E10_M_managerERSt9_Any_dataRKSD_St18_Manager_operation
	.p2align 4,,15
	.type	_ZNSt14_Function_base13_Base_managerIZN8opendnp38MContext17AddAllObjectsScanENS1_16GroupVariationIDEN7openpal12TimeDurationENS1_10TaskConfigEEUlRNS1_12HeaderWriterEE_E10_M_managerERSt9_Any_dataRKSB_St18_Manager_operation, @function
_ZNSt14_Function_base13_Base_managerIZN8opendnp38MContext17AddAllObjectsScanENS1_16GroupVariationIDEN7openpal12TimeDurationENS1_10TaskConfigEEUlRNS1_12HeaderWriterEE_E10_M_managerERSt9_Any_dataRKSB_St18_Manager_operation:
.LFB4103:
	.cfi_startproc
	cmpl	$1, %edx
	je	.L22
	jb	.L23
	cmpl	$2, %edx
	jne	.L21
	movzwl	(%rsi), %eax
	movw	%ax, (%rdi)
.L21:
	xorl	%eax, %eax
	ret
	.p2align 4,,10
	.p2align 3
.L23:
	leaq	_ZTIZN8opendnp38MContext17AddAllObjectsScanENS_16GroupVariationIDEN7openpal12TimeDurationENS_10TaskConfigEEUlRNS_12HeaderWriterEE_(%rip), %rax
	movq	%rax, (%rdi)
	xorl	%eax, %eax
	ret
	.p2align 4,,10
	.p2align 3
.L22:
	movq	%rsi, (%rdi)
	xorl	%eax, %eax
	ret
	.cfi_endproc
.LFE4103:
	.size	_ZNSt14_Function_base13_Base_managerIZN8opendnp38MContext17AddAllObjectsScanENS1_16GroupVariationIDEN7openpal12TimeDurationENS1_10TaskConfigEEUlRNS1_12HeaderWriterEE_E10_M_managerERSt9_Any_dataRKSB_St18_Manager_operation, .-_ZNSt14_Function_base13_Base_managerIZN8opendnp38MContext17AddAllObjectsScanENS1_16GroupVariationIDEN7openpal12TimeDurationENS1_10TaskConfigEEUlRNS1_12HeaderWriterEE_E10_M_managerERSt9_Any_dataRKSB_St18_Manager_operation
	.p2align 4,,15
	.type	_ZNSt14_Function_base13_Base_managerIZN8opendnp38MContext12AddRangeScanENS1_16GroupVariationIDEttN7openpal12TimeDurationENS1_10TaskConfigEEUlRNS1_12HeaderWriterEE_E10_M_managerERSt9_Any_dataRKSB_St18_Manager_operation, @function
_ZNSt14_Function_base13_Base_managerIZN8opendnp38MContext12AddRangeScanENS1_16GroupVariationIDEttN7openpal12TimeDurationENS1_10TaskConfigEEUlRNS1_12HeaderWriterEE_E10_M_managerERSt9_Any_dataRKSB_St18_Manager_operation:
.LFB4108:
	.cfi_startproc
	cmpl	$1, %edx
	je	.L27
	jb	.L28
	cmpl	$2, %edx
	jne	.L26
	movl	(%rsi), %eax
	movl	%eax, (%rdi)
	movzwl	4(%rsi), %eax
	movw	%ax, 4(%rdi)
.L26:
	xorl	%eax, %eax
	ret
	.p2align 4,,10
	.p2align 3
.L28:
	leaq	_ZTIZN8opendnp38MContext12AddRangeScanENS_16GroupVariationIDEttN7openpal12TimeDurationENS_10TaskConfigEEUlRNS_12HeaderWriterEE_(%rip), %rax
	movq	%rax, (%rdi)
	xorl	%eax, %eax
	ret
	.p2align 4,,10
	.p2align 3
.L27:
	movq	%rsi, (%rdi)
	xorl	%eax, %eax
	ret
	.cfi_endproc
.LFE4108:
	.size	_ZNSt14_Function_base13_Base_managerIZN8opendnp38MContext12AddRangeScanENS1_16GroupVariationIDEttN7openpal12TimeDurationENS1_10TaskConfigEEUlRNS1_12HeaderWriterEE_E10_M_managerERSt9_Any_dataRKSB_St18_Manager_operation, .-_ZNSt14_Function_base13_Base_managerIZN8opendnp38MContext12AddRangeScanENS1_16GroupVariationIDEttN7openpal12TimeDurationENS1_10TaskConfigEEUlRNS1_12HeaderWriterEE_E10_M_managerERSt9_Any_dataRKSB_St18_Manager_operation
	.p2align 4,,15
	.type	_ZNSt14_Function_base13_Base_managerIZN8opendnp38MContext11ScanClassesERKNS1_10ClassFieldENS1_10TaskConfigEEUlRNS1_12HeaderWriterEE_E10_M_managerERSt9_Any_dataRKSB_St18_Manager_operation, @function
_ZNSt14_Function_base13_Base_managerIZN8opendnp38MContext11ScanClassesERKNS1_10ClassFieldENS1_10TaskConfigEEUlRNS1_12HeaderWriterEE_E10_M_managerERSt9_Any_dataRKSB_St18_Manager_operation:
.LFB4113:
	.cfi_startproc
	cmpl	$1, %edx
	je	.L32
	jb	.L33
	cmpl	$2, %edx
	jne	.L31
	movzbl	(%rsi), %eax
	movb	%al, (%rdi)
.L31:
	xorl	%eax, %eax
	ret
	.p2align 4,,10
	.p2align 3
.L33:
	leaq	_ZTIZN8opendnp38MContext11ScanClassesERKNS_10ClassFieldENS_10TaskConfigEEUlRNS_12HeaderWriterEE_(%rip), %rax
	movq	%rax, (%rdi)
	xorl	%eax, %eax
	ret
	.p2align 4,,10
	.p2align 3
.L32:
	movq	%rsi, (%rdi)
	xorl	%eax, %eax
	ret
	.cfi_endproc
.LFE4113:
	.size	_ZNSt14_Function_base13_Base_managerIZN8opendnp38MContext11ScanClassesERKNS1_10ClassFieldENS1_10TaskConfigEEUlRNS1_12HeaderWriterEE_E10_M_managerERSt9_Any_dataRKSB_St18_Manager_operation, .-_ZNSt14_Function_base13_Base_managerIZN8opendnp38MContext11ScanClassesERKNS1_10ClassFieldENS1_10TaskConfigEEUlRNS1_12HeaderWriterEE_E10_M_managerERSt9_Any_dataRKSB_St18_Manager_operation
	.p2align 4,,15
	.type	_ZNSt14_Function_base13_Base_managerIZN8opendnp38MContext14ScanAllObjectsENS1_16GroupVariationIDENS1_10TaskConfigEEUlRNS1_12HeaderWriterEE_E10_M_managerERSt9_Any_dataRKS9_St18_Manager_operation, @function
_ZNSt14_Function_base13_Base_managerIZN8opendnp38MContext14ScanAllObjectsENS1_16GroupVariationIDENS1_10TaskConfigEEUlRNS1_12HeaderWriterEE_E10_M_managerERSt9_Any_dataRKS9_St18_Manager_operation:
.LFB4117:
	.cfi_startproc
	cmpl	$1, %edx
	je	.L37
	jb	.L38
	cmpl	$2, %edx
	jne	.L36
	movzwl	(%rsi), %eax
	movw	%ax, (%rdi)
.L36:
	xorl	%eax, %eax
	ret
	.p2align 4,,10
	.p2align 3
.L38:
	leaq	_ZTIZN8opendnp38MContext14ScanAllObjectsENS_16GroupVariationIDENS_10TaskConfigEEUlRNS_12HeaderWriterEE_(%rip), %rax
	movq	%rax, (%rdi)
	xorl	%eax, %eax
	ret
	.p2align 4,,10
	.p2align 3
.L37:
	movq	%rsi, (%rdi)
	xorl	%eax, %eax
	ret
	.cfi_endproc
.LFE4117:
	.size	_ZNSt14_Function_base13_Base_managerIZN8opendnp38MContext14ScanAllObjectsENS1_16GroupVariationIDENS1_10TaskConfigEEUlRNS1_12HeaderWriterEE_E10_M_managerERSt9_Any_dataRKS9_St18_Manager_operation, .-_ZNSt14_Function_base13_Base_managerIZN8opendnp38MContext14ScanAllObjectsENS1_16GroupVariationIDENS1_10TaskConfigEEUlRNS1_12HeaderWriterEE_E10_M_managerERSt9_Any_dataRKS9_St18_Manager_operation
	.p2align 4,,15
	.type	_ZNSt14_Function_base13_Base_managerIZN8opendnp38MContext9ScanRangeENS1_16GroupVariationIDEttNS1_10TaskConfigEEUlRNS1_12HeaderWriterEE_E10_M_managerERSt9_Any_dataRKS9_St18_Manager_operation, @function
_ZNSt14_Function_base13_Base_managerIZN8opendnp38MContext9ScanRangeENS1_16GroupVariationIDEttNS1_10TaskConfigEEUlRNS1_12HeaderWriterEE_E10_M_managerERSt9_Any_dataRKS9_St18_Manager_operation:
.LFB4121:
	.cfi_startproc
	cmpl	$1, %edx
	je	.L42
	jb	.L43
	cmpl	$2, %edx
	jne	.L41
	movl	(%rsi), %eax
	movl	%eax, (%rdi)
	movzwl	4(%rsi), %eax
	movw	%ax, 4(%rdi)
.L41:
	xorl	%eax, %eax
	ret
	.p2align 4,,10
	.p2align 3
.L43:
	leaq	_ZTIZN8opendnp38MContext9ScanRangeENS_16GroupVariationIDEttNS_10TaskConfigEEUlRNS_12HeaderWriterEE_(%rip), %rax
	movq	%rax, (%rdi)
	xorl	%eax, %eax
	ret
	.p2align 4,,10
	.p2align 3
.L42:
	movq	%rsi, (%rdi)
	xorl	%eax, %eax
	ret
	.cfi_endproc
.LFE4121:
	.size	_ZNSt14_Function_base13_Base_managerIZN8opendnp38MContext9ScanRangeENS1_16GroupVariationIDEttNS1_10TaskConfigEEUlRNS1_12HeaderWriterEE_E10_M_managerERSt9_Any_dataRKS9_St18_Manager_operation, .-_ZNSt14_Function_base13_Base_managerIZN8opendnp38MContext9ScanRangeENS1_16GroupVariationIDEttNS1_10TaskConfigEEUlRNS1_12HeaderWriterEE_E10_M_managerERSt9_Any_dataRKS9_St18_Manager_operation
	.p2align 4,,15
	.type	_ZNSt14_Function_base13_Base_managerIZN7openpal8TimerRef5StartIZN8opendnp38MContext18StartResponseTimerEvEUlvE_EEbRKNS1_12TimeDurationERKT_EUlvE_E10_M_managerERSt9_Any_dataRKSF_St18_Manager_operation, @function
_ZNSt14_Function_base13_Base_managerIZN7openpal8TimerRef5StartIZN8opendnp38MContext18StartResponseTimerEvEUlvE_EEbRKNS1_12TimeDurationERKT_EUlvE_E10_M_managerERSt9_Any_dataRKSF_St18_Manager_operation:
.LFB4256:
	.cfi_startproc
	cmpl	$1, %edx
	je	.L47
	jb	.L48
	cmpl	$2, %edx
	jne	.L46
	movdqu	(%rsi), %xmm0
	movups	%xmm0, (%rdi)
.L46:
	xorl	%eax, %eax
	ret
	.p2align 4,,10
	.p2align 3
.L48:
	leaq	_ZTIZN7openpal8TimerRef5StartIZN8opendnp38MContext18StartResponseTimerEvEUlvE_EEbRKNS_12TimeDurationERKT_EUlvE_(%rip), %rax
	movq	%rax, (%rdi)
	xorl	%eax, %eax
	ret
	.p2align 4,,10
	.p2align 3
.L47:
	movq	%rsi, (%rdi)
	xorl	%eax, %eax
	ret
	.cfi_endproc
.LFE4256:
	.size	_ZNSt14_Function_base13_Base_managerIZN7openpal8TimerRef5StartIZN8opendnp38MContext18StartResponseTimerEvEUlvE_EEbRKNS1_12TimeDurationERKT_EUlvE_E10_M_managerERSt9_Any_dataRKSF_St18_Manager_operation, .-_ZNSt14_Function_base13_Base_managerIZN7openpal8TimerRef5StartIZN8opendnp38MContext18StartResponseTimerEvEUlvE_EEbRKNS1_12TimeDurationERKT_EUlvE_E10_M_managerERSt9_Any_dataRKSF_St18_Manager_operation
	.p2align 4,,15
	.type	_ZNSt14_Function_base13_Base_managerIZN7openpal8TimerRef7RestartIZN8opendnp38MContext19SetTaskStartTimeoutERKNS1_18MonotonicTimestampEEUlvE_EEvS8_RKT_EUlvE_E10_M_managerERSt9_Any_dataRKSF_St18_Manager_operation, @function
_ZNSt14_Function_base13_Base_managerIZN7openpal8TimerRef7RestartIZN8opendnp38MContext19SetTaskStartTimeoutERKNS1_18MonotonicTimestampEEUlvE_EEvS8_RKT_EUlvE_E10_M_managerERSt9_Any_dataRKSF_St18_Manager_operation:
.LFB4330:
	.cfi_startproc
	cmpl	$1, %edx
	je	.L52
	jb	.L53
	cmpl	$2, %edx
	jne	.L51
	movdqu	(%rsi), %xmm0
	movups	%xmm0, (%rdi)
.L51:
	xorl	%eax, %eax
	ret
	.p2align 4,,10
	.p2align 3
.L53:
	leaq	_ZTIZN7openpal8TimerRef7RestartIZN8opendnp38MContext19SetTaskStartTimeoutERKNS_18MonotonicTimestampEEUlvE_EEvS6_RKT_EUlvE_(%rip), %rax
	movq	%rax, (%rdi)
	xorl	%eax, %eax
	ret
	.p2align 4,,10
	.p2align 3
.L52:
	movq	%rsi, (%rdi)
	xorl	%eax, %eax
	ret
	.cfi_endproc
.LFE4330:
	.size	_ZNSt14_Function_base13_Base_managerIZN7openpal8TimerRef7RestartIZN8opendnp38MContext19SetTaskStartTimeoutERKNS1_18MonotonicTimestampEEUlvE_EEvS8_RKT_EUlvE_E10_M_managerERSt9_Any_dataRKSF_St18_Manager_operation, .-_ZNSt14_Function_base13_Base_managerIZN7openpal8TimerRef7RestartIZN8opendnp38MContext19SetTaskStartTimeoutERKNS1_18MonotonicTimestampEEUlvE_EEvS8_RKT_EUlvE_E10_M_managerERSt9_Any_dataRKSF_St18_Manager_operation
	.p2align 4,,15
	.type	_ZNSt14_Function_base13_Base_managerIZN7openpal8TimerRef7RestartIZN8opendnp38MContext14StartTask_IdleEvEUlvE_EEvRKNS1_18MonotonicTimestampERKT_EUlvE_E10_M_managerERSt9_Any_dataRKSF_St18_Manager_operation, @function
_ZNSt14_Function_base13_Base_managerIZN7openpal8TimerRef7RestartIZN8opendnp38MContext14StartTask_IdleEvEUlvE_EEvRKNS1_18MonotonicTimestampERKT_EUlvE_E10_M_managerERSt9_Any_dataRKSF_St18_Manager_operation:
.LFB4334:
	.cfi_startproc
	cmpl	$1, %edx
	je	.L57
	jb	.L58
	cmpl	$2, %edx
	jne	.L56
	movdqu	(%rsi), %xmm0
	movups	%xmm0, (%rdi)
.L56:
	xorl	%eax, %eax
	ret
	.p2align 4,,10
	.p2align 3
.L58:
	leaq	_ZTIZN7openpal8TimerRef7RestartIZN8opendnp38MContext14StartTask_IdleEvEUlvE_EEvRKNS_18MonotonicTimestampERKT_EUlvE_(%rip), %rax
	movq	%rax, (%rdi)
	xorl	%eax, %eax
	ret
	.p2align 4,,10
	.p2align 3
.L57:
	movq	%rsi, (%rdi)
	xorl	%eax, %eax
	ret
	.cfi_endproc
.LFE4334:
	.size	_ZNSt14_Function_base13_Base_managerIZN7openpal8TimerRef7RestartIZN8opendnp38MContext14StartTask_IdleEvEUlvE_EEvRKNS1_18MonotonicTimestampERKT_EUlvE_E10_M_managerERSt9_Any_dataRKSF_St18_Manager_operation, .-_ZNSt14_Function_base13_Base_managerIZN7openpal8TimerRef7RestartIZN8opendnp38MContext14StartTask_IdleEvEUlvE_EEvRKNS1_18MonotonicTimestampERKT_EUlvE_E10_M_managerERSt9_Any_dataRKSF_St18_Manager_operation
	.section	.text._ZNSt23_Sp_counted_ptr_inplaceIN8opendnp320RestartOperationTaskESaIS1_ELN9__gnu_cxx12_Lock_policyE2EED2Ev,"axG",@progbits,_ZNSt23_Sp_counted_ptr_inplaceIN8opendnp320RestartOperationTaskESaIS1_ELN9__gnu_cxx12_Lock_policyE2EED5Ev,comdat
	.align 2
	.p2align 4,,15
	.weak	_ZNSt23_Sp_counted_ptr_inplaceIN8opendnp320RestartOperationTaskESaIS1_ELN9__gnu_cxx12_Lock_policyE2EED2Ev
	.type	_ZNSt23_Sp_counted_ptr_inplaceIN8opendnp320RestartOperationTaskESaIS1_ELN9__gnu_cxx12_Lock_policyE2EED2Ev, @function
_ZNSt23_Sp_counted_ptr_inplaceIN8opendnp320RestartOperationTaskESaIS1_ELN9__gnu_cxx12_Lock_policyE2EED2Ev:
.LFB4902:
	.cfi_startproc
	rep ret
	.cfi_endproc
.LFE4902:
	.size	_ZNSt23_Sp_counted_ptr_inplaceIN8opendnp320RestartOperationTaskESaIS1_ELN9__gnu_cxx12_Lock_policyE2EED2Ev, .-_ZNSt23_Sp_counted_ptr_inplaceIN8opendnp320RestartOperationTaskESaIS1_ELN9__gnu_cxx12_Lock_policyE2EED2Ev
	.weak	_ZNSt23_Sp_counted_ptr_inplaceIN8opendnp320RestartOperationTaskESaIS1_ELN9__gnu_cxx12_Lock_policyE2EED1Ev
	.set	_ZNSt23_Sp_counted_ptr_inplaceIN8opendnp320RestartOperationTaskESaIS1_ELN9__gnu_cxx12_Lock_policyE2EED1Ev,_ZNSt23_Sp_counted_ptr_inplaceIN8opendnp320RestartOperationTaskESaIS1_ELN9__gnu_cxx12_Lock_policyE2EED2Ev
	.section	.text._ZNSt23_Sp_counted_ptr_inplaceIN8opendnp317EmptyResponseTaskESaIS1_ELN9__gnu_cxx12_Lock_policyE2EED2Ev,"axG",@progbits,_ZNSt23_Sp_counted_ptr_inplaceIN8opendnp317EmptyResponseTaskESaIS1_ELN9__gnu_cxx12_Lock_policyE2EED5Ev,comdat
	.align 2
	.p2align 4,,15
	.weak	_ZNSt23_Sp_counted_ptr_inplaceIN8opendnp317EmptyResponseTaskESaIS1_ELN9__gnu_cxx12_Lock_policyE2EED2Ev
	.type	_ZNSt23_Sp_counted_ptr_inplaceIN8opendnp317EmptyResponseTaskESaIS1_ELN9__gnu_cxx12_Lock_policyE2EED2Ev, @function
_ZNSt23_Sp_counted_ptr_inplaceIN8opendnp317EmptyResponseTaskESaIS1_ELN9__gnu_cxx12_Lock_policyE2EED2Ev:
.LFB4909:
	.cfi_startproc
	rep ret
	.cfi_endproc
.LFE4909:
	.size	_ZNSt23_Sp_counted_ptr_inplaceIN8opendnp317EmptyResponseTaskESaIS1_ELN9__gnu_cxx12_Lock_policyE2EED2Ev, .-_ZNSt23_Sp_counted_ptr_inplaceIN8opendnp317EmptyResponseTaskESaIS1_ELN9__gnu_cxx12_Lock_policyE2EED2Ev
	.weak	_ZNSt23_Sp_counted_ptr_inplaceIN8opendnp317EmptyResponseTaskESaIS1_ELN9__gnu_cxx12_Lock_policyE2EED1Ev
	.set	_ZNSt23_Sp_counted_ptr_inplaceIN8opendnp317EmptyResponseTaskESaIS1_ELN9__gnu_cxx12_Lock_policyE2EED1Ev,_ZNSt23_Sp_counted_ptr_inplaceIN8opendnp317EmptyResponseTaskESaIS1_ELN9__gnu_cxx12_Lock_policyE2EED2Ev
	.section	.text._ZNSt23_Sp_counted_ptr_inplaceIN8opendnp317EmptyResponseTaskESaIS1_ELN9__gnu_cxx12_Lock_policyE2EE10_M_disposeEv,"axG",@progbits,_ZNSt23_Sp_counted_ptr_inplaceIN8opendnp317EmptyResponseTaskESaIS1_ELN9__gnu_cxx12_Lock_policyE2EE10_M_disposeEv,comdat
	.align 2
	.p2align 4,,15
	.weak	_ZNSt23_Sp_counted_ptr_inplaceIN8opendnp317EmptyResponseTaskESaIS1_ELN9__gnu_cxx12_Lock_policyE2EE10_M_disposeEv
	.type	_ZNSt23_Sp_counted_ptr_inplaceIN8opendnp317EmptyResponseTaskESaIS1_ELN9__gnu_cxx12_Lock_policyE2EE10_M_disposeEv, @function
_ZNSt23_Sp_counted_ptr_inplaceIN8opendnp317EmptyResponseTaskESaIS1_ELN9__gnu_cxx12_Lock_policyE2EE10_M_disposeEv:
.LFB4912:
	.cfi_startproc
	movq	%rdi, %rax
	leaq	16(%rdi), %rdi
	movq	16(%rax), %rax
	jmp	*(%rax)
	.cfi_endproc
.LFE4912:
	.size	_ZNSt23_Sp_counted_ptr_inplaceIN8opendnp317EmptyResponseTaskESaIS1_ELN9__gnu_cxx12_Lock_policyE2EE10_M_disposeEv, .-_ZNSt23_Sp_counted_ptr_inplaceIN8opendnp317EmptyResponseTaskESaIS1_ELN9__gnu_cxx12_Lock_policyE2EE10_M_disposeEv
	.section	.text._ZNSt23_Sp_counted_ptr_inplaceIN8opendnp312UserPollTaskESaIS1_ELN9__gnu_cxx12_Lock_policyE2EED2Ev,"axG",@progbits,_ZNSt23_Sp_counted_ptr_inplaceIN8opendnp312UserPollTaskESaIS1_ELN9__gnu_cxx12_Lock_policyE2EED5Ev,comdat
	.align 2
	.p2align 4,,15
	.weak	_ZNSt23_Sp_counted_ptr_inplaceIN8opendnp312UserPollTaskESaIS1_ELN9__gnu_cxx12_Lock_policyE2EED2Ev
	.type	_ZNSt23_Sp_counted_ptr_inplaceIN8opendnp312UserPollTaskESaIS1_ELN9__gnu_cxx12_Lock_policyE2EED2Ev, @function
_ZNSt23_Sp_counted_ptr_inplaceIN8opendnp312UserPollTaskESaIS1_ELN9__gnu_cxx12_Lock_policyE2EED2Ev:
.LFB4916:
	.cfi_startproc
	rep ret
	.cfi_endproc
.LFE4916:
	.size	_ZNSt23_Sp_counted_ptr_inplaceIN8opendnp312UserPollTaskESaIS1_ELN9__gnu_cxx12_Lock_policyE2EED2Ev, .-_ZNSt23_Sp_counted_ptr_inplaceIN8opendnp312UserPollTaskESaIS1_ELN9__gnu_cxx12_Lock_policyE2EED2Ev
	.weak	_ZNSt23_Sp_counted_ptr_inplaceIN8opendnp312UserPollTaskESaIS1_ELN9__gnu_cxx12_Lock_policyE2EED1Ev
	.set	_ZNSt23_Sp_counted_ptr_inplaceIN8opendnp312UserPollTaskESaIS1_ELN9__gnu_cxx12_Lock_policyE2EED1Ev,_ZNSt23_Sp_counted_ptr_inplaceIN8opendnp312UserPollTaskESaIS1_ELN9__gnu_cxx12_Lock_policyE2EED2Ev
	.section	.text._ZNSt23_Sp_counted_ptr_inplaceIN8opendnp320RestartOperationTaskESaIS1_ELN9__gnu_cxx12_Lock_policyE2EE10_M_destroyEv,"axG",@progbits,_ZNSt23_Sp_counted_ptr_inplaceIN8opendnp320RestartOperationTaskESaIS1_ELN9__gnu_cxx12_Lock_policyE2EE10_M_destroyEv,comdat
	.align 2
	.p2align 4,,15
	.weak	_ZNSt23_Sp_counted_ptr_inplaceIN8opendnp320RestartOperationTaskESaIS1_ELN9__gnu_cxx12_Lock_policyE2EE10_M_destroyEv
	.type	_ZNSt23_Sp_counted_ptr_inplaceIN8opendnp320RestartOperationTaskESaIS1_ELN9__gnu_cxx12_Lock_policyE2EE10_M_destroyEv, @function
_ZNSt23_Sp_counted_ptr_inplaceIN8opendnp320RestartOperationTaskESaIS1_ELN9__gnu_cxx12_Lock_policyE2EE10_M_destroyEv:
.LFB4906:
	.cfi_startproc
	jmp	_ZdlPv@PLT
	.cfi_endproc
.LFE4906:
	.size	_ZNSt23_Sp_counted_ptr_inplaceIN8opendnp320RestartOperationTaskESaIS1_ELN9__gnu_cxx12_Lock_policyE2EE10_M_destroyEv, .-_ZNSt23_Sp_counted_ptr_inplaceIN8opendnp320RestartOperationTaskESaIS1_ELN9__gnu_cxx12_Lock_policyE2EE10_M_destroyEv
	.section	.text._ZNSt23_Sp_counted_ptr_inplaceIN8opendnp317EmptyResponseTaskESaIS1_ELN9__gnu_cxx12_Lock_policyE2EE10_M_destroyEv,"axG",@progbits,_ZNSt23_Sp_counted_ptr_inplaceIN8opendnp317EmptyResponseTaskESaIS1_ELN9__gnu_cxx12_Lock_policyE2EE10_M_destroyEv,comdat
	.align 2
	.p2align 4,,15
	.weak	_ZNSt23_Sp_counted_ptr_inplaceIN8opendnp317EmptyResponseTaskESaIS1_ELN9__gnu_cxx12_Lock_policyE2EE10_M_destroyEv
	.type	_ZNSt23_Sp_counted_ptr_inplaceIN8opendnp317EmptyResponseTaskESaIS1_ELN9__gnu_cxx12_Lock_policyE2EE10_M_destroyEv, @function
_ZNSt23_Sp_counted_ptr_inplaceIN8opendnp317EmptyResponseTaskESaIS1_ELN9__gnu_cxx12_Lock_policyE2EE10_M_destroyEv:
.LFB4913:
	.cfi_startproc
	jmp	_ZdlPv@PLT
	.cfi_endproc
.LFE4913:
	.size	_ZNSt23_Sp_counted_ptr_inplaceIN8opendnp317EmptyResponseTaskESaIS1_ELN9__gnu_cxx12_Lock_policyE2EE10_M_destroyEv, .-_ZNSt23_Sp_counted_ptr_inplaceIN8opendnp317EmptyResponseTaskESaIS1_ELN9__gnu_cxx12_Lock_policyE2EE10_M_destroyEv
	.section	.text._ZNSt23_Sp_counted_ptr_inplaceIN8opendnp312UserPollTaskESaIS1_ELN9__gnu_cxx12_Lock_policyE2EE10_M_destroyEv,"axG",@progbits,_ZNSt23_Sp_counted_ptr_inplaceIN8opendnp312UserPollTaskESaIS1_ELN9__gnu_cxx12_Lock_policyE2EE10_M_destroyEv,comdat
	.align 2
	.p2align 4,,15
	.weak	_ZNSt23_Sp_counted_ptr_inplaceIN8opendnp312UserPollTaskESaIS1_ELN9__gnu_cxx12_Lock_policyE2EE10_M_destroyEv
	.type	_ZNSt23_Sp_counted_ptr_inplaceIN8opendnp312UserPollTaskESaIS1_ELN9__gnu_cxx12_Lock_policyE2EE10_M_destroyEv, @function
_ZNSt23_Sp_counted_ptr_inplaceIN8opendnp312UserPollTaskESaIS1_ELN9__gnu_cxx12_Lock_policyE2EE10_M_destroyEv:
.LFB4920:
	.cfi_startproc
	jmp	_ZdlPv@PLT
	.cfi_endproc
.LFE4920:
	.size	_ZNSt23_Sp_counted_ptr_inplaceIN8opendnp312UserPollTaskESaIS1_ELN9__gnu_cxx12_Lock_policyE2EE10_M_destroyEv, .-_ZNSt23_Sp_counted_ptr_inplaceIN8opendnp312UserPollTaskESaIS1_ELN9__gnu_cxx12_Lock_policyE2EE10_M_destroyEv
	.section	.text._ZNSt23_Sp_counted_ptr_inplaceIN8opendnp312UserPollTaskESaIS1_ELN9__gnu_cxx12_Lock_policyE2EED0Ev,"axG",@progbits,_ZNSt23_Sp_counted_ptr_inplaceIN8opendnp312UserPollTaskESaIS1_ELN9__gnu_cxx12_Lock_policyE2EED5Ev,comdat
	.align 2
	.p2align 4,,15
	.weak	_ZNSt23_Sp_counted_ptr_inplaceIN8opendnp312UserPollTaskESaIS1_ELN9__gnu_cxx12_Lock_policyE2EED0Ev
	.type	_ZNSt23_Sp_counted_ptr_inplaceIN8opendnp312UserPollTaskESaIS1_ELN9__gnu_cxx12_Lock_policyE2EED0Ev, @function
_ZNSt23_Sp_counted_ptr_inplaceIN8opendnp312UserPollTaskESaIS1_ELN9__gnu_cxx12_Lock_policyE2EED0Ev:
.LFB4918:
	.cfi_startproc
	movl	$176, %esi
	jmp	_ZdlPvm@PLT
	.cfi_endproc
.LFE4918:
	.size	_ZNSt23_Sp_counted_ptr_inplaceIN8opendnp312UserPollTaskESaIS1_ELN9__gnu_cxx12_Lock_policyE2EED0Ev, .-_ZNSt23_Sp_counted_ptr_inplaceIN8opendnp312UserPollTaskESaIS1_ELN9__gnu_cxx12_Lock_policyE2EED0Ev
	.section	.text._ZNSt23_Sp_counted_ptr_inplaceIN8opendnp317EmptyResponseTaskESaIS1_ELN9__gnu_cxx12_Lock_policyE2EED0Ev,"axG",@progbits,_ZNSt23_Sp_counted_ptr_inplaceIN8opendnp317EmptyResponseTaskESaIS1_ELN9__gnu_cxx12_Lock_policyE2EED5Ev,comdat
	.align 2
	.p2align 4,,15
	.weak	_ZNSt23_Sp_counted_ptr_inplaceIN8opendnp317EmptyResponseTaskESaIS1_ELN9__gnu_cxx12_Lock_policyE2EED0Ev
	.type	_ZNSt23_Sp_counted_ptr_inplaceIN8opendnp317EmptyResponseTaskESaIS1_ELN9__gnu_cxx12_Lock_policyE2EED0Ev, @function
_ZNSt23_Sp_counted_ptr_inplaceIN8opendnp317EmptyResponseTaskESaIS1_ELN9__gnu_cxx12_Lock_policyE2EED0Ev:
.LFB4911:
	.cfi_startproc
	movl	$176, %esi
	jmp	_ZdlPvm@PLT
	.cfi_endproc
.LFE4911:
	.size	_ZNSt23_Sp_counted_ptr_inplaceIN8opendnp317EmptyResponseTaskESaIS1_ELN9__gnu_cxx12_Lock_policyE2EED0Ev, .-_ZNSt23_Sp_counted_ptr_inplaceIN8opendnp317EmptyResponseTaskESaIS1_ELN9__gnu_cxx12_Lock_policyE2EED0Ev
	.section	.text._ZNSt23_Sp_counted_ptr_inplaceIN8opendnp320RestartOperationTaskESaIS1_ELN9__gnu_cxx12_Lock_policyE2EED0Ev,"axG",@progbits,_ZNSt23_Sp_counted_ptr_inplaceIN8opendnp320RestartOperationTaskESaIS1_ELN9__gnu_cxx12_Lock_policyE2EED5Ev,comdat
	.align 2
	.p2align 4,,15
	.weak	_ZNSt23_Sp_counted_ptr_inplaceIN8opendnp320RestartOperationTaskESaIS1_ELN9__gnu_cxx12_Lock_policyE2EED0Ev
	.type	_ZNSt23_Sp_counted_ptr_inplaceIN8opendnp320RestartOperationTaskESaIS1_ELN9__gnu_cxx12_Lock_policyE2EED0Ev, @function
_ZNSt23_Sp_counted_ptr_inplaceIN8opendnp320RestartOperationTaskESaIS1_ELN9__gnu_cxx12_Lock_policyE2EED0Ev:
.LFB4904:
	.cfi_startproc
	movl	$208, %esi
	jmp	_ZdlPvm@PLT
	.cfi_endproc
.LFE4904:
	.size	_ZNSt23_Sp_counted_ptr_inplaceIN8opendnp320RestartOperationTaskESaIS1_ELN9__gnu_cxx12_Lock_policyE2EED0Ev, .-_ZNSt23_Sp_counted_ptr_inplaceIN8opendnp320RestartOperationTaskESaIS1_ELN9__gnu_cxx12_Lock_policyE2EED0Ev
	.section	.text._ZNSt23_Sp_counted_ptr_inplaceIN8opendnp312UserPollTaskESaIS1_ELN9__gnu_cxx12_Lock_policyE2EE14_M_get_deleterERKSt9type_info,"axG",@progbits,_ZNSt23_Sp_counted_ptr_inplaceIN8opendnp312UserPollTaskESaIS1_ELN9__gnu_cxx12_Lock_policyE2EE14_M_get_deleterERKSt9type_info,comdat
	.align 2
	.p2align 4,,15
	.weak	_ZNSt23_Sp_counted_ptr_inplaceIN8opendnp312UserPollTaskESaIS1_ELN9__gnu_cxx12_Lock_policyE2EE14_M_get_deleterERKSt9type_info
	.type	_ZNSt23_Sp_counted_ptr_inplaceIN8opendnp312UserPollTaskESaIS1_ELN9__gnu_cxx12_Lock_policyE2EE14_M_get_deleterERKSt9type_info, @function
_ZNSt23_Sp_counted_ptr_inplaceIN8opendnp312UserPollTaskESaIS1_ELN9__gnu_cxx12_Lock_policyE2EE14_M_get_deleterERKSt9type_info:
.LFB4921:
	.cfi_startproc
	pushq	%rbx
	.cfi_def_cfa_offset 16
	.cfi_offset 3, -16
	movq	%rdi, %rbx
	movq	8(%rsi), %rdi
	movq	_ZTSSt19_Sp_make_shared_tag@GOTPCREL(%rip), %rsi
	cmpq	%rsi, %rdi
	je	.L71
	cmpb	$42, (%rdi)
	je	.L74
	call	strcmp@PLT
	testl	%eax, %eax
	jne	.L74
.L71:
	leaq	16(%rbx), %rax
	popq	%rbx
	.cfi_remember_state
	.cfi_def_cfa_offset 8
	ret
	.p2align 4,,10
	.p2align 3
.L74:
	.cfi_restore_state
	xorl	%eax, %eax
	popq	%rbx
	.cfi_def_cfa_offset 8
	ret
	.cfi_endproc
.LFE4921:
	.size	_ZNSt23_Sp_counted_ptr_inplaceIN8opendnp312UserPollTaskESaIS1_ELN9__gnu_cxx12_Lock_policyE2EE14_M_get_deleterERKSt9type_info, .-_ZNSt23_Sp_counted_ptr_inplaceIN8opendnp312UserPollTaskESaIS1_ELN9__gnu_cxx12_Lock_policyE2EE14_M_get_deleterERKSt9type_info
	.section	.text._ZNSt23_Sp_counted_ptr_inplaceIN8opendnp317EmptyResponseTaskESaIS1_ELN9__gnu_cxx12_Lock_policyE2EE14_M_get_deleterERKSt9type_info,"axG",@progbits,_ZNSt23_Sp_counted_ptr_inplaceIN8opendnp317EmptyResponseTaskESaIS1_ELN9__gnu_cxx12_Lock_policyE2EE14_M_get_deleterERKSt9type_info,comdat
	.align 2
	.p2align 4,,15
	.weak	_ZNSt23_Sp_counted_ptr_inplaceIN8opendnp317EmptyResponseTaskESaIS1_ELN9__gnu_cxx12_Lock_policyE2EE14_M_get_deleterERKSt9type_info
	.type	_ZNSt23_Sp_counted_ptr_inplaceIN8opendnp317EmptyResponseTaskESaIS1_ELN9__gnu_cxx12_Lock_policyE2EE14_M_get_deleterERKSt9type_info, @function
_ZNSt23_Sp_counted_ptr_inplaceIN8opendnp317EmptyResponseTaskESaIS1_ELN9__gnu_cxx12_Lock_policyE2EE14_M_get_deleterERKSt9type_info:
.LFB4914:
	.cfi_startproc
	pushq	%rbx
	.cfi_def_cfa_offset 16
	.cfi_offset 3, -16
	movq	%rdi, %rbx
	movq	8(%rsi), %rdi
	movq	_ZTSSt19_Sp_make_shared_tag@GOTPCREL(%rip), %rsi
	cmpq	%rsi, %rdi
	je	.L77
	cmpb	$42, (%rdi)
	je	.L80
	call	strcmp@PLT
	testl	%eax, %eax
	jne	.L80
.L77:
	leaq	16(%rbx), %rax
	popq	%rbx
	.cfi_remember_state
	.cfi_def_cfa_offset 8
	ret
	.p2align 4,,10
	.p2align 3
.L80:
	.cfi_restore_state
	xorl	%eax, %eax
	popq	%rbx
	.cfi_def_cfa_offset 8
	ret
	.cfi_endproc
.LFE4914:
	.size	_ZNSt23_Sp_counted_ptr_inplaceIN8opendnp317EmptyResponseTaskESaIS1_ELN9__gnu_cxx12_Lock_policyE2EE14_M_get_deleterERKSt9type_info, .-_ZNSt23_Sp_counted_ptr_inplaceIN8opendnp317EmptyResponseTaskESaIS1_ELN9__gnu_cxx12_Lock_policyE2EE14_M_get_deleterERKSt9type_info
	.section	.text._ZNSt23_Sp_counted_ptr_inplaceIN8opendnp320RestartOperationTaskESaIS1_ELN9__gnu_cxx12_Lock_policyE2EE14_M_get_deleterERKSt9type_info,"axG",@progbits,_ZNSt23_Sp_counted_ptr_inplaceIN8opendnp320RestartOperationTaskESaIS1_ELN9__gnu_cxx12_Lock_policyE2EE14_M_get_deleterERKSt9type_info,comdat
	.align 2
	.p2align 4,,15
	.weak	_ZNSt23_Sp_counted_ptr_inplaceIN8opendnp320RestartOperationTaskESaIS1_ELN9__gnu_cxx12_Lock_policyE2EE14_M_get_deleterERKSt9type_info
	.type	_ZNSt23_Sp_counted_ptr_inplaceIN8opendnp320RestartOperationTaskESaIS1_ELN9__gnu_cxx12_Lock_policyE2EE14_M_get_deleterERKSt9type_info, @function
_ZNSt23_Sp_counted_ptr_inplaceIN8opendnp320RestartOperationTaskESaIS1_ELN9__gnu_cxx12_Lock_policyE2EE14_M_get_deleterERKSt9type_info:
.LFB4907:
	.cfi_startproc
	pushq	%rbx
	.cfi_def_cfa_offset 16
	.cfi_offset 3, -16
	movq	%rdi, %rbx
	movq	8(%rsi), %rdi
	movq	_ZTSSt19_Sp_make_shared_tag@GOTPCREL(%rip), %rsi
	cmpq	%rsi, %rdi
	je	.L83
	cmpb	$42, (%rdi)
	je	.L86
	call	strcmp@PLT
	testl	%eax, %eax
	jne	.L86
.L83:
	leaq	16(%rbx), %rax
	popq	%rbx
	.cfi_remember_state
	.cfi_def_cfa_offset 8
	ret
	.p2align 4,,10
	.p2align 3
.L86:
	.cfi_restore_state
	xorl	%eax, %eax
	popq	%rbx
	.cfi_def_cfa_offset 8
	ret
	.cfi_endproc
.LFE4907:
	.size	_ZNSt23_Sp_counted_ptr_inplaceIN8opendnp320RestartOperationTaskESaIS1_ELN9__gnu_cxx12_Lock_policyE2EE14_M_get_deleterERKSt9type_info, .-_ZNSt23_Sp_counted_ptr_inplaceIN8opendnp320RestartOperationTaskESaIS1_ELN9__gnu_cxx12_Lock_policyE2EE14_M_get_deleterERKSt9type_info
	.text
	.p2align 4,,15
	.type	_ZNSt17_Function_handlerIFbRN8opendnp312HeaderWriterEEZNS0_8MContext12AddClassScanERKNS0_10ClassFieldEN7openpal12TimeDurationENS0_10TaskConfigEEUlS2_E_E9_M_invokeERKSt9_Any_dataS2_, @function
_ZNSt17_Function_handlerIFbRN8opendnp312HeaderWriterEEZNS0_8MContext12AddClassScanERKNS0_10ClassFieldEN7openpal12TimeDurationENS0_10TaskConfigEEUlS2_E_E9_M_invokeERKSt9_Any_dataS2_:
.LFB4097:
	.cfi_startproc
	movq	%rdi, %rax
	movq	%rsi, %rdi
	movq	%rax, %rsi
	jmp	_ZN8opendnp35build17WriteClassHeadersERNS_12HeaderWriterERKNS_10ClassFieldE@PLT
	.cfi_endproc
.LFE4097:
	.size	_ZNSt17_Function_handlerIFbRN8opendnp312HeaderWriterEEZNS0_8MContext12AddClassScanERKNS0_10ClassFieldEN7openpal12TimeDurationENS0_10TaskConfigEEUlS2_E_E9_M_invokeERKSt9_Any_dataS2_, .-_ZNSt17_Function_handlerIFbRN8opendnp312HeaderWriterEEZNS0_8MContext12AddClassScanERKNS0_10ClassFieldEN7openpal12TimeDurationENS0_10TaskConfigEEUlS2_E_E9_M_invokeERKSt9_Any_dataS2_
	.p2align 4,,15
	.type	_ZNSt17_Function_handlerIFbRN8opendnp312HeaderWriterEEZNS0_8MContext11ScanClassesERKNS0_10ClassFieldENS0_10TaskConfigEEUlS2_E_E9_M_invokeERKSt9_Any_dataS2_, @function
_ZNSt17_Function_handlerIFbRN8opendnp312HeaderWriterEEZNS0_8MContext11ScanClassesERKNS0_10ClassFieldENS0_10TaskConfigEEUlS2_E_E9_M_invokeERKSt9_Any_dataS2_:
.LFB4112:
	.cfi_startproc
	movq	%rdi, %rax
	movq	%rsi, %rdi
	movq	%rax, %rsi
	jmp	_ZN8opendnp35build17WriteClassHeadersERNS_12HeaderWriterERKNS_10ClassFieldE@PLT
	.cfi_endproc
.LFE4112:
	.size	_ZNSt17_Function_handlerIFbRN8opendnp312HeaderWriterEEZNS0_8MContext11ScanClassesERKNS0_10ClassFieldENS0_10TaskConfigEEUlS2_E_E9_M_invokeERKSt9_Any_dataS2_, .-_ZNSt17_Function_handlerIFbRN8opendnp312HeaderWriterEEZNS0_8MContext11ScanClassesERKNS0_10ClassFieldENS0_10TaskConfigEEUlS2_E_E9_M_invokeERKSt9_Any_dataS2_
	.p2align 4,,15
	.type	_ZNSt17_Function_handlerIFbRN8opendnp312HeaderWriterEEZNS0_8MContext17AddAllObjectsScanENS0_16GroupVariationIDEN7openpal12TimeDurationENS0_10TaskConfigEEUlS2_E_E9_M_invokeERKSt9_Any_dataS2_, @function
_ZNSt17_Function_handlerIFbRN8opendnp312HeaderWriterEEZNS0_8MContext17AddAllObjectsScanENS0_16GroupVariationIDEN7openpal12TimeDurationENS0_10TaskConfigEEUlS2_E_E9_M_invokeERKSt9_Any_dataS2_:
.LFB4102:
	.cfi_startproc
	movq	%rsi, %rax
	movzwl	(%rdi), %esi
	movl	$6, %edx
	movq	%rax, %rdi
	jmp	_ZN8opendnp312HeaderWriter11WriteHeaderENS_16GroupVariationIDENS_13QualifierCodeE@PLT
	.cfi_endproc
.LFE4102:
	.size	_ZNSt17_Function_handlerIFbRN8opendnp312HeaderWriterEEZNS0_8MContext17AddAllObjectsScanENS0_16GroupVariationIDEN7openpal12TimeDurationENS0_10TaskConfigEEUlS2_E_E9_M_invokeERKSt9_Any_dataS2_, .-_ZNSt17_Function_handlerIFbRN8opendnp312HeaderWriterEEZNS0_8MContext17AddAllObjectsScanENS0_16GroupVariationIDEN7openpal12TimeDurationENS0_10TaskConfigEEUlS2_E_E9_M_invokeERKSt9_Any_dataS2_
	.p2align 4,,15
	.type	_ZNSt17_Function_handlerIFbRN8opendnp312HeaderWriterEEZNS0_8MContext14ScanAllObjectsENS0_16GroupVariationIDENS0_10TaskConfigEEUlS2_E_E9_M_invokeERKSt9_Any_dataS2_, @function
_ZNSt17_Function_handlerIFbRN8opendnp312HeaderWriterEEZNS0_8MContext14ScanAllObjectsENS0_16GroupVariationIDENS0_10TaskConfigEEUlS2_E_E9_M_invokeERKSt9_Any_dataS2_:
.LFB4116:
	.cfi_startproc
	movq	%rsi, %rax
	movzwl	(%rdi), %esi
	movl	$6, %edx
	movq	%rax, %rdi
	jmp	_ZN8opendnp312HeaderWriter11WriteHeaderENS_16GroupVariationIDENS_13QualifierCodeE@PLT
	.cfi_endproc
.LFE4116:
	.size	_ZNSt17_Function_handlerIFbRN8opendnp312HeaderWriterEEZNS0_8MContext14ScanAllObjectsENS0_16GroupVariationIDENS0_10TaskConfigEEUlS2_E_E9_M_invokeERKSt9_Any_dataS2_, .-_ZNSt17_Function_handlerIFbRN8opendnp312HeaderWriterEEZNS0_8MContext14ScanAllObjectsENS0_16GroupVariationIDENS0_10TaskConfigEEUlS2_E_E9_M_invokeERKSt9_Any_dataS2_
	.align 2
	.p2align 4,,15
	.globl	_ZN8opendnp38MContext19SetTaskStartTimeoutERKN7openpal18MonotonicTimestampE
	.type	_ZN8opendnp38MContext19SetTaskStartTimeoutERKN7openpal18MonotonicTimestampE, @function
_ZN8opendnp38MContext19SetTaskStartTimeoutERKN7openpal18MonotonicTimestampE:
.LFB3402:
	.cfi_startproc
	.cfi_personality 0x9b,DW.ref.__gxx_personality_v0
	.cfi_lsda 0x1b,.LLSDA3402
	pushq	%rbp
	.cfi_def_cfa_offset 16
	.cfi_offset 6, -16
	pushq	%rbx
	.cfi_def_cfa_offset 24
	.cfi_offset 3, -24
	leaq	_ZNSt14_Function_base13_Base_managerIZN7openpal8TimerRef7RestartIZN8opendnp38MContext19SetTaskStartTimeoutERKNS1_18MonotonicTimestampEEUlvE_EEvS8_RKT_EUlvE_E10_M_managerERSt9_Any_dataRKSF_St18_Manager_operation(%rip), %rcx
	leaq	_ZNSt17_Function_handlerIFvvEZN7openpal8TimerRef7RestartIZN8opendnp38MContext19SetTaskStartTimeoutERKNS1_18MonotonicTimestampEEUlvE_EEvS8_RKT_EUlvE_E9_M_invokeERKSt9_Any_data(%rip), %rdx
	subq	$72, %rsp
	.cfi_def_cfa_offset 96
	movq	%rcx, 8(%rsp)
	leaq	16(%rsp), %rbx
	movq	%rdi, 24(%rsp)
	movq	8(%rsp), %xmm0
	movq	%rdx, 8(%rsp)
	movq	%fs:40, %rax
	movq	%rax, 56(%rsp)
	xorl	%eax, %eax
	leaq	224(%rdi), %rax
	movhps	8(%rsp), %xmm0
	movq	%rbx, %rdx
	movq	%rax, %rdi
	movq	%rax, 16(%rsp)
	movaps	%xmm0, 32(%rsp)
.LEHB0:
	call	_ZN7openpal8TimerRef13RestartActionERKNS_18MonotonicTimestampERKSt8functionIFvvEE@PLT
.LEHE0:
	movq	32(%rsp), %rax
	testq	%rax, %rax
	je	.L92
	movl	$3, %edx
	movq	%rbx, %rsi
	movq	%rbx, %rdi
	call	*%rax
.L92:
	movq	56(%rsp), %rax
	xorq	%fs:40, %rax
	jne	.L105
	addq	$72, %rsp
	.cfi_remember_state
	.cfi_def_cfa_offset 24
	popq	%rbx
	.cfi_def_cfa_offset 16
	popq	%rbp
	.cfi_def_cfa_offset 8
	ret
.L105:
	.cfi_restore_state
	call	__stack_chk_fail@PLT
.L97:
	movq	%rax, %rbp
	movq	32(%rsp), %rax
	testq	%rax, %rax
	je	.L95
	movl	$3, %edx
	movq	%rbx, %rsi
	movq	%rbx, %rdi
	call	*%rax
.L95:
	movq	%rbp, %rdi
.LEHB1:
	call	_Unwind_Resume@PLT
.LEHE1:
	.cfi_endproc
.LFE3402:
	.globl	__gxx_personality_v0
	.section	.gcc_except_table,"a",@progbits
.LLSDA3402:
	.byte	0xff
	.byte	0xff
	.byte	0x1
	.uleb128 .LLSDACSE3402-.LLSDACSB3402
.LLSDACSB3402:
	.uleb128 .LEHB0-.LFB3402
	.uleb128 .LEHE0-.LEHB0
	.uleb128 .L97-.LFB3402
	.uleb128 0
	.uleb128 .LEHB1-.LFB3402
	.uleb128 .LEHE1-.LEHB1
	.uleb128 0
	.uleb128 0
.LLSDACSE3402:
	.text
	.size	_ZN8opendnp38MContext19SetTaskStartTimeoutERKN7openpal18MonotonicTimestampE, .-_ZN8opendnp38MContext19SetTaskStartTimeoutERKN7openpal18MonotonicTimestampE
	.p2align 4,,15
	.type	_ZNSt17_Function_handlerIFvvEZN7openpal8TimerRef7RestartIZN8opendnp38MContext19SetTaskStartTimeoutERKNS1_18MonotonicTimestampEEUlvE_EEvS8_RKT_EUlvE_E9_M_invokeERKSt9_Any_data, @function
_ZNSt17_Function_handlerIFvvEZN7openpal8TimerRef7RestartIZN8opendnp38MContext19SetTaskStartTimeoutERKNS1_18MonotonicTimestampEEUlvE_EEvS8_RKT_EUlvE_E9_M_invokeERKSt9_Any_data:
.LFB4329:
	.cfi_startproc
	pushq	%rbx
	.cfi_def_cfa_offset 16
	.cfi_offset 3, -16
	subq	$16, %rsp
	.cfi_def_cfa_offset 32
	movq	8(%rdi), %rbx
	movq	%fs:40, %rax
	movq	%rax, 8(%rsp)
	xorl	%eax, %eax
	movq	(%rdi), %rax
	movq	56(%rbx), %rdi
	movq	$0, 8(%rax)
	movq	(%rdi), %rax
	call	*16(%rax)
	leaq	376(%rbx), %rdi
	movq	%rsp, %rsi
	movq	%rax, (%rsp)
	call	_ZN8opendnp315MasterScheduler21CheckTaskStartTimeoutERKN7openpal18MonotonicTimestampE@PLT
	movq	8(%rsp), %rax
	xorq	%fs:40, %rax
	jne	.L109
	addq	$16, %rsp
	.cfi_remember_state
	.cfi_def_cfa_offset 16
	popq	%rbx
	.cfi_def_cfa_offset 8
	ret
.L109:
	.cfi_restore_state
	call	__stack_chk_fail@PLT
	.cfi_endproc
.LFE4329:
	.size	_ZNSt17_Function_handlerIFvvEZN7openpal8TimerRef7RestartIZN8opendnp38MContext19SetTaskStartTimeoutERKNS1_18MonotonicTimestampEEUlvE_EEvS8_RKT_EUlvE_E9_M_invokeERKSt9_Any_data, .-_ZNSt17_Function_handlerIFvvEZN7openpal8TimerRef7RestartIZN8opendnp38MContext19SetTaskStartTimeoutERKNS1_18MonotonicTimestampEEUlvE_EEvS8_RKT_EUlvE_E9_M_invokeERKSt9_Any_data
	.section	.text._ZN7openpal5ArrayIhjED2Ev,"axG",@progbits,_ZN7openpal5ArrayIhjED5Ev,comdat
	.align 2
	.p2align 4,,15
	.weak	_ZN7openpal5ArrayIhjED2Ev
	.type	_ZN7openpal5ArrayIhjED2Ev, @function
_ZN7openpal5ArrayIhjED2Ev:
.LFB3682:
	.cfi_startproc
	movq	_ZTVN7openpal5ArrayIhjEE@GOTPCREL(%rip), %rax
	addq	$16, %rax
	movq	%rax, (%rdi)
	movq	16(%rdi), %rdi
	testq	%rdi, %rdi
	je	.L110
	jmp	_ZdaPv@PLT
	.p2align 4,,10
	.p2align 3
.L110:
	rep ret
	.cfi_endproc
.LFE3682:
	.size	_ZN7openpal5ArrayIhjED2Ev, .-_ZN7openpal5ArrayIhjED2Ev
	.weak	_ZN7openpal5ArrayIhjED1Ev
	.set	_ZN7openpal5ArrayIhjED1Ev,_ZN7openpal5ArrayIhjED2Ev
	.section	.text._ZN7openpal5ArrayIhjED0Ev,"axG",@progbits,_ZN7openpal5ArrayIhjED5Ev,comdat
	.align 2
	.p2align 4,,15
	.weak	_ZN7openpal5ArrayIhjED0Ev
	.type	_ZN7openpal5ArrayIhjED0Ev, @function
_ZN7openpal5ArrayIhjED0Ev:
.LFB3684:
	.cfi_startproc
	movq	_ZTVN7openpal5ArrayIhjEE@GOTPCREL(%rip), %rax
	pushq	%rbx
	.cfi_def_cfa_offset 16
	.cfi_offset 3, -16
	movq	%rdi, %rbx
	addq	$16, %rax
	movq	%rax, (%rdi)
	movq	16(%rdi), %rdi
	testq	%rdi, %rdi
	je	.L113
	call	_ZdaPv@PLT
.L113:
	movq	%rbx, %rdi
	movl	$24, %esi
	popq	%rbx
	.cfi_def_cfa_offset 8
	jmp	_ZdlPvm@PLT
	.cfi_endproc
.LFE3684:
	.size	_ZN7openpal5ArrayIhjED0Ev, .-_ZN7openpal5ArrayIhjED0Ev
	.text
	.p2align 4,,15
	.type	_ZNSt14_Function_base13_Base_managerIZN8opendnp38MContext5WriteERKNS1_15TimeAndIntervalEtNS1_10TaskConfigEEUlRNS1_12HeaderWriterEE_E10_M_managerERSt9_Any_dataRKSB_St18_Manager_operation, @function
_ZNSt14_Function_base13_Base_managerIZN8opendnp38MContext5WriteERKNS1_15TimeAndIntervalEtNS1_10TaskConfigEEUlRNS1_12HeaderWriterEE_E10_M_managerERSt9_Any_dataRKSB_St18_Manager_operation:
.LFB4871:
	.cfi_startproc
	cmpl	$1, %edx
	je	.L120
	jb	.L121
	pushq	%rbp
	.cfi_def_cfa_offset 16
	.cfi_offset 6, -16
	pushq	%rbx
	.cfi_def_cfa_offset 24
	.cfi_offset 3, -24
	movq	%rdi, %rbx
	subq	$8, %rsp
	.cfi_def_cfa_offset 32
	cmpl	$2, %edx
	je	.L122
	cmpl	$3, %edx
	jne	.L119
	movq	(%rdi), %rdi
	movl	$24, %esi
	call	_ZdlPvm@PLT
.L119:
	addq	$8, %rsp
	.cfi_remember_state
	.cfi_def_cfa_offset 24
	xorl	%eax, %eax
	popq	%rbx
	.cfi_def_cfa_offset 16
	popq	%rbp
	.cfi_def_cfa_offset 8
	ret
	.p2align 4,,10
	.p2align 3
.L122:
	.cfi_restore_state
	movq	(%rsi), %rbp
	movl	$24, %edi
	call	_Znwm@PLT
	movdqu	0(%rbp), %xmm0
	movups	%xmm0, (%rax)
	movq	16(%rbp), %rdx
	movq	%rax, (%rbx)
	movq	%rdx, 16(%rax)
	addq	$8, %rsp
	.cfi_def_cfa_offset 24
	xorl	%eax, %eax
	popq	%rbx
	.cfi_def_cfa_offset 16
	popq	%rbp
	.cfi_def_cfa_offset 8
	ret
	.p2align 4,,10
	.p2align 3
.L121:
	.cfi_restore 3
	.cfi_restore 6
	leaq	_ZTIZN8opendnp38MContext5WriteERKNS_15TimeAndIntervalEtNS_10TaskConfigEEUlRNS_12HeaderWriterEE_(%rip), %rax
	movq	%rax, (%rdi)
	xorl	%eax, %eax
	ret
	.p2align 4,,10
	.p2align 3
.L120:
	movq	(%rsi), %rax
	movq	%rax, (%rdi)
	xorl	%eax, %eax
	ret
	.cfi_endproc
.LFE4871:
	.size	_ZNSt14_Function_base13_Base_managerIZN8opendnp38MContext5WriteERKNS1_15TimeAndIntervalEtNS1_10TaskConfigEEUlRNS1_12HeaderWriterEE_E10_M_managerERSt9_Any_dataRKSB_St18_Manager_operation, .-_ZNSt14_Function_base13_Base_managerIZN8opendnp38MContext5WriteERKNS1_15TimeAndIntervalEtNS1_10TaskConfigEEUlRNS1_12HeaderWriterEE_E10_M_managerERSt9_Any_dataRKSB_St18_Manager_operation
	.p2align 4,,15
	.type	_ZNSt17_Function_handlerIFbRN8opendnp312HeaderWriterEEZNS0_8MContext5WriteERKNS0_15TimeAndIntervalEtNS0_10TaskConfigEEUlS2_E_E9_M_invokeERKSt9_Any_dataS2_, @function
_ZNSt17_Function_handlerIFbRN8opendnp312HeaderWriterEEZNS0_8MContext5WriteERKNS0_15TimeAndIntervalEtNS0_10TaskConfigEEUlS2_E_E9_M_invokeERKSt9_Any_dataS2_:
.LFB4870:
	.cfi_startproc
	pushq	%r13
	.cfi_def_cfa_offset 16
	.cfi_offset 13, -16
	pushq	%r12
	.cfi_def_cfa_offset 24
	.cfi_offset 12, -24
	movl	$15, %ecx
	pushq	%rbp
	.cfi_def_cfa_offset 32
	.cfi_offset 6, -32
	pushq	%rbx
	.cfi_def_cfa_offset 40
	.cfi_offset 3, -40
	movq	%rsi, %rbx
	movl	$40, %edx
	movl	$1074, %esi
	subq	$8, %rsp
	.cfi_def_cfa_offset 48
	movq	(%rdi), %r13
	movq	%rbx, %rdi
	movzwl	16(%r13), %r12d
	call	_ZN8opendnp312HeaderWriter22WriteHeaderWithReserveENS_16GroupVariationIDENS_13QualifierCodeEj@PLT
	testb	%al, %al
	movl	%eax, %ebp
	je	.L128
	movq	(%rbx), %rdi
	movl	$1, %edx
	movl	$2, %esi
	movq	8(%rdi), %rax
	movw	%dx, (%rax)
	call	_ZN7openpal6WSlice7AdvanceEj@PLT
	movq	(%rbx), %rdi
	movl	$2, %esi
	movq	8(%rdi), %rax
	movb	%r12b, (%rax)
	shrw	$8, %r12w
	movb	%r12b, 1(%rax)
	call	_ZN7openpal6WSlice7AdvanceEj@PLT
	movq	(%rbx), %rsi
	movq	%r13, %rdi
	call	_ZN8opendnp311Group50Var411WriteTargetERKNS_15TimeAndIntervalERN7openpal6WSliceE@PLT
.L128:
	addq	$8, %rsp
	.cfi_def_cfa_offset 40
	movl	%ebp, %eax
	popq	%rbx
	.cfi_def_cfa_offset 32
	popq	%rbp
	.cfi_def_cfa_offset 24
	popq	%r12
	.cfi_def_cfa_offset 16
	popq	%r13
	.cfi_def_cfa_offset 8
	ret
	.cfi_endproc
.LFE4870:
	.size	_ZNSt17_Function_handlerIFbRN8opendnp312HeaderWriterEEZNS0_8MContext5WriteERKNS0_15TimeAndIntervalEtNS0_10TaskConfigEEUlS2_E_E9_M_invokeERKSt9_Any_dataS2_, .-_ZNSt17_Function_handlerIFbRN8opendnp312HeaderWriterEEZNS0_8MContext5WriteERKNS0_15TimeAndIntervalEtNS0_10TaskConfigEEUlS2_E_E9_M_invokeERKSt9_Any_dataS2_
	.section	.text._ZN8opendnp38MContext6CanRunERKNS_11IMasterTaskE,"axG",@progbits,_ZN8opendnp38MContext6CanRunERKNS_11IMasterTaskE,comdat
	.p2align 4,,15
	.weak	_ZThn16_N8opendnp38MContext6CanRunERKNS_11IMasterTaskE
	.type	_ZThn16_N8opendnp38MContext6CanRunERKNS_11IMasterTaskE, @function
_ZThn16_N8opendnp38MContext6CanRunERKNS_11IMasterTaskE:
.LFB5150:
	.cfi_startproc
	movl	$1, %eax
	ret
	.cfi_endproc
.LFE5150:
	.size	_ZThn16_N8opendnp38MContext6CanRunERKNS_11IMasterTaskE, .-_ZThn16_N8opendnp38MContext6CanRunERKNS_11IMasterTaskE
	.text
	.p2align 4,,15
	.type	_ZNSt17_Function_handlerIFbRN8opendnp312HeaderWriterEEZNS0_8MContext12AddRangeScanENS0_16GroupVariationIDEttN7openpal12TimeDurationENS0_10TaskConfigEEUlS2_E_E9_M_invokeERKSt9_Any_dataS2_, @function
_ZNSt17_Function_handlerIFbRN8opendnp312HeaderWriterEEZNS0_8MContext12AddRangeScanENS0_16GroupVariationIDEttN7openpal12TimeDurationENS0_10TaskConfigEEUlS2_E_E9_M_invokeERKSt9_Any_dataS2_:
.LFB4107:
	.cfi_startproc
	pushq	%r13
	.cfi_def_cfa_offset 16
	.cfi_offset 13, -16
	pushq	%r12
	.cfi_def_cfa_offset 24
	.cfi_offset 12, -24
	movl	$4, %ecx
	pushq	%rbp
	.cfi_def_cfa_offset 32
	.cfi_offset 6, -32
	pushq	%rbx
	.cfi_def_cfa_offset 40
	.cfi_offset 3, -40
	movq	%rsi, %rbp
	movl	$1, %edx
	subq	$8, %rsp
	.cfi_def_cfa_offset 48
	movzwl	(%rdi), %esi
	movzwl	4(%rdi), %r12d
	movzwl	2(%rdi), %r13d
	movq	%rbp, %rdi
	call	_ZN8opendnp312HeaderWriter22WriteHeaderWithReserveENS_16GroupVariationIDENS_13QualifierCodeEj@PLT
	testb	%al, %al
	movl	%eax, %ebx
	je	.L135
	movq	0(%rbp), %rdi
	movl	$2, %esi
	movq	8(%rdi), %rax
	movb	%r13b, (%rax)
	shrw	$8, %r13w
	movb	%r13b, 1(%rax)
	call	_ZN7openpal6WSlice7AdvanceEj@PLT
	movq	0(%rbp), %rdi
	movl	$2, %esi
	movq	8(%rdi), %rax
	movb	%r12b, (%rax)
	shrw	$8, %r12w
	movb	%r12b, 1(%rax)
	call	_ZN7openpal6WSlice7AdvanceEj@PLT
.L135:
	addq	$8, %rsp
	.cfi_def_cfa_offset 40
	movl	%ebx, %eax
	popq	%rbx
	.cfi_def_cfa_offset 32
	popq	%rbp
	.cfi_def_cfa_offset 24
	popq	%r12
	.cfi_def_cfa_offset 16
	popq	%r13
	.cfi_def_cfa_offset 8
	ret
	.cfi_endproc
.LFE4107:
	.size	_ZNSt17_Function_handlerIFbRN8opendnp312HeaderWriterEEZNS0_8MContext12AddRangeScanENS0_16GroupVariationIDEttN7openpal12TimeDurationENS0_10TaskConfigEEUlS2_E_E9_M_invokeERKSt9_Any_dataS2_, .-_ZNSt17_Function_handlerIFbRN8opendnp312HeaderWriterEEZNS0_8MContext12AddRangeScanENS0_16GroupVariationIDEttN7openpal12TimeDurationENS0_10TaskConfigEEUlS2_E_E9_M_invokeERKSt9_Any_dataS2_
	.p2align 4,,15
	.type	_ZNSt17_Function_handlerIFbRN8opendnp312HeaderWriterEEZNS0_8MContext9ScanRangeENS0_16GroupVariationIDEttNS0_10TaskConfigEEUlS2_E_E9_M_invokeERKSt9_Any_dataS2_, @function
_ZNSt17_Function_handlerIFbRN8opendnp312HeaderWriterEEZNS0_8MContext9ScanRangeENS0_16GroupVariationIDEttNS0_10TaskConfigEEUlS2_E_E9_M_invokeERKSt9_Any_dataS2_:
.LFB4120:
	.cfi_startproc
	pushq	%r13
	.cfi_def_cfa_offset 16
	.cfi_offset 13, -16
	pushq	%r12
	.cfi_def_cfa_offset 24
	.cfi_offset 12, -24
	movl	$4, %ecx
	pushq	%rbp
	.cfi_def_cfa_offset 32
	.cfi_offset 6, -32
	pushq	%rbx
	.cfi_def_cfa_offset 40
	.cfi_offset 3, -40
	movq	%rsi, %rbp
	movl	$1, %edx
	subq	$8, %rsp
	.cfi_def_cfa_offset 48
	movzwl	(%rdi), %esi
	movzwl	4(%rdi), %r12d
	movzwl	2(%rdi), %r13d
	movq	%rbp, %rdi
	call	_ZN8opendnp312HeaderWriter22WriteHeaderWithReserveENS_16GroupVariationIDENS_13QualifierCodeEj@PLT
	testb	%al, %al
	movl	%eax, %ebx
	je	.L141
	movq	0(%rbp), %rdi
	movl	$2, %esi
	movq	8(%rdi), %rax
	movb	%r13b, (%rax)
	shrw	$8, %r13w
	movb	%r13b, 1(%rax)
	call	_ZN7openpal6WSlice7AdvanceEj@PLT
	movq	0(%rbp), %rdi
	movl	$2, %esi
	movq	8(%rdi), %rax
	movb	%r12b, (%rax)
	shrw	$8, %r12w
	movb	%r12b, 1(%rax)
	call	_ZN7openpal6WSlice7AdvanceEj@PLT
.L141:
	addq	$8, %rsp
	.cfi_def_cfa_offset 40
	movl	%ebx, %eax
	popq	%rbx
	.cfi_def_cfa_offset 32
	popq	%rbp
	.cfi_def_cfa_offset 24
	popq	%r12
	.cfi_def_cfa_offset 16
	popq	%r13
	.cfi_def_cfa_offset 8
	ret
	.cfi_endproc
.LFE4120:
	.size	_ZNSt17_Function_handlerIFbRN8opendnp312HeaderWriterEEZNS0_8MContext9ScanRangeENS0_16GroupVariationIDEttNS0_10TaskConfigEEUlS2_E_E9_M_invokeERKSt9_Any_dataS2_, .-_ZNSt17_Function_handlerIFbRN8opendnp312HeaderWriterEEZNS0_8MContext9ScanRangeENS0_16GroupVariationIDEttNS0_10TaskConfigEEUlS2_E_E9_M_invokeERKSt9_Any_dataS2_
	.section	.text._ZNSt23_Sp_counted_ptr_inplaceIN8opendnp312UserPollTaskESaIS1_ELN9__gnu_cxx12_Lock_policyE2EE10_M_disposeEv,"axG",@progbits,_ZNSt23_Sp_counted_ptr_inplaceIN8opendnp312UserPollTaskESaIS1_ELN9__gnu_cxx12_Lock_policyE2EE10_M_disposeEv,comdat
	.align 2
	.p2align 4,,15
	.weak	_ZNSt23_Sp_counted_ptr_inplaceIN8opendnp312UserPollTaskESaIS1_ELN9__gnu_cxx12_Lock_policyE2EE10_M_disposeEv
	.type	_ZNSt23_Sp_counted_ptr_inplaceIN8opendnp312UserPollTaskESaIS1_ELN9__gnu_cxx12_Lock_policyE2EE10_M_disposeEv, @function
_ZNSt23_Sp_counted_ptr_inplaceIN8opendnp312UserPollTaskESaIS1_ELN9__gnu_cxx12_Lock_policyE2EE10_M_disposeEv:
.LFB4919:
	.cfi_startproc
	.cfi_personality 0x9b,DW.ref.__gxx_personality_v0
	.cfi_lsda 0x1b,.LLSDA4919
	pushq	%rbp
	.cfi_def_cfa_offset 16
	.cfi_offset 6, -16
	pushq	%rbx
	.cfi_def_cfa_offset 24
	.cfi_offset 3, -24
	leaq	16(%rdi), %rbp
	movq	%rdi, %rbx
	subq	$8, %rsp
	.cfi_def_cfa_offset 32
	movq	_ZTVN8opendnp312UserPollTaskE@GOTPCREL(%rip), %rax
	addq	$16, %rax
	movq	%rax, 16(%rdi)
	movq	136(%rdi), %rax
	testq	%rax, %rax
	je	.L148
	leaq	120(%rdi), %rdi
	movl	$3, %edx
	movq	%rdi, %rsi
	call	*%rax
.L148:
	movq	_ZTVN8opendnp312PollTaskBaseE@GOTPCREL(%rip), %rax
	movq	%rbp, %rdi
	addq	$16, %rax
	movq	%rax, 16(%rbx)
	addq	$8, %rsp
	.cfi_def_cfa_offset 24
	popq	%rbx
	.cfi_def_cfa_offset 16
	popq	%rbp
	.cfi_def_cfa_offset 8
	jmp	_ZN8opendnp311IMasterTaskD2Ev@PLT
	.cfi_endproc
.LFE4919:
	.section	.gcc_except_table
.LLSDA4919:
	.byte	0xff
	.byte	0xff
	.byte	0x1
	.uleb128 .LLSDACSE4919-.LLSDACSB4919
.LLSDACSB4919:
.LLSDACSE4919:
	.section	.text._ZNSt23_Sp_counted_ptr_inplaceIN8opendnp312UserPollTaskESaIS1_ELN9__gnu_cxx12_Lock_policyE2EE10_M_disposeEv,"axG",@progbits,_ZNSt23_Sp_counted_ptr_inplaceIN8opendnp312UserPollTaskESaIS1_ELN9__gnu_cxx12_Lock_policyE2EE10_M_disposeEv,comdat
	.size	_ZNSt23_Sp_counted_ptr_inplaceIN8opendnp312UserPollTaskESaIS1_ELN9__gnu_cxx12_Lock_policyE2EE10_M_disposeEv, .-_ZNSt23_Sp_counted_ptr_inplaceIN8opendnp312UserPollTaskESaIS1_ELN9__gnu_cxx12_Lock_policyE2EE10_M_disposeEv
	.text
	.p2align 4,,15
	.globl	_ZThn16_N8opendnp38MContext19SetTaskStartTimeoutERKN7openpal18MonotonicTimestampE
	.type	_ZThn16_N8opendnp38MContext19SetTaskStartTimeoutERKN7openpal18MonotonicTimestampE, @function
_ZThn16_N8opendnp38MContext19SetTaskStartTimeoutERKN7openpal18MonotonicTimestampE:
.LFB5152:
	.cfi_startproc
	.cfi_personality 0x9b,DW.ref.__gxx_personality_v0
	.cfi_lsda 0x1b,.LLSDA5152
	pushq	%rbp
	.cfi_def_cfa_offset 16
	.cfi_offset 6, -16
	pushq	%rbx
	.cfi_def_cfa_offset 24
	.cfi_offset 3, -24
	leaq	_ZNSt14_Function_base13_Base_managerIZN7openpal8TimerRef7RestartIZN8opendnp38MContext19SetTaskStartTimeoutERKNS1_18MonotonicTimestampEEUlvE_EEvS8_RKT_EUlvE_E10_M_managerERSt9_Any_dataRKSF_St18_Manager_operation(%rip), %rcx
	subq	$72, %rsp
	.cfi_def_cfa_offset 96
	movq	%fs:40, %rax
	movq	%rax, 56(%rsp)
	xorl	%eax, %eax
	leaq	-16(%rdi), %rax
	movq	%rcx, 8(%rsp)
	leaq	16(%rsp), %rbx
	movq	8(%rsp), %xmm0
	addq	$208, %rdi
	movq	%rax, 24(%rsp)
	leaq	_ZNSt17_Function_handlerIFvvEZN7openpal8TimerRef7RestartIZN8opendnp38MContext19SetTaskStartTimeoutERKNS1_18MonotonicTimestampEEUlvE_EEvS8_RKT_EUlvE_E9_M_invokeERKSt9_Any_data(%rip), %rax
	movq	%rbx, %rdx
	movq	%rdi, 16(%rsp)
	movq	%rax, 8(%rsp)
	movhps	8(%rsp), %xmm0
	movaps	%xmm0, 32(%rsp)
.LEHB2:
	call	_ZN7openpal8TimerRef13RestartActionERKNS_18MonotonicTimestampERKSt8functionIFvvEE@PLT
.LEHE2:
	movq	32(%rsp), %rax
	testq	%rax, %rax
	je	.L153
	movl	$3, %edx
	movq	%rbx, %rsi
	movq	%rbx, %rdi
	call	*%rax
.L153:
	movq	56(%rsp), %rax
	xorq	%fs:40, %rax
	jne	.L166
	addq	$72, %rsp
	.cfi_remember_state
	.cfi_def_cfa_offset 24
	popq	%rbx
	.cfi_def_cfa_offset 16
	popq	%rbp
	.cfi_def_cfa_offset 8
	ret
.L166:
	.cfi_restore_state
	call	__stack_chk_fail@PLT
.L158:
	movq	%rax, %rbp
	movq	32(%rsp), %rax
	testq	%rax, %rax
	je	.L156
	movl	$3, %edx
	movq	%rbx, %rsi
	movq	%rbx, %rdi
	call	*%rax
.L156:
	movq	%rbp, %rdi
.LEHB3:
	call	_Unwind_Resume@PLT
.LEHE3:
	.cfi_endproc
.LFE5152:
	.section	.gcc_except_table
.LLSDA5152:
	.byte	0xff
	.byte	0xff
	.byte	0x1
	.uleb128 .LLSDACSE5152-.LLSDACSB5152
.LLSDACSB5152:
	.uleb128 .LEHB2-.LFB5152
	.uleb128 .LEHE2-.LEHB2
	.uleb128 .L158-.LFB5152
	.uleb128 0
	.uleb128 .LEHB3-.LFB5152
	.uleb128 .LEHE3-.LEHB3
	.uleb128 0
	.uleb128 0
.LLSDACSE5152:
	.text
	.size	_ZThn16_N8opendnp38MContext19SetTaskStartTimeoutERKN7openpal18MonotonicTimestampE, .-_ZThn16_N8opendnp38MContext19SetTaskStartTimeoutERKN7openpal18MonotonicTimestampE
	.section	.text._ZNSt23_Sp_counted_ptr_inplaceIN8opendnp320RestartOperationTaskESaIS1_ELN9__gnu_cxx12_Lock_policyE2EE10_M_disposeEv,"axG",@progbits,_ZNSt23_Sp_counted_ptr_inplaceIN8opendnp320RestartOperationTaskESaIS1_ELN9__gnu_cxx12_Lock_policyE2EE10_M_disposeEv,comdat
	.align 2
	.p2align 4,,15
	.weak	_ZNSt23_Sp_counted_ptr_inplaceIN8opendnp320RestartOperationTaskESaIS1_ELN9__gnu_cxx12_Lock_policyE2EE10_M_disposeEv
	.type	_ZNSt23_Sp_counted_ptr_inplaceIN8opendnp320RestartOperationTaskESaIS1_ELN9__gnu_cxx12_Lock_policyE2EE10_M_disposeEv, @function
_ZNSt23_Sp_counted_ptr_inplaceIN8opendnp320RestartOperationTaskESaIS1_ELN9__gnu_cxx12_Lock_policyE2EE10_M_disposeEv:
.LFB4905:
	.cfi_startproc
	.cfi_personality 0x9b,DW.ref.__gxx_personality_v0
	.cfi_lsda 0x1b,.LLSDA4905
	pushq	%rbp
	.cfi_def_cfa_offset 16
	.cfi_offset 6, -16
	pushq	%rbx
	.cfi_def_cfa_offset 24
	.cfi_offset 3, -24
	leaq	16(%rdi), %rbp
	movq	%rdi, %rbx
	subq	$8, %rsp
	.cfi_def_cfa_offset 32
	movq	_ZTVN8opendnp320RestartOperationTaskE@GOTPCREL(%rip), %rax
	leaq	16(%rax), %rdx
	addq	$160, %rax
	movq	%rax, 144(%rdi)
	movq	184(%rdi), %rax
	movq	%rdx, 16(%rdi)
	testq	%rax, %rax
	je	.L168
	leaq	168(%rdi), %rdi
	movl	$3, %edx
	movq	%rdi, %rsi
	call	*%rax
.L168:
	movq	_ZTVN8opendnp321SimpleRequestTaskBaseE@GOTPCREL(%rip), %rax
	addq	$16, %rax
	movq	%rax, 16(%rbx)
	movq	128(%rbx), %rax
	testq	%rax, %rax
	je	.L169
	leaq	112(%rbx), %rdi
	movl	$3, %edx
	movq	%rdi, %rsi
	call	*%rax
.L169:
	addq	$8, %rsp
	.cfi_def_cfa_offset 24
	movq	%rbp, %rdi
	popq	%rbx
	.cfi_def_cfa_offset 16
	popq	%rbp
	.cfi_def_cfa_offset 8
	jmp	_ZN8opendnp311IMasterTaskD2Ev@PLT
	.cfi_endproc
.LFE4905:
	.section	.gcc_except_table
.LLSDA4905:
	.byte	0xff
	.byte	0xff
	.byte	0x1
	.uleb128 .LLSDACSE4905-.LLSDACSB4905
.LLSDACSB4905:
.LLSDACSE4905:
	.section	.text._ZNSt23_Sp_counted_ptr_inplaceIN8opendnp320RestartOperationTaskESaIS1_ELN9__gnu_cxx12_Lock_policyE2EE10_M_disposeEv,"axG",@progbits,_ZNSt23_Sp_counted_ptr_inplaceIN8opendnp320RestartOperationTaskESaIS1_ELN9__gnu_cxx12_Lock_policyE2EE10_M_disposeEv,comdat
	.size	_ZNSt23_Sp_counted_ptr_inplaceIN8opendnp320RestartOperationTaskESaIS1_ELN9__gnu_cxx12_Lock_policyE2EE10_M_disposeEv, .-_ZNSt23_Sp_counted_ptr_inplaceIN8opendnp320RestartOperationTaskESaIS1_ELN9__gnu_cxx12_Lock_policyE2EE10_M_disposeEv
	.section	.text._ZN8opendnp38MContextD0Ev,"axG",@progbits,_ZN8opendnp38MContextD5Ev,comdat
	.align 2
	.p2align 4,,15
	.weak	_ZN8opendnp38MContextD0Ev
	.type	_ZN8opendnp38MContextD0Ev, @function
_ZN8opendnp38MContextD0Ev:
.LFB4883:
	.cfi_startproc
	pushq	%r13
	.cfi_def_cfa_offset 16
	.cfi_offset 13, -16
	pushq	%r12
	.cfi_def_cfa_offset 24
	.cfi_offset 12, -24
	pushq	%rbp
	.cfi_def_cfa_offset 32
	.cfi_offset 6, -32
	pushq	%rbx
	.cfi_def_cfa_offset 40
	.cfi_offset 3, -40
	movq	%rdi, %rbx
	subq	$8, %rsp
	.cfi_def_cfa_offset 48
	movq	_ZTVN8opendnp38MContextE@GOTPCREL(%rip), %rax
	leaq	16(%rax), %rdx
	movq	%rdx, (%rdi)
	leaq	128(%rax), %rdx
	addq	$152, %rax
	movq	%rax, 16(%rdi)
	movq	_ZTVN7openpal5ArrayIhjEE@GOTPCREL(%rip), %rax
	movq	%rdx, 8(%rdi)
	addq	$16, %rax
	movq	%rax, 488(%rdi)
	movq	504(%rdi), %rdi
	testq	%rdi, %rdi
	je	.L178
	call	_ZdaPv@PLT
.L178:
	movq	408(%rbx), %rdi
	testq	%rdi, %rdi
	je	.L179
	movq	480(%rbx), %rax
	movq	448(%rbx), %rbp
	leaq	8(%rax), %r12
	cmpq	%rbp, %r12
	jbe	.L180
	.p2align 4,,10
	.p2align 3
.L181:
	movq	0(%rbp), %rdi
	addq	$8, %rbp
	call	_ZdlPv@PLT
	cmpq	%rbp, %r12
	ja	.L181
	movq	408(%rbx), %rdi
.L180:
	call	_ZdlPv@PLT
.L179:
	movq	392(%rbx), %r13
	movq	384(%rbx), %rbp
	cmpq	%rbp, %r13
	je	.L182
	cmpq	$0, _ZL28__gthrw___pthread_key_createPjPFvPvE@GOTPCREL(%rip)
	je	.L189
	.p2align 4,,10
	.p2align 3
.L183:
	movq	8(%rbp), %r12
	testq	%r12, %r12
	je	.L191
	lock subl	$1, 8(%r12)
	je	.L328
.L191:
	addq	$16, %rbp
	cmpq	%rbp, %r13
	jne	.L183
.L188:
	movq	384(%rbx), %rbp
.L182:
	testq	%rbp, %rbp
	je	.L194
	movq	%rbp, %rdi
	call	_ZdlPv@PLT
.L194:
	movq	360(%rbx), %r13
	movq	352(%rbx), %rbp
	cmpq	%rbp, %r13
	je	.L195
	cmpq	$0, _ZL28__gthrw___pthread_key_createPjPFvPvE@GOTPCREL(%rip)
	je	.L202
	.p2align 4,,10
	.p2align 3
.L196:
	movq	8(%rbp), %r12
	testq	%r12, %r12
	je	.L204
	lock subl	$1, 8(%r12)
	je	.L329
.L204:
	addq	$16, %rbp
	cmpq	%rbp, %r13
	jne	.L196
.L201:
	movq	352(%rbx), %rbp
.L195:
	testq	%rbp, %rbp
	je	.L207
	movq	%rbp, %rdi
	call	_ZdlPv@PLT
.L207:
	movq	344(%rbx), %rbp
	testq	%rbp, %rbp
	je	.L209
	cmpq	$0, _ZL28__gthrw___pthread_key_createPjPFvPvE@GOTPCREL(%rip)
	je	.L210
	lock subl	$1, 8(%rbp)
	je	.L330
.L209:
	movq	328(%rbx), %rbp
	testq	%rbp, %rbp
	je	.L215
	cmpq	$0, _ZL28__gthrw___pthread_key_createPjPFvPvE@GOTPCREL(%rip)
	je	.L216
	lock subl	$1, 8(%rbp)
	je	.L331
.L215:
	movq	312(%rbx), %rbp
	testq	%rbp, %rbp
	je	.L221
	cmpq	$0, _ZL28__gthrw___pthread_key_createPjPFvPvE@GOTPCREL(%rip)
	je	.L222
	lock subl	$1, 8(%rbp)
	je	.L332
.L221:
	movq	296(%rbx), %rbp
	testq	%rbp, %rbp
	je	.L227
	cmpq	$0, _ZL28__gthrw___pthread_key_createPjPFvPvE@GOTPCREL(%rip)
	je	.L228
	lock subl	$1, 8(%rbp)
	je	.L333
.L227:
	movq	280(%rbx), %rbp
	testq	%rbp, %rbp
	je	.L233
	cmpq	$0, _ZL28__gthrw___pthread_key_createPjPFvPvE@GOTPCREL(%rip)
	je	.L234
	lock subl	$1, 8(%rbp)
	je	.L334
.L233:
	movq	264(%rbx), %rbp
	testq	%rbp, %rbp
	je	.L239
	cmpq	$0, _ZL28__gthrw___pthread_key_createPjPFvPvE@GOTPCREL(%rip)
	je	.L240
	lock subl	$1, 8(%rbp)
	je	.L335
.L239:
	movq	248(%rbx), %rbp
	testq	%rbp, %rbp
	je	.L245
	cmpq	$0, _ZL28__gthrw___pthread_key_createPjPFvPvE@GOTPCREL(%rip)
	je	.L246
	lock subl	$1, 8(%rbp)
	je	.L336
.L245:
	leaq	224(%rbx), %rdi
	call	_ZN7openpal8TimerRefD1Ev@PLT
	leaq	208(%rbx), %rdi
	call	_ZN7openpal8TimerRefD1Ev@PLT
	leaq	192(%rbx), %rdi
	call	_ZN7openpal8TimerRefD1Ev@PLT
	movq	184(%rbx), %rbp
	testq	%rbp, %rbp
	je	.L251
	cmpq	$0, _ZL28__gthrw___pthread_key_createPjPFvPvE@GOTPCREL(%rip)
	je	.L252
	lock subl	$1, 8(%rbp)
	je	.L337
.L251:
	movq	152(%rbx), %rbp
	testq	%rbp, %rbp
	je	.L257
	cmpq	$0, _ZL28__gthrw___pthread_key_createPjPFvPvE@GOTPCREL(%rip)
	je	.L258
	lock subl	$1, 8(%rbp)
	je	.L338
.L257:
	movq	136(%rbx), %rbp
	testq	%rbp, %rbp
	je	.L263
	cmpq	$0, _ZL28__gthrw___pthread_key_createPjPFvPvE@GOTPCREL(%rip)
	je	.L264
	lock subl	$1, 8(%rbp)
	je	.L339
.L263:
	movq	80(%rbx), %rbp
	testq	%rbp, %rbp
	je	.L269
	cmpq	$0, _ZL28__gthrw___pthread_key_createPjPFvPvE@GOTPCREL(%rip)
	je	.L270
	lock subl	$1, 8(%rbp)
	je	.L340
.L269:
	movq	64(%rbx), %rbp
	testq	%rbp, %rbp
	je	.L275
	cmpq	$0, _ZL28__gthrw___pthread_key_createPjPFvPvE@GOTPCREL(%rip)
	je	.L276
	lock subl	$1, 8(%rbp)
	je	.L341
.L275:
	movq	48(%rbx), %rbp
	testq	%rbp, %rbp
	je	.L281
	cmpq	$0, _ZL28__gthrw___pthread_key_createPjPFvPvE@GOTPCREL(%rip)
	je	.L282
	lock subl	$1, 8(%rbp)
	je	.L342
.L281:
	movq	32(%rbx), %rbp
	testq	%rbp, %rbp
	je	.L287
	cmpq	$0, _ZL28__gthrw___pthread_key_createPjPFvPvE@GOTPCREL(%rip)
	je	.L288
	lock subl	$1, 8(%rbp)
	je	.L343
.L287:
	addq	$8, %rsp
	.cfi_remember_state
	.cfi_def_cfa_offset 40
	movq	%rbx, %rdi
	movl	$520, %esi
	popq	%rbx
	.cfi_def_cfa_offset 32
	popq	%rbp
	.cfi_def_cfa_offset 24
	popq	%r12
	.cfi_def_cfa_offset 16
	popq	%r13
	.cfi_def_cfa_offset 8
	jmp	_ZdlPvm@PLT
	.p2align 4,,10
	.p2align 3
.L344:
	.cfi_restore_state
	movq	(%r12), %rax
	movq	%r12, %rdi
	call	*16(%rax)
	movl	12(%r12), %eax
	leal	-1(%rax), %edx
	cmpl	$1, %eax
	movl	%edx, 12(%r12)
	jne	.L186
	movq	(%r12), %rax
	movq	%r12, %rdi
	call	*24(%rax)
	.p2align 4,,10
	.p2align 3
.L186:
	addq	$16, %rbp
	cmpq	%rbp, %r13
	je	.L188
.L189:
	movq	8(%rbp), %r12
	testq	%r12, %r12
	je	.L186
	movl	8(%r12), %eax
	leal	-1(%rax), %edx
	cmpl	$1, %eax
	movl	%edx, 8(%r12)
	je	.L344
	addq	$16, %rbp
	cmpq	%rbp, %r13
	jne	.L189
	jmp	.L188
	.p2align 4,,10
	.p2align 3
.L345:
	movq	(%r12), %rax
	movq	%r12, %rdi
	call	*16(%rax)
	movl	12(%r12), %eax
	leal	-1(%rax), %edx
	cmpl	$1, %eax
	movl	%edx, 12(%r12)
	jne	.L199
	movq	(%r12), %rax
	movq	%r12, %rdi
	call	*24(%rax)
	.p2align 4,,10
	.p2align 3
.L199:
	addq	$16, %rbp
	cmpq	%rbp, %r13
	je	.L201
.L202:
	movq	8(%rbp), %r12
	testq	%r12, %r12
	je	.L199
	movl	8(%r12), %eax
	leal	-1(%rax), %edx
	cmpl	$1, %eax
	movl	%edx, 8(%r12)
	je	.L345
	addq	$16, %rbp
	cmpq	%rbp, %r13
	jne	.L202
	jmp	.L201
	.p2align 4,,10
	.p2align 3
.L288:
	movl	8(%rbp), %eax
	leal	-1(%rax), %edx
	cmpl	$1, %eax
	movl	%edx, 8(%rbp)
	jne	.L287
	movq	0(%rbp), %rax
	movq	%rbp, %rdi
	call	*16(%rax)
	movl	12(%rbp), %eax
	leal	-1(%rax), %edx
	movl	%edx, 12(%rbp)
	jmp	.L307
	.p2align 4,,10
	.p2align 3
.L276:
	movl	8(%rbp), %eax
	leal	-1(%rax), %edx
	cmpl	$1, %eax
	movl	%edx, 8(%rbp)
	jne	.L275
	movq	0(%rbp), %rax
	movq	%rbp, %rdi
	call	*16(%rax)
	movl	12(%rbp), %eax
	leal	-1(%rax), %edx
	movl	%edx, 12(%rbp)
	jmp	.L305
	.p2align 4,,10
	.p2align 3
.L246:
	movl	8(%rbp), %eax
	leal	-1(%rax), %edx
	cmpl	$1, %eax
	movl	%edx, 8(%rbp)
	jne	.L245
	movq	0(%rbp), %rax
	movq	%rbp, %rdi
	call	*16(%rax)
	movl	12(%rbp), %eax
	leal	-1(%rax), %edx
	movl	%edx, 12(%rbp)
	jmp	.L300
	.p2align 4,,10
	.p2align 3
.L258:
	movl	8(%rbp), %eax
	leal	-1(%rax), %edx
	cmpl	$1, %eax
	movl	%edx, 8(%rbp)
	jne	.L257
	movq	0(%rbp), %rax
	movq	%rbp, %rdi
	call	*16(%rax)
	movl	12(%rbp), %eax
	leal	-1(%rax), %edx
	movl	%edx, 12(%rbp)
	jmp	.L302
	.p2align 4,,10
	.p2align 3
.L252:
	movl	8(%rbp), %eax
	leal	-1(%rax), %edx
	cmpl	$1, %eax
	movl	%edx, 8(%rbp)
	jne	.L251
	movq	0(%rbp), %rax
	movq	%rbp, %rdi
	call	*16(%rax)
	movl	12(%rbp), %eax
	leal	-1(%rax), %edx
	movl	%edx, 12(%rbp)
	jmp	.L301
	.p2align 4,,10
	.p2align 3
.L240:
	movl	8(%rbp), %eax
	leal	-1(%rax), %edx
	cmpl	$1, %eax
	movl	%edx, 8(%rbp)
	jne	.L239
	movq	0(%rbp), %rax
	movq	%rbp, %rdi
	call	*16(%rax)
	movl	12(%rbp), %eax
	leal	-1(%rax), %edx
	movl	%edx, 12(%rbp)
	jmp	.L299
	.p2align 4,,10
	.p2align 3
.L264:
	movl	8(%rbp), %eax
	leal	-1(%rax), %edx
	cmpl	$1, %eax
	movl	%edx, 8(%rbp)
	jne	.L263
	movq	0(%rbp), %rax
	movq	%rbp, %rdi
	call	*16(%rax)
	movl	12(%rbp), %eax
	leal	-1(%rax), %edx
	movl	%edx, 12(%rbp)
	jmp	.L303
	.p2align 4,,10
	.p2align 3
.L282:
	movl	8(%rbp), %eax
	leal	-1(%rax), %edx
	cmpl	$1, %eax
	movl	%edx, 8(%rbp)
	jne	.L281
	movq	0(%rbp), %rax
	movq	%rbp, %rdi
	call	*16(%rax)
	movl	12(%rbp), %eax
	leal	-1(%rax), %edx
	movl	%edx, 12(%rbp)
	jmp	.L306
	.p2align 4,,10
	.p2align 3
.L270:
	movl	8(%rbp), %eax
	leal	-1(%rax), %edx
	cmpl	$1, %eax
	movl	%edx, 8(%rbp)
	jne	.L269
	movq	0(%rbp), %rax
	movq	%rbp, %rdi
	call	*16(%rax)
	movl	12(%rbp), %eax
	leal	-1(%rax), %edx
	movl	%edx, 12(%rbp)
	jmp	.L304
	.p2align 4,,10
	.p2align 3
.L210:
	movl	8(%rbp), %eax
	leal	-1(%rax), %edx
	cmpl	$1, %eax
	movl	%edx, 8(%rbp)
	jne	.L209
	movq	0(%rbp), %rax
	movq	%rbp, %rdi
	call	*16(%rax)
	movl	12(%rbp), %eax
	leal	-1(%rax), %edx
	movl	%edx, 12(%rbp)
	jmp	.L294
	.p2align 4,,10
	.p2align 3
.L222:
	movl	8(%rbp), %eax
	leal	-1(%rax), %edx
	cmpl	$1, %eax
	movl	%edx, 8(%rbp)
	jne	.L221
	movq	0(%rbp), %rax
	movq	%rbp, %rdi
	call	*16(%rax)
	movl	12(%rbp), %eax
	leal	-1(%rax), %edx
	movl	%edx, 12(%rbp)
	jmp	.L296
	.p2align 4,,10
	.p2align 3
.L216:
	movl	8(%rbp), %eax
	leal	-1(%rax), %edx
	cmpl	$1, %eax
	movl	%edx, 8(%rbp)
	jne	.L215
	movq	0(%rbp), %rax
	movq	%rbp, %rdi
	call	*16(%rax)
	movl	12(%rbp), %eax
	leal	-1(%rax), %edx
	movl	%edx, 12(%rbp)
	jmp	.L295
	.p2align 4,,10
	.p2align 3
.L234:
	movl	8(%rbp), %eax
	leal	-1(%rax), %edx
	cmpl	$1, %eax
	movl	%edx, 8(%rbp)
	jne	.L233
	movq	0(%rbp), %rax
	movq	%rbp, %rdi
	call	*16(%rax)
	movl	12(%rbp), %eax
	leal	-1(%rax), %edx
	movl	%edx, 12(%rbp)
	jmp	.L298
	.p2align 4,,10
	.p2align 3
.L228:
	movl	8(%rbp), %eax
	leal	-1(%rax), %edx
	cmpl	$1, %eax
	movl	%edx, 8(%rbp)
	jne	.L227
	movq	0(%rbp), %rax
	movq	%rbp, %rdi
	call	*16(%rax)
	movl	12(%rbp), %eax
	leal	-1(%rax), %edx
	movl	%edx, 12(%rbp)
	jmp	.L297
	.p2align 4,,10
	.p2align 3
.L328:
	movq	(%r12), %rax
	movq	%r12, %rdi
	call	*16(%rax)
	lock subl	$1, 12(%r12)
	jne	.L191
	movq	(%r12), %rax
	movq	%r12, %rdi
	call	*24(%rax)
	jmp	.L191
	.p2align 4,,10
	.p2align 3
.L329:
	movq	(%r12), %rax
	movq	%r12, %rdi
	call	*16(%rax)
	lock subl	$1, 12(%r12)
	jne	.L204
	movq	(%r12), %rax
	movq	%r12, %rdi
	call	*24(%rax)
	jmp	.L204
	.p2align 4,,10
	.p2align 3
.L336:
	movq	0(%rbp), %rax
	movq	%rbp, %rdi
	call	*16(%rax)
	movl	$-1, %eax
	lock xaddl	%eax, 12(%rbp)
.L300:
	cmpl	$1, %eax
	jne	.L245
	movq	0(%rbp), %rax
	movq	%rbp, %rdi
	call	*24(%rax)
	jmp	.L245
	.p2align 4,,10
	.p2align 3
.L341:
	movq	0(%rbp), %rax
	movq	%rbp, %rdi
	call	*16(%rax)
	movl	$-1, %eax
	lock xaddl	%eax, 12(%rbp)
.L305:
	cmpl	$1, %eax
	jne	.L275
	movq	0(%rbp), %rax
	movq	%rbp, %rdi
	call	*24(%rax)
	jmp	.L275
	.p2align 4,,10
	.p2align 3
.L343:
	movq	0(%rbp), %rax
	movq	%rbp, %rdi
	call	*16(%rax)
	movl	$-1, %eax
	lock xaddl	%eax, 12(%rbp)
.L307:
	cmpl	$1, %eax
	jne	.L287
	movq	0(%rbp), %rax
	movq	%rbp, %rdi
	call	*24(%rax)
	jmp	.L287
	.p2align 4,,10
	.p2align 3
.L340:
	movq	0(%rbp), %rax
	movq	%rbp, %rdi
	call	*16(%rax)
	movl	$-1, %eax
	lock xaddl	%eax, 12(%rbp)
.L304:
	cmpl	$1, %eax
	jne	.L269
	movq	0(%rbp), %rax
	movq	%rbp, %rdi
	call	*24(%rax)
	jmp	.L269
	.p2align 4,,10
	.p2align 3
.L338:
	movq	0(%rbp), %rax
	movq	%rbp, %rdi
	call	*16(%rax)
	movl	$-1, %eax
	lock xaddl	%eax, 12(%rbp)
.L302:
	cmpl	$1, %eax
	jne	.L257
	movq	0(%rbp), %rax
	movq	%rbp, %rdi
	call	*24(%rax)
	jmp	.L257
	.p2align 4,,10
	.p2align 3
.L339:
	movq	0(%rbp), %rax
	movq	%rbp, %rdi
	call	*16(%rax)
	movl	$-1, %eax
	lock xaddl	%eax, 12(%rbp)
.L303:
	cmpl	$1, %eax
	jne	.L263
	movq	0(%rbp), %rax
	movq	%rbp, %rdi
	call	*24(%rax)
	jmp	.L263
	.p2align 4,,10
	.p2align 3
.L337:
	movq	0(%rbp), %rax
	movq	%rbp, %rdi
	call	*16(%rax)
	movl	$-1, %eax
	lock xaddl	%eax, 12(%rbp)
.L301:
	cmpl	$1, %eax
	jne	.L251
	movq	0(%rbp), %rax
	movq	%rbp, %rdi
	call	*24(%rax)
	jmp	.L251
	.p2align 4,,10
	.p2align 3
.L342:
	movq	0(%rbp), %rax
	movq	%rbp, %rdi
	call	*16(%rax)
	movl	$-1, %eax
	lock xaddl	%eax, 12(%rbp)
.L306:
	cmpl	$1, %eax
	jne	.L281
	movq	0(%rbp), %rax
	movq	%rbp, %rdi
	call	*24(%rax)
	jmp	.L281
	.p2align 4,,10
	.p2align 3
.L330:
	movq	0(%rbp), %rax
	movq	%rbp, %rdi
	call	*16(%rax)
	movl	$-1, %eax
	lock xaddl	%eax, 12(%rbp)
.L294:
	cmpl	$1, %eax
	jne	.L209
	movq	0(%rbp), %rax
	movq	%rbp, %rdi
	call	*24(%rax)
	jmp	.L209
	.p2align 4,,10
	.p2align 3
.L331:
	movq	0(%rbp), %rax
	movq	%rbp, %rdi
	call	*16(%rax)
	movl	$-1, %eax
	lock xaddl	%eax, 12(%rbp)
.L295:
	cmpl	$1, %eax
	jne	.L215
	movq	0(%rbp), %rax
	movq	%rbp, %rdi
	call	*24(%rax)
	jmp	.L215
	.p2align 4,,10
	.p2align 3
.L332:
	movq	0(%rbp), %rax
	movq	%rbp, %rdi
	call	*16(%rax)
	movl	$-1, %eax
	lock xaddl	%eax, 12(%rbp)
.L296:
	cmpl	$1, %eax
	jne	.L221
	movq	0(%rbp), %rax
	movq	%rbp, %rdi
	call	*24(%rax)
	jmp	.L221
	.p2align 4,,10
	.p2align 3
.L333:
	movq	0(%rbp), %rax
	movq	%rbp, %rdi
	call	*16(%rax)
	movl	$-1, %eax
	lock xaddl	%eax, 12(%rbp)
.L297:
	cmpl	$1, %eax
	jne	.L227
	movq	0(%rbp), %rax
	movq	%rbp, %rdi
	call	*24(%rax)
	jmp	.L227
	.p2align 4,,10
	.p2align 3
.L334:
	movq	0(%rbp), %rax
	movq	%rbp, %rdi
	call	*16(%rax)
	movl	$-1, %eax
	lock xaddl	%eax, 12(%rbp)
.L298:
	cmpl	$1, %eax
	jne	.L233
	movq	0(%rbp), %rax
	movq	%rbp, %rdi
	call	*24(%rax)
	jmp	.L233
	.p2align 4,,10
	.p2align 3
.L335:
	movq	0(%rbp), %rax
	movq	%rbp, %rdi
	call	*16(%rax)
	movl	$-1, %eax
	lock xaddl	%eax, 12(%rbp)
.L299:
	cmpl	$1, %eax
	jne	.L239
	movq	0(%rbp), %rax
	movq	%rbp, %rdi
	call	*24(%rax)
	jmp	.L239
	.cfi_endproc
.LFE4883:
	.size	_ZN8opendnp38MContextD0Ev, .-_ZN8opendnp38MContextD0Ev
	.section	.text._ZN8opendnp38MContextD2Ev,"axG",@progbits,_ZN8opendnp38MContextD5Ev,comdat
	.align 2
	.p2align 4,,15
	.weak	_ZN8opendnp38MContextD2Ev
	.type	_ZN8opendnp38MContextD2Ev, @function
_ZN8opendnp38MContextD2Ev:
.LFB4881:
	.cfi_startproc
	pushq	%r13
	.cfi_def_cfa_offset 16
	.cfi_offset 13, -16
	pushq	%r12
	.cfi_def_cfa_offset 24
	.cfi_offset 12, -24
	pushq	%rbp
	.cfi_def_cfa_offset 32
	.cfi_offset 6, -32
	pushq	%rbx
	.cfi_def_cfa_offset 40
	.cfi_offset 3, -40
	movq	%rdi, %rbx
	subq	$8, %rsp
	.cfi_def_cfa_offset 48
	movq	_ZTVN8opendnp38MContextE@GOTPCREL(%rip), %rax
	leaq	16(%rax), %rdx
	movq	%rdx, (%rdi)
	leaq	128(%rax), %rdx
	addq	$152, %rax
	movq	%rax, 16(%rdi)
	movq	_ZTVN7openpal5ArrayIhjEE@GOTPCREL(%rip), %rax
	movq	%rdx, 8(%rdi)
	addq	$16, %rax
	movq	%rax, 488(%rdi)
	movq	504(%rdi), %rdi
	testq	%rdi, %rdi
	je	.L347
	call	_ZdaPv@PLT
.L347:
	movq	408(%rbx), %rdi
	testq	%rdi, %rdi
	je	.L348
	movq	480(%rbx), %rax
	movq	448(%rbx), %rbp
	leaq	8(%rax), %r12
	cmpq	%rbp, %r12
	jbe	.L349
	.p2align 4,,10
	.p2align 3
.L350:
	movq	0(%rbp), %rdi
	addq	$8, %rbp
	call	_ZdlPv@PLT
	cmpq	%rbp, %r12
	ja	.L350
	movq	408(%rbx), %rdi
.L349:
	call	_ZdlPv@PLT
.L348:
	movq	392(%rbx), %r13
	movq	384(%rbx), %rbp
	cmpq	%rbp, %r13
	je	.L351
	cmpq	$0, _ZL28__gthrw___pthread_key_createPjPFvPvE@GOTPCREL(%rip)
	je	.L358
	.p2align 4,,10
	.p2align 3
.L352:
	movq	8(%rbp), %r12
	testq	%r12, %r12
	je	.L360
	lock subl	$1, 8(%r12)
	je	.L497
.L360:
	addq	$16, %rbp
	cmpq	%rbp, %r13
	jne	.L352
.L357:
	movq	384(%rbx), %rbp
.L351:
	testq	%rbp, %rbp
	je	.L363
	movq	%rbp, %rdi
	call	_ZdlPv@PLT
.L363:
	movq	360(%rbx), %r13
	movq	352(%rbx), %rbp
	cmpq	%rbp, %r13
	je	.L364
	cmpq	$0, _ZL28__gthrw___pthread_key_createPjPFvPvE@GOTPCREL(%rip)
	je	.L371
	.p2align 4,,10
	.p2align 3
.L365:
	movq	8(%rbp), %r12
	testq	%r12, %r12
	je	.L373
	lock subl	$1, 8(%r12)
	je	.L498
.L373:
	addq	$16, %rbp
	cmpq	%rbp, %r13
	jne	.L365
.L370:
	movq	352(%rbx), %rbp
.L364:
	testq	%rbp, %rbp
	je	.L376
	movq	%rbp, %rdi
	call	_ZdlPv@PLT
.L376:
	movq	344(%rbx), %rbp
	testq	%rbp, %rbp
	je	.L378
	cmpq	$0, _ZL28__gthrw___pthread_key_createPjPFvPvE@GOTPCREL(%rip)
	je	.L379
	lock subl	$1, 8(%rbp)
	je	.L499
.L378:
	movq	328(%rbx), %rbp
	testq	%rbp, %rbp
	je	.L384
	cmpq	$0, _ZL28__gthrw___pthread_key_createPjPFvPvE@GOTPCREL(%rip)
	je	.L385
	lock subl	$1, 8(%rbp)
	je	.L500
.L384:
	movq	312(%rbx), %rbp
	testq	%rbp, %rbp
	je	.L390
	cmpq	$0, _ZL28__gthrw___pthread_key_createPjPFvPvE@GOTPCREL(%rip)
	je	.L391
	lock subl	$1, 8(%rbp)
	je	.L501
.L390:
	movq	296(%rbx), %rbp
	testq	%rbp, %rbp
	je	.L396
	cmpq	$0, _ZL28__gthrw___pthread_key_createPjPFvPvE@GOTPCREL(%rip)
	je	.L397
	lock subl	$1, 8(%rbp)
	je	.L502
.L396:
	movq	280(%rbx), %rbp
	testq	%rbp, %rbp
	je	.L402
	cmpq	$0, _ZL28__gthrw___pthread_key_createPjPFvPvE@GOTPCREL(%rip)
	je	.L403
	lock subl	$1, 8(%rbp)
	je	.L503
.L402:
	movq	264(%rbx), %rbp
	testq	%rbp, %rbp
	je	.L408
	cmpq	$0, _ZL28__gthrw___pthread_key_createPjPFvPvE@GOTPCREL(%rip)
	je	.L409
	lock subl	$1, 8(%rbp)
	je	.L504
.L408:
	movq	248(%rbx), %rbp
	testq	%rbp, %rbp
	je	.L414
	cmpq	$0, _ZL28__gthrw___pthread_key_createPjPFvPvE@GOTPCREL(%rip)
	je	.L415
	lock subl	$1, 8(%rbp)
	je	.L505
.L414:
	leaq	224(%rbx), %rdi
	call	_ZN7openpal8TimerRefD1Ev@PLT
	leaq	208(%rbx), %rdi
	call	_ZN7openpal8TimerRefD1Ev@PLT
	leaq	192(%rbx), %rdi
	call	_ZN7openpal8TimerRefD1Ev@PLT
	movq	184(%rbx), %rbp
	testq	%rbp, %rbp
	je	.L420
	cmpq	$0, _ZL28__gthrw___pthread_key_createPjPFvPvE@GOTPCREL(%rip)
	je	.L421
	lock subl	$1, 8(%rbp)
	je	.L506
.L420:
	movq	152(%rbx), %rbp
	testq	%rbp, %rbp
	je	.L426
	cmpq	$0, _ZL28__gthrw___pthread_key_createPjPFvPvE@GOTPCREL(%rip)
	je	.L427
	lock subl	$1, 8(%rbp)
	je	.L507
.L426:
	movq	136(%rbx), %rbp
	testq	%rbp, %rbp
	je	.L432
	cmpq	$0, _ZL28__gthrw___pthread_key_createPjPFvPvE@GOTPCREL(%rip)
	je	.L433
	lock subl	$1, 8(%rbp)
	je	.L508
.L432:
	movq	80(%rbx), %rbp
	testq	%rbp, %rbp
	je	.L438
	cmpq	$0, _ZL28__gthrw___pthread_key_createPjPFvPvE@GOTPCREL(%rip)
	je	.L439
	lock subl	$1, 8(%rbp)
	je	.L509
.L438:
	movq	64(%rbx), %rbp
	testq	%rbp, %rbp
	je	.L444
	cmpq	$0, _ZL28__gthrw___pthread_key_createPjPFvPvE@GOTPCREL(%rip)
	je	.L445
	lock subl	$1, 8(%rbp)
	je	.L510
.L444:
	movq	48(%rbx), %rbp
	testq	%rbp, %rbp
	je	.L450
	cmpq	$0, _ZL28__gthrw___pthread_key_createPjPFvPvE@GOTPCREL(%rip)
	je	.L451
	lock subl	$1, 8(%rbp)
	je	.L511
.L450:
	movq	32(%rbx), %rbx
	testq	%rbx, %rbx
	je	.L346
	cmpq	$0, _ZL28__gthrw___pthread_key_createPjPFvPvE@GOTPCREL(%rip)
	je	.L457
	lock subl	$1, 8(%rbx)
	je	.L512
.L346:
	addq	$8, %rsp
	.cfi_remember_state
	.cfi_def_cfa_offset 40
	popq	%rbx
	.cfi_def_cfa_offset 32
	popq	%rbp
	.cfi_def_cfa_offset 24
	popq	%r12
	.cfi_def_cfa_offset 16
	popq	%r13
	.cfi_def_cfa_offset 8
	ret
	.p2align 4,,10
	.p2align 3
.L513:
	.cfi_restore_state
	movq	(%r12), %rax
	movq	%r12, %rdi
	call	*16(%rax)
	movl	12(%r12), %eax
	leal	-1(%rax), %edx
	cmpl	$1, %eax
	movl	%edx, 12(%r12)
	jne	.L355
	movq	(%r12), %rax
	movq	%r12, %rdi
	call	*24(%rax)
	.p2align 4,,10
	.p2align 3
.L355:
	addq	$16, %rbp
	cmpq	%rbp, %r13
	je	.L357
.L358:
	movq	8(%rbp), %r12
	testq	%r12, %r12
	je	.L355
	movl	8(%r12), %eax
	leal	-1(%rax), %edx
	cmpl	$1, %eax
	movl	%edx, 8(%r12)
	je	.L513
	addq	$16, %rbp
	cmpq	%rbp, %r13
	jne	.L358
	jmp	.L357
	.p2align 4,,10
	.p2align 3
.L514:
	movq	(%r12), %rax
	movq	%r12, %rdi
	call	*16(%rax)
	movl	12(%r12), %eax
	leal	-1(%rax), %edx
	cmpl	$1, %eax
	movl	%edx, 12(%r12)
	jne	.L368
	movq	(%r12), %rax
	movq	%r12, %rdi
	call	*24(%rax)
	.p2align 4,,10
	.p2align 3
.L368:
	addq	$16, %rbp
	cmpq	%rbp, %r13
	je	.L370
.L371:
	movq	8(%rbp), %r12
	testq	%r12, %r12
	je	.L368
	movl	8(%r12), %eax
	leal	-1(%rax), %edx
	cmpl	$1, %eax
	movl	%edx, 8(%r12)
	je	.L514
	addq	$16, %rbp
	cmpq	%rbp, %r13
	jne	.L371
	jmp	.L370
	.p2align 4,,10
	.p2align 3
.L457:
	movl	8(%rbx), %eax
	leal	-1(%rax), %edx
	cmpl	$1, %eax
	movl	%edx, 8(%rbx)
	jne	.L346
	movq	(%rbx), %rax
	movq	%rbx, %rdi
	call	*16(%rax)
	movl	12(%rbx), %eax
	leal	-1(%rax), %edx
	movl	%edx, 12(%rbx)
	jmp	.L476
	.p2align 4,,10
	.p2align 3
.L445:
	movl	8(%rbp), %eax
	leal	-1(%rax), %edx
	cmpl	$1, %eax
	movl	%edx, 8(%rbp)
	jne	.L444
	movq	0(%rbp), %rax
	movq	%rbp, %rdi
	call	*16(%rax)
	movl	12(%rbp), %eax
	leal	-1(%rax), %edx
	movl	%edx, 12(%rbp)
	jmp	.L474
	.p2align 4,,10
	.p2align 3
.L415:
	movl	8(%rbp), %eax
	leal	-1(%rax), %edx
	cmpl	$1, %eax
	movl	%edx, 8(%rbp)
	jne	.L414
	movq	0(%rbp), %rax
	movq	%rbp, %rdi
	call	*16(%rax)
	movl	12(%rbp), %eax
	leal	-1(%rax), %edx
	movl	%edx, 12(%rbp)
	jmp	.L469
	.p2align 4,,10
	.p2align 3
.L427:
	movl	8(%rbp), %eax
	leal	-1(%rax), %edx
	cmpl	$1, %eax
	movl	%edx, 8(%rbp)
	jne	.L426
	movq	0(%rbp), %rax
	movq	%rbp, %rdi
	call	*16(%rax)
	movl	12(%rbp), %eax
	leal	-1(%rax), %edx
	movl	%edx, 12(%rbp)
	jmp	.L471
	.p2align 4,,10
	.p2align 3
.L421:
	movl	8(%rbp), %eax
	leal	-1(%rax), %edx
	cmpl	$1, %eax
	movl	%edx, 8(%rbp)
	jne	.L420
	movq	0(%rbp), %rax
	movq	%rbp, %rdi
	call	*16(%rax)
	movl	12(%rbp), %eax
	leal	-1(%rax), %edx
	movl	%edx, 12(%rbp)
	jmp	.L470
	.p2align 4,,10
	.p2align 3
.L409:
	movl	8(%rbp), %eax
	leal	-1(%rax), %edx
	cmpl	$1, %eax
	movl	%edx, 8(%rbp)
	jne	.L408
	movq	0(%rbp), %rax
	movq	%rbp, %rdi
	call	*16(%rax)
	movl	12(%rbp), %eax
	leal	-1(%rax), %edx
	movl	%edx, 12(%rbp)
	jmp	.L468
	.p2align 4,,10
	.p2align 3
.L433:
	movl	8(%rbp), %eax
	leal	-1(%rax), %edx
	cmpl	$1, %eax
	movl	%edx, 8(%rbp)
	jne	.L432
	movq	0(%rbp), %rax
	movq	%rbp, %rdi
	call	*16(%rax)
	movl	12(%rbp), %eax
	leal	-1(%rax), %edx
	movl	%edx, 12(%rbp)
	jmp	.L472
	.p2align 4,,10
	.p2align 3
.L451:
	movl	8(%rbp), %eax
	leal	-1(%rax), %edx
	cmpl	$1, %eax
	movl	%edx, 8(%rbp)
	jne	.L450
	movq	0(%rbp), %rax
	movq	%rbp, %rdi
	call	*16(%rax)
	movl	12(%rbp), %eax
	leal	-1(%rax), %edx
	movl	%edx, 12(%rbp)
	jmp	.L475
	.p2align 4,,10
	.p2align 3
.L439:
	movl	8(%rbp), %eax
	leal	-1(%rax), %edx
	cmpl	$1, %eax
	movl	%edx, 8(%rbp)
	jne	.L438
	movq	0(%rbp), %rax
	movq	%rbp, %rdi
	call	*16(%rax)
	movl	12(%rbp), %eax
	leal	-1(%rax), %edx
	movl	%edx, 12(%rbp)
	jmp	.L473
	.p2align 4,,10
	.p2align 3
.L379:
	movl	8(%rbp), %eax
	leal	-1(%rax), %edx
	cmpl	$1, %eax
	movl	%edx, 8(%rbp)
	jne	.L378
	movq	0(%rbp), %rax
	movq	%rbp, %rdi
	call	*16(%rax)
	movl	12(%rbp), %eax
	leal	-1(%rax), %edx
	movl	%edx, 12(%rbp)
	jmp	.L463
	.p2align 4,,10
	.p2align 3
.L391:
	movl	8(%rbp), %eax
	leal	-1(%rax), %edx
	cmpl	$1, %eax
	movl	%edx, 8(%rbp)
	jne	.L390
	movq	0(%rbp), %rax
	movq	%rbp, %rdi
	call	*16(%rax)
	movl	12(%rbp), %eax
	leal	-1(%rax), %edx
	movl	%edx, 12(%rbp)
	jmp	.L465
	.p2align 4,,10
	.p2align 3
.L385:
	movl	8(%rbp), %eax
	leal	-1(%rax), %edx
	cmpl	$1, %eax
	movl	%edx, 8(%rbp)
	jne	.L384
	movq	0(%rbp), %rax
	movq	%rbp, %rdi
	call	*16(%rax)
	movl	12(%rbp), %eax
	leal	-1(%rax), %edx
	movl	%edx, 12(%rbp)
	jmp	.L464
	.p2align 4,,10
	.p2align 3
.L403:
	movl	8(%rbp), %eax
	leal	-1(%rax), %edx
	cmpl	$1, %eax
	movl	%edx, 8(%rbp)
	jne	.L402
	movq	0(%rbp), %rax
	movq	%rbp, %rdi
	call	*16(%rax)
	movl	12(%rbp), %eax
	leal	-1(%rax), %edx
	movl	%edx, 12(%rbp)
	jmp	.L467
	.p2align 4,,10
	.p2align 3
.L397:
	movl	8(%rbp), %eax
	leal	-1(%rax), %edx
	cmpl	$1, %eax
	movl	%edx, 8(%rbp)
	jne	.L396
	movq	0(%rbp), %rax
	movq	%rbp, %rdi
	call	*16(%rax)
	movl	12(%rbp), %eax
	leal	-1(%rax), %edx
	movl	%edx, 12(%rbp)
	jmp	.L466
	.p2align 4,,10
	.p2align 3
.L497:
	movq	(%r12), %rax
	movq	%r12, %rdi
	call	*16(%rax)
	lock subl	$1, 12(%r12)
	jne	.L360
	movq	(%r12), %rax
	movq	%r12, %rdi
	call	*24(%rax)
	jmp	.L360
	.p2align 4,,10
	.p2align 3
.L498:
	movq	(%r12), %rax
	movq	%r12, %rdi
	call	*16(%rax)
	lock subl	$1, 12(%r12)
	jne	.L373
	movq	(%r12), %rax
	movq	%r12, %rdi
	call	*24(%rax)
	jmp	.L373
	.p2align 4,,10
	.p2align 3
.L505:
	movq	0(%rbp), %rax
	movq	%rbp, %rdi
	call	*16(%rax)
	movl	$-1, %eax
	lock xaddl	%eax, 12(%rbp)
.L469:
	cmpl	$1, %eax
	jne	.L414
	movq	0(%rbp), %rax
	movq	%rbp, %rdi
	call	*24(%rax)
	jmp	.L414
	.p2align 4,,10
	.p2align 3
.L510:
	movq	0(%rbp), %rax
	movq	%rbp, %rdi
	call	*16(%rax)
	movl	$-1, %eax
	lock xaddl	%eax, 12(%rbp)
.L474:
	cmpl	$1, %eax
	jne	.L444
	movq	0(%rbp), %rax
	movq	%rbp, %rdi
	call	*24(%rax)
	jmp	.L444
	.p2align 4,,10
	.p2align 3
.L512:
	movq	(%rbx), %rax
	movq	%rbx, %rdi
	call	*16(%rax)
	movl	$-1, %eax
	lock xaddl	%eax, 12(%rbx)
.L476:
	cmpl	$1, %eax
	jne	.L346
	movq	(%rbx), %rax
	movq	%rbx, %rdi
	movq	24(%rax), %rax
	addq	$8, %rsp
	.cfi_remember_state
	.cfi_def_cfa_offset 40
	popq	%rbx
	.cfi_def_cfa_offset 32
	popq	%rbp
	.cfi_def_cfa_offset 24
	popq	%r12
	.cfi_def_cfa_offset 16
	popq	%r13
	.cfi_def_cfa_offset 8
	jmp	*%rax
	.p2align 4,,10
	.p2align 3
.L509:
	.cfi_restore_state
	movq	0(%rbp), %rax
	movq	%rbp, %rdi
	call	*16(%rax)
	movl	$-1, %eax
	lock xaddl	%eax, 12(%rbp)
.L473:
	cmpl	$1, %eax
	jne	.L438
	movq	0(%rbp), %rax
	movq	%rbp, %rdi
	call	*24(%rax)
	jmp	.L438
	.p2align 4,,10
	.p2align 3
.L507:
	movq	0(%rbp), %rax
	movq	%rbp, %rdi
	call	*16(%rax)
	movl	$-1, %eax
	lock xaddl	%eax, 12(%rbp)
.L471:
	cmpl	$1, %eax
	jne	.L426
	movq	0(%rbp), %rax
	movq	%rbp, %rdi
	call	*24(%rax)
	jmp	.L426
	.p2align 4,,10
	.p2align 3
.L508:
	movq	0(%rbp), %rax
	movq	%rbp, %rdi
	call	*16(%rax)
	movl	$-1, %eax
	lock xaddl	%eax, 12(%rbp)
.L472:
	cmpl	$1, %eax
	jne	.L432
	movq	0(%rbp), %rax
	movq	%rbp, %rdi
	call	*24(%rax)
	jmp	.L432
	.p2align 4,,10
	.p2align 3
.L506:
	movq	0(%rbp), %rax
	movq	%rbp, %rdi
	call	*16(%rax)
	movl	$-1, %eax
	lock xaddl	%eax, 12(%rbp)
.L470:
	cmpl	$1, %eax
	jne	.L420
	movq	0(%rbp), %rax
	movq	%rbp, %rdi
	call	*24(%rax)
	jmp	.L420
	.p2align 4,,10
	.p2align 3
.L511:
	movq	0(%rbp), %rax
	movq	%rbp, %rdi
	call	*16(%rax)
	movl	$-1, %eax
	lock xaddl	%eax, 12(%rbp)
.L475:
	cmpl	$1, %eax
	jne	.L450
	movq	0(%rbp), %rax
	movq	%rbp, %rdi
	call	*24(%rax)
	jmp	.L450
	.p2align 4,,10
	.p2align 3
.L499:
	movq	0(%rbp), %rax
	movq	%rbp, %rdi
	call	*16(%rax)
	movl	$-1, %eax
	lock xaddl	%eax, 12(%rbp)
.L463:
	cmpl	$1, %eax
	jne	.L378
	movq	0(%rbp), %rax
	movq	%rbp, %rdi
	call	*24(%rax)
	jmp	.L378
	.p2align 4,,10
	.p2align 3
.L500:
	movq	0(%rbp), %rax
	movq	%rbp, %rdi
	call	*16(%rax)
	movl	$-1, %eax
	lock xaddl	%eax, 12(%rbp)
.L464:
	cmpl	$1, %eax
	jne	.L384
	movq	0(%rbp), %rax
	movq	%rbp, %rdi
	call	*24(%rax)
	jmp	.L384
	.p2align 4,,10
	.p2align 3
.L501:
	movq	0(%rbp), %rax
	movq	%rbp, %rdi
	call	*16(%rax)
	movl	$-1, %eax
	lock xaddl	%eax, 12(%rbp)
.L465:
	cmpl	$1, %eax
	jne	.L390
	movq	0(%rbp), %rax
	movq	%rbp, %rdi
	call	*24(%rax)
	jmp	.L390
	.p2align 4,,10
	.p2align 3
.L502:
	movq	0(%rbp), %rax
	movq	%rbp, %rdi
	call	*16(%rax)
	movl	$-1, %eax
	lock xaddl	%eax, 12(%rbp)
.L466:
	cmpl	$1, %eax
	jne	.L396
	movq	0(%rbp), %rax
	movq	%rbp, %rdi
	call	*24(%rax)
	jmp	.L396
	.p2align 4,,10
	.p2align 3
.L503:
	movq	0(%rbp), %rax
	movq	%rbp, %rdi
	call	*16(%rax)
	movl	$-1, %eax
	lock xaddl	%eax, 12(%rbp)
.L467:
	cmpl	$1, %eax
	jne	.L402
	movq	0(%rbp), %rax
	movq	%rbp, %rdi
	call	*24(%rax)
	jmp	.L402
	.p2align 4,,10
	.p2align 3
.L504:
	movq	0(%rbp), %rax
	movq	%rbp, %rdi
	call	*16(%rax)
	movl	$-1, %eax
	lock xaddl	%eax, 12(%rbp)
.L468:
	cmpl	$1, %eax
	jne	.L408
	movq	0(%rbp), %rax
	movq	%rbp, %rdi
	call	*24(%rax)
	jmp	.L408
	.cfi_endproc
.LFE4881:
	.size	_ZN8opendnp38MContextD2Ev, .-_ZN8opendnp38MContextD2Ev
	.weak	_ZN8opendnp38MContextD1Ev
	.set	_ZN8opendnp38MContextD1Ev,_ZN8opendnp38MContextD2Ev
	.text
	.align 2
	.p2align 4,,15
	.globl	_ZN8opendnp38MContext16OnLowerLayerDownEv
	.type	_ZN8opendnp38MContext16OnLowerLayerDownEv, @function
_ZN8opendnp38MContext16OnLowerLayerDownEv:
.LFB3339:
	.cfi_startproc
	pushq	%r12
	.cfi_def_cfa_offset 16
	.cfi_offset 12, -16
	pushq	%rbp
	.cfi_def_cfa_offset 24
	.cfi_offset 6, -24
	pushq	%rbx
	.cfi_def_cfa_offset 32
	.cfi_offset 3, -32
	subq	$16, %rsp
	.cfi_def_cfa_offset 48
	movzbl	168(%rdi), %ebp
	movq	%fs:40, %rax
	movq	%rax, 8(%rsp)
	xorl	%eax, %eax
	testb	%bpl, %bpl
	jne	.L534
.L515:
	movq	8(%rsp), %rcx
	xorq	%fs:40, %rcx
	movl	%ebp, %eax
	jne	.L535
	addq	$16, %rsp
	.cfi_remember_state
	.cfi_def_cfa_offset 32
	popq	%rbx
	.cfi_def_cfa_offset 24
	popq	%rbp
	.cfi_def_cfa_offset 16
	popq	%r12
	.cfi_def_cfa_offset 8
	ret
	.p2align 4,,10
	.p2align 3
.L534:
	.cfi_restore_state
	movq	%rdi, %rbx
	movq	56(%rdi), %rdi
	movq	(%rdi), %rax
	call	*16(%rax)
	leaq	376(%rbx), %rdi
	movq	%rsp, %rsi
	movq	%rax, (%rsp)
	call	_ZN8opendnp315MasterScheduler8ShutdownERKN7openpal18MonotonicTimestampE@PLT
	movq	176(%rbx), %rdi
	testq	%rdi, %rdi
	je	.L518
	movq	(%rsp), %rsi
	call	_ZN8opendnp311IMasterTask17OnLowerLayerCloseEN7openpal18MonotonicTimestampE@PLT
	movq	184(%rbx), %r12
	movq	$0, 176(%rbx)
	movq	$0, 184(%rbx)
	testq	%r12, %r12
	je	.L518
	cmpq	$0, _ZL28__gthrw___pthread_key_createPjPFvPvE@GOTPCREL(%rip)
	je	.L520
	lock subl	$1, 8(%r12)
	je	.L536
	.p2align 4,,10
	.p2align 3
.L518:
	movq	160(%rbx), %rdi
	movl	$0, 512(%rbx)
	movq	(%rdi), %rax
	movq	8(%rax), %rax
	cmpq	_ZN8opendnp312NullTaskLock7ReleaseERNS_17IScheduleCallbackE@GOTPCREL(%rip), %rax
	jne	.L537
.L523:
	leaq	192(%rbx), %rdi
	call	_ZN7openpal8TimerRef6CancelEv@PLT
	leaq	224(%rbx), %rdi
	call	_ZN7openpal8TimerRef6CancelEv@PLT
	leaq	208(%rbx), %rdi
	call	_ZN7openpal8TimerRef6CancelEv@PLT
	movq	144(%rbx), %rdi
	movb	$0, 171(%rbx)
	movb	$0, 170(%rbx)
	movb	$0, 169(%rbx)
	movb	$0, 168(%rbx)
	movq	(%rdi), %rax
	movq	80(%rax), %rax
	cmpq	_ZN8opendnp318IMasterApplication7OnCloseEv@GOTPCREL(%rip), %rax
	je	.L515
	call	*%rax
	jmp	.L515
	.p2align 4,,10
	.p2align 3
.L537:
	leaq	8(%rbx), %rsi
	call	*%rax
	jmp	.L523
	.p2align 4,,10
	.p2align 3
.L520:
	movl	8(%r12), %eax
	leal	-1(%rax), %edx
	cmpl	$1, %eax
	movl	%edx, 8(%r12)
	jne	.L518
	movq	(%r12), %rax
	movq	%r12, %rdi
	call	*16(%rax)
	movl	12(%r12), %eax
	leal	-1(%rax), %edx
	movl	%edx, 12(%r12)
	jmp	.L525
	.p2align 4,,10
	.p2align 3
.L536:
	movq	(%r12), %rax
	movq	%r12, %rdi
	call	*16(%rax)
	movl	$-1, %eax
	lock xaddl	%eax, 12(%r12)
.L525:
	cmpl	$1, %eax
	jne	.L518
	movq	(%r12), %rax
	movq	%r12, %rdi
	call	*24(%rax)
	jmp	.L518
.L535:
	call	__stack_chk_fail@PLT
	.cfi_endproc
.LFE3339:
	.size	_ZN8opendnp38MContext16OnLowerLayerDownEv, .-_ZN8opendnp38MContext16OnLowerLayerDownEv
	.section	.text._ZN7openpal6LoggerD2Ev,"axG",@progbits,_ZN7openpal6LoggerD5Ev,comdat
	.align 2
	.p2align 4,,15
	.weak	_ZN7openpal6LoggerD2Ev
	.type	_ZN7openpal6LoggerD2Ev, @function
_ZN7openpal6LoggerD2Ev:
.LFB2081:
	.cfi_startproc
	pushq	%rbp
	.cfi_def_cfa_offset 16
	.cfi_offset 6, -16
	pushq	%rbx
	.cfi_def_cfa_offset 24
	.cfi_offset 3, -24
	movq	%rdi, %rbp
	subq	$8, %rsp
	.cfi_def_cfa_offset 32
	movq	24(%rdi), %rbx
	testq	%rbx, %rbx
	je	.L540
	cmpq	$0, _ZL28__gthrw___pthread_key_createPjPFvPvE@GOTPCREL(%rip)
	je	.L541
	lock subl	$1, 8(%rbx)
	je	.L554
.L540:
	movq	8(%rbp), %rbx
	testq	%rbx, %rbx
	je	.L538
	cmpq	$0, _ZL28__gthrw___pthread_key_createPjPFvPvE@GOTPCREL(%rip)
	je	.L547
	lock subl	$1, 8(%rbx)
	je	.L555
.L538:
	addq	$8, %rsp
	.cfi_remember_state
	.cfi_def_cfa_offset 24
	popq	%rbx
	.cfi_def_cfa_offset 16
	popq	%rbp
	.cfi_def_cfa_offset 8
	ret
	.p2align 4,,10
	.p2align 3
.L547:
	.cfi_restore_state
	movl	8(%rbx), %eax
	leal	-1(%rax), %edx
	cmpl	$1, %eax
	movl	%edx, 8(%rbx)
	jne	.L538
	movq	(%rbx), %rax
	movq	%rbx, %rdi
	call	*16(%rax)
	movl	12(%rbx), %eax
	leal	-1(%rax), %edx
	movl	%edx, 12(%rbx)
	jmp	.L552
	.p2align 4,,10
	.p2align 3
.L541:
	movl	8(%rbx), %eax
	leal	-1(%rax), %edx
	cmpl	$1, %eax
	movl	%edx, 8(%rbx)
	jne	.L540
	movq	(%rbx), %rax
	movq	%rbx, %rdi
	call	*16(%rax)
	movl	12(%rbx), %eax
	leal	-1(%rax), %edx
	movl	%edx, 12(%rbx)
	jmp	.L551
	.p2align 4,,10
	.p2align 3
.L555:
	movq	(%rbx), %rax
	movq	%rbx, %rdi
	call	*16(%rax)
	movl	$-1, %eax
	lock xaddl	%eax, 12(%rbx)
.L552:
	cmpl	$1, %eax
	jne	.L538
	movq	(%rbx), %rax
	movq	%rbx, %rdi
	movq	24(%rax), %rax
	addq	$8, %rsp
	.cfi_remember_state
	.cfi_def_cfa_offset 24
	popq	%rbx
	.cfi_def_cfa_offset 16
	popq	%rbp
	.cfi_def_cfa_offset 8
	jmp	*%rax
	.p2align 4,,10
	.p2align 3
.L554:
	.cfi_restore_state
	movq	(%rbx), %rax
	movq	%rbx, %rdi
	call	*16(%rax)
	movl	$-1, %eax
	lock xaddl	%eax, 12(%rbx)
.L551:
	cmpl	$1, %eax
	jne	.L540
	movq	(%rbx), %rax
	movq	%rbx, %rdi
	call	*24(%rax)
	jmp	.L540
	.cfi_endproc
.LFE2081:
	.size	_ZN7openpal6LoggerD2Ev, .-_ZN7openpal6LoggerD2Ev
	.weak	_ZN7openpal6LoggerD1Ev
	.set	_ZN7openpal6LoggerD1Ev,_ZN7openpal6LoggerD2Ev
	.section	.text._ZN8opendnp311MasterTasksD2Ev,"axG",@progbits,_ZN8opendnp311MasterTasksD5Ev,comdat
	.align 2
	.p2align 4,,15
	.weak	_ZN8opendnp311MasterTasksD2Ev
	.type	_ZN8opendnp311MasterTasksD2Ev, @function
_ZN8opendnp311MasterTasksD2Ev:
.LFB3331:
	.cfi_startproc
	pushq	%r13
	.cfi_def_cfa_offset 16
	.cfi_offset 13, -16
	pushq	%r12
	.cfi_def_cfa_offset 24
	.cfi_offset 12, -24
	movq	%rdi, %r12
	pushq	%rbp
	.cfi_def_cfa_offset 32
	.cfi_offset 6, -32
	pushq	%rbx
	.cfi_def_cfa_offset 40
	.cfi_offset 3, -40
	subq	$8, %rsp
	.cfi_def_cfa_offset 48
	movq	120(%rdi), %r13
	movq	112(%rdi), %rbx
	cmpq	%rbx, %r13
	je	.L557
	cmpq	$0, _ZL28__gthrw___pthread_key_createPjPFvPvE@GOTPCREL(%rip)
	je	.L564
	.p2align 4,,10
	.p2align 3
.L558:
	movq	8(%rbx), %rbp
	testq	%rbp, %rbp
	je	.L566
	lock subl	$1, 8(%rbp)
	je	.L627
.L566:
	addq	$16, %rbx
	cmpq	%rbx, %r13
	jne	.L558
.L563:
	movq	112(%r12), %rbx
.L557:
	testq	%rbx, %rbx
	je	.L569
	movq	%rbx, %rdi
	call	_ZdlPv@PLT
.L569:
	movq	104(%r12), %rbx
	testq	%rbx, %rbx
	je	.L571
	cmpq	$0, _ZL28__gthrw___pthread_key_createPjPFvPvE@GOTPCREL(%rip)
	je	.L572
	lock subl	$1, 8(%rbx)
	je	.L628
.L571:
	movq	88(%r12), %rbx
	testq	%rbx, %rbx
	je	.L577
	cmpq	$0, _ZL28__gthrw___pthread_key_createPjPFvPvE@GOTPCREL(%rip)
	je	.L578
	lock subl	$1, 8(%rbx)
	je	.L629
.L577:
	movq	72(%r12), %rbx
	testq	%rbx, %rbx
	je	.L583
	cmpq	$0, _ZL28__gthrw___pthread_key_createPjPFvPvE@GOTPCREL(%rip)
	je	.L584
	lock subl	$1, 8(%rbx)
	je	.L630
.L583:
	movq	56(%r12), %rbx
	testq	%rbx, %rbx
	je	.L589
	cmpq	$0, _ZL28__gthrw___pthread_key_createPjPFvPvE@GOTPCREL(%rip)
	je	.L590
	lock subl	$1, 8(%rbx)
	je	.L631
.L589:
	movq	40(%r12), %rbx
	testq	%rbx, %rbx
	je	.L595
	cmpq	$0, _ZL28__gthrw___pthread_key_createPjPFvPvE@GOTPCREL(%rip)
	je	.L596
	lock subl	$1, 8(%rbx)
	je	.L632
.L595:
	movq	24(%r12), %rbx
	testq	%rbx, %rbx
	je	.L601
	cmpq	$0, _ZL28__gthrw___pthread_key_createPjPFvPvE@GOTPCREL(%rip)
	je	.L602
	lock subl	$1, 8(%rbx)
	je	.L633
.L601:
	movq	8(%r12), %rbx
	testq	%rbx, %rbx
	je	.L556
	cmpq	$0, _ZL28__gthrw___pthread_key_createPjPFvPvE@GOTPCREL(%rip)
	je	.L608
	lock subl	$1, 8(%rbx)
	je	.L634
.L556:
	addq	$8, %rsp
	.cfi_remember_state
	.cfi_def_cfa_offset 40
	popq	%rbx
	.cfi_def_cfa_offset 32
	popq	%rbp
	.cfi_def_cfa_offset 24
	popq	%r12
	.cfi_def_cfa_offset 16
	popq	%r13
	.cfi_def_cfa_offset 8
	ret
	.p2align 4,,10
	.p2align 3
.L635:
	.cfi_restore_state
	movq	0(%rbp), %rax
	movq	%rbp, %rdi
	call	*16(%rax)
	movl	12(%rbp), %eax
	leal	-1(%rax), %edx
	cmpl	$1, %eax
	movl	%edx, 12(%rbp)
	jne	.L561
	movq	0(%rbp), %rax
	movq	%rbp, %rdi
	call	*24(%rax)
	.p2align 4,,10
	.p2align 3
.L561:
	addq	$16, %rbx
	cmpq	%rbx, %r13
	je	.L563
.L564:
	movq	8(%rbx), %rbp
	testq	%rbp, %rbp
	je	.L561
	movl	8(%rbp), %eax
	leal	-1(%rax), %edx
	cmpl	$1, %eax
	movl	%edx, 8(%rbp)
	je	.L635
	addq	$16, %rbx
	cmpq	%rbx, %r13
	jne	.L564
	jmp	.L563
	.p2align 4,,10
	.p2align 3
.L608:
	movl	8(%rbx), %eax
	leal	-1(%rax), %edx
	cmpl	$1, %eax
	movl	%edx, 8(%rbx)
	jne	.L556
	movq	(%rbx), %rax
	movq	%rbx, %rdi
	call	*16(%rax)
	movl	12(%rbx), %eax
	leal	-1(%rax), %edx
	movl	%edx, 12(%rbx)
	jmp	.L619
	.p2align 4,,10
	.p2align 3
.L578:
	movl	8(%rbx), %eax
	leal	-1(%rax), %edx
	cmpl	$1, %eax
	movl	%edx, 8(%rbx)
	jne	.L577
	movq	(%rbx), %rax
	movq	%rbx, %rdi
	call	*16(%rax)
	movl	12(%rbx), %eax
	leal	-1(%rax), %edx
	movl	%edx, 12(%rbx)
	jmp	.L614
	.p2align 4,,10
	.p2align 3
.L572:
	movl	8(%rbx), %eax
	leal	-1(%rax), %edx
	cmpl	$1, %eax
	movl	%edx, 8(%rbx)
	jne	.L571
	movq	(%rbx), %rax
	movq	%rbx, %rdi
	call	*16(%rax)
	movl	12(%rbx), %eax
	leal	-1(%rax), %edx
	movl	%edx, 12(%rbx)
	jmp	.L613
	.p2align 4,,10
	.p2align 3
.L590:
	movl	8(%rbx), %eax
	leal	-1(%rax), %edx
	cmpl	$1, %eax
	movl	%edx, 8(%rbx)
	jne	.L589
	movq	(%rbx), %rax
	movq	%rbx, %rdi
	call	*16(%rax)
	movl	12(%rbx), %eax
	leal	-1(%rax), %edx
	movl	%edx, 12(%rbx)
	jmp	.L616
	.p2align 4,,10
	.p2align 3
.L584:
	movl	8(%rbx), %eax
	leal	-1(%rax), %edx
	cmpl	$1, %eax
	movl	%edx, 8(%rbx)
	jne	.L583
	movq	(%rbx), %rax
	movq	%rbx, %rdi
	call	*16(%rax)
	movl	12(%rbx), %eax
	leal	-1(%rax), %edx
	movl	%edx, 12(%rbx)
	jmp	.L615
	.p2align 4,,10
	.p2align 3
.L602:
	movl	8(%rbx), %eax
	leal	-1(%rax), %edx
	cmpl	$1, %eax
	movl	%edx, 8(%rbx)
	jne	.L601
	movq	(%rbx), %rax
	movq	%rbx, %rdi
	call	*16(%rax)
	movl	12(%rbx), %eax
	leal	-1(%rax), %edx
	movl	%edx, 12(%rbx)
	jmp	.L618
	.p2align 4,,10
	.p2align 3
.L596:
	movl	8(%rbx), %eax
	leal	-1(%rax), %edx
	cmpl	$1, %eax
	movl	%edx, 8(%rbx)
	jne	.L595
	movq	(%rbx), %rax
	movq	%rbx, %rdi
	call	*16(%rax)
	movl	12(%rbx), %eax
	leal	-1(%rax), %edx
	movl	%edx, 12(%rbx)
	jmp	.L617
	.p2align 4,,10
	.p2align 3
.L627:
	movq	0(%rbp), %rax
	movq	%rbp, %rdi
	call	*16(%rax)
	lock subl	$1, 12(%rbp)
	jne	.L566
	movq	0(%rbp), %rax
	movq	%rbp, %rdi
	call	*24(%rax)
	jmp	.L566
	.p2align 4,,10
	.p2align 3
.L634:
	movq	(%rbx), %rax
	movq	%rbx, %rdi
	call	*16(%rax)
	movl	$-1, %eax
	lock xaddl	%eax, 12(%rbx)
.L619:
	cmpl	$1, %eax
	jne	.L556
	movq	(%rbx), %rax
	movq	%rbx, %rdi
	movq	24(%rax), %rax
	addq	$8, %rsp
	.cfi_remember_state
	.cfi_def_cfa_offset 40
	popq	%rbx
	.cfi_def_cfa_offset 32
	popq	%rbp
	.cfi_def_cfa_offset 24
	popq	%r12
	.cfi_def_cfa_offset 16
	popq	%r13
	.cfi_def_cfa_offset 8
	jmp	*%rax
	.p2align 4,,10
	.p2align 3
.L633:
	.cfi_restore_state
	movq	(%rbx), %rax
	movq	%rbx, %rdi
	call	*16(%rax)
	movl	$-1, %eax
	lock xaddl	%eax, 12(%rbx)
.L618:
	cmpl	$1, %eax
	jne	.L601
	movq	(%rbx), %rax
	movq	%rbx, %rdi
	call	*24(%rax)
	jmp	.L601
	.p2align 4,,10
	.p2align 3
.L631:
	movq	(%rbx), %rax
	movq	%rbx, %rdi
	call	*16(%rax)
	movl	$-1, %eax
	lock xaddl	%eax, 12(%rbx)
.L616:
	cmpl	$1, %eax
	jne	.L589
	movq	(%rbx), %rax
	movq	%rbx, %rdi
	call	*24(%rax)
	jmp	.L589
	.p2align 4,,10
	.p2align 3
.L632:
	movq	(%rbx), %rax
	movq	%rbx, %rdi
	call	*16(%rax)
	movl	$-1, %eax
	lock xaddl	%eax, 12(%rbx)
.L617:
	cmpl	$1, %eax
	jne	.L595
	movq	(%rbx), %rax
	movq	%rbx, %rdi
	call	*24(%rax)
	jmp	.L595
	.p2align 4,,10
	.p2align 3
.L628:
	movq	(%rbx), %rax
	movq	%rbx, %rdi
	call	*16(%rax)
	movl	$-1, %eax
	lock xaddl	%eax, 12(%rbx)
.L613:
	cmpl	$1, %eax
	jne	.L571
	movq	(%rbx), %rax
	movq	%rbx, %rdi
	call	*24(%rax)
	jmp	.L571
	.p2align 4,,10
	.p2align 3
.L629:
	movq	(%rbx), %rax
	movq	%rbx, %rdi
	call	*16(%rax)
	movl	$-1, %eax
	lock xaddl	%eax, 12(%rbx)
.L614:
	cmpl	$1, %eax
	jne	.L577
	movq	(%rbx), %rax
	movq	%rbx, %rdi
	call	*24(%rax)
	jmp	.L577
	.p2align 4,,10
	.p2align 3
.L630:
	movq	(%rbx), %rax
	movq	%rbx, %rdi
	call	*16(%rax)
	movl	$-1, %eax
	lock xaddl	%eax, 12(%rbx)
.L615:
	cmpl	$1, %eax
	jne	.L583
	movq	(%rbx), %rax
	movq	%rbx, %rdi
	call	*24(%rax)
	jmp	.L583
	.cfi_endproc
.LFE3331:
	.size	_ZN8opendnp311MasterTasksD2Ev, .-_ZN8opendnp311MasterTasksD2Ev
	.weak	_ZN8opendnp311MasterTasksD1Ev
	.set	_ZN8opendnp311MasterTasksD1Ev,_ZN8opendnp311MasterTasksD2Ev
	.text
	.align 2
	.p2align 4,,15
	.globl	_ZN8opendnp38MContext10ProcessIINERKNS_8IINFieldE
	.type	_ZN8opendnp38MContext10ProcessIINERKNS_8IINFieldE, @function
_ZN8opendnp38MContext10ProcessIINERKNS_8IINFieldE:
.LFB3350:
	.cfi_startproc
	pushq	%rbp
	.cfi_def_cfa_offset 16
	.cfi_offset 6, -16
	pushq	%rbx
	.cfi_def_cfa_offset 24
	.cfi_offset 3, -24
	movq	%rsi, %rbx
	movq	%rdi, %rbp
	movl	$7, %esi
	movq	%rbx, %rdi
	subq	$8, %rsp
	.cfi_def_cfa_offset 32
	call	_ZNK8opendnp38IINField5IsSetENS_6IINBitE@PLT
	testb	%al, %al
	je	.L637
	cmpb	$0, 98(%rbp)
	je	.L664
.L637:
	movl	$11, %esi
	movq	%rbx, %rdi
	call	_ZNK8opendnp38IINField5IsSetENS_6IINBitE@PLT
	testb	%al, %al
	je	.L638
	cmpb	$0, 101(%rbp)
	jne	.L665
.L638:
	movl	$4, %esi
	movq	%rbx, %rdi
	call	_ZNK8opendnp38IINField5IsSetENS_6IINBitE@PLT
	testb	%al, %al
	je	.L639
	cmpb	$1, 96(%rbp)
	je	.L666
.L639:
	movl	$1, %esi
	movq	%rbx, %rdi
	call	_ZNK8opendnp38IINField5IsSetENS_6IINBitE@PLT
	testb	%al, %al
	je	.L644
	leaq	102(%rbp), %rdi
	call	_ZNK8opendnp310ClassField9HasClass1Ev@PLT
	testb	%al, %al
	je	.L644
.L648:
	movq	336(%rbp), %rdi
	call	_ZN8opendnp311IMasterTask6DemandEv@PLT
.L645:
	movq	144(%rbp), %rdi
	movq	(%rdi), %rax
	movq	48(%rax), %rax
	cmpq	_ZN8opendnp318IMasterApplication12OnReceiveIINERKNS_8IINFieldE@GOTPCREL(%rip), %rax
	jne	.L667
	addq	$8, %rsp
	.cfi_remember_state
	.cfi_def_cfa_offset 24
	popq	%rbx
	.cfi_def_cfa_offset 16
	popq	%rbp
	.cfi_def_cfa_offset 8
	ret
	.p2align 4,,10
	.p2align 3
.L644:
	.cfi_restore_state
	movl	$2, %esi
	movq	%rbx, %rdi
	call	_ZNK8opendnp38IINField5IsSetENS_6IINBitE@PLT
	testb	%al, %al
	je	.L643
	leaq	102(%rbp), %rdi
	call	_ZNK8opendnp310ClassField9HasClass2Ev@PLT
	testb	%al, %al
	jne	.L648
.L643:
	movl	$3, %esi
	movq	%rbx, %rdi
	call	_ZNK8opendnp38IINField5IsSetENS_6IINBitE@PLT
	testb	%al, %al
	je	.L645
	leaq	102(%rbp), %rdi
	call	_ZNK8opendnp310ClassField9HasClass3Ev@PLT
	testb	%al, %al
	je	.L645
	movq	336(%rbp), %rdi
	call	_ZN8opendnp311IMasterTask6DemandEv@PLT
	jmp	.L645
	.p2align 4,,10
	.p2align 3
.L667:
	addq	$8, %rsp
	.cfi_remember_state
	.cfi_def_cfa_offset 24
	movq	%rbx, %rsi
	popq	%rbx
	.cfi_def_cfa_offset 16
	popq	%rbp
	.cfi_def_cfa_offset 8
	jmp	*%rax
	.p2align 4,,10
	.p2align 3
.L666:
	.cfi_restore_state
	movq	320(%rbp), %rdi
	call	_ZN8opendnp311IMasterTask6DemandEv@PLT
	jmp	.L639
	.p2align 4,,10
	.p2align 3
.L664:
	movq	256(%rbp), %rdi
	call	_ZN8opendnp311IMasterTask6DemandEv@PLT
	movq	272(%rbp), %rdi
	call	_ZN8opendnp311IMasterTask6DemandEv@PLT
	movq	288(%rbp), %rdi
	call	_ZN8opendnp311IMasterTask6DemandEv@PLT
	movq	240(%rbp), %rdi
	call	_ZN8opendnp311IMasterTask6DemandEv@PLT
	jmp	.L637
	.p2align 4,,10
	.p2align 3
.L665:
	movq	288(%rbp), %rdi
	call	_ZN8opendnp311IMasterTask6DemandEv@PLT
	jmp	.L638
	.cfi_endproc
.LFE3350:
	.size	_ZN8opendnp38MContext10ProcessIINERKNS_8IINFieldE, .-_ZN8opendnp38MContext10ProcessIINERKNS_8IINFieldE
	.align 2
	.p2align 4,,15
	.globl	_ZN8opendnp38MContext8TransmitERKN7openpal6RSliceE
	.type	_ZN8opendnp38MContext8TransmitERKN7openpal6RSliceE, @function
_ZN8opendnp38MContext8TransmitERKN7openpal6RSliceE:
.LFB3355:
	.cfi_startproc
	.cfi_personality 0x9b,DW.ref.__gxx_personality_v0
	.cfi_lsda 0x1b,.LLSDA3355
	pushq	%r12
	.cfi_def_cfa_offset 16
	.cfi_offset 12, -16
	pushq	%rbp
	.cfi_def_cfa_offset 24
	.cfi_offset 6, -24
	movq	%rsi, %r12
	pushq	%rbx
	.cfi_def_cfa_offset 32
	.cfi_offset 3, -32
	movq	%rdi, %rbx
	subq	$48, %rsp
	.cfi_def_cfa_offset 80
	movq	%fs:40, %rax
	movq	%rax, 40(%rsp)
	xorl	%eax, %eax
	movq	24(%rdi), %rax
	movq	%rax, (%rsp)
	movq	32(%rdi), %rax
	testq	%rax, %rax
	movq	%rax, 8(%rsp)
	je	.L669
	cmpq	$0, _ZL28__gthrw___pthread_key_createPjPFvPvE@GOTPCREL(%rip)
	jne	.L701
	addl	$1, 8(%rax)
	movq	40(%rdi), %rax
	movq	%rax, 16(%rsp)
	movq	48(%rdi), %rax
	testq	%rax, %rax
	movq	%rax, 24(%rsp)
	je	.L672
.L673:
	addl	$1, 8(%rax)
.L672:
	movq	%rsp, %rbp
	movq	%r12, %rsi
	movq	%rbp, %rdi
.LEHB4:
	call	_ZN8opendnp37logging20ParseAndLogRequestTxEN7openpal6LoggerERKNS1_6RSliceE@PLT
.LEHE4:
	movq	24(%rsp), %rbp
	testq	%rbp, %rbp
	je	.L676
	cmpq	$0, _ZL28__gthrw___pthread_key_createPjPFvPvE@GOTPCREL(%rip)
	je	.L677
	lock subl	$1, 8(%rbp)
	je	.L702
.L676:
	movq	8(%rsp), %rbp
	testq	%rbp, %rbp
	je	.L682
	cmpq	$0, _ZL28__gthrw___pthread_key_createPjPFvPvE@GOTPCREL(%rip)
	je	.L683
	lock subl	$1, 8(%rbp)
	je	.L703
.L682:
	movq	72(%rbx), %rdi
	movb	$1, 169(%rbx)
	movq	%r12, %rsi
	movq	(%rdi), %rax
.LEHB5:
	call	*16(%rax)
	movq	40(%rsp), %rax
	xorq	%fs:40, %rax
	jne	.L704
	addq	$48, %rsp
	.cfi_remember_state
	.cfi_def_cfa_offset 32
	popq	%rbx
	.cfi_def_cfa_offset 24
	popq	%rbp
	.cfi_def_cfa_offset 16
	popq	%r12
	.cfi_def_cfa_offset 8
	ret
	.p2align 4,,10
	.p2align 3
.L701:
	.cfi_restore_state
	lock addl	$1, 8(%rax)
	movq	48(%rdi), %rdx
	movq	40(%rdi), %rax
	testq	%rdx, %rdx
	movq	%rax, 16(%rsp)
	movq	%rdx, 24(%rsp)
	leaq	8(%rdx), %rax
	je	.L672
.L688:
	lock addl	$1, (%rax)
	jmp	.L672
	.p2align 4,,10
	.p2align 3
.L669:
	movq	40(%rdi), %rax
	movq	%rax, 16(%rsp)
	movq	48(%rdi), %rax
	testq	%rax, %rax
	movq	%rax, 24(%rsp)
	je	.L672
	cmpq	$0, _ZL28__gthrw___pthread_key_createPjPFvPvE@GOTPCREL(%rip)
	je	.L673
	addq	$8, %rax
	jmp	.L688
	.p2align 4,,10
	.p2align 3
.L683:
	movl	8(%rbp), %eax
	leal	-1(%rax), %edx
	cmpl	$1, %eax
	movl	%edx, 8(%rbp)
	jne	.L682
	movq	0(%rbp), %rax
	movq	%rbp, %rdi
	call	*16(%rax)
	movl	12(%rbp), %eax
	leal	-1(%rax), %edx
	movl	%edx, 12(%rbp)
.L690:
	cmpl	$1, %eax
	jne	.L682
	movq	0(%rbp), %rax
	movq	%rbp, %rdi
	call	*24(%rax)
	jmp	.L682
	.p2align 4,,10
	.p2align 3
.L677:
	movl	8(%rbp), %eax
	leal	-1(%rax), %edx
	cmpl	$1, %eax
	movl	%edx, 8(%rbp)
	jne	.L676
	movq	0(%rbp), %rax
	movq	%rbp, %rdi
	call	*16(%rax)
	movl	12(%rbp), %eax
	leal	-1(%rax), %edx
	movl	%edx, 12(%rbp)
.L689:
	cmpl	$1, %eax
	jne	.L676
	movq	0(%rbp), %rax
	movq	%rbp, %rdi
	call	*24(%rax)
	jmp	.L676
	.p2align 4,,10
	.p2align 3
.L703:
	movq	0(%rbp), %rax
	movq	%rbp, %rdi
	call	*16(%rax)
	movl	$-1, %eax
	lock xaddl	%eax, 12(%rbp)
	jmp	.L690
	.p2align 4,,10
	.p2align 3
.L702:
	movq	0(%rbp), %rax
	movq	%rbp, %rdi
	call	*16(%rax)
	movl	$-1, %eax
	lock xaddl	%eax, 12(%rbp)
	jmp	.L689
.L704:
	call	__stack_chk_fail@PLT
.L692:
	movq	%rax, %rbx
	movq	%rbp, %rdi
	call	_ZN7openpal6LoggerD1Ev@PLT
	movq	%rbx, %rdi
	call	_Unwind_Resume@PLT
.LEHE5:
	.cfi_endproc
.LFE3355:
	.section	.gcc_except_table
.LLSDA3355:
	.byte	0xff
	.byte	0xff
	.byte	0x1
	.uleb128 .LLSDACSE3355-.LLSDACSB3355
.LLSDACSB3355:
	.uleb128 .LEHB4-.LFB3355
	.uleb128 .LEHE4-.LEHB4
	.uleb128 .L692-.LFB3355
	.uleb128 0
	.uleb128 .LEHB5-.LFB3355
	.uleb128 .LEHE5-.LEHB5
	.uleb128 0
	.uleb128 0
.LLSDACSE3355:
	.text
	.size	_ZN8opendnp38MContext8TransmitERKN7openpal6RSliceE, .-_ZN8opendnp38MContext8TransmitERKN7openpal6RSliceE
	.align 2
	.p2align 4,,15
	.globl	_ZN8opendnp38MContext20CheckConfirmTransmitEv
	.type	_ZN8opendnp38MContext20CheckConfirmTransmitEv, @function
_ZN8opendnp38MContext20CheckConfirmTransmitEv:
.LFB3354:
	.cfi_startproc
	pushq	%r13
	.cfi_def_cfa_offset 16
	.cfi_offset 13, -16
	pushq	%r12
	.cfi_def_cfa_offset 24
	.cfi_offset 12, -24
	pushq	%rbp
	.cfi_def_cfa_offset 32
	.cfi_offset 6, -32
	pushq	%rbx
	.cfi_def_cfa_offset 40
	.cfi_offset 3, -40
	subq	$88, %rsp
	.cfi_def_cfa_offset 128
	movq	%fs:40, %rax
	movq	%rax, 72(%rsp)
	xorl	%eax, %eax
	movzbl	169(%rdi), %eax
	testb	%al, %al
	jne	.L710
	movq	424(%rdi), %rdx
	cmpq	%rdx, 456(%rdi)
	movq	%rdi, %rbx
	je	.L705
	movl	(%rdx), %eax
	movzbl	(%rdx), %r13d
	leaq	32(%rsp), %rbp
	leaq	488(%rdi), %rdi
	leaq	16(%rsp), %r12
	movl	%eax, 10(%rsp)
	movzwl	4(%rdx), %eax
	movw	%ax, 14(%rsp)
	call	_ZN7openpal6Buffer9GetWSliceEv@PLT
	movq	%r12, %rsi
	movq	%rbp, %rdi
	movq	%rdx, 24(%rsp)
	movl	%eax, 16(%rsp)
	call	_ZN8opendnp311APDUWrapperC1ERKN7openpal6WSliceE@PLT
	movl	%r13d, %esi
	movq	%rbp, %rdi
	call	_ZN8opendnp311APDUWrapper11SetFunctionENS_12FunctionCodeE@PLT
	movzbl	12(%rsp), %eax
	movzbl	11(%rsp), %esi
	movq	%rbp, %rdi
	salq	$8, %rax
	orq	%rax, %rsi
	movzbl	13(%rsp), %eax
	salq	$16, %rax
	orq	%rsi, %rax
	movzbl	14(%rsp), %esi
	salq	$24, %rsi
	orq	%rsi, %rax
	movzbl	15(%rsp), %esi
	salq	$32, %rsi
	orq	%rax, %rsi
	call	_ZN8opendnp311APDUWrapper10SetControlENS_15AppControlFieldE@PLT
	movq	%rbp, %rdi
	call	_ZNK8opendnp311APDUWrapper8ToRSliceEv@PLT
	movq	%r12, %rsi
	movq	%rbx, %rdi
	movl	%eax, 16(%rsp)
	movq	%rdx, 24(%rsp)
	call	_ZN8opendnp38MContext8TransmitERKN7openpal6RSliceE@PLT
	movq	440(%rbx), %rcx
	movq	424(%rbx), %rax
	leaq	-6(%rcx), %rdx
	cmpq	%rdx, %rax
	je	.L708
	addq	$6, %rax
	movq	%rax, 424(%rbx)
	movl	$1, %eax
.L705:
	movq	72(%rsp), %rcx
	xorq	%fs:40, %rcx
	jne	.L712
	addq	$88, %rsp
	.cfi_remember_state
	.cfi_def_cfa_offset 40
	popq	%rbx
	.cfi_def_cfa_offset 32
	popq	%rbp
	.cfi_def_cfa_offset 24
	popq	%r12
	.cfi_def_cfa_offset 16
	popq	%r13
	.cfi_def_cfa_offset 8
	ret
	.p2align 4,,10
	.p2align 3
.L710:
	.cfi_restore_state
	xorl	%eax, %eax
	jmp	.L705
	.p2align 4,,10
	.p2align 3
.L708:
	movq	432(%rbx), %rdi
	call	_ZdlPv@PLT
	movq	448(%rbx), %rax
	leaq	8(%rax), %rdx
	movq	8(%rax), %rax
	movq	%rdx, 448(%rbx)
	leaq	510(%rax), %rdx
	movq	%rax, 432(%rbx)
	movq	%rax, 424(%rbx)
	movl	$1, %eax
	movq	%rdx, 440(%rbx)
	jmp	.L705
.L712:
	call	__stack_chk_fail@PLT
	.cfi_endproc
.LFE3354:
	.size	_ZN8opendnp38MContext20CheckConfirmTransmitEv, .-_ZN8opendnp38MContext20CheckConfirmTransmitEv
	.align 2
	.p2align 4,,15
	.globl	_ZN8opendnp38MContext12QueueConfirmERKNS_10APDUHeaderE
	.type	_ZN8opendnp38MContext12QueueConfirmERKNS_10APDUHeaderE, @function
_ZN8opendnp38MContext12QueueConfirmERKNS_10APDUHeaderE:
.LFB3353:
	.cfi_startproc
	pushq	%r15
	.cfi_def_cfa_offset 16
	.cfi_offset 15, -16
	pushq	%r14
	.cfi_def_cfa_offset 24
	.cfi_offset 14, -24
	pushq	%r13
	.cfi_def_cfa_offset 32
	.cfi_offset 13, -32
	pushq	%r12
	.cfi_def_cfa_offset 40
	.cfi_offset 12, -40
	pushq	%rbp
	.cfi_def_cfa_offset 48
	.cfi_offset 6, -48
	pushq	%rbx
	.cfi_def_cfa_offset 56
	.cfi_offset 3, -56
	movq	%rsi, %rbp
	movq	%rdi, %rbx
	subq	$8, %rsp
	.cfi_def_cfa_offset 64
	movq	472(%rdi), %rcx
	movq	456(%rdi), %rax
	leaq	-6(%rcx), %rdx
	cmpq	%rdx, %rax
	je	.L714
	testq	%rax, %rax
	je	.L715
	movl	(%rsi), %edx
	movl	%edx, (%rax)
	movzwl	4(%rsi), %edx
	movw	%dx, 4(%rax)
.L715:
	addq	$6, %rax
	movq	%rax, 456(%rbx)
.L716:
	addq	$8, %rsp
	.cfi_remember_state
	.cfi_def_cfa_offset 56
	movq	%rbx, %rdi
	popq	%rbx
	.cfi_def_cfa_offset 48
	popq	%rbp
	.cfi_def_cfa_offset 40
	popq	%r12
	.cfi_def_cfa_offset 32
	popq	%r13
	.cfi_def_cfa_offset 24
	popq	%r14
	.cfi_def_cfa_offset 16
	popq	%r15
	.cfi_def_cfa_offset 8
	jmp	_ZN8opendnp38MContext20CheckConfirmTransmitEv@PLT
	.p2align 4,,10
	.p2align 3
.L714:
	.cfi_restore_state
	movq	480(%rdi), %r12
	movq	408(%rdi), %rcx
	movq	416(%rdi), %rdx
	movq	%r12, %rax
	subq	%rcx, %rax
	movq	%rdx, %rsi
	sarq	$3, %rax
	subq	%rax, %rsi
	cmpq	$1, %rsi
	jbe	.L732
.L717:
	movl	$510, %edi
	call	_Znwm@PLT
	movq	%rax, 8(%r12)
	movq	456(%rbx), %rax
	testq	%rax, %rax
	je	.L723
	movl	0(%rbp), %edx
	movl	%edx, (%rax)
	movzwl	4(%rbp), %edx
	movw	%dx, 4(%rax)
.L723:
	movq	480(%rbx), %rax
	leaq	8(%rax), %rdx
	movq	8(%rax), %rax
	movq	%rdx, 480(%rbx)
	leaq	510(%rax), %rdx
	movq	%rax, 464(%rbx)
	movq	%rax, 456(%rbx)
	movq	%rdx, 472(%rbx)
	jmp	.L716
	.p2align 4,,10
	.p2align 3
.L732:
	movq	448(%rdi), %rsi
	movq	%r12, %rax
	subq	%rsi, %rax
	sarq	$3, %rax
	leaq	2(%rax), %r14
	leaq	1(%rax), %r13
	leaq	(%r14,%r14), %rax
	cmpq	%rax, %rdx
	ja	.L733
	testq	%rdx, %rdx
	je	.L724
	leaq	2(%rdx,%rdx), %r12
	movabsq	$2305843009213693951, %rax
	cmpq	%rax, %r12
	ja	.L734
.L721:
	leaq	0(,%r12,8), %rdi
	call	_Znwm@PLT
	movq	%rax, %r15
	movq	%r12, %rax
	movq	448(%rbx), %rsi
	subq	%r14, %rax
	shrq	%rax
	leaq	(%r15,%rax,8), %r14
	movq	480(%rbx), %rax
	leaq	8(%rax), %rdx
	cmpq	%rsi, %rdx
	je	.L722
	subq	%rsi, %rdx
	movq	%r14, %rdi
	call	memmove@PLT
.L722:
	movq	408(%rbx), %rdi
	salq	$3, %r13
	call	_ZdlPv@PLT
	movq	%r15, 408(%rbx)
	movq	%r12, 416(%rbx)
.L720:
	movq	(%r14), %rax
	leaq	-8(%r14,%r13), %r12
	movq	%r14, 448(%rbx)
	movq	%r12, 480(%rbx)
	movq	%rax, 432(%rbx)
	addq	$510, %rax
	movq	%rax, 440(%rbx)
	movq	(%r12), %rax
	movq	%rax, 464(%rbx)
	addq	$510, %rax
	movq	%rax, 472(%rbx)
	jmp	.L717
	.p2align 4,,10
	.p2align 3
.L733:
	subq	%r14, %rdx
	addq	$8, %r12
	salq	$3, %r13
	shrq	%rdx
	leaq	(%rcx,%rdx,8), %r14
	movq	%r12, %rdx
	subq	%rsi, %rdx
	cmpq	%r14, %rsi
	jbe	.L719
	cmpq	%r12, %rsi
	je	.L720
	movq	%r14, %rdi
	call	memmove@PLT
	jmp	.L720
	.p2align 4,,10
	.p2align 3
.L724:
	movl	$3, %r12d
	jmp	.L721
	.p2align 4,,10
	.p2align 3
.L719:
	cmpq	%r12, %rsi
	je	.L720
	movq	%r13, %rdi
	subq	%rdx, %rdi
	addq	%r14, %rdi
	call	memmove@PLT
	jmp	.L720
.L734:
	call	_ZSt17__throw_bad_allocv@PLT
	.cfi_endproc
.LFE3353:
	.size	_ZN8opendnp38MContext12QueueConfirmERKNS_10APDUHeaderE, .-_ZN8opendnp38MContext12QueueConfirmERKNS_10APDUHeaderE
	.section	.rodata.str1.8,"aMS",@progbits,1
	.align 8
.LC0:
	.string	"Ignoring unsolicited response without UNS bit set"
	.align 8
.LC1:
	.string	"/home/raihan/OpenPLC_v3/utils/dnp3_src/cpp/libs/src/opendnp3/master/MasterContext.cpp(266)"
	.text
	.align 2
	.p2align 4,,15
	.globl	_ZN8opendnp38MContext26ProcessUnsolicitedResponseERKNS_18APDUResponseHeaderERKN7openpal6RSliceE
	.type	_ZN8opendnp38MContext26ProcessUnsolicitedResponseERKNS_18APDUResponseHeaderERKN7openpal6RSliceE, @function
_ZN8opendnp38MContext26ProcessUnsolicitedResponseERKNS_18APDUResponseHeaderERKN7openpal6RSliceE:
.LFB3351:
	.cfi_startproc
	pushq	%r12
	.cfi_def_cfa_offset 16
	.cfi_offset 12, -16
	pushq	%rbp
	.cfi_def_cfa_offset 24
	.cfi_offset 6, -24
	leaq	24(%rdi), %r12
	pushq	%rbx
	.cfi_def_cfa_offset 32
	.cfi_offset 3, -32
	movq	%rdi, %rbp
	subq	$16, %rsp
	.cfi_def_cfa_offset 48
	movq	%fs:40, %rax
	movq	%rax, 8(%rsp)
	xorl	%eax, %eax
	cmpb	$0, 4(%rsi)
	jne	.L736
	movq	%rsp, %rbx
	movq	%r12, %rdi
	movl	$4, (%rsp)
	movq	%rbx, %rsi
	call	_ZNK7openpal6Logger9IsEnabledERKNS_10LogFiltersE@PLT
	testb	%al, %al
	jne	.L744
.L735:
	movq	8(%rsp), %rax
	xorq	%fs:40, %rax
	jne	.L745
	addq	$16, %rsp
	.cfi_remember_state
	.cfi_def_cfa_offset 32
	popq	%rbx
	.cfi_def_cfa_offset 24
	popq	%rbp
	.cfi_def_cfa_offset 16
	popq	%r12
	.cfi_def_cfa_offset 8
	ret
	.p2align 4,,10
	.p2align 3
.L736:
	.cfi_restore_state
	movq	%rdx, %rdi
	movq	128(%rbp), %rdx
	movq	%rsi, %rbx
	movq	%r12, %rsi
	call	_ZN8opendnp318MeasurementHandler19ProcessMeasurementsERKN7openpal6RSliceERNS1_6LoggerEPNS_11ISOEHandlerE@PLT
	testb	%al, %al
	jne	.L738
	cmpb	$0, 3(%rbx)
	jne	.L746
.L738:
	leaq	6(%rbx), %rsi
	movq	%rbp, %rdi
	call	_ZN8opendnp38MContext10ProcessIINERKNS_8IINFieldE@PLT
	jmp	.L735
	.p2align 4,,10
	.p2align 3
.L744:
	leaq	.LC0(%rip), %rcx
	leaq	.LC1(%rip), %rdx
	movq	%rbx, %rsi
	movq	%r12, %rdi
	movl	$4, (%rsp)
	call	_ZN7openpal6Logger3LogERKNS_10LogFiltersEPKcS5_@PLT
	jmp	.L735
	.p2align 4,,10
	.p2align 3
.L746:
	movzbl	5(%rbx), %edi
	call	_ZN8opendnp310APDUHeader18UnsolicitedConfirmEh@PLT
	movzbl	%ah, %edx
	movb	%al, (%rsp)
	movq	%rsp, %rsi
	movb	%dl, 1(%rsp)
	movq	%rax, %rdx
	movq	%rbp, %rdi
	shrq	$16, %rdx
	movb	%dl, 2(%rsp)
	movq	%rax, %rdx
	shrq	$24, %rdx
	movb	%dl, 3(%rsp)
	movq	%rax, %rdx
	shrq	$40, %rax
	shrq	$32, %rdx
	movb	%al, 5(%rsp)
	movb	%dl, 4(%rsp)
	call	_ZN8opendnp38MContext12QueueConfirmERKNS_10APDUHeaderE@PLT
	jmp	.L738
.L745:
	call	__stack_chk_fail@PLT
	.cfi_endproc
.LFE3351:
	.size	_ZN8opendnp38MContext26ProcessUnsolicitedResponseERKNS_18APDUResponseHeaderERKN7openpal6RSliceE, .-_ZN8opendnp38MContext26ProcessUnsolicitedResponseERKNS_18APDUResponseHeaderERKN7openpal6RSliceE
	.align 2
	.p2align 4,,15
	.globl	_ZN8opendnp38MContext18StartResponseTimerEv
	.type	_ZN8opendnp38MContext18StartResponseTimerEv, @function
_ZN8opendnp38MContext18StartResponseTimerEv:
.LFB3356:
	.cfi_startproc
	.cfi_personality 0x9b,DW.ref.__gxx_personality_v0
	.cfi_lsda 0x1b,.LLSDA3356
	pushq	%rbp
	.cfi_def_cfa_offset 16
	.cfi_offset 6, -16
	pushq	%rbx
	.cfi_def_cfa_offset 24
	.cfi_offset 3, -24
	leaq	_ZNSt14_Function_base13_Base_managerIZN7openpal8TimerRef5StartIZN8opendnp38MContext18StartResponseTimerEvEUlvE_EEbRKNS1_12TimeDurationERKT_EUlvE_E10_M_managerERSt9_Any_dataRKSF_St18_Manager_operation(%rip), %rcx
	movq	%rdi, %rsi
	leaq	192(%rdi), %rdi
	subq	$72, %rsp
	.cfi_def_cfa_offset 96
	movq	%fs:40, %rax
	movq	%rax, 56(%rsp)
	xorl	%eax, %eax
	leaq	_ZNSt17_Function_handlerIFvvEZN7openpal8TimerRef5StartIZN8opendnp38MContext18StartResponseTimerEvEUlvE_EEbRKNS1_12TimeDurationERKT_EUlvE_E9_M_invokeERKSt9_Any_data(%rip), %rax
	movq	%rcx, 8(%rsp)
	leaq	16(%rsp), %rbx
	movq	8(%rsp), %xmm0
	movq	%rsi, 24(%rsp)
	movq	%rax, 8(%rsp)
	addq	$88, %rsi
	movq	%rbx, %rdx
	movhps	8(%rsp), %xmm0
	movq	%rdi, 16(%rsp)
	movaps	%xmm0, 32(%rsp)
.LEHB6:
	call	_ZN7openpal8TimerRef11StartActionERKNS_12TimeDurationERKSt8functionIFvvEE@PLT
.LEHE6:
	movq	32(%rsp), %rax
	testq	%rax, %rax
	je	.L747
	movl	$3, %edx
	movq	%rbx, %rsi
	movq	%rbx, %rdi
	call	*%rax
.L747:
	movq	56(%rsp), %rax
	xorq	%fs:40, %rax
	jne	.L760
	addq	$72, %rsp
	.cfi_remember_state
	.cfi_def_cfa_offset 24
	popq	%rbx
	.cfi_def_cfa_offset 16
	popq	%rbp
	.cfi_def_cfa_offset 8
	ret
.L760:
	.cfi_restore_state
	call	__stack_chk_fail@PLT
.L752:
	movq	%rax, %rbp
	movq	32(%rsp), %rax
	testq	%rax, %rax
	je	.L750
	movl	$3, %edx
	movq	%rbx, %rsi
	movq	%rbx, %rdi
	call	*%rax
.L750:
	movq	%rbp, %rdi
.LEHB7:
	call	_Unwind_Resume@PLT
.LEHE7:
	.cfi_endproc
.LFE3356:
	.section	.gcc_except_table
.LLSDA3356:
	.byte	0xff
	.byte	0xff
	.byte	0x1
	.uleb128 .LLSDACSE3356-.LLSDACSB3356
.LLSDACSB3356:
	.uleb128 .LEHB6-.LFB3356
	.uleb128 .LEHE6-.LEHB6
	.uleb128 .L752-.LFB3356
	.uleb128 0
	.uleb128 .LEHB7-.LFB3356
	.uleb128 .LEHE7-.LEHB7
	.uleb128 0
	.uleb128 0
.LLSDACSE3356:
	.text
	.size	_ZN8opendnp38MContext18StartResponseTimerEv, .-_ZN8opendnp38MContext18StartResponseTimerEv
	.align 2
	.p2align 4,,15
	.globl	_ZN8opendnp38MContext16PostCheckForTaskEv
	.type	_ZN8opendnp38MContext16PostCheckForTaskEv, @function
_ZN8opendnp38MContext16PostCheckForTaskEv:
.LFB3358:
	.cfi_startproc
	.cfi_personality 0x9b,DW.ref.__gxx_personality_v0
	.cfi_lsda 0x1b,.LLSDA3358
	pushq	%rbp
	.cfi_def_cfa_offset 16
	.cfi_offset 6, -16
	pushq	%rbx
	.cfi_def_cfa_offset 24
	.cfi_offset 3, -24
	leaq	_ZNSt14_Function_base13_Base_managerIZN8opendnp38MContext16PostCheckForTaskEvEUlvE_E10_M_managerERSt9_Any_dataRKS5_St18_Manager_operation(%rip), %rsi
	leaq	_ZNSt17_Function_handlerIFvvEZN8opendnp38MContext16PostCheckForTaskEvEUlvE_E9_M_invokeERKSt9_Any_data(%rip), %rcx
	subq	$72, %rsp
	.cfi_def_cfa_offset 96
	movq	%fs:40, %rax
	movq	%rax, 56(%rsp)
	xorl	%eax, %eax
	movq	56(%rdi), %rax
	movq	%rsi, 8(%rsp)
	leaq	16(%rsp), %rbx
	movq	8(%rsp), %xmm0
	movq	%rcx, 8(%rsp)
	movhps	8(%rsp), %xmm0
	movq	%rbx, %rsi
	movq	(%rax), %rdx
	movq	%rdi, 16(%rsp)
	movq	%rax, %rdi
	movaps	%xmm0, 32(%rsp)
	movq	40(%rdx), %rdx
.LEHB8:
	call	*%rdx
.LEHE8:
	movq	32(%rsp), %rax
	testq	%rax, %rax
	je	.L761
	movl	$3, %edx
	movq	%rbx, %rsi
	movq	%rbx, %rdi
	call	*%rax
.L761:
	movq	56(%rsp), %rax
	xorq	%fs:40, %rax
	jne	.L774
	addq	$72, %rsp
	.cfi_remember_state
	.cfi_def_cfa_offset 24
	popq	%rbx
	.cfi_def_cfa_offset 16
	popq	%rbp
	.cfi_def_cfa_offset 8
	ret
.L774:
	.cfi_restore_state
	call	__stack_chk_fail@PLT
.L766:
	movq	%rax, %rbp
	movq	32(%rsp), %rax
	testq	%rax, %rax
	je	.L764
	movl	$3, %edx
	movq	%rbx, %rsi
	movq	%rbx, %rdi
	call	*%rax
.L764:
	movq	%rbp, %rdi
.LEHB9:
	call	_Unwind_Resume@PLT
.LEHE9:
	.cfi_endproc
.LFE3358:
	.section	.gcc_except_table
.LLSDA3358:
	.byte	0xff
	.byte	0xff
	.byte	0x1
	.uleb128 .LLSDACSE3358-.LLSDACSB3358
.LLSDACSB3358:
	.uleb128 .LEHB8-.LFB3358
	.uleb128 .LEHE8-.LEHB8
	.uleb128 .L766-.LFB3358
	.uleb128 0
	.uleb128 .LEHB9-.LFB3358
	.uleb128 .LEHE9-.LEHB9
	.uleb128 0
	.uleb128 0
.LLSDACSE3358:
	.text
	.size	_ZN8opendnp38MContext16PostCheckForTaskEv, .-_ZN8opendnp38MContext16PostCheckForTaskEv
	.section	.text._ZN8opendnp38MContext13OnPendingTaskEv,"axG",@progbits,_ZN8opendnp38MContext13OnPendingTaskEv,comdat
	.align 2
	.p2align 4,,15
	.weak	_ZN8opendnp38MContext13OnPendingTaskEv
	.type	_ZN8opendnp38MContext13OnPendingTaskEv, @function
_ZN8opendnp38MContext13OnPendingTaskEv:
.LFB3046:
	.cfi_startproc
	jmp	_ZN8opendnp38MContext16PostCheckForTaskEv@PLT
	.cfi_endproc
.LFE3046:
	.size	_ZN8opendnp38MContext13OnPendingTaskEv, .-_ZN8opendnp38MContext13OnPendingTaskEv
	.text
	.align 2
	.p2align 4,,15
	.globl	_ZN8opendnp38MContext14OnLowerLayerUpEv
	.type	_ZN8opendnp38MContext14OnLowerLayerUpEv, @function
_ZN8opendnp38MContext14OnLowerLayerUpEv:
.LFB3338:
	.cfi_startproc
	xorl	%eax, %eax
	cmpb	$0, 168(%rdi)
	je	.L784
	rep ret
	.p2align 4,,10
	.p2align 3
.L784:
	pushq	%rbx
	.cfi_def_cfa_offset 16
	.cfi_offset 3, -16
	leaq	376(%rdi), %rsi
	movq	%rdi, %rbx
	leaq	240(%rdi), %rdi
	subq	$16, %rsp
	.cfi_def_cfa_offset 32
	movb	$1, -72(%rdi)
	call	_ZN8opendnp311MasterTasks10InitializeERNS_15MasterSchedulerE@PLT
	movq	%rbx, %rdi
	call	_ZN8opendnp38MContext16PostCheckForTaskEv@PLT
	movq	144(%rbx), %rdi
	movq	(%rdi), %rax
	movq	72(%rax), %rdx
	cmpq	_ZN8opendnp318IMasterApplication6OnOpenEv@GOTPCREL(%rip), %rdx
	movl	$1, %eax
	jne	.L785
.L776:
	addq	$16, %rsp
	.cfi_remember_state
	.cfi_def_cfa_offset 16
	popq	%rbx
	.cfi_def_cfa_offset 8
	ret
	.p2align 4,,10
	.p2align 3
.L785:
	.cfi_restore_state
	movb	%al, 15(%rsp)
	call	*%rdx
	movzbl	15(%rsp), %eax
	jmp	.L776
	.cfi_endproc
.LFE3338:
	.size	_ZN8opendnp38MContext14OnLowerLayerUpEv, .-_ZN8opendnp38MContext14OnLowerLayerUpEv
	.align 2
	.p2align 4,,15
	.globl	_ZN8opendnp38MContext18CompleteActiveTaskEv
	.type	_ZN8opendnp38MContext18CompleteActiveTaskEv, @function
_ZN8opendnp38MContext18CompleteActiveTaskEv:
.LFB3344:
	.cfi_startproc
	movq	176(%rdi), %rax
	testq	%rax, %rax
	je	.L786
	pushq	%rbp
	.cfi_def_cfa_offset 16
	.cfi_offset 6, -16
	pushq	%rbx
	.cfi_def_cfa_offset 24
	.cfi_offset 3, -24
	movq	%rdi, %rbx
	movq	%rax, %rdi
	subq	$8, %rsp
	.cfi_def_cfa_offset 32
	movq	(%rax), %rdx
	call	*48(%rdx)
	testb	%al, %al
	jne	.L800
	movq	184(%rbx), %rbp
	movq	$0, 176(%rbx)
	movq	$0, 184(%rbx)
	testq	%rbp, %rbp
	je	.L789
	cmpq	$0, _ZL28__gthrw___pthread_key_createPjPFvPvE@GOTPCREL(%rip)
	je	.L791
	lock subl	$1, 8(%rbp)
	jne	.L789
	movq	0(%rbp), %rax
	movq	%rbp, %rdi
	call	*16(%rax)
	movl	$-1, %eax
	lock xaddl	%eax, 12(%rbp)
.L796:
	cmpl	$1, %eax
	jne	.L789
	movq	0(%rbp), %rax
	movq	%rbp, %rdi
	call	*24(%rax)
	jmp	.L789
	.p2align 4,,10
	.p2align 3
.L800:
	leaq	176(%rbx), %rsi
	leaq	376(%rbx), %rdi
	call	_ZN8opendnp315MasterScheduler8ScheduleERKSt10shared_ptrINS_11IMasterTaskEE@PLT
.L789:
	movq	160(%rbx), %rdi
	movq	(%rdi), %rax
	movq	8(%rax), %rax
	cmpq	_ZN8opendnp312NullTaskLock7ReleaseERNS_17IScheduleCallbackE@GOTPCREL(%rip), %rax
	jne	.L801
	addq	$8, %rsp
	.cfi_def_cfa_offset 24
	movq	%rbx, %rdi
	popq	%rbx
	.cfi_restore 3
	.cfi_def_cfa_offset 16
	popq	%rbp
	.cfi_restore 6
	.cfi_def_cfa_offset 8
	jmp	_ZN8opendnp38MContext16PostCheckForTaskEv@PLT
	.p2align 4,,10
	.p2align 3
.L786:
	rep ret
	.p2align 4,,10
	.p2align 3
.L791:
	.cfi_def_cfa_offset 32
	.cfi_offset 3, -24
	.cfi_offset 6, -16
	movl	8(%rbp), %eax
	leal	-1(%rax), %edx
	cmpl	$1, %eax
	movl	%edx, 8(%rbp)
	jne	.L789
	movq	0(%rbp), %rax
	movq	%rbp, %rdi
	call	*16(%rax)
	movl	12(%rbp), %eax
	leal	-1(%rax), %edx
	movl	%edx, 12(%rbp)
	jmp	.L796
	.p2align 4,,10
	.p2align 3
.L801:
	leaq	8(%rbx), %rsi
	call	*%rax
	addq	$8, %rsp
	.cfi_def_cfa_offset 24
	movq	%rbx, %rdi
	popq	%rbx
	.cfi_restore 3
	.cfi_def_cfa_offset 16
	popq	%rbp
	.cfi_restore 6
	.cfi_def_cfa_offset 8
	jmp	_ZN8opendnp38MContext16PostCheckForTaskEv@PLT
	.cfi_endproc
.LFE3344:
	.size	_ZN8opendnp38MContext18CompleteActiveTaskEv, .-_ZN8opendnp38MContext18CompleteActiveTaskEv
	.section	.text._ZN8opendnp38MContext13OnPendingTaskEv,"axG",@progbits,_ZN8opendnp38MContext13OnPendingTaskEv,comdat
	.p2align 4,,15
	.weak	_ZThn8_N8opendnp38MContext13OnPendingTaskEv
	.type	_ZThn8_N8opendnp38MContext13OnPendingTaskEv, @function
_ZThn8_N8opendnp38MContext13OnPendingTaskEv:
.LFB5151:
	.cfi_startproc
	subq	$8, %rdi
	jmp	_ZN8opendnp38MContext16PostCheckForTaskEv@PLT
	.cfi_endproc
.LFE5151:
	.size	_ZThn8_N8opendnp38MContext13OnPendingTaskEv, .-_ZThn8_N8opendnp38MContext13OnPendingTaskEv
	.text
	.align 2
	.p2align 4,,15
	.globl	_ZN8opendnp38MContext25ScheduleRecurringPollTaskERKSt10shared_ptrINS_11IMasterTaskEE
	.type	_ZN8opendnp38MContext25ScheduleRecurringPollTaskERKSt10shared_ptrINS_11IMasterTaskEE, @function
_ZN8opendnp38MContext25ScheduleRecurringPollTaskERKSt10shared_ptrINS_11IMasterTaskEE:
.LFB3404:
	.cfi_startproc
	pushq	%rbp
	.cfi_def_cfa_offset 16
	.cfi_offset 6, -16
	pushq	%rbx
	.cfi_def_cfa_offset 24
	.cfi_offset 3, -24
	movq	%rdi, %rbx
	addq	$240, %rdi
	movq	%rsi, %rbp
	subq	$8, %rsp
	.cfi_def_cfa_offset 32
	call	_ZN8opendnp311MasterTasks8BindTaskERKSt10shared_ptrINS_11IMasterTaskEE@PLT
	cmpb	$0, 168(%rbx)
	jne	.L806
	addq	$8, %rsp
	.cfi_remember_state
	.cfi_def_cfa_offset 24
	popq	%rbx
	.cfi_def_cfa_offset 16
	popq	%rbp
	.cfi_def_cfa_offset 8
	ret
	.p2align 4,,10
	.p2align 3
.L806:
	.cfi_restore_state
	leaq	376(%rbx), %rdi
	movq	%rbp, %rsi
	call	_ZN8opendnp315MasterScheduler8ScheduleERKSt10shared_ptrINS_11IMasterTaskEE@PLT
	addq	$8, %rsp
	.cfi_def_cfa_offset 24
	movq	%rbx, %rdi
	popq	%rbx
	.cfi_def_cfa_offset 16
	popq	%rbp
	.cfi_def_cfa_offset 8
	jmp	_ZN8opendnp38MContext16PostCheckForTaskEv@PLT
	.cfi_endproc
.LFE3404:
	.size	_ZN8opendnp38MContext25ScheduleRecurringPollTaskERKSt10shared_ptrINS_11IMasterTaskEE, .-_ZN8opendnp38MContext25ScheduleRecurringPollTaskERKSt10shared_ptrINS_11IMasterTaskEE
	.align 2
	.p2align 4,,15
	.globl	_ZN8opendnp38MContext16ResumeActiveTaskEv
	.type	_ZN8opendnp38MContext16ResumeActiveTaskEv, @function
_ZN8opendnp38MContext16ResumeActiveTaskEv:
.LFB3410:
	.cfi_startproc
	pushq	%r12
	.cfi_def_cfa_offset 16
	.cfi_offset 12, -16
	pushq	%rbp
	.cfi_def_cfa_offset 24
	.cfi_offset 6, -24
	pushq	%rbx
	.cfi_def_cfa_offset 32
	.cfi_offset 3, -32
	movq	%rdi, %rbx
	subq	$64, %rsp
	.cfi_def_cfa_offset 96
	movq	160(%rdi), %rdi
	movq	%fs:40, %rax
	movq	%rax, 56(%rsp)
	xorl	%eax, %eax
	movq	(%rdi), %rax
	movq	(%rax), %rax
	cmpq	_ZN8opendnp312NullTaskLock7AcquireERNS_17IScheduleCallbackE@GOTPCREL(%rip), %rax
	jne	.L808
.L811:
	leaq	488(%rbx), %rdi
	leaq	16(%rsp), %rbp
	movq	%rsp, %r12
	call	_ZN7openpal6Buffer9GetWSliceEv@PLT
	movq	%r12, %rsi
	movq	%rbp, %rdi
	movl	%eax, (%rsp)
	movq	%rdx, 8(%rsp)
	call	_ZN8opendnp311APDURequestC1ERKN7openpal6WSliceE@PLT
	movq	176(%rbx), %rdi
	movzbl	170(%rbx), %edx
	movq	%rbp, %rsi
	movq	(%rdi), %rax
	call	*56(%rax)
	testb	%al, %al
	jne	.L818
	movq	56(%rbx), %rdi
	movq	176(%rbx), %rbp
	movq	(%rdi), %rax
	call	*16(%rax)
	movq	%rbp, %rdi
	movq	%rax, %rsi
	call	_ZN8opendnp311IMasterTask15OnInternalErrorEN7openpal18MonotonicTimestampE@PLT
	movq	%rbx, %rdi
	call	_ZN8opendnp38MContext18CompleteActiveTaskEv@PLT
	xorl	%eax, %eax
.L807:
	movq	56(%rsp), %rcx
	xorq	%fs:40, %rcx
	jne	.L819
	addq	$64, %rsp
	.cfi_remember_state
	.cfi_def_cfa_offset 32
	popq	%rbx
	.cfi_def_cfa_offset 24
	popq	%rbp
	.cfi_def_cfa_offset 16
	popq	%r12
	.cfi_def_cfa_offset 8
	ret
	.p2align 4,,10
	.p2align 3
.L808:
	.cfi_restore_state
	leaq	8(%rbx), %rsi
	call	*%rax
	testb	%al, %al
	jne	.L811
	movl	$1, %eax
	jmp	.L807
	.p2align 4,,10
	.p2align 3
.L818:
	movq	%rbx, %rdi
	call	_ZN8opendnp38MContext18StartResponseTimerEv@PLT
	movq	%rbp, %rdi
	call	_ZNK8opendnp311APDUWrapper8ToRSliceEv@PLT
	movl	%eax, (%rsp)
	movq	(%rbx), %rax
	movq	%rdx, 8(%rsp)
	movq	56(%rax), %rax
	cmpq	_ZN8opendnp38MContext17RecordLastRequestERKN7openpal6RSliceE@GOTPCREL(%rip), %rax
	jne	.L820
.L814:
	movq	%r12, %rsi
	movq	%rbx, %rdi
	call	_ZN8opendnp38MContext8TransmitERKN7openpal6RSliceE@PLT
	movl	$2, %eax
	jmp	.L807
	.p2align 4,,10
	.p2align 3
.L820:
	movq	%r12, %rsi
	movq	%rbx, %rdi
	call	*%rax
	jmp	.L814
.L819:
	call	__stack_chk_fail@PLT
	.cfi_endproc
.LFE3410:
	.size	_ZN8opendnp38MContext16ResumeActiveTaskEv, .-_ZN8opendnp38MContext16ResumeActiveTaskEv
	.section	.rodata.str1.1,"aMS",@progbits,1
.LC2:
	.string	"Begining task: %s"
	.section	.rodata.str1.8
	.align 8
.LC3:
	.string	"/home/raihan/OpenPLC_v3/utils/dnp3_src/cpp/libs/src/opendnp3/master/MasterContext.cpp(477)"
	.text
	.align 2
	.p2align 4,,15
	.globl	_ZN8opendnp38MContext12BeginNewTaskERKSt10shared_ptrINS_11IMasterTaskEE
	.type	_ZN8opendnp38MContext12BeginNewTaskERKSt10shared_ptrINS_11IMasterTaskEE, @function
_ZN8opendnp38MContext12BeginNewTaskERKSt10shared_ptrINS_11IMasterTaskEE:
.LFB3407:
	.cfi_startproc
	pushq	%r13
	.cfi_def_cfa_offset 16
	.cfi_offset 13, -16
	pushq	%r12
	.cfi_def_cfa_offset 24
	.cfi_offset 12, -24
	pushq	%rbp
	.cfi_def_cfa_offset 32
	.cfi_offset 6, -32
	pushq	%rbx
	.cfi_def_cfa_offset 40
	.cfi_offset 3, -40
	movq	%rdi, %rbx
	subq	$152, %rsp
	.cfi_def_cfa_offset 192
	movq	8(%rsi), %rbp
	movq	184(%rbx), %r12
	movq	(%rsi), %rdi
	movq	%fs:40, %rax
	movq	%rax, 136(%rsp)
	xorl	%eax, %eax
	cmpq	%r12, %rbp
	movq	%rdi, 176(%rbx)
	je	.L822
	testq	%rbp, %rbp
	je	.L823
	cmpq	$0, _ZL28__gthrw___pthread_key_createPjPFvPvE@GOTPCREL(%rip)
	je	.L824
	lock addl	$1, 8(%rbp)
	movq	184(%rbx), %r12
	testq	%r12, %r12
	leaq	8(%r12), %rax
	je	.L846
.L832:
	lock subl	$1, (%rax)
	je	.L828
.L846:
	movq	176(%rbx), %rdi
.L826:
	movq	%rbp, 184(%rbx)
.L822:
	leaq	24(%rbx), %rbp
	leaq	12(%rsp), %r12
	call	_ZN8opendnp311IMasterTask7OnStartEv@PLT
	movq	%r12, %rsi
	movq	%rbp, %rdi
	movl	$8, 12(%rsp)
	call	_ZNK7openpal6Logger9IsEnabledERKNS_10LogFiltersE@PLT
	testb	%al, %al
	je	.L831
	movq	176(%rbx), %rdi
	leaq	16(%rsp), %r13
	movq	(%rdi), %rax
	call	*24(%rax)
	leaq	.LC2(%rip), %r8
	movq	%rax, %r9
	movl	$120, %ecx
	movl	$1, %edx
	movl	$120, %esi
	movq	%r13, %rdi
	xorl	%eax, %eax
	call	__snprintf_chk@PLT
	leaq	.LC3(%rip), %rdx
	movq	%r13, %rcx
	movq	%r12, %rsi
	movq	%rbp, %rdi
	movl	$8, 12(%rsp)
	call	_ZN7openpal6Logger3LogERKNS_10LogFiltersEPKcS5_@PLT
.L831:
	movq	%rbx, %rdi
	call	_ZN8opendnp38MContext16ResumeActiveTaskEv@PLT
	movq	136(%rsp), %rcx
	xorq	%fs:40, %rcx
	jne	.L847
	addq	$152, %rsp
	.cfi_remember_state
	.cfi_def_cfa_offset 40
	popq	%rbx
	.cfi_def_cfa_offset 32
	popq	%rbp
	.cfi_def_cfa_offset 24
	popq	%r12
	.cfi_def_cfa_offset 16
	popq	%r13
	.cfi_def_cfa_offset 8
	ret
	.p2align 4,,10
	.p2align 3
.L824:
	.cfi_restore_state
	addl	$1, 8(%rbp)
	testq	%r12, %r12
	je	.L826
.L827:
	movl	8(%r12), %eax
	leal	-1(%rax), %edx
	cmpl	$1, %eax
	movl	%edx, 8(%r12)
	jne	.L826
	movq	(%r12), %rax
	movq	%r12, %rdi
	call	*16(%rax)
	movl	12(%r12), %eax
	leal	-1(%rax), %edx
	movl	%edx, 12(%r12)
.L833:
	cmpl	$1, %eax
	jne	.L846
	movq	(%r12), %rax
	movq	%r12, %rdi
	call	*24(%rax)
	jmp	.L846
	.p2align 4,,10
	.p2align 3
.L823:
	testq	%r12, %r12
	je	.L826
	cmpq	$0, _ZL28__gthrw___pthread_key_createPjPFvPvE@GOTPCREL(%rip)
	je	.L827
	leaq	8(%r12), %rax
	jmp	.L832
	.p2align 4,,10
	.p2align 3
.L828:
	movq	(%r12), %rax
	movq	%r12, %rdi
	call	*16(%rax)
	movl	$-1, %eax
	lock xaddl	%eax, 12(%r12)
	jmp	.L833
.L847:
	call	__stack_chk_fail@PLT
	.cfi_endproc
.LFE3407:
	.size	_ZN8opendnp38MContext12BeginNewTaskERKSt10shared_ptrINS_11IMasterTaskEE, .-_ZN8opendnp38MContext12BeginNewTaskERKSt10shared_ptrINS_11IMasterTaskEE
	.align 2
	.p2align 4,,15
	.globl	_ZN8opendnp38MContext19StartTask_TaskReadyEv
	.type	_ZN8opendnp38MContext19StartTask_TaskReadyEv, @function
_ZN8opendnp38MContext19StartTask_TaskReadyEv:
.LFB3416:
	.cfi_startproc
	cmpb	$0, 169(%rdi)
	je	.L850
	movl	$1, %eax
	ret
	.p2align 4,,10
	.p2align 3
.L850:
	jmp	_ZN8opendnp38MContext16ResumeActiveTaskEv@PLT
	.cfi_endproc
.LFE3416:
	.size	_ZN8opendnp38MContext19StartTask_TaskReadyEv, .-_ZN8opendnp38MContext19StartTask_TaskReadyEv
	.section	.rodata.str1.8
	.align 8
.LC4:
	.string	"Response with bad sequence: %u"
	.align 8
.LC5:
	.string	"/home/raihan/OpenPLC_v3/utils/dnp3_src/cpp/libs/src/opendnp3/master/MasterContext.cpp(589)"
	.text
	.align 2
	.p2align 4,,15
	.globl	_ZN8opendnp38MContext26OnResponse_WaitForResponseERKNS_18APDUResponseHeaderERKN7openpal6RSliceE
	.type	_ZN8opendnp38MContext26OnResponse_WaitForResponseERKNS_18APDUResponseHeaderERKN7openpal6RSliceE, @function
_ZN8opendnp38MContext26OnResponse_WaitForResponseERKNS_18APDUResponseHeaderERKN7openpal6RSliceE:
.LFB3417:
	.cfi_startproc
	pushq	%r14
	.cfi_def_cfa_offset 16
	.cfi_offset 14, -16
	pushq	%r13
	.cfi_def_cfa_offset 24
	.cfi_offset 13, -24
	pushq	%r12
	.cfi_def_cfa_offset 32
	.cfi_offset 12, -32
	pushq	%rbp
	.cfi_def_cfa_offset 40
	.cfi_offset 6, -40
	movq	%rsi, %r12
	pushq	%rbx
	.cfi_def_cfa_offset 48
	.cfi_offset 3, -48
	movq	%rdi, %rbx
	subq	$160, %rsp
	.cfi_def_cfa_offset 208
	movq	%fs:40, %rax
	movq	%rax, 152(%rsp)
	xorl	%eax, %eax
	movzbl	170(%rdi), %eax
	cmpb	%al, 5(%rsi)
	je	.L852
	leaq	24(%rsp), %r13
	addq	$24, %rbx
	movl	$4, 24(%rsp)
	movq	%rbx, %rdi
	movl	$2, %ebp
	movq	%r13, %rsi
	call	_ZNK7openpal6Logger9IsEnabledERKNS_10LogFiltersE@PLT
	testb	%al, %al
	jne	.L864
.L851:
	movq	152(%rsp), %rcx
	xorq	%fs:40, %rcx
	movl	%ebp, %eax
	jne	.L865
	addq	$160, %rsp
	.cfi_remember_state
	.cfi_def_cfa_offset 48
	popq	%rbx
	.cfi_def_cfa_offset 40
	popq	%rbp
	.cfi_def_cfa_offset 32
	popq	%r12
	.cfi_def_cfa_offset 24
	popq	%r13
	.cfi_def_cfa_offset 16
	popq	%r14
	.cfi_def_cfa_offset 8
	ret
	.p2align 4,,10
	.p2align 3
.L864:
	.cfi_restore_state
	movzbl	5(%r12), %r9d
	leaq	32(%rsp), %r14
	leaq	.LC4(%rip), %r8
	movl	$120, %ecx
	movl	$1, %edx
	movl	$120, %esi
	movq	%r14, %rdi
	xorl	%eax, %eax
	call	__snprintf_chk@PLT
	leaq	.LC5(%rip), %rdx
	movq	%r14, %rcx
	movq	%r13, %rsi
	movq	%rbx, %rdi
	movl	$4, 24(%rsp)
	call	_ZN7openpal6Logger3LogERKNS_10LogFiltersEPKcS5_@PLT
	jmp	.L851
	.p2align 4,,10
	.p2align 3
.L852:
	leaq	192(%rdi), %rdi
	movq	%rdx, 8(%rsp)
	call	_ZN7openpal8TimerRef6CancelEv@PLT
	movzbl	170(%rbx), %eax
	movq	56(%rbx), %rdi
	addl	$1, %eax
	andl	$15, %eax
	movb	%al, 170(%rbx)
	movq	(%rdi), %rax
	call	*16(%rax)
	movq	176(%rbx), %rdi
	movq	8(%rsp), %rdx
	movq	%rax, %rcx
	movq	%r12, %rsi
	call	_ZN8opendnp311IMasterTask10OnResponseERKNS_18APDUResponseHeaderERKN7openpal6RSliceENS4_18MonotonicTimestampE@PLT
	cmpb	$0, 3(%r12)
	movl	%eax, %ebp
	jne	.L866
.L854:
	cmpb	$3, %bpl
	movq	%rbx, %rdi
	je	.L856
	cmpb	$4, %bpl
	jne	.L862
	call	_ZN8opendnp38MContext18StartResponseTimerEv@PLT
	movl	$2, %ebp
	jmp	.L851
	.p2align 4,,10
	.p2align 3
.L862:
	call	_ZN8opendnp38MContext18CompleteActiveTaskEv@PLT
	xorl	%ebp, %ebp
	jmp	.L851
	.p2align 4,,10
	.p2align 3
.L856:
	call	_ZN8opendnp38MContext19StartTask_TaskReadyEv@PLT
	movl	%eax, %ebp
	jmp	.L851
	.p2align 4,,10
	.p2align 3
.L866:
	movzbl	5(%r12), %edi
	call	_ZN8opendnp310APDUHeader16SolicitedConfirmEh@PLT
	movzbl	%ah, %edx
	leaq	24(%rsp), %rsi
	movb	%al, 24(%rsp)
	movb	%dl, 25(%rsp)
	movq	%rax, %rdx
	movq	%rbx, %rdi
	shrq	$16, %rdx
	movb	%dl, 26(%rsp)
	movq	%rax, %rdx
	shrq	$24, %rdx
	movb	%dl, 27(%rsp)
	movq	%rax, %rdx
	shrq	$40, %rax
	shrq	$32, %rdx
	movb	%al, 29(%rsp)
	movb	%dl, 28(%rsp)
	call	_ZN8opendnp38MContext12QueueConfirmERKNS_10APDUHeaderE@PLT
	jmp	.L854
.L865:
	call	__stack_chk_fail@PLT
	.cfi_endproc
.LFE3417:
	.size	_ZN8opendnp38MContext26OnResponse_WaitForResponseERKNS_18APDUResponseHeaderERKN7openpal6RSliceE, .-_ZN8opendnp38MContext26OnResponse_WaitForResponseERKNS_18APDUResponseHeaderERKN7openpal6RSliceE
	.section	.rodata.str1.8
	.align 8
.LC6:
	.string	"Not expecting a response, sequence: %u"
	.align 8
.LC7:
	.string	"/home/raihan/OpenPLC_v3/utils/dnp3_src/cpp/libs/src/opendnp3/master/MasterContext.cpp(515)"
	.text
	.align 2
	.p2align 4,,15
	.globl	_ZN8opendnp38MContext15OnResponseEventERKNS_18APDUResponseHeaderERKN7openpal6RSliceE
	.type	_ZN8opendnp38MContext15OnResponseEventERKNS_18APDUResponseHeaderERKN7openpal6RSliceE, @function
_ZN8opendnp38MContext15OnResponseEventERKNS_18APDUResponseHeaderERKN7openpal6RSliceE:
.LFB3411:
	.cfi_startproc
	pushq	%r14
	.cfi_def_cfa_offset 16
	.cfi_offset 14, -16
	pushq	%r13
	.cfi_def_cfa_offset 24
	.cfi_offset 13, -24
	pushq	%r12
	.cfi_def_cfa_offset 32
	.cfi_offset 12, -32
	pushq	%rbp
	.cfi_def_cfa_offset 40
	.cfi_offset 6, -40
	movq	%rsi, %rbp
	pushq	%rbx
	.cfi_def_cfa_offset 48
	.cfi_offset 3, -48
	movq	%rdi, %rbx
	subq	$144, %rsp
	.cfi_def_cfa_offset 192
	movq	%fs:40, %rax
	movq	%rax, 136(%rsp)
	xorl	%eax, %eax
	cmpl	$2, 512(%rdi)
	je	.L878
	leaq	24(%rdi), %r12
	leaq	12(%rsp), %r13
	movl	$4, 12(%rsp)
	movq	%r13, %rsi
	movq	%r12, %rdi
	call	_ZNK7openpal6Logger9IsEnabledERKNS_10LogFiltersE@PLT
	testb	%al, %al
	jne	.L879
.L871:
	movl	512(%rbx), %eax
.L867:
	movq	136(%rsp), %rcx
	xorq	%fs:40, %rcx
	jne	.L880
	addq	$144, %rsp
	.cfi_remember_state
	.cfi_def_cfa_offset 48
	popq	%rbx
	.cfi_def_cfa_offset 40
	popq	%rbp
	.cfi_def_cfa_offset 32
	popq	%r12
	.cfi_def_cfa_offset 24
	popq	%r13
	.cfi_def_cfa_offset 16
	popq	%r14
	.cfi_def_cfa_offset 8
	ret
	.p2align 4,,10
	.p2align 3
.L878:
	.cfi_restore_state
	call	_ZN8opendnp38MContext26OnResponse_WaitForResponseERKNS_18APDUResponseHeaderERKN7openpal6RSliceE@PLT
	jmp	.L867
	.p2align 4,,10
	.p2align 3
.L879:
	movzbl	5(%rbp), %r9d
	leaq	16(%rsp), %r14
	leaq	.LC6(%rip), %r8
	movl	$120, %ecx
	movl	$1, %edx
	movl	$120, %esi
	movq	%r14, %rdi
	xorl	%eax, %eax
	call	__snprintf_chk@PLT
	leaq	.LC7(%rip), %rdx
	movq	%r14, %rcx
	movq	%r13, %rsi
	movq	%r12, %rdi
	movl	$4, 12(%rsp)
	call	_ZN7openpal6Logger3LogERKNS_10LogFiltersEPKcS5_@PLT
	jmp	.L871
.L880:
	call	__stack_chk_fail@PLT
	.cfi_endproc
.LFE3411:
	.size	_ZN8opendnp38MContext15OnResponseEventERKNS_18APDUResponseHeaderERKN7openpal6RSliceE, .-_ZN8opendnp38MContext15OnResponseEventERKNS_18APDUResponseHeaderERKN7openpal6RSliceE
	.align 2
	.p2align 4,,15
	.globl	_ZN8opendnp38MContext15ProcessResponseERKNS_18APDUResponseHeaderERKN7openpal6RSliceE
	.type	_ZN8opendnp38MContext15ProcessResponseERKNS_18APDUResponseHeaderERKN7openpal6RSliceE, @function
_ZN8opendnp38MContext15ProcessResponseERKNS_18APDUResponseHeaderERKN7openpal6RSliceE:
.LFB3352:
	.cfi_startproc
	pushq	%rbp
	.cfi_def_cfa_offset 16
	.cfi_offset 6, -16
	pushq	%rbx
	.cfi_def_cfa_offset 24
	.cfi_offset 3, -24
	movq	%rdi, %rbp
	movq	%rsi, %rbx
	subq	$8, %rsp
	.cfi_def_cfa_offset 32
	call	_ZN8opendnp38MContext15OnResponseEventERKNS_18APDUResponseHeaderERKN7openpal6RSliceE@PLT
	movl	%eax, 512(%rbp)
	addq	$8, %rsp
	.cfi_def_cfa_offset 24
	leaq	6(%rbx), %rsi
	movq	%rbp, %rdi
	popq	%rbx
	.cfi_def_cfa_offset 16
	popq	%rbp
	.cfi_def_cfa_offset 8
	jmp	_ZN8opendnp38MContext10ProcessIINERKNS_8IINFieldE@PLT
	.cfi_endproc
.LFE3352:
	.size	_ZN8opendnp38MContext15ProcessResponseERKNS_18APDUResponseHeaderERKN7openpal6RSliceE, .-_ZN8opendnp38MContext15ProcessResponseERKNS_18APDUResponseHeaderERKN7openpal6RSliceE
	.section	.rodata.str1.8
	.align 8
.LC8:
	.string	"Ignoring unsupported function code: %s"
	.align 8
.LC9:
	.string	"/home/raihan/OpenPLC_v3/utils/dnp3_src/cpp/libs/src/opendnp3/master/MasterContext.cpp(220)"
	.text
	.align 2
	.p2align 4,,15
	.globl	_ZN8opendnp38MContext11ProcessAPDUERKNS_18APDUResponseHeaderERKN7openpal6RSliceE
	.type	_ZN8opendnp38MContext11ProcessAPDUERKNS_18APDUResponseHeaderERKN7openpal6RSliceE, @function
_ZN8opendnp38MContext11ProcessAPDUERKNS_18APDUResponseHeaderERKN7openpal6RSliceE:
.LFB3349:
	.cfi_startproc
	pushq	%r12
	.cfi_def_cfa_offset 16
	.cfi_offset 12, -16
	pushq	%rbp
	.cfi_def_cfa_offset 24
	.cfi_offset 6, -24
	pushq	%rbx
	.cfi_def_cfa_offset 32
	.cfi_offset 3, -32
	movq	%rsi, %rbx
	subq	$144, %rsp
	.cfi_def_cfa_offset 176
	movq	%fs:40, %rax
	movq	%rax, 136(%rsp)
	xorl	%eax, %eax
	movzbl	(%rsi), %eax
	cmpb	$-127, %al
	je	.L885
	cmpb	$-126, %al
	je	.L894
	leaq	24(%rdi), %rbp
	leaq	12(%rsp), %r12
	movl	$4, 12(%rsp)
	movq	%r12, %rsi
	movq	%rbp, %rdi
	call	_ZNK7openpal6Logger9IsEnabledERKNS_10LogFiltersE@PLT
	testb	%al, %al
	je	.L883
	movzbl	(%rbx), %edi
	leaq	16(%rsp), %rbx
	call	_ZN8opendnp320FunctionCodeToStringENS_12FunctionCodeE@PLT
	leaq	.LC8(%rip), %r8
	movq	%rax, %r9
	movl	$120, %ecx
	movl	$1, %edx
	movl	$120, %esi
	movq	%rbx, %rdi
	xorl	%eax, %eax
	call	__snprintf_chk@PLT
	leaq	.LC9(%rip), %rdx
	movq	%rbx, %rcx
	movq	%r12, %rsi
	movq	%rbp, %rdi
	movl	$4, 12(%rsp)
	call	_ZN7openpal6Logger3LogERKNS_10LogFiltersEPKcS5_@PLT
	.p2align 4,,10
	.p2align 3
.L883:
	movq	136(%rsp), %rax
	xorq	%fs:40, %rax
	jne	.L895
	addq	$144, %rsp
	.cfi_remember_state
	.cfi_def_cfa_offset 32
	popq	%rbx
	.cfi_def_cfa_offset 24
	popq	%rbp
	.cfi_def_cfa_offset 16
	popq	%r12
	.cfi_def_cfa_offset 8
	ret
	.p2align 4,,10
	.p2align 3
.L894:
	.cfi_restore_state
	call	_ZN8opendnp38MContext26ProcessUnsolicitedResponseERKNS_18APDUResponseHeaderERKN7openpal6RSliceE@PLT
	jmp	.L883
	.p2align 4,,10
	.p2align 3
.L885:
	call	_ZN8opendnp38MContext15ProcessResponseERKNS_18APDUResponseHeaderERKN7openpal6RSliceE@PLT
	jmp	.L883
.L895:
	call	__stack_chk_fail@PLT
	.cfi_endproc
.LFE3349:
	.size	_ZN8opendnp38MContext11ProcessAPDUERKNS_18APDUResponseHeaderERKN7openpal6RSliceE, .-_ZN8opendnp38MContext11ProcessAPDUERKNS_18APDUResponseHeaderERKN7openpal6RSliceE
	.align 2
	.p2align 4,,15
	.globl	_ZN8opendnp38MContext14OnParsedHeaderERKN7openpal6RSliceERKNS_18APDUResponseHeaderES4_
	.type	_ZN8opendnp38MContext14OnParsedHeaderERKN7openpal6RSliceERKNS_18APDUResponseHeaderES4_, @function
_ZN8opendnp38MContext14OnParsedHeaderERKN7openpal6RSliceERKNS_18APDUResponseHeaderES4_:
.LFB3345:
	.cfi_startproc
	movq	%rdx, %rsi
	movq	%rcx, %rdx
	jmp	_ZN8opendnp38MContext11ProcessAPDUERKNS_18APDUResponseHeaderERKN7openpal6RSliceE@PLT
	.cfi_endproc
.LFE3345:
	.size	_ZN8opendnp38MContext14OnParsedHeaderERKN7openpal6RSliceERKNS_18APDUResponseHeaderES4_, .-_ZN8opendnp38MContext14OnParsedHeaderERKN7openpal6RSliceERKNS_18APDUResponseHeaderES4_
	.set	_ZN8opendnp38MContext14OnParsedHeaderERKN7openpal6RSliceERKNS_18APDUResponseHeaderES4_.localalias.178,_ZN8opendnp38MContext14OnParsedHeaderERKN7openpal6RSliceERKNS_18APDUResponseHeaderES4_
	.section	.rodata.str1.8
	.align 8
.LC10:
	.string	"Ignorning rx data while offline"
	.align 8
.LC11:
	.string	"/home/raihan/OpenPLC_v3/utils/dnp3_src/cpp/libs/src/opendnp3/master/MasterContext.cpp(118)"
	.align 8
.LC12:
	.string	"FIR: %i FIN: %i CON: %i UNS: %i SEQ: %i FUNC: %s IIN: [0x%02x, 0x%02x]"
	.align 8
.LC13:
	.string	"/home/raihan/OpenPLC_v3/utils/dnp3_src/cpp/libs/src/opendnp3/master/MasterContext.cpp(138)"
	.text
	.align 2
	.p2align 4,,15
	.globl	_ZN8opendnp38MContext9OnReceiveERKN7openpal6RSliceE
	.type	_ZN8opendnp38MContext9OnReceiveERKN7openpal6RSliceE, @function
_ZN8opendnp38MContext9OnReceiveERKN7openpal6RSliceE:
.LFB3340:
	.cfi_startproc
	pushq	%r15
	.cfi_def_cfa_offset 16
	.cfi_offset 15, -16
	pushq	%r14
	.cfi_def_cfa_offset 24
	.cfi_offset 14, -24
	pushq	%r13
	.cfi_def_cfa_offset 32
	.cfi_offset 13, -32
	pushq	%r12
	.cfi_def_cfa_offset 40
	.cfi_offset 12, -40
	leaq	24(%rdi), %r12
	pushq	%rbp
	.cfi_def_cfa_offset 48
	.cfi_offset 6, -48
	pushq	%rbx
	.cfi_def_cfa_offset 56
	.cfi_offset 3, -56
	subq	$184, %rsp
	.cfi_def_cfa_offset 240
	movzbl	168(%rdi), %ebx
	movq	%fs:40, %rax
	movq	%rax, 168(%rsp)
	xorl	%eax, %eax
	testb	%bl, %bl
	jne	.L898
	leaq	32(%rsp), %rbx
	movq	%r12, %rdi
	movl	$2, 32(%rsp)
	movq	%rbx, %rsi
	call	_ZNK7openpal6Logger9IsEnabledERKNS_10LogFiltersE@PLT
	testb	%al, %al
	jne	.L915
.L897:
	movq	168(%rsp), %rcx
	xorq	%fs:40, %rcx
	jne	.L916
	addq	$184, %rsp
	.cfi_remember_state
	.cfi_def_cfa_offset 56
	popq	%rbx
	.cfi_def_cfa_offset 48
	popq	%rbp
	.cfi_def_cfa_offset 40
	popq	%r12
	.cfi_def_cfa_offset 32
	popq	%r13
	.cfi_def_cfa_offset 24
	popq	%r14
	.cfi_def_cfa_offset 16
	popq	%r15
	.cfi_def_cfa_offset 8
	ret
	.p2align 4,,10
	.p2align 3
.L898:
	.cfi_restore_state
	leaq	24(%rsp), %r14
	movq	%rdi, %rbp
	xorl	%r9d, %r9d
	xorl	%r8d, %r8d
	xorl	%ecx, %ecx
	movq	%rsi, %r13
	leaq	1(%r14), %rdi
	movl	$1, %edx
	movl	$1, %esi
	movb	$-1, 24(%rsp)
	call	_ZN8opendnp315AppControlFieldC1Ebbbbh@PLT
	xorl	%eax, %eax
	movq	%r12, %rdx
	movq	%r14, %rsi
	movq	%r13, %rdi
	movw	%ax, 30(%rsp)
	call	_ZN8opendnp316APDUHeaderParser13ParseResponseERKN7openpal6RSliceERNS_18APDUResponseHeaderEPNS1_6LoggerE@PLT
	testb	%al, %al
	jne	.L917
	movl	%ebx, %eax
	jmp	.L897
	.p2align 4,,10
	.p2align 3
.L917:
	leaq	32(%rsp), %r15
	movq	%r12, %rdi
	movl	$2048, 32(%rsp)
	movq	%r15, %rsi
	call	_ZNK7openpal6Logger9IsEnabledERKNS_10LogFiltersE@PLT
	testb	%al, %al
	jne	.L918
.L901:
	movq	0(%rbp), %rax
	movl	$4, %esi
	movq	%r13, %rdi
	movq	48(%rax), %r12
	call	_ZNK7openpal6RSlice4SkipEj@PLT
	movl	%eax, 32(%rsp)
	leaq	_ZN8opendnp38MContext14OnParsedHeaderERKN7openpal6RSliceERKNS_18APDUResponseHeaderES4_.localalias.178(%rip), %rax
	movq	%rdx, 40(%rsp)
	cmpq	%rax, %r12
	jne	.L902
	movq	%r15, %rdx
	movq	%r14, %rsi
	movq	%rbp, %rdi
	call	_ZN8opendnp38MContext11ProcessAPDUERKNS_18APDUResponseHeaderERKN7openpal6RSliceE@PLT
	movl	%ebx, %eax
	jmp	.L897
	.p2align 4,,10
	.p2align 3
.L915:
	leaq	.LC10(%rip), %rcx
	leaq	.LC11(%rip), %rdx
	movq	%rbx, %rsi
	movq	%r12, %rdi
	movl	$2, 32(%rsp)
	call	_ZN7openpal6Logger3LogERKNS_10LogFiltersEPKcS5_@PLT
	xorl	%eax, %eax
	jmp	.L897
	.p2align 4,,10
	.p2align 3
.L918:
	movzbl	31(%rsp), %ecx
	movzbl	30(%rsp), %edx
	movzbl	24(%rsp), %edi
	movl	%ecx, 12(%rsp)
	movl	%edx, (%rsp)
	call	_ZN8opendnp320FunctionCodeToStringENS_12FunctionCodeE@PLT
	leaq	48(%rsp), %r10
	subq	$8, %rsp
	.cfi_def_cfa_offset 248
	leaq	.LC12(%rip), %r8
	movl	20(%rsp), %ecx
	movl	$120, %esi
	movq	%r10, %rdi
	pushq	%rcx
	.cfi_def_cfa_offset 256
	movl	16(%rsp), %edx
	movl	$120, %ecx
	pushq	%rdx
	.cfi_def_cfa_offset 264
	pushq	%rax
	.cfi_def_cfa_offset 272
	movl	$1, %edx
	movzbl	61(%rsp), %eax
	pushq	%rax
	.cfi_def_cfa_offset 280
	movzbl	68(%rsp), %eax
	pushq	%rax
	.cfi_def_cfa_offset 288
	movzbl	75(%rsp), %eax
	pushq	%rax
	.cfi_def_cfa_offset 296
	movzbl	82(%rsp), %eax
	pushq	%rax
	.cfi_def_cfa_offset 304
	movzbl	89(%rsp), %r9d
	xorl	%eax, %eax
	movq	%r10, 64(%rsp)
	call	__snprintf_chk@PLT
	movl	$2048, 96(%rsp)
	addq	$64, %rsp
	.cfi_def_cfa_offset 240
	movq	(%rsp), %r10
	leaq	.LC13(%rip), %rdx
	movq	%r15, %rsi
	movq	%r12, %rdi
	movq	%r10, %rcx
	call	_ZN7openpal6Logger3LogERKNS_10LogFiltersEPKcS5_@PLT
	jmp	.L901
	.p2align 4,,10
	.p2align 3
.L902:
	movq	%r15, %rcx
	movq	%r14, %rdx
	movq	%r13, %rsi
	movq	%rbp, %rdi
	call	*%r12
	movl	%ebx, %eax
	jmp	.L897
.L916:
	call	__stack_chk_fail@PLT
	.cfi_endproc
.LFE3340:
	.size	_ZN8opendnp38MContext9OnReceiveERKN7openpal6RSliceE, .-_ZN8opendnp38MContext9OnReceiveERKN7openpal6RSliceE
	.align 2
	.p2align 4,,15
	.globl	_ZN8opendnp38MContext33OnResponseTimeout_WaitForResponseEv
	.type	_ZN8opendnp38MContext33OnResponseTimeout_WaitForResponseEv, @function
_ZN8opendnp38MContext33OnResponseTimeout_WaitForResponseEv:
.LFB3418:
	.cfi_startproc
	pushq	%rbx
	.cfi_def_cfa_offset 16
	.cfi_offset 3, -16
	movq	%rdi, %rbx
	movq	56(%rdi), %rdi
	movq	(%rdi), %rax
	call	*16(%rax)
	movq	176(%rbx), %rdi
	movq	%rax, %rsi
	call	_ZN8opendnp311IMasterTask17OnResponseTimeoutEN7openpal18MonotonicTimestampE@PLT
	movzbl	170(%rbx), %eax
	movq	%rbx, %rdi
	addl	$1, %eax
	andl	$15, %eax
	movb	%al, 170(%rbx)
	call	_ZN8opendnp38MContext18CompleteActiveTaskEv@PLT
	xorl	%eax, %eax
	popq	%rbx
	.cfi_def_cfa_offset 8
	ret
	.cfi_endproc
.LFE3418:
	.size	_ZN8opendnp38MContext33OnResponseTimeout_WaitForResponseEv, .-_ZN8opendnp38MContext33OnResponseTimeout_WaitForResponseEv
	.section	.rodata.str1.1
.LC14:
	.string	"Unexpected response timeout"
	.section	.rodata.str1.8
	.align 8
.LC15:
	.string	"/home/raihan/OpenPLC_v3/utils/dnp3_src/cpp/libs/src/opendnp3/master/MasterContext.cpp(540)"
	.text
	.align 2
	.p2align 4,,15
	.globl	_ZN8opendnp38MContext22OnResponseTimeoutEventEv
	.type	_ZN8opendnp38MContext22OnResponseTimeoutEventEv, @function
_ZN8opendnp38MContext22OnResponseTimeoutEventEv:
.LFB3413:
	.cfi_startproc
	pushq	%r12
	.cfi_def_cfa_offset 16
	.cfi_offset 12, -16
	pushq	%rbp
	.cfi_def_cfa_offset 24
	.cfi_offset 6, -24
	pushq	%rbx
	.cfi_def_cfa_offset 32
	.cfi_offset 3, -32
	movq	%rdi, %rbx
	subq	$16, %rsp
	.cfi_def_cfa_offset 48
	movq	%fs:40, %rax
	movq	%rax, 8(%rsp)
	xorl	%eax, %eax
	cmpl	$2, 512(%rdi)
	je	.L932
	leaq	24(%rdi), %rbp
	leaq	4(%rsp), %r12
	movl	$2, 4(%rsp)
	movq	%r12, %rsi
	movq	%rbp, %rdi
	call	_ZNK7openpal6Logger9IsEnabledERKNS_10LogFiltersE@PLT
	testb	%al, %al
	jne	.L933
.L925:
	movl	512(%rbx), %eax
.L921:
	movq	8(%rsp), %rdx
	xorq	%fs:40, %rdx
	jne	.L934
	addq	$16, %rsp
	.cfi_remember_state
	.cfi_def_cfa_offset 32
	popq	%rbx
	.cfi_def_cfa_offset 24
	popq	%rbp
	.cfi_def_cfa_offset 16
	popq	%r12
	.cfi_def_cfa_offset 8
	ret
	.p2align 4,,10
	.p2align 3
.L932:
	.cfi_restore_state
	call	_ZN8opendnp38MContext33OnResponseTimeout_WaitForResponseEv@PLT
	jmp	.L921
	.p2align 4,,10
	.p2align 3
.L933:
	leaq	.LC14(%rip), %rcx
	leaq	.LC15(%rip), %rdx
	movq	%r12, %rsi
	movq	%rbp, %rdi
	movl	$2, 4(%rsp)
	call	_ZN7openpal6Logger3LogERKNS_10LogFiltersEPKcS5_@PLT
	jmp	.L925
.L934:
	call	__stack_chk_fail@PLT
	.cfi_endproc
.LFE3413:
	.size	_ZN8opendnp38MContext22OnResponseTimeoutEventEv, .-_ZN8opendnp38MContext22OnResponseTimeoutEventEv
	.align 2
	.p2align 4,,15
	.globl	_ZN8opendnp38MContext17OnResponseTimeoutEv
	.type	_ZN8opendnp38MContext17OnResponseTimeoutEv, @function
_ZN8opendnp38MContext17OnResponseTimeoutEv:
.LFB3343:
	.cfi_startproc
	cmpb	$0, 168(%rdi)
	jne	.L941
	rep ret
	.p2align 4,,10
	.p2align 3
.L941:
	pushq	%rbx
	.cfi_def_cfa_offset 16
	.cfi_offset 3, -16
	movq	%rdi, %rbx
	call	_ZN8opendnp38MContext22OnResponseTimeoutEventEv@PLT
	movl	%eax, 512(%rbx)
	popq	%rbx
	.cfi_def_cfa_offset 8
	ret
	.cfi_endproc
.LFE3343:
	.size	_ZN8opendnp38MContext17OnResponseTimeoutEv, .-_ZN8opendnp38MContext17OnResponseTimeoutEv
	.p2align 4,,15
	.type	_ZNSt17_Function_handlerIFvvEZN7openpal8TimerRef5StartIZN8opendnp38MContext18StartResponseTimerEvEUlvE_EEbRKNS1_12TimeDurationERKT_EUlvE_E9_M_invokeERKSt9_Any_data, @function
_ZNSt17_Function_handlerIFvvEZN7openpal8TimerRef5StartIZN8opendnp38MContext18StartResponseTimerEvEUlvE_EEbRKNS1_12TimeDurationERKT_EUlvE_E9_M_invokeERKSt9_Any_data:
.LFB4255:
	.cfi_startproc
	movq	(%rdi), %rax
	movq	8(%rdi), %rdi
	movq	$0, 8(%rax)
	jmp	_ZN8opendnp38MContext17OnResponseTimeoutEv@PLT
	.cfi_endproc
.LFE4255:
	.size	_ZNSt17_Function_handlerIFvvEZN7openpal8TimerRef5StartIZN8opendnp38MContext18StartResponseTimerEvEUlvE_EEbRKNS1_12TimeDurationERKT_EUlvE_E9_M_invokeERKSt9_Any_data, .-_ZNSt17_Function_handlerIFvvEZN7openpal8TimerRef5StartIZN8opendnp38MContext18StartResponseTimerEvEUlvE_EEbRKNS1_12TimeDurationERKT_EUlvE_E9_M_invokeERKSt9_Any_data
	.section	.text._ZNSt6vectorISt10shared_ptrIN8opendnp311IMasterTaskEESaIS3_EED2Ev,"axG",@progbits,_ZNSt6vectorISt10shared_ptrIN8opendnp311IMasterTaskEESaIS3_EED5Ev,comdat
	.align 2
	.p2align 4,,15
	.weak	_ZNSt6vectorISt10shared_ptrIN8opendnp311IMasterTaskEESaIS3_EED2Ev
	.type	_ZNSt6vectorISt10shared_ptrIN8opendnp311IMasterTaskEESaIS3_EED2Ev, @function
_ZNSt6vectorISt10shared_ptrIN8opendnp311IMasterTaskEESaIS3_EED2Ev:
.LFB3745:
	.cfi_startproc
	pushq	%r13
	.cfi_def_cfa_offset 16
	.cfi_offset 13, -16
	pushq	%r12
	.cfi_def_cfa_offset 24
	.cfi_offset 12, -24
	pushq	%rbp
	.cfi_def_cfa_offset 32
	.cfi_offset 6, -32
	pushq	%rbx
	.cfi_def_cfa_offset 40
	.cfi_offset 3, -40
	subq	$8, %rsp
	.cfi_def_cfa_offset 48
	movq	8(%rdi), %r12
	movq	(%rdi), %rbx
	cmpq	%rbx, %r12
	je	.L944
	cmpq	$0, _ZL28__gthrw___pthread_key_createPjPFvPvE@GOTPCREL(%rip)
	movq	%rdi, %r13
	je	.L951
	.p2align 4,,10
	.p2align 3
.L945:
	movq	8(%rbx), %rbp
	testq	%rbp, %rbp
	je	.L953
	lock subl	$1, 8(%rbp)
	je	.L962
.L953:
	addq	$16, %rbx
	cmpq	%rbx, %r12
	jne	.L945
.L950:
	movq	0(%r13), %rbx
.L944:
	testq	%rbx, %rbx
	je	.L943
	addq	$8, %rsp
	.cfi_remember_state
	.cfi_def_cfa_offset 40
	movq	%rbx, %rdi
	popq	%rbx
	.cfi_def_cfa_offset 32
	popq	%rbp
	.cfi_def_cfa_offset 24
	popq	%r12
	.cfi_def_cfa_offset 16
	popq	%r13
	.cfi_def_cfa_offset 8
	jmp	_ZdlPv@PLT
	.p2align 4,,10
	.p2align 3
.L963:
	.cfi_restore_state
	movq	0(%rbp), %rax
	movq	%rbp, %rdi
	call	*16(%rax)
	movl	12(%rbp), %eax
	leal	-1(%rax), %edx
	cmpl	$1, %eax
	movl	%edx, 12(%rbp)
	jne	.L948
	movq	0(%rbp), %rax
	movq	%rbp, %rdi
	call	*24(%rax)
	.p2align 4,,10
	.p2align 3
.L948:
	addq	$16, %rbx
	cmpq	%rbx, %r12
	je	.L950
.L951:
	movq	8(%rbx), %rbp
	testq	%rbp, %rbp
	je	.L948
	movl	8(%rbp), %eax
	leal	-1(%rax), %edx
	cmpl	$1, %eax
	movl	%edx, 8(%rbp)
	je	.L963
	addq	$16, %rbx
	cmpq	%rbx, %r12
	jne	.L951
	jmp	.L950
	.p2align 4,,10
	.p2align 3
.L962:
	movq	0(%rbp), %rax
	movq	%rbp, %rdi
	call	*16(%rax)
	lock subl	$1, 12(%rbp)
	jne	.L953
	movq	0(%rbp), %rax
	movq	%rbp, %rdi
	call	*24(%rax)
	jmp	.L953
	.p2align 4,,10
	.p2align 3
.L943:
	addq	$8, %rsp
	.cfi_def_cfa_offset 40
	popq	%rbx
	.cfi_def_cfa_offset 32
	popq	%rbp
	.cfi_def_cfa_offset 24
	popq	%r12
	.cfi_def_cfa_offset 16
	popq	%r13
	.cfi_def_cfa_offset 8
	ret
	.cfi_endproc
.LFE3745:
	.size	_ZNSt6vectorISt10shared_ptrIN8opendnp311IMasterTaskEESaIS3_EED2Ev, .-_ZNSt6vectorISt10shared_ptrIN8opendnp311IMasterTaskEESaIS3_EED2Ev
	.weak	_ZNSt6vectorISt10shared_ptrIN8opendnp311IMasterTaskEESaIS3_EED1Ev
	.set	_ZNSt6vectorISt10shared_ptrIN8opendnp311IMasterTaskEESaIS3_EED1Ev,_ZNSt6vectorISt10shared_ptrIN8opendnp311IMasterTaskEESaIS3_EED2Ev
	.section	.text._ZNSt16_Sp_counted_baseILN9__gnu_cxx12_Lock_policyE2EE10_M_releaseEv,"axG",@progbits,_ZNSt16_Sp_counted_baseILN9__gnu_cxx12_Lock_policyE2EE10_M_releaseEv,comdat
	.align 2
	.p2align 4,,15
	.weak	_ZNSt16_Sp_counted_baseILN9__gnu_cxx12_Lock_policyE2EE10_M_releaseEv
	.type	_ZNSt16_Sp_counted_baseILN9__gnu_cxx12_Lock_policyE2EE10_M_releaseEv, @function
_ZNSt16_Sp_counted_baseILN9__gnu_cxx12_Lock_policyE2EE10_M_releaseEv:
.LFB3967:
	.cfi_startproc
	cmpq	$0, _ZL28__gthrw___pthread_key_createPjPFvPvE@GOTPCREL(%rip)
	pushq	%rbx
	.cfi_def_cfa_offset 16
	.cfi_offset 3, -16
	movq	%rdi, %rbx
	je	.L965
	lock subl	$1, 8(%rdi)
	je	.L972
.L964:
	popq	%rbx
	.cfi_remember_state
	.cfi_def_cfa_offset 8
	ret
	.p2align 4,,10
	.p2align 3
.L965:
	.cfi_restore_state
	movl	8(%rdi), %eax
	leal	-1(%rax), %edx
	cmpl	$1, %eax
	movl	%edx, 8(%rdi)
	jne	.L964
	movq	(%rdi), %rax
	call	*16(%rax)
	movl	12(%rbx), %eax
	leal	-1(%rax), %edx
	movl	%edx, 12(%rbx)
	jmp	.L970
	.p2align 4,,10
	.p2align 3
.L972:
	movq	(%rdi), %rax
	call	*16(%rax)
	movl	$-1, %eax
	lock xaddl	%eax, 12(%rbx)
.L970:
	cmpl	$1, %eax
	jne	.L964
	movq	(%rbx), %rax
	movq	%rbx, %rdi
	popq	%rbx
	.cfi_def_cfa_offset 8
	movq	24(%rax), %rax
	jmp	*%rax
	.cfi_endproc
.LFE3967:
	.size	_ZNSt16_Sp_counted_baseILN9__gnu_cxx12_Lock_policyE2EE10_M_releaseEv, .-_ZNSt16_Sp_counted_baseILN9__gnu_cxx12_Lock_policyE2EE10_M_releaseEv
	.text
	.align 2
	.p2align 4,,15
	.globl	_ZN8opendnp38MContext14StartTask_IdleEv
	.type	_ZN8opendnp38MContext14StartTask_IdleEv, @function
_ZN8opendnp38MContext14StartTask_IdleEv:
.LFB3414:
	.cfi_startproc
	.cfi_personality 0x9b,DW.ref.__gxx_personality_v0
	.cfi_lsda 0x1b,.LLSDA3414
	pushq	%r12
	.cfi_def_cfa_offset 16
	.cfi_offset 12, -16
	pushq	%rbp
	.cfi_def_cfa_offset 24
	.cfi_offset 6, -24
	pushq	%rbx
	.cfi_def_cfa_offset 32
	.cfi_offset 3, -32
	subq	$96, %rsp
	.cfi_def_cfa_offset 128
	movq	%fs:40, %rax
	movq	%rax, 88(%rsp)
	xorl	%eax, %eax
	cmpb	$0, 169(%rdi)
	je	.L1004
.L973:
	movq	88(%rsp), %rcx
	xorq	%fs:40, %rcx
	jne	.L1005
	addq	$96, %rsp
	.cfi_remember_state
	.cfi_def_cfa_offset 32
	popq	%rbx
	.cfi_def_cfa_offset 24
	popq	%rbp
	.cfi_def_cfa_offset 16
	popq	%r12
	.cfi_def_cfa_offset 8
	ret
	.p2align 4,,10
	.p2align 3
.L1004:
	.cfi_restore_state
	leaq	16(%rsp), %rbp
	movq	%rdi, %rbx
	leaq	32(%rsp), %r12
	movq	%rbp, %rdi
.LEHB10:
	call	_ZN7openpal18MonotonicTimestampC1Ev@PLT
	movq	56(%rbx), %rdi
	movq	(%rdi), %rax
	call	*16(%rax)
	leaq	24(%rsp), %rdx
	leaq	376(%rbx), %rsi
	movq	%rbp, %rcx
	movq	%r12, %rdi
	movq	%rax, 24(%rsp)
	call	_ZN8opendnp315MasterScheduler7GetNextERKN7openpal18MonotonicTimestampERS2_@PLT
.LEHE10:
	cmpq	$0, 32(%rsp)
	je	.L975
	movq	%r12, %rsi
	movq	%rbx, %rdi
.LEHB11:
	call	_ZN8opendnp38MContext12BeginNewTaskERKSt10shared_ptrINS_11IMasterTaskEE@PLT
.L976:
	movq	40(%rsp), %rbx
	testq	%rbx, %rbx
	je	.L973
	cmpq	$0, _ZL28__gthrw___pthread_key_createPjPFvPvE@GOTPCREL(%rip)
	je	.L981
	lock subl	$1, 8(%rbx)
	jne	.L973
	movq	(%rbx), %rdx
	movl	%eax, 8(%rsp)
	movq	%rbx, %rdi
	call	*16(%rdx)
	movl	$-1, %edx
	lock xaddl	%edx, 12(%rbx)
	movl	8(%rsp), %eax
.L985:
	cmpl	$1, %edx
	jne	.L973
	movq	(%rbx), %rdx
	movl	%eax, 8(%rsp)
	movq	%rbx, %rdi
	call	*24(%rdx)
	movl	8(%rsp), %eax
	jmp	.L973
	.p2align 4,,10
	.p2align 3
.L975:
	movq	%rbp, %rdi
	call	_ZNK7openpal18MonotonicTimestamp5IsMaxEv@PLT
.LEHE11:
	movl	%eax, %edx
	xorl	%eax, %eax
	testb	%dl, %dl
	jne	.L976
	leaq	_ZNSt14_Function_base13_Base_managerIZN7openpal8TimerRef7RestartIZN8opendnp38MContext14StartTask_IdleEvEUlvE_EEvRKNS1_18MonotonicTimestampERKT_EUlvE_E10_M_managerERSt9_Any_dataRKSF_St18_Manager_operation(%rip), %rsi
	leaq	_ZNSt17_Function_handlerIFvvEZN7openpal8TimerRef7RestartIZN8opendnp38MContext14StartTask_IdleEvEUlvE_EEvRKNS1_18MonotonicTimestampERKT_EUlvE_E9_M_invokeERKSt9_Any_data(%rip), %rax
	leaq	208(%rbx), %rdi
	movq	%rbx, 56(%rsp)
	leaq	48(%rsp), %rbx
	movq	%rsi, 8(%rsp)
	movq	%rbp, %rsi
	movq	%rdi, 48(%rsp)
	movq	8(%rsp), %xmm0
	movq	%rax, 8(%rsp)
	movhps	8(%rsp), %xmm0
	movq	%rbx, %rdx
	movaps	%xmm0, 64(%rsp)
.LEHB12:
	call	_ZN7openpal8TimerRef13RestartActionERKNS_18MonotonicTimestampERKSt8functionIFvvEE@PLT
.LEHE12:
	movq	64(%rsp), %rax
	testq	%rax, %rax
	je	.L977
	movl	$3, %edx
	movq	%rbx, %rsi
	movq	%rbx, %rdi
	call	*%rax
.L977:
	xorl	%eax, %eax
	jmp	.L976
	.p2align 4,,10
	.p2align 3
.L981:
	movl	8(%rbx), %edx
	leal	-1(%rdx), %ecx
	cmpl	$1, %edx
	movl	%ecx, 8(%rbx)
	jne	.L973
	movq	(%rbx), %rdx
	movl	%eax, 8(%rsp)
	movq	%rbx, %rdi
	call	*16(%rdx)
	movl	12(%rbx), %edx
	movl	8(%rsp), %eax
	leal	-1(%rdx), %ecx
	movl	%ecx, 12(%rbx)
	jmp	.L985
.L1005:
	call	__stack_chk_fail@PLT
.L990:
	movq	%rax, %rbp
	movq	64(%rsp), %rax
	testq	%rax, %rax
	je	.L980
	movl	$3, %edx
	movq	%rbx, %rsi
	movq	%rbx, %rdi
	call	*%rax
.L980:
	movq	40(%rsp), %rdi
	testq	%rdi, %rdi
	je	.L984
	call	_ZNSt16_Sp_counted_baseILN9__gnu_cxx12_Lock_policyE2EE10_M_releaseEv@PLT
.L984:
	movq	%rbp, %rdi
.LEHB13:
	call	_Unwind_Resume@PLT
.LEHE13:
.L989:
	movq	%rax, %rbp
	jmp	.L980
	.cfi_endproc
.LFE3414:
	.section	.gcc_except_table
.LLSDA3414:
	.byte	0xff
	.byte	0xff
	.byte	0x1
	.uleb128 .LLSDACSE3414-.LLSDACSB3414
.LLSDACSB3414:
	.uleb128 .LEHB10-.LFB3414
	.uleb128 .LEHE10-.LEHB10
	.uleb128 0
	.uleb128 0
	.uleb128 .LEHB11-.LFB3414
	.uleb128 .LEHE11-.LEHB11
	.uleb128 .L989-.LFB3414
	.uleb128 0
	.uleb128 .LEHB12-.LFB3414
	.uleb128 .LEHE12-.LEHB12
	.uleb128 .L990-.LFB3414
	.uleb128 0
	.uleb128 .LEHB13-.LFB3414
	.uleb128 .LEHE13-.LEHB13
	.uleb128 0
	.uleb128 0
.LLSDACSE3414:
	.text
	.size	_ZN8opendnp38MContext14StartTask_IdleEv, .-_ZN8opendnp38MContext14StartTask_IdleEv
	.align 2
	.p2align 4,,15
	.globl	_ZN8opendnp38MContext12OnStartEventEv
	.type	_ZN8opendnp38MContext12OnStartEventEv, @function
_ZN8opendnp38MContext12OnStartEventEv:
.LFB3412:
	.cfi_startproc
	movl	512(%rdi), %eax
	testl	%eax, %eax
	je	.L1008
	cmpl	$1, %eax
	jne	.L1011
	jmp	_ZN8opendnp38MContext19StartTask_TaskReadyEv@PLT
	.p2align 4,,10
	.p2align 3
.L1011:
	rep ret
	.p2align 4,,10
	.p2align 3
.L1008:
	jmp	_ZN8opendnp38MContext14StartTask_IdleEv@PLT
	.cfi_endproc
.LFE3412:
	.size	_ZN8opendnp38MContext12OnStartEventEv, .-_ZN8opendnp38MContext12OnStartEventEv
	.align 2
	.p2align 4,,15
	.globl	_ZN8opendnp38MContext12CheckForTaskEv
	.type	_ZN8opendnp38MContext12CheckForTaskEv, @function
_ZN8opendnp38MContext12CheckForTaskEv:
.LFB3342:
	.cfi_startproc
	cmpb	$0, 168(%rdi)
	jne	.L1018
	rep ret
	.p2align 4,,10
	.p2align 3
.L1018:
	pushq	%rbx
	.cfi_def_cfa_offset 16
	.cfi_offset 3, -16
	movq	%rdi, %rbx
	call	_ZN8opendnp38MContext12OnStartEventEv@PLT
	movl	%eax, 512(%rbx)
	popq	%rbx
	.cfi_def_cfa_offset 8
	ret
	.cfi_endproc
.LFE3342:
	.size	_ZN8opendnp38MContext12CheckForTaskEv, .-_ZN8opendnp38MContext12CheckForTaskEv
	.p2align 4,,15
	.type	_ZNSt17_Function_handlerIFvvEZN8opendnp38MContext16PostCheckForTaskEvEUlvE_E9_M_invokeERKSt9_Any_data, @function
_ZNSt17_Function_handlerIFvvEZN8opendnp38MContext16PostCheckForTaskEvEUlvE_E9_M_invokeERKSt9_Any_data:
.LFB4074:
	.cfi_startproc
	movq	(%rdi), %rdi
	jmp	_ZN8opendnp38MContext12CheckForTaskEv@PLT
	.cfi_endproc
.LFE4074:
	.size	_ZNSt17_Function_handlerIFvvEZN8opendnp38MContext16PostCheckForTaskEvEUlvE_E9_M_invokeERKSt9_Any_data, .-_ZNSt17_Function_handlerIFvvEZN8opendnp38MContext16PostCheckForTaskEvEUlvE_E9_M_invokeERKSt9_Any_data
	.align 2
	.p2align 4,,15
	.globl	_ZN8opendnp38MContext17ScheduleAdhocTaskERKSt10shared_ptrINS_11IMasterTaskEE
	.type	_ZN8opendnp38MContext17ScheduleAdhocTaskERKSt10shared_ptrINS_11IMasterTaskEE, @function
_ZN8opendnp38MContext17ScheduleAdhocTaskERKSt10shared_ptrINS_11IMasterTaskEE:
.LFB3405:
	.cfi_startproc
	pushq	%r12
	.cfi_def_cfa_offset 16
	.cfi_offset 12, -16
	pushq	%rbp
	.cfi_def_cfa_offset 24
	.cfi_offset 6, -24
	movq	%rsi, %rbp
	pushq	%rbx
	.cfi_def_cfa_offset 32
	.cfi_offset 3, -32
	movq	%rdi, %rbx
	subq	$16, %rsp
	.cfi_def_cfa_offset 48
	movq	56(%rdi), %rdi
	movq	%fs:40, %rax
	movq	%rax, 8(%rsp)
	xorl	%eax, %eax
	movq	(%rdi), %rax
	call	*16(%rax)
	movq	0(%rbp), %r12
	leaq	112(%rbx), %rsi
	movq	%rsp, %rdi
	movq	%rax, (%rsp)
	call	_ZNK7openpal18MonotonicTimestamp3AddERKNS_12TimeDurationE@PLT
	movq	%r12, %rdi
	movq	%rax, %rsi
	call	_ZN8opendnp311IMasterTask24ConfigureStartExpirationEN7openpal18MonotonicTimestampE@PLT
	cmpb	$0, 168(%rbx)
	je	.L1021
	movq	(%rbx), %rax
	movq	64(%rax), %rax
	cmpq	_ZN8opendnp38MContext21MeetsUserRequirementsERKSt10shared_ptrINS_11IMasterTaskEE@GOTPCREL(%rip), %rax
	jne	.L1022
.L1024:
	leaq	376(%rbx), %rdi
	movq	%rbp, %rsi
	call	_ZN8opendnp315MasterScheduler8ScheduleERKSt10shared_ptrINS_11IMasterTaskEE@PLT
	movq	%rbx, %rdi
	call	_ZN8opendnp38MContext12CheckForTaskEv@PLT
.L1020:
	movq	8(%rsp), %rax
	xorq	%fs:40, %rax
	jne	.L1027
	addq	$16, %rsp
	.cfi_remember_state
	.cfi_def_cfa_offset 32
	popq	%rbx
	.cfi_def_cfa_offset 24
	popq	%rbp
	.cfi_def_cfa_offset 16
	popq	%r12
	.cfi_def_cfa_offset 8
	ret
	.p2align 4,,10
	.p2align 3
.L1021:
	.cfi_restore_state
	movq	(%rsp), %rsi
	movq	0(%rbp), %rdi
	call	_ZN8opendnp311IMasterTask17OnLowerLayerCloseEN7openpal18MonotonicTimestampE@PLT
	jmp	.L1020
	.p2align 4,,10
	.p2align 3
.L1022:
	movq	%rbp, %rsi
	movq	%rbx, %rdi
	call	*%rax
	testb	%al, %al
	jne	.L1024
	movq	(%rsp), %rsi
	movq	0(%rbp), %rdi
	call	_ZN8opendnp311IMasterTask8OnNoUserEN7openpal18MonotonicTimestampE@PLT
	jmp	.L1020
.L1027:
	call	__stack_chk_fail@PLT
	.cfi_endproc
.LFE3405:
	.size	_ZN8opendnp38MContext17ScheduleAdhocTaskERKSt10shared_ptrINS_11IMasterTaskEE, .-_ZN8opendnp38MContext17ScheduleAdhocTaskERKSt10shared_ptrINS_11IMasterTaskEE
	.p2align 4,,15
	.type	_ZNSt17_Function_handlerIFvvEZN7openpal8TimerRef7RestartIZN8opendnp38MContext14StartTask_IdleEvEUlvE_EEvRKNS1_18MonotonicTimestampERKT_EUlvE_E9_M_invokeERKSt9_Any_data, @function
_ZNSt17_Function_handlerIFvvEZN7openpal8TimerRef7RestartIZN8opendnp38MContext14StartTask_IdleEvEUlvE_EEvRKNS1_18MonotonicTimestampERKT_EUlvE_E9_M_invokeERKSt9_Any_data:
.LFB4333:
	.cfi_startproc
	movq	(%rdi), %rax
	movq	8(%rdi), %rdi
	movq	$0, 8(%rax)
	jmp	_ZN8opendnp38MContext12CheckForTaskEv@PLT
	.cfi_endproc
.LFE4333:
	.size	_ZNSt17_Function_handlerIFvvEZN7openpal8TimerRef7RestartIZN8opendnp38MContext14StartTask_IdleEvEUlvE_EEvRKNS1_18MonotonicTimestampERKT_EUlvE_E9_M_invokeERKSt9_Any_data, .-_ZNSt17_Function_handlerIFvvEZN7openpal8TimerRef7RestartIZN8opendnp38MContext14StartTask_IdleEvEUlvE_EEvRKNS1_18MonotonicTimestampERKT_EUlvE_E9_M_invokeERKSt9_Any_data
	.align 2
	.p2align 4,,15
	.globl	_ZN8opendnp38MContext12OnSendResultEb
	.type	_ZN8opendnp38MContext12OnSendResultEb, @function
_ZN8opendnp38MContext12OnSendResultEb:
.LFB3341:
	.cfi_startproc
	pushq	%rbp
	.cfi_def_cfa_offset 16
	.cfi_offset 6, -16
	pushq	%rbx
	.cfi_def_cfa_offset 24
	.cfi_offset 3, -24
	subq	$8, %rsp
	.cfi_def_cfa_offset 32
	movzbl	168(%rdi), %ebx
	testb	%bl, %bl
	je	.L1029
	movzbl	169(%rdi), %ebx
	testb	%bl, %bl
	jne	.L1038
.L1029:
	addq	$8, %rsp
	.cfi_remember_state
	.cfi_def_cfa_offset 24
	movl	%ebx, %eax
	popq	%rbx
	.cfi_def_cfa_offset 16
	popq	%rbp
	.cfi_def_cfa_offset 8
	ret
	.p2align 4,,10
	.p2align 3
.L1038:
	.cfi_restore_state
	movq	%rdi, %rbp
	movb	$0, 169(%rdi)
	call	_ZN8opendnp38MContext20CheckConfirmTransmitEv@PLT
	movq	%rbp, %rdi
	call	_ZN8opendnp38MContext12CheckForTaskEv@PLT
	addq	$8, %rsp
	.cfi_def_cfa_offset 24
	movl	%ebx, %eax
	popq	%rbx
	.cfi_def_cfa_offset 16
	popq	%rbp
	.cfi_def_cfa_offset 8
	ret
	.cfi_endproc
.LFE3341:
	.size	_ZN8opendnp38MContext12OnSendResultEb, .-_ZN8opendnp38MContext12OnSendResultEb
	.align 2
	.p2align 4,,15
	.globl	_ZN8opendnp38MContext13DirectOperateEONS_10CommandSetERKSt8functionIFvRKNS_18ICommandTaskResultEEERKNS_10TaskConfigE
	.type	_ZN8opendnp38MContext13DirectOperateEONS_10CommandSetERKSt8functionIFvRKNS_18ICommandTaskResultEEERKNS_10TaskConfigE, @function
_ZN8opendnp38MContext13DirectOperateEONS_10CommandSetERKSt8functionIFvRKNS_18ICommandTaskResultEEERKNS_10TaskConfigE:
.LFB3346:
	.cfi_startproc
	.cfi_personality 0x9b,DW.ref.__gxx_personality_v0
	.cfi_lsda 0x1b,.LLSDA3346
	pushq	%r12
	.cfi_def_cfa_offset 16
	.cfi_offset 12, -16
	pushq	%rbp
	.cfi_def_cfa_offset 24
	.cfi_offset 6, -24
	movq	%rcx, %r8
	pushq	%rbx
	.cfi_def_cfa_offset 32
	.cfi_offset 3, -32
	movq	%rdi, %rbx
	subq	$64, %rsp
	.cfi_def_cfa_offset 96
	movq	%fs:40, %rax
	movq	%rax, 56(%rsp)
	xorl	%eax, %eax
	movq	24(%rdi), %rax
	movq	%rax, 16(%rsp)
	movq	32(%rdi), %rax
	testq	%rax, %rax
	movq	%rax, 24(%rsp)
	je	.L1040
	cmpq	$0, _ZL28__gthrw___pthread_key_createPjPFvPvE@GOTPCREL(%rip)
	jne	.L1084
	addl	$1, 8(%rax)
	movq	40(%rdi), %rax
	movq	%rax, 32(%rsp)
	movq	48(%rdi), %rax
	testq	%rax, %rax
	movq	%rax, 40(%rsp)
	je	.L1043
.L1044:
	addl	$1, 8(%rax)
.L1043:
	leaq	16(%rsp), %r12
	movq	%rdx, %rcx
	movq	144(%rbx), %rdx
	movq	%rsp, %rbp
	movq	%r12, %r9
	movq	%rbp, %rdi
.LEHB14:
	call	_ZN8opendnp311CommandTask19CreateDirectOperateEONS_10CommandSetERNS_18IMasterApplicationERKSt8functionIFvRKNS_18ICommandTaskResultEEERKNS_10TaskConfigEN7openpal6LoggerE@PLT
.LEHE14:
	movq	%rbp, %rsi
	movq	%rbx, %rdi
.LEHB15:
	call	_ZN8opendnp38MContext17ScheduleAdhocTaskERKSt10shared_ptrINS_11IMasterTaskEE@PLT
.LEHE15:
	movq	8(%rsp), %rbx
	testq	%rbx, %rbx
	je	.L1047
	cmpq	$0, _ZL28__gthrw___pthread_key_createPjPFvPvE@GOTPCREL(%rip)
	je	.L1048
	lock subl	$1, 8(%rbx)
	je	.L1085
.L1047:
	movq	40(%rsp), %rbx
	testq	%rbx, %rbx
	je	.L1053
	cmpq	$0, _ZL28__gthrw___pthread_key_createPjPFvPvE@GOTPCREL(%rip)
	je	.L1054
	lock subl	$1, 8(%rbx)
	je	.L1086
.L1053:
	movq	24(%rsp), %rbx
	testq	%rbx, %rbx
	je	.L1039
	cmpq	$0, _ZL28__gthrw___pthread_key_createPjPFvPvE@GOTPCREL(%rip)
	je	.L1060
	lock subl	$1, 8(%rbx)
	je	.L1087
.L1039:
	movq	56(%rsp), %rax
	xorq	%fs:40, %rax
	jne	.L1088
	addq	$64, %rsp
	.cfi_remember_state
	.cfi_def_cfa_offset 32
	popq	%rbx
	.cfi_def_cfa_offset 24
	popq	%rbp
	.cfi_def_cfa_offset 16
	popq	%r12
	.cfi_def_cfa_offset 8
	ret
	.p2align 4,,10
	.p2align 3
.L1084:
	.cfi_restore_state
	lock addl	$1, 8(%rax)
	movq	48(%rdi), %rcx
	movq	40(%rdi), %rax
	testq	%rcx, %rcx
	movq	%rax, 32(%rsp)
	movq	%rcx, 40(%rsp)
	leaq	8(%rcx), %rax
	je	.L1043
.L1067:
	lock addl	$1, (%rax)
	jmp	.L1043
	.p2align 4,,10
	.p2align 3
.L1040:
	movq	40(%rdi), %rax
	movq	%rax, 32(%rsp)
	movq	48(%rdi), %rax
	testq	%rax, %rax
	movq	%rax, 40(%rsp)
	je	.L1043
	cmpq	$0, _ZL28__gthrw___pthread_key_createPjPFvPvE@GOTPCREL(%rip)
	je	.L1044
	addq	$8, %rax
	jmp	.L1067
	.p2align 4,,10
	.p2align 3
.L1060:
	movl	8(%rbx), %eax
	leal	-1(%rax), %edx
	cmpl	$1, %eax
	movl	%edx, 8(%rbx)
	jne	.L1039
	movq	(%rbx), %rax
	movq	%rbx, %rdi
	call	*16(%rax)
	movl	12(%rbx), %eax
	leal	-1(%rax), %edx
	movl	%edx, 12(%rbx)
.L1070:
	cmpl	$1, %eax
	jne	.L1039
	movq	(%rbx), %rax
	movq	%rbx, %rdi
	call	*24(%rax)
	jmp	.L1039
	.p2align 4,,10
	.p2align 3
.L1048:
	movl	8(%rbx), %eax
	leal	-1(%rax), %edx
	cmpl	$1, %eax
	movl	%edx, 8(%rbx)
	jne	.L1047
	movq	(%rbx), %rax
	movq	%rbx, %rdi
	call	*16(%rax)
	movl	12(%rbx), %eax
	leal	-1(%rax), %edx
	movl	%edx, 12(%rbx)
.L1068:
	cmpl	$1, %eax
	jne	.L1047
	movq	(%rbx), %rax
	movq	%rbx, %rdi
	call	*24(%rax)
	jmp	.L1047
	.p2align 4,,10
	.p2align 3
.L1054:
	movl	8(%rbx), %eax
	leal	-1(%rax), %edx
	cmpl	$1, %eax
	movl	%edx, 8(%rbx)
	jne	.L1053
	movq	(%rbx), %rax
	movq	%rbx, %rdi
	call	*16(%rax)
	movl	12(%rbx), %eax
	leal	-1(%rax), %edx
	movl	%edx, 12(%rbx)
.L1069:
	cmpl	$1, %eax
	jne	.L1053
	movq	(%rbx), %rax
	movq	%rbx, %rdi
	call	*24(%rax)
	jmp	.L1053
	.p2align 4,,10
	.p2align 3
.L1087:
	movq	(%rbx), %rax
	movq	%rbx, %rdi
	call	*16(%rax)
	movl	$-1, %eax
	lock xaddl	%eax, 12(%rbx)
	jmp	.L1070
	.p2align 4,,10
	.p2align 3
.L1085:
	movq	(%rbx), %rax
	movq	%rbx, %rdi
	call	*16(%rax)
	movl	$-1, %eax
	lock xaddl	%eax, 12(%rbx)
	jmp	.L1068
	.p2align 4,,10
	.p2align 3
.L1086:
	movq	(%rbx), %rax
	movq	%rbx, %rdi
	call	*16(%rax)
	movl	$-1, %eax
	lock xaddl	%eax, 12(%rbx)
	jmp	.L1069
.L1088:
	call	__stack_chk_fail@PLT
.L1072:
	movq	%rax, %rbx
.L1066:
	movq	%r12, %rdi
	call	_ZN7openpal6LoggerD1Ev@PLT
	movq	%rbx, %rdi
.LEHB16:
	call	_Unwind_Resume@PLT
.LEHE16:
.L1073:
	movq	8(%rsp), %rdi
	movq	%rax, %rbx
	testq	%rdi, %rdi
	je	.L1066
	call	_ZNSt16_Sp_counted_baseILN9__gnu_cxx12_Lock_policyE2EE10_M_releaseEv@PLT
	jmp	.L1066
	.cfi_endproc
.LFE3346:
	.section	.gcc_except_table
.LLSDA3346:
	.byte	0xff
	.byte	0xff
	.byte	0x1
	.uleb128 .LLSDACSE3346-.LLSDACSB3346
.LLSDACSB3346:
	.uleb128 .LEHB14-.LFB3346
	.uleb128 .LEHE14-.LEHB14
	.uleb128 .L1072-.LFB3346
	.uleb128 0
	.uleb128 .LEHB15-.LFB3346
	.uleb128 .LEHE15-.LEHB15
	.uleb128 .L1073-.LFB3346
	.uleb128 0
	.uleb128 .LEHB16-.LFB3346
	.uleb128 .LEHE16-.LEHB16
	.uleb128 0
	.uleb128 0
.LLSDACSE3346:
	.text
	.size	_ZN8opendnp38MContext13DirectOperateEONS_10CommandSetERKSt8functionIFvRKNS_18ICommandTaskResultEEERKNS_10TaskConfigE, .-_ZN8opendnp38MContext13DirectOperateEONS_10CommandSetERKSt8functionIFvRKNS_18ICommandTaskResultEEERKNS_10TaskConfigE
	.align 2
	.p2align 4,,15
	.globl	_ZN8opendnp38MContext16SelectAndOperateEONS_10CommandSetERKSt8functionIFvRKNS_18ICommandTaskResultEEERKNS_10TaskConfigE
	.type	_ZN8opendnp38MContext16SelectAndOperateEONS_10CommandSetERKSt8functionIFvRKNS_18ICommandTaskResultEEERKNS_10TaskConfigE, @function
_ZN8opendnp38MContext16SelectAndOperateEONS_10CommandSetERKSt8functionIFvRKNS_18ICommandTaskResultEEERKNS_10TaskConfigE:
.LFB3348:
	.cfi_startproc
	.cfi_personality 0x9b,DW.ref.__gxx_personality_v0
	.cfi_lsda 0x1b,.LLSDA3348
	pushq	%r12
	.cfi_def_cfa_offset 16
	.cfi_offset 12, -16
	pushq	%rbp
	.cfi_def_cfa_offset 24
	.cfi_offset 6, -24
	movq	%rcx, %r8
	pushq	%rbx
	.cfi_def_cfa_offset 32
	.cfi_offset 3, -32
	movq	%rdi, %rbx
	subq	$64, %rsp
	.cfi_def_cfa_offset 96
	movq	%fs:40, %rax
	movq	%rax, 56(%rsp)
	xorl	%eax, %eax
	movq	24(%rdi), %rax
	movq	%rax, 16(%rsp)
	movq	32(%rdi), %rax
	testq	%rax, %rax
	movq	%rax, 24(%rsp)
	je	.L1090
	cmpq	$0, _ZL28__gthrw___pthread_key_createPjPFvPvE@GOTPCREL(%rip)
	jne	.L1134
	addl	$1, 8(%rax)
	movq	40(%rdi), %rax
	movq	%rax, 32(%rsp)
	movq	48(%rdi), %rax
	testq	%rax, %rax
	movq	%rax, 40(%rsp)
	je	.L1093
.L1094:
	addl	$1, 8(%rax)
.L1093:
	leaq	16(%rsp), %r12
	movq	%rdx, %rcx
	movq	144(%rbx), %rdx
	movq	%rsp, %rbp
	movq	%r12, %r9
	movq	%rbp, %rdi
.LEHB17:
	call	_ZN8opendnp311CommandTask22CreateSelectAndOperateEONS_10CommandSetERNS_18IMasterApplicationERKSt8functionIFvRKNS_18ICommandTaskResultEEERKNS_10TaskConfigEN7openpal6LoggerE@PLT
.LEHE17:
	movq	%rbp, %rsi
	movq	%rbx, %rdi
.LEHB18:
	call	_ZN8opendnp38MContext17ScheduleAdhocTaskERKSt10shared_ptrINS_11IMasterTaskEE@PLT
.LEHE18:
	movq	8(%rsp), %rbx
	testq	%rbx, %rbx
	je	.L1097
	cmpq	$0, _ZL28__gthrw___pthread_key_createPjPFvPvE@GOTPCREL(%rip)
	je	.L1098
	lock subl	$1, 8(%rbx)
	je	.L1135
.L1097:
	movq	40(%rsp), %rbx
	testq	%rbx, %rbx
	je	.L1103
	cmpq	$0, _ZL28__gthrw___pthread_key_createPjPFvPvE@GOTPCREL(%rip)
	je	.L1104
	lock subl	$1, 8(%rbx)
	je	.L1136
.L1103:
	movq	24(%rsp), %rbx
	testq	%rbx, %rbx
	je	.L1089
	cmpq	$0, _ZL28__gthrw___pthread_key_createPjPFvPvE@GOTPCREL(%rip)
	je	.L1110
	lock subl	$1, 8(%rbx)
	je	.L1137
.L1089:
	movq	56(%rsp), %rax
	xorq	%fs:40, %rax
	jne	.L1138
	addq	$64, %rsp
	.cfi_remember_state
	.cfi_def_cfa_offset 32
	popq	%rbx
	.cfi_def_cfa_offset 24
	popq	%rbp
	.cfi_def_cfa_offset 16
	popq	%r12
	.cfi_def_cfa_offset 8
	ret
	.p2align 4,,10
	.p2align 3
.L1134:
	.cfi_restore_state
	lock addl	$1, 8(%rax)
	movq	48(%rdi), %rcx
	movq	40(%rdi), %rax
	testq	%rcx, %rcx
	movq	%rax, 32(%rsp)
	movq	%rcx, 40(%rsp)
	leaq	8(%rcx), %rax
	je	.L1093
.L1117:
	lock addl	$1, (%rax)
	jmp	.L1093
	.p2align 4,,10
	.p2align 3
.L1090:
	movq	40(%rdi), %rax
	movq	%rax, 32(%rsp)
	movq	48(%rdi), %rax
	testq	%rax, %rax
	movq	%rax, 40(%rsp)
	je	.L1093
	cmpq	$0, _ZL28__gthrw___pthread_key_createPjPFvPvE@GOTPCREL(%rip)
	je	.L1094
	addq	$8, %rax
	jmp	.L1117
	.p2align 4,,10
	.p2align 3
.L1110:
	movl	8(%rbx), %eax
	leal	-1(%rax), %edx
	cmpl	$1, %eax
	movl	%edx, 8(%rbx)
	jne	.L1089
	movq	(%rbx), %rax
	movq	%rbx, %rdi
	call	*16(%rax)
	movl	12(%rbx), %eax
	leal	-1(%rax), %edx
	movl	%edx, 12(%rbx)
.L1120:
	cmpl	$1, %eax
	jne	.L1089
	movq	(%rbx), %rax
	movq	%rbx, %rdi
	call	*24(%rax)
	jmp	.L1089
	.p2align 4,,10
	.p2align 3
.L1098:
	movl	8(%rbx), %eax
	leal	-1(%rax), %edx
	cmpl	$1, %eax
	movl	%edx, 8(%rbx)
	jne	.L1097
	movq	(%rbx), %rax
	movq	%rbx, %rdi
	call	*16(%rax)
	movl	12(%rbx), %eax
	leal	-1(%rax), %edx
	movl	%edx, 12(%rbx)
.L1118:
	cmpl	$1, %eax
	jne	.L1097
	movq	(%rbx), %rax
	movq	%rbx, %rdi
	call	*24(%rax)
	jmp	.L1097
	.p2align 4,,10
	.p2align 3
.L1104:
	movl	8(%rbx), %eax
	leal	-1(%rax), %edx
	cmpl	$1, %eax
	movl	%edx, 8(%rbx)
	jne	.L1103
	movq	(%rbx), %rax
	movq	%rbx, %rdi
	call	*16(%rax)
	movl	12(%rbx), %eax
	leal	-1(%rax), %edx
	movl	%edx, 12(%rbx)
.L1119:
	cmpl	$1, %eax
	jne	.L1103
	movq	(%rbx), %rax
	movq	%rbx, %rdi
	call	*24(%rax)
	jmp	.L1103
	.p2align 4,,10
	.p2align 3
.L1137:
	movq	(%rbx), %rax
	movq	%rbx, %rdi
	call	*16(%rax)
	movl	$-1, %eax
	lock xaddl	%eax, 12(%rbx)
	jmp	.L1120
	.p2align 4,,10
	.p2align 3
.L1135:
	movq	(%rbx), %rax
	movq	%rbx, %rdi
	call	*16(%rax)
	movl	$-1, %eax
	lock xaddl	%eax, 12(%rbx)
	jmp	.L1118
	.p2align 4,,10
	.p2align 3
.L1136:
	movq	(%rbx), %rax
	movq	%rbx, %rdi
	call	*16(%rax)
	movl	$-1, %eax
	lock xaddl	%eax, 12(%rbx)
	jmp	.L1119
.L1138:
	call	__stack_chk_fail@PLT
.L1122:
	movq	%rax, %rbx
.L1116:
	movq	%r12, %rdi
	call	_ZN7openpal6LoggerD1Ev@PLT
	movq	%rbx, %rdi
.LEHB19:
	call	_Unwind_Resume@PLT
.LEHE19:
.L1123:
	movq	8(%rsp), %rdi
	movq	%rax, %rbx
	testq	%rdi, %rdi
	je	.L1116
	call	_ZNSt16_Sp_counted_baseILN9__gnu_cxx12_Lock_policyE2EE10_M_releaseEv@PLT
	jmp	.L1116
	.cfi_endproc
.LFE3348:
	.section	.gcc_except_table
.LLSDA3348:
	.byte	0xff
	.byte	0xff
	.byte	0x1
	.uleb128 .LLSDACSE3348-.LLSDACSB3348
.LLSDACSB3348:
	.uleb128 .LEHB17-.LFB3348
	.uleb128 .LEHE17-.LEHB17
	.uleb128 .L1122-.LFB3348
	.uleb128 0
	.uleb128 .LEHB18-.LFB3348
	.uleb128 .LEHE18-.LEHB18
	.uleb128 .L1123-.LFB3348
	.uleb128 0
	.uleb128 .LEHB19-.LFB3348
	.uleb128 .LEHE19-.LEHB19
	.uleb128 0
	.uleb128 0
.LLSDACSE3348:
	.text
	.size	_ZN8opendnp38MContext16SelectAndOperateEONS_10CommandSetERKSt8functionIFvRKNS_18ICommandTaskResultEEERKNS_10TaskConfigE, .-_ZN8opendnp38MContext16SelectAndOperateEONS_10CommandSetERKSt8functionIFvRKNS_18ICommandTaskResultEEERKNS_10TaskConfigE
	.align 2
	.p2align 4,,15
	.globl	_ZN8opendnp38MContextC2ERKN7openpal6LoggerERKSt10shared_ptrINS1_9IExecutorEERKS5_INS_11ILowerLayerEERKS5_INS_11ISOEHandlerEERKS5_INS_18IMasterApplicationEERKNS_12MasterParamsERNS_9ITaskLockE
	.type	_ZN8opendnp38MContextC2ERKN7openpal6LoggerERKSt10shared_ptrINS1_9IExecutorEERKS5_INS_11ILowerLayerEERKS5_INS_11ISOEHandlerEERKS5_INS_18IMasterApplicationEERKNS_12MasterParamsERNS_9ITaskLockE, @function
_ZN8opendnp38MContextC2ERKN7openpal6LoggerERKSt10shared_ptrINS1_9IExecutorEERKS5_INS_11ILowerLayerEERKS5_INS_11ISOEHandlerEERKS5_INS_18IMasterApplicationEERKNS_12MasterParamsERNS_9ITaskLockE:
.LFB3336:
	.cfi_startproc
	.cfi_personality 0x9b,DW.ref.__gxx_personality_v0
	.cfi_lsda 0x1b,.LLSDA3336
	pushq	%r15
	.cfi_def_cfa_offset 16
	.cfi_offset 15, -16
	pushq	%r14
	.cfi_def_cfa_offset 24
	.cfi_offset 14, -24
	movq	%r9, %r15
	pushq	%r13
	.cfi_def_cfa_offset 32
	.cfi_offset 13, -32
	pushq	%r12
	.cfi_def_cfa_offset 40
	.cfi_offset 12, -40
	movq	%rdx, %r13
	pushq	%rbp
	.cfi_def_cfa_offset 48
	.cfi_offset 6, -48
	pushq	%rbx
	.cfi_def_cfa_offset 56
	.cfi_offset 3, -56
	movq	%rsi, %rbp
	movq	%rdi, %rbx
	movq	%r8, %r14
	subq	$40, %rsp
	.cfi_def_cfa_offset 96
	movq	_ZTVN8opendnp38MContextE@GOTPCREL(%rip), %rax
	movq	96(%rsp), %r12
	leaq	16(%rax), %rdx
	movq	%rdx, (%rdi)
	leaq	128(%rax), %rdx
	addq	$152, %rax
	movq	%rax, 16(%rdi)
	movq	(%rsi), %rax
	movq	%rdx, 8(%rdi)
	movq	%rax, 24(%rdi)
	movq	8(%rsi), %rax
	testq	%rax, %rax
	movq	%rax, 32(%rdi)
	je	.L1140
	cmpq	$0, _ZL28__gthrw___pthread_key_createPjPFvPvE@GOTPCREL(%rip)
	jne	.L1242
	addl	$1, 8(%rax)
	movq	16(%rsi), %rax
	movq	%rax, 40(%rdi)
	movq	24(%rsi), %rax
	testq	%rax, %rax
	movq	%rax, 48(%rdi)
	je	.L1238
.L1144:
	addl	$1, 8(%rax)
.L1238:
	movq	0(%r13), %rax
	movq	%rax, 56(%rbx)
	movq	8(%r13), %rax
	testq	%rax, %rax
	movq	%rax, 64(%rbx)
	je	.L1148
.L1149:
	addl	$1, 8(%rax)
	movq	(%rcx), %rax
	movq	%rax, 72(%rbx)
	movq	8(%rcx), %rax
	testq	%rax, %rax
	movq	%rax, 80(%rbx)
	je	.L1151
.L1152:
	addl	$1, 8(%rax)
	movdqu	(%r12), %xmm0
	movups	%xmm0, 88(%rbx)
	movdqu	16(%r12), %xmm0
	movups	%xmm0, 104(%rbx)
	movq	32(%r12), %rax
	movq	%rax, 120(%rbx)
	movq	(%r14), %rax
	movq	%rax, 128(%rbx)
	movq	8(%r14), %rax
	testq	%rax, %rax
	movq	%rax, 136(%rbx)
	je	.L1154
.L1155:
	addl	$1, 8(%rax)
	movq	(%r15), %rax
	movq	%rax, 144(%rbx)
	movq	8(%r15), %rax
	testq	%rax, %rax
	movq	%rax, 152(%rbx)
	je	.L1157
.L1158:
	addl	$1, 8(%rax)
.L1157:
	movq	104(%rsp), %rax
	movb	$0, 168(%rbx)
	movb	$0, 169(%rbx)
	movq	$0, 176(%rbx)
	movq	$0, 184(%rbx)
	movq	%rax, 160(%rbx)
	xorl	%eax, %eax
	movw	%ax, 170(%rbx)
	leaq	192(%rbx), %rax
	movq	0(%r13), %rsi
	movq	%rax, %rdi
	movq	%rax, 8(%rsp)
.LEHB20:
	call	_ZN7openpal8TimerRefC1ERNS_9IExecutorE@PLT
.LEHE20:
	leaq	208(%rbx), %rax
	movq	0(%r13), %rsi
	movq	%rax, %rdi
	movq	%rax, 16(%rsp)
.LEHB21:
	call	_ZN7openpal8TimerRefC1ERNS_9IExecutorE@PLT
.LEHE21:
	leaq	224(%rbx), %rax
	movq	0(%r13), %rsi
	movq	%rax, %rdi
	movq	%rax, 24(%rsp)
.LEHB22:
	call	_ZN7openpal8TimerRefC1ERNS_9IExecutorE@PLT
.LEHE22:
	leaq	240(%rbx), %r13
	movq	(%r14), %r8
	movq	(%r15), %rcx
	movq	%rbp, %rdx
	movq	%r12, %rsi
	movq	%r13, %rdi
.LEHB23:
	call	_ZN8opendnp311MasterTasksC1ERKNS_12MasterParamsERKN7openpal6LoggerERNS_18IMasterApplicationERNS_11ISOEHandlerE@PLT
.LEHE23:
	leaq	16(%rbx), %rsi
	leaq	376(%rbx), %rdi
.LEHB24:
	call	_ZN8opendnp315MasterSchedulerC1ERNS_11ITaskFilterE@PLT
.LEHE24:
	movq	$0, 408(%rbx)
	movq	$0, 424(%rbx)
	movl	$64, %edi
	movq	$0, 432(%rbx)
	movq	$0, 440(%rbx)
	movq	$0, 448(%rbx)
	movq	$0, 456(%rbx)
	movq	$0, 464(%rbx)
	movq	$0, 472(%rbx)
	movq	$0, 480(%rbx)
	movq	$8, 416(%rbx)
.LEHB25:
	call	_Znwm@PLT
.LEHE25:
	movq	416(%rbx), %rcx
	movq	%rax, 408(%rbx)
	movl	$510, %edi
	leaq	-1(%rcx), %rdx
	shrq	%rdx
	leaq	(%rax,%rdx,8), %rbp
.LEHB26:
	call	_Znwm@PLT
.LEHE26:
	leaq	510(%rax), %rdx
	movl	32(%r12), %esi
	leaq	488(%rbx), %rdi
	movq	%rax, 0(%rbp)
	movq	%rbp, 448(%rbx)
	movq	%rax, 432(%rbx)
	movq	%rdx, 440(%rbx)
	movq	%rbp, 480(%rbx)
	movq	%rax, 464(%rbx)
	movq	%rdx, 472(%rbx)
	movq	%rax, 424(%rbx)
	movq	%rax, 456(%rbx)
.LEHB27:
	call	_ZN7openpal6BufferC1Ej@PLT
.LEHE27:
	movl	$0, 512(%rbx)
	addq	$40, %rsp
	.cfi_remember_state
	.cfi_def_cfa_offset 56
	popq	%rbx
	.cfi_def_cfa_offset 48
	popq	%rbp
	.cfi_def_cfa_offset 40
	popq	%r12
	.cfi_def_cfa_offset 32
	popq	%r13
	.cfi_def_cfa_offset 24
	popq	%r14
	.cfi_def_cfa_offset 16
	popq	%r15
	.cfi_def_cfa_offset 8
	ret
	.p2align 4,,10
	.p2align 3
.L1242:
	.cfi_restore_state
	lock addl	$1, 8(%rax)
	movq	24(%rsi), %rdx
	movq	16(%rsi), %rax
	testq	%rdx, %rdx
	movq	%rax, 40(%rdi)
	movq	%rdx, 48(%rdi)
	leaq	8(%rdx), %rax
	je	.L1243
.L1179:
	lock addl	$1, (%rax)
	movq	8(%r13), %rdx
	movq	0(%r13), %rax
	testq	%rdx, %rdx
	movq	%rax, 56(%rbx)
	movq	%rdx, 64(%rbx)
	leaq	8(%rdx), %rax
	je	.L1148
.L1180:
	lock addl	$1, (%rax)
	movq	8(%rcx), %rdx
	movq	(%rcx), %rax
	testq	%rdx, %rdx
	movq	%rax, 72(%rbx)
	movq	%rdx, 80(%rbx)
	leaq	8(%rdx), %rax
	je	.L1151
.L1181:
	lock addl	$1, (%rax)
	movq	8(%r14), %rdx
	movdqu	(%r12), %xmm0
	movups	%xmm0, 88(%rbx)
	testq	%rdx, %rdx
	movdqu	16(%r12), %xmm0
	movups	%xmm0, 104(%rbx)
	movq	32(%r12), %rax
	movq	%rax, 120(%rbx)
	movq	(%r14), %rax
	movq	%rdx, 136(%rbx)
	movq	%rax, 128(%rbx)
	leaq	8(%rdx), %rax
	je	.L1154
.L1182:
	lock addl	$1, (%rax)
	movq	8(%r15), %rdx
	movq	(%r15), %rax
	testq	%rdx, %rdx
	movq	%rax, 144(%rbx)
	movq	%rdx, 152(%rbx)
	leaq	8(%rdx), %rax
	je	.L1157
.L1183:
	lock addl	$1, (%rax)
	jmp	.L1157
	.p2align 4,,10
	.p2align 3
.L1243:
	movq	0(%r13), %rax
	movq	%rax, 56(%rdi)
	movq	8(%r13), %rax
	testq	%rax, %rax
	movq	%rax, 64(%rdi)
	jne	.L1184
	.p2align 4,,10
	.p2align 3
.L1148:
	movq	(%rcx), %rax
	movq	%rax, 72(%rbx)
	movq	8(%rcx), %rax
	testq	%rax, %rax
	movq	%rax, 80(%rbx)
	jne	.L1244
.L1151:
	movdqu	(%r12), %xmm0
	movups	%xmm0, 88(%rbx)
	movdqu	16(%r12), %xmm0
	movups	%xmm0, 104(%rbx)
	movq	32(%r12), %rax
	movq	%rax, 120(%rbx)
	movq	(%r14), %rax
	movq	%rax, 128(%rbx)
	movq	8(%r14), %rax
	testq	%rax, %rax
	movq	%rax, 136(%rbx)
	jne	.L1245
.L1154:
	movq	(%r15), %rax
	movq	%rax, 144(%rbx)
	movq	8(%r15), %rax
	testq	%rax, %rax
	movq	%rax, 152(%rbx)
	je	.L1157
	cmpq	$0, _ZL28__gthrw___pthread_key_createPjPFvPvE@GOTPCREL(%rip)
	je	.L1158
	addq	$8, %rax
	jmp	.L1183
	.p2align 4,,10
	.p2align 3
.L1140:
	movq	16(%rsi), %rax
	movq	%rax, 40(%rdi)
	movq	24(%rsi), %rax
	testq	%rax, %rax
	movq	%rax, 48(%rdi)
	je	.L1146
	cmpq	$0, _ZL28__gthrw___pthread_key_createPjPFvPvE@GOTPCREL(%rip)
	je	.L1144
	addq	$8, %rax
	jmp	.L1179
	.p2align 4,,10
	.p2align 3
.L1245:
	cmpq	$0, _ZL28__gthrw___pthread_key_createPjPFvPvE@GOTPCREL(%rip)
	je	.L1155
	addq	$8, %rax
	jmp	.L1182
	.p2align 4,,10
	.p2align 3
.L1244:
	cmpq	$0, _ZL28__gthrw___pthread_key_createPjPFvPvE@GOTPCREL(%rip)
	je	.L1152
	addq	$8, %rax
	jmp	.L1181
	.p2align 4,,10
	.p2align 3
.L1146:
	movq	0(%r13), %rax
	movq	%rax, 56(%rdi)
	movq	8(%r13), %rax
	testq	%rax, %rax
	movq	%rax, 64(%rdi)
	je	.L1148
	cmpq	$0, _ZL28__gthrw___pthread_key_createPjPFvPvE@GOTPCREL(%rip)
	je	.L1149
.L1184:
	addq	$8, %rax
	jmp	.L1180
.L1185:
	movq	%rax, %rbp
.L1173:
	movq	184(%rbx), %rdi
	testq	%rdi, %rdi
	je	.L1174
	call	_ZNSt16_Sp_counted_baseILN9__gnu_cxx12_Lock_policyE2EE10_M_releaseEv@PLT
.L1174:
	movq	152(%rbx), %rdi
	testq	%rdi, %rdi
	je	.L1175
	call	_ZNSt16_Sp_counted_baseILN9__gnu_cxx12_Lock_policyE2EE10_M_releaseEv@PLT
.L1175:
	movq	136(%rbx), %rdi
	testq	%rdi, %rdi
	je	.L1176
	call	_ZNSt16_Sp_counted_baseILN9__gnu_cxx12_Lock_policyE2EE10_M_releaseEv@PLT
.L1176:
	movq	80(%rbx), %rdi
	testq	%rdi, %rdi
	je	.L1177
	call	_ZNSt16_Sp_counted_baseILN9__gnu_cxx12_Lock_policyE2EE10_M_releaseEv@PLT
.L1177:
	movq	64(%rbx), %rdi
	testq	%rdi, %rdi
	je	.L1178
	call	_ZNSt16_Sp_counted_baseILN9__gnu_cxx12_Lock_policyE2EE10_M_releaseEv@PLT
.L1178:
	leaq	24(%rbx), %rdi
	call	_ZN7openpal6LoggerD1Ev@PLT
	movq	%rbp, %rdi
.LEHB28:
	call	_Unwind_Resume@PLT
.LEHE28:
.L1188:
	movq	%rax, %rbp
.L1170:
	movq	24(%rsp), %rdi
	call	_ZN7openpal8TimerRefD1Ev@PLT
.L1171:
	movq	16(%rsp), %rdi
	call	_ZN7openpal8TimerRefD1Ev@PLT
.L1172:
	movq	8(%rsp), %rdi
	call	_ZN7openpal8TimerRefD1Ev@PLT
	jmp	.L1173
.L1189:
	movq	%rax, %rbp
.L1169:
	movq	%r13, %rdi
	call	_ZN8opendnp311MasterTasksD1Ev@PLT
	jmp	.L1170
.L1190:
	movq	%rax, %r12
.L1164:
	leaq	384(%rbx), %rdi
	movq	%r12, %rbp
	call	_ZNSt6vectorISt10shared_ptrIN8opendnp311IMasterTaskEESaIS3_EED1Ev@PLT
	jmp	.L1169
.L1193:
	movq	%rax, %rdi
	call	__cxa_begin_catch@PLT
.LEHB29:
	call	__cxa_rethrow@PLT
.LEHE29:
.L1186:
	movq	%rax, %rbp
	jmp	.L1172
.L1194:
	movq	%rax, %rbp
	call	__cxa_end_catch@PLT
	movq	%rbp, %rdi
	call	__cxa_begin_catch@PLT
	movq	408(%rbx), %rdi
	call	_ZdlPv@PLT
	movq	$0, 408(%rbx)
	movq	$0, 416(%rbx)
.LEHB30:
	call	__cxa_rethrow@PLT
.LEHE30:
.L1187:
	movq	%rax, %rbp
	jmp	.L1171
.L1191:
	cmpq	$0, 408(%rbx)
	movq	%rax, %r12
	je	.L1164
	movq	480(%rbx), %rax
	movq	448(%rbx), %r14
	leaq	8(%rax), %rbp
.L1168:
	cmpq	%r14, %rbp
	jbe	.L1167
	movq	(%r14), %rdi
	addq	$8, %r14
	call	_ZdlPv@PLT
	jmp	.L1168
.L1192:
	movq	%rax, %r12
	call	__cxa_end_catch@PLT
	jmp	.L1164
.L1167:
	movq	408(%rbx), %rdi
	call	_ZdlPv@PLT
	jmp	.L1164
	.cfi_endproc
.LFE3336:
	.section	.gcc_except_table
	.align 4
.LLSDA3336:
	.byte	0xff
	.byte	0x9b
	.uleb128 .LLSDATT3336-.LLSDATTD3336
.LLSDATTD3336:
	.byte	0x1
	.uleb128 .LLSDACSE3336-.LLSDACSB3336
.LLSDACSB3336:
	.uleb128 .LEHB20-.LFB3336
	.uleb128 .LEHE20-.LEHB20
	.uleb128 .L1185-.LFB3336
	.uleb128 0
	.uleb128 .LEHB21-.LFB3336
	.uleb128 .LEHE21-.LEHB21
	.uleb128 .L1186-.LFB3336
	.uleb128 0
	.uleb128 .LEHB22-.LFB3336
	.uleb128 .LEHE22-.LEHB22
	.uleb128 .L1187-.LFB3336
	.uleb128 0
	.uleb128 .LEHB23-.LFB3336
	.uleb128 .LEHE23-.LEHB23
	.uleb128 .L1188-.LFB3336
	.uleb128 0
	.uleb128 .LEHB24-.LFB3336
	.uleb128 .LEHE24-.LEHB24
	.uleb128 .L1189-.LFB3336
	.uleb128 0
	.uleb128 .LEHB25-.LFB3336
	.uleb128 .LEHE25-.LEHB25
	.uleb128 .L1190-.LFB3336
	.uleb128 0
	.uleb128 .LEHB26-.LFB3336
	.uleb128 .LEHE26-.LEHB26
	.uleb128 .L1193-.LFB3336
	.uleb128 0x1
	.uleb128 .LEHB27-.LFB3336
	.uleb128 .LEHE27-.LEHB27
	.uleb128 .L1191-.LFB3336
	.uleb128 0
	.uleb128 .LEHB28-.LFB3336
	.uleb128 .LEHE28-.LEHB28
	.uleb128 0
	.uleb128 0
	.uleb128 .LEHB29-.LFB3336
	.uleb128 .LEHE29-.LEHB29
	.uleb128 .L1194-.LFB3336
	.uleb128 0x1
	.uleb128 .LEHB30-.LFB3336
	.uleb128 .LEHE30-.LEHB30
	.uleb128 .L1192-.LFB3336
	.uleb128 0
.LLSDACSE3336:
	.byte	0x1
	.byte	0
	.align 4
	.long	0

.LLSDATT3336:
	.text
	.size	_ZN8opendnp38MContextC2ERKN7openpal6LoggerERKSt10shared_ptrINS1_9IExecutorEERKS5_INS_11ILowerLayerEERKS5_INS_11ISOEHandlerEERKS5_INS_18IMasterApplicationEERKNS_12MasterParamsERNS_9ITaskLockE, .-_ZN8opendnp38MContextC2ERKN7openpal6LoggerERKSt10shared_ptrINS1_9IExecutorEERKS5_INS_11ILowerLayerEERKS5_INS_11ISOEHandlerEERKS5_INS_18IMasterApplicationEERKNS_12MasterParamsERNS_9ITaskLockE
	.globl	_ZN8opendnp38MContextC1ERKN7openpal6LoggerERKSt10shared_ptrINS1_9IExecutorEERKS5_INS_11ILowerLayerEERKS5_INS_11ISOEHandlerEERKS5_INS_18IMasterApplicationEERKNS_12MasterParamsERNS_9ITaskLockE
	.set	_ZN8opendnp38MContextC1ERKN7openpal6LoggerERKSt10shared_ptrINS1_9IExecutorEERKS5_INS_11ILowerLayerEERKS5_INS_11ISOEHandlerEERKS5_INS_18IMasterApplicationEERKNS_12MasterParamsERNS_9ITaskLockE,_ZN8opendnp38MContextC2ERKN7openpal6LoggerERKSt10shared_ptrINS1_9IExecutorEERKS5_INS_11ILowerLayerEERKS5_INS_11ISOEHandlerEERKS5_INS_18IMasterApplicationEERKNS_12MasterParamsERNS_9ITaskLockE
	.align 2
	.p2align 4,,15
	.globl	_ZN8opendnp38MContext7AddScanEN7openpal12TimeDurationERKSt8functionIFbRNS_12HeaderWriterEEENS_10TaskConfigE
	.type	_ZN8opendnp38MContext7AddScanEN7openpal12TimeDurationERKSt8functionIFbRNS_12HeaderWriterEEENS_10TaskConfigE, @function
_ZN8opendnp38MContext7AddScanEN7openpal12TimeDurationERKSt8functionIFbRNS_12HeaderWriterEEENS_10TaskConfigE:
.LFB3363:
	.cfi_startproc
	.cfi_personality 0x9b,DW.ref.__gxx_personality_v0
	.cfi_lsda 0x1b,.LLSDA3363
	pushq	%rbp
	.cfi_def_cfa_offset 16
	.cfi_offset 6, -16
	movq	%rsi, %rax
	movq	%rsp, %rbp
	.cfi_def_cfa_register 6
	pushq	%r15
	pushq	%r14
	pushq	%r13
	pushq	%r12
	.cfi_offset 15, -24
	.cfi_offset 14, -32
	.cfi_offset 13, -40
	.cfi_offset 12, -48
	movq	%r9, %r14
	pushq	%rbx
	movq	%rdi, %r12
	movl	$176, %edi
	movq	%r8, %r13
	subq	$88, %rsp
	.cfi_offset 3, -56
	movq	128(%rax), %r9
	movq	%rdx, -128(%rbp)
	movq	%fs:40, %rsi
	movq	%rsi, -56(%rbp)
	xorl	%esi, %esi
	movq	%rcx, -120(%rbp)
	movq	%rax, -104(%rbp)
	movq	%r9, -112(%rbp)
	movq	144(%rax), %r15
.LEHB31:
	call	_Znwm@PLT
.LEHE31:
	movq	%rax, %rbx
	movabsq	$4294967297, %rax
	movq	-104(%rbp), %rcx
	movq	%rax, 8(%rbx)
	movq	_ZTVSt23_Sp_counted_ptr_inplaceIN8opendnp312UserPollTaskESaIS1_ELN9__gnu_cxx12_Lock_policyE2EE@GOTPCREL(%rip), %rax
	leaq	16(%rbx), %rdi
	movq	-112(%rbp), %r9
	movq	-120(%rbp), %rsi
	movq	104(%rcx), %r8
	movq	-128(%rbp), %rdx
	addq	$16, %rax
	movq	%rax, (%rbx)
	movq	24(%rcx), %rax
	movq	%rax, -96(%rbp)
	movq	32(%rcx), %rax
	testq	%rax, %rax
	movq	%rax, -88(%rbp)
	je	.L1247
	cmpq	$0, _ZL28__gthrw___pthread_key_createPjPFvPvE@GOTPCREL(%rip)
	jne	.L1302
	addl	$1, 8(%rax)
	movq	40(%rcx), %rax
	movq	%rax, -80(%rbp)
	movq	48(%rcx), %rax
	testq	%rax, %rax
	movq	%rax, -72(%rbp)
	je	.L1252
.L1251:
	addl	$1, 8(%rax)
.L1252:
	pushq	%r14
	pushq	%r13
	leaq	-96(%rbp), %r13
	movq	%rdx, %rcx
	movl	$1, %edx
	pushq	%r13
	pushq	%r9
	movq	%r15, %r9
.LEHB32:
	.cfi_escape 0x2e,0x20
	call	_ZN8opendnp312UserPollTaskC1ERKSt8functionIFbRNS_12HeaderWriterEEEbN7openpal12TimeDurationES9_RNS_18IMasterApplicationERNS_11ISOEHandlerENS8_6LoggerENS_10TaskConfigE@PLT
.LEHE32:
	movq	-72(%rbp), %r15
	addq	$32, %rsp
	movq	_ZL28__gthrw___pthread_key_createPjPFvPvE@GOTPCREL(%rip), %r14
	testq	%r15, %r15
	je	.L1254
	testq	%r14, %r14
	je	.L1255
	lock subl	$1, 8(%r15)
	je	.L1303
.L1254:
	movq	-88(%rbp), %r15
	testq	%r15, %r15
	je	.L1265
	testq	%r14, %r14
	je	.L1260
	lock subl	$1, 8(%r15)
	je	.L1304
	movq	(%rbx), %rax
	movq	_ZTISt19_Sp_make_shared_tag@GOTPCREL(%rip), %rsi
	movq	%rbx, %rdi
	call	*32(%rax)
	movq	%rbx, -88(%rbp)
	movq	%rax, %r15
	movq	%rax, -96(%rbp)
.L1277:
	lock addl	$1, 8(%rbx)
.L1267:
	movq	-104(%rbp), %rdi
	movq	%r13, %rsi
.LEHB33:
	.cfi_escape 0x2e,0
	call	_ZN8opendnp38MContext25ScheduleRecurringPollTaskERKSt10shared_ptrINS_11IMasterTaskEE@PLT
.LEHE33:
	movq	-88(%rbp), %rax
	testq	%rax, %rax
	movq	%rax, %r13
	je	.L1269
	testq	%r14, %r14
	je	.L1270
	movq	%rax, %rdi
	lock subl	$1, 8(%rax)
	je	.L1305
.L1269:
	movq	-56(%rbp), %rdx
	xorq	%fs:40, %rdx
	movq	%r15, (%r12)
	movq	%rbx, 8(%r12)
	movq	%r12, %rax
	jne	.L1306
	leaq	-40(%rbp), %rsp
	popq	%rbx
	popq	%r12
	popq	%r13
	popq	%r14
	popq	%r15
	popq	%rbp
	.cfi_remember_state
	.cfi_def_cfa 7, 8
	ret
	.p2align 4,,10
	.p2align 3
.L1302:
	.cfi_restore_state
	lock addl	$1, 8(%rax)
	movq	40(%rcx), %rax
	movq	48(%rcx), %rcx
	testq	%rcx, %rcx
	movq	%rax, -80(%rbp)
	movq	%rcx, -72(%rbp)
	leaq	8(%rcx), %rax
	je	.L1252
.L1279:
	lock addl	$1, (%rax)
	jmp	.L1252
	.p2align 4,,10
	.p2align 3
.L1260:
	movl	8(%r15), %eax
	leal	-1(%rax), %edx
	cmpl	$1, %eax
	movl	%edx, 8(%r15)
	jne	.L1299
	movq	(%r15), %rax
	movq	%r15, %rdi
	call	*16(%rax)
	movl	12(%r15), %eax
	leal	-1(%rax), %edx
	movl	%edx, 12(%r15)
.L1281:
	cmpl	$1, %eax
	jne	.L1265
	movq	(%r15), %rax
	movq	%r15, %rdi
	call	*24(%rax)
	.p2align 4,,10
	.p2align 3
.L1265:
	movq	(%rbx), %rax
	movq	_ZTISt19_Sp_make_shared_tag@GOTPCREL(%rip), %rsi
	movq	%rbx, %rdi
	call	*32(%rax)
	testq	%r14, %r14
	movq	%rax, %r15
	movq	%rax, -96(%rbp)
	movq	%rbx, -88(%rbp)
	jne	.L1277
.L1278:
	addl	$1, 8(%rbx)
	jmp	.L1267
	.p2align 4,,10
	.p2align 3
.L1247:
	movq	40(%rcx), %rax
	movq	%rax, -80(%rbp)
	movq	48(%rcx), %rax
	testq	%rax, %rax
	movq	%rax, -72(%rbp)
	je	.L1252
	cmpq	$0, _ZL28__gthrw___pthread_key_createPjPFvPvE@GOTPCREL(%rip)
	je	.L1251
	addq	$8, %rax
	jmp	.L1279
	.p2align 4,,10
	.p2align 3
.L1270:
	movq	%rax, %rdi
	movl	8(%rax), %eax
	leal	-1(%rax), %edx
	cmpl	$1, %eax
	movl	%edx, 8(%r13)
	jne	.L1269
	movq	0(%r13), %rax
	call	*16(%rax)
	movl	12(%r13), %eax
	leal	-1(%rax), %edx
	movl	%edx, 12(%r13)
.L1282:
	cmpl	$1, %eax
	jne	.L1269
	movq	0(%r13), %rax
	movq	%r13, %rdi
	call	*24(%rax)
	jmp	.L1269
	.p2align 4,,10
	.p2align 3
.L1255:
	movl	8(%r15), %eax
	leal	-1(%rax), %edx
	cmpl	$1, %eax
	movl	%edx, 8(%r15)
	jne	.L1254
	movq	(%r15), %rax
	movq	%r15, %rdi
	call	*16(%rax)
	movl	12(%r15), %eax
	leal	-1(%rax), %edx
	movl	%edx, 12(%r15)
.L1280:
	cmpl	$1, %eax
	jne	.L1254
	movq	(%r15), %rax
	movq	%r15, %rdi
	call	*24(%rax)
	jmp	.L1254
	.p2align 4,,10
	.p2align 3
.L1299:
	movq	(%rbx), %rax
	movq	_ZTISt19_Sp_make_shared_tag@GOTPCREL(%rip), %rsi
	movq	%rbx, %rdi
	call	*32(%rax)
	movq	%rbx, -88(%rbp)
	movq	%rax, %r15
	movq	%rax, -96(%rbp)
	jmp	.L1278
	.p2align 4,,10
	.p2align 3
.L1305:
	movq	(%rax), %rax
	call	*16(%rax)
	movl	$-1, %eax
	lock xaddl	%eax, 12(%r13)
	jmp	.L1282
	.p2align 4,,10
	.p2align 3
.L1304:
	movq	(%r15), %rax
	movq	%r15, %rdi
	call	*16(%rax)
	movl	$-1, %eax
	lock xaddl	%eax, 12(%r15)
	jmp	.L1281
	.p2align 4,,10
	.p2align 3
.L1303:
	movq	(%r15), %rax
	movq	%r15, %rdi
	call	*16(%rax)
	movl	$-1, %eax
	lock xaddl	%eax, 12(%r15)
	jmp	.L1280
.L1306:
	call	__stack_chk_fail@PLT
.L1284:
	movq	-88(%rbp), %rdi
	movq	%rax, %r14
	testq	%rdi, %rdi
	je	.L1275
	call	_ZNSt16_Sp_counted_baseILN9__gnu_cxx12_Lock_policyE2EE10_M_releaseEv@PLT
.L1275:
	movq	%rbx, %rdi
	call	_ZNSt16_Sp_counted_baseILN9__gnu_cxx12_Lock_policyE2EE10_M_releaseEv@PLT
	movq	%r14, %rdi
.LEHB34:
	call	_Unwind_Resume@PLT
.L1285:
	movq	%r13, %rdi
	movq	%rax, %r14
	call	_ZN7openpal6LoggerD1Ev@PLT
	movq	%rbx, %rdi
	call	_ZdlPv@PLT
	movq	%r14, %rdi
	call	_Unwind_Resume@PLT
.LEHE34:
	.cfi_endproc
.LFE3363:
	.section	.gcc_except_table
.LLSDA3363:
	.byte	0xff
	.byte	0xff
	.byte	0x1
	.uleb128 .LLSDACSE3363-.LLSDACSB3363
.LLSDACSB3363:
	.uleb128 .LEHB31-.LFB3363
	.uleb128 .LEHE31-.LEHB31
	.uleb128 0
	.uleb128 0
	.uleb128 .LEHB32-.LFB3363
	.uleb128 .LEHE32-.LEHB32
	.uleb128 .L1285-.LFB3363
	.uleb128 0
	.uleb128 .LEHB33-.LFB3363
	.uleb128 .LEHE33-.LEHB33
	.uleb128 .L1284-.LFB3363
	.uleb128 0
	.uleb128 .LEHB34-.LFB3363
	.uleb128 .LEHE34-.LEHB34
	.uleb128 0
	.uleb128 0
.LLSDACSE3363:
	.text
	.size	_ZN8opendnp38MContext7AddScanEN7openpal12TimeDurationERKSt8functionIFbRNS_12HeaderWriterEEENS_10TaskConfigE, .-_ZN8opendnp38MContext7AddScanEN7openpal12TimeDurationERKSt8functionIFbRNS_12HeaderWriterEEENS_10TaskConfigE
	.align 2
	.p2align 4,,15
	.globl	_ZN8opendnp38MContext12AddClassScanERKNS_10ClassFieldEN7openpal12TimeDurationENS_10TaskConfigE
	.type	_ZN8opendnp38MContext12AddClassScanERKNS_10ClassFieldEN7openpal12TimeDurationENS_10TaskConfigE, @function
_ZN8opendnp38MContext12AddClassScanERKNS_10ClassFieldEN7openpal12TimeDurationENS_10TaskConfigE:
.LFB3370:
	.cfi_startproc
	.cfi_personality 0x9b,DW.ref.__gxx_personality_v0
	.cfi_lsda 0x1b,.LLSDA3370
	pushq	%rbp
	.cfi_def_cfa_offset 16
	.cfi_offset 6, -16
	pushq	%rbx
	.cfi_def_cfa_offset 24
	.cfi_offset 3, -24
	movq	%rcx, %rax
	leaq	_ZNSt14_Function_base13_Base_managerIZN8opendnp38MContext12AddClassScanERKNS1_10ClassFieldEN7openpal12TimeDurationENS1_10TaskConfigEEUlRNS1_12HeaderWriterEE_E10_M_managerERSt9_Any_dataRKSD_St18_Manager_operation(%rip), %rcx
	movq	%rdi, %rbp
	subq	$72, %rsp
	.cfi_def_cfa_offset 96
	movzbl	(%rdx), %edx
	movq	%rcx, 8(%rsp)
	leaq	16(%rsp), %rbx
	movq	8(%rsp), %xmm0
	movq	%fs:40, %rdi
	movq	%rdi, 56(%rsp)
	xorl	%edi, %edi
	movb	%dl, 16(%rsp)
	leaq	_ZNSt17_Function_handlerIFbRN8opendnp312HeaderWriterEEZNS0_8MContext12AddClassScanERKNS0_10ClassFieldEN7openpal12TimeDurationENS0_10TaskConfigEEUlS2_E_E9_M_invokeERKSt9_Any_dataS2_(%rip), %rdx
	movq	%rbx, %rcx
	movq	%rbp, %rdi
	movq	%rdx, 8(%rsp)
	movq	%rax, %rdx
	movhps	8(%rsp), %xmm0
	movaps	%xmm0, 32(%rsp)
.LEHB35:
	call	_ZN8opendnp38MContext7AddScanEN7openpal12TimeDurationERKSt8functionIFbRNS_12HeaderWriterEEENS_10TaskConfigE@PLT
.LEHE35:
	movq	32(%rsp), %rax
	testq	%rax, %rax
	je	.L1307
	movl	$3, %edx
	movq	%rbx, %rsi
	movq	%rbx, %rdi
	call	*%rax
.L1307:
	movq	56(%rsp), %rbx
	xorq	%fs:40, %rbx
	movq	%rbp, %rax
	jne	.L1320
	addq	$72, %rsp
	.cfi_remember_state
	.cfi_def_cfa_offset 24
	popq	%rbx
	.cfi_def_cfa_offset 16
	popq	%rbp
	.cfi_def_cfa_offset 8
	ret
.L1320:
	.cfi_restore_state
	call	__stack_chk_fail@PLT
.L1312:
	movq	%rax, %rbp
	movq	32(%rsp), %rax
	testq	%rax, %rax
	je	.L1310
	movl	$3, %edx
	movq	%rbx, %rsi
	movq	%rbx, %rdi
	call	*%rax
.L1310:
	movq	%rbp, %rdi
.LEHB36:
	call	_Unwind_Resume@PLT
.LEHE36:
	.cfi_endproc
.LFE3370:
	.section	.gcc_except_table
.LLSDA3370:
	.byte	0xff
	.byte	0xff
	.byte	0x1
	.uleb128 .LLSDACSE3370-.LLSDACSB3370
.LLSDACSB3370:
	.uleb128 .LEHB35-.LFB3370
	.uleb128 .LEHE35-.LEHB35
	.uleb128 .L1312-.LFB3370
	.uleb128 0
	.uleb128 .LEHB36-.LFB3370
	.uleb128 .LEHE36-.LEHB36
	.uleb128 0
	.uleb128 0
.LLSDACSE3370:
	.text
	.size	_ZN8opendnp38MContext12AddClassScanERKNS_10ClassFieldEN7openpal12TimeDurationENS_10TaskConfigE, .-_ZN8opendnp38MContext12AddClassScanERKNS_10ClassFieldEN7openpal12TimeDurationENS_10TaskConfigE
	.align 2
	.p2align 4,,15
	.globl	_ZN8opendnp38MContext17AddAllObjectsScanENS_16GroupVariationIDEN7openpal12TimeDurationENS_10TaskConfigE
	.type	_ZN8opendnp38MContext17AddAllObjectsScanENS_16GroupVariationIDEN7openpal12TimeDurationENS_10TaskConfigE, @function
_ZN8opendnp38MContext17AddAllObjectsScanENS_16GroupVariationIDEN7openpal12TimeDurationENS_10TaskConfigE:
.LFB3375:
	.cfi_startproc
	.cfi_personality 0x9b,DW.ref.__gxx_personality_v0
	.cfi_lsda 0x1b,.LLSDA3375
	pushq	%rbp
	.cfi_def_cfa_offset 16
	.cfi_offset 6, -16
	pushq	%rbx
	.cfi_def_cfa_offset 24
	.cfi_offset 3, -24
	movl	%edx, %eax
	movq	%rdi, %rbp
	leaq	_ZNSt14_Function_base13_Base_managerIZN8opendnp38MContext17AddAllObjectsScanENS1_16GroupVariationIDEN7openpal12TimeDurationENS1_10TaskConfigEEUlRNS1_12HeaderWriterEE_E10_M_managerERSt9_Any_dataRKSB_St18_Manager_operation(%rip), %rdi
	movq	%rcx, %rdx
	subq	$72, %rsp
	.cfi_def_cfa_offset 96
	movzbl	%ah, %ecx
	movb	%al, 16(%rsp)
	leaq	_ZNSt17_Function_handlerIFbRN8opendnp312HeaderWriterEEZNS0_8MContext17AddAllObjectsScanENS0_16GroupVariationIDEN7openpal12TimeDurationENS0_10TaskConfigEEUlS2_E_E9_M_invokeERKSt9_Any_dataS2_(%rip), %rax
	movq	%rdi, 8(%rsp)
	movq	8(%rsp), %xmm0
	movb	%cl, 17(%rsp)
	movq	%fs:40, %rbx
	movq	%rbx, 56(%rsp)
	xorl	%ebx, %ebx
	movq	%rax, 8(%rsp)
	leaq	16(%rsp), %rbx
	movq	%rbp, %rdi
	movhps	8(%rsp), %xmm0
	movq	%rbx, %rcx
	movaps	%xmm0, 32(%rsp)
.LEHB37:
	call	_ZN8opendnp38MContext7AddScanEN7openpal12TimeDurationERKSt8functionIFbRNS_12HeaderWriterEEENS_10TaskConfigE@PLT
.LEHE37:
	movq	32(%rsp), %rax
	testq	%rax, %rax
	je	.L1321
	movl	$3, %edx
	movq	%rbx, %rsi
	movq	%rbx, %rdi
	call	*%rax
.L1321:
	movq	56(%rsp), %rcx
	xorq	%fs:40, %rcx
	movq	%rbp, %rax
	jne	.L1334
	addq	$72, %rsp
	.cfi_remember_state
	.cfi_def_cfa_offset 24
	popq	%rbx
	.cfi_def_cfa_offset 16
	popq	%rbp
	.cfi_def_cfa_offset 8
	ret
.L1334:
	.cfi_restore_state
	call	__stack_chk_fail@PLT
.L1326:
	movq	%rax, %rbp
	movq	32(%rsp), %rax
	testq	%rax, %rax
	je	.L1324
	movl	$3, %edx
	movq	%rbx, %rsi
	movq	%rbx, %rdi
	call	*%rax
.L1324:
	movq	%rbp, %rdi
.LEHB38:
	call	_Unwind_Resume@PLT
.LEHE38:
	.cfi_endproc
.LFE3375:
	.section	.gcc_except_table
.LLSDA3375:
	.byte	0xff
	.byte	0xff
	.byte	0x1
	.uleb128 .LLSDACSE3375-.LLSDACSB3375
.LLSDACSB3375:
	.uleb128 .LEHB37-.LFB3375
	.uleb128 .LEHE37-.LEHB37
	.uleb128 .L1326-.LFB3375
	.uleb128 0
	.uleb128 .LEHB38-.LFB3375
	.uleb128 .LEHE38-.LEHB38
	.uleb128 0
	.uleb128 0
.LLSDACSE3375:
	.text
	.size	_ZN8opendnp38MContext17AddAllObjectsScanENS_16GroupVariationIDEN7openpal12TimeDurationENS_10TaskConfigE, .-_ZN8opendnp38MContext17AddAllObjectsScanENS_16GroupVariationIDEN7openpal12TimeDurationENS_10TaskConfigE
	.align 2
	.p2align 4,,15
	.globl	_ZN8opendnp38MContext12AddRangeScanENS_16GroupVariationIDEttN7openpal12TimeDurationENS_10TaskConfigE
	.type	_ZN8opendnp38MContext12AddRangeScanENS_16GroupVariationIDEttN7openpal12TimeDurationENS_10TaskConfigE, @function
_ZN8opendnp38MContext12AddRangeScanENS_16GroupVariationIDEttN7openpal12TimeDurationENS_10TaskConfigE:
.LFB3377:
	.cfi_startproc
	.cfi_personality 0x9b,DW.ref.__gxx_personality_v0
	.cfi_lsda 0x1b,.LLSDA3377
	pushq	%rbp
	.cfi_def_cfa_offset 16
	.cfi_offset 6, -16
	pushq	%rbx
	.cfi_def_cfa_offset 24
	.cfi_offset 3, -24
	movl	%edx, %eax
	leaq	_ZNSt14_Function_base13_Base_managerIZN8opendnp38MContext12AddRangeScanENS1_16GroupVariationIDEttN7openpal12TimeDurationENS1_10TaskConfigEEUlRNS1_12HeaderWriterEE_E10_M_managerERSt9_Any_dataRKSB_St18_Manager_operation(%rip), %rbx
	movq	%rdi, %rbp
	movq	%r9, %rdx
	subq	$72, %rsp
	.cfi_def_cfa_offset 96
	movq	%fs:40, %rdi
	movq	%rdi, 56(%rsp)
	xorl	%edi, %edi
	movb	%al, 16(%rsp)
	movzbl	%ah, %edi
	leaq	_ZNSt17_Function_handlerIFbRN8opendnp312HeaderWriterEEZNS0_8MContext12AddRangeScanENS0_16GroupVariationIDEttN7openpal12TimeDurationENS0_10TaskConfigEEUlS2_E_E9_M_invokeERKSt9_Any_dataS2_(%rip), %rax
	movq	%rbx, 8(%rsp)
	movw	%r8w, 20(%rsp)
	leaq	16(%rsp), %rbx
	movq	8(%rsp), %xmm0
	movq	96(%rsp), %r8
	movq	%rax, 8(%rsp)
	movq	104(%rsp), %r9
	movhps	8(%rsp), %xmm0
	movb	%dil, 17(%rsp)
	movw	%cx, 18(%rsp)
	movq	%rbp, %rdi
	movq	%rbx, %rcx
	movaps	%xmm0, 32(%rsp)
.LEHB39:
	call	_ZN8opendnp38MContext7AddScanEN7openpal12TimeDurationERKSt8functionIFbRNS_12HeaderWriterEEENS_10TaskConfigE@PLT
.LEHE39:
	movq	32(%rsp), %rax
	testq	%rax, %rax
	je	.L1335
	movl	$3, %edx
	movq	%rbx, %rsi
	movq	%rbx, %rdi
	call	*%rax
.L1335:
	movq	56(%rsp), %rcx
	xorq	%fs:40, %rcx
	movq	%rbp, %rax
	jne	.L1348
	addq	$72, %rsp
	.cfi_remember_state
	.cfi_def_cfa_offset 24
	popq	%rbx
	.cfi_def_cfa_offset 16
	popq	%rbp
	.cfi_def_cfa_offset 8
	ret
.L1348:
	.cfi_restore_state
	call	__stack_chk_fail@PLT
.L1340:
	movq	%rax, %rbp
	movq	32(%rsp), %rax
	testq	%rax, %rax
	je	.L1338
	movl	$3, %edx
	movq	%rbx, %rsi
	movq	%rbx, %rdi
	call	*%rax
.L1338:
	movq	%rbp, %rdi
.LEHB40:
	call	_Unwind_Resume@PLT
.LEHE40:
	.cfi_endproc
.LFE3377:
	.section	.gcc_except_table
.LLSDA3377:
	.byte	0xff
	.byte	0xff
	.byte	0x1
	.uleb128 .LLSDACSE3377-.LLSDACSB3377
.LLSDACSB3377:
	.uleb128 .LEHB39-.LFB3377
	.uleb128 .LEHE39-.LEHB39
	.uleb128 .L1340-.LFB3377
	.uleb128 0
	.uleb128 .LEHB40-.LFB3377
	.uleb128 .LEHE40-.LEHB40
	.uleb128 0
	.uleb128 0
.LLSDACSE3377:
	.text
	.size	_ZN8opendnp38MContext12AddRangeScanENS_16GroupVariationIDEttN7openpal12TimeDurationENS_10TaskConfigE, .-_ZN8opendnp38MContext12AddRangeScanENS_16GroupVariationIDEttN7openpal12TimeDurationENS_10TaskConfigE
	.align 2
	.p2align 4,,15
	.globl	_ZN8opendnp38MContext4ScanERKSt8functionIFbRNS_12HeaderWriterEEENS_10TaskConfigE
	.type	_ZN8opendnp38MContext4ScanERKSt8functionIFbRNS_12HeaderWriterEEENS_10TaskConfigE, @function
_ZN8opendnp38MContext4ScanERKSt8functionIFbRNS_12HeaderWriterEEENS_10TaskConfigE:
.LFB3379:
	.cfi_startproc
	.cfi_personality 0x9b,DW.ref.__gxx_personality_v0
	.cfi_lsda 0x1b,.LLSDA3379
	pushq	%rbp
	.cfi_def_cfa_offset 16
	.cfi_offset 6, -16
	movq	%rsp, %rbp
	.cfi_def_cfa_register 6
	pushq	%r15
	pushq	%r14
	pushq	%r13
	pushq	%r12
	.cfi_offset 15, -24
	.cfi_offset 14, -32
	.cfi_offset 13, -40
	.cfi_offset 12, -48
	movq	%rdi, %r15
	pushq	%rbx
	subq	$88, %rsp
	.cfi_offset 3, -56
	movq	%rsi, -112(%rbp)
	movq	%rdx, -128(%rbp)
	movq	%rcx, -120(%rbp)
	movq	%rdi, -104(%rbp)
	movq	%fs:40, %rax
	movq	%rax, -56(%rbp)
	xorl	%eax, %eax
	movq	128(%rdi), %r12
	movq	144(%rdi), %r14
.LEHB41:
	call	_ZN7openpal12TimeDuration3MaxEv@PLT
	movl	$176, %edi
	movq	%rax, %r13
	call	_Znwm@PLT
.LEHE41:
	movq	%rax, %rbx
	movabsq	$4294967297, %rax
	movq	104(%r15), %r8
	movq	%rax, 8(%rbx)
	movq	_ZTVSt23_Sp_counted_ptr_inplaceIN8opendnp312UserPollTaskESaIS1_ELN9__gnu_cxx12_Lock_policyE2EE@GOTPCREL(%rip), %rax
	leaq	16(%rbx), %rdi
	movq	-128(%rbp), %rdx
	movq	-120(%rbp), %rcx
	movq	-112(%rbp), %rsi
	addq	$16, %rax
	movq	%rax, (%rbx)
	movq	24(%r15), %rax
	movq	%rax, -96(%rbp)
	movq	32(%r15), %rax
	testq	%rax, %rax
	movq	%rax, -88(%rbp)
	je	.L1350
	cmpq	$0, _ZL28__gthrw___pthread_key_createPjPFvPvE@GOTPCREL(%rip)
	jne	.L1422
	movq	-104(%rbp), %r10
	addl	$1, 8(%rax)
	movq	40(%r10), %rax
	movq	%rax, -80(%rbp)
	movq	48(%r10), %rax
	testq	%rax, %rax
	movq	%rax, -72(%rbp)
	je	.L1355
.L1354:
	addl	$1, 8(%rax)
.L1355:
	leaq	-96(%rbp), %r15
	pushq	%rcx
	pushq	%rdx
	movq	%r14, %r9
	movq	%r13, %rcx
	xorl	%edx, %edx
	pushq	%r15
	pushq	%r12
.LEHB42:
	.cfi_escape 0x2e,0x20
	call	_ZN8opendnp312UserPollTaskC1ERKSt8functionIFbRNS_12HeaderWriterEEEbN7openpal12TimeDurationES9_RNS_18IMasterApplicationERNS_11ISOEHandlerENS8_6LoggerENS_10TaskConfigE@PLT
.LEHE42:
	movq	-72(%rbp), %r12
	addq	$32, %rsp
	movq	_ZL28__gthrw___pthread_key_createPjPFvPvE@GOTPCREL(%rip), %r13
	testq	%r12, %r12
	je	.L1357
	testq	%r13, %r13
	je	.L1358
	lock subl	$1, 8(%r12)
	je	.L1423
.L1357:
	movq	-88(%rbp), %r12
	testq	%r12, %r12
	je	.L1368
	testq	%r13, %r13
	je	.L1363
	lock subl	$1, 8(%r12)
	je	.L1424
	movq	(%rbx), %rax
	leaq	8(%rbx), %r12
	movq	_ZTISt19_Sp_make_shared_tag@GOTPCREL(%rip), %rsi
	movq	%rbx, %rdi
	call	*32(%rax)
	movq	%rbx, -88(%rbp)
	movq	%rax, -96(%rbp)
.L1384:
	lock addl	$1, (%r12)
.L1370:
	movq	-104(%rbp), %rdi
	movq	%r15, %rsi
.LEHB43:
	.cfi_escape 0x2e,0
	call	_ZN8opendnp38MContext17ScheduleAdhocTaskERKSt10shared_ptrINS_11IMasterTaskEE@PLT
.LEHE43:
	movq	-88(%rbp), %rax
	testq	%rax, %rax
	movq	%rax, %r14
	je	.L1371
	testq	%r13, %r13
	je	.L1372
	lock subl	$1, 8(%rax)
	je	.L1425
.L1386:
	lock subl	$1, (%r12)
	je	.L1426
.L1349:
	movq	-56(%rbp), %rax
	xorq	%fs:40, %rax
	jne	.L1427
	leaq	-40(%rbp), %rsp
	popq	%rbx
	popq	%r12
	popq	%r13
	popq	%r14
	popq	%r15
	popq	%rbp
	.cfi_remember_state
	.cfi_def_cfa 7, 8
	ret
	.p2align 4,,10
	.p2align 3
.L1422:
	.cfi_restore_state
	lock addl	$1, 8(%rax)
	movq	48(%r15), %r9
	movq	40(%r15), %rax
	testq	%r9, %r9
	movq	%rax, -80(%rbp)
	movq	%r9, -72(%rbp)
	leaq	8(%r9), %rax
	je	.L1355
.L1388:
	lock addl	$1, (%rax)
	jmp	.L1355
	.p2align 4,,10
	.p2align 3
.L1363:
	movl	8(%r12), %eax
	leal	-1(%rax), %edx
	cmpl	$1, %eax
	movl	%edx, 8(%r12)
	jne	.L1420
	movq	(%r12), %rax
	movq	%r12, %rdi
	call	*16(%rax)
	movl	12(%r12), %eax
	leal	-1(%rax), %edx
	movl	%edx, 12(%r12)
.L1390:
	cmpl	$1, %eax
	jne	.L1368
	movq	(%r12), %rax
	movq	%r12, %rdi
	call	*24(%rax)
	.p2align 4,,10
	.p2align 3
.L1368:
	movq	(%rbx), %rax
	movq	_ZTISt19_Sp_make_shared_tag@GOTPCREL(%rip), %rsi
	movq	%rbx, %rdi
	leaq	8(%rbx), %r12
	call	*32(%rax)
	testq	%r13, %r13
	movq	%rax, -96(%rbp)
	movq	%rbx, -88(%rbp)
	jne	.L1384
.L1385:
	addl	$1, 8(%rbx)
	jmp	.L1370
	.p2align 4,,10
	.p2align 3
.L1425:
	movq	(%rax), %rax
	movq	%r14, %rdi
	call	*16(%rax)
	lock subl	$1, 12(%r14)
	jne	.L1386
.L1391:
	movq	(%r14), %rax
	movq	%r14, %rdi
	call	*24(%rax)
	.p2align 4,,10
	.p2align 3
.L1371:
	testq	%r13, %r13
	jne	.L1386
.L1387:
	movl	8(%rbx), %eax
	leal	-1(%rax), %edx
	cmpl	$1, %eax
	movl	%edx, 8(%rbx)
	jne	.L1349
	movq	(%rbx), %rax
	movq	%rbx, %rdi
	call	*16(%rax)
	movl	12(%rbx), %eax
	leal	-1(%rax), %edx
	movl	%edx, 12(%rbx)
.L1394:
	cmpl	$1, %eax
	jne	.L1349
	movq	(%rbx), %rax
	movq	%rbx, %rdi
	call	*24(%rax)
	jmp	.L1349
	.p2align 4,,10
	.p2align 3
.L1350:
	movq	-104(%rbp), %r11
	movq	40(%r11), %rax
	movq	%rax, -80(%rbp)
	movq	48(%r11), %rax
	testq	%rax, %rax
	movq	%rax, -72(%rbp)
	je	.L1355
	cmpq	$0, _ZL28__gthrw___pthread_key_createPjPFvPvE@GOTPCREL(%rip)
	je	.L1354
	addq	$8, %rax
	jmp	.L1388
	.p2align 4,,10
	.p2align 3
.L1358:
	movl	8(%r12), %eax
	leal	-1(%rax), %edx
	cmpl	$1, %eax
	movl	%edx, 8(%r12)
	jne	.L1357
	movq	(%r12), %rax
	movq	%r12, %rdi
	call	*16(%rax)
	movl	12(%r12), %eax
	leal	-1(%rax), %edx
	movl	%edx, 12(%r12)
.L1389:
	cmpl	$1, %eax
	jne	.L1357
	movq	(%r12), %rax
	movq	%r12, %rdi
	call	*24(%rax)
	jmp	.L1357
	.p2align 4,,10
	.p2align 3
.L1372:
	movl	8(%rax), %eax
	leal	-1(%rax), %edx
	cmpl	$1, %eax
	movl	%edx, 8(%r14)
	jne	.L1387
	movq	(%r14), %rax
	movq	%r14, %rdi
	call	*16(%rax)
	movl	12(%r14), %eax
	leal	-1(%rax), %edx
	cmpl	$1, %eax
	movl	%edx, 12(%r14)
	jne	.L1387
	jmp	.L1391
	.p2align 4,,10
	.p2align 3
.L1420:
	movq	(%rbx), %rax
	movq	_ZTISt19_Sp_make_shared_tag@GOTPCREL(%rip), %rsi
	movq	%rbx, %rdi
	leaq	8(%rbx), %r12
	call	*32(%rax)
	movq	%rbx, -88(%rbp)
	movq	%rax, -96(%rbp)
	jmp	.L1385
	.p2align 4,,10
	.p2align 3
.L1426:
	movq	(%rbx), %rax
	movq	%rbx, %rdi
	call	*16(%rax)
	movl	$-1, %eax
	lock xaddl	%eax, 12(%rbx)
	jmp	.L1394
	.p2align 4,,10
	.p2align 3
.L1424:
	movq	(%r12), %rax
	movq	%r12, %rdi
	call	*16(%rax)
	movl	$-1, %eax
	lock xaddl	%eax, 12(%r12)
	jmp	.L1390
	.p2align 4,,10
	.p2align 3
.L1423:
	movq	(%r12), %rax
	movq	%r12, %rdi
	call	*16(%rax)
	movl	$-1, %eax
	lock xaddl	%eax, 12(%r12)
	jmp	.L1389
.L1427:
	call	__stack_chk_fail@PLT
.L1396:
	movq	-88(%rbp), %rdi
	movq	%rax, %r14
	testq	%rdi, %rdi
	je	.L1382
	call	_ZNSt16_Sp_counted_baseILN9__gnu_cxx12_Lock_policyE2EE10_M_releaseEv@PLT
.L1382:
	movq	%rbx, %rdi
	call	_ZNSt16_Sp_counted_baseILN9__gnu_cxx12_Lock_policyE2EE10_M_releaseEv@PLT
	movq	%r14, %rdi
.LEHB44:
	call	_Unwind_Resume@PLT
.L1397:
	movq	%r15, %rdi
	movq	%rax, %r14
	call	_ZN7openpal6LoggerD1Ev@PLT
	movq	%rbx, %rdi
	call	_ZdlPv@PLT
	movq	%r14, %rdi
	call	_Unwind_Resume@PLT
.LEHE44:
	.cfi_endproc
.LFE3379:
	.section	.gcc_except_table
.LLSDA3379:
	.byte	0xff
	.byte	0xff
	.byte	0x1
	.uleb128 .LLSDACSE3379-.LLSDACSB3379
.LLSDACSB3379:
	.uleb128 .LEHB41-.LFB3379
	.uleb128 .LEHE41-.LEHB41
	.uleb128 0
	.uleb128 0
	.uleb128 .LEHB42-.LFB3379
	.uleb128 .LEHE42-.LEHB42
	.uleb128 .L1397-.LFB3379
	.uleb128 0
	.uleb128 .LEHB43-.LFB3379
	.uleb128 .LEHE43-.LEHB43
	.uleb128 .L1396-.LFB3379
	.uleb128 0
	.uleb128 .LEHB44-.LFB3379
	.uleb128 .LEHE44-.LEHB44
	.uleb128 0
	.uleb128 0
.LLSDACSE3379:
	.text
	.size	_ZN8opendnp38MContext4ScanERKSt8functionIFbRNS_12HeaderWriterEEENS_10TaskConfigE, .-_ZN8opendnp38MContext4ScanERKSt8functionIFbRNS_12HeaderWriterEEENS_10TaskConfigE
	.align 2
	.p2align 4,,15
	.globl	_ZN8opendnp38MContext11ScanClassesERKNS_10ClassFieldENS_10TaskConfigE
	.type	_ZN8opendnp38MContext11ScanClassesERKNS_10ClassFieldENS_10TaskConfigE, @function
_ZN8opendnp38MContext11ScanClassesERKNS_10ClassFieldENS_10TaskConfigE:
.LFB3380:
	.cfi_startproc
	.cfi_personality 0x9b,DW.ref.__gxx_personality_v0
	.cfi_lsda 0x1b,.LLSDA3380
	pushq	%rbp
	.cfi_def_cfa_offset 16
	.cfi_offset 6, -16
	pushq	%rbx
	.cfi_def_cfa_offset 24
	.cfi_offset 3, -24
	leaq	_ZNSt14_Function_base13_Base_managerIZN8opendnp38MContext11ScanClassesERKNS1_10ClassFieldENS1_10TaskConfigEEUlRNS1_12HeaderWriterEE_E10_M_managerERSt9_Any_dataRKSB_St18_Manager_operation(%rip), %rbx
	subq	$72, %rsp
	.cfi_def_cfa_offset 96
	movq	%fs:40, %rax
	movq	%rax, 56(%rsp)
	xorl	%eax, %eax
	movzbl	(%rsi), %eax
	movq	%rbx, 8(%rsp)
	leaq	16(%rsp), %rbx
	movq	8(%rsp), %xmm0
	movq	%rbx, %rsi
	movb	%al, 16(%rsp)
	leaq	_ZNSt17_Function_handlerIFbRN8opendnp312HeaderWriterEEZNS0_8MContext11ScanClassesERKNS0_10ClassFieldENS0_10TaskConfigEEUlS2_E_E9_M_invokeERKSt9_Any_dataS2_(%rip), %rax
	movq	%rax, 8(%rsp)
	movhps	8(%rsp), %xmm0
	movaps	%xmm0, 32(%rsp)
.LEHB45:
	call	_ZN8opendnp38MContext4ScanERKSt8functionIFbRNS_12HeaderWriterEEENS_10TaskConfigE@PLT
.LEHE45:
	movq	32(%rsp), %rax
	testq	%rax, %rax
	je	.L1428
	movl	$3, %edx
	movq	%rbx, %rsi
	movq	%rbx, %rdi
	call	*%rax
.L1428:
	movq	56(%rsp), %rax
	xorq	%fs:40, %rax
	jne	.L1441
	addq	$72, %rsp
	.cfi_remember_state
	.cfi_def_cfa_offset 24
	popq	%rbx
	.cfi_def_cfa_offset 16
	popq	%rbp
	.cfi_def_cfa_offset 8
	ret
.L1441:
	.cfi_restore_state
	call	__stack_chk_fail@PLT
.L1433:
	movq	%rax, %rbp
	movq	32(%rsp), %rax
	testq	%rax, %rax
	je	.L1431
	movl	$3, %edx
	movq	%rbx, %rsi
	movq	%rbx, %rdi
	call	*%rax
.L1431:
	movq	%rbp, %rdi
.LEHB46:
	call	_Unwind_Resume@PLT
.LEHE46:
	.cfi_endproc
.LFE3380:
	.section	.gcc_except_table
.LLSDA3380:
	.byte	0xff
	.byte	0xff
	.byte	0x1
	.uleb128 .LLSDACSE3380-.LLSDACSB3380
.LLSDACSB3380:
	.uleb128 .LEHB45-.LFB3380
	.uleb128 .LEHE45-.LEHB45
	.uleb128 .L1433-.LFB3380
	.uleb128 0
	.uleb128 .LEHB46-.LFB3380
	.uleb128 .LEHE46-.LEHB46
	.uleb128 0
	.uleb128 0
.LLSDACSE3380:
	.text
	.size	_ZN8opendnp38MContext11ScanClassesERKNS_10ClassFieldENS_10TaskConfigE, .-_ZN8opendnp38MContext11ScanClassesERKNS_10ClassFieldENS_10TaskConfigE
	.align 2
	.p2align 4,,15
	.globl	_ZN8opendnp38MContext14ScanAllObjectsENS_16GroupVariationIDENS_10TaskConfigE
	.type	_ZN8opendnp38MContext14ScanAllObjectsENS_16GroupVariationIDENS_10TaskConfigE, @function
_ZN8opendnp38MContext14ScanAllObjectsENS_16GroupVariationIDENS_10TaskConfigE:
.LFB3382:
	.cfi_startproc
	.cfi_personality 0x9b,DW.ref.__gxx_personality_v0
	.cfi_lsda 0x1b,.LLSDA3382
	pushq	%rbp
	.cfi_def_cfa_offset 16
	.cfi_offset 6, -16
	pushq	%rbx
	.cfi_def_cfa_offset 24
	.cfi_offset 3, -24
	leaq	_ZNSt14_Function_base13_Base_managerIZN8opendnp38MContext14ScanAllObjectsENS1_16GroupVariationIDENS1_10TaskConfigEEUlRNS1_12HeaderWriterEE_E10_M_managerERSt9_Any_dataRKS9_St18_Manager_operation(%rip), %rbx
	subq	$72, %rsp
	.cfi_def_cfa_offset 96
	movq	%fs:40, %rax
	movq	%rax, 56(%rsp)
	xorl	%eax, %eax
	movl	%esi, %eax
	movq	%rbx, 8(%rsp)
	leaq	16(%rsp), %rbx
	movzbl	%ah, %eax
	movq	8(%rsp), %xmm0
	movb	%al, 17(%rsp)
	leaq	_ZNSt17_Function_handlerIFbRN8opendnp312HeaderWriterEEZNS0_8MContext14ScanAllObjectsENS0_16GroupVariationIDENS0_10TaskConfigEEUlS2_E_E9_M_invokeERKSt9_Any_dataS2_(%rip), %rax
	movb	%sil, 16(%rsp)
	movq	%rbx, %rsi
	movq	%rax, 8(%rsp)
	movhps	8(%rsp), %xmm0
	movaps	%xmm0, 32(%rsp)
.LEHB47:
	call	_ZN8opendnp38MContext4ScanERKSt8functionIFbRNS_12HeaderWriterEEENS_10TaskConfigE@PLT
.LEHE47:
	movq	32(%rsp), %rax
	testq	%rax, %rax
	je	.L1442
	movl	$3, %edx
	movq	%rbx, %rsi
	movq	%rbx, %rdi
	call	*%rax
.L1442:
	movq	56(%rsp), %rax
	xorq	%fs:40, %rax
	jne	.L1455
	addq	$72, %rsp
	.cfi_remember_state
	.cfi_def_cfa_offset 24
	popq	%rbx
	.cfi_def_cfa_offset 16
	popq	%rbp
	.cfi_def_cfa_offset 8
	ret
.L1455:
	.cfi_restore_state
	call	__stack_chk_fail@PLT
.L1447:
	movq	%rax, %rbp
	movq	32(%rsp), %rax
	testq	%rax, %rax
	je	.L1445
	movl	$3, %edx
	movq	%rbx, %rsi
	movq	%rbx, %rdi
	call	*%rax
.L1445:
	movq	%rbp, %rdi
.LEHB48:
	call	_Unwind_Resume@PLT
.LEHE48:
	.cfi_endproc
.LFE3382:
	.section	.gcc_except_table
.LLSDA3382:
	.byte	0xff
	.byte	0xff
	.byte	0x1
	.uleb128 .LLSDACSE3382-.LLSDACSB3382
.LLSDACSB3382:
	.uleb128 .LEHB47-.LFB3382
	.uleb128 .LEHE47-.LEHB47
	.uleb128 .L1447-.LFB3382
	.uleb128 0
	.uleb128 .LEHB48-.LFB3382
	.uleb128 .LEHE48-.LEHB48
	.uleb128 0
	.uleb128 0
.LLSDACSE3382:
	.text
	.size	_ZN8opendnp38MContext14ScanAllObjectsENS_16GroupVariationIDENS_10TaskConfigE, .-_ZN8opendnp38MContext14ScanAllObjectsENS_16GroupVariationIDENS_10TaskConfigE
	.align 2
	.p2align 4,,15
	.globl	_ZN8opendnp38MContext9ScanRangeENS_16GroupVariationIDEttNS_10TaskConfigE
	.type	_ZN8opendnp38MContext9ScanRangeENS_16GroupVariationIDEttNS_10TaskConfigE, @function
_ZN8opendnp38MContext9ScanRangeENS_16GroupVariationIDEttNS_10TaskConfigE:
.LFB3384:
	.cfi_startproc
	.cfi_personality 0x9b,DW.ref.__gxx_personality_v0
	.cfi_lsda 0x1b,.LLSDA3384
	pushq	%rbp
	.cfi_def_cfa_offset 16
	.cfi_offset 6, -16
	pushq	%rbx
	.cfi_def_cfa_offset 24
	.cfi_offset 3, -24
	movl	%ecx, %eax
	movl	%edx, %r10d
	movq	%r9, %rcx
	movq	%r8, %rdx
	subq	$72, %rsp
	.cfi_def_cfa_offset 96
	movq	%fs:40, %rbx
	movq	%rbx, 56(%rsp)
	xorl	%ebx, %ebx
	movb	%sil, 16(%rsp)
	movl	%esi, %ebx
	leaq	_ZNSt14_Function_base13_Base_managerIZN8opendnp38MContext9ScanRangeENS1_16GroupVariationIDEttNS1_10TaskConfigEEUlRNS1_12HeaderWriterEE_E10_M_managerERSt9_Any_dataRKS9_St18_Manager_operation(%rip), %rsi
	movw	%ax, 20(%rsp)
	leaq	_ZNSt17_Function_handlerIFbRN8opendnp312HeaderWriterEEZNS0_8MContext9ScanRangeENS0_16GroupVariationIDEttNS0_10TaskConfigEEUlS2_E_E9_M_invokeERKSt9_Any_dataS2_(%rip), %rax
	movzbl	%bh, %ebx
	movq	%rsi, 8(%rsp)
	movb	%bl, 17(%rsp)
	leaq	16(%rsp), %rbx
	movq	8(%rsp), %xmm0
	movq	%rax, 8(%rsp)
	movhps	8(%rsp), %xmm0
	movq	%rbx, %rsi
	movw	%r10w, 18(%rsp)
	movaps	%xmm0, 32(%rsp)
.LEHB49:
	call	_ZN8opendnp38MContext4ScanERKSt8functionIFbRNS_12HeaderWriterEEENS_10TaskConfigE@PLT
.LEHE49:
	movq	32(%rsp), %rax
	testq	%rax, %rax
	je	.L1456
	movl	$3, %edx
	movq	%rbx, %rsi
	movq	%rbx, %rdi
	call	*%rax
.L1456:
	movq	56(%rsp), %rax
	xorq	%fs:40, %rax
	jne	.L1469
	addq	$72, %rsp
	.cfi_remember_state
	.cfi_def_cfa_offset 24
	popq	%rbx
	.cfi_def_cfa_offset 16
	popq	%rbp
	.cfi_def_cfa_offset 8
	ret
.L1469:
	.cfi_restore_state
	call	__stack_chk_fail@PLT
.L1461:
	movq	%rax, %rbp
	movq	32(%rsp), %rax
	testq	%rax, %rax
	je	.L1459
	movl	$3, %edx
	movq	%rbx, %rsi
	movq	%rbx, %rdi
	call	*%rax
.L1459:
	movq	%rbp, %rdi
.LEHB50:
	call	_Unwind_Resume@PLT
.LEHE50:
	.cfi_endproc
.LFE3384:
	.section	.gcc_except_table
.LLSDA3384:
	.byte	0xff
	.byte	0xff
	.byte	0x1
	.uleb128 .LLSDACSE3384-.LLSDACSB3384
.LLSDACSB3384:
	.uleb128 .LEHB49-.LFB3384
	.uleb128 .LEHE49-.LEHB49
	.uleb128 .L1461-.LFB3384
	.uleb128 0
	.uleb128 .LEHB50-.LFB3384
	.uleb128 .LEHE50-.LEHB50
	.uleb128 0
	.uleb128 0
.LLSDACSE3384:
	.text
	.size	_ZN8opendnp38MContext9ScanRangeENS_16GroupVariationIDEttNS_10TaskConfigE, .-_ZN8opendnp38MContext9ScanRangeENS_16GroupVariationIDEttNS_10TaskConfigE
	.align 2
	.p2align 4,,15
	.globl	_ZN8opendnp38MContext5WriteERKNS_15TimeAndIntervalEtNS_10TaskConfigE
	.type	_ZN8opendnp38MContext5WriteERKNS_15TimeAndIntervalEtNS_10TaskConfigE, @function
_ZN8opendnp38MContext5WriteERKNS_15TimeAndIntervalEtNS_10TaskConfigE:
.LFB3386:
	.cfi_startproc
	.cfi_personality 0x9b,DW.ref.__gxx_personality_v0
	.cfi_lsda 0x1b,.LLSDA3386
	pushq	%rbp
	.cfi_def_cfa_offset 16
	.cfi_offset 6, -16
	movq	%rsp, %rbp
	.cfi_def_cfa_register 6
	pushq	%r15
	pushq	%r14
	pushq	%r13
	pushq	%r12
	.cfi_offset 15, -24
	.cfi_offset 14, -32
	.cfi_offset 13, -40
	.cfi_offset 12, -48
	movq	%rdi, %r12
	pushq	%rbx
	leaq	-160(%rbp), %r13
	subq	$168, %rsp
	.cfi_offset 3, -56
	movq	144(%rdi), %rbx
	movl	$176, %edi
	movq	%fs:40, %rax
	movq	%rax, -56(%rbp)
	xorl	%eax, %eax
	movzbl	12(%rsi), %eax
	movl	%edx, -204(%rbp)
	movq	(%rsi), %r15
	movl	8(%rsi), %r14d
	movq	%rbx, -192(%rbp)
	movq	%rcx, -176(%rbp)
	movq	%r8, -168(%rbp)
	movb	%al, -200(%rbp)
.LEHB51:
	call	_Znwm@PLT
.LEHE51:
	movabsq	$4294967297, %rsi
	movq	%rax, %rbx
	leaq	-96(%rbp), %rdi
	movq	%rsi, 8(%rax)
	movq	_ZTVSt23_Sp_counted_ptr_inplaceIN8opendnp317EmptyResponseTaskESaIS1_ELN9__gnu_cxx12_Lock_policyE2EE@GOTPCREL(%rip), %rax
	xorl	%edx, %edx
	movq	%r13, %rsi
	movq	%rdi, -184(%rbp)
	movq	$21, -160(%rbp)
	addq	$16, %rax
	movq	%rax, (%rbx)
	leaq	16(%rdi), %rax
	movq	%rax, -96(%rbp)
.LEHB52:
	call	_ZNSt7__cxx1112basic_stringIcSt11char_traitsIcESaIcEE9_M_createERmm@PLT
.LEHE52:
	movq	-160(%rbp), %rdx
	movq	%rax, -96(%rbp)
	movl	$24, %edi
	movdqa	.LC16(%rip), %xmm0
	movq	%rdx, -80(%rbp)
	movl	$1635152485, 16(%rax)
	movups	%xmm0, (%rax)
	movb	$108, 20(%rax)
	movq	-96(%rbp), %rdx
	movq	-160(%rbp), %rax
	movq	%rax, -88(%rbp)
	movb	$0, (%rdx,%rax)
	movq	$0, -112(%rbp)
.LEHB53:
	call	_Znwm@PLT
.LEHE53:
	movzbl	-200(%rbp), %ecx
	movq	%r15, (%rax)
	movl	%r14d, 8(%rax)
	movq	%rax, -128(%rbp)
	movb	%cl, 12(%rax)
	movzwl	-204(%rbp), %ecx
	movw	%cx, 16(%rax)
	leaq	_ZNSt14_Function_base13_Base_managerIZN8opendnp38MContext5WriteERKNS1_15TimeAndIntervalEtNS1_10TaskConfigEEUlRNS1_12HeaderWriterEE_E10_M_managerERSt9_Any_dataRKSB_St18_Manager_operation(%rip), %rcx
	leaq	_ZNSt17_Function_handlerIFbRN8opendnp312HeaderWriterEEZNS0_8MContext5WriteERKNS0_15TimeAndIntervalEtNS0_10TaskConfigEEUlS2_E_E9_M_invokeERKSt9_Any_dataS2_(%rip), %rax
	movq	%rcx, -200(%rbp)
	movq	-200(%rbp), %xmm0
	movq	%rax, -200(%rbp)
	movq	24(%r12), %rax
	movhps	-200(%rbp), %xmm0
	movaps	%xmm0, -112(%rbp)
	movq	%rax, -160(%rbp)
	movq	32(%r12), %rax
	testq	%rax, %rax
	movq	%rax, -152(%rbp)
	je	.L1559
	cmpq	$0, _ZL28__gthrw___pthread_key_createPjPFvPvE@GOTPCREL(%rip)
	jne	.L1560
	addl	$1, 8(%rax)
	movq	40(%r12), %rax
	movq	%rax, -144(%rbp)
	movq	48(%r12), %rax
	testq	%rax, %rax
	movq	%rax, -136(%rbp)
	je	.L1480
.L1479:
	addl	$1, 8(%rax)
.L1480:
	leaq	-176(%rbp), %rax
	leaq	-128(%rbp), %r14
	subq	$8, %rsp
	movq	-184(%rbp), %rdx
	movq	-192(%rbp), %rsi
	leaq	16(%rbx), %rdi
	pushq	%rax
	movq	%r13, %r9
	movq	%r14, %r8
	movl	$2, %ecx
.LEHB54:
	.cfi_escape 0x2e,0x10
	call	_ZN8opendnp317EmptyResponseTaskC1ERNS_18IMasterApplicationERKNSt7__cxx1112basic_stringIcSt11char_traitsIcESaIcEEENS_12FunctionCodeERKSt8functionIFbRNS_12HeaderWriterEEEN7openpal6LoggerERKNS_10TaskConfigE@PLT
.LEHE54:
	popq	%rax
	movq	-136(%rbp), %rax
	movq	_ZL28__gthrw___pthread_key_createPjPFvPvE@GOTPCREL(%rip), %r15
	popq	%rdx
	testq	%rax, %rax
	je	.L1482
	testq	%r15, %r15
	je	.L1483
	lock subl	$1, 8(%rax)
	je	.L1561
.L1482:
	movq	-152(%rbp), %rax
	testq	%rax, %rax
	je	.L1488
	testq	%r15, %r15
	je	.L1489
	lock subl	$1, 8(%rax)
	je	.L1562
.L1488:
	movq	-112(%rbp), %rax
	testq	%rax, %rax
	je	.L1493
	movl	$3, %edx
	movq	%r14, %rsi
	movq	%r14, %rdi
	call	*%rax
.L1493:
	movq	-184(%rbp), %rax
	movq	-96(%rbp), %rdi
	addq	$16, %rax
	cmpq	%rax, %rdi
	je	.L1494
	call	_ZdlPv@PLT
.L1494:
	movq	(%rbx), %rax
	movq	_ZTISt19_Sp_make_shared_tag@GOTPCREL(%rip), %rsi
	movq	%rbx, %rdi
	leaq	8(%rbx), %r14
	call	*32(%rax)
	testq	%r15, %r15
	movq	%rax, -160(%rbp)
	movq	%rbx, -152(%rbp)
	je	.L1557
	lock addl	$1, (%r14)
.L1499:
	movq	%r13, %rsi
	movq	%r12, %rdi
.LEHB55:
	.cfi_escape 0x2e,0
	call	_ZN8opendnp38MContext17ScheduleAdhocTaskERKSt10shared_ptrINS_11IMasterTaskEE@PLT
.LEHE55:
	movq	-152(%rbp), %rax
	testq	%rax, %rax
	movq	%rax, %r13
	je	.L1500
	testq	%r15, %r15
	je	.L1501
	lock subl	$1, 8(%rax)
	je	.L1563
.L1515:
	lock subl	$1, (%r14)
	je	.L1564
.L1470:
	movq	-56(%rbp), %rax
	xorq	%fs:40, %rax
	jne	.L1565
	leaq	-40(%rbp), %rsp
	popq	%rbx
	popq	%r12
	popq	%r13
	popq	%r14
	popq	%r15
	popq	%rbp
	.cfi_remember_state
	.cfi_def_cfa 7, 8
	ret
	.p2align 4,,10
	.p2align 3
.L1560:
	.cfi_restore_state
	lock addl	$1, 8(%rax)
	movq	48(%r12), %rdx
	movq	40(%r12), %rax
	testq	%rdx, %rdx
	movq	%rax, -144(%rbp)
	movq	%rdx, -136(%rbp)
	leaq	8(%rdx), %rax
	je	.L1480
.L1517:
	lock addl	$1, (%rax)
	jmp	.L1480
	.p2align 4,,10
	.p2align 3
.L1563:
	movq	(%rax), %rax
	movq	%r13, %rdi
	call	*16(%rax)
	lock subl	$1, 12(%r13)
	jne	.L1515
.L1520:
	movq	0(%r13), %rax
	movq	%r13, %rdi
	call	*24(%rax)
	.p2align 4,,10
	.p2align 3
.L1500:
	testq	%r15, %r15
	jne	.L1515
.L1516:
	movl	8(%rbx), %eax
	leal	-1(%rax), %edx
	cmpl	$1, %eax
	movl	%edx, 8(%rbx)
	jne	.L1470
	movq	(%rbx), %rax
	movq	%rbx, %rdi
	call	*16(%rax)
	movl	12(%rbx), %eax
	leal	-1(%rax), %edx
	movl	%edx, 12(%rbx)
.L1523:
	cmpl	$1, %eax
	jne	.L1470
	movq	(%rbx), %rax
	movq	%rbx, %rdi
	call	*24(%rax)
	jmp	.L1470
	.p2align 4,,10
	.p2align 3
.L1557:
	addl	$1, 8(%rbx)
	jmp	.L1499
	.p2align 4,,10
	.p2align 3
.L1559:
	movq	40(%r12), %rax
	movq	%rax, -144(%rbp)
	movq	48(%r12), %rax
	testq	%rax, %rax
	movq	%rax, -136(%rbp)
	je	.L1480
	cmpq	$0, _ZL28__gthrw___pthread_key_createPjPFvPvE@GOTPCREL(%rip)
	je	.L1479
	addq	$8, %rax
	jmp	.L1517
	.p2align 4,,10
	.p2align 3
.L1489:
	movl	8(%rax), %edx
	leal	-1(%rdx), %ecx
	cmpl	$1, %edx
	movl	%ecx, 8(%rax)
	jne	.L1488
	movq	(%rax), %rdx
	movq	%rax, %rdi
	movq	%rax, -192(%rbp)
	call	*16(%rdx)
	movq	-192(%rbp), %rax
	movl	12(%rax), %edx
	leal	-1(%rdx), %ecx
	movl	%ecx, 12(%rax)
.L1519:
	cmpl	$1, %edx
	jne	.L1488
	movq	(%rax), %rdx
	movq	%rax, %rdi
	call	*24(%rdx)
	jmp	.L1488
	.p2align 4,,10
	.p2align 3
.L1501:
	movl	8(%rax), %eax
	leal	-1(%rax), %edx
	cmpl	$1, %eax
	movl	%edx, 8(%r13)
	jne	.L1516
	movq	0(%r13), %rax
	movq	%r13, %rdi
	call	*16(%rax)
	movl	12(%r13), %eax
	leal	-1(%rax), %edx
	cmpl	$1, %eax
	movl	%edx, 12(%r13)
	jne	.L1516
	jmp	.L1520
	.p2align 4,,10
	.p2align 3
.L1483:
	movl	8(%rax), %edx
	leal	-1(%rdx), %ecx
	cmpl	$1, %edx
	movl	%ecx, 8(%rax)
	jne	.L1482
	movq	(%rax), %rdx
	movq	%rax, %rdi
	movq	%rax, -192(%rbp)
	call	*16(%rdx)
	movq	-192(%rbp), %rax
	movl	12(%rax), %edx
	leal	-1(%rdx), %ecx
	movl	%ecx, 12(%rax)
.L1518:
	cmpl	$1, %edx
	jne	.L1482
	movq	(%rax), %rdx
	movq	%rax, %rdi
	call	*24(%rdx)
	jmp	.L1482
	.p2align 4,,10
	.p2align 3
.L1564:
	movq	(%rbx), %rax
	movq	%rbx, %rdi
	call	*16(%rax)
	movl	$-1, %eax
	lock xaddl	%eax, 12(%rbx)
	jmp	.L1523
	.p2align 4,,10
	.p2align 3
.L1562:
	movq	(%rax), %rdx
	movq	%rax, %rdi
	movq	%rax, -192(%rbp)
	call	*16(%rdx)
	movq	-192(%rbp), %rax
	movl	$-1, %edx
	lock xaddl	%edx, 12(%rax)
	jmp	.L1519
	.p2align 4,,10
	.p2align 3
.L1561:
	movq	(%rax), %rdx
	movq	%rax, %rdi
	movq	%rax, -192(%rbp)
	call	*16(%rdx)
	movq	-192(%rbp), %rax
	movl	$-1, %edx
	lock xaddl	%edx, 12(%rax)
	jmp	.L1518
.L1565:
	call	__stack_chk_fail@PLT
.L1526:
	movq	%rax, %r12
.L1498:
	movq	%rbx, %rdi
	call	_ZdlPv@PLT
	movq	%r12, %rdi
.LEHB56:
	call	_Unwind_Resume@PLT
.LEHE56:
.L1527:
	movq	%r13, %rdi
	movq	%rax, %r12
	call	_ZN7openpal6LoggerD1Ev@PLT
	movq	-112(%rbp), %rax
	testq	%rax, %rax
	je	.L1475
	movl	$3, %edx
	movq	%r14, %rsi
	movq	%r14, %rdi
	call	*%rax
.L1475:
	movq	-184(%rbp), %rax
	movq	-96(%rbp), %rdi
	addq	$16, %rax
	cmpq	%rax, %rdi
	je	.L1498
	call	_ZdlPv@PLT
	jmp	.L1498
.L1528:
	movq	%rax, %r12
	movq	-112(%rbp), %rax
	testq	%rax, %rax
	je	.L1475
	leaq	-128(%rbp), %rdi
	movl	$3, %edx
	movq	%rdi, %rsi
	call	*%rax
	jmp	.L1475
.L1525:
	movq	-152(%rbp), %rdi
	movq	%rax, %r15
	testq	%rdi, %rdi
	je	.L1511
	call	_ZNSt16_Sp_counted_baseILN9__gnu_cxx12_Lock_policyE2EE10_M_releaseEv@PLT
.L1511:
	movq	%rbx, %rdi
	call	_ZNSt16_Sp_counted_baseILN9__gnu_cxx12_Lock_policyE2EE10_M_releaseEv@PLT
	movq	%r15, %rdi
.LEHB57:
	call	_Unwind_Resume@PLT
.LEHE57:
	.cfi_endproc
.LFE3386:
	.section	.gcc_except_table
.LLSDA3386:
	.byte	0xff
	.byte	0xff
	.byte	0x1
	.uleb128 .LLSDACSE3386-.LLSDACSB3386
.LLSDACSB3386:
	.uleb128 .LEHB51-.LFB3386
	.uleb128 .LEHE51-.LEHB51
	.uleb128 0
	.uleb128 0
	.uleb128 .LEHB52-.LFB3386
	.uleb128 .LEHE52-.LEHB52
	.uleb128 .L1526-.LFB3386
	.uleb128 0
	.uleb128 .LEHB53-.LFB3386
	.uleb128 .LEHE53-.LEHB53
	.uleb128 .L1528-.LFB3386
	.uleb128 0
	.uleb128 .LEHB54-.LFB3386
	.uleb128 .LEHE54-.LEHB54
	.uleb128 .L1527-.LFB3386
	.uleb128 0
	.uleb128 .LEHB55-.LFB3386
	.uleb128 .LEHE55-.LEHB55
	.uleb128 .L1525-.LFB3386
	.uleb128 0
	.uleb128 .LEHB56-.LFB3386
	.uleb128 .LEHE56-.LEHB56
	.uleb128 0
	.uleb128 0
	.uleb128 .LEHB57-.LFB3386
	.uleb128 .LEHE57-.LEHB57
	.uleb128 0
	.uleb128 0
.LLSDACSE3386:
	.text
	.size	_ZN8opendnp38MContext5WriteERKNS_15TimeAndIntervalEtNS_10TaskConfigE, .-_ZN8opendnp38MContext5WriteERKNS_15TimeAndIntervalEtNS_10TaskConfigE
	.align 2
	.p2align 4,,15
	.globl	_ZN8opendnp38MContext15PerformFunctionERKNSt7__cxx1112basic_stringIcSt11char_traitsIcESaIcEEENS_12FunctionCodeERKSt8functionIFbRNS_12HeaderWriterEEENS_10TaskConfigE
	.type	_ZN8opendnp38MContext15PerformFunctionERKNSt7__cxx1112basic_stringIcSt11char_traitsIcESaIcEEENS_12FunctionCodeERKSt8functionIFbRNS_12HeaderWriterEEENS_10TaskConfigE, @function
_ZN8opendnp38MContext15PerformFunctionERKNSt7__cxx1112basic_stringIcSt11char_traitsIcESaIcEEENS_12FunctionCodeERKSt8functionIFbRNS_12HeaderWriterEEENS_10TaskConfigE:
.LFB3401:
	.cfi_startproc
	.cfi_personality 0x9b,DW.ref.__gxx_personality_v0
	.cfi_lsda 0x1b,.LLSDA3401
	pushq	%rbp
	.cfi_def_cfa_offset 16
	.cfi_offset 6, -16
	movq	%rsp, %rbp
	.cfi_def_cfa_register 6
	pushq	%r15
	pushq	%r14
	pushq	%r13
	pushq	%r12
	.cfi_offset 15, -24
	.cfi_offset 14, -32
	.cfi_offset 13, -40
	.cfi_offset 12, -48
	movq	%rdi, %r12
	pushq	%rbx
	movq	%rsi, %r14
	movl	%edx, %r15d
	subq	$88, %rsp
	.cfi_offset 3, -56
	movq	%rdi, -120(%rbp)
	movq	144(%rdi), %r13
	movl	$176, %edi
	movq	%rcx, -128(%rbp)
	movq	%r8, -112(%rbp)
	movq	%fs:40, %rax
	movq	%rax, -56(%rbp)
	xorl	%eax, %eax
	movq	%r9, -104(%rbp)
.LEHB58:
	call	_Znwm@PLT
.LEHE58:
	movq	%rax, %rbx
	movabsq	$4294967297, %rax
	movq	-128(%rbp), %rcx
	movq	%rax, 8(%rbx)
	movq	_ZTVSt23_Sp_counted_ptr_inplaceIN8opendnp317EmptyResponseTaskESaIS1_ELN9__gnu_cxx12_Lock_policyE2EE@GOTPCREL(%rip), %rax
	leaq	16(%rbx), %rdi
	addq	$16, %rax
	movq	%rax, (%rbx)
	movq	24(%r12), %rax
	movq	%rax, -96(%rbp)
	movq	32(%r12), %rax
	testq	%rax, %rax
	movq	%rax, -88(%rbp)
	je	.L1567
	cmpq	$0, _ZL28__gthrw___pthread_key_createPjPFvPvE@GOTPCREL(%rip)
	jne	.L1639
	movq	-120(%rbp), %rsi
	addl	$1, 8(%rax)
	movq	40(%rsi), %rax
	movq	%rax, -80(%rbp)
	movq	48(%rsi), %rax
	testq	%rax, %rax
	movq	%rax, -72(%rbp)
	je	.L1572
.L1571:
	addl	$1, 8(%rax)
.L1572:
	leaq	-112(%rbp), %rax
	leaq	-96(%rbp), %r12
	subq	$8, %rsp
	movq	%rcx, %r8
	movq	%r14, %rdx
	movl	%r15d, %ecx
	pushq	%rax
	movq	%r12, %r9
	movq	%r13, %rsi
.LEHB59:
	.cfi_escape 0x2e,0x10
	call	_ZN8opendnp317EmptyResponseTaskC1ERNS_18IMasterApplicationERKNSt7__cxx1112basic_stringIcSt11char_traitsIcESaIcEEENS_12FunctionCodeERKSt8functionIFbRNS_12HeaderWriterEEEN7openpal6LoggerERKNS_10TaskConfigE@PLT
.LEHE59:
	movq	-72(%rbp), %r13
	movq	_ZL28__gthrw___pthread_key_createPjPFvPvE@GOTPCREL(%rip), %r14
	popq	%rax
	popq	%rdx
	testq	%r13, %r13
	je	.L1574
	testq	%r14, %r14
	je	.L1575
	lock subl	$1, 8(%r13)
	je	.L1640
.L1574:
	movq	-88(%rbp), %r13
	testq	%r13, %r13
	je	.L1585
	testq	%r14, %r14
	je	.L1580
	lock subl	$1, 8(%r13)
	je	.L1641
	movq	(%rbx), %rax
	leaq	8(%rbx), %r13
	movq	_ZTISt19_Sp_make_shared_tag@GOTPCREL(%rip), %rsi
	movq	%rbx, %rdi
	call	*32(%rax)
	movq	%rbx, -88(%rbp)
	movq	%rax, -96(%rbp)
.L1601:
	lock addl	$1, 0(%r13)
.L1587:
	movq	-120(%rbp), %rdi
	movq	%r12, %rsi
.LEHB60:
	.cfi_escape 0x2e,0
	call	_ZN8opendnp38MContext17ScheduleAdhocTaskERKSt10shared_ptrINS_11IMasterTaskEE@PLT
.LEHE60:
	movq	-88(%rbp), %rax
	testq	%rax, %rax
	movq	%rax, %r15
	je	.L1588
	testq	%r14, %r14
	je	.L1589
	lock subl	$1, 8(%rax)
	je	.L1642
.L1603:
	lock subl	$1, 0(%r13)
	je	.L1643
.L1566:
	movq	-56(%rbp), %rax
	xorq	%fs:40, %rax
	jne	.L1644
	leaq	-40(%rbp), %rsp
	popq	%rbx
	popq	%r12
	popq	%r13
	popq	%r14
	popq	%r15
	popq	%rbp
	.cfi_remember_state
	.cfi_def_cfa 7, 8
	ret
	.p2align 4,,10
	.p2align 3
.L1639:
	.cfi_restore_state
	lock addl	$1, 8(%rax)
	movq	48(%r12), %rdx
	movq	40(%r12), %rax
	testq	%rdx, %rdx
	movq	%rax, -80(%rbp)
	movq	%rdx, -72(%rbp)
	leaq	8(%rdx), %rax
	je	.L1572
.L1605:
	lock addl	$1, (%rax)
	jmp	.L1572
	.p2align 4,,10
	.p2align 3
.L1580:
	movl	8(%r13), %eax
	leal	-1(%rax), %edx
	cmpl	$1, %eax
	movl	%edx, 8(%r13)
	jne	.L1637
	movq	0(%r13), %rax
	movq	%r13, %rdi
	call	*16(%rax)
	movl	12(%r13), %eax
	leal	-1(%rax), %edx
	movl	%edx, 12(%r13)
.L1607:
	cmpl	$1, %eax
	jne	.L1585
	movq	0(%r13), %rax
	movq	%r13, %rdi
	call	*24(%rax)
	.p2align 4,,10
	.p2align 3
.L1585:
	movq	(%rbx), %rax
	movq	_ZTISt19_Sp_make_shared_tag@GOTPCREL(%rip), %rsi
	movq	%rbx, %rdi
	leaq	8(%rbx), %r13
	call	*32(%rax)
	testq	%r14, %r14
	movq	%rax, -96(%rbp)
	movq	%rbx, -88(%rbp)
	jne	.L1601
.L1602:
	addl	$1, 8(%rbx)
	jmp	.L1587
	.p2align 4,,10
	.p2align 3
.L1642:
	movq	(%rax), %rax
	movq	%r15, %rdi
	call	*16(%rax)
	lock subl	$1, 12(%r15)
	jne	.L1603
.L1608:
	movq	(%r15), %rax
	movq	%r15, %rdi
	call	*24(%rax)
	.p2align 4,,10
	.p2align 3
.L1588:
	testq	%r14, %r14
	jne	.L1603
.L1604:
	movl	8(%rbx), %eax
	leal	-1(%rax), %edx
	cmpl	$1, %eax
	movl	%edx, 8(%rbx)
	jne	.L1566
	movq	(%rbx), %rax
	movq	%rbx, %rdi
	call	*16(%rax)
	movl	12(%rbx), %eax
	leal	-1(%rax), %edx
	movl	%edx, 12(%rbx)
.L1611:
	cmpl	$1, %eax
	jne	.L1566
	movq	(%rbx), %rax
	movq	%rbx, %rdi
	call	*24(%rax)
	jmp	.L1566
	.p2align 4,,10
	.p2align 3
.L1567:
	movq	-120(%rbp), %rdx
	movq	40(%rdx), %rax
	movq	%rax, -80(%rbp)
	movq	48(%rdx), %rax
	testq	%rax, %rax
	movq	%rax, -72(%rbp)
	je	.L1572
	cmpq	$0, _ZL28__gthrw___pthread_key_createPjPFvPvE@GOTPCREL(%rip)
	je	.L1571
	addq	$8, %rax
	jmp	.L1605
	.p2align 4,,10
	.p2align 3
.L1575:
	movl	8(%r13), %eax
	leal	-1(%rax), %edx
	cmpl	$1, %eax
	movl	%edx, 8(%r13)
	jne	.L1574
	movq	0(%r13), %rax
	movq	%r13, %rdi
	call	*16(%rax)
	movl	12(%r13), %eax
	leal	-1(%rax), %edx
	movl	%edx, 12(%r13)
.L1606:
	cmpl	$1, %eax
	jne	.L1574
	movq	0(%r13), %rax
	movq	%r13, %rdi
	call	*24(%rax)
	jmp	.L1574
	.p2align 4,,10
	.p2align 3
.L1589:
	movl	8(%rax), %eax
	leal	-1(%rax), %edx
	cmpl	$1, %eax
	movl	%edx, 8(%r15)
	jne	.L1604
	movq	(%r15), %rax
	movq	%r15, %rdi
	call	*16(%rax)
	movl	12(%r15), %eax
	leal	-1(%rax), %edx
	cmpl	$1, %eax
	movl	%edx, 12(%r15)
	jne	.L1604
	jmp	.L1608
	.p2align 4,,10
	.p2align 3
.L1637:
	movq	(%rbx), %rax
	movq	_ZTISt19_Sp_make_shared_tag@GOTPCREL(%rip), %rsi
	movq	%rbx, %rdi
	leaq	8(%rbx), %r13
	call	*32(%rax)
	movq	%rbx, -88(%rbp)
	movq	%rax, -96(%rbp)
	jmp	.L1602
	.p2align 4,,10
	.p2align 3
.L1643:
	movq	(%rbx), %rax
	movq	%rbx, %rdi
	call	*16(%rax)
	movl	$-1, %eax
	lock xaddl	%eax, 12(%rbx)
	jmp	.L1611
	.p2align 4,,10
	.p2align 3
.L1641:
	movq	0(%r13), %rax
	movq	%r13, %rdi
	call	*16(%rax)
	movl	$-1, %eax
	lock xaddl	%eax, 12(%r13)
	jmp	.L1607
	.p2align 4,,10
	.p2align 3
.L1640:
	movq	0(%r13), %rax
	movq	%r13, %rdi
	call	*16(%rax)
	movl	$-1, %eax
	lock xaddl	%eax, 12(%r13)
	jmp	.L1606
.L1644:
	call	__stack_chk_fail@PLT
.L1613:
	movq	-88(%rbp), %rdi
	movq	%rax, %r15
	testq	%rdi, %rdi
	je	.L1599
	call	_ZNSt16_Sp_counted_baseILN9__gnu_cxx12_Lock_policyE2EE10_M_releaseEv@PLT
.L1599:
	movq	%rbx, %rdi
	call	_ZNSt16_Sp_counted_baseILN9__gnu_cxx12_Lock_policyE2EE10_M_releaseEv@PLT
	movq	%r15, %rdi
.LEHB61:
	call	_Unwind_Resume@PLT
.L1614:
	movq	%r12, %rdi
	movq	%rax, %r15
	call	_ZN7openpal6LoggerD1Ev@PLT
	movq	%rbx, %rdi
	call	_ZdlPv@PLT
	movq	%r15, %rdi
	call	_Unwind_Resume@PLT
.LEHE61:
	.cfi_endproc
.LFE3401:
	.section	.gcc_except_table
.LLSDA3401:
	.byte	0xff
	.byte	0xff
	.byte	0x1
	.uleb128 .LLSDACSE3401-.LLSDACSB3401
.LLSDACSB3401:
	.uleb128 .LEHB58-.LFB3401
	.uleb128 .LEHE58-.LEHB58
	.uleb128 0
	.uleb128 0
	.uleb128 .LEHB59-.LFB3401
	.uleb128 .LEHE59-.LEHB59
	.uleb128 .L1614-.LFB3401
	.uleb128 0
	.uleb128 .LEHB60-.LFB3401
	.uleb128 .LEHE60-.LEHB60
	.uleb128 .L1613-.LFB3401
	.uleb128 0
	.uleb128 .LEHB61-.LFB3401
	.uleb128 .LEHE61-.LEHB61
	.uleb128 0
	.uleb128 0
.LLSDACSE3401:
	.text
	.size	_ZN8opendnp38MContext15PerformFunctionERKNSt7__cxx1112basic_stringIcSt11char_traitsIcESaIcEEENS_12FunctionCodeERKSt8functionIFbRNS_12HeaderWriterEEENS_10TaskConfigE, .-_ZN8opendnp38MContext15PerformFunctionERKNSt7__cxx1112basic_stringIcSt11char_traitsIcESaIcEEENS_12FunctionCodeERKSt8functionIFbRNS_12HeaderWriterEEENS_10TaskConfigE
	.align 2
	.p2align 4,,15
	.globl	_ZN8opendnp38MContext7RestartENS_11RestartTypeERKSt8functionIFvRKNS_22RestartOperationResultEEENS_10TaskConfigE
	.type	_ZN8opendnp38MContext7RestartENS_11RestartTypeERKSt8functionIFvRKNS_22RestartOperationResultEEENS_10TaskConfigE, @function
_ZN8opendnp38MContext7RestartENS_11RestartTypeERKSt8functionIFvRKNS_22RestartOperationResultEEENS_10TaskConfigE:
.LFB3394:
	.cfi_startproc
	.cfi_personality 0x9b,DW.ref.__gxx_personality_v0
	.cfi_lsda 0x1b,.LLSDA3394
	pushq	%r15
	.cfi_def_cfa_offset 16
	.cfi_offset 15, -16
	pushq	%r14
	.cfi_def_cfa_offset 24
	.cfi_offset 14, -24
	movq	%rdx, %r15
	pushq	%r13
	.cfi_def_cfa_offset 32
	.cfi_offset 13, -32
	pushq	%r12
	.cfi_def_cfa_offset 40
	.cfi_offset 12, -40
	movl	%esi, %r13d
	pushq	%rbp
	.cfi_def_cfa_offset 48
	.cfi_offset 6, -48
	pushq	%rbx
	.cfi_def_cfa_offset 56
	.cfi_offset 3, -56
	movq	%rdi, %rbp
	subq	$72, %rsp
	.cfi_def_cfa_offset 128
	movq	144(%rdi), %r12
	movl	$208, %edi
	movq	%fs:40, %rax
	movq	%rax, 56(%rsp)
	xorl	%eax, %eax
	movq	%rcx, (%rsp)
	movq	%r8, 8(%rsp)
.LEHB62:
	call	_Znwm@PLT
.LEHE62:
	movq	%rax, %rbx
	movabsq	$4294967297, %rax
	movq	%rax, 8(%rbx)
	movq	_ZTVSt23_Sp_counted_ptr_inplaceIN8opendnp320RestartOperationTaskESaIS1_ELN9__gnu_cxx12_Lock_policyE2EE@GOTPCREL(%rip), %rax
	leaq	16(%rbx), %rdi
	addq	$16, %rax
	movq	%rax, (%rbx)
	movq	24(%rbp), %rax
	movq	%rax, 16(%rsp)
	movq	32(%rbp), %rax
	testq	%rax, %rax
	movq	%rax, 24(%rsp)
	je	.L1646
	cmpq	$0, _ZL28__gthrw___pthread_key_createPjPFvPvE@GOTPCREL(%rip)
	jne	.L1719
	addl	$1, 8(%rax)
	movq	40(%rbp), %rax
	movq	%rax, 32(%rsp)
	movq	48(%rbp), %rax
	testq	%rax, %rax
	movq	%rax, 40(%rsp)
	je	.L1651
.L1650:
	addl	$1, 8(%rax)
.L1651:
	leaq	16(%rsp), %r14
	movq	%rsp, %r9
	movq	%r15, %rcx
	movl	%r13d, %edx
	movq	%r12, %rsi
	movq	%r14, %r8
.LEHB63:
	call	_ZN8opendnp320RestartOperationTaskC1ERNS_18IMasterApplicationENS_11RestartTypeERKSt8functionIFvRKNS_22RestartOperationResultEEEN7openpal6LoggerERKNS_10TaskConfigE@PLT
.LEHE63:
	movq	40(%rsp), %r12
	movq	_ZL28__gthrw___pthread_key_createPjPFvPvE@GOTPCREL(%rip), %r13
	testq	%r12, %r12
	je	.L1653
	testq	%r13, %r13
	je	.L1654
	lock subl	$1, 8(%r12)
	je	.L1720
.L1653:
	movq	24(%rsp), %r12
	testq	%r12, %r12
	je	.L1664
	testq	%r13, %r13
	je	.L1659
	lock subl	$1, 8(%r12)
	je	.L1721
	movq	(%rbx), %rax
	leaq	8(%rbx), %r12
	movq	_ZTISt19_Sp_make_shared_tag@GOTPCREL(%rip), %rsi
	movq	%rbx, %rdi
	call	*32(%rax)
	movq	%rbx, 24(%rsp)
	movq	%rax, 16(%rsp)
.L1680:
	lock addl	$1, (%r12)
.L1666:
	movq	%r14, %rsi
	movq	%rbp, %rdi
.LEHB64:
	call	_ZN8opendnp38MContext17ScheduleAdhocTaskERKSt10shared_ptrINS_11IMasterTaskEE@PLT
.LEHE64:
	movq	24(%rsp), %rbp
	testq	%rbp, %rbp
	je	.L1667
	testq	%r13, %r13
	je	.L1668
	lock subl	$1, 8(%rbp)
	je	.L1722
.L1682:
	lock subl	$1, (%r12)
	je	.L1723
.L1645:
	movq	56(%rsp), %rax
	xorq	%fs:40, %rax
	jne	.L1724
	addq	$72, %rsp
	.cfi_remember_state
	.cfi_def_cfa_offset 56
	popq	%rbx
	.cfi_def_cfa_offset 48
	popq	%rbp
	.cfi_def_cfa_offset 40
	popq	%r12
	.cfi_def_cfa_offset 32
	popq	%r13
	.cfi_def_cfa_offset 24
	popq	%r14
	.cfi_def_cfa_offset 16
	popq	%r15
	.cfi_def_cfa_offset 8
	ret
	.p2align 4,,10
	.p2align 3
.L1719:
	.cfi_restore_state
	lock addl	$1, 8(%rax)
	movq	48(%rbp), %rdx
	movq	40(%rbp), %rax
	testq	%rdx, %rdx
	movq	%rax, 32(%rsp)
	movq	%rdx, 40(%rsp)
	leaq	8(%rdx), %rax
	je	.L1651
.L1684:
	lock addl	$1, (%rax)
	jmp	.L1651
	.p2align 4,,10
	.p2align 3
.L1659:
	movl	8(%r12), %eax
	leal	-1(%rax), %edx
	cmpl	$1, %eax
	movl	%edx, 8(%r12)
	jne	.L1716
	movq	(%r12), %rax
	movq	%r12, %rdi
	call	*16(%rax)
	movl	12(%r12), %eax
	leal	-1(%rax), %edx
	movl	%edx, 12(%r12)
.L1686:
	cmpl	$1, %eax
	jne	.L1664
	movq	(%r12), %rax
	movq	%r12, %rdi
	call	*24(%rax)
	.p2align 4,,10
	.p2align 3
.L1664:
	movq	(%rbx), %rax
	movq	_ZTISt19_Sp_make_shared_tag@GOTPCREL(%rip), %rsi
	movq	%rbx, %rdi
	leaq	8(%rbx), %r12
	call	*32(%rax)
	testq	%r13, %r13
	movq	%rax, 16(%rsp)
	movq	%rbx, 24(%rsp)
	jne	.L1680
.L1681:
	addl	$1, 8(%rbx)
	jmp	.L1666
	.p2align 4,,10
	.p2align 3
.L1722:
	movq	0(%rbp), %rax
	movq	%rbp, %rdi
	call	*16(%rax)
	lock subl	$1, 12(%rbp)
	jne	.L1682
.L1687:
	movq	0(%rbp), %rax
	movq	%rbp, %rdi
	call	*24(%rax)
	.p2align 4,,10
	.p2align 3
.L1667:
	testq	%r13, %r13
	jne	.L1682
.L1683:
	movl	8(%rbx), %eax
	leal	-1(%rax), %edx
	cmpl	$1, %eax
	movl	%edx, 8(%rbx)
	jne	.L1645
	movq	(%rbx), %rax
	movq	%rbx, %rdi
	call	*16(%rax)
	movl	12(%rbx), %eax
	leal	-1(%rax), %edx
	movl	%edx, 12(%rbx)
.L1690:
	cmpl	$1, %eax
	jne	.L1645
	movq	(%rbx), %rax
	movq	%rbx, %rdi
	call	*24(%rax)
	jmp	.L1645
	.p2align 4,,10
	.p2align 3
.L1646:
	movq	40(%rbp), %rax
	movq	%rax, 32(%rsp)
	movq	48(%rbp), %rax
	testq	%rax, %rax
	movq	%rax, 40(%rsp)
	je	.L1651
	cmpq	$0, _ZL28__gthrw___pthread_key_createPjPFvPvE@GOTPCREL(%rip)
	je	.L1650
	addq	$8, %rax
	jmp	.L1684
	.p2align 4,,10
	.p2align 3
.L1654:
	movl	8(%r12), %eax
	leal	-1(%rax), %edx
	cmpl	$1, %eax
	movl	%edx, 8(%r12)
	jne	.L1653
	movq	(%r12), %rax
	movq	%r12, %rdi
	call	*16(%rax)
	movl	12(%r12), %eax
	leal	-1(%rax), %edx
	movl	%edx, 12(%r12)
.L1685:
	cmpl	$1, %eax
	jne	.L1653
	movq	(%r12), %rax
	movq	%r12, %rdi
	call	*24(%rax)
	jmp	.L1653
	.p2align 4,,10
	.p2align 3
.L1668:
	movl	8(%rbp), %eax
	leal	-1(%rax), %edx
	cmpl	$1, %eax
	movl	%edx, 8(%rbp)
	jne	.L1683
	movq	0(%rbp), %rax
	movq	%rbp, %rdi
	call	*16(%rax)
	movl	12(%rbp), %eax
	leal	-1(%rax), %edx
	cmpl	$1, %eax
	movl	%edx, 12(%rbp)
	jne	.L1683
	jmp	.L1687
	.p2align 4,,10
	.p2align 3
.L1716:
	movq	(%rbx), %rax
	movq	_ZTISt19_Sp_make_shared_tag@GOTPCREL(%rip), %rsi
	movq	%rbx, %rdi
	leaq	8(%rbx), %r12
	call	*32(%rax)
	movq	%rbx, 24(%rsp)
	movq	%rax, 16(%rsp)
	jmp	.L1681
	.p2align 4,,10
	.p2align 3
.L1723:
	movq	(%rbx), %rax
	movq	%rbx, %rdi
	call	*16(%rax)
	movl	$-1, %eax
	lock xaddl	%eax, 12(%rbx)
	jmp	.L1690
	.p2align 4,,10
	.p2align 3
.L1721:
	movq	(%r12), %rax
	movq	%r12, %rdi
	call	*16(%rax)
	movl	$-1, %eax
	lock xaddl	%eax, 12(%r12)
	jmp	.L1686
	.p2align 4,,10
	.p2align 3
.L1720:
	movq	(%r12), %rax
	movq	%r12, %rdi
	call	*16(%rax)
	movl	$-1, %eax
	lock xaddl	%eax, 12(%r12)
	jmp	.L1685
.L1724:
	call	__stack_chk_fail@PLT
.L1692:
	movq	24(%rsp), %rdi
	movq	%rax, %rbp
	testq	%rdi, %rdi
	je	.L1678
	call	_ZNSt16_Sp_counted_baseILN9__gnu_cxx12_Lock_policyE2EE10_M_releaseEv@PLT
.L1678:
	movq	%rbx, %rdi
	call	_ZNSt16_Sp_counted_baseILN9__gnu_cxx12_Lock_policyE2EE10_M_releaseEv@PLT
	movq	%rbp, %rdi
.LEHB65:
	call	_Unwind_Resume@PLT
.L1693:
	movq	%r14, %rdi
	movq	%rax, %rbp
	call	_ZN7openpal6LoggerD1Ev@PLT
	movq	%rbx, %rdi
	call	_ZdlPv@PLT
	movq	%rbp, %rdi
	call	_Unwind_Resume@PLT
.LEHE65:
	.cfi_endproc
.LFE3394:
	.section	.gcc_except_table
.LLSDA3394:
	.byte	0xff
	.byte	0xff
	.byte	0x1
	.uleb128 .LLSDACSE3394-.LLSDACSB3394
.LLSDACSB3394:
	.uleb128 .LEHB62-.LFB3394
	.uleb128 .LEHE62-.LEHB62
	.uleb128 0
	.uleb128 0
	.uleb128 .LEHB63-.LFB3394
	.uleb128 .LEHE63-.LEHB63
	.uleb128 .L1693-.LFB3394
	.uleb128 0
	.uleb128 .LEHB64-.LFB3394
	.uleb128 .LEHE64-.LEHB64
	.uleb128 .L1692-.LFB3394
	.uleb128 0
	.uleb128 .LEHB65-.LFB3394
	.uleb128 .LEHE65-.LEHB65
	.uleb128 0
	.uleb128 0
.LLSDACSE3394:
	.text
	.size	_ZN8opendnp38MContext7RestartENS_11RestartTypeERKSt8functionIFvRKNS_22RestartOperationResultEEENS_10TaskConfigE, .-_ZN8opendnp38MContext7RestartENS_11RestartTypeERKSt8functionIFvRKNS_22RestartOperationResultEEENS_10TaskConfigE
	.section	.text.startup,"ax",@progbits
	.p2align 4,,15
	.type	_GLOBAL__sub_I_MasterContext.cpp, @function
_GLOBAL__sub_I_MasterContext.cpp:
.LFB4971:
	.cfi_startproc
	movl	$5000, %edi
	jmp	_ZN7openpal12TimeDuration12MillisecondsEl@PLT
	.cfi_endproc
.LFE4971:
	.size	_GLOBAL__sub_I_MasterContext.cpp, .-_GLOBAL__sub_I_MasterContext.cpp
	.section	.init_array,"aw"
	.align 8
	.quad	_GLOBAL__sub_I_MasterContext.cpp
	.weak	_ZTSN7openpal10UncopyableE
	.section	.rodata._ZTSN7openpal10UncopyableE,"aG",@progbits,_ZTSN7openpal10UncopyableE,comdat
	.align 16
	.type	_ZTSN7openpal10UncopyableE, @object
	.size	_ZTSN7openpal10UncopyableE, 23
_ZTSN7openpal10UncopyableE:
	.string	"N7openpal10UncopyableE"
	.weak	_ZTIN7openpal10UncopyableE
	.section	.data.rel.ro._ZTIN7openpal10UncopyableE,"awG",@progbits,_ZTIN7openpal10UncopyableE,comdat
	.align 8
	.type	_ZTIN7openpal10UncopyableE, @object
	.size	_ZTIN7openpal10UncopyableE, 16
_ZTIN7openpal10UncopyableE:
	.quad	_ZTVN10__cxxabiv117__class_type_infoE+16
	.quad	_ZTSN7openpal10UncopyableE
	.weak	_ZTSSt11_Mutex_baseILN9__gnu_cxx12_Lock_policyE2EE
	.section	.rodata._ZTSSt11_Mutex_baseILN9__gnu_cxx12_Lock_policyE2EE,"aG",@progbits,_ZTSSt11_Mutex_baseILN9__gnu_cxx12_Lock_policyE2EE,comdat
	.align 32
	.type	_ZTSSt11_Mutex_baseILN9__gnu_cxx12_Lock_policyE2EE, @object
	.size	_ZTSSt11_Mutex_baseILN9__gnu_cxx12_Lock_policyE2EE, 47
_ZTSSt11_Mutex_baseILN9__gnu_cxx12_Lock_policyE2EE:
	.string	"St11_Mutex_baseILN9__gnu_cxx12_Lock_policyE2EE"
	.weak	_ZTISt11_Mutex_baseILN9__gnu_cxx12_Lock_policyE2EE
	.section	.data.rel.ro._ZTISt11_Mutex_baseILN9__gnu_cxx12_Lock_policyE2EE,"awG",@progbits,_ZTISt11_Mutex_baseILN9__gnu_cxx12_Lock_policyE2EE,comdat
	.align 8
	.type	_ZTISt11_Mutex_baseILN9__gnu_cxx12_Lock_policyE2EE, @object
	.size	_ZTISt11_Mutex_baseILN9__gnu_cxx12_Lock_policyE2EE, 16
_ZTISt11_Mutex_baseILN9__gnu_cxx12_Lock_policyE2EE:
	.quad	_ZTVN10__cxxabiv117__class_type_infoE+16
	.quad	_ZTSSt11_Mutex_baseILN9__gnu_cxx12_Lock_policyE2EE
	.weak	_ZTSN7openpal7HasSizeIjEE
	.section	.rodata._ZTSN7openpal7HasSizeIjEE,"aG",@progbits,_ZTSN7openpal7HasSizeIjEE,comdat
	.align 16
	.type	_ZTSN7openpal7HasSizeIjEE, @object
	.size	_ZTSN7openpal7HasSizeIjEE, 22
_ZTSN7openpal7HasSizeIjEE:
	.string	"N7openpal7HasSizeIjEE"
	.weak	_ZTIN7openpal7HasSizeIjEE
	.section	.data.rel.ro._ZTIN7openpal7HasSizeIjEE,"awG",@progbits,_ZTIN7openpal7HasSizeIjEE,comdat
	.align 8
	.type	_ZTIN7openpal7HasSizeIjEE, @object
	.size	_ZTIN7openpal7HasSizeIjEE, 16
_ZTIN7openpal7HasSizeIjEE:
	.quad	_ZTVN10__cxxabiv117__class_type_infoE+16
	.quad	_ZTSN7openpal7HasSizeIjEE
	.weak	_ZTSSt16_Sp_counted_baseILN9__gnu_cxx12_Lock_policyE2EE
	.section	.rodata._ZTSSt16_Sp_counted_baseILN9__gnu_cxx12_Lock_policyE2EE,"aG",@progbits,_ZTSSt16_Sp_counted_baseILN9__gnu_cxx12_Lock_policyE2EE,comdat
	.align 32
	.type	_ZTSSt16_Sp_counted_baseILN9__gnu_cxx12_Lock_policyE2EE, @object
	.size	_ZTSSt16_Sp_counted_baseILN9__gnu_cxx12_Lock_policyE2EE, 52
_ZTSSt16_Sp_counted_baseILN9__gnu_cxx12_Lock_policyE2EE:
	.string	"St16_Sp_counted_baseILN9__gnu_cxx12_Lock_policyE2EE"
	.weak	_ZTISt16_Sp_counted_baseILN9__gnu_cxx12_Lock_policyE2EE
	.section	.data.rel.ro._ZTISt16_Sp_counted_baseILN9__gnu_cxx12_Lock_policyE2EE,"awG",@progbits,_ZTISt16_Sp_counted_baseILN9__gnu_cxx12_Lock_policyE2EE,comdat
	.align 8
	.type	_ZTISt16_Sp_counted_baseILN9__gnu_cxx12_Lock_policyE2EE, @object
	.size	_ZTISt16_Sp_counted_baseILN9__gnu_cxx12_Lock_policyE2EE, 24
_ZTISt16_Sp_counted_baseILN9__gnu_cxx12_Lock_policyE2EE:
	.quad	_ZTVN10__cxxabiv120__si_class_type_infoE+16
	.quad	_ZTSSt16_Sp_counted_baseILN9__gnu_cxx12_Lock_policyE2EE
	.quad	_ZTISt11_Mutex_baseILN9__gnu_cxx12_Lock_policyE2EE
	.weak	_ZTSN7openpal5ArrayIhjEE
	.section	.rodata._ZTSN7openpal5ArrayIhjEE,"aG",@progbits,_ZTSN7openpal5ArrayIhjEE,comdat
	.align 16
	.type	_ZTSN7openpal5ArrayIhjEE, @object
	.size	_ZTSN7openpal5ArrayIhjEE, 21
_ZTSN7openpal5ArrayIhjEE:
	.string	"N7openpal5ArrayIhjEE"
	.weak	_ZTIN7openpal5ArrayIhjEE
	.section	.data.rel.ro._ZTIN7openpal5ArrayIhjEE,"awG",@progbits,_ZTIN7openpal5ArrayIhjEE,comdat
	.align 8
	.type	_ZTIN7openpal5ArrayIhjEE, @object
	.size	_ZTIN7openpal5ArrayIhjEE, 40
_ZTIN7openpal5ArrayIhjEE:
	.quad	_ZTVN10__cxxabiv121__vmi_class_type_infoE+16
	.quad	_ZTSN7openpal5ArrayIhjEE
	.long	0
	.long	1
	.quad	_ZTIN7openpal7HasSizeIjEE
	.quad	2050
	.weak	_ZTSN8opendnp37IUpDownE
	.section	.rodata._ZTSN8opendnp37IUpDownE,"aG",@progbits,_ZTSN8opendnp37IUpDownE,comdat
	.align 16
	.type	_ZTSN8opendnp37IUpDownE, @object
	.size	_ZTSN8opendnp37IUpDownE, 20
_ZTSN8opendnp37IUpDownE:
	.string	"N8opendnp37IUpDownE"
	.weak	_ZTIN8opendnp37IUpDownE
	.section	.data.rel.ro._ZTIN8opendnp37IUpDownE,"awG",@progbits,_ZTIN8opendnp37IUpDownE,comdat
	.align 8
	.type	_ZTIN8opendnp37IUpDownE, @object
	.size	_ZTIN8opendnp37IUpDownE, 16
_ZTIN8opendnp37IUpDownE:
	.quad	_ZTVN10__cxxabiv117__class_type_infoE+16
	.quad	_ZTSN8opendnp37IUpDownE
	.weak	_ZTSN8opendnp311IUpperLayerE
	.section	.rodata._ZTSN8opendnp311IUpperLayerE,"aG",@progbits,_ZTSN8opendnp311IUpperLayerE,comdat
	.align 16
	.type	_ZTSN8opendnp311IUpperLayerE, @object
	.size	_ZTSN8opendnp311IUpperLayerE, 25
_ZTSN8opendnp311IUpperLayerE:
	.string	"N8opendnp311IUpperLayerE"
	.weak	_ZTIN8opendnp311IUpperLayerE
	.section	.data.rel.ro._ZTIN8opendnp311IUpperLayerE,"awG",@progbits,_ZTIN8opendnp311IUpperLayerE,comdat
	.align 8
	.type	_ZTIN8opendnp311IUpperLayerE, @object
	.size	_ZTIN8opendnp311IUpperLayerE, 24
_ZTIN8opendnp311IUpperLayerE:
	.quad	_ZTVN10__cxxabiv120__si_class_type_infoE+16
	.quad	_ZTSN8opendnp311IUpperLayerE
	.quad	_ZTIN8opendnp37IUpDownE
	.weak	_ZTSN8opendnp317IScheduleCallbackE
	.section	.rodata._ZTSN8opendnp317IScheduleCallbackE,"aG",@progbits,_ZTSN8opendnp317IScheduleCallbackE,comdat
	.align 16
	.type	_ZTSN8opendnp317IScheduleCallbackE, @object
	.size	_ZTSN8opendnp317IScheduleCallbackE, 31
_ZTSN8opendnp317IScheduleCallbackE:
	.string	"N8opendnp317IScheduleCallbackE"
	.weak	_ZTIN8opendnp317IScheduleCallbackE
	.section	.data.rel.ro._ZTIN8opendnp317IScheduleCallbackE,"awG",@progbits,_ZTIN8opendnp317IScheduleCallbackE,comdat
	.align 8
	.type	_ZTIN8opendnp317IScheduleCallbackE, @object
	.size	_ZTIN8opendnp317IScheduleCallbackE, 16
_ZTIN8opendnp317IScheduleCallbackE:
	.quad	_ZTVN10__cxxabiv117__class_type_infoE+16
	.quad	_ZTSN8opendnp317IScheduleCallbackE
	.weak	_ZTSN8opendnp311ITaskFilterE
	.section	.rodata._ZTSN8opendnp311ITaskFilterE,"aG",@progbits,_ZTSN8opendnp311ITaskFilterE,comdat
	.align 16
	.type	_ZTSN8opendnp311ITaskFilterE, @object
	.size	_ZTSN8opendnp311ITaskFilterE, 25
_ZTSN8opendnp311ITaskFilterE:
	.string	"N8opendnp311ITaskFilterE"
	.weak	_ZTIN8opendnp311ITaskFilterE
	.section	.data.rel.ro._ZTIN8opendnp311ITaskFilterE,"awG",@progbits,_ZTIN8opendnp311ITaskFilterE,comdat
	.align 8
	.type	_ZTIN8opendnp311ITaskFilterE, @object
	.size	_ZTIN8opendnp311ITaskFilterE, 16
_ZTIN8opendnp311ITaskFilterE:
	.quad	_ZTVN10__cxxabiv117__class_type_infoE+16
	.quad	_ZTSN8opendnp311ITaskFilterE
	.weak	_ZTSN8opendnp38MContextE
	.section	.rodata._ZTSN8opendnp38MContextE,"aG",@progbits,_ZTSN8opendnp38MContextE,comdat
	.align 16
	.type	_ZTSN8opendnp38MContextE, @object
	.size	_ZTSN8opendnp38MContextE, 21
_ZTSN8opendnp38MContextE:
	.string	"N8opendnp38MContextE"
	.weak	_ZTIN8opendnp38MContextE
	.section	.data.rel.ro._ZTIN8opendnp38MContextE,"awG",@progbits,_ZTIN8opendnp38MContextE,comdat
	.align 8
	.type	_ZTIN8opendnp38MContextE, @object
	.size	_ZTIN8opendnp38MContextE, 88
_ZTIN8opendnp38MContextE:
	.quad	_ZTVN10__cxxabiv121__vmi_class_type_infoE+16
	.quad	_ZTSN8opendnp38MContextE
	.long	0
	.long	4
	.quad	_ZTIN8opendnp311IUpperLayerE
	.quad	2
	.quad	_ZTIN8opendnp317IScheduleCallbackE
	.quad	2048
	.quad	_ZTIN8opendnp311ITaskFilterE
	.quad	4096
	.quad	_ZTIN7openpal10UncopyableE
	.quad	0
	.section	.data.rel.ro,"aw",@progbits
	.align 8
	.type	_ZTIZN8opendnp38MContext16PostCheckForTaskEvEUlvE_, @object
	.size	_ZTIZN8opendnp38MContext16PostCheckForTaskEvEUlvE_, 16
_ZTIZN8opendnp38MContext16PostCheckForTaskEvEUlvE_:
	.quad	_ZTVN10__cxxabiv117__class_type_infoE+16
	.quad	_ZTSZN8opendnp38MContext16PostCheckForTaskEvEUlvE_
	.section	.rodata
	.align 32
	.type	_ZTSZN8opendnp38MContext16PostCheckForTaskEvEUlvE_, @object
	.size	_ZTSZN8opendnp38MContext16PostCheckForTaskEvEUlvE_, 48
_ZTSZN8opendnp38MContext16PostCheckForTaskEvEUlvE_:
	.string	"*ZN8opendnp38MContext16PostCheckForTaskEvEUlvE_"
	.section	.data.rel.ro
	.align 8
	.type	_ZTIZN8opendnp38MContext12AddClassScanERKNS_10ClassFieldEN7openpal12TimeDurationENS_10TaskConfigEEUlRNS_12HeaderWriterEE_, @object
	.size	_ZTIZN8opendnp38MContext12AddClassScanERKNS_10ClassFieldEN7openpal12TimeDurationENS_10TaskConfigEEUlRNS_12HeaderWriterEE_, 16
_ZTIZN8opendnp38MContext12AddClassScanERKNS_10ClassFieldEN7openpal12TimeDurationENS_10TaskConfigEEUlRNS_12HeaderWriterEE_:
	.quad	_ZTVN10__cxxabiv117__class_type_infoE+16
	.quad	_ZTSZN8opendnp38MContext12AddClassScanERKNS_10ClassFieldEN7openpal12TimeDurationENS_10TaskConfigEEUlRNS_12HeaderWriterEE_
	.section	.rodata
	.align 32
	.type	_ZTSZN8opendnp38MContext12AddClassScanERKNS_10ClassFieldEN7openpal12TimeDurationENS_10TaskConfigEEUlRNS_12HeaderWriterEE_, @object
	.size	_ZTSZN8opendnp38MContext12AddClassScanERKNS_10ClassFieldEN7openpal12TimeDurationENS_10TaskConfigEEUlRNS_12HeaderWriterEE_, 119
_ZTSZN8opendnp38MContext12AddClassScanERKNS_10ClassFieldEN7openpal12TimeDurationENS_10TaskConfigEEUlRNS_12HeaderWriterEE_:
	.string	"*ZN8opendnp38MContext12AddClassScanERKNS_10ClassFieldEN7openpal12TimeDurationENS_10TaskConfigEEUlRNS_12HeaderWriterEE_"
	.section	.data.rel.ro
	.align 8
	.type	_ZTIZN8opendnp38MContext17AddAllObjectsScanENS_16GroupVariationIDEN7openpal12TimeDurationENS_10TaskConfigEEUlRNS_12HeaderWriterEE_, @object
	.size	_ZTIZN8opendnp38MContext17AddAllObjectsScanENS_16GroupVariationIDEN7openpal12TimeDurationENS_10TaskConfigEEUlRNS_12HeaderWriterEE_, 16
_ZTIZN8opendnp38MContext17AddAllObjectsScanENS_16GroupVariationIDEN7openpal12TimeDurationENS_10TaskConfigEEUlRNS_12HeaderWriterEE_:
	.quad	_ZTVN10__cxxabiv117__class_type_infoE+16
	.quad	_ZTSZN8opendnp38MContext17AddAllObjectsScanENS_16GroupVariationIDEN7openpal12TimeDurationENS_10TaskConfigEEUlRNS_12HeaderWriterEE_
	.section	.rodata
	.align 32
	.type	_ZTSZN8opendnp38MContext17AddAllObjectsScanENS_16GroupVariationIDEN7openpal12TimeDurationENS_10TaskConfigEEUlRNS_12HeaderWriterEE_, @object
	.size	_ZTSZN8opendnp38MContext17AddAllObjectsScanENS_16GroupVariationIDEN7openpal12TimeDurationENS_10TaskConfigEEUlRNS_12HeaderWriterEE_, 128
_ZTSZN8opendnp38MContext17AddAllObjectsScanENS_16GroupVariationIDEN7openpal12TimeDurationENS_10TaskConfigEEUlRNS_12HeaderWriterEE_:
	.string	"*ZN8opendnp38MContext17AddAllObjectsScanENS_16GroupVariationIDEN7openpal12TimeDurationENS_10TaskConfigEEUlRNS_12HeaderWriterEE_"
	.section	.data.rel.ro
	.align 8
	.type	_ZTIZN8opendnp38MContext12AddRangeScanENS_16GroupVariationIDEttN7openpal12TimeDurationENS_10TaskConfigEEUlRNS_12HeaderWriterEE_, @object
	.size	_ZTIZN8opendnp38MContext12AddRangeScanENS_16GroupVariationIDEttN7openpal12TimeDurationENS_10TaskConfigEEUlRNS_12HeaderWriterEE_, 16
_ZTIZN8opendnp38MContext12AddRangeScanENS_16GroupVariationIDEttN7openpal12TimeDurationENS_10TaskConfigEEUlRNS_12HeaderWriterEE_:
	.quad	_ZTVN10__cxxabiv117__class_type_infoE+16
	.quad	_ZTSZN8opendnp38MContext12AddRangeScanENS_16GroupVariationIDEttN7openpal12TimeDurationENS_10TaskConfigEEUlRNS_12HeaderWriterEE_
	.section	.rodata
	.align 32
	.type	_ZTSZN8opendnp38MContext12AddRangeScanENS_16GroupVariationIDEttN7openpal12TimeDurationENS_10TaskConfigEEUlRNS_12HeaderWriterEE_, @object
	.size	_ZTSZN8opendnp38MContext12AddRangeScanENS_16GroupVariationIDEttN7openpal12TimeDurationENS_10TaskConfigEEUlRNS_12HeaderWriterEE_, 125
_ZTSZN8opendnp38MContext12AddRangeScanENS_16GroupVariationIDEttN7openpal12TimeDurationENS_10TaskConfigEEUlRNS_12HeaderWriterEE_:
	.string	"*ZN8opendnp38MContext12AddRangeScanENS_16GroupVariationIDEttN7openpal12TimeDurationENS_10TaskConfigEEUlRNS_12HeaderWriterEE_"
	.section	.data.rel.ro
	.align 8
	.type	_ZTIZN8opendnp38MContext11ScanClassesERKNS_10ClassFieldENS_10TaskConfigEEUlRNS_12HeaderWriterEE_, @object
	.size	_ZTIZN8opendnp38MContext11ScanClassesERKNS_10ClassFieldENS_10TaskConfigEEUlRNS_12HeaderWriterEE_, 16
_ZTIZN8opendnp38MContext11ScanClassesERKNS_10ClassFieldENS_10TaskConfigEEUlRNS_12HeaderWriterEE_:
	.quad	_ZTVN10__cxxabiv117__class_type_infoE+16
	.quad	_ZTSZN8opendnp38MContext11ScanClassesERKNS_10ClassFieldENS_10TaskConfigEEUlRNS_12HeaderWriterEE_
	.section	.rodata
	.align 32
	.type	_ZTSZN8opendnp38MContext11ScanClassesERKNS_10ClassFieldENS_10TaskConfigEEUlRNS_12HeaderWriterEE_, @object
	.size	_ZTSZN8opendnp38MContext11ScanClassesERKNS_10ClassFieldENS_10TaskConfigEEUlRNS_12HeaderWriterEE_, 94
_ZTSZN8opendnp38MContext11ScanClassesERKNS_10ClassFieldENS_10TaskConfigEEUlRNS_12HeaderWriterEE_:
	.string	"*ZN8opendnp38MContext11ScanClassesERKNS_10ClassFieldENS_10TaskConfigEEUlRNS_12HeaderWriterEE_"
	.section	.data.rel.ro
	.align 8
	.type	_ZTIZN8opendnp38MContext14ScanAllObjectsENS_16GroupVariationIDENS_10TaskConfigEEUlRNS_12HeaderWriterEE_, @object
	.size	_ZTIZN8opendnp38MContext14ScanAllObjectsENS_16GroupVariationIDENS_10TaskConfigEEUlRNS_12HeaderWriterEE_, 16
_ZTIZN8opendnp38MContext14ScanAllObjectsENS_16GroupVariationIDENS_10TaskConfigEEUlRNS_12HeaderWriterEE_:
	.quad	_ZTVN10__cxxabiv117__class_type_infoE+16
	.quad	_ZTSZN8opendnp38MContext14ScanAllObjectsENS_16GroupVariationIDENS_10TaskConfigEEUlRNS_12HeaderWriterEE_
	.section	.rodata
	.align 32
	.type	_ZTSZN8opendnp38MContext14ScanAllObjectsENS_16GroupVariationIDENS_10TaskConfigEEUlRNS_12HeaderWriterEE_, @object
	.size	_ZTSZN8opendnp38MContext14ScanAllObjectsENS_16GroupVariationIDENS_10TaskConfigEEUlRNS_12HeaderWriterEE_, 101
_ZTSZN8opendnp38MContext14ScanAllObjectsENS_16GroupVariationIDENS_10TaskConfigEEUlRNS_12HeaderWriterEE_:
	.string	"*ZN8opendnp38MContext14ScanAllObjectsENS_16GroupVariationIDENS_10TaskConfigEEUlRNS_12HeaderWriterEE_"
	.section	.data.rel.ro
	.align 8
	.type	_ZTIZN8opendnp38MContext9ScanRangeENS_16GroupVariationIDEttNS_10TaskConfigEEUlRNS_12HeaderWriterEE_, @object
	.size	_ZTIZN8opendnp38MContext9ScanRangeENS_16GroupVariationIDEttNS_10TaskConfigEEUlRNS_12HeaderWriterEE_, 16
_ZTIZN8opendnp38MContext9ScanRangeENS_16GroupVariationIDEttNS_10TaskConfigEEUlRNS_12HeaderWriterEE_:
	.quad	_ZTVN10__cxxabiv117__class_type_infoE+16
	.quad	_ZTSZN8opendnp38MContext9ScanRangeENS_16GroupVariationIDEttNS_10TaskConfigEEUlRNS_12HeaderWriterEE_
	.section	.rodata
	.align 32
	.type	_ZTSZN8opendnp38MContext9ScanRangeENS_16GroupVariationIDEttNS_10TaskConfigEEUlRNS_12HeaderWriterEE_, @object
	.size	_ZTSZN8opendnp38MContext9ScanRangeENS_16GroupVariationIDEttNS_10TaskConfigEEUlRNS_12HeaderWriterEE_, 97
_ZTSZN8opendnp38MContext9ScanRangeENS_16GroupVariationIDEttNS_10TaskConfigEEUlRNS_12HeaderWriterEE_:
	.string	"*ZN8opendnp38MContext9ScanRangeENS_16GroupVariationIDEttNS_10TaskConfigEEUlRNS_12HeaderWriterEE_"
	.section	.data.rel.ro
	.align 8
	.type	_ZTIZN7openpal8TimerRef5StartIZN8opendnp38MContext18StartResponseTimerEvEUlvE_EEbRKNS_12TimeDurationERKT_EUlvE_, @object
	.size	_ZTIZN7openpal8TimerRef5StartIZN8opendnp38MContext18StartResponseTimerEvEUlvE_EEbRKNS_12TimeDurationERKT_EUlvE_, 16
_ZTIZN7openpal8TimerRef5StartIZN8opendnp38MContext18StartResponseTimerEvEUlvE_EEbRKNS_12TimeDurationERKT_EUlvE_:
	.quad	_ZTVN10__cxxabiv117__class_type_infoE+16
	.quad	_ZTSZN7openpal8TimerRef5StartIZN8opendnp38MContext18StartResponseTimerEvEUlvE_EEbRKNS_12TimeDurationERKT_EUlvE_
	.section	.rodata
	.align 32
	.type	_ZTSZN7openpal8TimerRef5StartIZN8opendnp38MContext18StartResponseTimerEvEUlvE_EEbRKNS_12TimeDurationERKT_EUlvE_, @object
	.size	_ZTSZN7openpal8TimerRef5StartIZN8opendnp38MContext18StartResponseTimerEvEUlvE_EEbRKNS_12TimeDurationERKT_EUlvE_, 109
_ZTSZN7openpal8TimerRef5StartIZN8opendnp38MContext18StartResponseTimerEvEUlvE_EEbRKNS_12TimeDurationERKT_EUlvE_:
	.string	"*ZN7openpal8TimerRef5StartIZN8opendnp38MContext18StartResponseTimerEvEUlvE_EEbRKNS_12TimeDurationERKT_EUlvE_"
	.section	.data.rel.ro
	.align 8
	.type	_ZTIZN7openpal8TimerRef7RestartIZN8opendnp38MContext19SetTaskStartTimeoutERKNS_18MonotonicTimestampEEUlvE_EEvS6_RKT_EUlvE_, @object
	.size	_ZTIZN7openpal8TimerRef7RestartIZN8opendnp38MContext19SetTaskStartTimeoutERKNS_18MonotonicTimestampEEUlvE_EEvS6_RKT_EUlvE_, 16
_ZTIZN7openpal8TimerRef7RestartIZN8opendnp38MContext19SetTaskStartTimeoutERKNS_18MonotonicTimestampEEUlvE_EEvS6_RKT_EUlvE_:
	.quad	_ZTVN10__cxxabiv117__class_type_infoE+16
	.quad	_ZTSZN7openpal8TimerRef7RestartIZN8opendnp38MContext19SetTaskStartTimeoutERKNS_18MonotonicTimestampEEUlvE_EEvS6_RKT_EUlvE_
	.section	.rodata
	.align 32
	.type	_ZTSZN7openpal8TimerRef7RestartIZN8opendnp38MContext19SetTaskStartTimeoutERKNS_18MonotonicTimestampEEUlvE_EEvS6_RKT_EUlvE_, @object
	.size	_ZTSZN7openpal8TimerRef7RestartIZN8opendnp38MContext19SetTaskStartTimeoutERKNS_18MonotonicTimestampEEUlvE_EEvS6_RKT_EUlvE_, 120
