	.file	"MeasurementHandler.cpp"
	.text
	.section	.text._ZN8opendnp312IAPDUHandler14OnHeaderResultERKNS_12HeaderRecordERKNS_8IINFieldE,"axG",@progbits,_ZN8opendnp312IAPDUHandler14OnHeaderResultERKNS_12HeaderRecordERKNS_8IINFieldE,comdat
	.align 2
	.p2align 4,,15
	.weak	_ZN8opendnp312IAPDUHandler14OnHeaderResultERKNS_12HeaderRecordERKNS_8IINFieldE
	.type	_ZN8opendnp312IAPDUHandler14OnHeaderResultERKNS_12HeaderRecordERKNS_8IINFieldE, @function
_ZN8opendnp312IAPDUHandler14OnHeaderResultERKNS_12HeaderRecordERKNS_8IINFieldE:
.LFB2296:
	.cfi_startproc
	rep ret
	.cfi_endproc
.LFE2296:
	.size	_ZN8opendnp312IAPDUHandler14OnHeaderResultERKNS_12HeaderRecordERKNS_8IINFieldE, .-_ZN8opendnp312IAPDUHandler14OnHeaderResultERKNS_12HeaderRecordERKNS_8IINFieldE
	.section	.text._ZN8opendnp318MeasurementHandler9IsAllowedEjNS_14GroupVariationENS_13QualifierCodeE,"axG",@progbits,_ZN8opendnp318MeasurementHandler9IsAllowedEjNS_14GroupVariationENS_13QualifierCodeE,comdat
	.align 2
	.p2align 4,,15
	.weak	_ZN8opendnp318MeasurementHandler9IsAllowedEjNS_14GroupVariationENS_13QualifierCodeE
	.type	_ZN8opendnp318MeasurementHandler9IsAllowedEjNS_14GroupVariationENS_13QualifierCodeE, @function
_ZN8opendnp318MeasurementHandler9IsAllowedEjNS_14GroupVariationENS_13QualifierCodeE:
.LFB2307:
	.cfi_startproc
	movl	$1, %eax
	ret
	.cfi_endproc
.LFE2307:
	.size	_ZN8opendnp318MeasurementHandler9IsAllowedEjNS_14GroupVariationENS_13QualifierCodeE, .-_ZN8opendnp318MeasurementHandler9IsAllowedEjNS_14GroupVariationENS_13QualifierCodeE
	.section	.text._ZN8opendnp314FunctorVisitorINS_11Group51Var2EZNKS_11ICollectionIS1_E13ReadOnlyValueERS1_EUlRKS1_E_E7OnValueES6_,"axG",@progbits,_ZN8opendnp314FunctorVisitorINS_11Group51Var2EZNKS_11ICollectionIS1_E13ReadOnlyValueERS1_EUlRKS1_E_E7OnValueES6_,comdat
	.align 2
	.p2align 4,,15
	.weak	_ZN8opendnp314FunctorVisitorINS_11Group51Var2EZNKS_11ICollectionIS1_E13ReadOnlyValueERS1_EUlRKS1_E_E7OnValueES6_
	.type	_ZN8opendnp314FunctorVisitorINS_11Group51Var2EZNKS_11ICollectionIS1_E13ReadOnlyValueERS1_EUlRKS1_E_E7OnValueES6_, @function
_ZN8opendnp314FunctorVisitorINS_11Group51Var2EZNKS_11ICollectionIS1_E13ReadOnlyValueERS1_EUlRKS1_E_E7OnValueES6_:
.LFB3157:
	.cfi_startproc
	movq	8(%rdi), %rax
	movq	(%rsi), %rdx
	movq	%rdx, (%rax)
	ret
	.cfi_endproc
.LFE3157:
	.size	_ZN8opendnp314FunctorVisitorINS_11Group51Var2EZNKS_11ICollectionIS1_E13ReadOnlyValueERS1_EUlRKS1_E_E7OnValueES6_, .-_ZN8opendnp314FunctorVisitorINS_11Group51Var2EZNKS_11ICollectionIS1_E13ReadOnlyValueERS1_EUlRKS1_E_E7OnValueES6_
	.section	.text._ZN8opendnp314FunctorVisitorINS_11Group51Var1EZNKS_11ICollectionIS1_E13ReadOnlyValueERS1_EUlRKS1_E_E7OnValueES6_,"axG",@progbits,_ZN8opendnp314FunctorVisitorINS_11Group51Var1EZNKS_11ICollectionIS1_E13ReadOnlyValueERS1_EUlRKS1_E_E7OnValueES6_,comdat
	.align 2
	.p2align 4,,15
	.weak	_ZN8opendnp314FunctorVisitorINS_11Group51Var1EZNKS_11ICollectionIS1_E13ReadOnlyValueERS1_EUlRKS1_E_E7OnValueES6_
	.type	_ZN8opendnp314FunctorVisitorINS_11Group51Var1EZNKS_11ICollectionIS1_E13ReadOnlyValueERS1_EUlRKS1_E_E7OnValueES6_, @function
_ZN8opendnp314FunctorVisitorINS_11Group51Var1EZNKS_11ICollectionIS1_E13ReadOnlyValueERS1_EUlRKS1_E_E7OnValueES6_:
.LFB3158:
	.cfi_startproc
	movq	8(%rdi), %rax
	movq	(%rsi), %rdx
	movq	%rdx, (%rax)
	ret
	.cfi_endproc
.LFE3158:
	.size	_ZN8opendnp314FunctorVisitorINS_11Group51Var1EZNKS_11ICollectionIS1_E13ReadOnlyValueERS1_EUlRKS1_E_E7OnValueES6_, .-_ZN8opendnp314FunctorVisitorINS_11Group51Var1EZNKS_11ICollectionIS1_E13ReadOnlyValueERS1_EUlRKS1_E_E7OnValueES6_
	.section	.text._ZNK8opendnp321TransformedCollectionINS_7IndexedINS_12Group122Var2EEENS1_INS_12SecurityStatEEEZNS_18MeasurementHandler25LoadValuesWithTransformToIS4_S2_EENS_8IINFieldERKNS_12HeaderRecordERKNS_11ICollectionINS1_IT0_EEEEEUlRKS3_E_E5CountEv,"axG",@progbits,_ZNK8opendnp321TransformedCollectionINS_7IndexedINS_12Group122Var2EEENS1_INS_12SecurityStatEEEZNS_18MeasurementHandler25LoadValuesWithTransformToIS4_S2_EENS_8IINFieldERKNS_12HeaderRecordERKNS_11ICollectionINS1_IT0_EEEEEUlRKS3_E_E5CountEv,comdat
	.align 2
	.p2align 4,,15
	.weak	_ZNK8opendnp321TransformedCollectionINS_7IndexedINS_12Group122Var2EEENS1_INS_12SecurityStatEEEZNS_18MeasurementHandler25LoadValuesWithTransformToIS4_S2_EENS_8IINFieldERKNS_12HeaderRecordERKNS_11ICollectionINS1_IT0_EEEEEUlRKS3_E_E5CountEv
	.type	_ZNK8opendnp321TransformedCollectionINS_7IndexedINS_12Group122Var2EEENS1_INS_12SecurityStatEEEZNS_18MeasurementHandler25LoadValuesWithTransformToIS4_S2_EENS_8IINFieldERKNS_12HeaderRecordERKNS_11ICollectionINS1_IT0_EEEEEUlRKS3_E_E5CountEv, @function
_ZNK8opendnp321TransformedCollectionINS_7IndexedINS_12Group122Var2EEENS1_INS_12SecurityStatEEEZNS_18MeasurementHandler25LoadValuesWithTransformToIS4_S2_EENS_8IINFieldERKNS_12HeaderRecordERKNS_11ICollectionINS1_IT0_EEEEEUlRKS3_E_E5CountEv:
.LFB3159:
	.cfi_startproc
	movq	8(%rdi), %rdi
	movq	(%rdi), %rax
	jmp	*(%rax)
	.cfi_endproc
.LFE3159:
	.size	_ZNK8opendnp321TransformedCollectionINS_7IndexedINS_12Group122Var2EEENS1_INS_12SecurityStatEEEZNS_18MeasurementHandler25LoadValuesWithTransformToIS4_S2_EENS_8IINFieldERKNS_12HeaderRecordERKNS_11ICollectionINS1_IT0_EEEEEUlRKS3_E_E5CountEv, .-_ZNK8opendnp321TransformedCollectionINS_7IndexedINS_12Group122Var2EEENS1_INS_12SecurityStatEEEZNS_18MeasurementHandler25LoadValuesWithTransformToIS4_S2_EENS_8IINFieldERKNS_12HeaderRecordERKNS_11ICollectionINS1_IT0_EEEEEUlRKS3_E_E5CountEv
	.section	.text._ZNK8opendnp321TransformedCollectionINS_7IndexedINS_12Group122Var2EEENS1_INS_12SecurityStatEEEZNS_18MeasurementHandler25LoadValuesWithTransformToIS4_S2_EENS_8IINFieldERKNS_12HeaderRecordERKNS_11ICollectionINS1_IT0_EEEEEUlRKS3_E_E7ForeachERNS_8IVisitorIS5_EE,"axG",@progbits,_ZNK8opendnp321TransformedCollectionINS_7IndexedINS_12Group122Var2EEENS1_INS_12SecurityStatEEEZNS_18MeasurementHandler25LoadValuesWithTransformToIS4_S2_EENS_8IINFieldERKNS_12HeaderRecordERKNS_11ICollectionINS1_IT0_EEEEEUlRKS3_E_E7ForeachERNS_8IVisitorIS5_EE,comdat
	.align 2
	.p2align 4,,15
	.weak	_ZNK8opendnp321TransformedCollectionINS_7IndexedINS_12Group122Var2EEENS1_INS_12SecurityStatEEEZNS_18MeasurementHandler25LoadValuesWithTransformToIS4_S2_EENS_8IINFieldERKNS_12HeaderRecordERKNS_11ICollectionINS1_IT0_EEEEEUlRKS3_E_E7ForeachERNS_8IVisitorIS5_EE
	.type	_ZNK8opendnp321TransformedCollectionINS_7IndexedINS_12Group122Var2EEENS1_INS_12SecurityStatEEEZNS_18MeasurementHandler25LoadValuesWithTransformToIS4_S2_EENS_8IINFieldERKNS_12HeaderRecordERKNS_11ICollectionINS1_IT0_EEEEEUlRKS3_E_E7ForeachERNS_8IVisitorIS5_EE, @function
_ZNK8opendnp321TransformedCollectionINS_7IndexedINS_12Group122Var2EEENS1_INS_12SecurityStatEEEZNS_18MeasurementHandler25LoadValuesWithTransformToIS4_S2_EENS_8IINFieldERKNS_12HeaderRecordERKNS_11ICollectionINS1_IT0_EEEEEUlRKS3_E_E7ForeachERNS_8IVisitorIS5_EE:
.LFB3160:
	.cfi_startproc
	subq	$40, %rsp
	.cfi_def_cfa_offset 48
	movq	_ZTVN8opendnp314FunctorVisitorINS_7IndexedINS_12Group122Var2EEEZNKS_21TransformedCollectionIS3_NS1_INS_12SecurityStatEEEZNS_18MeasurementHandler25LoadValuesWithTransformToIS5_S2_EENS_8IINFieldERKNS_12HeaderRecordERKNS_11ICollectionINS1_IT0_EEEEEUlRKS3_E_E7ForeachERNS_8IVisitorIS6_EEEUlSK_E_EE@GOTPCREL(%rip), %rdx
	movq	%fs:40, %rax
	movq	%rax, 24(%rsp)
	xorl	%eax, %eax
	movq	8(%rdi), %rax
	movq	%rdi, 8(%rsp)
	addq	$16, %rdx
	movq	%rsi, 16(%rsp)
	movq	%rsp, %rsi
	movq	%rdx, (%rsp)
	movq	(%rax), %rdx
	movq	%rax, %rdi
	call	*8(%rdx)
	movq	24(%rsp), %rax
	xorq	%fs:40, %rax
	jne	.L10
	addq	$40, %rsp
	.cfi_remember_state
	.cfi_def_cfa_offset 8
	ret
.L10:
	.cfi_restore_state
	call	__stack_chk_fail@PLT
	.cfi_endproc
.LFE3160:
	.size	_ZNK8opendnp321TransformedCollectionINS_7IndexedINS_12Group122Var2EEENS1_INS_12SecurityStatEEEZNS_18MeasurementHandler25LoadValuesWithTransformToIS4_S2_EENS_8IINFieldERKNS_12HeaderRecordERKNS_11ICollectionINS1_IT0_EEEEEUlRKS3_E_E7ForeachERNS_8IVisitorIS5_EE, .-_ZNK8opendnp321TransformedCollectionINS_7IndexedINS_12Group122Var2EEENS1_INS_12SecurityStatEEEZNS_18MeasurementHandler25LoadValuesWithTransformToIS4_S2_EENS_8IINFieldERKNS_12HeaderRecordERKNS_11ICollectionINS1_IT0_EEEEEUlRKS3_E_E7ForeachERNS_8IVisitorIS5_EE
	.section	.text._ZNK8opendnp321TransformedCollectionINS_7IndexedINS_12Group122Var1EEENS1_INS_12SecurityStatEEEZNS_18MeasurementHandler25LoadValuesWithTransformToIS4_S2_EENS_8IINFieldERKNS_12HeaderRecordERKNS_11ICollectionINS1_IT0_EEEEEUlRKS3_E_E5CountEv,"axG",@progbits,_ZNK8opendnp321TransformedCollectionINS_7IndexedINS_12Group122Var1EEENS1_INS_12SecurityStatEEEZNS_18MeasurementHandler25LoadValuesWithTransformToIS4_S2_EENS_8IINFieldERKNS_12HeaderRecordERKNS_11ICollectionINS1_IT0_EEEEEUlRKS3_E_E5CountEv,comdat
	.align 2
	.p2align 4,,15
	.weak	_ZNK8opendnp321TransformedCollectionINS_7IndexedINS_12Group122Var1EEENS1_INS_12SecurityStatEEEZNS_18MeasurementHandler25LoadValuesWithTransformToIS4_S2_EENS_8IINFieldERKNS_12HeaderRecordERKNS_11ICollectionINS1_IT0_EEEEEUlRKS3_E_E5CountEv
	.type	_ZNK8opendnp321TransformedCollectionINS_7IndexedINS_12Group122Var1EEENS1_INS_12SecurityStatEEEZNS_18MeasurementHandler25LoadValuesWithTransformToIS4_S2_EENS_8IINFieldERKNS_12HeaderRecordERKNS_11ICollectionINS1_IT0_EEEEEUlRKS3_E_E5CountEv, @function
_ZNK8opendnp321TransformedCollectionINS_7IndexedINS_12Group122Var1EEENS1_INS_12SecurityStatEEEZNS_18MeasurementHandler25LoadValuesWithTransformToIS4_S2_EENS_8IINFieldERKNS_12HeaderRecordERKNS_11ICollectionINS1_IT0_EEEEEUlRKS3_E_E5CountEv:
.LFB3162:
	.cfi_startproc
	movq	8(%rdi), %rdi
	movq	(%rdi), %rax
	jmp	*(%rax)
	.cfi_endproc
.LFE3162:
	.size	_ZNK8opendnp321TransformedCollectionINS_7IndexedINS_12Group122Var1EEENS1_INS_12SecurityStatEEEZNS_18MeasurementHandler25LoadValuesWithTransformToIS4_S2_EENS_8IINFieldERKNS_12HeaderRecordERKNS_11ICollectionINS1_IT0_EEEEEUlRKS3_E_E5CountEv, .-_ZNK8opendnp321TransformedCollectionINS_7IndexedINS_12Group122Var1EEENS1_INS_12SecurityStatEEEZNS_18MeasurementHandler25LoadValuesWithTransformToIS4_S2_EENS_8IINFieldERKNS_12HeaderRecordERKNS_11ICollectionINS1_IT0_EEEEEUlRKS3_E_E5CountEv
	.section	.text._ZNK8opendnp321TransformedCollectionINS_7IndexedINS_12Group122Var1EEENS1_INS_12SecurityStatEEEZNS_18MeasurementHandler25LoadValuesWithTransformToIS4_S2_EENS_8IINFieldERKNS_12HeaderRecordERKNS_11ICollectionINS1_IT0_EEEEEUlRKS3_E_E7ForeachERNS_8IVisitorIS5_EE,"axG",@progbits,_ZNK8opendnp321TransformedCollectionINS_7IndexedINS_12Group122Var1EEENS1_INS_12SecurityStatEEEZNS_18MeasurementHandler25LoadValuesWithTransformToIS4_S2_EENS_8IINFieldERKNS_12HeaderRecordERKNS_11ICollectionINS1_IT0_EEEEEUlRKS3_E_E7ForeachERNS_8IVisitorIS5_EE,comdat
	.align 2
	.p2align 4,,15
	.weak	_ZNK8opendnp321TransformedCollectionINS_7IndexedINS_12Group122Var1EEENS1_INS_12SecurityStatEEEZNS_18MeasurementHandler25LoadValuesWithTransformToIS4_S2_EENS_8IINFieldERKNS_12HeaderRecordERKNS_11ICollectionINS1_IT0_EEEEEUlRKS3_E_E7ForeachERNS_8IVisitorIS5_EE
	.type	_ZNK8opendnp321TransformedCollectionINS_7IndexedINS_12Group122Var1EEENS1_INS_12SecurityStatEEEZNS_18MeasurementHandler25LoadValuesWithTransformToIS4_S2_EENS_8IINFieldERKNS_12HeaderRecordERKNS_11ICollectionINS1_IT0_EEEEEUlRKS3_E_E7ForeachERNS_8IVisitorIS5_EE, @function
_ZNK8opendnp321TransformedCollectionINS_7IndexedINS_12Group122Var1EEENS1_INS_12SecurityStatEEEZNS_18MeasurementHandler25LoadValuesWithTransformToIS4_S2_EENS_8IINFieldERKNS_12HeaderRecordERKNS_11ICollectionINS1_IT0_EEEEEUlRKS3_E_E7ForeachERNS_8IVisitorIS5_EE:
.LFB3163:
	.cfi_startproc
	subq	$40, %rsp
	.cfi_def_cfa_offset 48
	movq	_ZTVN8opendnp314FunctorVisitorINS_7IndexedINS_12Group122Var1EEEZNKS_21TransformedCollectionIS3_NS1_INS_12SecurityStatEEEZNS_18MeasurementHandler25LoadValuesWithTransformToIS5_S2_EENS_8IINFieldERKNS_12HeaderRecordERKNS_11ICollectionINS1_IT0_EEEEEUlRKS3_E_E7ForeachERNS_8IVisitorIS6_EEEUlSK_E_EE@GOTPCREL(%rip), %rdx
	movq	%fs:40, %rax
	movq	%rax, 24(%rsp)
	xorl	%eax, %eax
	movq	8(%rdi), %rax
	movq	%rdi, 8(%rsp)
	addq	$16, %rdx
	movq	%rsi, 16(%rsp)
	movq	%rsp, %rsi
	movq	%rdx, (%rsp)
	movq	(%rax), %rdx
	movq	%rax, %rdi
	call	*8(%rdx)
	movq	24(%rsp), %rax
	xorq	%fs:40, %rax
	jne	.L15
	addq	$40, %rsp
	.cfi_remember_state
	.cfi_def_cfa_offset 8
	ret
.L15:
	.cfi_restore_state
	call	__stack_chk_fail@PLT
	.cfi_endproc
.LFE3163:
	.size	_ZNK8opendnp321TransformedCollectionINS_7IndexedINS_12Group122Var1EEENS1_INS_12SecurityStatEEEZNS_18MeasurementHandler25LoadValuesWithTransformToIS4_S2_EENS_8IINFieldERKNS_12HeaderRecordERKNS_11ICollectionINS1_IT0_EEEEEUlRKS3_E_E7ForeachERNS_8IVisitorIS5_EE, .-_ZNK8opendnp321TransformedCollectionINS_7IndexedINS_12Group122Var1EEENS1_INS_12SecurityStatEEEZNS_18MeasurementHandler25LoadValuesWithTransformToIS4_S2_EENS_8IINFieldERKNS_12HeaderRecordERKNS_11ICollectionINS1_IT0_EEEEEUlRKS3_E_E7ForeachERNS_8IVisitorIS5_EE
	.section	.text._ZNK8opendnp321TransformedCollectionINS_7IndexedINS_12Group121Var1EEENS1_INS_12SecurityStatEEEZNS_18MeasurementHandler25LoadValuesWithTransformToIS4_S2_EENS_8IINFieldERKNS_12HeaderRecordERKNS_11ICollectionINS1_IT0_EEEEEUlRKS3_E_E5CountEv,"axG",@progbits,_ZNK8opendnp321TransformedCollectionINS_7IndexedINS_12Group121Var1EEENS1_INS_12SecurityStatEEEZNS_18MeasurementHandler25LoadValuesWithTransformToIS4_S2_EENS_8IINFieldERKNS_12HeaderRecordERKNS_11ICollectionINS1_IT0_EEEEEUlRKS3_E_E5CountEv,comdat
	.align 2
	.p2align 4,,15
	.weak	_ZNK8opendnp321TransformedCollectionINS_7IndexedINS_12Group121Var1EEENS1_INS_12SecurityStatEEEZNS_18MeasurementHandler25LoadValuesWithTransformToIS4_S2_EENS_8IINFieldERKNS_12HeaderRecordERKNS_11ICollectionINS1_IT0_EEEEEUlRKS3_E_E5CountEv
	.type	_ZNK8opendnp321TransformedCollectionINS_7IndexedINS_12Group121Var1EEENS1_INS_12SecurityStatEEEZNS_18MeasurementHandler25LoadValuesWithTransformToIS4_S2_EENS_8IINFieldERKNS_12HeaderRecordERKNS_11ICollectionINS1_IT0_EEEEEUlRKS3_E_E5CountEv, @function
_ZNK8opendnp321TransformedCollectionINS_7IndexedINS_12Group121Var1EEENS1_INS_12SecurityStatEEEZNS_18MeasurementHandler25LoadValuesWithTransformToIS4_S2_EENS_8IINFieldERKNS_12HeaderRecordERKNS_11ICollectionINS1_IT0_EEEEEUlRKS3_E_E5CountEv:
.LFB3171:
	.cfi_startproc
	movq	8(%rdi), %rdi
	movq	(%rdi), %rax
	jmp	*(%rax)
	.cfi_endproc
.LFE3171:
	.size	_ZNK8opendnp321TransformedCollectionINS_7IndexedINS_12Group121Var1EEENS1_INS_12SecurityStatEEEZNS_18MeasurementHandler25LoadValuesWithTransformToIS4_S2_EENS_8IINFieldERKNS_12HeaderRecordERKNS_11ICollectionINS1_IT0_EEEEEUlRKS3_E_E5CountEv, .-_ZNK8opendnp321TransformedCollectionINS_7IndexedINS_12Group121Var1EEENS1_INS_12SecurityStatEEEZNS_18MeasurementHandler25LoadValuesWithTransformToIS4_S2_EENS_8IINFieldERKNS_12HeaderRecordERKNS_11ICollectionINS1_IT0_EEEEEUlRKS3_E_E5CountEv
	.section	.text._ZNK8opendnp321TransformedCollectionINS_7IndexedINS_12Group121Var1EEENS1_INS_12SecurityStatEEEZNS_18MeasurementHandler25LoadValuesWithTransformToIS4_S2_EENS_8IINFieldERKNS_12HeaderRecordERKNS_11ICollectionINS1_IT0_EEEEEUlRKS3_E_E7ForeachERNS_8IVisitorIS5_EE,"axG",@progbits,_ZNK8opendnp321TransformedCollectionINS_7IndexedINS_12Group121Var1EEENS1_INS_12SecurityStatEEEZNS_18MeasurementHandler25LoadValuesWithTransformToIS4_S2_EENS_8IINFieldERKNS_12HeaderRecordERKNS_11ICollectionINS1_IT0_EEEEEUlRKS3_E_E7ForeachERNS_8IVisitorIS5_EE,comdat
	.align 2
	.p2align 4,,15
	.weak	_ZNK8opendnp321TransformedCollectionINS_7IndexedINS_12Group121Var1EEENS1_INS_12SecurityStatEEEZNS_18MeasurementHandler25LoadValuesWithTransformToIS4_S2_EENS_8IINFieldERKNS_12HeaderRecordERKNS_11ICollectionINS1_IT0_EEEEEUlRKS3_E_E7ForeachERNS_8IVisitorIS5_EE
	.type	_ZNK8opendnp321TransformedCollectionINS_7IndexedINS_12Group121Var1EEENS1_INS_12SecurityStatEEEZNS_18MeasurementHandler25LoadValuesWithTransformToIS4_S2_EENS_8IINFieldERKNS_12HeaderRecordERKNS_11ICollectionINS1_IT0_EEEEEUlRKS3_E_E7ForeachERNS_8IVisitorIS5_EE, @function
_ZNK8opendnp321TransformedCollectionINS_7IndexedINS_12Group121Var1EEENS1_INS_12SecurityStatEEEZNS_18MeasurementHandler25LoadValuesWithTransformToIS4_S2_EENS_8IINFieldERKNS_12HeaderRecordERKNS_11ICollectionINS1_IT0_EEEEEUlRKS3_E_E7ForeachERNS_8IVisitorIS5_EE:
.LFB3172:
	.cfi_startproc
	subq	$40, %rsp
	.cfi_def_cfa_offset 48
	movq	_ZTVN8opendnp314FunctorVisitorINS_7IndexedINS_12Group121Var1EEEZNKS_21TransformedCollectionIS3_NS1_INS_12SecurityStatEEEZNS_18MeasurementHandler25LoadValuesWithTransformToIS5_S2_EENS_8IINFieldERKNS_12HeaderRecordERKNS_11ICollectionINS1_IT0_EEEEEUlRKS3_E_E7ForeachERNS_8IVisitorIS6_EEEUlSK_E_EE@GOTPCREL(%rip), %rdx
	movq	%fs:40, %rax
	movq	%rax, 24(%rsp)
	xorl	%eax, %eax
	movq	8(%rdi), %rax
	movq	%rdi, 8(%rsp)
	addq	$16, %rdx
	movq	%rsi, 16(%rsp)
	movq	%rsp, %rsi
	movq	%rdx, (%rsp)
	movq	(%rax), %rdx
	movq	%rax, %rdi
	call	*8(%rdx)
	movq	24(%rsp), %rax
	xorq	%fs:40, %rax
	jne	.L20
	addq	$40, %rsp
	.cfi_remember_state
	.cfi_def_cfa_offset 8
	ret
.L20:
	.cfi_restore_state
	call	__stack_chk_fail@PLT
	.cfi_endproc
.LFE3172:
	.size	_ZNK8opendnp321TransformedCollectionINS_7IndexedINS_12Group121Var1EEENS1_INS_12SecurityStatEEEZNS_18MeasurementHandler25LoadValuesWithTransformToIS4_S2_EENS_8IINFieldERKNS_12HeaderRecordERKNS_11ICollectionINS1_IT0_EEEEEUlRKS3_E_E7ForeachERNS_8IVisitorIS5_EE, .-_ZNK8opendnp321TransformedCollectionINS_7IndexedINS_12Group121Var1EEENS1_INS_12SecurityStatEEEZNS_18MeasurementHandler25LoadValuesWithTransformToIS4_S2_EENS_8IINFieldERKNS_12HeaderRecordERKNS_11ICollectionINS1_IT0_EEEEEUlRKS3_E_E7ForeachERNS_8IVisitorIS5_EE
	.text
	.align 2
	.p2align 4,,15
	.type	_ZNK8opendnp321TransformedCollectionINS_11Group50Var1EN7openpal10UInt48TypeEZNS_18MeasurementHandler13ProcessHeaderERKNS_11CountHeaderERKNS_11ICollectionIS1_EEEUlRKS1_E_E5CountEv, @function
_ZNK8opendnp321TransformedCollectionINS_11Group50Var1EN7openpal10UInt48TypeEZNS_18MeasurementHandler13ProcessHeaderERKNS_11CountHeaderERKNS_11ICollectionIS1_EEEUlRKS1_E_E5CountEv:
.LFB3174:
	.cfi_startproc
	movq	8(%rdi), %rdi
	movq	(%rdi), %rax
	jmp	*(%rax)
	.cfi_endproc
.LFE3174:
	.size	_ZNK8opendnp321TransformedCollectionINS_11Group50Var1EN7openpal10UInt48TypeEZNS_18MeasurementHandler13ProcessHeaderERKNS_11CountHeaderERKNS_11ICollectionIS1_EEEUlRKS1_E_E5CountEv, .-_ZNK8opendnp321TransformedCollectionINS_11Group50Var1EN7openpal10UInt48TypeEZNS_18MeasurementHandler13ProcessHeaderERKNS_11CountHeaderERKNS_11ICollectionIS1_EEEUlRKS1_E_E5CountEv
	.align 2
	.p2align 4,,15
	.type	_ZNK8opendnp321TransformedCollectionINS_11Group50Var1EN7openpal10UInt48TypeEZNS_18MeasurementHandler13ProcessHeaderERKNS_11CountHeaderERKNS_11ICollectionIS1_EEEUlRKS1_E_E7ForeachERNS_8IVisitorIS3_EE, @function
_ZNK8opendnp321TransformedCollectionINS_11Group50Var1EN7openpal10UInt48TypeEZNS_18MeasurementHandler13ProcessHeaderERKNS_11CountHeaderERKNS_11ICollectionIS1_EEEUlRKS1_E_E7ForeachERNS_8IVisitorIS3_EE:
.LFB3175:
	.cfi_startproc
	subq	$40, %rsp
	.cfi_def_cfa_offset 48
	leaq	16+_ZTVN8opendnp314FunctorVisitorINS_11Group50Var1EZNKS_21TransformedCollectionIS1_N7openpal10UInt48TypeEZNS_18MeasurementHandler13ProcessHeaderERKNS_11CountHeaderERKNS_11ICollectionIS1_EEEUlRKS1_E_E7ForeachERNS_8IVisitorIS4_EEEUlSE_E_EE(%rip), %rcx
	movq	%fs:40, %rax
	movq	%rax, 24(%rsp)
	xorl	%eax, %eax
	movq	8(%rdi), %rax
	movq	%rdi, 8(%rsp)
	movq	%rsi, 16(%rsp)
	movq	%rcx, (%rsp)
	movq	%rsp, %rsi
	movq	(%rax), %rdx
	movq	%rax, %rdi
	call	*8(%rdx)
	movq	24(%rsp), %rax
	xorq	%fs:40, %rax
	jne	.L25
	addq	$40, %rsp
	.cfi_remember_state
	.cfi_def_cfa_offset 8
	ret
.L25:
	.cfi_restore_state
	call	__stack_chk_fail@PLT
	.cfi_endproc
.LFE3175:
	.size	_ZNK8opendnp321TransformedCollectionINS_11Group50Var1EN7openpal10UInt48TypeEZNS_18MeasurementHandler13ProcessHeaderERKNS_11CountHeaderERKNS_11ICollectionIS1_EEEUlRKS1_E_E7ForeachERNS_8IVisitorIS3_EE, .-_ZNK8opendnp321TransformedCollectionINS_11Group50Var1EN7openpal10UInt48TypeEZNS_18MeasurementHandler13ProcessHeaderERKNS_11CountHeaderERKNS_11ICollectionIS1_EEEUlRKS1_E_E7ForeachERNS_8IVisitorIS3_EE
	.align 2
	.p2align 4,,15
	.type	_ZN8opendnp314FunctorVisitorINS_11Group50Var1EZNKS_21TransformedCollectionIS1_N7openpal10UInt48TypeEZNS_18MeasurementHandler13ProcessHeaderERKNS_11CountHeaderERKNS_11ICollectionIS1_EEEUlRKS1_E_E7ForeachERNS_8IVisitorIS4_EEEUlSE_E_E7OnValueESE_, @function
_ZN8opendnp314FunctorVisitorINS_11Group50Var1EZNKS_21TransformedCollectionIS1_N7openpal10UInt48TypeEZNS_18MeasurementHandler13ProcessHeaderERKNS_11CountHeaderERKNS_11ICollectionIS1_EEEUlRKS1_E_E7ForeachERNS_8IVisitorIS4_EEEUlSE_E_E7OnValueESE_:
.LFB3226:
	.cfi_startproc
	subq	$24, %rsp
	.cfi_def_cfa_offset 32
	movq	16(%rdi), %rdi
	movq	(%rsi), %rdx
	movq	%fs:40, %rax
	movq	%rax, 8(%rsp)
	xorl	%eax, %eax
	movq	%rsp, %rsi
	movq	(%rdi), %rax
	movq	(%rax), %rax
	movq	%rdx, (%rsp)
	call	*%rax
	movq	8(%rsp), %rax
	xorq	%fs:40, %rax
	jne	.L29
	addq	$24, %rsp
	.cfi_remember_state
	.cfi_def_cfa_offset 8
	ret
.L29:
	.cfi_restore_state
	call	__stack_chk_fail@PLT
	.cfi_endproc
.LFE3226:
	.size	_ZN8opendnp314FunctorVisitorINS_11Group50Var1EZNKS_21TransformedCollectionIS1_N7openpal10UInt48TypeEZNS_18MeasurementHandler13ProcessHeaderERKNS_11CountHeaderERKNS_11ICollectionIS1_EEEUlRKS1_E_E7ForeachERNS_8IVisitorIS4_EEEUlSE_E_E7OnValueESE_, .-_ZN8opendnp314FunctorVisitorINS_11Group50Var1EZNKS_21TransformedCollectionIS1_N7openpal10UInt48TypeEZNS_18MeasurementHandler13ProcessHeaderERKNS_11CountHeaderERKNS_11ICollectionIS1_EEEUlRKS1_E_E7ForeachERNS_8IVisitorIS4_EEEUlSE_E_E7OnValueESE_
	.align 2
	.p2align 4,,15
	.globl	_ZN8opendnp318MeasurementHandler13ProcessHeaderERKNS_11CountHeaderERKNS_11ICollectionINS_11Group51Var1EEE
	.type	_ZN8opendnp318MeasurementHandler13ProcessHeaderERKNS_11CountHeaderERKNS_11ICollectionINS_11Group51Var1EEE, @function
_ZN8opendnp318MeasurementHandler13ProcessHeaderERKNS_11CountHeaderERKNS_11ICollectionINS_11Group51Var1EEE:
.LFB2342:
	.cfi_startproc
	pushq	%r12
	.cfi_def_cfa_offset 16
	.cfi_offset 12, -16
	pushq	%rbp
	.cfi_def_cfa_offset 24
	.cfi_offset 6, -24
	movq	%rdi, %r12
	pushq	%rbx
	.cfi_def_cfa_offset 32
	.cfi_offset 3, -32
	movq	%rdx, %rbx
	subq	$64, %rsp
	.cfi_def_cfa_offset 96
	leaq	24(%rsp), %rbp
	movq	%fs:40, %rax
	movq	%rax, 56(%rsp)
	xorl	%eax, %eax
	movq	%rbp, %rdi
	call	_ZN8opendnp311Group51Var1C1Ev@PLT
	movq	(%rbx), %rax
	movq	%rbx, %rdi
	call	*(%rax)
	cmpq	$1, %rax
	jne	.L31
	movq	_ZTVN8opendnp314FunctorVisitorINS_11Group51Var1EZNKS_11ICollectionIS1_E13ReadOnlyValueERS1_EUlRKS1_E_EE@GOTPCREL(%rip), %rax
	leaq	32(%rsp), %rsi
	movq	%rbx, %rdi
	addq	$16, %rax
	movq	%rax, 8(%rsp)
	movq	(%rbx), %rax
	movq	8(%rsp), %xmm0
	movq	%rbp, 8(%rsp)
	movhps	8(%rsp), %xmm0
	movaps	%xmm0, 32(%rsp)
	call	*8(%rax)
	movq	24(%rsp), %rax
	movb	$1, 72(%r12)
	movq	%rax, 80(%r12)
.L31:
	xorl	%eax, %eax
	movq	56(%rsp), %rcx
	xorq	%fs:40, %rcx
	jne	.L34
	addq	$64, %rsp
	.cfi_remember_state
	.cfi_def_cfa_offset 32
	popq	%rbx
	.cfi_def_cfa_offset 24
	popq	%rbp
	.cfi_def_cfa_offset 16
	popq	%r12
	.cfi_def_cfa_offset 8
	ret
.L34:
	.cfi_restore_state
	call	__stack_chk_fail@PLT
	.cfi_endproc
.LFE2342:
	.size	_ZN8opendnp318MeasurementHandler13ProcessHeaderERKNS_11CountHeaderERKNS_11ICollectionINS_11Group51Var1EEE, .-_ZN8opendnp318MeasurementHandler13ProcessHeaderERKNS_11CountHeaderERKNS_11ICollectionINS_11Group51Var1EEE
	.align 2
	.p2align 4,,15
	.globl	_ZN8opendnp318MeasurementHandler13ProcessHeaderERKNS_11CountHeaderERKNS_11ICollectionINS_11Group51Var2EEE
	.type	_ZN8opendnp318MeasurementHandler13ProcessHeaderERKNS_11CountHeaderERKNS_11ICollectionINS_11Group51Var2EEE, @function
_ZN8opendnp318MeasurementHandler13ProcessHeaderERKNS_11CountHeaderERKNS_11ICollectionINS_11Group51Var2EEE:
.LFB2343:
	.cfi_startproc
	pushq	%r12
	.cfi_def_cfa_offset 16
	.cfi_offset 12, -16
	pushq	%rbp
	.cfi_def_cfa_offset 24
	.cfi_offset 6, -24
	movq	%rdi, %r12
	pushq	%rbx
	.cfi_def_cfa_offset 32
	.cfi_offset 3, -32
	movq	%rdx, %rbx
	subq	$64, %rsp
	.cfi_def_cfa_offset 96
	leaq	24(%rsp), %rbp
	movq	%fs:40, %rax
	movq	%rax, 56(%rsp)
	xorl	%eax, %eax
	movq	%rbp, %rdi
	call	_ZN8opendnp311Group51Var2C1Ev@PLT
	movq	(%rbx), %rax
	movq	%rbx, %rdi
	call	*(%rax)
	cmpq	$1, %rax
	jne	.L36
	movq	_ZTVN8opendnp314FunctorVisitorINS_11Group51Var2EZNKS_11ICollectionIS1_E13ReadOnlyValueERS1_EUlRKS1_E_EE@GOTPCREL(%rip), %rax
	leaq	32(%rsp), %rsi
	movq	%rbx, %rdi
	addq	$16, %rax
	movq	%rax, 8(%rsp)
	movq	(%rbx), %rax
	movq	8(%rsp), %xmm0
	movq	%rbp, 8(%rsp)
	movhps	8(%rsp), %xmm0
	movaps	%xmm0, 32(%rsp)
	call	*8(%rax)
	movq	24(%rsp), %rax
	movb	$2, 72(%r12)
	movq	%rax, 80(%r12)
.L36:
	xorl	%eax, %eax
	movq	56(%rsp), %rcx
	xorq	%fs:40, %rcx
	jne	.L39
	addq	$64, %rsp
	.cfi_remember_state
	.cfi_def_cfa_offset 32
	popq	%rbx
	.cfi_def_cfa_offset 24
	popq	%rbp
	.cfi_def_cfa_offset 16
	popq	%r12
	.cfi_def_cfa_offset 8
	ret
.L39:
	.cfi_restore_state
	call	__stack_chk_fail@PLT
	.cfi_endproc
.LFE2343:
	.size	_ZN8opendnp318MeasurementHandler13ProcessHeaderERKNS_11CountHeaderERKNS_11ICollectionINS_11Group51Var2EEE, .-_ZN8opendnp318MeasurementHandler13ProcessHeaderERKNS_11CountHeaderERKNS_11ICollectionINS_11Group51Var2EEE
	.section	.text._ZNK8opendnp321TransformedCollectionINS_7IndexedINS_6BinaryEEES3_ZNS_18MeasurementHandler14ProcessWithCTOIS2_EENS_8IINFieldERKNS_12HeaderRecordERKNS_11ICollectionINS1_IT_EEEEEUlRKS3_E_E5CountEv,"axG",@progbits,_ZNK8opendnp321TransformedCollectionINS_7IndexedINS_6BinaryEEES3_ZNS_18MeasurementHandler14ProcessWithCTOIS2_EENS_8IINFieldERKNS_12HeaderRecordERKNS_11ICollectionINS1_IT_EEEEEUlRKS3_E_E5CountEv,comdat
	.align 2
	.p2align 4,,15
	.weak	_ZNK8opendnp321TransformedCollectionINS_7IndexedINS_6BinaryEEES3_ZNS_18MeasurementHandler14ProcessWithCTOIS2_EENS_8IINFieldERKNS_12HeaderRecordERKNS_11ICollectionINS1_IT_EEEEEUlRKS3_E_E5CountEv
	.type	_ZNK8opendnp321TransformedCollectionINS_7IndexedINS_6BinaryEEES3_ZNS_18MeasurementHandler14ProcessWithCTOIS2_EENS_8IINFieldERKNS_12HeaderRecordERKNS_11ICollectionINS1_IT_EEEEEUlRKS3_E_E5CountEv, @function
_ZNK8opendnp321TransformedCollectionINS_7IndexedINS_6BinaryEEES3_ZNS_18MeasurementHandler14ProcessWithCTOIS2_EENS_8IINFieldERKNS_12HeaderRecordERKNS_11ICollectionINS1_IT_EEEEEUlRKS3_E_E5CountEv:
.LFB3168:
	.cfi_startproc
	movq	8(%rdi), %rdi
	movq	(%rdi), %rax
	movq	(%rax), %rax
	cmpq	_ZNK8opendnp321TransformedCollectionINS_7IndexedINS_6BinaryEEES3_ZNS_18MeasurementHandler14ProcessWithCTOIS2_EENS_8IINFieldERKNS_12HeaderRecordERKNS_11ICollectionINS1_IT_EEEEEUlRKS3_E_E5CountEv@GOTPCREL(%rip), %rax
	jne	.L41
	movq	8(%rdi), %rdi
	movq	(%rdi), %rdx
	movq	(%rdx), %rdx
	cmpq	%rax, %rdx
	jne	.L42
	movq	8(%rdi), %rdi
	movq	(%rdi), %rax
	movq	(%rax), %rax
	cmpq	%rdx, %rax
	jne	.L41
	movq	8(%rdi), %rdi
	movq	(%rdi), %rdx
	movq	(%rdx), %rdx
	cmpq	%rax, %rdx
	jne	.L42
	movq	8(%rdi), %rdi
	movq	(%rdi), %rax
	movq	(%rax), %rax
	cmpq	%rdx, %rax
	jne	.L41
	movq	8(%rdi), %rdi
	movq	(%rdi), %rdx
	movq	(%rdx), %rdx
	cmpq	%rax, %rdx
	jne	.L42
	movq	8(%rdi), %rdi
	movq	(%rdi), %rax
	movq	(%rax), %rax
	cmpq	%rdx, %rax
	jne	.L41
	movq	8(%rdi), %rdi
	movq	(%rdi), %rdx
	movq	(%rdx), %rdx
	cmpq	%rax, %rdx
	jne	.L42
	movq	8(%rdi), %rdi
	movq	(%rdi), %rax
	jmp	*(%rax)
	.p2align 4,,10
	.p2align 3
.L42:
	jmp	*%rdx
	.p2align 4,,10
	.p2align 3
.L41:
	jmp	*%rax
	.cfi_endproc
.LFE3168:
	.size	_ZNK8opendnp321TransformedCollectionINS_7IndexedINS_6BinaryEEES3_ZNS_18MeasurementHandler14ProcessWithCTOIS2_EENS_8IINFieldERKNS_12HeaderRecordERKNS_11ICollectionINS1_IT_EEEEEUlRKS3_E_E5CountEv, .-_ZNK8opendnp321TransformedCollectionINS_7IndexedINS_6BinaryEEES3_ZNS_18MeasurementHandler14ProcessWithCTOIS2_EENS_8IINFieldERKNS_12HeaderRecordERKNS_11ICollectionINS1_IT_EEEEEUlRKS3_E_E5CountEv
	.section	.text._ZNK8opendnp321TransformedCollectionINS_7IndexedINS_15DoubleBitBinaryEEES3_ZNS_18MeasurementHandler14ProcessWithCTOIS2_EENS_8IINFieldERKNS_12HeaderRecordERKNS_11ICollectionINS1_IT_EEEEEUlRKS3_E_E5CountEv,"axG",@progbits,_ZNK8opendnp321TransformedCollectionINS_7IndexedINS_15DoubleBitBinaryEEES3_ZNS_18MeasurementHandler14ProcessWithCTOIS2_EENS_8IINFieldERKNS_12HeaderRecordERKNS_11ICollectionINS1_IT_EEEEEUlRKS3_E_E5CountEv,comdat
	.align 2
	.p2align 4,,15
	.weak	_ZNK8opendnp321TransformedCollectionINS_7IndexedINS_15DoubleBitBinaryEEES3_ZNS_18MeasurementHandler14ProcessWithCTOIS2_EENS_8IINFieldERKNS_12HeaderRecordERKNS_11ICollectionINS1_IT_EEEEEUlRKS3_E_E5CountEv
	.type	_ZNK8opendnp321TransformedCollectionINS_7IndexedINS_15DoubleBitBinaryEEES3_ZNS_18MeasurementHandler14ProcessWithCTOIS2_EENS_8IINFieldERKNS_12HeaderRecordERKNS_11ICollectionINS1_IT_EEEEEUlRKS3_E_E5CountEv, @function
_ZNK8opendnp321TransformedCollectionINS_7IndexedINS_15DoubleBitBinaryEEES3_ZNS_18MeasurementHandler14ProcessWithCTOIS2_EENS_8IINFieldERKNS_12HeaderRecordERKNS_11ICollectionINS1_IT_EEEEEUlRKS3_E_E5CountEv:
.LFB3165:
	.cfi_startproc
	movq	8(%rdi), %rdi
	movq	(%rdi), %rax
	movq	(%rax), %rax
	cmpq	_ZNK8opendnp321TransformedCollectionINS_7IndexedINS_15DoubleBitBinaryEEES3_ZNS_18MeasurementHandler14ProcessWithCTOIS2_EENS_8IINFieldERKNS_12HeaderRecordERKNS_11ICollectionINS1_IT_EEEEEUlRKS3_E_E5CountEv@GOTPCREL(%rip), %rax
	jne	.L50
	movq	8(%rdi), %rdi
	movq	(%rdi), %rdx
	movq	(%rdx), %rdx
	cmpq	%rax, %rdx
	jne	.L51
	movq	8(%rdi), %rdi
	movq	(%rdi), %rax
	movq	(%rax), %rax
	cmpq	%rdx, %rax
	jne	.L50
	movq	8(%rdi), %rdi
	movq	(%rdi), %rdx
	movq	(%rdx), %rdx
	cmpq	%rax, %rdx
	jne	.L51
	movq	8(%rdi), %rdi
	movq	(%rdi), %rax
	movq	(%rax), %rax
	cmpq	%rdx, %rax
	jne	.L50
	movq	8(%rdi), %rdi
	movq	(%rdi), %rdx
	movq	(%rdx), %rdx
	cmpq	%rax, %rdx
	jne	.L51
	movq	8(%rdi), %rdi
	movq	(%rdi), %rax
	movq	(%rax), %rax
	cmpq	%rdx, %rax
	jne	.L50
	movq	8(%rdi), %rdi
	movq	(%rdi), %rdx
	movq	(%rdx), %rdx
	cmpq	%rax, %rdx
	jne	.L51
	movq	8(%rdi), %rdi
	movq	(%rdi), %rax
	jmp	*(%rax)
	.p2align 4,,10
	.p2align 3
.L51:
	jmp	*%rdx
	.p2align 4,,10
	.p2align 3
.L50:
	jmp	*%rax
	.cfi_endproc
.LFE3165:
	.size	_ZNK8opendnp321TransformedCollectionINS_7IndexedINS_15DoubleBitBinaryEEES3_ZNS_18MeasurementHandler14ProcessWithCTOIS2_EENS_8IINFieldERKNS_12HeaderRecordERKNS_11ICollectionINS1_IT_EEEEEUlRKS3_E_E5CountEv, .-_ZNK8opendnp321TransformedCollectionINS_7IndexedINS_15DoubleBitBinaryEEES3_ZNS_18MeasurementHandler14ProcessWithCTOIS2_EENS_8IINFieldERKNS_12HeaderRecordERKNS_11ICollectionINS1_IT_EEEEEUlRKS3_E_E5CountEv
	.section	.text._ZNK8opendnp321TransformedCollectionINS_7IndexedINS_15DoubleBitBinaryEEES3_ZNS_18MeasurementHandler14ProcessWithCTOIS2_EENS_8IINFieldERKNS_12HeaderRecordERKNS_11ICollectionINS1_IT_EEEEEUlRKS3_E_E7ForeachERNS_8IVisitorIS3_EE,"axG",@progbits,_ZNK8opendnp321TransformedCollectionINS_7IndexedINS_15DoubleBitBinaryEEES3_ZNS_18MeasurementHandler14ProcessWithCTOIS2_EENS_8IINFieldERKNS_12HeaderRecordERKNS_11ICollectionINS1_IT_EEEEEUlRKS3_E_E7ForeachERNS_8IVisitorIS3_EE,comdat
	.align 2
	.p2align 4,,15
	.weak	_ZNK8opendnp321TransformedCollectionINS_7IndexedINS_15DoubleBitBinaryEEES3_ZNS_18MeasurementHandler14ProcessWithCTOIS2_EENS_8IINFieldERKNS_12HeaderRecordERKNS_11ICollectionINS1_IT_EEEEEUlRKS3_E_E7ForeachERNS_8IVisitorIS3_EE
	.type	_ZNK8opendnp321TransformedCollectionINS_7IndexedINS_15DoubleBitBinaryEEES3_ZNS_18MeasurementHandler14ProcessWithCTOIS2_EENS_8IINFieldERKNS_12HeaderRecordERKNS_11ICollectionINS1_IT_EEEEEUlRKS3_E_E7ForeachERNS_8IVisitorIS3_EE, @function
_ZNK8opendnp321TransformedCollectionINS_7IndexedINS_15DoubleBitBinaryEEES3_ZNS_18MeasurementHandler14ProcessWithCTOIS2_EENS_8IINFieldERKNS_12HeaderRecordERKNS_11ICollectionINS1_IT_EEEEEUlRKS3_E_E7ForeachERNS_8IVisitorIS3_EE:
.LFB3166:
	.cfi_startproc
	subq	$200, %rsp
	.cfi_def_cfa_offset 208
	movq	8(%rdi), %rdx
	movq	%fs:40, %rax
	movq	%rax, 184(%rsp)
	xorl	%eax, %eax
	movq	_ZTVN8opendnp314FunctorVisitorINS_7IndexedINS_15DoubleBitBinaryEEEZNKS_21TransformedCollectionIS3_S3_ZNS_18MeasurementHandler14ProcessWithCTOIS2_EENS_8IINFieldERKNS_12HeaderRecordERKNS_11ICollectionINS1_IT_EEEEEUlRKS3_E_E7ForeachERNS_8IVisitorIS3_EEEUlSI_E_EE@GOTPCREL(%rip), %rax
	movq	%rdi, 8(%rsp)
	movq	(%rdx), %rcx
	movq	%rsi, 16(%rsp)
	addq	$16, %rax
	movq	8(%rcx), %r8
	cmpq	_ZNK8opendnp321TransformedCollectionINS_7IndexedINS_15DoubleBitBinaryEEES3_ZNS_18MeasurementHandler14ProcessWithCTOIS2_EENS_8IINFieldERKNS_12HeaderRecordERKNS_11ICollectionINS1_IT_EEEEEUlRKS3_E_E7ForeachERNS_8IVisitorIS3_EE@GOTPCREL(%rip), %r8
	movq	%rax, (%rsp)
	jne	.L59
	movq	8(%rdx), %rdi
	movq	%rdx, 40(%rsp)
	movq	%rsp, %rdx
	movq	%rdx, 48(%rsp)
	movq	%rax, 32(%rsp)
	movq	(%rdi), %rdx
	movq	8(%rdx), %r9
	cmpq	%r8, %r9
	jne	.L60
	movq	8(%rdi), %rdx
	leaq	32(%rsp), %rcx
	movq	%rax, 64(%rsp)
	movq	%rdi, 72(%rsp)
	movq	%rcx, 80(%rsp)
	movq	(%rdx), %rcx
	movq	8(%rcx), %r8
	cmpq	%r9, %r8
	jne	.L61
	movq	8(%rdx), %rdi
	movq	%rdx, 104(%rsp)
	leaq	64(%rsp), %rdx
	movq	%rax, 96(%rsp)
	movq	%rdx, 112(%rsp)
	movq	(%rdi), %rdx
	movq	8(%rdx), %r9
	cmpq	%r8, %r9
	jne	.L62
	movq	8(%rdi), %rdx
	leaq	96(%rsp), %rcx
	movq	%rax, 128(%rsp)
	movq	%rdi, 136(%rsp)
	movq	%rcx, 144(%rsp)
	movq	(%rdx), %rcx
	movq	8(%rcx), %rcx
	cmpq	%r9, %rcx
	jne	.L63
	movq	8(%rdx), %rdi
	movq	%rax, 160(%rsp)
	leaq	128(%rsp), %rax
	movq	%rdx, 168(%rsp)
	leaq	160(%rsp), %rsi
	movq	%rax, 176(%rsp)
	movq	(%rdi), %rax
	call	*8(%rax)
.L58:
	movq	184(%rsp), %rax
	xorq	%fs:40, %rax
	jne	.L71
	addq	$200, %rsp
	.cfi_remember_state
	.cfi_def_cfa_offset 8
	ret
	.p2align 4,,10
	.p2align 3
.L59:
	.cfi_restore_state
	movq	%rsp, %rsi
	movq	%rdx, %rdi
	call	*%r8
	jmp	.L58
	.p2align 4,,10
	.p2align 3
.L62:
	leaq	96(%rsp), %rsi
	call	*%r9
	jmp	.L58
	.p2align 4,,10
	.p2align 3
.L60:
	leaq	32(%rsp), %rsi
	call	*%r9
	jmp	.L58
	.p2align 4,,10
	.p2align 3
.L61:
	leaq	64(%rsp), %rsi
	movq	%rdx, %rdi
	call	*%r8
	jmp	.L58
	.p2align 4,,10
	.p2align 3
.L63:
	leaq	128(%rsp), %rsi
	movq	%rdx, %rdi
	call	*%rcx
	jmp	.L58
.L71:
	call	__stack_chk_fail@PLT
	.cfi_endproc
.LFE3166:
	.size	_ZNK8opendnp321TransformedCollectionINS_7IndexedINS_15DoubleBitBinaryEEES3_ZNS_18MeasurementHandler14ProcessWithCTOIS2_EENS_8IINFieldERKNS_12HeaderRecordERKNS_11ICollectionINS1_IT_EEEEEUlRKS3_E_E7ForeachERNS_8IVisitorIS3_EE, .-_ZNK8opendnp321TransformedCollectionINS_7IndexedINS_15DoubleBitBinaryEEES3_ZNS_18MeasurementHandler14ProcessWithCTOIS2_EENS_8IINFieldERKNS_12HeaderRecordERKNS_11ICollectionINS1_IT_EEEEEUlRKS3_E_E7ForeachERNS_8IVisitorIS3_EE
	.section	.text._ZNK8opendnp321TransformedCollectionINS_7IndexedINS_6BinaryEEES3_ZNS_18MeasurementHandler14ProcessWithCTOIS2_EENS_8IINFieldERKNS_12HeaderRecordERKNS_11ICollectionINS1_IT_EEEEEUlRKS3_E_E7ForeachERNS_8IVisitorIS3_EE,"axG",@progbits,_ZNK8opendnp321TransformedCollectionINS_7IndexedINS_6BinaryEEES3_ZNS_18MeasurementHandler14ProcessWithCTOIS2_EENS_8IINFieldERKNS_12HeaderRecordERKNS_11ICollectionINS1_IT_EEEEEUlRKS3_E_E7ForeachERNS_8IVisitorIS3_EE,comdat
	.align 2
	.p2align 4,,15
	.weak	_ZNK8opendnp321TransformedCollectionINS_7IndexedINS_6BinaryEEES3_ZNS_18MeasurementHandler14ProcessWithCTOIS2_EENS_8IINFieldERKNS_12HeaderRecordERKNS_11ICollectionINS1_IT_EEEEEUlRKS3_E_E7ForeachERNS_8IVisitorIS3_EE
	.type	_ZNK8opendnp321TransformedCollectionINS_7IndexedINS_6BinaryEEES3_ZNS_18MeasurementHandler14ProcessWithCTOIS2_EENS_8IINFieldERKNS_12HeaderRecordERKNS_11ICollectionINS1_IT_EEEEEUlRKS3_E_E7ForeachERNS_8IVisitorIS3_EE, @function
_ZNK8opendnp321TransformedCollectionINS_7IndexedINS_6BinaryEEES3_ZNS_18MeasurementHandler14ProcessWithCTOIS2_EENS_8IINFieldERKNS_12HeaderRecordERKNS_11ICollectionINS1_IT_EEEEEUlRKS3_E_E7ForeachERNS_8IVisitorIS3_EE:
.LFB3169:
	.cfi_startproc
	subq	$200, %rsp
	.cfi_def_cfa_offset 208
	movq	8(%rdi), %rdx
	movq	%fs:40, %rax
	movq	%rax, 184(%rsp)
	xorl	%eax, %eax
	movq	_ZTVN8opendnp314FunctorVisitorINS_7IndexedINS_6BinaryEEEZNKS_21TransformedCollectionIS3_S3_ZNS_18MeasurementHandler14ProcessWithCTOIS2_EENS_8IINFieldERKNS_12HeaderRecordERKNS_11ICollectionINS1_IT_EEEEEUlRKS3_E_E7ForeachERNS_8IVisitorIS3_EEEUlSI_E_EE@GOTPCREL(%rip), %rax
	movq	%rdi, 8(%rsp)
	movq	(%rdx), %rcx
	movq	%rsi, 16(%rsp)
	addq	$16, %rax
	movq	8(%rcx), %r8
	cmpq	_ZNK8opendnp321TransformedCollectionINS_7IndexedINS_6BinaryEEES3_ZNS_18MeasurementHandler14ProcessWithCTOIS2_EENS_8IINFieldERKNS_12HeaderRecordERKNS_11ICollectionINS1_IT_EEEEEUlRKS3_E_E7ForeachERNS_8IVisitorIS3_EE@GOTPCREL(%rip), %r8
	movq	%rax, (%rsp)
	jne	.L73
	movq	8(%rdx), %rdi
	movq	%rdx, 40(%rsp)
	movq	%rsp, %rdx
	movq	%rdx, 48(%rsp)
	movq	%rax, 32(%rsp)
	movq	(%rdi), %rdx
	movq	8(%rdx), %r9
	cmpq	%r8, %r9
	jne	.L74
	movq	8(%rdi), %rdx
	leaq	32(%rsp), %rcx
	movq	%rax, 64(%rsp)
	movq	%rdi, 72(%rsp)
	movq	%rcx, 80(%rsp)
	movq	(%rdx), %rcx
	movq	8(%rcx), %r8
	cmpq	%r9, %r8
	jne	.L75
	movq	8(%rdx), %rdi
	movq	%rdx, 104(%rsp)
	leaq	64(%rsp), %rdx
	movq	%rax, 96(%rsp)
	movq	%rdx, 112(%rsp)
	movq	(%rdi), %rdx
	movq	8(%rdx), %r9
	cmpq	%r8, %r9
	jne	.L76
	movq	8(%rdi), %rdx
	leaq	96(%rsp), %rcx
	movq	%rax, 128(%rsp)
	movq	%rdi, 136(%rsp)
	movq	%rcx, 144(%rsp)
	movq	(%rdx), %rcx
	movq	8(%rcx), %rcx
	cmpq	%r9, %rcx
	jne	.L77
	movq	8(%rdx), %rdi
	movq	%rax, 160(%rsp)
	leaq	128(%rsp), %rax
	movq	%rdx, 168(%rsp)
	leaq	160(%rsp), %rsi
	movq	%rax, 176(%rsp)
	movq	(%rdi), %rax
	call	*8(%rax)
.L72:
	movq	184(%rsp), %rax
	xorq	%fs:40, %rax
	jne	.L85
	addq	$200, %rsp
	.cfi_remember_state
	.cfi_def_cfa_offset 8
	ret
	.p2align 4,,10
	.p2align 3
.L73:
	.cfi_restore_state
	movq	%rsp, %rsi
	movq	%rdx, %rdi
	call	*%r8
	jmp	.L72
	.p2align 4,,10
	.p2align 3
.L76:
	leaq	96(%rsp), %rsi
	call	*%r9
	jmp	.L72
	.p2align 4,,10
	.p2align 3
.L74:
	leaq	32(%rsp), %rsi
	call	*%r9
	jmp	.L72
	.p2align 4,,10
	.p2align 3
.L75:
	leaq	64(%rsp), %rsi
	movq	%rdx, %rdi
	call	*%r8
	jmp	.L72
	.p2align 4,,10
	.p2align 3
.L77:
	leaq	128(%rsp), %rsi
	movq	%rdx, %rdi
	call	*%rcx
	jmp	.L72
.L85:
	call	__stack_chk_fail@PLT
	.cfi_endproc
.LFE3169:
	.size	_ZNK8opendnp321TransformedCollectionINS_7IndexedINS_6BinaryEEES3_ZNS_18MeasurementHandler14ProcessWithCTOIS2_EENS_8IINFieldERKNS_12HeaderRecordERKNS_11ICollectionINS1_IT_EEEEEUlRKS3_E_E7ForeachERNS_8IVisitorIS3_EE, .-_ZNK8opendnp321TransformedCollectionINS_7IndexedINS_6BinaryEEES3_ZNS_18MeasurementHandler14ProcessWithCTOIS2_EENS_8IINFieldERKNS_12HeaderRecordERKNS_11ICollectionINS1_IT_EEEEEUlRKS3_E_E7ForeachERNS_8IVisitorIS3_EE
	.section	.text._ZN8opendnp314FunctorVisitorINS_7IndexedINS_6BinaryEEEZNKS_21TransformedCollectionIS3_S3_ZNS_18MeasurementHandler14ProcessWithCTOIS2_EENS_8IINFieldERKNS_12HeaderRecordERKNS_11ICollectionINS1_IT_EEEEEUlRKS3_E_E7ForeachERNS_8IVisitorIS3_EEEUlSI_E_E7OnValueESI_,"axG",@progbits,_ZN8opendnp314FunctorVisitorINS_7IndexedINS_6BinaryEEEZNKS_21TransformedCollectionIS3_S3_ZNS_18MeasurementHandler14ProcessWithCTOIS2_EENS_8IINFieldERKNS_12HeaderRecordERKNS_11ICollectionINS1_IT_EEEEEUlRKS3_E_E7ForeachERNS_8IVisitorIS3_EEEUlSI_E_E7OnValueESI_,comdat
	.align 2
	.p2align 4,,15
	.weak	_ZN8opendnp314FunctorVisitorINS_7IndexedINS_6BinaryEEEZNKS_21TransformedCollectionIS3_S3_ZNS_18MeasurementHandler14ProcessWithCTOIS2_EENS_8IINFieldERKNS_12HeaderRecordERKNS_11ICollectionINS1_IT_EEEEEUlRKS3_E_E7ForeachERNS_8IVisitorIS3_EEEUlSI_E_E7OnValueESI_
	.type	_ZN8opendnp314FunctorVisitorINS_7IndexedINS_6BinaryEEEZNKS_21TransformedCollectionIS3_S3_ZNS_18MeasurementHandler14ProcessWithCTOIS2_EENS_8IINFieldERKNS_12HeaderRecordERKNS_11ICollectionINS1_IT_EEEEEUlRKS3_E_E7ForeachERNS_8IVisitorIS3_EEEUlSI_E_E7OnValueESI_, @function
_ZN8opendnp314FunctorVisitorINS_7IndexedINS_6BinaryEEEZNKS_21TransformedCollectionIS3_S3_ZNS_18MeasurementHandler14ProcessWithCTOIS2_EENS_8IINFieldERKNS_12HeaderRecordERKNS_11ICollectionINS1_IT_EEEEEUlRKS3_E_E7ForeachERNS_8IVisitorIS3_EEEUlSI_E_E7OnValueESI_:
.LFB3228:
	.cfi_startproc
	subq	$216, %rsp
	.cfi_def_cfa_offset 224
	movq	16(%rdi), %rdx
	movq	%fs:40, %rax
	movq	%rax, 200(%rsp)
	xorl	%eax, %eax
	movdqu	(%rsi), %xmm0
	movq	(%rdx), %rax
	movq	(%rax), %r8
	movq	8(%rdi), %rax
	movaps	%xmm0, (%rsp)
	movdqu	16(%rsi), %xmm0
	movaps	%xmm0, 16(%rsp)
	movq	16(%rax), %rax
	addq	8(%rsi), %rax
	cmpq	_ZN8opendnp314FunctorVisitorINS_7IndexedINS_6BinaryEEEZNKS_21TransformedCollectionIS3_S3_ZNS_18MeasurementHandler14ProcessWithCTOIS2_EENS_8IINFieldERKNS_12HeaderRecordERKNS_11ICollectionINS1_IT_EEEEEUlRKS3_E_E7ForeachERNS_8IVisitorIS3_EEEUlSI_E_E7OnValueESI_@GOTPCREL(%rip), %r8
	movq	%rax, 8(%rsp)
	jne	.L87
	movq	16(%rdx), %rdi
	movq	8(%rdx), %rdx
	movdqa	(%rsp), %xmm1
	movq	(%rdi), %rsi
	movq	(%rsi), %r9
	movaps	%xmm1, 32(%rsp)
	movaps	%xmm0, 48(%rsp)
	addq	16(%rdx), %rax
	cmpq	%r8, %r9
	movq	%rax, 40(%rsp)
	jne	.L88
	movq	16(%rdi), %rdx
	movq	8(%rdi), %rcx
	movdqa	32(%rsp), %xmm1
	movq	(%rdx), %rsi
	movq	(%rsi), %r8
	movaps	%xmm1, 64(%rsp)
	movaps	%xmm0, 80(%rsp)
	addq	16(%rcx), %rax
	cmpq	%r9, %r8
	movq	%rax, 72(%rsp)
	jne	.L89
	movq	16(%rdx), %rdi
	movq	8(%rdx), %rdx
	movdqa	64(%rsp), %xmm1
	movq	(%rdi), %rsi
	movq	(%rsi), %r9
	movaps	%xmm1, 96(%rsp)
	movaps	%xmm0, 112(%rsp)
	addq	16(%rdx), %rax
	cmpq	%r8, %r9
	movq	%rax, 104(%rsp)
	jne	.L90
	movq	16(%rdi), %rdx
	movq	8(%rdi), %rcx
	movdqa	96(%rsp), %xmm1
	movq	(%rdx), %rsi
	movq	(%rsi), %r8
	movaps	%xmm1, 128(%rsp)
	movaps	%xmm0, 144(%rsp)
	addq	16(%rcx), %rax
	cmpq	%r9, %r8
	movq	%rax, 136(%rsp)
	jne	.L91
	movq	16(%rdx), %rdi
	movq	8(%rdx), %rdx
	leaq	160(%rsp), %rsi
	movdqa	128(%rsp), %xmm1
	movq	(%rdi), %rcx
	movq	(%rcx), %rcx
	movaps	%xmm1, 160(%rsp)
	movaps	%xmm0, 176(%rsp)
	addq	16(%rdx), %rax
	movq	%rax, 168(%rsp)
	call	*%rcx
.L86:
	movq	200(%rsp), %rax
	xorq	%fs:40, %rax
	jne	.L99
	addq	$216, %rsp
	.cfi_remember_state
	.cfi_def_cfa_offset 8
	ret
	.p2align 4,,10
	.p2align 3
.L87:
	.cfi_restore_state
	movq	%rsp, %rsi
	movq	%rdx, %rdi
	call	*%r8
	jmp	.L86
	.p2align 4,,10
	.p2align 3
.L90:
	leaq	96(%rsp), %rsi
	call	*%r9
	jmp	.L86
	.p2align 4,,10
	.p2align 3
.L88:
	leaq	32(%rsp), %rsi
	call	*%r9
	jmp	.L86
	.p2align 4,,10
	.p2align 3
.L89:
	leaq	64(%rsp), %rsi
	movq	%rdx, %rdi
	call	*%r8
	jmp	.L86
	.p2align 4,,10
	.p2align 3
.L91:
	leaq	128(%rsp), %rsi
	movq	%rdx, %rdi
	call	*%r8
	jmp	.L86
.L99:
	call	__stack_chk_fail@PLT
	.cfi_endproc
.LFE3228:
	.size	_ZN8opendnp314FunctorVisitorINS_7IndexedINS_6BinaryEEEZNKS_21TransformedCollectionIS3_S3_ZNS_18MeasurementHandler14ProcessWithCTOIS2_EENS_8IINFieldERKNS_12HeaderRecordERKNS_11ICollectionINS1_IT_EEEEEUlRKS3_E_E7ForeachERNS_8IVisitorIS3_EEEUlSI_E_E7OnValueESI_, .-_ZN8opendnp314FunctorVisitorINS_7IndexedINS_6BinaryEEEZNKS_21TransformedCollectionIS3_S3_ZNS_18MeasurementHandler14ProcessWithCTOIS2_EENS_8IINFieldERKNS_12HeaderRecordERKNS_11ICollectionINS1_IT_EEEEEUlRKS3_E_E7ForeachERNS_8IVisitorIS3_EEEUlSI_E_E7OnValueESI_
	.section	.text._ZN8opendnp314FunctorVisitorINS_7IndexedINS_15DoubleBitBinaryEEEZNKS_21TransformedCollectionIS3_S3_ZNS_18MeasurementHandler14ProcessWithCTOIS2_EENS_8IINFieldERKNS_12HeaderRecordERKNS_11ICollectionINS1_IT_EEEEEUlRKS3_E_E7ForeachERNS_8IVisitorIS3_EEEUlSI_E_E7OnValueESI_,"axG",@progbits,_ZN8opendnp314FunctorVisitorINS_7IndexedINS_15DoubleBitBinaryEEEZNKS_21TransformedCollectionIS3_S3_ZNS_18MeasurementHandler14ProcessWithCTOIS2_EENS_8IINFieldERKNS_12HeaderRecordERKNS_11ICollectionINS1_IT_EEEEEUlRKS3_E_E7ForeachERNS_8IVisitorIS3_EEEUlSI_E_E7OnValueESI_,comdat
	.align 2
	.p2align 4,,15
	.weak	_ZN8opendnp314FunctorVisitorINS_7IndexedINS_15DoubleBitBinaryEEEZNKS_21TransformedCollectionIS3_S3_ZNS_18MeasurementHandler14ProcessWithCTOIS2_EENS_8IINFieldERKNS_12HeaderRecordERKNS_11ICollectionINS1_IT_EEEEEUlRKS3_E_E7ForeachERNS_8IVisitorIS3_EEEUlSI_E_E7OnValueESI_
	.type	_ZN8opendnp314FunctorVisitorINS_7IndexedINS_15DoubleBitBinaryEEEZNKS_21TransformedCollectionIS3_S3_ZNS_18MeasurementHandler14ProcessWithCTOIS2_EENS_8IINFieldERKNS_12HeaderRecordERKNS_11ICollectionINS1_IT_EEEEEUlRKS3_E_E7ForeachERNS_8IVisitorIS3_EEEUlSI_E_E7OnValueESI_, @function
_ZN8opendnp314FunctorVisitorINS_7IndexedINS_15DoubleBitBinaryEEEZNKS_21TransformedCollectionIS3_S3_ZNS_18MeasurementHandler14ProcessWithCTOIS2_EENS_8IINFieldERKNS_12HeaderRecordERKNS_11ICollectionINS1_IT_EEEEEUlRKS3_E_E7ForeachERNS_8IVisitorIS3_EEEUlSI_E_E7OnValueESI_:
.LFB3229:
	.cfi_startproc
	subq	$216, %rsp
	.cfi_def_cfa_offset 224
	movq	16(%rdi), %rdx
	movq	%fs:40, %rax
	movq	%rax, 200(%rsp)
	xorl	%eax, %eax
	movdqu	(%rsi), %xmm0
	movq	(%rdx), %rax
	movq	(%rax), %r8
	movq	8(%rdi), %rax
	movaps	%xmm0, (%rsp)
	movdqu	16(%rsi), %xmm0
	movaps	%xmm0, 16(%rsp)
	movq	16(%rax), %rax
	addq	8(%rsi), %rax
	cmpq	_ZN8opendnp314FunctorVisitorINS_7IndexedINS_15DoubleBitBinaryEEEZNKS_21TransformedCollectionIS3_S3_ZNS_18MeasurementHandler14ProcessWithCTOIS2_EENS_8IINFieldERKNS_12HeaderRecordERKNS_11ICollectionINS1_IT_EEEEEUlRKS3_E_E7ForeachERNS_8IVisitorIS3_EEEUlSI_E_E7OnValueESI_@GOTPCREL(%rip), %r8
	movq	%rax, 8(%rsp)
	jne	.L101
	movq	16(%rdx), %rdi
	movq	8(%rdx), %rdx
	movdqa	(%rsp), %xmm1
	movq	(%rdi), %rsi
	movq	(%rsi), %r9
	movaps	%xmm1, 32(%rsp)
	movaps	%xmm0, 48(%rsp)
	addq	16(%rdx), %rax
	cmpq	%r8, %r9
	movq	%rax, 40(%rsp)
	jne	.L102
	movq	16(%rdi), %rdx
	movq	8(%rdi), %rcx
	movdqa	32(%rsp), %xmm1
	movq	(%rdx), %rsi
	movq	(%rsi), %r8
	movaps	%xmm1, 64(%rsp)
	movaps	%xmm0, 80(%rsp)
	addq	16(%rcx), %rax
	cmpq	%r9, %r8
	movq	%rax, 72(%rsp)
	jne	.L103
	movq	16(%rdx), %rdi
	movq	8(%rdx), %rdx
	movdqa	64(%rsp), %xmm1
	movq	(%rdi), %rsi
	movq	(%rsi), %r9
	movaps	%xmm1, 96(%rsp)
	movaps	%xmm0, 112(%rsp)
	addq	16(%rdx), %rax
	cmpq	%r8, %r9
	movq	%rax, 104(%rsp)
	jne	.L104
	movq	16(%rdi), %rdx
	movq	8(%rdi), %rcx
	movdqa	96(%rsp), %xmm1
	movq	(%rdx), %rsi
	movq	(%rsi), %r8
	movaps	%xmm1, 128(%rsp)
	movaps	%xmm0, 144(%rsp)
	addq	16(%rcx), %rax
	cmpq	%r9, %r8
	movq	%rax, 136(%rsp)
	jne	.L105
	movq	16(%rdx), %rdi
	movq	8(%rdx), %rdx
	leaq	160(%rsp), %rsi
	movdqa	128(%rsp), %xmm1
	movq	(%rdi), %rcx
	movq	(%rcx), %rcx
	movaps	%xmm1, 160(%rsp)
	movaps	%xmm0, 176(%rsp)
	addq	16(%rdx), %rax
	movq	%rax, 168(%rsp)
	call	*%rcx
.L100:
	movq	200(%rsp), %rax
	xorq	%fs:40, %rax
	jne	.L113
	addq	$216, %rsp
	.cfi_remember_state
	.cfi_def_cfa_offset 8
	ret
	.p2align 4,,10
	.p2align 3
.L101:
	.cfi_restore_state
	movq	%rsp, %rsi
	movq	%rdx, %rdi
	call	*%r8
	jmp	.L100
	.p2align 4,,10
	.p2align 3
.L104:
	leaq	96(%rsp), %rsi
	call	*%r9
	jmp	.L100
	.p2align 4,,10
	.p2align 3
.L102:
	leaq	32(%rsp), %rsi
	call	*%r9
	jmp	.L100
	.p2align 4,,10
	.p2align 3
.L103:
	leaq	64(%rsp), %rsi
	movq	%rdx, %rdi
	call	*%r8
	jmp	.L100
	.p2align 4,,10
	.p2align 3
.L105:
	leaq	128(%rsp), %rsi
	movq	%rdx, %rdi
	call	*%r8
	jmp	.L100
.L113:
	call	__stack_chk_fail@PLT
	.cfi_endproc
.LFE3229:
	.size	_ZN8opendnp314FunctorVisitorINS_7IndexedINS_15DoubleBitBinaryEEEZNKS_21TransformedCollectionIS3_S3_ZNS_18MeasurementHandler14ProcessWithCTOIS2_EENS_8IINFieldERKNS_12HeaderRecordERKNS_11ICollectionINS1_IT_EEEEEUlRKS3_E_E7ForeachERNS_8IVisitorIS3_EEEUlSI_E_E7OnValueESI_, .-_ZN8opendnp314FunctorVisitorINS_7IndexedINS_15DoubleBitBinaryEEEZNKS_21TransformedCollectionIS3_S3_ZNS_18MeasurementHandler14ProcessWithCTOIS2_EENS_8IINFieldERKNS_12HeaderRecordERKNS_11ICollectionINS1_IT_EEEEEUlRKS3_E_E7ForeachERNS_8IVisitorIS3_EEEUlSI_E_E7OnValueESI_
	.text
	.align 2
	.p2align 4,,15
	.globl	_ZN8opendnp318MeasurementHandlerC2ERKN7openpal6LoggerEPNS_11ISOEHandlerE
	.type	_ZN8opendnp318MeasurementHandlerC2ERKN7openpal6LoggerEPNS_11ISOEHandlerE, @function
_ZN8opendnp318MeasurementHandlerC2ERKN7openpal6LoggerEPNS_11ISOEHandlerE:
.LFB2325:
	.cfi_startproc
	pushq	%r12
	.cfi_def_cfa_offset 16
	.cfi_offset 12, -16
	pushq	%rbp
	.cfi_def_cfa_offset 24
	.cfi_offset 6, -24
	movq	%rdx, %r12
	pushq	%rbx
	.cfi_def_cfa_offset 32
	.cfi_offset 3, -32
	movq	%rsi, %rbp
	movq	%rdi, %rbx
	call	_ZN8opendnp312IAPDUHandlerC2Ev@PLT
	movq	_ZTVN8opendnp318MeasurementHandlerE@GOTPCREL(%rip), %rax
	addq	$16, %rax
	movq	%rax, (%rbx)
	movq	0(%rbp), %rax
	movq	%rax, 24(%rbx)
	movq	8(%rbp), %rax
	testq	%rax, %rax
	movq	%rax, 32(%rbx)
	je	.L115
	cmpq	$0, _ZL28__gthrw___pthread_key_createPjPFvPvE@GOTPCREL(%rip)
	jne	.L129
	addl	$1, 8(%rax)
	movq	16(%rbp), %rax
	movq	%rax, 40(%rbx)
	movq	24(%rbp), %rax
	testq	%rax, %rax
	movq	%rax, 48(%rbx)
	je	.L118
.L119:
	addl	$1, 8(%rax)
.L118:
	movq	%r12, 64(%rbx)
	movb	$0, 56(%rbx)
	movb	$0, 72(%rbx)
	movq	$0, 80(%rbx)
	popq	%rbx
	.cfi_remember_state
	.cfi_def_cfa_offset 24
	popq	%rbp
	.cfi_def_cfa_offset 16
	popq	%r12
	.cfi_def_cfa_offset 8
	ret
	.p2align 4,,10
	.p2align 3
.L129:
	.cfi_restore_state
	lock addl	$1, 8(%rax)
	movq	24(%rbp), %rdx
	movq	16(%rbp), %rax
	testq	%rdx, %rdx
	movq	%rax, 40(%rbx)
	movq	%rdx, 48(%rbx)
	leaq	8(%rdx), %rax
	je	.L118
.L121:
	lock addl	$1, (%rax)
	jmp	.L118
	.p2align 4,,10
	.p2align 3
.L115:
	movq	16(%rbp), %rax
	movq	%rax, 40(%rbx)
	movq	24(%rbp), %rax
	testq	%rax, %rax
	movq	%rax, 48(%rbx)
	je	.L118
	cmpq	$0, _ZL28__gthrw___pthread_key_createPjPFvPvE@GOTPCREL(%rip)
	je	.L119
	addq	$8, %rax
	jmp	.L121
	.cfi_endproc
.LFE2325:
	.size	_ZN8opendnp318MeasurementHandlerC2ERKN7openpal6LoggerEPNS_11ISOEHandlerE, .-_ZN8opendnp318MeasurementHandlerC2ERKN7openpal6LoggerEPNS_11ISOEHandlerE
	.globl	_ZN8opendnp318MeasurementHandlerC1ERKN7openpal6LoggerEPNS_11ISOEHandlerE
	.set	_ZN8opendnp318MeasurementHandlerC1ERKN7openpal6LoggerEPNS_11ISOEHandlerE,_ZN8opendnp318MeasurementHandlerC2ERKN7openpal6LoggerEPNS_11ISOEHandlerE
	.align 2
	.p2align 4,,15
	.globl	_ZN8opendnp318MeasurementHandlerD2Ev
	.type	_ZN8opendnp318MeasurementHandlerD2Ev, @function
_ZN8opendnp318MeasurementHandlerD2Ev:
.LFB2328:
	.cfi_startproc
	.cfi_personality 0x9b,DW.ref.__gxx_personality_v0
	.cfi_lsda 0x1b,.LLSDA2328
	pushq	%rbp
	.cfi_def_cfa_offset 16
	.cfi_offset 6, -16
	pushq	%rbx
	.cfi_def_cfa_offset 24
	.cfi_offset 3, -24
	movq	%rdi, %rbx
	subq	$8, %rsp
	.cfi_def_cfa_offset 32
	movq	_ZTVN8opendnp318MeasurementHandlerE@GOTPCREL(%rip), %rax
	addq	$16, %rax
	cmpb	$0, 56(%rdi)
	movq	%rax, (%rdi)
	je	.L131
	movq	64(%rdi), %rdi
	testq	%rdi, %rdi
	je	.L131
	movq	(%rdi), %rax
	call	*24(%rax)
.L131:
	movq	48(%rbx), %rbp
	testq	%rbp, %rbp
	je	.L133
	cmpq	$0, _ZL28__gthrw___pthread_key_createPjPFvPvE@GOTPCREL(%rip)
	je	.L134
	lock subl	$1, 8(%rbp)
	je	.L150
.L133:
	movq	32(%rbx), %rbx
	testq	%rbx, %rbx
	je	.L130
	cmpq	$0, _ZL28__gthrw___pthread_key_createPjPFvPvE@GOTPCREL(%rip)
	je	.L140
	lock subl	$1, 8(%rbx)
	je	.L151
.L130:
	addq	$8, %rsp
	.cfi_remember_state
	.cfi_def_cfa_offset 24
	popq	%rbx
	.cfi_def_cfa_offset 16
	popq	%rbp
	.cfi_def_cfa_offset 8
	ret
	.p2align 4,,10
	.p2align 3
.L140:
	.cfi_restore_state
	movl	8(%rbx), %eax
	leal	-1(%rax), %edx
	cmpl	$1, %eax
	movl	%edx, 8(%rbx)
	jne	.L130
	movq	(%rbx), %rax
	movq	%rbx, %rdi
	call	*16(%rax)
	movl	12(%rbx), %eax
	leal	-1(%rax), %edx
	movl	%edx, 12(%rbx)
	jmp	.L145
	.p2align 4,,10
	.p2align 3
.L134:
	movl	8(%rbp), %eax
	leal	-1(%rax), %edx
	cmpl	$1, %eax
	movl	%edx, 8(%rbp)
	jne	.L133
	movq	0(%rbp), %rax
	movq	%rbp, %rdi
	call	*16(%rax)
	movl	12(%rbp), %eax
	leal	-1(%rax), %edx
	movl	%edx, 12(%rbp)
	jmp	.L144
	.p2align 4,,10
	.p2align 3
.L151:
	movq	(%rbx), %rax
	movq	%rbx, %rdi
	call	*16(%rax)
	movl	$-1, %eax
	lock xaddl	%eax, 12(%rbx)
.L145:
	cmpl	$1, %eax
	jne	.L130
	movq	(%rbx), %rax
	movq	%rbx, %rdi
	movq	24(%rax), %rax
	addq	$8, %rsp
	.cfi_remember_state
	.cfi_def_cfa_offset 24
	popq	%rbx
	.cfi_def_cfa_offset 16
	popq	%rbp
	.cfi_def_cfa_offset 8
	jmp	*%rax
	.p2align 4,,10
	.p2align 3
.L150:
	.cfi_restore_state
	movq	0(%rbp), %rax
	movq	%rbp, %rdi
	call	*16(%rax)
	movl	$-1, %eax
	lock xaddl	%eax, 12(%rbp)
.L144:
	cmpl	$1, %eax
	jne	.L133
	movq	0(%rbp), %rax
	movq	%rbp, %rdi
	call	*24(%rax)
	jmp	.L133
	.cfi_endproc
.LFE2328:
	.globl	__gxx_personality_v0
	.section	.gcc_except_table,"a",@progbits
.LLSDA2328:
	.byte	0xff
	.byte	0xff
	.byte	0x1
	.uleb128 .LLSDACSE2328-.LLSDACSB2328
.LLSDACSB2328:
.LLSDACSE2328:
	.text
	.size	_ZN8opendnp318MeasurementHandlerD2Ev, .-_ZN8opendnp318MeasurementHandlerD2Ev
	.globl	_ZN8opendnp318MeasurementHandlerD1Ev
	.set	_ZN8opendnp318MeasurementHandlerD1Ev,_ZN8opendnp318MeasurementHandlerD2Ev
	.align 2
	.p2align 4,,15
	.globl	_ZN8opendnp318MeasurementHandler19ProcessMeasurementsERKN7openpal6RSliceERNS1_6LoggerEPNS_11ISOEHandlerE
	.type	_ZN8opendnp318MeasurementHandler19ProcessMeasurementsERKN7openpal6RSliceERNS1_6LoggerEPNS_11ISOEHandlerE, @function
_ZN8opendnp318MeasurementHandler19ProcessMeasurementsERKN7openpal6RSliceERNS1_6LoggerEPNS_11ISOEHandlerE:
.LFB2323:
	.cfi_startproc
	.cfi_personality 0x9b,DW.ref.__gxx_personality_v0
	.cfi_lsda 0x1b,.LLSDA2323
	pushq	%r12
	.cfi_def_cfa_offset 16
	.cfi_offset 12, -16
	pushq	%rbp
	.cfi_def_cfa_offset 24
	.cfi_offset 6, -24
	movq	%rdi, %r12
	pushq	%rbx
	.cfi_def_cfa_offset 32
	.cfi_offset 3, -32
	movq	%rsi, %rbp
	subq	$96, %rsp
	.cfi_def_cfa_offset 128
	movq	%rsp, %rbx
	movq	%rbx, %rdi
	movq	%fs:40, %rax
	movq	%rax, 88(%rsp)
	xorl	%eax, %eax
.LEHB0:
	call	_ZN8opendnp318MeasurementHandlerC1ERKN7openpal6LoggerEPNS_11ISOEHandlerE@PLT
.LEHE0:
	movabsq	$35184372088833, %rcx
	movq	%rbp, %rdx
	movq	%rbx, %rsi
	movq	%r12, %rdi
.LEHB1:
	call	_ZN8opendnp310APDUParser5ParseERKN7openpal6RSliceERNS_12IAPDUHandlerEPNS1_6LoggerENS_14ParserSettingsE@PLT
.LEHE1:
	movq	%rbx, %rdi
	movl	%eax, %ebp
	call	_ZN8opendnp318MeasurementHandlerD1Ev@PLT
	movq	88(%rsp), %rcx
	xorq	%fs:40, %rcx
	movl	%ebp, %eax
	jne	.L158
	addq	$96, %rsp
	.cfi_remember_state
	.cfi_def_cfa_offset 32
	popq	%rbx
	.cfi_def_cfa_offset 24
	popq	%rbp
	.cfi_def_cfa_offset 16
	popq	%r12
	.cfi_def_cfa_offset 8
	ret
.L158:
	.cfi_restore_state
	call	__stack_chk_fail@PLT
.L155:
	movq	%rax, %rbp
	movq	%rbx, %rdi
	call	_ZN8opendnp318MeasurementHandlerD1Ev@PLT
	movq	%rbp, %rdi
.LEHB2:
	call	_Unwind_Resume@PLT
.LEHE2:
	.cfi_endproc
.LFE2323:
	.section	.gcc_except_table
.LLSDA2323:
	.byte	0xff
	.byte	0xff
	.byte	0x1
	.uleb128 .LLSDACSE2323-.LLSDACSB2323
.LLSDACSB2323:
	.uleb128 .LEHB0-.LFB2323
	.uleb128 .LEHE0-.LEHB0
	.uleb128 0
	.uleb128 0
	.uleb128 .LEHB1-.LFB2323
	.uleb128 .LEHE1-.LEHB1
	.uleb128 .L155-.LFB2323
	.uleb128 0
	.uleb128 .LEHB2-.LFB2323
	.uleb128 .LEHE2-.LEHB2
	.uleb128 0
	.uleb128 0
.LLSDACSE2323:
	.text
	.size	_ZN8opendnp318MeasurementHandler19ProcessMeasurementsERKN7openpal6RSliceERNS1_6LoggerEPNS_11ISOEHandlerE, .-_ZN8opendnp318MeasurementHandler19ProcessMeasurementsERKN7openpal6RSliceERNS1_6LoggerEPNS_11ISOEHandlerE
	.align 2
	.p2align 4,,15
	.globl	_ZN8opendnp318MeasurementHandler12ModeFromTypeENS_14GroupVariationE
	.type	_ZN8opendnp318MeasurementHandler12ModeFromTypeENS_14GroupVariationE, @function
_ZN8opendnp318MeasurementHandler12ModeFromTypeENS_14GroupVariationE:
.LFB2330:
	.cfi_startproc
	jmp	_ZN8opendnp315HasAbsoluteTimeENS_14GroupVariationE@PLT
	.cfi_endproc
.LFE2330:
	.size	_ZN8opendnp318MeasurementHandler12ModeFromTypeENS_14GroupVariationE, .-_ZN8opendnp318MeasurementHandler12ModeFromTypeENS_14GroupVariationE
	.align 2
	.p2align 4,,15
	.globl	_ZN8opendnp318MeasurementHandler15CheckForTxStartEv
	.type	_ZN8opendnp318MeasurementHandler15CheckForTxStartEv, @function
_ZN8opendnp318MeasurementHandler15CheckForTxStartEv:
.LFB2331:
	.cfi_startproc
	cmpb	$0, 56(%rdi)
	jne	.L160
	movb	$1, 56(%rdi)
	movq	64(%rdi), %rdi
	testq	%rdi, %rdi
	je	.L160
	movq	(%rdi), %rax
	jmp	*16(%rax)
	.p2align 4,,10
	.p2align 3
.L160:
	rep ret
	.cfi_endproc
.LFE2331:
	.size	_ZN8opendnp318MeasurementHandler15CheckForTxStartEv, .-_ZN8opendnp318MeasurementHandler15CheckForTxStartEv
	.align 2
	.p2align 4,,15
	.globl	_ZN8opendnp318MeasurementHandler13ProcessHeaderERKNS_11RangeHeaderERKNS_11ICollectionINS_7IndexedINS_18BinaryOutputStatusEEEEE
	.type	_ZN8opendnp318MeasurementHandler13ProcessHeaderERKNS_11RangeHeaderERKNS_11ICollectionINS_7IndexedINS_18BinaryOutputStatusEEEEE, @function
_ZN8opendnp318MeasurementHandler13ProcessHeaderERKNS_11RangeHeaderERKNS_11ICollectionINS_7IndexedINS_18BinaryOutputStatusEEEEE:
.LFB2346:
	.cfi_startproc
	pushq	%r14
	.cfi_def_cfa_offset 16
	.cfi_offset 14, -16
	pushq	%r13
	.cfi_def_cfa_offset 24
	.cfi_offset 13, -24
	pushq	%r12
	.cfi_def_cfa_offset 32
	.cfi_offset 12, -32
	pushq	%rbp
	.cfi_def_cfa_offset 40
	.cfi_offset 6, -40
	movq	%rdi, %rbp
	pushq	%rbx
	.cfi_def_cfa_offset 48
	.cfi_offset 3, -48
	movq	%rdx, %r12
	movq	%rsi, %rbx
	subq	$32, %rsp
	.cfi_def_cfa_offset 80
	movzwl	(%rsi), %edi
	movq	%fs:40, %rax
	movq	%rax, 24(%rsp)
	xorl	%eax, %eax
	call	_ZN8opendnp318MeasurementHandler12ModeFromTypeENS_14GroupVariationE@PLT
	movq	%rbp, %rdi
	movl	%eax, %r14d
	call	_ZN8opendnp318MeasurementHandler15CheckForTxStartEv@PLT
	movq	%rbx, %rdi
	movl	12(%rbx), %r13d
	call	_ZNK8opendnp312HeaderRecord16GetQualifierCodeEv@PLT
	movzwl	(%rbx), %ebx
	movb	%al, 14(%rsp)
	movb	%r14b, 15(%rsp)
	movl	%ebx, %edi
	movw	%bx, 12(%rsp)
	call	_ZN8opendnp37IsEventENS_14GroupVariationE@PLT
	movl	%ebx, %edi
	movb	%al, 16(%rsp)
	call	_ZN8opendnp38HasFlagsENS_14GroupVariationE@PLT
	movq	64(%rbp), %rdi
	movb	%al, 17(%rsp)
	leaq	12(%rsp), %rsi
	movl	%r13d, 20(%rsp)
	movq	%r12, %rdx
	movq	(%rdi), %rax
	call	*72(%rax)
	movq	24(%rsp), %rcx
	xorq	%fs:40, %rcx
	jne	.L170
	addq	$32, %rsp
	.cfi_remember_state
	.cfi_def_cfa_offset 48
	xorl	%eax, %eax
	popq	%rbx
	.cfi_def_cfa_offset 40
	popq	%rbp
	.cfi_def_cfa_offset 32
	popq	%r12
	.cfi_def_cfa_offset 24
	popq	%r13
	.cfi_def_cfa_offset 16
	popq	%r14
	.cfi_def_cfa_offset 8
	ret
.L170:
	.cfi_restore_state
	call	__stack_chk_fail@PLT
	.cfi_endproc
.LFE2346:
	.size	_ZN8opendnp318MeasurementHandler13ProcessHeaderERKNS_11RangeHeaderERKNS_11ICollectionINS_7IndexedINS_18BinaryOutputStatusEEEEE, .-_ZN8opendnp318MeasurementHandler13ProcessHeaderERKNS_11RangeHeaderERKNS_11ICollectionINS_7IndexedINS_18BinaryOutputStatusEEEEE
	.align 2
	.p2align 4,,15
	.globl	_ZN8opendnp318MeasurementHandler13ProcessHeaderERKNS_11RangeHeaderERKNS_11ICollectionINS_7IndexedINS_7CounterEEEEE
	.type	_ZN8opendnp318MeasurementHandler13ProcessHeaderERKNS_11RangeHeaderERKNS_11ICollectionINS_7IndexedINS_7CounterEEEEE, @function
_ZN8opendnp318MeasurementHandler13ProcessHeaderERKNS_11RangeHeaderERKNS_11ICollectionINS_7IndexedINS_7CounterEEEEE:
.LFB2347:
	.cfi_startproc
	pushq	%r14
	.cfi_def_cfa_offset 16
	.cfi_offset 14, -16
	pushq	%r13
	.cfi_def_cfa_offset 24
	.cfi_offset 13, -24
	pushq	%r12
	.cfi_def_cfa_offset 32
	.cfi_offset 12, -32
	pushq	%rbp
	.cfi_def_cfa_offset 40
	.cfi_offset 6, -40
	movq	%rdi, %rbp
	pushq	%rbx
	.cfi_def_cfa_offset 48
	.cfi_offset 3, -48
	movq	%rdx, %r12
	movq	%rsi, %rbx
	subq	$32, %rsp
	.cfi_def_cfa_offset 80
	movzwl	(%rsi), %edi
	movq	%fs:40, %rax
	movq	%rax, 24(%rsp)
	xorl	%eax, %eax
	call	_ZN8opendnp318MeasurementHandler12ModeFromTypeENS_14GroupVariationE@PLT
	movq	%rbp, %rdi
	movl	%eax, %r14d
	call	_ZN8opendnp318MeasurementHandler15CheckForTxStartEv@PLT
	movq	%rbx, %rdi
	movl	12(%rbx), %r13d
	call	_ZNK8opendnp312HeaderRecord16GetQualifierCodeEv@PLT
	movzwl	(%rbx), %ebx
	movb	%al, 14(%rsp)
	movb	%r14b, 15(%rsp)
	movl	%ebx, %edi
	movw	%bx, 12(%rsp)
	call	_ZN8opendnp37IsEventENS_14GroupVariationE@PLT
	movl	%ebx, %edi
	movb	%al, 16(%rsp)
	call	_ZN8opendnp38HasFlagsENS_14GroupVariationE@PLT
	movq	64(%rbp), %rdi
	movb	%al, 17(%rsp)
	leaq	12(%rsp), %rsi
	movl	%r13d, 20(%rsp)
	movq	%r12, %rdx
	movq	(%rdi), %rax
	call	*56(%rax)
	movq	24(%rsp), %rcx
	xorq	%fs:40, %rcx
	jne	.L174
	addq	$32, %rsp
	.cfi_remember_state
	.cfi_def_cfa_offset 48
	xorl	%eax, %eax
	popq	%rbx
	.cfi_def_cfa_offset 40
	popq	%rbp
	.cfi_def_cfa_offset 32
	popq	%r12
	.cfi_def_cfa_offset 24
	popq	%r13
	.cfi_def_cfa_offset 16
	popq	%r14
	.cfi_def_cfa_offset 8
	ret
.L174:
	.cfi_restore_state
	call	__stack_chk_fail@PLT
	.cfi_endproc
.LFE2347:
	.size	_ZN8opendnp318MeasurementHandler13ProcessHeaderERKNS_11RangeHeaderERKNS_11ICollectionINS_7IndexedINS_7CounterEEEEE, .-_ZN8opendnp318MeasurementHandler13ProcessHeaderERKNS_11RangeHeaderERKNS_11ICollectionINS_7IndexedINS_7CounterEEEEE
	.align 2
	.p2align 4,,15
	.globl	_ZN8opendnp318MeasurementHandler13ProcessHeaderERKNS_11RangeHeaderERKNS_11ICollectionINS_7IndexedINS_13FrozenCounterEEEEE
	.type	_ZN8opendnp318MeasurementHandler13ProcessHeaderERKNS_11RangeHeaderERKNS_11ICollectionINS_7IndexedINS_13FrozenCounterEEEEE, @function
_ZN8opendnp318MeasurementHandler13ProcessHeaderERKNS_11RangeHeaderERKNS_11ICollectionINS_7IndexedINS_13FrozenCounterEEEEE:
.LFB2348:
	.cfi_startproc
	pushq	%r14
	.cfi_def_cfa_offset 16
	.cfi_offset 14, -16
	pushq	%r13
	.cfi_def_cfa_offset 24
	.cfi_offset 13, -24
	pushq	%r12
	.cfi_def_cfa_offset 32
	.cfi_offset 12, -32
	pushq	%rbp
	.cfi_def_cfa_offset 40
	.cfi_offset 6, -40
	movq	%rdi, %rbp
	pushq	%rbx
	.cfi_def_cfa_offset 48
	.cfi_offset 3, -48
	movq	%rdx, %r12
	movq	%rsi, %rbx
	subq	$32, %rsp
	.cfi_def_cfa_offset 80
	movzwl	(%rsi), %edi
	movq	%fs:40, %rax
	movq	%rax, 24(%rsp)
	xorl	%eax, %eax
	call	_ZN8opendnp318MeasurementHandler12ModeFromTypeENS_14GroupVariationE@PLT
	movq	%rbp, %rdi
	movl	%eax, %r14d
	call	_ZN8opendnp318MeasurementHandler15CheckForTxStartEv@PLT
	movq	%rbx, %rdi
	movl	12(%rbx), %r13d
	call	_ZNK8opendnp312HeaderRecord16GetQualifierCodeEv@PLT
	movzwl	(%rbx), %ebx
	movb	%al, 14(%rsp)
	movb	%r14b, 15(%rsp)
	movl	%ebx, %edi
	movw	%bx, 12(%rsp)
	call	_ZN8opendnp37IsEventENS_14GroupVariationE@PLT
	movl	%ebx, %edi
	movb	%al, 16(%rsp)
	call	_ZN8opendnp38HasFlagsENS_14GroupVariationE@PLT
	movq	64(%rbp), %rdi
	movb	%al, 17(%rsp)
	leaq	12(%rsp), %rsi
	movl	%r13d, 20(%rsp)
	movq	%r12, %rdx
	movq	(%rdi), %rax
	call	*64(%rax)
	movq	24(%rsp), %rcx
	xorq	%fs:40, %rcx
	jne	.L178
	addq	$32, %rsp
	.cfi_remember_state
	.cfi_def_cfa_offset 48
	xorl	%eax, %eax
	popq	%rbx
	.cfi_def_cfa_offset 40
	popq	%rbp
	.cfi_def_cfa_offset 32
	popq	%r12
	.cfi_def_cfa_offset 24
	popq	%r13
	.cfi_def_cfa_offset 16
	popq	%r14
	.cfi_def_cfa_offset 8
	ret
.L178:
	.cfi_restore_state
	call	__stack_chk_fail@PLT
	.cfi_endproc
.LFE2348:
	.size	_ZN8opendnp318MeasurementHandler13ProcessHeaderERKNS_11RangeHeaderERKNS_11ICollectionINS_7IndexedINS_13FrozenCounterEEEEE, .-_ZN8opendnp318MeasurementHandler13ProcessHeaderERKNS_11RangeHeaderERKNS_11ICollectionINS_7IndexedINS_13FrozenCounterEEEEE
	.align 2
	.p2align 4,,15
	.globl	_ZN8opendnp318MeasurementHandler13ProcessHeaderERKNS_11RangeHeaderERKNS_11ICollectionINS_7IndexedINS_6AnalogEEEEE
	.type	_ZN8opendnp318MeasurementHandler13ProcessHeaderERKNS_11RangeHeaderERKNS_11ICollectionINS_7IndexedINS_6AnalogEEEEE, @function
_ZN8opendnp318MeasurementHandler13ProcessHeaderERKNS_11RangeHeaderERKNS_11ICollectionINS_7IndexedINS_6AnalogEEEEE:
.LFB2349:
	.cfi_startproc
	pushq	%r14
	.cfi_def_cfa_offset 16
	.cfi_offset 14, -16
	pushq	%r13
	.cfi_def_cfa_offset 24
	.cfi_offset 13, -24
	pushq	%r12
	.cfi_def_cfa_offset 32
	.cfi_offset 12, -32
	pushq	%rbp
	.cfi_def_cfa_offset 40
	.cfi_offset 6, -40
	movq	%rdi, %rbp
	pushq	%rbx
	.cfi_def_cfa_offset 48
	.cfi_offset 3, -48
	movq	%rdx, %r12
	movq	%rsi, %rbx
	subq	$32, %rsp
	.cfi_def_cfa_offset 80
	movzwl	(%rsi), %edi
	movq	%fs:40, %rax
	movq	%rax, 24(%rsp)
	xorl	%eax, %eax
	call	_ZN8opendnp318MeasurementHandler12ModeFromTypeENS_14GroupVariationE@PLT
	movq	%rbp, %rdi
	movl	%eax, %r14d
	call	_ZN8opendnp318MeasurementHandler15CheckForTxStartEv@PLT
	movq	%rbx, %rdi
	movl	12(%rbx), %r13d
	call	_ZNK8opendnp312HeaderRecord16GetQualifierCodeEv@PLT
	movzwl	(%rbx), %ebx
	movb	%al, 14(%rsp)
	movb	%r14b, 15(%rsp)
	movl	%ebx, %edi
	movw	%bx, 12(%rsp)
	call	_ZN8opendnp37IsEventENS_14GroupVariationE@PLT
	movl	%ebx, %edi
	movb	%al, 16(%rsp)
	call	_ZN8opendnp38HasFlagsENS_14GroupVariationE@PLT
	movq	64(%rbp), %rdi
	movb	%al, 17(%rsp)
	leaq	12(%rsp), %rsi
	movl	%r13d, 20(%rsp)
	movq	%r12, %rdx
	movq	(%rdi), %rax
	call	*48(%rax)
	movq	24(%rsp), %rcx
	xorq	%fs:40, %rcx
	jne	.L182
	addq	$32, %rsp
	.cfi_remember_state
	.cfi_def_cfa_offset 48
	xorl	%eax, %eax
	popq	%rbx
	.cfi_def_cfa_offset 40
	popq	%rbp
	.cfi_def_cfa_offset 32
	popq	%r12
	.cfi_def_cfa_offset 24
	popq	%r13
	.cfi_def_cfa_offset 16
	popq	%r14
	.cfi_def_cfa_offset 8
	ret
.L182:
	.cfi_restore_state
	call	__stack_chk_fail@PLT
	.cfi_endproc
.LFE2349:
	.size	_ZN8opendnp318MeasurementHandler13ProcessHeaderERKNS_11RangeHeaderERKNS_11ICollectionINS_7IndexedINS_6AnalogEEEEE, .-_ZN8opendnp318MeasurementHandler13ProcessHeaderERKNS_11RangeHeaderERKNS_11ICollectionINS_7IndexedINS_6AnalogEEEEE
	.align 2
	.p2align 4,,15
	.globl	_ZN8opendnp318MeasurementHandler13ProcessHeaderERKNS_11RangeHeaderERKNS_11ICollectionINS_7IndexedINS_18AnalogOutputStatusEEEEE
	.type	_ZN8opendnp318MeasurementHandler13ProcessHeaderERKNS_11RangeHeaderERKNS_11ICollectionINS_7IndexedINS_18AnalogOutputStatusEEEEE, @function
_ZN8opendnp318MeasurementHandler13ProcessHeaderERKNS_11RangeHeaderERKNS_11ICollectionINS_7IndexedINS_18AnalogOutputStatusEEEEE:
.LFB2350:
	.cfi_startproc
	pushq	%r14
	.cfi_def_cfa_offset 16
	.cfi_offset 14, -16
	pushq	%r13
	.cfi_def_cfa_offset 24
	.cfi_offset 13, -24
	pushq	%r12
	.cfi_def_cfa_offset 32
	.cfi_offset 12, -32
	pushq	%rbp
	.cfi_def_cfa_offset 40
	.cfi_offset 6, -40
	movq	%rdi, %rbp
	pushq	%rbx
	.cfi_def_cfa_offset 48
	.cfi_offset 3, -48
	movq	%rdx, %r12
	movq	%rsi, %rbx
	subq	$32, %rsp
	.cfi_def_cfa_offset 80
	movzwl	(%rsi), %edi
	movq	%fs:40, %rax
	movq	%rax, 24(%rsp)
	xorl	%eax, %eax
	call	_ZN8opendnp318MeasurementHandler12ModeFromTypeENS_14GroupVariationE@PLT
	movq	%rbp, %rdi
	movl	%eax, %r14d
	call	_ZN8opendnp318MeasurementHandler15CheckForTxStartEv@PLT
	movq	%rbx, %rdi
	movl	12(%rbx), %r13d
	call	_ZNK8opendnp312HeaderRecord16GetQualifierCodeEv@PLT
	movzwl	(%rbx), %ebx
	movb	%al, 14(%rsp)
	movb	%r14b, 15(%rsp)
	movl	%ebx, %edi
	movw	%bx, 12(%rsp)
	call	_ZN8opendnp37IsEventENS_14GroupVariationE@PLT
	movl	%ebx, %edi
	movb	%al, 16(%rsp)
	call	_ZN8opendnp38HasFlagsENS_14GroupVariationE@PLT
	movq	64(%rbp), %rdi
	movb	%al, 17(%rsp)
	leaq	12(%rsp), %rsi
	movl	%r13d, 20(%rsp)
	movq	%r12, %rdx
	movq	(%rdi), %rax
	call	*80(%rax)
	movq	24(%rsp), %rcx
	xorq	%fs:40, %rcx
	jne	.L186
	addq	$32, %rsp
	.cfi_remember_state
	.cfi_def_cfa_offset 48
	xorl	%eax, %eax
	popq	%rbx
	.cfi_def_cfa_offset 40
	popq	%rbp
	.cfi_def_cfa_offset 32
	popq	%r12
	.cfi_def_cfa_offset 24
	popq	%r13
	.cfi_def_cfa_offset 16
	popq	%r14
	.cfi_def_cfa_offset 8
	ret
.L186:
	.cfi_restore_state
	call	__stack_chk_fail@PLT
	.cfi_endproc
.LFE2350:
	.size	_ZN8opendnp318MeasurementHandler13ProcessHeaderERKNS_11RangeHeaderERKNS_11ICollectionINS_7IndexedINS_18AnalogOutputStatusEEEEE, .-_ZN8opendnp318MeasurementHandler13ProcessHeaderERKNS_11RangeHeaderERKNS_11ICollectionINS_7IndexedINS_18AnalogOutputStatusEEEEE
	.align 2
	.p2align 4,,15
	.globl	_ZN8opendnp318MeasurementHandler13ProcessHeaderERKNS_11RangeHeaderERKNS_11ICollectionINS_7IndexedINS_11OctetStringEEEEE
	.type	_ZN8opendnp318MeasurementHandler13ProcessHeaderERKNS_11RangeHeaderERKNS_11ICollectionINS_7IndexedINS_11OctetStringEEEEE, @function
_ZN8opendnp318MeasurementHandler13ProcessHeaderERKNS_11RangeHeaderERKNS_11ICollectionINS_7IndexedINS_11OctetStringEEEEE:
.LFB2351:
	.cfi_startproc
	pushq	%r14
	.cfi_def_cfa_offset 16
	.cfi_offset 14, -16
	pushq	%r13
	.cfi_def_cfa_offset 24
	.cfi_offset 13, -24
	pushq	%r12
	.cfi_def_cfa_offset 32
	.cfi_offset 12, -32
	pushq	%rbp
	.cfi_def_cfa_offset 40
	.cfi_offset 6, -40
	movq	%rdi, %rbp
	pushq	%rbx
	.cfi_def_cfa_offset 48
	.cfi_offset 3, -48
	movq	%rdx, %r12
	movq	%rsi, %rbx
	subq	$32, %rsp
	.cfi_def_cfa_offset 80
	movzwl	(%rsi), %edi
	movq	%fs:40, %rax
	movq	%rax, 24(%rsp)
	xorl	%eax, %eax
	call	_ZN8opendnp318MeasurementHandler12ModeFromTypeENS_14GroupVariationE@PLT
	movq	%rbp, %rdi
	movl	%eax, %r14d
	call	_ZN8opendnp318MeasurementHandler15CheckForTxStartEv@PLT
	movq	%rbx, %rdi
	movl	12(%rbx), %r13d
	call	_ZNK8opendnp312HeaderRecord16GetQualifierCodeEv@PLT
	movzwl	(%rbx), %ebx
	movb	%al, 14(%rsp)
	movb	%r14b, 15(%rsp)
	movl	%ebx, %edi
	movw	%bx, 12(%rsp)
	call	_ZN8opendnp37IsEventENS_14GroupVariationE@PLT
	movl	%ebx, %edi
	movb	%al, 16(%rsp)
	call	_ZN8opendnp38HasFlagsENS_14GroupVariationE@PLT
	movq	64(%rbp), %rdi
	movb	%al, 17(%rsp)
	leaq	12(%rsp), %rsi
	movl	%r13d, 20(%rsp)
	movq	%r12, %rdx
	movq	(%rdi), %rax
	call	*88(%rax)
	movq	24(%rsp), %rcx
	xorq	%fs:40, %rcx
	jne	.L190
	addq	$32, %rsp
	.cfi_remember_state
	.cfi_def_cfa_offset 48
	xorl	%eax, %eax
	popq	%rbx
	.cfi_def_cfa_offset 40
	popq	%rbp
	.cfi_def_cfa_offset 32
	popq	%r12
	.cfi_def_cfa_offset 24
	popq	%r13
	.cfi_def_cfa_offset 16
	popq	%r14
	.cfi_def_cfa_offset 8
	ret
.L190:
	.cfi_restore_state
	call	__stack_chk_fail@PLT
	.cfi_endproc
.LFE2351:
	.size	_ZN8opendnp318MeasurementHandler13ProcessHeaderERKNS_11RangeHeaderERKNS_11ICollectionINS_7IndexedINS_11OctetStringEEEEE, .-_ZN8opendnp318MeasurementHandler13ProcessHeaderERKNS_11RangeHeaderERKNS_11ICollectionINS_7IndexedINS_11OctetStringEEEEE
	.align 2
	.p2align 4,,15
	.globl	_ZN8opendnp318MeasurementHandler13ProcessHeaderERKNS_11RangeHeaderERKNS_11ICollectionINS_7IndexedINS_15TimeAndIntervalEEEEE
	.type	_ZN8opendnp318MeasurementHandler13ProcessHeaderERKNS_11RangeHeaderERKNS_11ICollectionINS_7IndexedINS_15TimeAndIntervalEEEEE, @function
_ZN8opendnp318MeasurementHandler13ProcessHeaderERKNS_11RangeHeaderERKNS_11ICollectionINS_7IndexedINS_15TimeAndIntervalEEEEE:
.LFB2352:
	.cfi_startproc
	pushq	%r14
	.cfi_def_cfa_offset 16
	.cfi_offset 14, -16
	pushq	%r13
	.cfi_def_cfa_offset 24
	.cfi_offset 13, -24
	pushq	%r12
	.cfi_def_cfa_offset 32
	.cfi_offset 12, -32
	pushq	%rbp
	.cfi_def_cfa_offset 40
	.cfi_offset 6, -40
	movq	%rdi, %rbp
	pushq	%rbx
	.cfi_def_cfa_offset 48
	.cfi_offset 3, -48
	movq	%rdx, %r12
	movq	%rsi, %rbx
	subq	$32, %rsp
	.cfi_def_cfa_offset 80
	movzwl	(%rsi), %edi
	movq	%fs:40, %rax
	movq	%rax, 24(%rsp)
	xorl	%eax, %eax
	call	_ZN8opendnp318MeasurementHandler12ModeFromTypeENS_14GroupVariationE@PLT
	movq	%rbp, %rdi
	movl	%eax, %r14d
	call	_ZN8opendnp318MeasurementHandler15CheckForTxStartEv@PLT
	movq	%rbx, %rdi
	movl	12(%rbx), %r13d
	call	_ZNK8opendnp312HeaderRecord16GetQualifierCodeEv@PLT
	movzwl	(%rbx), %ebx
	movb	%al, 14(%rsp)
	movb	%r14b, 15(%rsp)
	movl	%ebx, %edi
	movw	%bx, 12(%rsp)
	call	_ZN8opendnp37IsEventENS_14GroupVariationE@PLT
	movl	%ebx, %edi
	movb	%al, 16(%rsp)
	call	_ZN8opendnp38HasFlagsENS_14GroupVariationE@PLT
	movq	64(%rbp), %rdi
	movb	%al, 17(%rsp)
	leaq	12(%rsp), %rsi
	movl	%r13d, 20(%rsp)
	movq	%r12, %rdx
	movq	(%rdi), %rax
	call	*96(%rax)
	movq	24(%rsp), %rcx
	xorq	%fs:40, %rcx
	jne	.L194
	addq	$32, %rsp
	.cfi_remember_state
	.cfi_def_cfa_offset 48
	xorl	%eax, %eax
	popq	%rbx
	.cfi_def_cfa_offset 40
	popq	%rbp
	.cfi_def_cfa_offset 32
	popq	%r12
	.cfi_def_cfa_offset 24
	popq	%r13
	.cfi_def_cfa_offset 16
	popq	%r14
	.cfi_def_cfa_offset 8
	ret
.L194:
	.cfi_restore_state
	call	__stack_chk_fail@PLT
	.cfi_endproc
.LFE2352:
	.size	_ZN8opendnp318MeasurementHandler13ProcessHeaderERKNS_11RangeHeaderERKNS_11ICollectionINS_7IndexedINS_15TimeAndIntervalEEEEE, .-_ZN8opendnp318MeasurementHandler13ProcessHeaderERKNS_11RangeHeaderERKNS_11ICollectionINS_7IndexedINS_15TimeAndIntervalEEEEE
	.align 2
	.p2align 4,,15
	.globl	_ZN8opendnp318MeasurementHandler13ProcessHeaderERKNS_12PrefixHeaderERKNS_11ICollectionINS_7IndexedINS_18BinaryCommandEventEEEEE
	.type	_ZN8opendnp318MeasurementHandler13ProcessHeaderERKNS_12PrefixHeaderERKNS_11ICollectionINS_7IndexedINS_18BinaryCommandEventEEEEE, @function
_ZN8opendnp318MeasurementHandler13ProcessHeaderERKNS_12PrefixHeaderERKNS_11ICollectionINS_7IndexedINS_18BinaryCommandEventEEEEE:
.LFB2362:
	.cfi_startproc
	pushq	%r14
	.cfi_def_cfa_offset 16
	.cfi_offset 14, -16
	pushq	%r13
	.cfi_def_cfa_offset 24
	.cfi_offset 13, -24
	pushq	%r12
	.cfi_def_cfa_offset 32
	.cfi_offset 12, -32
	pushq	%rbp
	.cfi_def_cfa_offset 40
	.cfi_offset 6, -40
	movq	%rdi, %rbp
	pushq	%rbx
	.cfi_def_cfa_offset 48
	.cfi_offset 3, -48
	movq	%rdx, %r12
	movq	%rsi, %rbx
	subq	$32, %rsp
	.cfi_def_cfa_offset 80
	movzwl	(%rsi), %edi
	movq	%fs:40, %rax
	movq	%rax, 24(%rsp)
	xorl	%eax, %eax
	call	_ZN8opendnp318MeasurementHandler12ModeFromTypeENS_14GroupVariationE@PLT
	movq	%rbp, %rdi
	movl	%eax, %r14d
	call	_ZN8opendnp318MeasurementHandler15CheckForTxStartEv@PLT
	movq	%rbx, %rdi
	movl	12(%rbx), %r13d
	call	_ZNK8opendnp312HeaderRecord16GetQualifierCodeEv@PLT
	movzwl	(%rbx), %ebx
	movb	%al, 14(%rsp)
	movb	%r14b, 15(%rsp)
	movl	%ebx, %edi
	movw	%bx, 12(%rsp)
	call	_ZN8opendnp37IsEventENS_14GroupVariationE@PLT
	movl	%ebx, %edi
	movb	%al, 16(%rsp)
	call	_ZN8opendnp38HasFlagsENS_14GroupVariationE@PLT
	movq	64(%rbp), %rdi
	movb	%al, 17(%rsp)
	leaq	12(%rsp), %rsi
	movl	%r13d, 20(%rsp)
	movq	%r12, %rdx
	movq	(%rdi), %rax
	call	*104(%rax)
	movq	24(%rsp), %rcx
	xorq	%fs:40, %rcx
	jne	.L198
	addq	$32, %rsp
	.cfi_remember_state
	.cfi_def_cfa_offset 48
	xorl	%eax, %eax
	popq	%rbx
	.cfi_def_cfa_offset 40
	popq	%rbp
	.cfi_def_cfa_offset 32
	popq	%r12
	.cfi_def_cfa_offset 24
	popq	%r13
	.cfi_def_cfa_offset 16
	popq	%r14
	.cfi_def_cfa_offset 8
	ret
.L198:
	.cfi_restore_state
	call	__stack_chk_fail@PLT
	.cfi_endproc
.LFE2362:
	.size	_ZN8opendnp318MeasurementHandler13ProcessHeaderERKNS_12PrefixHeaderERKNS_11ICollectionINS_7IndexedINS_18BinaryCommandEventEEEEE, .-_ZN8opendnp318MeasurementHandler13ProcessHeaderERKNS_12PrefixHeaderERKNS_11ICollectionINS_7IndexedINS_18BinaryCommandEventEEEEE
	.align 2
	.p2align 4,,15
	.globl	_ZN8opendnp318MeasurementHandler13ProcessHeaderERKNS_12PrefixHeaderERKNS_11ICollectionINS_7IndexedINS_18AnalogCommandEventEEEEE
	.type	_ZN8opendnp318MeasurementHandler13ProcessHeaderERKNS_12PrefixHeaderERKNS_11ICollectionINS_7IndexedINS_18AnalogCommandEventEEEEE, @function
_ZN8opendnp318MeasurementHandler13ProcessHeaderERKNS_12PrefixHeaderERKNS_11ICollectionINS_7IndexedINS_18AnalogCommandEventEEEEE:
.LFB2363:
	.cfi_startproc
	pushq	%r14
	.cfi_def_cfa_offset 16
	.cfi_offset 14, -16
	pushq	%r13
	.cfi_def_cfa_offset 24
	.cfi_offset 13, -24
	pushq	%r12
	.cfi_def_cfa_offset 32
	.cfi_offset 12, -32
	pushq	%rbp
	.cfi_def_cfa_offset 40
	.cfi_offset 6, -40
	movq	%rdi, %rbp
	pushq	%rbx
	.cfi_def_cfa_offset 48
	.cfi_offset 3, -48
	movq	%rdx, %r12
	movq	%rsi, %rbx
	subq	$32, %rsp
	.cfi_def_cfa_offset 80
	movzwl	(%rsi), %edi
	movq	%fs:40, %rax
	movq	%rax, 24(%rsp)
	xorl	%eax, %eax
	call	_ZN8opendnp318MeasurementHandler12ModeFromTypeENS_14GroupVariationE@PLT
	movq	%rbp, %rdi
	movl	%eax, %r14d
	call	_ZN8opendnp318MeasurementHandler15CheckForTxStartEv@PLT
	movq	%rbx, %rdi
	movl	12(%rbx), %r13d
	call	_ZNK8opendnp312HeaderRecord16GetQualifierCodeEv@PLT
	movzwl	(%rbx), %ebx
	movb	%al, 14(%rsp)
	movb	%r14b, 15(%rsp)
	movl	%ebx, %edi
	movw	%bx, 12(%rsp)
	call	_ZN8opendnp37IsEventENS_14GroupVariationE@PLT
	movl	%ebx, %edi
	movb	%al, 16(%rsp)
	call	_ZN8opendnp38HasFlagsENS_14GroupVariationE@PLT
	movq	64(%rbp), %rdi
	movb	%al, 17(%rsp)
	leaq	12(%rsp), %rsi
	movl	%r13d, 20(%rsp)
	movq	%r12, %rdx
	movq	(%rdi), %rax
	call	*112(%rax)
	movq	24(%rsp), %rcx
	xorq	%fs:40, %rcx
	jne	.L202
	addq	$32, %rsp
	.cfi_remember_state
	.cfi_def_cfa_offset 48
	xorl	%eax, %eax
	popq	%rbx
	.cfi_def_cfa_offset 40
	popq	%rbp
	.cfi_def_cfa_offset 32
	popq	%r12
	.cfi_def_cfa_offset 24
	popq	%r13
	.cfi_def_cfa_offset 16
	popq	%r14
	.cfi_def_cfa_offset 8
	ret
.L202:
	.cfi_restore_state
	call	__stack_chk_fail@PLT
	.cfi_endproc
.LFE2363:
	.size	_ZN8opendnp318MeasurementHandler13ProcessHeaderERKNS_12PrefixHeaderERKNS_11ICollectionINS_7IndexedINS_18AnalogCommandEventEEEEE, .-_ZN8opendnp318MeasurementHandler13ProcessHeaderERKNS_12PrefixHeaderERKNS_11ICollectionINS_7IndexedINS_18AnalogCommandEventEEEEE
	.align 2
	.p2align 4,,15
	.globl	_ZN8opendnp318MeasurementHandler13ProcessHeaderERKNS_11CountHeaderERKNS_11ICollectionINS_11Group50Var1EEE
	.type	_ZN8opendnp318MeasurementHandler13ProcessHeaderERKNS_11CountHeaderERKNS_11ICollectionINS_11Group50Var1EEE, @function
_ZN8opendnp318MeasurementHandler13ProcessHeaderERKNS_11CountHeaderERKNS_11ICollectionINS_11Group50Var1EEE:
.LFB2332:
	.cfi_startproc
	pushq	%r12
	.cfi_def_cfa_offset 16
	.cfi_offset 12, -16
	pushq	%rbp
	.cfi_def_cfa_offset 24
	.cfi_offset 6, -24
	movq	%rdx, %r12
	pushq	%rbx
	.cfi_def_cfa_offset 32
	.cfi_offset 3, -32
	movq	%rdi, %rbp
	movq	%rsi, %rbx
	subq	$48, %rsp
	.cfi_def_cfa_offset 80
	movq	%fs:40, %rax
	movq	%rax, 40(%rsp)
	xorl	%eax, %eax
	call	_ZN8opendnp318MeasurementHandler15CheckForTxStartEv@PLT
	leaq	16+_ZTVN8opendnp321TransformedCollectionINS_11Group50Var1EN7openpal10UInt48TypeEZNS_18MeasurementHandler13ProcessHeaderERKNS_11CountHeaderERKNS_11ICollectionIS1_EEEUlRKS1_E_EE(%rip), %rax
	movq	%rbx, %rdi
	movq	%r12, 24(%rsp)
	movl	12(%rbx), %r12d
	movq	%rax, 16(%rsp)
	call	_ZNK8opendnp312HeaderRecord16GetQualifierCodeEv@PLT
	movzwl	(%rbx), %ebx
	movb	%al, 6(%rsp)
	movb	$0, 7(%rsp)
	movl	%ebx, %edi
	movw	%bx, 4(%rsp)
	call	_ZN8opendnp37IsEventENS_14GroupVariationE@PLT
	movl	%ebx, %edi
	movb	%al, 8(%rsp)
	call	_ZN8opendnp38HasFlagsENS_14GroupVariationE@PLT
	movq	64(%rbp), %rdi
	movb	%al, 9(%rsp)
	leaq	16(%rsp), %rdx
	movl	%r12d, 12(%rsp)
	leaq	4(%rsp), %rsi
	movq	(%rdi), %rax
	call	*128(%rax)
	movq	40(%rsp), %rcx
	xorq	%fs:40, %rcx
	jne	.L206
	addq	$48, %rsp
	.cfi_remember_state
	.cfi_def_cfa_offset 32
	xorl	%eax, %eax
	popq	%rbx
	.cfi_def_cfa_offset 24
	popq	%rbp
	.cfi_def_cfa_offset 16
	popq	%r12
	.cfi_def_cfa_offset 8
	ret
.L206:
	.cfi_restore_state
	call	__stack_chk_fail@PLT
	.cfi_endproc
.LFE2332:
	.size	_ZN8opendnp318MeasurementHandler13ProcessHeaderERKNS_11CountHeaderERKNS_11ICollectionINS_11Group50Var1EEE, .-_ZN8opendnp318MeasurementHandler13ProcessHeaderERKNS_11CountHeaderERKNS_11ICollectionINS_11Group50Var1EEE
	.align 2
	.p2align 4,,15
	.globl	_ZN8opendnp318MeasurementHandler13ProcessHeaderERKNS_12PrefixHeaderERKNS_11ICollectionINS_7IndexedINS_12Group122Var1EEEEE
	.type	_ZN8opendnp318MeasurementHandler13ProcessHeaderERKNS_12PrefixHeaderERKNS_11ICollectionINS_7IndexedINS_12Group122Var1EEEEE, @function
_ZN8opendnp318MeasurementHandler13ProcessHeaderERKNS_12PrefixHeaderERKNS_11ICollectionINS_7IndexedINS_12Group122Var1EEEEE:
.LFB2364:
	.cfi_startproc
	pushq	%r13
	.cfi_def_cfa_offset 16
	.cfi_offset 13, -16
	pushq	%r12
	.cfi_def_cfa_offset 24
	.cfi_offset 12, -24
	pushq	%rbp
	.cfi_def_cfa_offset 32
	.cfi_offset 6, -32
	pushq	%rbx
	.cfi_def_cfa_offset 40
	.cfi_offset 3, -40
	movq	%rdi, %rbp
	movq	%rsi, %rbx
	subq	$56, %rsp
	.cfi_def_cfa_offset 96
	movzwl	(%rsi), %edi
	movq	%fs:40, %rax
	movq	%rax, 40(%rsp)
	xorl	%eax, %eax
	movq	_ZTVN8opendnp321TransformedCollectionINS_7IndexedINS_12Group122Var1EEENS1_INS_12SecurityStatEEEZNS_18MeasurementHandler25LoadValuesWithTransformToIS4_S2_EENS_8IINFieldERKNS_12HeaderRecordERKNS_11ICollectionINS1_IT0_EEEEEUlRKS3_E_EE@GOTPCREL(%rip), %rax
	movq	%rdx, 24(%rsp)
	addq	$16, %rax
	movq	%rax, 16(%rsp)
	call	_ZN8opendnp318MeasurementHandler12ModeFromTypeENS_14GroupVariationE@PLT
	movq	%rbp, %rdi
	movl	%eax, %r13d
	call	_ZN8opendnp318MeasurementHandler15CheckForTxStartEv@PLT
	movq	%rbx, %rdi
	movl	12(%rbx), %r12d
	call	_ZNK8opendnp312HeaderRecord16GetQualifierCodeEv@PLT
	movzwl	(%rbx), %ebx
	movb	%al, 6(%rsp)
	movb	%r13b, 7(%rsp)
	movl	%ebx, %edi
	movw	%bx, 4(%rsp)
	call	_ZN8opendnp37IsEventENS_14GroupVariationE@PLT
	movl	%ebx, %edi
	movb	%al, 8(%rsp)
	call	_ZN8opendnp38HasFlagsENS_14GroupVariationE@PLT
	movq	64(%rbp), %rdi
	movb	%al, 9(%rsp)
	leaq	16(%rsp), %rdx
	movl	%r12d, 12(%rsp)
	leaq	4(%rsp), %rsi
	movq	(%rdi), %rax
	call	*120(%rax)
	movq	40(%rsp), %rcx
	xorq	%fs:40, %rcx
	jne	.L210
	addq	$56, %rsp
	.cfi_remember_state
	.cfi_def_cfa_offset 40
	xorl	%eax, %eax
	popq	%rbx
	.cfi_def_cfa_offset 32
	popq	%rbp
	.cfi_def_cfa_offset 24
	popq	%r12
	.cfi_def_cfa_offset 16
	popq	%r13
	.cfi_def_cfa_offset 8
	ret
.L210:
	.cfi_restore_state
	call	__stack_chk_fail@PLT
	.cfi_endproc
.LFE2364:
	.size	_ZN8opendnp318MeasurementHandler13ProcessHeaderERKNS_12PrefixHeaderERKNS_11ICollectionINS_7IndexedINS_12Group122Var1EEEEE, .-_ZN8opendnp318MeasurementHandler13ProcessHeaderERKNS_12PrefixHeaderERKNS_11ICollectionINS_7IndexedINS_12Group122Var1EEEEE
	.align 2
	.p2align 4,,15
	.globl	_ZN8opendnp318MeasurementHandler13ProcessHeaderERKNS_12PrefixHeaderERKNS_11ICollectionINS_7IndexedINS_6AnalogEEEEE
	.type	_ZN8opendnp318MeasurementHandler13ProcessHeaderERKNS_12PrefixHeaderERKNS_11ICollectionINS_7IndexedINS_6AnalogEEEEE, @function
_ZN8opendnp318MeasurementHandler13ProcessHeaderERKNS_12PrefixHeaderERKNS_11ICollectionINS_7IndexedINS_6AnalogEEEEE:
.LFB2359:
	.cfi_startproc
	pushq	%r14
	.cfi_def_cfa_offset 16
	.cfi_offset 14, -16
	pushq	%r13
	.cfi_def_cfa_offset 24
	.cfi_offset 13, -24
	pushq	%r12
	.cfi_def_cfa_offset 32
	.cfi_offset 12, -32
	pushq	%rbp
	.cfi_def_cfa_offset 40
	.cfi_offset 6, -40
	movq	%rdi, %rbp
	pushq	%rbx
	.cfi_def_cfa_offset 48
	.cfi_offset 3, -48
	movq	%rdx, %r12
	movq	%rsi, %rbx
	subq	$32, %rsp
	.cfi_def_cfa_offset 80
	movzwl	(%rsi), %edi
	movq	%fs:40, %rax
	movq	%rax, 24(%rsp)
	xorl	%eax, %eax
	call	_ZN8opendnp318MeasurementHandler12ModeFromTypeENS_14GroupVariationE@PLT
	movq	%rbp, %rdi
	movl	%eax, %r14d
	call	_ZN8opendnp318MeasurementHandler15CheckForTxStartEv@PLT
	movq	%rbx, %rdi
	movl	12(%rbx), %r13d
	call	_ZNK8opendnp312HeaderRecord16GetQualifierCodeEv@PLT
	movzwl	(%rbx), %ebx
	movb	%al, 14(%rsp)
	movb	%r14b, 15(%rsp)
	movl	%ebx, %edi
	movw	%bx, 12(%rsp)
	call	_ZN8opendnp37IsEventENS_14GroupVariationE@PLT
	movl	%ebx, %edi
	movb	%al, 16(%rsp)
	call	_ZN8opendnp38HasFlagsENS_14GroupVariationE@PLT
	movq	64(%rbp), %rdi
	movb	%al, 17(%rsp)
	leaq	12(%rsp), %rsi
	movl	%r13d, 20(%rsp)
	movq	%r12, %rdx
	movq	(%rdi), %rax
	call	*48(%rax)
	movq	24(%rsp), %rcx
	xorq	%fs:40, %rcx
	jne	.L214
	addq	$32, %rsp
	.cfi_remember_state
	.cfi_def_cfa_offset 48
	xorl	%eax, %eax
	popq	%rbx
	.cfi_def_cfa_offset 40
	popq	%rbp
	.cfi_def_cfa_offset 32
	popq	%r12
	.cfi_def_cfa_offset 24
	popq	%r13
	.cfi_def_cfa_offset 16
	popq	%r14
	.cfi_def_cfa_offset 8
	ret
.L214:
	.cfi_restore_state
	call	__stack_chk_fail@PLT
	.cfi_endproc
.LFE2359:
	.size	_ZN8opendnp318MeasurementHandler13ProcessHeaderERKNS_12PrefixHeaderERKNS_11ICollectionINS_7IndexedINS_6AnalogEEEEE, .-_ZN8opendnp318MeasurementHandler13ProcessHeaderERKNS_12PrefixHeaderERKNS_11ICollectionINS_7IndexedINS_6AnalogEEEEE
	.align 2
	.p2align 4,,15
	.globl	_ZN8opendnp318MeasurementHandler13ProcessHeaderERKNS_12PrefixHeaderERKNS_11ICollectionINS_7IndexedINS_18AnalogOutputStatusEEEEE
	.type	_ZN8opendnp318MeasurementHandler13ProcessHeaderERKNS_12PrefixHeaderERKNS_11ICollectionINS_7IndexedINS_18AnalogOutputStatusEEEEE, @function
_ZN8opendnp318MeasurementHandler13ProcessHeaderERKNS_12PrefixHeaderERKNS_11ICollectionINS_7IndexedINS_18AnalogOutputStatusEEEEE:
.LFB2360:
	.cfi_startproc
	pushq	%r14
	.cfi_def_cfa_offset 16
	.cfi_offset 14, -16
	pushq	%r13
	.cfi_def_cfa_offset 24
	.cfi_offset 13, -24
	pushq	%r12
	.cfi_def_cfa_offset 32
	.cfi_offset 12, -32
	pushq	%rbp
	.cfi_def_cfa_offset 40
	.cfi_offset 6, -40
	movq	%rdi, %rbp
	pushq	%rbx
	.cfi_def_cfa_offset 48
	.cfi_offset 3, -48
	movq	%rdx, %r12
	movq	%rsi, %rbx
	subq	$32, %rsp
	.cfi_def_cfa_offset 80
	movzwl	(%rsi), %edi
	movq	%fs:40, %rax
	movq	%rax, 24(%rsp)
	xorl	%eax, %eax
	call	_ZN8opendnp318MeasurementHandler12ModeFromTypeENS_14GroupVariationE@PLT
	movq	%rbp, %rdi
	movl	%eax, %r14d
	call	_ZN8opendnp318MeasurementHandler15CheckForTxStartEv@PLT
	movq	%rbx, %rdi
	movl	12(%rbx), %r13d
	call	_ZNK8opendnp312HeaderRecord16GetQualifierCodeEv@PLT
	movzwl	(%rbx), %ebx
	movb	%al, 14(%rsp)
	movb	%r14b, 15(%rsp)
	movl	%ebx, %edi
	movw	%bx, 12(%rsp)
	call	_ZN8opendnp37IsEventENS_14GroupVariationE@PLT
	movl	%ebx, %edi
	movb	%al, 16(%rsp)
	call	_ZN8opendnp38HasFlagsENS_14GroupVariationE@PLT
	movq	64(%rbp), %rdi
	movb	%al, 17(%rsp)
	leaq	12(%rsp), %rsi
	movl	%r13d, 20(%rsp)
	movq	%r12, %rdx
	movq	(%rdi), %rax
	call	*80(%rax)
	movq	24(%rsp), %rcx
	xorq	%fs:40, %rcx
	jne	.L218
	addq	$32, %rsp
	.cfi_remember_state
	.cfi_def_cfa_offset 48
	xorl	%eax, %eax
	popq	%rbx
	.cfi_def_cfa_offset 40
	popq	%rbp
	.cfi_def_cfa_offset 32
	popq	%r12
	.cfi_def_cfa_offset 24
	popq	%r13
	.cfi_def_cfa_offset 16
	popq	%r14
	.cfi_def_cfa_offset 8
	ret
.L218:
	.cfi_restore_state
	call	__stack_chk_fail@PLT
	.cfi_endproc
.LFE2360:
	.size	_ZN8opendnp318MeasurementHandler13ProcessHeaderERKNS_12PrefixHeaderERKNS_11ICollectionINS_7IndexedINS_18AnalogOutputStatusEEEEE, .-_ZN8opendnp318MeasurementHandler13ProcessHeaderERKNS_12PrefixHeaderERKNS_11ICollectionINS_7IndexedINS_18AnalogOutputStatusEEEEE
	.align 2
	.p2align 4,,15
	.globl	_ZN8opendnp318MeasurementHandler13ProcessHeaderERKNS_12PrefixHeaderERKNS_11ICollectionINS_7IndexedINS_18BinaryOutputStatusEEEEE
	.type	_ZN8opendnp318MeasurementHandler13ProcessHeaderERKNS_12PrefixHeaderERKNS_11ICollectionINS_7IndexedINS_18BinaryOutputStatusEEEEE, @function
_ZN8opendnp318MeasurementHandler13ProcessHeaderERKNS_12PrefixHeaderERKNS_11ICollectionINS_7IndexedINS_18BinaryOutputStatusEEEEE:
.LFB2355:
	.cfi_startproc
	pushq	%r14
	.cfi_def_cfa_offset 16
	.cfi_offset 14, -16
	pushq	%r13
	.cfi_def_cfa_offset 24
	.cfi_offset 13, -24
	pushq	%r12
	.cfi_def_cfa_offset 32
	.cfi_offset 12, -32
	pushq	%rbp
	.cfi_def_cfa_offset 40
	.cfi_offset 6, -40
	movq	%rdi, %rbp
	pushq	%rbx
	.cfi_def_cfa_offset 48
	.cfi_offset 3, -48
	movq	%rdx, %r12
	movq	%rsi, %rbx
	subq	$32, %rsp
	.cfi_def_cfa_offset 80
	movzwl	(%rsi), %edi
	movq	%fs:40, %rax
	movq	%rax, 24(%rsp)
	xorl	%eax, %eax
	call	_ZN8opendnp318MeasurementHandler12ModeFromTypeENS_14GroupVariationE@PLT
	movq	%rbp, %rdi
	movl	%eax, %r14d
	call	_ZN8opendnp318MeasurementHandler15CheckForTxStartEv@PLT
	movq	%rbx, %rdi
	movl	12(%rbx), %r13d
	call	_ZNK8opendnp312HeaderRecord16GetQualifierCodeEv@PLT
	movzwl	(%rbx), %ebx
	movb	%al, 14(%rsp)
	movb	%r14b, 15(%rsp)
	movl	%ebx, %edi
	movw	%bx, 12(%rsp)
	call	_ZN8opendnp37IsEventENS_14GroupVariationE@PLT
	movl	%ebx, %edi
	movb	%al, 16(%rsp)
	call	_ZN8opendnp38HasFlagsENS_14GroupVariationE@PLT
	movq	64(%rbp), %rdi
	movb	%al, 17(%rsp)
	leaq	12(%rsp), %rsi
	movl	%r13d, 20(%rsp)
	movq	%r12, %rdx
	movq	(%rdi), %rax
	call	*72(%rax)
	movq	24(%rsp), %rcx
	xorq	%fs:40, %rcx
	jne	.L222
	addq	$32, %rsp
	.cfi_remember_state
	.cfi_def_cfa_offset 48
	xorl	%eax, %eax
	popq	%rbx
	.cfi_def_cfa_offset 40
	popq	%rbp
	.cfi_def_cfa_offset 32
	popq	%r12
	.cfi_def_cfa_offset 24
	popq	%r13
	.cfi_def_cfa_offset 16
	popq	%r14
	.cfi_def_cfa_offset 8
	ret
.L222:
	.cfi_restore_state
	call	__stack_chk_fail@PLT
	.cfi_endproc
.LFE2355:
	.size	_ZN8opendnp318MeasurementHandler13ProcessHeaderERKNS_12PrefixHeaderERKNS_11ICollectionINS_7IndexedINS_18BinaryOutputStatusEEEEE, .-_ZN8opendnp318MeasurementHandler13ProcessHeaderERKNS_12PrefixHeaderERKNS_11ICollectionINS_7IndexedINS_18BinaryOutputStatusEEEEE
	.align 2
	.p2align 4,,15
	.globl	_ZN8opendnp318MeasurementHandler13ProcessHeaderERKNS_12PrefixHeaderERKNS_11ICollectionINS_7IndexedINS_7CounterEEEEE
	.type	_ZN8opendnp318MeasurementHandler13ProcessHeaderERKNS_12PrefixHeaderERKNS_11ICollectionINS_7IndexedINS_7CounterEEEEE, @function
_ZN8opendnp318MeasurementHandler13ProcessHeaderERKNS_12PrefixHeaderERKNS_11ICollectionINS_7IndexedINS_7CounterEEEEE:
.LFB2357:
	.cfi_startproc
	pushq	%r14
	.cfi_def_cfa_offset 16
	.cfi_offset 14, -16
	pushq	%r13
	.cfi_def_cfa_offset 24
	.cfi_offset 13, -24
	pushq	%r12
	.cfi_def_cfa_offset 32
	.cfi_offset 12, -32
	pushq	%rbp
	.cfi_def_cfa_offset 40
	.cfi_offset 6, -40
	movq	%rdi, %rbp
	pushq	%rbx
	.cfi_def_cfa_offset 48
	.cfi_offset 3, -48
	movq	%rdx, %r12
	movq	%rsi, %rbx
	subq	$32, %rsp
	.cfi_def_cfa_offset 80
	movzwl	(%rsi), %edi
	movq	%fs:40, %rax
	movq	%rax, 24(%rsp)
	xorl	%eax, %eax
	call	_ZN8opendnp318MeasurementHandler12ModeFromTypeENS_14GroupVariationE@PLT
	movq	%rbp, %rdi
	movl	%eax, %r14d
	call	_ZN8opendnp318MeasurementHandler15CheckForTxStartEv@PLT
	movq	%rbx, %rdi
	movl	12(%rbx), %r13d
	call	_ZNK8opendnp312HeaderRecord16GetQualifierCodeEv@PLT
	movzwl	(%rbx), %ebx
	movb	%al, 14(%rsp)
	movb	%r14b, 15(%rsp)
	movl	%ebx, %edi
	movw	%bx, 12(%rsp)
	call	_ZN8opendnp37IsEventENS_14GroupVariationE@PLT
	movl	%ebx, %edi
	movb	%al, 16(%rsp)
	call	_ZN8opendnp38HasFlagsENS_14GroupVariationE@PLT
	movq	64(%rbp), %rdi
	movb	%al, 17(%rsp)
	leaq	12(%rsp), %rsi
	movl	%r13d, 20(%rsp)
	movq	%r12, %rdx
	movq	(%rdi), %rax
	call	*56(%rax)
	movq	24(%rsp), %rcx
	xorq	%fs:40, %rcx
	jne	.L226
	addq	$32, %rsp
	.cfi_remember_state
	.cfi_def_cfa_offset 48
	xorl	%eax, %eax
	popq	%rbx
	.cfi_def_cfa_offset 40
	popq	%rbp
	.cfi_def_cfa_offset 32
	popq	%r12
	.cfi_def_cfa_offset 24
	popq	%r13
	.cfi_def_cfa_offset 16
	popq	%r14
	.cfi_def_cfa_offset 8
	ret
.L226:
	.cfi_restore_state
	call	__stack_chk_fail@PLT
	.cfi_endproc
.LFE2357:
	.size	_ZN8opendnp318MeasurementHandler13ProcessHeaderERKNS_12PrefixHeaderERKNS_11ICollectionINS_7IndexedINS_7CounterEEEEE, .-_ZN8opendnp318MeasurementHandler13ProcessHeaderERKNS_12PrefixHeaderERKNS_11ICollectionINS_7IndexedINS_7CounterEEEEE
	.align 2
	.p2align 4,,15
	.globl	_ZN8opendnp318MeasurementHandler13ProcessHeaderERKNS_12PrefixHeaderERKNS_11ICollectionINS_7IndexedINS_13FrozenCounterEEEEE
	.type	_ZN8opendnp318MeasurementHandler13ProcessHeaderERKNS_12PrefixHeaderERKNS_11ICollectionINS_7IndexedINS_13FrozenCounterEEEEE, @function
_ZN8opendnp318MeasurementHandler13ProcessHeaderERKNS_12PrefixHeaderERKNS_11ICollectionINS_7IndexedINS_13FrozenCounterEEEEE:
.LFB2358:
	.cfi_startproc
	pushq	%r14
	.cfi_def_cfa_offset 16
	.cfi_offset 14, -16
	pushq	%r13
	.cfi_def_cfa_offset 24
	.cfi_offset 13, -24
	pushq	%r12
	.cfi_def_cfa_offset 32
	.cfi_offset 12, -32
	pushq	%rbp
	.cfi_def_cfa_offset 40
	.cfi_offset 6, -40
	movq	%rdi, %rbp
	pushq	%rbx
	.cfi_def_cfa_offset 48
	.cfi_offset 3, -48
	movq	%rdx, %r12
	movq	%rsi, %rbx
	subq	$32, %rsp
	.cfi_def_cfa_offset 80
	movzwl	(%rsi), %edi
	movq	%fs:40, %rax
	movq	%rax, 24(%rsp)
	xorl	%eax, %eax
	call	_ZN8opendnp318MeasurementHandler12ModeFromTypeENS_14GroupVariationE@PLT
	movq	%rbp, %rdi
	movl	%eax, %r14d
	call	_ZN8opendnp318MeasurementHandler15CheckForTxStartEv@PLT
	movq	%rbx, %rdi
	movl	12(%rbx), %r13d
	call	_ZNK8opendnp312HeaderRecord16GetQualifierCodeEv@PLT
	movzwl	(%rbx), %ebx
	movb	%al, 14(%rsp)
	movb	%r14b, 15(%rsp)
	movl	%ebx, %edi
	movw	%bx, 12(%rsp)
	call	_ZN8opendnp37IsEventENS_14GroupVariationE@PLT
	movl	%ebx, %edi
	movb	%al, 16(%rsp)
	call	_ZN8opendnp38HasFlagsENS_14GroupVariationE@PLT
	movq	64(%rbp), %rdi
	movb	%al, 17(%rsp)
	leaq	12(%rsp), %rsi
	movl	%r13d, 20(%rsp)
	movq	%r12, %rdx
	movq	(%rdi), %rax
	call	*64(%rax)
	movq	24(%rsp), %rcx
	xorq	%fs:40, %rcx
	jne	.L230
	addq	$32, %rsp
	.cfi_remember_state
	.cfi_def_cfa_offset 48
	xorl	%eax, %eax
	popq	%rbx
	.cfi_def_cfa_offset 40
	popq	%rbp
	.cfi_def_cfa_offset 32
	popq	%r12
	.cfi_def_cfa_offset 24
	popq	%r13
	.cfi_def_cfa_offset 16
	popq	%r14
	.cfi_def_cfa_offset 8
	ret
.L230:
	.cfi_restore_state
	call	__stack_chk_fail@PLT
	.cfi_endproc
.LFE2358:
	.size	_ZN8opendnp318MeasurementHandler13ProcessHeaderERKNS_12PrefixHeaderERKNS_11ICollectionINS_7IndexedINS_13FrozenCounterEEEEE, .-_ZN8opendnp318MeasurementHandler13ProcessHeaderERKNS_12PrefixHeaderERKNS_11ICollectionINS_7IndexedINS_13FrozenCounterEEEEE
	.align 2
	.p2align 4,,15
	.globl	_ZN8opendnp318MeasurementHandler13ProcessHeaderERKNS_12PrefixHeaderERKNS_11ICollectionINS_7IndexedINS_11OctetStringEEEEE
	.type	_ZN8opendnp318MeasurementHandler13ProcessHeaderERKNS_12PrefixHeaderERKNS_11ICollectionINS_7IndexedINS_11OctetStringEEEEE, @function
_ZN8opendnp318MeasurementHandler13ProcessHeaderERKNS_12PrefixHeaderERKNS_11ICollectionINS_7IndexedINS_11OctetStringEEEEE:
.LFB2361:
	.cfi_startproc
	pushq	%r14
	.cfi_def_cfa_offset 16
	.cfi_offset 14, -16
	pushq	%r13
	.cfi_def_cfa_offset 24
	.cfi_offset 13, -24
	pushq	%r12
	.cfi_def_cfa_offset 32
	.cfi_offset 12, -32
	pushq	%rbp
	.cfi_def_cfa_offset 40
	.cfi_offset 6, -40
	movq	%rdi, %rbp
	pushq	%rbx
	.cfi_def_cfa_offset 48
	.cfi_offset 3, -48
	movq	%rdx, %r12
	movq	%rsi, %rbx
	subq	$32, %rsp
	.cfi_def_cfa_offset 80
	movzwl	(%rsi), %edi
	movq	%fs:40, %rax
	movq	%rax, 24(%rsp)
	xorl	%eax, %eax
	call	_ZN8opendnp318MeasurementHandler12ModeFromTypeENS_14GroupVariationE@PLT
	movq	%rbp, %rdi
	movl	%eax, %r14d
	call	_ZN8opendnp318MeasurementHandler15CheckForTxStartEv@PLT
	movq	%rbx, %rdi
	movl	12(%rbx), %r13d
	call	_ZNK8opendnp312HeaderRecord16GetQualifierCodeEv@PLT
	movzwl	(%rbx), %ebx
	movb	%al, 14(%rsp)
	movb	%r14b, 15(%rsp)
	movl	%ebx, %edi
	movw	%bx, 12(%rsp)
	call	_ZN8opendnp37IsEventENS_14GroupVariationE@PLT
	movl	%ebx, %edi
	movb	%al, 16(%rsp)
	call	_ZN8opendnp38HasFlagsENS_14GroupVariationE@PLT
	movq	64(%rbp), %rdi
	movb	%al, 17(%rsp)
	leaq	12(%rsp), %rsi
	movl	%r13d, 20(%rsp)
	movq	%r12, %rdx
	movq	(%rdi), %rax
	call	*88(%rax)
	movq	24(%rsp), %rcx
	xorq	%fs:40, %rcx
	jne	.L234
	addq	$32, %rsp
	.cfi_remember_state
	.cfi_def_cfa_offset 48
	xorl	%eax, %eax
	popq	%rbx
	.cfi_def_cfa_offset 40
	popq	%rbp
	.cfi_def_cfa_offset 32
	popq	%r12
	.cfi_def_cfa_offset 24
	popq	%r13
	.cfi_def_cfa_offset 16
	popq	%r14
	.cfi_def_cfa_offset 8
	ret
.L234:
	.cfi_restore_state
	call	__stack_chk_fail@PLT
	.cfi_endproc
.LFE2361:
	.size	_ZN8opendnp318MeasurementHandler13ProcessHeaderERKNS_12PrefixHeaderERKNS_11ICollectionINS_7IndexedINS_11OctetStringEEEEE, .-_ZN8opendnp318MeasurementHandler13ProcessHeaderERKNS_12PrefixHeaderERKNS_11ICollectionINS_7IndexedINS_11OctetStringEEEEE
	.align 2
	.p2align 4,,15
	.globl	_ZN8opendnp318MeasurementHandler13ProcessHeaderERKNS_12PrefixHeaderERKNS_11ICollectionINS_7IndexedINS_12Group122Var2EEEEE
	.type	_ZN8opendnp318MeasurementHandler13ProcessHeaderERKNS_12PrefixHeaderERKNS_11ICollectionINS_7IndexedINS_12Group122Var2EEEEE, @function
_ZN8opendnp318MeasurementHandler13ProcessHeaderERKNS_12PrefixHeaderERKNS_11ICollectionINS_7IndexedINS_12Group122Var2EEEEE:
.LFB2365:
	.cfi_startproc
	pushq	%r13
	.cfi_def_cfa_offset 16
	.cfi_offset 13, -16
	pushq	%r12
	.cfi_def_cfa_offset 24
	.cfi_offset 12, -24
	pushq	%rbp
	.cfi_def_cfa_offset 32
	.cfi_offset 6, -32
	pushq	%rbx
	.cfi_def_cfa_offset 40
	.cfi_offset 3, -40
	movq	%rdi, %rbp
	movq	%rsi, %rbx
	subq	$56, %rsp
	.cfi_def_cfa_offset 96
	movzwl	(%rsi), %edi
	movq	%fs:40, %rax
	movq	%rax, 40(%rsp)
	xorl	%eax, %eax
	movq	_ZTVN8opendnp321TransformedCollectionINS_7IndexedINS_12Group122Var2EEENS1_INS_12SecurityStatEEEZNS_18MeasurementHandler25LoadValuesWithTransformToIS4_S2_EENS_8IINFieldERKNS_12HeaderRecordERKNS_11ICollectionINS1_IT0_EEEEEUlRKS3_E_EE@GOTPCREL(%rip), %rax
	movq	%rdx, 24(%rsp)
	addq	$16, %rax
	movq	%rax, 16(%rsp)
	call	_ZN8opendnp318MeasurementHandler12ModeFromTypeENS_14GroupVariationE@PLT
	movq	%rbp, %rdi
	movl	%eax, %r13d
	call	_ZN8opendnp318MeasurementHandler15CheckForTxStartEv@PLT
	movq	%rbx, %rdi
	movl	12(%rbx), %r12d
	call	_ZNK8opendnp312HeaderRecord16GetQualifierCodeEv@PLT
	movzwl	(%rbx), %ebx
	movb	%al, 6(%rsp)
	movb	%r13b, 7(%rsp)
	movl	%ebx, %edi
	movw	%bx, 4(%rsp)
	call	_ZN8opendnp37IsEventENS_14GroupVariationE@PLT
	movl	%ebx, %edi
	movb	%al, 8(%rsp)
	call	_ZN8opendnp38HasFlagsENS_14GroupVariationE@PLT
	movq	64(%rbp), %rdi
	movb	%al, 9(%rsp)
	leaq	16(%rsp), %rdx
	movl	%r12d, 12(%rsp)
	leaq	4(%rsp), %rsi
	movq	(%rdi), %rax
	call	*120(%rax)
	movq	40(%rsp), %rcx
	xorq	%fs:40, %rcx
	jne	.L238
	addq	$56, %rsp
	.cfi_remember_state
	.cfi_def_cfa_offset 40
	xorl	%eax, %eax
	popq	%rbx
	.cfi_def_cfa_offset 32
	popq	%rbp
	.cfi_def_cfa_offset 24
	popq	%r12
	.cfi_def_cfa_offset 16
	popq	%r13
	.cfi_def_cfa_offset 8
	ret
.L238:
	.cfi_restore_state
	call	__stack_chk_fail@PLT
	.cfi_endproc
.LFE2365:
	.size	_ZN8opendnp318MeasurementHandler13ProcessHeaderERKNS_12PrefixHeaderERKNS_11ICollectionINS_7IndexedINS_12Group122Var2EEEEE, .-_ZN8opendnp318MeasurementHandler13ProcessHeaderERKNS_12PrefixHeaderERKNS_11ICollectionINS_7IndexedINS_12Group122Var2EEEEE
	.align 2
	.p2align 4,,15
	.globl	_ZN8opendnp318MeasurementHandler13ProcessHeaderERKNS_11RangeHeaderERKNS_11ICollectionINS_7IndexedINS_12Group121Var1EEEEE
	.type	_ZN8opendnp318MeasurementHandler13ProcessHeaderERKNS_11RangeHeaderERKNS_11ICollectionINS_7IndexedINS_12Group121Var1EEEEE, @function
_ZN8opendnp318MeasurementHandler13ProcessHeaderERKNS_11RangeHeaderERKNS_11ICollectionINS_7IndexedINS_12Group121Var1EEEEE:
.LFB2353:
	.cfi_startproc
	pushq	%r13
	.cfi_def_cfa_offset 16
	.cfi_offset 13, -16
	pushq	%r12
	.cfi_def_cfa_offset 24
	.cfi_offset 12, -24
	pushq	%rbp
	.cfi_def_cfa_offset 32
	.cfi_offset 6, -32
	pushq	%rbx
	.cfi_def_cfa_offset 40
	.cfi_offset 3, -40
	movq	%rdi, %rbp
	movq	%rsi, %rbx
	subq	$56, %rsp
	.cfi_def_cfa_offset 96
	movzwl	(%rsi), %edi
	movq	%fs:40, %rax
	movq	%rax, 40(%rsp)
	xorl	%eax, %eax
	movq	_ZTVN8opendnp321TransformedCollectionINS_7IndexedINS_12Group121Var1EEENS1_INS_12SecurityStatEEEZNS_18MeasurementHandler25LoadValuesWithTransformToIS4_S2_EENS_8IINFieldERKNS_12HeaderRecordERKNS_11ICollectionINS1_IT0_EEEEEUlRKS3_E_EE@GOTPCREL(%rip), %rax
	movq	%rdx, 24(%rsp)
	addq	$16, %rax
	movq	%rax, 16(%rsp)
	call	_ZN8opendnp318MeasurementHandler12ModeFromTypeENS_14GroupVariationE@PLT
	movq	%rbp, %rdi
	movl	%eax, %r13d
	call	_ZN8opendnp318MeasurementHandler15CheckForTxStartEv@PLT
	movq	%rbx, %rdi
	movl	12(%rbx), %r12d
	call	_ZNK8opendnp312HeaderRecord16GetQualifierCodeEv@PLT
	movzwl	(%rbx), %ebx
	movb	%al, 6(%rsp)
	movb	%r13b, 7(%rsp)
	movl	%ebx, %edi
	movw	%bx, 4(%rsp)
	call	_ZN8opendnp37IsEventENS_14GroupVariationE@PLT
	movl	%ebx, %edi
	movb	%al, 8(%rsp)
	call	_ZN8opendnp38HasFlagsENS_14GroupVariationE@PLT
	movq	64(%rbp), %rdi
	movb	%al, 9(%rsp)
	leaq	16(%rsp), %rdx
	movl	%r12d, 12(%rsp)
	leaq	4(%rsp), %rsi
	movq	(%rdi), %rax
	call	*120(%rax)
	movq	40(%rsp), %rcx
	xorq	%fs:40, %rcx
	jne	.L242
	addq	$56, %rsp
	.cfi_remember_state
	.cfi_def_cfa_offset 40
	xorl	%eax, %eax
	popq	%rbx
	.cfi_def_cfa_offset 32
	popq	%rbp
	.cfi_def_cfa_offset 24
	popq	%r12
	.cfi_def_cfa_offset 16
	popq	%r13
	.cfi_def_cfa_offset 8
	ret
.L242:
	.cfi_restore_state
	call	__stack_chk_fail@PLT
	.cfi_endproc
.LFE2353:
	.size	_ZN8opendnp318MeasurementHandler13ProcessHeaderERKNS_11RangeHeaderERKNS_11ICollectionINS_7IndexedINS_12Group121Var1EEEEE, .-_ZN8opendnp318MeasurementHandler13ProcessHeaderERKNS_11RangeHeaderERKNS_11ICollectionINS_7IndexedINS_12Group121Var1EEEEE
	.align 2
	.p2align 4,,15
	.globl	_ZN8opendnp318MeasurementHandler13ProcessHeaderERKNS_11RangeHeaderERKNS_11ICollectionINS_7IndexedINS_6BinaryEEEEE
	.type	_ZN8opendnp318MeasurementHandler13ProcessHeaderERKNS_11RangeHeaderERKNS_11ICollectionINS_7IndexedINS_6BinaryEEEEE, @function
_ZN8opendnp318MeasurementHandler13ProcessHeaderERKNS_11RangeHeaderERKNS_11ICollectionINS_7IndexedINS_6BinaryEEEEE:
.LFB2344:
	.cfi_startproc
	pushq	%r14
	.cfi_def_cfa_offset 16
	.cfi_offset 14, -16
	pushq	%r13
	.cfi_def_cfa_offset 24
	.cfi_offset 13, -24
	pushq	%r12
	.cfi_def_cfa_offset 32
	.cfi_offset 12, -32
	pushq	%rbp
	.cfi_def_cfa_offset 40
	.cfi_offset 6, -40
	movq	%rdi, %rbp
	pushq	%rbx
	.cfi_def_cfa_offset 48
	.cfi_offset 3, -48
	movq	%rdx, %r12
	movq	%rsi, %rbx
	subq	$32, %rsp
	.cfi_def_cfa_offset 80
	movzwl	(%rsi), %edi
	movq	%fs:40, %rax
	movq	%rax, 24(%rsp)
	xorl	%eax, %eax
	call	_ZN8opendnp318MeasurementHandler12ModeFromTypeENS_14GroupVariationE@PLT
	movq	%rbp, %rdi
	movl	%eax, %r14d
	call	_ZN8opendnp318MeasurementHandler15CheckForTxStartEv@PLT
	movq	%rbx, %rdi
	movl	12(%rbx), %r13d
	call	_ZNK8opendnp312HeaderRecord16GetQualifierCodeEv@PLT
	movzwl	(%rbx), %ebx
	movb	%al, 14(%rsp)
	movb	%r14b, 15(%rsp)
	movl	%ebx, %edi
	movw	%bx, 12(%rsp)
	call	_ZN8opendnp37IsEventENS_14GroupVariationE@PLT
	movl	%ebx, %edi
	movb	%al, 16(%rsp)
	call	_ZN8opendnp38HasFlagsENS_14GroupVariationE@PLT
	movq	64(%rbp), %rdi
	movb	%al, 17(%rsp)
	leaq	12(%rsp), %rsi
	movl	%r13d, 20(%rsp)
	movq	%r12, %rdx
	movq	(%rdi), %rax
	call	*32(%rax)
	movq	24(%rsp), %rcx
	xorq	%fs:40, %rcx
	jne	.L246
	addq	$32, %rsp
	.cfi_remember_state
	.cfi_def_cfa_offset 48
	xorl	%eax, %eax
	popq	%rbx
	.cfi_def_cfa_offset 40
	popq	%rbp
	.cfi_def_cfa_offset 32
	popq	%r12
	.cfi_def_cfa_offset 24
	popq	%r13
	.cfi_def_cfa_offset 16
	popq	%r14
	.cfi_def_cfa_offset 8
	ret
.L246:
	.cfi_restore_state
	call	__stack_chk_fail@PLT
	.cfi_endproc
.LFE2344:
	.size	_ZN8opendnp318MeasurementHandler13ProcessHeaderERKNS_11RangeHeaderERKNS_11ICollectionINS_7IndexedINS_6BinaryEEEEE, .-_ZN8opendnp318MeasurementHandler13ProcessHeaderERKNS_11RangeHeaderERKNS_11ICollectionINS_7IndexedINS_6BinaryEEEEE
	.align 2
	.p2align 4,,15
	.globl	_ZN8opendnp318MeasurementHandler13ProcessHeaderERKNS_11RangeHeaderERKNS_11ICollectionINS_7IndexedINS_15DoubleBitBinaryEEEEE
	.type	_ZN8opendnp318MeasurementHandler13ProcessHeaderERKNS_11RangeHeaderERKNS_11ICollectionINS_7IndexedINS_15DoubleBitBinaryEEEEE, @function
_ZN8opendnp318MeasurementHandler13ProcessHeaderERKNS_11RangeHeaderERKNS_11ICollectionINS_7IndexedINS_15DoubleBitBinaryEEEEE:
.LFB2345:
	.cfi_startproc
	pushq	%r14
	.cfi_def_cfa_offset 16
	.cfi_offset 14, -16
	pushq	%r13
	.cfi_def_cfa_offset 24
	.cfi_offset 13, -24
	pushq	%r12
	.cfi_def_cfa_offset 32
	.cfi_offset 12, -32
	pushq	%rbp
	.cfi_def_cfa_offset 40
	.cfi_offset 6, -40
	movq	%rdi, %rbp
	pushq	%rbx
	.cfi_def_cfa_offset 48
	.cfi_offset 3, -48
	movq	%rdx, %r12
	movq	%rsi, %rbx
	subq	$32, %rsp
	.cfi_def_cfa_offset 80
	movzwl	(%rsi), %edi
	movq	%fs:40, %rax
	movq	%rax, 24(%rsp)
	xorl	%eax, %eax
	call	_ZN8opendnp318MeasurementHandler12ModeFromTypeENS_14GroupVariationE@PLT
	movq	%rbp, %rdi
	movl	%eax, %r14d
	call	_ZN8opendnp318MeasurementHandler15CheckForTxStartEv@PLT
	movq	%rbx, %rdi
	movl	12(%rbx), %r13d
	call	_ZNK8opendnp312HeaderRecord16GetQualifierCodeEv@PLT
	movzwl	(%rbx), %ebx
	movb	%al, 14(%rsp)
	movb	%r14b, 15(%rsp)
	movl	%ebx, %edi
	movw	%bx, 12(%rsp)
	call	_ZN8opendnp37IsEventENS_14GroupVariationE@PLT
	movl	%ebx, %edi
	movb	%al, 16(%rsp)
	call	_ZN8opendnp38HasFlagsENS_14GroupVariationE@PLT
	movq	64(%rbp), %rdi
	movb	%al, 17(%rsp)
	leaq	12(%rsp), %rsi
	movl	%r13d, 20(%rsp)
	movq	%r12, %rdx
	movq	(%rdi), %rax
	call	*40(%rax)
	movq	24(%rsp), %rcx
	xorq	%fs:40, %rcx
	jne	.L250
	addq	$32, %rsp
	.cfi_remember_state
	.cfi_def_cfa_offset 48
	xorl	%eax, %eax
	popq	%rbx
	.cfi_def_cfa_offset 40
	popq	%rbp
	.cfi_def_cfa_offset 32
	popq	%r12
	.cfi_def_cfa_offset 24
	popq	%r13
	.cfi_def_cfa_offset 16
	popq	%r14
	.cfi_def_cfa_offset 8
	ret
.L250:
	.cfi_restore_state
	call	__stack_chk_fail@PLT
	.cfi_endproc
.LFE2345:
	.size	_ZN8opendnp318MeasurementHandler13ProcessHeaderERKNS_11RangeHeaderERKNS_11ICollectionINS_7IndexedINS_15DoubleBitBinaryEEEEE, .-_ZN8opendnp318MeasurementHandler13ProcessHeaderERKNS_11RangeHeaderERKNS_11ICollectionINS_7IndexedINS_15DoubleBitBinaryEEEEE
	.section	.rodata.str1.1,"aMS",@progbits,1
.LC0:
	.string	"No prior CTO objects for %s"
	.section	.rodata.str1.8,"aMS",@progbits,1
	.align 8
.LC1:
	.string	"/home/raihan/OpenPLC_v3/utils/dnp3_src/cpp/libs/src/opendnp3/master/MeasurementHandler.h(154)"
	.text
	.align 2
	.p2align 4,,15
	.globl	_ZN8opendnp318MeasurementHandler13ProcessHeaderERKNS_12PrefixHeaderERKNS_11ICollectionINS_7IndexedINS_6BinaryEEEEE
	.type	_ZN8opendnp318MeasurementHandler13ProcessHeaderERKNS_12PrefixHeaderERKNS_11ICollectionINS_7IndexedINS_6BinaryEEEEE, @function
_ZN8opendnp318MeasurementHandler13ProcessHeaderERKNS_12PrefixHeaderERKNS_11ICollectionINS_7IndexedINS_6BinaryEEEEE:
.LFB2354:
	.cfi_startproc
	pushq	%r14
	.cfi_def_cfa_offset 16
	.cfi_offset 14, -16
	pushq	%r13
	.cfi_def_cfa_offset 24
	.cfi_offset 13, -24
	pushq	%r12
	.cfi_def_cfa_offset 32
	.cfi_offset 12, -32
	pushq	%rbp
	.cfi_def_cfa_offset 40
	.cfi_offset 6, -40
	movq	%rdi, %rbp
	pushq	%rbx
	.cfi_def_cfa_offset 48
	.cfi_offset 3, -48
	movq	%rdx, %r12
	movq	%rsi, %rbx
	subq	$176, %rsp
	.cfi_def_cfa_offset 224
	movzwl	(%rsi), %edi
	movq	%fs:40, %rax
	movq	%rax, 168(%rsp)
	xorl	%eax, %eax
	cmpw	$515, %di
	je	.L262
	call	_ZN8opendnp318MeasurementHandler12ModeFromTypeENS_14GroupVariationE@PLT
	movq	%rbp, %rdi
	movl	%eax, %r14d
	call	_ZN8opendnp318MeasurementHandler15CheckForTxStartEv@PLT
	movq	%rbx, %rdi
	movl	12(%rbx), %r13d
	call	_ZNK8opendnp312HeaderRecord16GetQualifierCodeEv@PLT
	movzwl	(%rbx), %ebx
	movb	%al, 18(%rsp)
	movb	%r14b, 19(%rsp)
	movl	%ebx, %edi
	movw	%bx, 16(%rsp)
	call	_ZN8opendnp37IsEventENS_14GroupVariationE@PLT
	movl	%ebx, %edi
	movb	%al, 20(%rsp)
	call	_ZN8opendnp38HasFlagsENS_14GroupVariationE@PLT
	movq	64(%rbp), %rdi
	movb	%al, 21(%rsp)
	leaq	16(%rsp), %rsi
	movl	%r13d, 24(%rsp)
	movq	%r12, %rdx
	movq	(%rdi), %rax
	call	*32(%rax)
	xorl	%eax, %eax
.L256:
	movq	168(%rsp), %rcx
	xorq	%fs:40, %rcx
	jne	.L263
	addq	$176, %rsp
	.cfi_remember_state
	.cfi_def_cfa_offset 48
	popq	%rbx
	.cfi_def_cfa_offset 40
	popq	%rbp
	.cfi_def_cfa_offset 32
	popq	%r12
	.cfi_def_cfa_offset 24
	popq	%r13
	.cfi_def_cfa_offset 16
	popq	%r14
	.cfi_def_cfa_offset 8
	ret
	.p2align 4,,10
	.p2align 3
.L262:
	.cfi_restore_state
	movzbl	72(%rbp), %r13d
	testb	%r13b, %r13b
	jne	.L253
	leaq	16(%rsp), %r12
	addq	$24, %rbp
	movl	$4, 16(%rsp)
	movq	%rbp, %rdi
	movq	%r12, %rsi
	call	_ZNK7openpal6Logger9IsEnabledERKNS_10LogFiltersE@PLT
	testb	%al, %al
	je	.L254
	movzwl	(%rbx), %edi
	leaq	48(%rsp), %rbx
	call	_ZN8opendnp322GroupVariationToStringENS_14GroupVariationE@PLT
	leaq	.LC0(%rip), %r8
	movq	%rax, %r9
	movl	$120, %ecx
	movl	$1, %edx
	movl	$120, %esi
	movq	%rbx, %rdi
	xorl	%eax, %eax
	call	__snprintf_chk@PLT
	leaq	.LC1(%rip), %rdx
	movq	%rbx, %rcx
	movq	%r12, %rsi
	movq	%rbp, %rdi
	movl	$4, 16(%rsp)
	call	_ZN7openpal6Logger3LogERKNS_10LogFiltersEPKcS5_@PLT
.L254:
	xorl	%eax, %eax
	movl	$10, %esi
	movq	%r12, %rdi
	movw	%ax, 16(%rsp)
	call	_ZN8opendnp38IINField6SetBitENS_6IINBitE@PLT
	movzbl	16(%rsp), %ecx
	movzbl	17(%rsp), %edx
	jmp	.L255
	.p2align 4,,10
	.p2align 3
.L253:
	movq	_ZTVN8opendnp321TransformedCollectionINS_7IndexedINS_6BinaryEEES3_ZNS_18MeasurementHandler14ProcessWithCTOIS2_EENS_8IINFieldERKNS_12HeaderRecordERKNS_11ICollectionINS1_IT_EEEEEUlRKS3_E_EE@GOTPCREL(%rip), %rdx
	movq	80(%rbp), %rax
	movq	%rbp, %rdi
	movq	%r12, 24(%rsp)
	addq	$16, %rdx
	movq	%rax, 32(%rsp)
	movq	%rdx, 16(%rsp)
	call	_ZN8opendnp318MeasurementHandler15CheckForTxStartEv@PLT
	movq	%rbx, %rdi
	movl	12(%rbx), %r12d
	call	_ZNK8opendnp312HeaderRecord16GetQualifierCodeEv@PLT
	movzwl	(%rbx), %ebx
	movb	%al, 6(%rsp)
	movb	%r13b, 7(%rsp)
	movl	%ebx, %edi
	movw	%bx, 4(%rsp)
	call	_ZN8opendnp37IsEventENS_14GroupVariationE@PLT
	movl	%ebx, %edi
	movb	%al, 8(%rsp)
	call	_ZN8opendnp38HasFlagsENS_14GroupVariationE@PLT
	movq	64(%rbp), %rdi
	movb	%al, 9(%rsp)
	leaq	16(%rsp), %rdx
	movl	%r12d, 12(%rsp)
	leaq	4(%rsp), %rsi
	movq	(%rdi), %rax
	call	*32(%rax)
	xorl	%edx, %edx
	xorl	%ecx, %ecx
.L255:
	xorl	%eax, %eax
	movb	%cl, %al
	movb	%dl, %ah
	jmp	.L256
.L263:
	call	__stack_chk_fail@PLT
	.cfi_endproc
.LFE2354:
	.size	_ZN8opendnp318MeasurementHandler13ProcessHeaderERKNS_12PrefixHeaderERKNS_11ICollectionINS_7IndexedINS_6BinaryEEEEE, .-_ZN8opendnp318MeasurementHandler13ProcessHeaderERKNS_12PrefixHeaderERKNS_11ICollectionINS_7IndexedINS_6BinaryEEEEE
	.align 2
	.p2align 4,,15
	.globl	_ZN8opendnp318MeasurementHandler13ProcessHeaderERKNS_12PrefixHeaderERKNS_11ICollectionINS_7IndexedINS_15DoubleBitBinaryEEEEE
	.type	_ZN8opendnp318MeasurementHandler13ProcessHeaderERKNS_12PrefixHeaderERKNS_11ICollectionINS_7IndexedINS_15DoubleBitBinaryEEEEE, @function
_ZN8opendnp318MeasurementHandler13ProcessHeaderERKNS_12PrefixHeaderERKNS_11ICollectionINS_7IndexedINS_15DoubleBitBinaryEEEEE:
.LFB2356:
	.cfi_startproc
	pushq	%r14
	.cfi_def_cfa_offset 16
	.cfi_offset 14, -16
	pushq	%r13
	.cfi_def_cfa_offset 24
	.cfi_offset 13, -24
	pushq	%r12
	.cfi_def_cfa_offset 32
	.cfi_offset 12, -32
	pushq	%rbp
	.cfi_def_cfa_offset 40
	.cfi_offset 6, -40
	movq	%rdi, %rbp
	pushq	%rbx
	.cfi_def_cfa_offset 48
	.cfi_offset 3, -48
	movq	%rdx, %r12
	movq	%rsi, %rbx
	subq	$176, %rsp
	.cfi_def_cfa_offset 224
	movzwl	(%rsi), %edi
	movq	%fs:40, %rax
	movq	%rax, 168(%rsp)
	xorl	%eax, %eax
	cmpw	$1027, %di
	je	.L275
	call	_ZN8opendnp318MeasurementHandler12ModeFromTypeENS_14GroupVariationE@PLT
	movq	%rbp, %rdi
	movl	%eax, %r14d
	call	_ZN8opendnp318MeasurementHandler15CheckForTxStartEv@PLT
	movq	%rbx, %rdi
	movl	12(%rbx), %r13d
	call	_ZNK8opendnp312HeaderRecord16GetQualifierCodeEv@PLT
	movzwl	(%rbx), %ebx
	movb	%al, 18(%rsp)
	movb	%r14b, 19(%rsp)
	movl	%ebx, %edi
	movw	%bx, 16(%rsp)
	call	_ZN8opendnp37IsEventENS_14GroupVariationE@PLT
	movl	%ebx, %edi
	movb	%al, 20(%rsp)
	call	_ZN8opendnp38HasFlagsENS_14GroupVariationE@PLT
	movq	64(%rbp), %rdi
	movb	%al, 21(%rsp)
	leaq	16(%rsp), %rsi
	movl	%r13d, 24(%rsp)
	movq	%r12, %rdx
	movq	(%rdi), %rax
	call	*40(%rax)
	xorl	%eax, %eax
.L269:
	movq	168(%rsp), %rcx
	xorq	%fs:40, %rcx
	jne	.L276
	addq	$176, %rsp
	.cfi_remember_state
	.cfi_def_cfa_offset 48
	popq	%rbx
	.cfi_def_cfa_offset 40
	popq	%rbp
	.cfi_def_cfa_offset 32
	popq	%r12
	.cfi_def_cfa_offset 24
	popq	%r13
	.cfi_def_cfa_offset 16
	popq	%r14
	.cfi_def_cfa_offset 8
	ret
	.p2align 4,,10
	.p2align 3
.L275:
	.cfi_restore_state
	movzbl	72(%rbp), %r13d
	testb	%r13b, %r13b
	jne	.L266
	leaq	16(%rsp), %r12
	addq	$24, %rbp
	movl	$4, 16(%rsp)
	movq	%rbp, %rdi
	movq	%r12, %rsi
	call	_ZNK7openpal6Logger9IsEnabledERKNS_10LogFiltersE@PLT
	testb	%al, %al
	je	.L267
	movzwl	(%rbx), %edi
	leaq	48(%rsp), %rbx
	call	_ZN8opendnp322GroupVariationToStringENS_14GroupVariationE@PLT
	leaq	.LC0(%rip), %r8
	movq	%rax, %r9
	movl	$120, %ecx
	movl	$1, %edx
	movl	$120, %esi
	movq	%rbx, %rdi
	xorl	%eax, %eax
	call	__snprintf_chk@PLT
	leaq	.LC1(%rip), %rdx
	movq	%rbx, %rcx
	movq	%r12, %rsi
	movq	%rbp, %rdi
	movl	$4, 16(%rsp)
	call	_ZN7openpal6Logger3LogERKNS_10LogFiltersEPKcS5_@PLT
.L267:
	xorl	%eax, %eax
	movl	$10, %esi
	movq	%r12, %rdi
	movw	%ax, 16(%rsp)
	call	_ZN8opendnp38IINField6SetBitENS_6IINBitE@PLT
	movzbl	16(%rsp), %ecx
	movzbl	17(%rsp), %edx
	jmp	.L268
	.p2align 4,,10
	.p2align 3
.L266:
	movq	_ZTVN8opendnp321TransformedCollectionINS_7IndexedINS_15DoubleBitBinaryEEES3_ZNS_18MeasurementHandler14ProcessWithCTOIS2_EENS_8IINFieldERKNS_12HeaderRecordERKNS_11ICollectionINS1_IT_EEEEEUlRKS3_E_EE@GOTPCREL(%rip), %rdx
	movq	80(%rbp), %rax
	movq	%rbp, %rdi
	movq	%r12, 24(%rsp)
	addq	$16, %rdx
	movq	%rax, 32(%rsp)
	movq	%rdx, 16(%rsp)
	call	_ZN8opendnp318MeasurementHandler15CheckForTxStartEv@PLT
	movq	%rbx, %rdi
	movl	12(%rbx), %r12d
	call	_ZNK8opendnp312HeaderRecord16GetQualifierCodeEv@PLT
	movzwl	(%rbx), %ebx
	movb	%al, 6(%rsp)
	movb	%r13b, 7(%rsp)
	movl	%ebx, %edi
	movw	%bx, 4(%rsp)
	call	_ZN8opendnp37IsEventENS_14GroupVariationE@PLT
	movl	%ebx, %edi
	movb	%al, 8(%rsp)
	call	_ZN8opendnp38HasFlagsENS_14GroupVariationE@PLT
	movq	64(%rbp), %rdi
	movb	%al, 9(%rsp)
	leaq	16(%rsp), %rdx
	movl	%r12d, 12(%rsp)
	leaq	4(%rsp), %rsi
	movq	(%rdi), %rax
	call	*40(%rax)
	xorl	%edx, %edx
	xorl	%ecx, %ecx
.L268:
	xorl	%eax, %eax
	movb	%cl, %al
	movb	%dl, %ah
	jmp	.L269
.L276:
	call	__stack_chk_fail@PLT
	.cfi_endproc
.LFE2356:
	.size	_ZN8opendnp318MeasurementHandler13ProcessHeaderERKNS_12PrefixHeaderERKNS_11ICollectionINS_7IndexedINS_15DoubleBitBinaryEEEEE, .-_ZN8opendnp318MeasurementHandler13ProcessHeaderERKNS_12PrefixHeaderERKNS_11ICollectionINS_7IndexedINS_15DoubleBitBinaryEEEEE
	.align 2
	.p2align 4,,15
	.globl	_ZN8opendnp318MeasurementHandler7ConvertERKNS_12Group121Var1E
	.type	_ZN8opendnp318MeasurementHandler7ConvertERKNS_12Group121Var1E, @function
_ZN8opendnp318MeasurementHandler7ConvertERKNS_12Group121Var1E:
.LFB2366:
	.cfi_startproc
	pushq	%rbx
	.cfi_def_cfa_offset 16
	.cfi_offset 3, -16
	movl	4(%rsi), %ecx
	movq	%rdi, %rbx
	movzwl	2(%rsi), %edx
	movzbl	(%rsi), %esi
	call	_ZN8opendnp312SecurityStatC1Ehtj@PLT
	movq	%rbx, %rax
	popq	%rbx
	.cfi_def_cfa_offset 8
	ret
	.cfi_endproc
.LFE2366:
	.size	_ZN8opendnp318MeasurementHandler7ConvertERKNS_12Group121Var1E, .-_ZN8opendnp318MeasurementHandler7ConvertERKNS_12Group121Var1E
	.section	.text._ZN8opendnp314FunctorVisitorINS_7IndexedINS_12Group121Var1EEEZNKS_21TransformedCollectionIS3_NS1_INS_12SecurityStatEEEZNS_18MeasurementHandler25LoadValuesWithTransformToIS5_S2_EENS_8IINFieldERKNS_12HeaderRecordERKNS_11ICollectionINS1_IT0_EEEEEUlRKS3_E_E7ForeachERNS_8IVisitorIS6_EEEUlSK_E_E7OnValueESK_,"axG",@progbits,_ZN8opendnp314FunctorVisitorINS_7IndexedINS_12Group121Var1EEEZNKS_21TransformedCollectionIS3_NS1_INS_12SecurityStatEEEZNS_18MeasurementHandler25LoadValuesWithTransformToIS5_S2_EENS_8IINFieldERKNS_12HeaderRecordERKNS_11ICollectionINS1_IT0_EEEEEUlRKS3_E_E7ForeachERNS_8IVisitorIS6_EEEUlSK_E_E7OnValueESK_,comdat
	.align 2
	.p2align 4,,15
	.weak	_ZN8opendnp314FunctorVisitorINS_7IndexedINS_12Group121Var1EEEZNKS_21TransformedCollectionIS3_NS1_INS_12SecurityStatEEEZNS_18MeasurementHandler25LoadValuesWithTransformToIS5_S2_EENS_8IINFieldERKNS_12HeaderRecordERKNS_11ICollectionINS1_IT0_EEEEEUlRKS3_E_E7ForeachERNS_8IVisitorIS6_EEEUlSK_E_E7OnValueESK_
	.type	_ZN8opendnp314FunctorVisitorINS_7IndexedINS_12Group121Var1EEEZNKS_21TransformedCollectionIS3_NS1_INS_12SecurityStatEEEZNS_18MeasurementHandler25LoadValuesWithTransformToIS5_S2_EENS_8IINFieldERKNS_12HeaderRecordERKNS_11ICollectionINS1_IT0_EEEEEUlRKS3_E_E7ForeachERNS_8IVisitorIS6_EEEUlSK_E_E7OnValueESK_, @function
_ZN8opendnp314FunctorVisitorINS_7IndexedINS_12Group121Var1EEEZNKS_21TransformedCollectionIS3_NS1_INS_12SecurityStatEEEZNS_18MeasurementHandler25LoadValuesWithTransformToIS5_S2_EENS_8IINFieldERKNS_12HeaderRecordERKNS_11ICollectionINS1_IT0_EEEEEUlRKS3_E_E7ForeachERNS_8IVisitorIS6_EEEUlSK_E_E7OnValueESK_:
.LFB3227:
	.cfi_startproc
	pushq	%r12
	.cfi_def_cfa_offset 16
	.cfi_offset 12, -16
	pushq	%rbp
	.cfi_def_cfa_offset 24
	.cfi_offset 6, -24
	pushq	%rbx
	.cfi_def_cfa_offset 32
	.cfi_offset 3, -32
	subq	$80, %rsp
	.cfi_def_cfa_offset 112
	movq	16(%rdi), %rbx
	movzwl	8(%rsi), %r12d
	movq	%fs:40, %rax
	movq	%rax, 72(%rsp)
	xorl	%eax, %eax
	movq	%rsp, %rdi
	movq	(%rbx), %rax
	movq	(%rax), %rbp
	call	_ZN8opendnp318MeasurementHandler7ConvertERKNS_12Group121Var1E@PLT
	movq	16(%rsp), %rax
	movw	%r12w, 56(%rsp)
	leaq	32(%rsp), %rsi
	movdqa	(%rsp), %xmm0
	movq	%rbx, %rdi
	movq	%rax, 48(%rsp)
	movaps	%xmm0, 32(%rsp)
	call	*%rbp
	movq	72(%rsp), %rax
	xorq	%fs:40, %rax
	jne	.L282
	addq	$80, %rsp
	.cfi_remember_state
	.cfi_def_cfa_offset 32
	popq	%rbx
	.cfi_def_cfa_offset 24
	popq	%rbp
	.cfi_def_cfa_offset 16
	popq	%r12
	.cfi_def_cfa_offset 8
	ret
.L282:
	.cfi_restore_state
	call	__stack_chk_fail@PLT
	.cfi_endproc
.LFE3227:
	.size	_ZN8opendnp314FunctorVisitorINS_7IndexedINS_12Group121Var1EEEZNKS_21TransformedCollectionIS3_NS1_INS_12SecurityStatEEEZNS_18MeasurementHandler25LoadValuesWithTransformToIS5_S2_EENS_8IINFieldERKNS_12HeaderRecordERKNS_11ICollectionINS1_IT0_EEEEEUlRKS3_E_E7ForeachERNS_8IVisitorIS6_EEEUlSK_E_E7OnValueESK_, .-_ZN8opendnp314FunctorVisitorINS_7IndexedINS_12Group121Var1EEEZNKS_21TransformedCollectionIS3_NS1_INS_12SecurityStatEEEZNS_18MeasurementHandler25LoadValuesWithTransformToIS5_S2_EENS_8IINFieldERKNS_12HeaderRecordERKNS_11ICollectionINS1_IT0_EEEEEUlRKS3_E_E7ForeachERNS_8IVisitorIS6_EEEUlSK_E_E7OnValueESK_
	.text
	.align 2
	.p2align 4,,15
	.globl	_ZN8opendnp318MeasurementHandler7ConvertERKNS_12Group122Var1E
	.type	_ZN8opendnp318MeasurementHandler7ConvertERKNS_12Group122Var1E, @function
_ZN8opendnp318MeasurementHandler7ConvertERKNS_12Group122Var1E:
.LFB2367:
	.cfi_startproc
	pushq	%rbx
	.cfi_def_cfa_offset 16
	.cfi_offset 3, -16
	movl	4(%rsi), %ecx
	movq	%rdi, %rbx
	movzwl	2(%rsi), %edx
	movzbl	(%rsi), %esi
	call	_ZN8opendnp312SecurityStatC1Ehtj@PLT
	movq	%rbx, %rax
	popq	%rbx
	.cfi_def_cfa_offset 8
	ret
	.cfi_endproc
.LFE2367:
	.size	_ZN8opendnp318MeasurementHandler7ConvertERKNS_12Group122Var1E, .-_ZN8opendnp318MeasurementHandler7ConvertERKNS_12Group122Var1E
	.section	.text._ZN8opendnp314FunctorVisitorINS_7IndexedINS_12Group122Var1EEEZNKS_21TransformedCollectionIS3_NS1_INS_12SecurityStatEEEZNS_18MeasurementHandler25LoadValuesWithTransformToIS5_S2_EENS_8IINFieldERKNS_12HeaderRecordERKNS_11ICollectionINS1_IT0_EEEEEUlRKS3_E_E7ForeachERNS_8IVisitorIS6_EEEUlSK_E_E7OnValueESK_,"axG",@progbits,_ZN8opendnp314FunctorVisitorINS_7IndexedINS_12Group122Var1EEEZNKS_21TransformedCollectionIS3_NS1_INS_12SecurityStatEEEZNS_18MeasurementHandler25LoadValuesWithTransformToIS5_S2_EENS_8IINFieldERKNS_12HeaderRecordERKNS_11ICollectionINS1_IT0_EEEEEUlRKS3_E_E7ForeachERNS_8IVisitorIS6_EEEUlSK_E_E7OnValueESK_,comdat
	.align 2
	.p2align 4,,15
	.weak	_ZN8opendnp314FunctorVisitorINS_7IndexedINS_12Group122Var1EEEZNKS_21TransformedCollectionIS3_NS1_INS_12SecurityStatEEEZNS_18MeasurementHandler25LoadValuesWithTransformToIS5_S2_EENS_8IINFieldERKNS_12HeaderRecordERKNS_11ICollectionINS1_IT0_EEEEEUlRKS3_E_E7ForeachERNS_8IVisitorIS6_EEEUlSK_E_E7OnValueESK_
	.type	_ZN8opendnp314FunctorVisitorINS_7IndexedINS_12Group122Var1EEEZNKS_21TransformedCollectionIS3_NS1_INS_12SecurityStatEEEZNS_18MeasurementHandler25LoadValuesWithTransformToIS5_S2_EENS_8IINFieldERKNS_12HeaderRecordERKNS_11ICollectionINS1_IT0_EEEEEUlRKS3_E_E7ForeachERNS_8IVisitorIS6_EEEUlSK_E_E7OnValueESK_, @function
_ZN8opendnp314FunctorVisitorINS_7IndexedINS_12Group122Var1EEEZNKS_21TransformedCollectionIS3_NS1_INS_12SecurityStatEEEZNS_18MeasurementHandler25LoadValuesWithTransformToIS5_S2_EENS_8IINFieldERKNS_12HeaderRecordERKNS_11ICollectionINS1_IT0_EEEEEUlRKS3_E_E7ForeachERNS_8IVisitorIS6_EEEUlSK_E_E7OnValueESK_:
.LFB3230:
	.cfi_startproc
	pushq	%r12
	.cfi_def_cfa_offset 16
	.cfi_offset 12, -16
	pushq	%rbp
	.cfi_def_cfa_offset 24
	.cfi_offset 6, -24
	pushq	%rbx
	.cfi_def_cfa_offset 32
	.cfi_offset 3, -32
	subq	$80, %rsp
	.cfi_def_cfa_offset 112
	movq	16(%rdi), %rbx
	movzwl	8(%rsi), %r12d
	movq	%fs:40, %rax
	movq	%rax, 72(%rsp)
	xorl	%eax, %eax
	movq	%rsp, %rdi
	movq	(%rbx), %rax
	movq	(%rax), %rbp
	call	_ZN8opendnp318MeasurementHandler7ConvertERKNS_12Group122Var1E@PLT
	movq	16(%rsp), %rax
	movw	%r12w, 56(%rsp)
	leaq	32(%rsp), %rsi
	movdqa	(%rsp), %xmm0
	movq	%rbx, %rdi
	movq	%rax, 48(%rsp)
	movaps	%xmm0, 32(%rsp)
	call	*%rbp
	movq	72(%rsp), %rax
	xorq	%fs:40, %rax
	jne	.L288
	addq	$80, %rsp
	.cfi_remember_state
	.cfi_def_cfa_offset 32
	popq	%rbx
	.cfi_def_cfa_offset 24
	popq	%rbp
	.cfi_def_cfa_offset 16
	popq	%r12
	.cfi_def_cfa_offset 8
	ret
.L288:
	.cfi_restore_state
	call	__stack_chk_fail@PLT
	.cfi_endproc
.LFE3230:
	.size	_ZN8opendnp314FunctorVisitorINS_7IndexedINS_12Group122Var1EEEZNKS_21TransformedCollectionIS3_NS1_INS_12SecurityStatEEEZNS_18MeasurementHandler25LoadValuesWithTransformToIS5_S2_EENS_8IINFieldERKNS_12HeaderRecordERKNS_11ICollectionINS1_IT0_EEEEEUlRKS3_E_E7ForeachERNS_8IVisitorIS6_EEEUlSK_E_E7OnValueESK_, .-_ZN8opendnp314FunctorVisitorINS_7IndexedINS_12Group122Var1EEEZNKS_21TransformedCollectionIS3_NS1_INS_12SecurityStatEEEZNS_18MeasurementHandler25LoadValuesWithTransformToIS5_S2_EENS_8IINFieldERKNS_12HeaderRecordERKNS_11ICollectionINS1_IT0_EEEEEUlRKS3_E_E7ForeachERNS_8IVisitorIS6_EEEUlSK_E_E7OnValueESK_
	.text
	.align 2
	.p2align 4,,15
	.globl	_ZN8opendnp318MeasurementHandler7ConvertERKNS_12Group122Var2E
	.type	_ZN8opendnp318MeasurementHandler7ConvertERKNS_12Group122Var2E, @function
_ZN8opendnp318MeasurementHandler7ConvertERKNS_12Group122Var2E:
.LFB2368:
	.cfi_startproc
	pushq	%rbx
	.cfi_def_cfa_offset 16
	.cfi_offset 3, -16
	movq	%rdi, %rbx
	movl	4(%rsi), %ecx
	movq	%rsi, %rdi
	movzwl	2(%rsi), %edx
	movzbl	(%rsi), %esi
	movq	8(%rdi), %r8
	movq	%rbx, %rdi
	call	_ZN8opendnp312SecurityStatC1EhtjN7openpal10UInt48TypeE@PLT
	movq	%rbx, %rax
	popq	%rbx
	.cfi_def_cfa_offset 8
	ret
	.cfi_endproc
.LFE2368:
	.size	_ZN8opendnp318MeasurementHandler7ConvertERKNS_12Group122Var2E, .-_ZN8opendnp318MeasurementHandler7ConvertERKNS_12Group122Var2E
	.section	.text._ZN8opendnp314FunctorVisitorINS_7IndexedINS_12Group122Var2EEEZNKS_21TransformedCollectionIS3_NS1_INS_12SecurityStatEEEZNS_18MeasurementHandler25LoadValuesWithTransformToIS5_S2_EENS_8IINFieldERKNS_12HeaderRecordERKNS_11ICollectionINS1_IT0_EEEEEUlRKS3_E_E7ForeachERNS_8IVisitorIS6_EEEUlSK_E_E7OnValueESK_,"axG",@progbits,_ZN8opendnp314FunctorVisitorINS_7IndexedINS_12Group122Var2EEEZNKS_21TransformedCollectionIS3_NS1_INS_12SecurityStatEEEZNS_18MeasurementHandler25LoadValuesWithTransformToIS5_S2_EENS_8IINFieldERKNS_12HeaderRecordERKNS_11ICollectionINS1_IT0_EEEEEUlRKS3_E_E7ForeachERNS_8IVisitorIS6_EEEUlSK_E_E7OnValueESK_,comdat
	.align 2
	.p2align 4,,15
	.weak	_ZN8opendnp314FunctorVisitorINS_7IndexedINS_12Group122Var2EEEZNKS_21TransformedCollectionIS3_NS1_INS_12SecurityStatEEEZNS_18MeasurementHandler25LoadValuesWithTransformToIS5_S2_EENS_8IINFieldERKNS_12HeaderRecordERKNS_11ICollectionINS1_IT0_EEEEEUlRKS3_E_E7ForeachERNS_8IVisitorIS6_EEEUlSK_E_E7OnValueESK_
	.type	_ZN8opendnp314FunctorVisitorINS_7IndexedINS_12Group122Var2EEEZNKS_21TransformedCollectionIS3_NS1_INS_12SecurityStatEEEZNS_18MeasurementHandler25LoadValuesWithTransformToIS5_S2_EENS_8IINFieldERKNS_12HeaderRecordERKNS_11ICollectionINS1_IT0_EEEEEUlRKS3_E_E7ForeachERNS_8IVisitorIS6_EEEUlSK_E_E7OnValueESK_, @function
_ZN8opendnp314FunctorVisitorINS_7IndexedINS_12Group122Var2EEEZNKS_21TransformedCollectionIS3_NS1_INS_12SecurityStatEEEZNS_18MeasurementHandler25LoadValuesWithTransformToIS5_S2_EENS_8IINFieldERKNS_12HeaderRecordERKNS_11ICollectionINS1_IT0_EEEEEUlRKS3_E_E7ForeachERNS_8IVisitorIS6_EEEUlSK_E_E7OnValueESK_:
.LFB3231:
	.cfi_startproc
	pushq	%r12
	.cfi_def_cfa_offset 16
	.cfi_offset 12, -16
	pushq	%rbp
	.cfi_def_cfa_offset 24
	.cfi_offset 6, -24
	pushq	%rbx
	.cfi_def_cfa_offset 32
	.cfi_offset 3, -32
	subq	$80, %rsp
	.cfi_def_cfa_offset 112
	movq	16(%rdi), %rbx
	movzwl	16(%rsi), %r12d
	movq	%fs:40, %rax
	movq	%rax, 72(%rsp)
	xorl	%eax, %eax
	movq	%rsp, %rdi
	movq	(%rbx), %rax
	movq	(%rax), %rbp
	call	_ZN8opendnp318MeasurementHandler7ConvertERKNS_12Group122Var2E@PLT
	movq	16(%rsp), %rax
	movw	%r12w, 56(%rsp)
	leaq	32(%rsp), %rsi
	movdqa	(%rsp), %xmm0
	movq	%rbx, %rdi
	movq	%rax, 48(%rsp)
	movaps	%xmm0, 32(%rsp)
	call	*%rbp
	movq	72(%rsp), %rax
	xorq	%fs:40, %rax
	jne	.L294
	addq	$80, %rsp
	.cfi_remember_state
	.cfi_def_cfa_offset 32
	popq	%rbx
	.cfi_def_cfa_offset 24
	popq	%rbp
	.cfi_def_cfa_offset 16
	popq	%r12
	.cfi_def_cfa_offset 8
	ret
.L294:
	.cfi_restore_state
	call	__stack_chk_fail@PLT
	.cfi_endproc
.LFE3231:
	.size	_ZN8opendnp314FunctorVisitorINS_7IndexedINS_12Group122Var2EEEZNKS_21TransformedCollectionIS3_NS1_INS_12SecurityStatEEEZNS_18MeasurementHandler25LoadValuesWithTransformToIS5_S2_EENS_8IINFieldERKNS_12HeaderRecordERKNS_11ICollectionINS1_IT0_EEEEEUlRKS3_E_E7ForeachERNS_8IVisitorIS6_EEEUlSK_E_E7OnValueESK_, .-_ZN8opendnp314FunctorVisitorINS_7IndexedINS_12Group122Var2EEEZNKS_21TransformedCollectionIS3_NS1_INS_12SecurityStatEEEZNS_18MeasurementHandler25LoadValuesWithTransformToIS5_S2_EENS_8IINFieldERKNS_12HeaderRecordERKNS_11ICollectionINS1_IT0_EEEEEUlRKS3_E_E7ForeachERNS_8IVisitorIS6_EEEUlSK_E_E7OnValueESK_
	.weak	_ZTSN8opendnp38IVisitorINS_7IndexedINS_15DoubleBitBinaryEEEEE
	.section	.rodata._ZTSN8opendnp38IVisitorINS_7IndexedINS_15DoubleBitBinaryEEEEE,"aG",@progbits,_ZTSN8opendnp38IVisitorINS_7IndexedINS_15DoubleBitBinaryEEEEE,comdat
	.align 32
	.type	_ZTSN8opendnp38IVisitorINS_7IndexedINS_15DoubleBitBinaryEEEEE, @object
	.size	_ZTSN8opendnp38IVisitorINS_7IndexedINS_15DoubleBitBinaryEEEEE, 58
_ZTSN8opendnp38IVisitorINS_7IndexedINS_15DoubleBitBinaryEEEEE:
	.string	"N8opendnp38IVisitorINS_7IndexedINS_15DoubleBitBinaryEEEEE"
	.weak	_ZTIN8opendnp38IVisitorINS_7IndexedINS_15DoubleBitBinaryEEEEE
	.section	.data.rel.ro._ZTIN8opendnp38IVisitorINS_7IndexedINS_15DoubleBitBinaryEEEEE,"awG",@progbits,_ZTIN8opendnp38IVisitorINS_7IndexedINS_15DoubleBitBinaryEEEEE,comdat
	.align 8
	.type	_ZTIN8opendnp38IVisitorINS_7IndexedINS_15DoubleBitBinaryEEEEE, @object
	.size	_ZTIN8opendnp38IVisitorINS_7IndexedINS_15DoubleBitBinaryEEEEE, 16
_ZTIN8opendnp38IVisitorINS_7IndexedINS_15DoubleBitBinaryEEEEE:
	.quad	_ZTVN10__cxxabiv117__class_type_infoE+16
	.quad	_ZTSN8opendnp38IVisitorINS_7IndexedINS_15DoubleBitBinaryEEEEE
	.weak	_ZTSN8opendnp38IVisitorINS_7IndexedINS_6BinaryEEEEE
	.section	.rodata._ZTSN8opendnp38IVisitorINS_7IndexedINS_6BinaryEEEEE,"aG",@progbits,_ZTSN8opendnp38IVisitorINS_7IndexedINS_6BinaryEEEEE,comdat
	.align 32
	.type	_ZTSN8opendnp38IVisitorINS_7IndexedINS_6BinaryEEEEE, @object
	.size	_ZTSN8opendnp38IVisitorINS_7IndexedINS_6BinaryEEEEE, 48
_ZTSN8opendnp38IVisitorINS_7IndexedINS_6BinaryEEEEE:
	.string	"N8opendnp38IVisitorINS_7IndexedINS_6BinaryEEEEE"
	.weak	_ZTIN8opendnp38IVisitorINS_7IndexedINS_6BinaryEEEEE
	.section	.data.rel.ro._ZTIN8opendnp38IVisitorINS_7IndexedINS_6BinaryEEEEE,"awG",@progbits,_ZTIN8opendnp38IVisitorINS_7IndexedINS_6BinaryEEEEE,comdat
	.align 8
	.type	_ZTIN8opendnp38IVisitorINS_7IndexedINS_6BinaryEEEEE, @object
	.size	_ZTIN8opendnp38IVisitorINS_7IndexedINS_6BinaryEEEEE, 16
_ZTIN8opendnp38IVisitorINS_7IndexedINS_6BinaryEEEEE:
	.quad	_ZTVN10__cxxabiv117__class_type_infoE+16
	.quad	_ZTSN8opendnp38IVisitorINS_7IndexedINS_6BinaryEEEEE
	.weak	_ZTSN8opendnp38IVisitorINS_7IndexedINS_12Group122Var2EEEEE
	.section	.rodata._ZTSN8opendnp38IVisitorINS_7IndexedINS_12Group122Var2EEEEE,"aG",@progbits,_ZTSN8opendnp38IVisitorINS_7IndexedINS_12Group122Var2EEEEE,comdat
	.align 32
	.type	_ZTSN8opendnp38IVisitorINS_7IndexedINS_12Group122Var2EEEEE, @object
	.size	_ZTSN8opendnp38IVisitorINS_7IndexedINS_12Group122Var2EEEEE, 55
_ZTSN8opendnp38IVisitorINS_7IndexedINS_12Group122Var2EEEEE:
	.string	"N8opendnp38IVisitorINS_7IndexedINS_12Group122Var2EEEEE"
	.weak	_ZTIN8opendnp38IVisitorINS_7IndexedINS_12Group122Var2EEEEE
	.section	.data.rel.ro._ZTIN8opendnp38IVisitorINS_7IndexedINS_12Group122Var2EEEEE,"awG",@progbits,_ZTIN8opendnp38IVisitorINS_7IndexedINS_12Group122Var2EEEEE,comdat
	.align 8
	.type	_ZTIN8opendnp38IVisitorINS_7IndexedINS_12Group122Var2EEEEE, @object
	.size	_ZTIN8opendnp38IVisitorINS_7IndexedINS_12Group122Var2EEEEE, 16
_ZTIN8opendnp38IVisitorINS_7IndexedINS_12Group122Var2EEEEE:
	.quad	_ZTVN10__cxxabiv117__class_type_infoE+16
	.quad	_ZTSN8opendnp38IVisitorINS_7IndexedINS_12Group122Var2EEEEE
	.weak	_ZTSN8opendnp314FunctorVisitorINS_7IndexedINS_12Group122Var2EEEZNKS_21TransformedCollectionIS3_NS1_INS_12SecurityStatEEEZNS_18MeasurementHandler25LoadValuesWithTransformToIS5_S2_EENS_8IINFieldERKNS_12HeaderRecordERKNS_11ICollectionINS1_IT0_EEEEEUlRKS3_E_E7ForeachERNS_8IVisitorIS6_EEEUlSK_E_EE
	.section	.rodata._ZTSN8opendnp314FunctorVisitorINS_7IndexedINS_12Group122Var2EEEZNKS_21TransformedCollectionIS3_NS1_INS_12SecurityStatEEEZNS_18MeasurementHandler25LoadValuesWithTransformToIS5_S2_EENS_8IINFieldERKNS_12HeaderRecordERKNS_11ICollectionINS1_IT0_EEEEEUlRKS3_E_E7ForeachERNS_8IVisitorIS6_EEEUlSK_E_EE,"aG",@progbits,_ZTSN8opendnp314FunctorVisitorINS_7IndexedINS_12Group122Var2EEEZNKS_21TransformedCollectionIS3_NS1_INS_12SecurityStatEEEZNS_18MeasurementHandler25LoadValuesWithTransformToIS5_S2_EENS_8IINFieldERKNS_12HeaderRecordERKNS_11ICollectionINS1_IT0_EEEEEUlRKS3_E_E7ForeachERNS_8IVisitorIS6_EEEUlSK_E_EE,comdat
	.align 32
	.type	_ZTSN8opendnp314FunctorVisitorINS_7IndexedINS_12Group122Var2EEEZNKS_21TransformedCollectionIS3_NS1_INS_12SecurityStatEEEZNS_18MeasurementHandler25LoadValuesWithTransformToIS5_S2_EENS_8IINFieldERKNS_12HeaderRecordERKNS_11ICollectionINS1_IT0_EEEEEUlRKS3_E_E7ForeachERNS_8IVisitorIS6_EEEUlSK_E_EE, @object
	.size	_ZTSN8opendnp314FunctorVisitorINS_7IndexedINS_12Group122Var2EEEZNKS_21TransformedCollectionIS3_NS1_INS_12SecurityStatEEEZNS_18MeasurementHandler25LoadValuesWithTransformToIS5_S2_EENS_8IINFieldERKNS_12HeaderRecordERKNS_11ICollectionINS1_IT0_EEEEEUlRKS3_E_E7ForeachERNS_8IVisitorIS6_EEEUlSK_E_EE, 290
_ZTSN8opendnp314FunctorVisitorINS_7IndexedINS_12Group122Var2EEEZNKS_21TransformedCollectionIS3_NS1_INS_12SecurityStatEEEZNS_18MeasurementHandler25LoadValuesWithTransformToIS5_S2_EENS_8IINFieldERKNS_12HeaderRecordERKNS_11ICollectionINS1_IT0_EEEEEUlRKS3_E_E7ForeachERNS_8IVisitorIS6_EEEUlSK_E_EE:
	.ascii	"N8opendnp314FunctorVisitorINS_7In"
	.string	"dexedINS_12Group122Var2EEEZNKS_21TransformedCollectionIS3_NS1_INS_12SecurityStatEEEZNS_18MeasurementHandler25LoadValuesWithTransformToIS5_S2_EENS_8IINFieldERKNS_12HeaderRecordERKNS_11ICollectionINS1_IT0_EEEEEUlRKS3_E_E7ForeachERNS_8IVisitorIS6_EEEUlSK_E_EE"
	.weak	_ZTIN8opendnp314FunctorVisitorINS_7IndexedINS_12Group122Var2EEEZNKS_21TransformedCollectionIS3_NS1_INS_12SecurityStatEEEZNS_18MeasurementHandler25LoadValuesWithTransformToIS5_S2_EENS_8IINFieldERKNS_12HeaderRecordERKNS_11ICollectionINS1_IT0_EEEEEUlRKS3_E_E7ForeachERNS_8IVisitorIS6_EEEUlSK_E_EE
	.section	.data.rel.ro._ZTIN8opendnp314FunctorVisitorINS_7IndexedINS_12Group122Var2EEEZNKS_21TransformedCollectionIS3_NS1_INS_12SecurityStatEEEZNS_18MeasurementHandler25LoadValuesWithTransformToIS5_S2_EENS_8IINFieldERKNS_12HeaderRecordERKNS_11ICollectionINS1_IT0_EEEEEUlRKS3_E_E7ForeachERNS_8IVisitorIS6_EEEUlSK_E_EE,"awG",@progbits,_ZTIN8opendnp314FunctorVisitorINS_7IndexedINS_12Group122Var2EEEZNKS_21TransformedCollectionIS3_NS1_INS_12SecurityStatEEEZNS_18MeasurementHandler25LoadValuesWithTransformToIS5_S2_EENS_8IINFieldERKNS_12HeaderRecordERKNS_11ICollectionINS1_IT0_EEEEEUlRKS3_E_E7ForeachERNS_8IVisitorIS6_EEEUlSK_E_EE,comdat
	.align 8
	.type	_ZTIN8opendnp314FunctorVisitorINS_7IndexedINS_12Group122Var2EEEZNKS_21TransformedCollectionIS3_NS1_INS_12SecurityStatEEEZNS_18MeasurementHandler25LoadValuesWithTransformToIS5_S2_EENS_8IINFieldERKNS_12HeaderRecordERKNS_11ICollectionINS1_IT0_EEEEEUlRKS3_E_E7ForeachERNS_8IVisitorIS6_EEEUlSK_E_EE, @object
	.size	_ZTIN8opendnp314FunctorVisitorINS_7IndexedINS_12Group122Var2EEEZNKS_21TransformedCollectionIS3_NS1_INS_12SecurityStatEEEZNS_18MeasurementHandler25LoadValuesWithTransformToIS5_S2_EENS_8IINFieldERKNS_12HeaderRecordERKNS_11ICollectionINS1_IT0_EEEEEUlRKS3_E_E7ForeachERNS_8IVisitorIS6_EEEUlSK_E_EE, 24
_ZTIN8opendnp314FunctorVisitorINS_7IndexedINS_12Group122Var2EEEZNKS_21TransformedCollectionIS3_NS1_INS_12SecurityStatEEEZNS_18MeasurementHandler25LoadValuesWithTransformToIS5_S2_EENS_8IINFieldERKNS_12HeaderRecordERKNS_11ICollectionINS1_IT0_EEEEEUlRKS3_E_E7ForeachERNS_8IVisitorIS6_EEEUlSK_E_EE:
	.quad	_ZTVN10__cxxabiv120__si_class_type_infoE+16
	.quad	_ZTSN8opendnp314FunctorVisitorINS_7IndexedINS_12Group122Var2EEEZNKS_21TransformedCollectionIS3_NS1_INS_12SecurityStatEEEZNS_18MeasurementHandler25LoadValuesWithTransformToIS5_S2_EENS_8IINFieldERKNS_12HeaderRecordERKNS_11ICollectionINS1_IT0_EEEEEUlRKS3_E_E7ForeachERNS_8IVisitorIS6_EEEUlSK_E_EE
	.quad	_ZTIN8opendnp38IVisitorINS_7IndexedINS_12Group122Var2EEEEE
	.weak	_ZTSN8opendnp38IVisitorINS_7IndexedINS_12Group122Var1EEEEE
	.section	.rodata._ZTSN8opendnp38IVisitorINS_7IndexedINS_12Group122Var1EEEEE,"aG",@progbits,_ZTSN8opendnp38IVisitorINS_7IndexedINS_12Group122Var1EEEEE,comdat
	.align 32
	.type	_ZTSN8opendnp38IVisitorINS_7IndexedINS_12Group122Var1EEEEE, @object
	.size	_ZTSN8opendnp38IVisitorINS_7IndexedINS_12Group122Var1EEEEE, 55
_ZTSN8opendnp38IVisitorINS_7IndexedINS_12Group122Var1EEEEE:
	.string	"N8opendnp38IVisitorINS_7IndexedINS_12Group122Var1EEEEE"
	.weak	_ZTIN8opendnp38IVisitorINS_7IndexedINS_12Group122Var1EEEEE
	.section	.data.rel.ro._ZTIN8opendnp38IVisitorINS_7IndexedINS_12Group122Var1EEEEE,"awG",@progbits,_ZTIN8opendnp38IVisitorINS_7IndexedINS_12Group122Var1EEEEE,comdat
	.align 8
	.type	_ZTIN8opendnp38IVisitorINS_7IndexedINS_12Group122Var1EEEEE, @object
	.size	_ZTIN8opendnp38IVisitorINS_7IndexedINS_12Group122Var1EEEEE, 16
_ZTIN8opendnp38IVisitorINS_7IndexedINS_12Group122Var1EEEEE:
	.quad	_ZTVN10__cxxabiv117__class_type_infoE+16
	.quad	_ZTSN8opendnp38IVisitorINS_7IndexedINS_12Group122Var1EEEEE
	.weak	_ZTSN8opendnp314FunctorVisitorINS_7IndexedINS_12Group122Var1EEEZNKS_21TransformedCollectionIS3_NS1_INS_12SecurityStatEEEZNS_18MeasurementHandler25LoadValuesWithTransformToIS5_S2_EENS_8IINFieldERKNS_12HeaderRecordERKNS_11ICollectionINS1_IT0_EEEEEUlRKS3_E_E7ForeachERNS_8IVisitorIS6_EEEUlSK_E_EE
	.section	.rodata._ZTSN8opendnp314FunctorVisitorINS_7IndexedINS_12Group122Var1EEEZNKS_21TransformedCollectionIS3_NS1_INS_12SecurityStatEEEZNS_18MeasurementHandler25LoadValuesWithTransformToIS5_S2_EENS_8IINFieldERKNS_12HeaderRecordERKNS_11ICollectionINS1_IT0_EEEEEUlRKS3_E_E7ForeachERNS_8IVisitorIS6_EEEUlSK_E_EE,"aG",@progbits,_ZTSN8opendnp314FunctorVisitorINS_7IndexedINS_12Group122Var1EEEZNKS_21TransformedCollectionIS3_NS1_INS_12SecurityStatEEEZNS_18MeasurementHandler25LoadValuesWithTransformToIS5_S2_EENS_8IINFieldERKNS_12HeaderRecordERKNS_11ICollectionINS1_IT0_EEEEEUlRKS3_E_E7ForeachERNS_8IVisitorIS6_EEEUlSK_E_EE,comdat
	.align 32
	.type	_ZTSN8opendnp314FunctorVisitorINS_7IndexedINS_12Group122Var1EEEZNKS_21TransformedCollectionIS3_NS1_INS_12SecurityStatEEEZNS_18MeasurementHandler25LoadValuesWithTransformToIS5_S2_EENS_8IINFieldERKNS_12HeaderRecordERKNS_11ICollectionINS1_IT0_EEEEEUlRKS3_E_E7ForeachERNS_8IVisitorIS6_EEEUlSK_E_EE, @object
	.size	_ZTSN8opendnp314FunctorVisitorINS_7IndexedINS_12Group122Var1EEEZNKS_21TransformedCollectionIS3_NS1_INS_12SecurityStatEEEZNS_18MeasurementHandler25LoadValuesWithTransformToIS5_S2_EENS_8IINFieldERKNS_12HeaderRecordERKNS_11ICollectionINS1_IT0_EEEEEUlRKS3_E_E7ForeachERNS_8IVisitorIS6_EEEUlSK_E_EE, 290
_ZTSN8opendnp314FunctorVisitorINS_7IndexedINS_12Group122Var1EEEZNKS_21TransformedCollectionIS3_NS1_INS_12SecurityStatEEEZNS_18MeasurementHandler25LoadValuesWithTransformToIS5_S2_EENS_8IINFieldERKNS_12HeaderRecordERKNS_11ICollectionINS1_IT0_EEEEEUlRKS3_E_E7ForeachERNS_8IVisitorIS6_EEEUlSK_E_EE:
	.ascii	"N8opendnp314FunctorVisitorINS_7In"
	.string	"dexedINS_12Group122Var1EEEZNKS_21TransformedCollectionIS3_NS1_INS_12SecurityStatEEEZNS_18MeasurementHandler25LoadValuesWithTransformToIS5_S2_EENS_8IINFieldERKNS_12HeaderRecordERKNS_11ICollectionINS1_IT0_EEEEEUlRKS3_E_E7ForeachERNS_8IVisitorIS6_EEEUlSK_E_EE"
	.weak	_ZTIN8opendnp314FunctorVisitorINS_7IndexedINS_12Group122Var1EEEZNKS_21TransformedCollectionIS3_NS1_INS_12SecurityStatEEEZNS_18MeasurementHandler25LoadValuesWithTransformToIS5_S2_EENS_8IINFieldERKNS_12HeaderRecordERKNS_11ICollectionINS1_IT0_EEEEEUlRKS3_E_E7ForeachERNS_8IVisitorIS6_EEEUlSK_E_EE
	.section	.data.rel.ro._ZTIN8opendnp314FunctorVisitorINS_7IndexedINS_12Group122Var1EEEZNKS_21TransformedCollectionIS3_NS1_INS_12SecurityStatEEEZNS_18MeasurementHandler25LoadValuesWithTransformToIS5_S2_EENS_8IINFieldERKNS_12HeaderRecordERKNS_11ICollectionINS1_IT0_EEEEEUlRKS3_E_E7ForeachERNS_8IVisitorIS6_EEEUlSK_E_EE,"awG",@progbits,_ZTIN8opendnp314FunctorVisitorINS_7IndexedINS_12Group122Var1EEEZNKS_21TransformedCollectionIS3_NS1_INS_12SecurityStatEEEZNS_18MeasurementHandler25LoadValuesWithTransformToIS5_S2_EENS_8IINFieldERKNS_12HeaderRecordERKNS_11ICollectionINS1_IT0_EEEEEUlRKS3_E_E7ForeachERNS_8IVisitorIS6_EEEUlSK_E_EE,comdat
	.align 8
	.type	_ZTIN8opendnp314FunctorVisitorINS_7IndexedINS_12Group122Var1EEEZNKS_21TransformedCollectionIS3_NS1_INS_12SecurityStatEEEZNS_18MeasurementHandler25LoadValuesWithTransformToIS5_S2_EENS_8IINFieldERKNS_12HeaderRecordERKNS_11ICollectionINS1_IT0_EEEEEUlRKS3_E_E7ForeachERNS_8IVisitorIS6_EEEUlSK_E_EE, @object
	.size	_ZTIN8opendnp314FunctorVisitorINS_7IndexedINS_12Group122Var1EEEZNKS_21TransformedCollectionIS3_NS1_INS_12SecurityStatEEEZNS_18MeasurementHandler25LoadValuesWithTransformToIS5_S2_EENS_8IINFieldERKNS_12HeaderRecordERKNS_11ICollectionINS1_IT0_EEEEEUlRKS3_E_E7ForeachERNS_8IVisitorIS6_EEEUlSK_E_EE, 24
_ZTIN8opendnp314FunctorVisitorINS_7IndexedINS_12Group122Var1EEEZNKS_21TransformedCollectionIS3_NS1_INS_12SecurityStatEEEZNS_18MeasurementHandler25LoadValuesWithTransformToIS5_S2_EENS_8IINFieldERKNS_12HeaderRecordERKNS_11ICollectionINS1_IT0_EEEEEUlRKS3_E_E7ForeachERNS_8IVisitorIS6_EEEUlSK_E_EE:
	.quad	_ZTVN10__cxxabiv120__si_class_type_infoE+16
	.quad	_ZTSN8opendnp314FunctorVisitorINS_7IndexedINS_12Group122Var1EEEZNKS_21TransformedCollectionIS3_NS1_INS_12SecurityStatEEEZNS_18MeasurementHandler25LoadValuesWithTransformToIS5_S2_EENS_8IINFieldERKNS_12HeaderRecordERKNS_11ICollectionINS1_IT0_EEEEEUlRKS3_E_E7ForeachERNS_8IVisitorIS6_EEEUlSK_E_EE
	.quad	_ZTIN8opendnp38IVisitorINS_7IndexedINS_12Group122Var1EEEEE
	.weak	_ZTSN8opendnp314FunctorVisitorINS_7IndexedINS_15DoubleBitBinaryEEEZNKS_21TransformedCollectionIS3_S3_ZNS_18MeasurementHandler14ProcessWithCTOIS2_EENS_8IINFieldERKNS_12HeaderRecordERKNS_11ICollectionINS1_IT_EEEEEUlRKS3_E_E7ForeachERNS_8IVisitorIS3_EEEUlSI_E_EE
	.section	.rodata._ZTSN8opendnp314FunctorVisitorINS_7IndexedINS_15DoubleBitBinaryEEEZNKS_21TransformedCollectionIS3_S3_ZNS_18MeasurementHandler14ProcessWithCTOIS2_EENS_8IINFieldERKNS_12HeaderRecordERKNS_11ICollectionINS1_IT_EEEEEUlRKS3_E_E7ForeachERNS_8IVisitorIS3_EEEUlSI_E_EE,"aG",@progbits,_ZTSN8opendnp314FunctorVisitorINS_7IndexedINS_15DoubleBitBinaryEEEZNKS_21TransformedCollectionIS3_S3_ZNS_18MeasurementHandler14ProcessWithCTOIS2_EENS_8IINFieldERKNS_12HeaderRecordERKNS_11ICollectionINS1_IT_EEEEEUlRKS3_E_E7ForeachERNS_8IVisitorIS3_EEEUlSI_E_EE,comdat
	.align 32
	.type	_ZTSN8opendnp314FunctorVisitorINS_7IndexedINS_15DoubleBitBinaryEEEZNKS_21TransformedCollectionIS3_S3_ZNS_18MeasurementHandler14ProcessWithCTOIS2_EENS_8IINFieldERKNS_12HeaderRecordERKNS_11ICollectionINS1_IT_EEEEEUlRKS3_E_E7ForeachERNS_8IVisitorIS3_EEEUlSI_E_EE, @object
	.size	_ZTSN8opendnp314FunctorVisitorINS_7IndexedINS_15DoubleBitBinaryEEEZNKS_21TransformedCollectionIS3_S3_ZNS_18MeasurementHandler14ProcessWithCTOIS2_EENS_8IINFieldERKNS_12HeaderRecordERKNS_11ICollectionINS1_IT_EEEEEUlRKS3_E_E7ForeachERNS_8IVisitorIS3_EEEUlSI_E_EE, 256
_ZTSN8opendnp314FunctorVisitorINS_7IndexedINS_15DoubleBitBinaryEEEZNKS_21TransformedCollectionIS3_S3_ZNS_18MeasurementHandler14ProcessWithCTOIS2_EENS_8IINFieldERKNS_12HeaderRecordERKNS_11ICollectionINS1_IT_EEEEEUlRKS3_E_E7ForeachERNS_8IVisitorIS3_EEEUlSI_E_EE:
	.string	"N8opendnp314FunctorVisitorINS_7IndexedINS_15DoubleBitBinaryEEEZNKS_21TransformedCollectionIS3_S3_ZNS_18MeasurementHandler14ProcessWithCTOIS2_EENS_8IINFieldERKNS_12HeaderRecordERKNS_11ICollectionINS1_IT_EEEEEUlRKS3_E_E7ForeachERNS_8IVisitorIS3_EEEUlSI_E_EE"
	.weak	_ZTIN8opendnp314FunctorVisitorINS_7IndexedINS_15DoubleBitBinaryEEEZNKS_21TransformedCollectionIS3_S3_ZNS_18MeasurementHandler14ProcessWithCTOIS2_EENS_8IINFieldERKNS_12HeaderRecordERKNS_11ICollectionINS1_IT_EEEEEUlRKS3_E_E7ForeachERNS_8IVisitorIS3_EEEUlSI_E_EE
	.section	.data.rel.ro._ZTIN8opendnp314FunctorVisitorINS_7IndexedINS_15DoubleBitBinaryEEEZNKS_21TransformedCollectionIS3_S3_ZNS_18MeasurementHandler14ProcessWithCTOIS2_EENS_8IINFieldERKNS_12HeaderRecordERKNS_11ICollectionINS1_IT_EEEEEUlRKS3_E_E7ForeachERNS_8IVisitorIS3_EEEUlSI_E_EE,"awG",@progbits,_ZTIN8opendnp314FunctorVisitorINS_7IndexedINS_15DoubleBitBinaryEEEZNKS_21TransformedCollectionIS3_S3_ZNS_18MeasurementHandler14ProcessWithCTOIS2_EENS_8IINFieldERKNS_12HeaderRecordERKNS_11ICollectionINS1_IT_EEEEEUlRKS3_E_E7ForeachERNS_8IVisitorIS3_EEEUlSI_E_EE,comdat
	.align 8
	.type	_ZTIN8opendnp314FunctorVisitorINS_7IndexedINS_15DoubleBitBinaryEEEZNKS_21TransformedCollectionIS3_S3_ZNS_18MeasurementHandler14ProcessWithCTOIS2_EENS_8IINFieldERKNS_12HeaderRecordERKNS_11ICollectionINS1_IT_EEEEEUlRKS3_E_E7ForeachERNS_8IVisitorIS3_EEEUlSI_E_EE, @object
	.size	_ZTIN8opendnp314FunctorVisitorINS_7IndexedINS_15DoubleBitBinaryEEEZNKS_21TransformedCollectionIS3_S3_ZNS_18MeasurementHandler14ProcessWithCTOIS2_EENS_8IINFieldERKNS_12HeaderRecordERKNS_11ICollectionINS1_IT_EEEEEUlRKS3_E_E7ForeachERNS_8IVisitorIS3_EEEUlSI_E_EE, 24
_ZTIN8opendnp314FunctorVisitorINS_7IndexedINS_15DoubleBitBinaryEEEZNKS_21TransformedCollectionIS3_S3_ZNS_18MeasurementHandler14ProcessWithCTOIS2_EENS_8IINFieldERKNS_12HeaderRecordERKNS_11ICollectionINS1_IT_EEEEEUlRKS3_E_E7ForeachERNS_8IVisitorIS3_EEEUlSI_E_EE:
	.quad	_ZTVN10__cxxabiv120__si_class_type_infoE+16
	.quad	_ZTSN8opendnp314FunctorVisitorINS_7IndexedINS_15DoubleBitBinaryEEEZNKS_21TransformedCollectionIS3_S3_ZNS_18MeasurementHandler14ProcessWithCTOIS2_EENS_8IINFieldERKNS_12HeaderRecordERKNS_11ICollectionINS1_IT_EEEEEUlRKS3_E_E7ForeachERNS_8IVisitorIS3_EEEUlSI_E_EE
	.quad	_ZTIN8opendnp38IVisitorINS_7IndexedINS_15DoubleBitBinaryEEEEE
	.weak	_ZTSN8opendnp314FunctorVisitorINS_7IndexedINS_6BinaryEEEZNKS_21TransformedCollectionIS3_S3_ZNS_18MeasurementHandler14ProcessWithCTOIS2_EENS_8IINFieldERKNS_12HeaderRecordERKNS_11ICollectionINS1_IT_EEEEEUlRKS3_E_E7ForeachERNS_8IVisitorIS3_EEEUlSI_E_EE
	.section	.rodata._ZTSN8opendnp314FunctorVisitorINS_7IndexedINS_6BinaryEEEZNKS_21TransformedCollectionIS3_S3_ZNS_18MeasurementHandler14ProcessWithCTOIS2_EENS_8IINFieldERKNS_12HeaderRecordERKNS_11ICollectionINS1_IT_EEEEEUlRKS3_E_E7ForeachERNS_8IVisitorIS3_EEEUlSI_E_EE,"aG",@progbits,_ZTSN8opendnp314FunctorVisitorINS_7IndexedINS_6BinaryEEEZNKS_21TransformedCollectionIS3_S3_ZNS_18MeasurementHandler14ProcessWithCTOIS2_EENS_8IINFieldERKNS_12HeaderRecordERKNS_11ICollectionINS1_IT_EEEEEUlRKS3_E_E7ForeachERNS_8IVisitorIS3_EEEUlSI_E_EE,comdat
	.align 32
	.type	_ZTSN8opendnp314FunctorVisitorINS_7IndexedINS_6BinaryEEEZNKS_21TransformedCollectionIS3_S3_ZNS_18MeasurementHandler14ProcessWithCTOIS2_EENS_8IINFieldERKNS_12HeaderRecordERKNS_11ICollectionINS1_IT_EEEEEUlRKS3_E_E7ForeachERNS_8IVisitorIS3_EEEUlSI_E_EE, @object
	.size	_ZTSN8opendnp314FunctorVisitorINS_7IndexedINS_6BinaryEEEZNKS_21TransformedCollectionIS3_S3_ZNS_18MeasurementHandler14ProcessWithCTOIS2_EENS_8IINFieldERKNS_12HeaderRecordERKNS_11ICollectionINS1_IT_EEEEEUlRKS3_E_E7ForeachERNS_8IVisitorIS3_EEEUlSI_E_EE, 246
_ZTSN8opendnp314FunctorVisitorINS_7IndexedINS_6BinaryEEEZNKS_21TransformedCollectionIS3_S3_ZNS_18MeasurementHandler14ProcessWithCTOIS2_EENS_8IINFieldERKNS_12HeaderRecordERKNS_11ICollectionINS1_IT_EEEEEUlRKS3_E_E7ForeachERNS_8IVisitorIS3_EEEUlSI_E_EE:
	.string	"N8opendnp314FunctorVisitorINS_7IndexedINS_6BinaryEEEZNKS_21TransformedCollectionIS3_S3_ZNS_18MeasurementHandler14ProcessWithCTOIS2_EENS_8IINFieldERKNS_12HeaderRecordERKNS_11ICollectionINS1_IT_EEEEEUlRKS3_E_E7ForeachERNS_8IVisitorIS3_EEEUlSI_E_EE"
	.weak	_ZTIN8opendnp314FunctorVisitorINS_7IndexedINS_6BinaryEEEZNKS_21TransformedCollectionIS3_S3_ZNS_18MeasurementHandler14ProcessWithCTOIS2_EENS_8IINFieldERKNS_12HeaderRecordERKNS_11ICollectionINS1_IT_EEEEEUlRKS3_E_E7ForeachERNS_8IVisitorIS3_EEEUlSI_E_EE
	.section	.data.rel.ro._ZTIN8opendnp314FunctorVisitorINS_7IndexedINS_6BinaryEEEZNKS_21TransformedCollectionIS3_S3_ZNS_18MeasurementHandler14ProcessWithCTOIS2_EENS_8IINFieldERKNS_12HeaderRecordERKNS_11ICollectionINS1_IT_EEEEEUlRKS3_E_E7ForeachERNS_8IVisitorIS3_EEEUlSI_E_EE,"awG",@progbits,_ZTIN8opendnp314FunctorVisitorINS_7IndexedINS_6BinaryEEEZNKS_21TransformedCollectionIS3_S3_ZNS_18MeasurementHandler14ProcessWithCTOIS2_EENS_8IINFieldERKNS_12HeaderRecordERKNS_11ICollectionINS1_IT_EEEEEUlRKS3_E_E7ForeachERNS_8IVisitorIS3_EEEUlSI_E_EE,comdat
	.align 8
	.type	_ZTIN8opendnp314FunctorVisitorINS_7IndexedINS_6BinaryEEEZNKS_21TransformedCollectionIS3_S3_ZNS_18MeasurementHandler14ProcessWithCTOIS2_EENS_8IINFieldERKNS_12HeaderRecordERKNS_11ICollectionINS1_IT_EEEEEUlRKS3_E_E7ForeachERNS_8IVisitorIS3_EEEUlSI_E_EE, @object
	.size	_ZTIN8opendnp314FunctorVisitorINS_7IndexedINS_6BinaryEEEZNKS_21TransformedCollectionIS3_S3_ZNS_18MeasurementHandler14ProcessWithCTOIS2_EENS_8IINFieldERKNS_12HeaderRecordERKNS_11ICollectionINS1_IT_EEEEEUlRKS3_E_E7ForeachERNS_8IVisitorIS3_EEEUlSI_E_EE, 24
_ZTIN8opendnp314FunctorVisitorINS_7IndexedINS_6BinaryEEEZNKS_21TransformedCollectionIS3_S3_ZNS_18MeasurementHandler14ProcessWithCTOIS2_EENS_8IINFieldERKNS_12HeaderRecordERKNS_11ICollectionINS1_IT_EEEEEUlRKS3_E_E7ForeachERNS_8IVisitorIS3_EEEUlSI_E_EE:
	.quad	_ZTVN10__cxxabiv120__si_class_type_infoE+16
	.quad	_ZTSN8opendnp314FunctorVisitorINS_7IndexedINS_6BinaryEEEZNKS_21TransformedCollectionIS3_S3_ZNS_18MeasurementHandler14ProcessWithCTOIS2_EENS_8IINFieldERKNS_12HeaderRecordERKNS_11ICollectionINS1_IT_EEEEEUlRKS3_E_E7ForeachERNS_8IVisitorIS3_EEEUlSI_E_EE
	.quad	_ZTIN8opendnp38IVisitorINS_7IndexedINS_6BinaryEEEEE
	.weak	_ZTSN8opendnp38IVisitorINS_7IndexedINS_12Group121Var1EEEEE
	.section	.rodata._ZTSN8opendnp38IVisitorINS_7IndexedINS_12Group121Var1EEEEE,"aG",@progbits,_ZTSN8opendnp38IVisitorINS_7IndexedINS_12Group121Var1EEEEE,comdat
	.align 32
	.type	_ZTSN8opendnp38IVisitorINS_7IndexedINS_12Group121Var1EEEEE, @object
	.size	_ZTSN8opendnp38IVisitorINS_7IndexedINS_12Group121Var1EEEEE, 55
_ZTSN8opendnp38IVisitorINS_7IndexedINS_12Group121Var1EEEEE:
	.string	"N8opendnp38IVisitorINS_7IndexedINS_12Group121Var1EEEEE"
	.weak	_ZTIN8opendnp38IVisitorINS_7IndexedINS_12Group121Var1EEEEE
	.section	.data.rel.ro._ZTIN8opendnp38IVisitorINS_7IndexedINS_12Group121Var1EEEEE,"awG",@progbits,_ZTIN8opendnp38IVisitorINS_7IndexedINS_12Group121Var1EEEEE,comdat
	.align 8
	.type	_ZTIN8opendnp38IVisitorINS_7IndexedINS_12Group121Var1EEEEE, @object
	.size	_ZTIN8opendnp38IVisitorINS_7IndexedINS_12Group121Var1EEEEE, 16
_ZTIN8opendnp38IVisitorINS_7IndexedINS_12Group121Var1EEEEE:
	.quad	_ZTVN10__cxxabiv117__class_type_infoE+16
	.quad	_ZTSN8opendnp38IVisitorINS_7IndexedINS_12Group121Var1EEEEE
	.weak	_ZTSN8opendnp314FunctorVisitorINS_7IndexedINS_12Group121Var1EEEZNKS_21TransformedCollectionIS3_NS1_INS_12SecurityStatEEEZNS_18MeasurementHandler25LoadValuesWithTransformToIS5_S2_EENS_8IINFieldERKNS_12HeaderRecordERKNS_11ICollectionINS1_IT0_EEEEEUlRKS3_E_E7ForeachERNS_8IVisitorIS6_EEEUlSK_E_EE
	.section	.rodata._ZTSN8opendnp314FunctorVisitorINS_7IndexedINS_12Group121Var1EEEZNKS_21TransformedCollectionIS3_NS1_INS_12SecurityStatEEEZNS_18MeasurementHandler25LoadValuesWithTransformToIS5_S2_EENS_8IINFieldERKNS_12HeaderRecordERKNS_11ICollectionINS1_IT0_EEEEEUlRKS3_E_E7ForeachERNS_8IVisitorIS6_EEEUlSK_E_EE,"aG",@progbits,_ZTSN8opendnp314FunctorVisitorINS_7IndexedINS_12Group121Var1EEEZNKS_21TransformedCollectionIS3_NS1_INS_12SecurityStatEEEZNS_18MeasurementHandler25LoadValuesWithTransformToIS5_S2_EENS_8IINFieldERKNS_12HeaderRecordERKNS_11ICollectionINS1_IT0_EEEEEUlRKS3_E_E7ForeachERNS_8IVisitorIS6_EEEUlSK_E_EE,comdat
	.align 32
	.type	_ZTSN8opendnp314FunctorVisitorINS_7IndexedINS_12Group121Var1EEEZNKS_21TransformedCollectionIS3_NS1_INS_12SecurityStatEEEZNS_18MeasurementHandler25LoadValuesWithTransformToIS5_S2_EENS_8IINFieldERKNS_12HeaderRecordERKNS_11ICollectionINS1_IT0_EEEEEUlRKS3_E_E7ForeachERNS_8IVisitorIS6_EEEUlSK_E_EE, @object
	.size	_ZTSN8opendnp314FunctorVisitorINS_7IndexedINS_12Group121Var1EEEZNKS_21TransformedCollectionIS3_NS1_INS_12SecurityStatEEEZNS_18MeasurementHandler25LoadValuesWithTransformToIS5_S2_EENS_8IINFieldERKNS_12HeaderRecordERKNS_11ICollectionINS1_IT0_EEEEEUlRKS3_E_E7ForeachERNS_8IVisitorIS6_EEEUlSK_E_EE, 290
_ZTSN8opendnp314FunctorVisitorINS_7IndexedINS_12Group121Var1EEEZNKS_21TransformedCollectionIS3_NS1_INS_12SecurityStatEEEZNS_18MeasurementHandler25LoadValuesWithTransformToIS5_S2_EENS_8IINFieldERKNS_12HeaderRecordERKNS_11ICollectionINS1_IT0_EEEEEUlRKS3_E_E7ForeachERNS_8IVisitorIS6_EEEUlSK_E_EE:
	.ascii	"N8opendnp314FunctorVisitorINS_7In"
	.string	"dexedINS_12Group121Var1EEEZNKS_21TransformedCollectionIS3_NS1_INS_12SecurityStatEEEZNS_18MeasurementHandler25LoadValuesWithTransformToIS5_S2_EENS_8IINFieldERKNS_12HeaderRecordERKNS_11ICollectionINS1_IT0_EEEEEUlRKS3_E_E7ForeachERNS_8IVisitorIS6_EEEUlSK_E_EE"
	.weak	_ZTIN8opendnp314FunctorVisitorINS_7IndexedINS_12Group121Var1EEEZNKS_21TransformedCollectionIS3_NS1_INS_12SecurityStatEEEZNS_18MeasurementHandler25LoadValuesWithTransformToIS5_S2_EENS_8IINFieldERKNS_12HeaderRecordERKNS_11ICollectionINS1_IT0_EEEEEUlRKS3_E_E7ForeachERNS_8IVisitorIS6_EEEUlSK_E_EE
	.section	.data.rel.ro._ZTIN8opendnp314FunctorVisitorINS_7IndexedINS_12Group121Var1EEEZNKS_21TransformedCollectionIS3_NS1_INS_12SecurityStatEEEZNS_18MeasurementHandler25LoadValuesWithTransformToIS5_S2_EENS_8IINFieldERKNS_12HeaderRecordERKNS_11ICollectionINS1_IT0_EEEEEUlRKS3_E_E7ForeachERNS_8IVisitorIS6_EEEUlSK_E_EE,"awG",@progbits,_ZTIN8opendnp314FunctorVisitorINS_7IndexedINS_12Group121Var1EEEZNKS_21TransformedCollectionIS3_NS1_INS_12SecurityStatEEEZNS_18MeasurementHandler25LoadValuesWithTransformToIS5_S2_EENS_8IINFieldERKNS_12HeaderRecordERKNS_11ICollectionINS1_IT0_EEEEEUlRKS3_E_E7ForeachERNS_8IVisitorIS6_EEEUlSK_E_EE,comdat
	.align 8
	.type	_ZTIN8opendnp314FunctorVisitorINS_7IndexedINS_12Group121Var1EEEZNKS_21TransformedCollectionIS3_NS1_INS_12SecurityStatEEEZNS_18MeasurementHandler25LoadValuesWithTransformToIS5_S2_EENS_8IINFieldERKNS_12HeaderRecordERKNS_11ICollectionINS1_IT0_EEEEEUlRKS3_E_E7ForeachERNS_8IVisitorIS6_EEEUlSK_E_EE, @object
	.size	_ZTIN8opendnp314FunctorVisitorINS_7IndexedINS_12Group121Var1EEEZNKS_21TransformedCollectionIS3_NS1_INS_12SecurityStatEEEZNS_18MeasurementHandler25LoadValuesWithTransformToIS5_S2_EENS_8IINFieldERKNS_12HeaderRecordERKNS_11ICollectionINS1_IT0_EEEEEUlRKS3_E_E7ForeachERNS_8IVisitorIS6_EEEUlSK_E_EE, 24
_ZTIN8opendnp314FunctorVisitorINS_7IndexedINS_12Group121Var1EEEZNKS_21TransformedCollectionIS3_NS1_INS_12SecurityStatEEEZNS_18MeasurementHandler25LoadValuesWithTransformToIS5_S2_EENS_8IINFieldERKNS_12HeaderRecordERKNS_11ICollectionINS1_IT0_EEEEEUlRKS3_E_E7ForeachERNS_8IVisitorIS6_EEEUlSK_E_EE:
	.quad	_ZTVN10__cxxabiv120__si_class_type_infoE+16
	.quad	_ZTSN8opendnp314FunctorVisitorINS_7IndexedINS_12Group121Var1EEEZNKS_21TransformedCollectionIS3_NS1_INS_12SecurityStatEEEZNS_18MeasurementHandler25LoadValuesWithTransformToIS5_S2_EENS_8IINFieldERKNS_12HeaderRecordERKNS_11ICollectionINS1_IT0_EEEEEUlRKS3_E_E7ForeachERNS_8IVisitorIS6_EEEUlSK_E_EE
	.quad	_ZTIN8opendnp38IVisitorINS_7IndexedINS_12Group121Var1EEEEE
	.weak	_ZTSN8opendnp38IVisitorINS_11Group50Var1EEE
	.section	.rodata._ZTSN8opendnp38IVisitorINS_11Group50Var1EEE,"aG",@progbits,_ZTSN8opendnp38IVisitorINS_11Group50Var1EEE,comdat
	.align 32
	.type	_ZTSN8opendnp38IVisitorINS_11Group50Var1EEE, @object
	.size	_ZTSN8opendnp38IVisitorINS_11Group50Var1EEE, 40
_ZTSN8opendnp38IVisitorINS_11Group50Var1EEE:
	.string	"N8opendnp38IVisitorINS_11Group50Var1EEE"
	.weak	_ZTIN8opendnp38IVisitorINS_11Group50Var1EEE
	.section	.data.rel.ro._ZTIN8opendnp38IVisitorINS_11Group50Var1EEE,"awG",@progbits,_ZTIN8opendnp38IVisitorINS_11Group50Var1EEE,comdat
	.align 8
	.type	_ZTIN8opendnp38IVisitorINS_11Group50Var1EEE, @object
	.size	_ZTIN8opendnp38IVisitorINS_11Group50Var1EEE, 16
_ZTIN8opendnp38IVisitorINS_11Group50Var1EEE:
	.quad	_ZTVN10__cxxabiv117__class_type_infoE+16
	.quad	_ZTSN8opendnp38IVisitorINS_11Group50Var1EEE
	.section	.data.rel.ro,"aw",@progbits
	.align 8
	.type	_ZTIN8opendnp314FunctorVisitorINS_11Group50Var1EZNKS_21TransformedCollectionIS1_N7openpal10UInt48TypeEZNS_18MeasurementHandler13ProcessHeaderERKNS_11CountHeaderERKNS_11ICollectionIS1_EEEUlRKS1_E_E7ForeachERNS_8IVisitorIS4_EEEUlSE_E_EE, @object
	.size	_ZTIN8opendnp314FunctorVisitorINS_11Group50Var1EZNKS_21TransformedCollectionIS1_N7openpal10UInt48TypeEZNS_18MeasurementHandler13ProcessHeaderERKNS_11CountHeaderERKNS_11ICollectionIS1_EEEUlRKS1_E_E7ForeachERNS_8IVisitorIS4_EEEUlSE_E_EE, 24
_ZTIN8opendnp314FunctorVisitorINS_11Group50Var1EZNKS_21TransformedCollectionIS1_N7openpal10UInt48TypeEZNS_18MeasurementHandler13ProcessHeaderERKNS_11CountHeaderERKNS_11ICollectionIS1_EEEUlRKS1_E_E7ForeachERNS_8IVisitorIS4_EEEUlSE_E_EE:
	.quad	_ZTVN10__cxxabiv120__si_class_type_infoE+16
	.quad	_ZTSN8opendnp314FunctorVisitorINS_11Group50Var1EZNKS_21TransformedCollectionIS1_N7openpal10UInt48TypeEZNS_18MeasurementHandler13ProcessHeaderERKNS_11CountHeaderERKNS_11ICollectionIS1_EEEUlRKS1_E_E7ForeachERNS_8IVisitorIS4_EEEUlSE_E_EE
	.quad	_ZTIN8opendnp38IVisitorINS_11Group50Var1EEE
	.section	.rodata
	.align 32
	.type	_ZTSN8opendnp314FunctorVisitorINS_11Group50Var1EZNKS_21TransformedCollectionIS1_N7openpal10UInt48TypeEZNS_18MeasurementHandler13ProcessHeaderERKNS_11CountHeaderERKNS_11ICollectionIS1_EEEUlRKS1_E_E7ForeachERNS_8IVisitorIS4_EEEUlSE_E_EE, @object
	.size	_ZTSN8opendnp314FunctorVisitorINS_11Group50Var1EZNKS_21TransformedCollectionIS1_N7openpal10UInt48TypeEZNS_18MeasurementHandler13ProcessHeaderERKNS_11CountHeaderERKNS_11ICollectionIS1_EEEUlRKS1_E_E7ForeachERNS_8IVisitorIS4_EEEUlSE_E_EE, 232
_ZTSN8opendnp314FunctorVisitorINS_11Group50Var1EZNKS_21TransformedCollectionIS1_N7openpal10UInt48TypeEZNS_18MeasurementHandler13ProcessHeaderERKNS_11CountHeaderERKNS_11ICollectionIS1_EEEUlRKS1_E_E7ForeachERNS_8IVisitorIS4_EEEUlSE_E_EE:
	.string	"*N8opendnp314FunctorVisitorINS_11Group50Var1EZNKS_21TransformedCollectionIS1_N7openpal10UInt48TypeEZNS_18MeasurementHandler13ProcessHeaderERKNS_11CountHeaderERKNS_11ICollectionIS1_EEEUlRKS1_E_E7ForeachERNS_8IVisitorIS4_EEEUlSE_E_EE"
	.weak	_ZTVN8opendnp314FunctorVisitorINS_7IndexedINS_12Group122Var2EEEZNKS_21TransformedCollectionIS3_NS1_INS_12SecurityStatEEEZNS_18MeasurementHandler25LoadValuesWithTransformToIS5_S2_EENS_8IINFieldERKNS_12HeaderRecordERKNS_11ICollectionINS1_IT0_EEEEEUlRKS3_E_E7ForeachERNS_8IVisitorIS6_EEEUlSK_E_EE
	.section	.data.rel.ro._ZTVN8opendnp314FunctorVisitorINS_7IndexedINS_12Group122Var2EEEZNKS_21TransformedCollectionIS3_NS1_INS_12SecurityStatEEEZNS_18MeasurementHandler25LoadValuesWithTransformToIS5_S2_EENS_8IINFieldERKNS_12HeaderRecordERKNS_11ICollectionINS1_IT0_EEEEEUlRKS3_E_E7ForeachERNS_8IVisitorIS6_EEEUlSK_E_EE,"awG",@progbits,_ZTVN8opendnp314FunctorVisitorINS_7IndexedINS_12Group122Var2EEEZNKS_21TransformedCollectionIS3_NS1_INS_12SecurityStatEEEZNS_18MeasurementHandler25LoadValuesWithTransformToIS5_S2_EENS_8IINFieldERKNS_12HeaderRecordERKNS_11ICollectionINS1_IT0_EEEEEUlRKS3_E_E7ForeachERNS_8IVisitorIS6_EEEUlSK_E_EE,comdat
	.align 8
	.type	_ZTVN8opendnp314FunctorVisitorINS_7IndexedINS_12Group122Var2EEEZNKS_21TransformedCollectionIS3_NS1_INS_12SecurityStatEEEZNS_18MeasurementHandler25LoadValuesWithTransformToIS5_S2_EENS_8IINFieldERKNS_12HeaderRecordERKNS_11ICollectionINS1_IT0_EEEEEUlRKS3_E_E7ForeachERNS_8IVisitorIS6_EEEUlSK_E_EE, @object
	.size	_ZTVN8opendnp314FunctorVisitorINS_7IndexedINS_12Group122Var2EEEZNKS_21TransformedCollectionIS3_NS1_INS_12SecurityStatEEEZNS_18MeasurementHandler25LoadValuesWithTransformToIS5_S2_EENS_8IINFieldERKNS_12HeaderRecordERKNS_11ICollectionINS1_IT0_EEEEEUlRKS3_E_E7ForeachERNS_8IVisitorIS6_EEEUlSK_E_EE, 24
_ZTVN8opendnp314FunctorVisitorINS_7IndexedINS_12Group122Var2EEEZNKS_21TransformedCollectionIS3_NS1_INS_12SecurityStatEEEZNS_18MeasurementHandler25LoadValuesWithTransformToIS5_S2_EENS_8IINFieldERKNS_12HeaderRecordERKNS_11ICollectionINS1_IT0_EEEEEUlRKS3_E_E7ForeachERNS_8IVisitorIS6_EEEUlSK_E_EE:
	.quad	0
	.quad	_ZTIN8opendnp314FunctorVisitorINS_7IndexedINS_12Group122Var2EEEZNKS_21TransformedCollectionIS3_NS1_INS_12SecurityStatEEEZNS_18MeasurementHandler25LoadValuesWithTransformToIS5_S2_EENS_8IINFieldERKNS_12HeaderRecordERKNS_11ICollectionINS1_IT0_EEEEEUlRKS3_E_E7ForeachERNS_8IVisitorIS6_EEEUlSK_E_EE
	.quad	_ZN8opendnp314FunctorVisitorINS_7IndexedINS_12Group122Var2EEEZNKS_21TransformedCollectionIS3_NS1_INS_12SecurityStatEEEZNS_18MeasurementHandler25LoadValuesWithTransformToIS5_S2_EENS_8IINFieldERKNS_12HeaderRecordERKNS_11ICollectionINS1_IT0_EEEEEUlRKS3_E_E7ForeachERNS_8IVisitorIS6_EEEUlSK_E_E7OnValueESK_
	.weak	_ZTVN8opendnp314FunctorVisitorINS_7IndexedINS_12Group122Var1EEEZNKS_21TransformedCollectionIS3_NS1_INS_12SecurityStatEEEZNS_18MeasurementHandler25LoadValuesWithTransformToIS5_S2_EENS_8IINFieldERKNS_12HeaderRecordERKNS_11ICollectionINS1_IT0_EEEEEUlRKS3_E_E7ForeachERNS_8IVisitorIS6_EEEUlSK_E_EE
	.section	.data.rel.ro._ZTVN8opendnp314FunctorVisitorINS_7IndexedINS_12Group122Var1EEEZNKS_21TransformedCollectionIS3_NS1_INS_12SecurityStatEEEZNS_18MeasurementHandler25LoadValuesWithTransformToIS5_S2_EENS_8IINFieldERKNS_12HeaderRecordERKNS_11ICollectionINS1_IT0_EEEEEUlRKS3_E_E7ForeachERNS_8IVisitorIS6_EEEUlSK_E_EE,"awG",@progbits,_ZTVN8opendnp314FunctorVisitorINS_7IndexedINS_12Group122Var1EEEZNKS_21TransformedCollectionIS3_NS1_INS_12SecurityStatEEEZNS_18MeasurementHandler25LoadValuesWithTransformToIS5_S2_EENS_8IINFieldERKNS_12HeaderRecordERKNS_11ICollectionINS1_IT0_EEEEEUlRKS3_E_E7ForeachERNS_8IVisitorIS6_EEEUlSK_E_EE,comdat
	.align 8
	.type	_ZTVN8opendnp314FunctorVisitorINS_7IndexedINS_12Group122Var1EEEZNKS_21TransformedCollectionIS3_NS1_INS_12SecurityStatEEEZNS_18MeasurementHandler25LoadValuesWithTransformToIS5_S2_EENS_8IINFieldERKNS_12HeaderRecordERKNS_11ICollectionINS1_IT0_EEEEEUlRKS3_E_E7ForeachERNS_8IVisitorIS6_EEEUlSK_E_EE, @object
	.size	_ZTVN8opendnp314FunctorVisitorINS_7IndexedINS_12Group122Var1EEEZNKS_21TransformedCollectionIS3_NS1_INS_12SecurityStatEEEZNS_18MeasurementHandler25LoadValuesWithTransformToIS5_S2_EENS_8IINFieldERKNS_12HeaderRecordERKNS_11ICollectionINS1_IT0_EEEEEUlRKS3_E_E7ForeachERNS_8IVisitorIS6_EEEUlSK_E_EE, 24
_ZTVN8opendnp314FunctorVisitorINS_7IndexedINS_12Group122Var1EEEZNKS_21TransformedCollectionIS3_NS1_INS_12SecurityStatEEEZNS_18MeasurementHandler25LoadValuesWithTransformToIS5_S2_EENS_8IINFieldERKNS_12HeaderRecordERKNS_11ICollectionINS1_IT0_EEEEEUlRKS3_E_E7ForeachERNS_8IVisitorIS6_EEEUlSK_E_EE:
	.quad	0
	.quad	_ZTIN8opendnp314FunctorVisitorINS_7IndexedINS_12Group122Var1EEEZNKS_21TransformedCollectionIS3_NS1_INS_12SecurityStatEEEZNS_18MeasurementHandler25LoadValuesWithTransformToIS5_S2_EENS_8IINFieldERKNS_12HeaderRecordERKNS_11ICollectionINS1_IT0_EEEEEUlRKS3_E_E7ForeachERNS_8IVisitorIS6_EEEUlSK_E_EE
	.quad	_ZN8opendnp314FunctorVisitorINS_7IndexedINS_12Group122Var1EEEZNKS_21TransformedCollectionIS3_NS1_INS_12SecurityStatEEEZNS_18MeasurementHandler25LoadValuesWithTransformToIS5_S2_EENS_8IINFieldERKNS_12HeaderRecordERKNS_11ICollectionINS1_IT0_EEEEEUlRKS3_E_E7ForeachERNS_8IVisitorIS6_EEEUlSK_E_E7OnValueESK_
	.weak	_ZTVN8opendnp314FunctorVisitorINS_7IndexedINS_15DoubleBitBinaryEEEZNKS_21TransformedCollectionIS3_S3_ZNS_18MeasurementHandler14ProcessWithCTOIS2_EENS_8IINFieldERKNS_12HeaderRecordERKNS_11ICollectionINS1_IT_EEEEEUlRKS3_E_E7ForeachERNS_8IVisitorIS3_EEEUlSI_E_EE
	.section	.data.rel.ro._ZTVN8opendnp314FunctorVisitorINS_7IndexedINS_15DoubleBitBinaryEEEZNKS_21TransformedCollectionIS3_S3_ZNS_18MeasurementHandler14ProcessWithCTOIS2_EENS_8IINFieldERKNS_12HeaderRecordERKNS_11ICollectionINS1_IT_EEEEEUlRKS3_E_E7ForeachERNS_8IVisitorIS3_EEEUlSI_E_EE,"awG",@progbits,_ZTVN8opendnp314FunctorVisitorINS_7IndexedINS_15DoubleBitBinaryEEEZNKS_21TransformedCollectionIS3_S3_ZNS_18MeasurementHandler14ProcessWithCTOIS2_EENS_8IINFieldERKNS_12HeaderRecordERKNS_11ICollectionINS1_IT_EEEEEUlRKS3_E_E7ForeachERNS_8IVisitorIS3_EEEUlSI_E_EE,comdat
	.align 8
	.type	_ZTVN8opendnp314FunctorVisitorINS_7IndexedINS_15DoubleBitBinaryEEEZNKS_21TransformedCollectionIS3_S3_ZNS_18MeasurementHandler14ProcessWithCTOIS2_EENS_8IINFieldERKNS_12HeaderRecordERKNS_11ICollectionINS1_IT_EEEEEUlRKS3_E_E7ForeachERNS_8IVisitorIS3_EEEUlSI_E_EE, @object
	.size	_ZTVN8opendnp314FunctorVisitorINS_7IndexedINS_15DoubleBitBinaryEEEZNKS_21TransformedCollectionIS3_S3_ZNS_18MeasurementHandler14ProcessWithCTOIS2_EENS_8IINFieldERKNS_12HeaderRecordERKNS_11ICollectionINS1_IT_EEEEEUlRKS3_E_E7ForeachERNS_8IVisitorIS3_EEEUlSI_E_EE, 24
_ZTVN8opendnp314FunctorVisitorINS_7IndexedINS_15DoubleBitBinaryEEEZNKS_21TransformedCollectionIS3_S3_ZNS_18MeasurementHandler14ProcessWithCTOIS2_EENS_8IINFieldERKNS_12HeaderRecordERKNS_11ICollectionINS1_IT_EEEEEUlRKS3_E_E7ForeachERNS_8IVisitorIS3_EEEUlSI_E_EE:
	.quad	0
	.quad	_ZTIN8opendnp314FunctorVisitorINS_7IndexedINS_15DoubleBitBinaryEEEZNKS_21TransformedCollectionIS3_S3_ZNS_18MeasurementHandler14ProcessWithCTOIS2_EENS_8IINFieldERKNS_12HeaderRecordERKNS_11ICollectionINS1_IT_EEEEEUlRKS3_E_E7ForeachERNS_8IVisitorIS3_EEEUlSI_E_EE
	.quad	_ZN8opendnp314FunctorVisitorINS_7IndexedINS_15DoubleBitBinaryEEEZNKS_21TransformedCollectionIS3_S3_ZNS_18MeasurementHandler14ProcessWithCTOIS2_EENS_8IINFieldERKNS_12HeaderRecordERKNS_11ICollectionINS1_IT_EEEEEUlRKS3_E_E7ForeachERNS_8IVisitorIS3_EEEUlSI_E_E7OnValueESI_
	.weak	_ZTVN8opendnp314FunctorVisitorINS_7IndexedINS_6BinaryEEEZNKS_21TransformedCollectionIS3_S3_ZNS_18MeasurementHandler14ProcessWithCTOIS2_EENS_8IINFieldERKNS_12HeaderRecordERKNS_11ICollectionINS1_IT_EEEEEUlRKS3_E_E7ForeachERNS_8IVisitorIS3_EEEUlSI_E_EE
	.section	.data.rel.ro._ZTVN8opendnp314FunctorVisitorINS_7IndexedINS_6BinaryEEEZNKS_21TransformedCollectionIS3_S3_ZNS_18MeasurementHandler14ProcessWithCTOIS2_EENS_8IINFieldERKNS_12HeaderRecordERKNS_11ICollectionINS1_IT_EEEEEUlRKS3_E_E7ForeachERNS_8IVisitorIS3_EEEUlSI_E_EE,"awG",@progbits,_ZTVN8opendnp314FunctorVisitorINS_7IndexedINS_6BinaryEEEZNKS_21TransformedCollectionIS3_S3_ZNS_18MeasurementHandler14ProcessWithCTOIS2_EENS_8IINFieldERKNS_12HeaderRecordERKNS_11ICollectionINS1_IT_EEEEEUlRKS3_E_E7ForeachERNS_8IVisitorIS3_EEEUlSI_E_EE,comdat
	.align 8
	.type	_ZTVN8opendnp314FunctorVisitorINS_7IndexedINS_6BinaryEEEZNKS_21TransformedCollectionIS3_S3_ZNS_18MeasurementHandler14ProcessWithCTOIS2_EENS_8IINFieldERKNS_12HeaderRecordERKNS_11ICollectionINS1_IT_EEEEEUlRKS3_E_E7ForeachERNS_8IVisitorIS3_EEEUlSI_E_EE, @object
	.size	_ZTVN8opendnp314FunctorVisitorINS_7IndexedINS_6BinaryEEEZNKS_21TransformedCollectionIS3_S3_ZNS_18MeasurementHandler14ProcessWithCTOIS2_EENS_8IINFieldERKNS_12HeaderRecordERKNS_11ICollectionINS1_IT_EEEEEUlRKS3_E_E7ForeachERNS_8IVisitorIS3_EEEUlSI_E_EE, 24
_ZTVN8opendnp314FunctorVisitorINS_7IndexedINS_6BinaryEEEZNKS_21TransformedCollectionIS3_S3_ZNS_18MeasurementHandler14ProcessWithCTOIS2_EENS_8IINFieldERKNS_12HeaderRecordERKNS_11ICollectionINS1_IT_EEEEEUlRKS3_E_E7ForeachERNS_8IVisitorIS3_EEEUlSI_E_EE:
	.quad	0
	.quad	_ZTIN8opendnp314FunctorVisitorINS_7IndexedINS_6BinaryEEEZNKS_21TransformedCollectionIS3_S3_ZNS_18MeasurementHandler14ProcessWithCTOIS2_EENS_8IINFieldERKNS_12HeaderRecordERKNS_11ICollectionINS1_IT_EEEEEUlRKS3_E_E7ForeachERNS_8IVisitorIS3_EEEUlSI_E_EE
	.quad	_ZN8opendnp314FunctorVisitorINS_7IndexedINS_6BinaryEEEZNKS_21TransformedCollectionIS3_S3_ZNS_18MeasurementHandler14ProcessWithCTOIS2_EENS_8IINFieldERKNS_12HeaderRecordERKNS_11ICollectionINS1_IT_EEEEEUlRKS3_E_E7ForeachERNS_8IVisitorIS3_EEEUlSI_E_E7OnValueESI_
	.weak	_ZTVN8opendnp314FunctorVisitorINS_7IndexedINS_12Group121Var1EEEZNKS_21TransformedCollectionIS3_NS1_INS_12SecurityStatEEEZNS_18MeasurementHandler25LoadValuesWithTransformToIS5_S2_EENS_8IINFieldERKNS_12HeaderRecordERKNS_11ICollectionINS1_IT0_EEEEEUlRKS3_E_E7ForeachERNS_8IVisitorIS6_EEEUlSK_E_EE
	.section	.data.rel.ro._ZTVN8opendnp314FunctorVisitorINS_7IndexedINS_12Group121Var1EEEZNKS_21TransformedCollectionIS3_NS1_INS_12SecurityStatEEEZNS_18MeasurementHandler25LoadValuesWithTransformToIS5_S2_EENS_8IINFieldERKNS_12HeaderRecordERKNS_11ICollectionINS1_IT0_EEEEEUlRKS3_E_E7ForeachERNS_8IVisitorIS6_EEEUlSK_E_EE,"awG",@progbits,_ZTVN8opendnp314FunctorVisitorINS_7IndexedINS_12Group121Var1EEEZNKS_21TransformedCollectionIS3_NS1_INS_12SecurityStatEEEZNS_18MeasurementHandler25LoadValuesWithTransformToIS5_S2_EENS_8IINFieldERKNS_12HeaderRecordERKNS_11ICollectionINS1_IT0_EEEEEUlRKS3_E_E7ForeachERNS_8IVisitorIS6_EEEUlSK_E_EE,comdat
	.align 8
	.type	_ZTVN8opendnp314FunctorVisitorINS_7IndexedINS_12Group121Var1EEEZNKS_21TransformedCollectionIS3_NS1_INS_12SecurityStatEEEZNS_18MeasurementHandler25LoadValuesWithTransformToIS5_S2_EENS_8IINFieldERKNS_12HeaderRecordERKNS_11ICollectionINS1_IT0_EEEEEUlRKS3_E_E7ForeachERNS_8IVisitorIS6_EEEUlSK_E_EE, @object
	.size	_ZTVN8opendnp314FunctorVisitorINS_7IndexedINS_12Group121Var1EEEZNKS_21TransformedCollectionIS3_NS1_INS_12SecurityStatEEEZNS_18MeasurementHandler25LoadValuesWithTransformToIS5_S2_EENS_8IINFieldERKNS_12HeaderRecordERKNS_11ICollectionINS1_IT0_EEEEEUlRKS3_E_E7ForeachERNS_8IVisitorIS6_EEEUlSK_E_EE, 24
_ZTVN8opendnp314FunctorVisitorINS_7IndexedINS_12Group121Var1EEEZNKS_21TransformedCollectionIS3_NS1_INS_12SecurityStatEEEZNS_18MeasurementHandler25LoadValuesWithTransformToIS5_S2_EENS_8IINFieldERKNS_12HeaderRecordERKNS_11ICollectionINS1_IT0_EEEEEUlRKS3_E_E7ForeachERNS_8IVisitorIS6_EEEUlSK_E_EE:
	.quad	0
	.quad	_ZTIN8opendnp314FunctorVisitorINS_7IndexedINS_12Group121Var1EEEZNKS_21TransformedCollectionIS3_NS1_INS_12SecurityStatEEEZNS_18MeasurementHandler25LoadValuesWithTransformToIS5_S2_EENS_8IINFieldERKNS_12HeaderRecordERKNS_11ICollectionINS1_IT0_EEEEEUlRKS3_E_E7ForeachERNS_8IVisitorIS6_EEEUlSK_E_EE
	.quad	_ZN8opendnp314FunctorVisitorINS_7IndexedINS_12Group121Var1EEEZNKS_21TransformedCollectionIS3_NS1_INS_12SecurityStatEEEZNS_18MeasurementHandler25LoadValuesWithTransformToIS5_S2_EENS_8IINFieldERKNS_12HeaderRecordERKNS_11ICollectionINS1_IT0_EEEEEUlRKS3_E_E7ForeachERNS_8IVisitorIS6_EEEUlSK_E_E7OnValueESK_
	.section	.data.rel.ro.local,"aw",@progbits
	.align 8
	.type	_ZTVN8opendnp314FunctorVisitorINS_11Group50Var1EZNKS_21TransformedCollectionIS1_N7openpal10UInt48TypeEZNS_18MeasurementHandler13ProcessHeaderERKNS_11CountHeaderERKNS_11ICollectionIS1_EEEUlRKS1_E_E7ForeachERNS_8IVisitorIS4_EEEUlSE_E_EE, @object
	.size	_ZTVN8opendnp314FunctorVisitorINS_11Group50Var1EZNKS_21TransformedCollectionIS1_N7openpal10UInt48TypeEZNS_18MeasurementHandler13ProcessHeaderERKNS_11CountHeaderERKNS_11ICollectionIS1_EEEUlRKS1_E_E7ForeachERNS_8IVisitorIS4_EEEUlSE_E_EE, 24
_ZTVN8opendnp314FunctorVisitorINS_11Group50Var1EZNKS_21TransformedCollectionIS1_N7openpal10UInt48TypeEZNS_18MeasurementHandler13ProcessHeaderERKNS_11CountHeaderERKNS_11ICollectionIS1_EEEUlRKS1_E_E7ForeachERNS_8IVisitorIS4_EEEUlSE_E_EE:
	.quad	0
	.quad	_ZTIN8opendnp314FunctorVisitorINS_11Group50Var1EZNKS_21TransformedCollectionIS1_N7openpal10UInt48TypeEZNS_18MeasurementHandler13ProcessHeaderERKNS_11CountHeaderERKNS_11ICollectionIS1_EEEUlRKS1_E_E7ForeachERNS_8IVisitorIS4_EEEUlSE_E_EE
	.quad	_ZN8opendnp314FunctorVisitorINS_11Group50Var1EZNKS_21TransformedCollectionIS1_N7openpal10UInt48TypeEZNS_18MeasurementHandler13ProcessHeaderERKNS_11CountHeaderERKNS_11ICollectionIS1_EEEUlRKS1_E_E7ForeachERNS_8IVisitorIS4_EEEUlSE_E_E7OnValueESE_
	.weak	_ZTSN8opendnp318MeasurementHandlerE
	.section	.rodata._ZTSN8opendnp318MeasurementHandlerE,"aG",@progbits,_ZTSN8opendnp318MeasurementHandlerE,comdat
	.align 32
	.type	_ZTSN8opendnp318MeasurementHandlerE, @object
	.size	_ZTSN8opendnp318MeasurementHandlerE, 32
_ZTSN8opendnp318MeasurementHandlerE:
	.string	"N8opendnp318MeasurementHandlerE"
	.weak	_ZTIN8opendnp318MeasurementHandlerE
	.section	.data.rel.ro._ZTIN8opendnp318MeasurementHandlerE,"awG",@progbits,_ZTIN8opendnp318MeasurementHandlerE,comdat
	.align 8
	.type	_ZTIN8opendnp318MeasurementHandlerE, @object
	.size	_ZTIN8opendnp318MeasurementHandlerE, 24
_ZTIN8opendnp318MeasurementHandlerE:
	.quad	_ZTVN10__cxxabiv120__si_class_type_infoE+16
	.quad	_ZTSN8opendnp318MeasurementHandlerE
	.quad	_ZTIN8opendnp312IAPDUHandlerE
	.weak	_ZTSN8opendnp311ICollectionIN7openpal10UInt48TypeEEE
	.section	.rodata._ZTSN8opendnp311ICollectionIN7openpal10UInt48TypeEEE,"aG",@progbits,_ZTSN8opendnp311ICollectionIN7openpal10UInt48TypeEEE,comdat
	.align 32
	.type	_ZTSN8opendnp311ICollectionIN7openpal10UInt48TypeEEE, @object
	.size	_ZTSN8opendnp311ICollectionIN7openpal10UInt48TypeEEE, 49
_ZTSN8opendnp311ICollectionIN7openpal10UInt48TypeEEE:
	.string	"N8opendnp311ICollectionIN7openpal10UInt48TypeEEE"
	.weak	_ZTIN8opendnp311ICollectionIN7openpal10UInt48TypeEEE
	.section	.data.rel.ro._ZTIN8opendnp311ICollectionIN7openpal10UInt48TypeEEE,"awG",@progbits,_ZTIN8opendnp311ICollectionIN7openpal10UInt48TypeEEE,comdat
	.align 8
	.type	_ZTIN8opendnp311ICollectionIN7openpal10UInt48TypeEEE, @object
	.size	_ZTIN8opendnp311ICollectionIN7openpal10UInt48TypeEEE, 16
_ZTIN8opendnp311ICollectionIN7openpal10UInt48TypeEEE:
	.quad	_ZTVN10__cxxabiv117__class_type_infoE+16
	.quad	_ZTSN8opendnp311ICollectionIN7openpal10UInt48TypeEEE
	.section	.data.rel.ro
	.align 8
	.type	_ZTIN8opendnp321TransformedCollectionINS_11Group50Var1EN7openpal10UInt48TypeEZNS_18MeasurementHandler13ProcessHeaderERKNS_11CountHeaderERKNS_11ICollectionIS1_EEEUlRKS1_E_EE, @object
	.size	_ZTIN8opendnp321TransformedCollectionINS_11Group50Var1EN7openpal10UInt48TypeEZNS_18MeasurementHandler13ProcessHeaderERKNS_11CountHeaderERKNS_11ICollectionIS1_EEEUlRKS1_E_EE, 24
_ZTIN8opendnp321TransformedCollectionINS_11Group50Var1EN7openpal10UInt48TypeEZNS_18MeasurementHandler13ProcessHeaderERKNS_11CountHeaderERKNS_11ICollectionIS1_EEEUlRKS1_E_EE:
	.quad	_ZTVN10__cxxabiv120__si_class_type_infoE+16
	.quad	_ZTSN8opendnp321TransformedCollectionINS_11Group50Var1EN7openpal10UInt48TypeEZNS_18MeasurementHandler13ProcessHeaderERKNS_11CountHeaderERKNS_11ICollectionIS1_EEEUlRKS1_E_EE
	.quad	_ZTIN8opendnp311ICollectionIN7openpal10UInt48TypeEEE
	.section	.rodata
	.align 32
	.type	_ZTSN8opendnp321TransformedCollectionINS_11Group50Var1EN7openpal10UInt48TypeEZNS_18MeasurementHandler13ProcessHeaderERKNS_11CountHeaderERKNS_11ICollectionIS1_EEEUlRKS1_E_EE, @object
	.size	_ZTSN8opendnp321TransformedCollectionINS_11Group50Var1EN7openpal10UInt48TypeEZNS_18MeasurementHandler13ProcessHeaderERKNS_11CountHeaderERKNS_11ICollectionIS1_EEEUlRKS1_E_EE, 170
_ZTSN8opendnp321TransformedCollectionINS_11Group50Var1EN7openpal10UInt48TypeEZNS_18MeasurementHandler13ProcessHeaderERKNS_11CountHeaderERKNS_11ICollectionIS1_EEEUlRKS1_E_EE:
	.string	"*N8opendnp321TransformedCollectionINS_11Group50Var1EN7openpal10UInt48TypeEZNS_18MeasurementHandler13ProcessHeaderERKNS_11CountHeaderERKNS_11ICollectionIS1_EEEUlRKS1_E_EE"
	.weak	_ZTSN8opendnp311ICollectionINS_7IndexedINS_12SecurityStatEEEEE
	.section	.rodata._ZTSN8opendnp311ICollectionINS_7IndexedINS_12SecurityStatEEEEE,"aG",@progbits,_ZTSN8opendnp311ICollectionINS_7IndexedINS_12SecurityStatEEEEE,comdat
	.align 32
	.type	_ZTSN8opendnp311ICollectionINS_7IndexedINS_12SecurityStatEEEEE, @object
	.size	_ZTSN8opendnp311ICollectionINS_7IndexedINS_12SecurityStatEEEEE, 59
_ZTSN8opendnp311ICollectionINS_7IndexedINS_12SecurityStatEEEEE:
	.string	"N8opendnp311ICollectionINS_7IndexedINS_12SecurityStatEEEEE"
	.weak	_ZTIN8opendnp311ICollectionINS_7IndexedINS_12SecurityStatEEEEE
	.section	.data.rel.ro._ZTIN8opendnp311ICollectionINS_7IndexedINS_12SecurityStatEEEEE,"awG",@progbits,_ZTIN8opendnp311ICollectionINS_7IndexedINS_12SecurityStatEEEEE,comdat
	.align 8
	.type	_ZTIN8opendnp311ICollectionINS_7IndexedINS_12SecurityStatEEEEE, @object
	.size	_ZTIN8opendnp311ICollectionINS_7IndexedINS_12SecurityStatEEEEE, 16
_ZTIN8opendnp311ICollectionINS_7IndexedINS_12SecurityStatEEEEE:
	.quad	_ZTVN10__cxxabiv117__class_type_infoE+16
	.quad	_ZTSN8opendnp311ICollectionINS_7IndexedINS_12SecurityStatEEEEE
	.weak	_ZTSN8opendnp311ICollectionINS_7IndexedINS_15DoubleBitBinaryEEEEE
	.section	.rodata._ZTSN8opendnp311ICollectionINS_7IndexedINS_15DoubleBitBinaryEEEEE,"aG",@progbits,_ZTSN8opendnp311ICollectionINS_7IndexedINS_15DoubleBitBinaryEEEEE,comdat
	.align 32
	.type	_ZTSN8opendnp311ICollectionINS_7IndexedINS_15DoubleBitBinaryEEEEE, @object
	.size	_ZTSN8opendnp311ICollectionINS_7IndexedINS_15DoubleBitBinaryEEEEE, 62
_ZTSN8opendnp311ICollectionINS_7IndexedINS_15DoubleBitBinaryEEEEE:
	.string	"N8opendnp311ICollectionINS_7IndexedINS_15DoubleBitBinaryEEEEE"
	.weak	_ZTIN8opendnp311ICollectionINS_7IndexedINS_15DoubleBitBinaryEEEEE
	.section	.data.rel.ro._ZTIN8opendnp311ICollectionINS_7IndexedINS_15DoubleBitBinaryEEEEE,"awG",@progbits,_ZTIN8opendnp311ICollectionINS_7IndexedINS_15DoubleBitBinaryEEEEE,comdat
	.align 8
	.type	_ZTIN8opendnp311ICollectionINS_7IndexedINS_15DoubleBitBinaryEEEEE, @object
	.size	_ZTIN8opendnp311ICollectionINS_7IndexedINS_15DoubleBitBinaryEEEEE, 16
_ZTIN8opendnp311ICollectionINS_7IndexedINS_15DoubleBitBinaryEEEEE:
	.quad	_ZTVN10__cxxabiv117__class_type_infoE+16
	.quad	_ZTSN8opendnp311ICollectionINS_7IndexedINS_15DoubleBitBinaryEEEEE
	.weak	_ZTSN8opendnp311ICollectionINS_7IndexedINS_6BinaryEEEEE
	.section	.rodata._ZTSN8opendnp311ICollectionINS_7IndexedINS_6BinaryEEEEE,"aG",@progbits,_ZTSN8opendnp311ICollectionINS_7IndexedINS_6BinaryEEEEE,comdat
	.align 32
	.type	_ZTSN8opendnp311ICollectionINS_7IndexedINS_6BinaryEEEEE, @object
	.size	_ZTSN8opendnp311ICollectionINS_7IndexedINS_6BinaryEEEEE, 52
_ZTSN8opendnp311ICollectionINS_7IndexedINS_6BinaryEEEEE:
	.string	"N8opendnp311ICollectionINS_7IndexedINS_6BinaryEEEEE"
	.weak	_ZTIN8opendnp311ICollectionINS_7IndexedINS_6BinaryEEEEE
	.section	.data.rel.ro._ZTIN8opendnp311ICollectionINS_7IndexedINS_6BinaryEEEEE,"awG",@progbits,_ZTIN8opendnp311ICollectionINS_7IndexedINS_6BinaryEEEEE,comdat
	.align 8
	.type	_ZTIN8opendnp311ICollectionINS_7IndexedINS_6BinaryEEEEE, @object
	.size	_ZTIN8opendnp311ICollectionINS_7IndexedINS_6BinaryEEEEE, 16
_ZTIN8opendnp311ICollectionINS_7IndexedINS_6BinaryEEEEE:
	.quad	_ZTVN10__cxxabiv117__class_type_infoE+16
	.quad	_ZTSN8opendnp311ICollectionINS_7IndexedINS_6BinaryEEEEE
	.weak	_ZTSN8opendnp321TransformedCollectionINS_7IndexedINS_12Group121Var1EEENS1_INS_12SecurityStatEEEZNS_18MeasurementHandler25LoadValuesWithTransformToIS4_S2_EENS_8IINFieldERKNS_12HeaderRecordERKNS_11ICollectionINS1_IT0_EEEEEUlRKS3_E_EE
	.section	.rodata._ZTSN8opendnp321TransformedCollectionINS_7IndexedINS_12Group121Var1EEENS1_INS_12SecurityStatEEEZNS_18MeasurementHandler25LoadValuesWithTransformToIS4_S2_EENS_8IINFieldERKNS_12HeaderRecordERKNS_11ICollectionINS1_IT0_EEEEEUlRKS3_E_EE,"aG",@progbits,_ZTSN8opendnp321TransformedCollectionINS_7IndexedINS_12Group121Var1EEENS1_INS_12SecurityStatEEEZNS_18MeasurementHandler25LoadValuesWithTransformToIS4_S2_EENS_8IINFieldERKNS_12HeaderRecordERKNS_11ICollectionINS1_IT0_EEEEEUlRKS3_E_EE,comdat
	.align 32
	.type	_ZTSN8opendnp321TransformedCollectionINS_7IndexedINS_12Group121Var1EEENS1_INS_12SecurityStatEEEZNS_18MeasurementHandler25LoadValuesWithTransformToIS4_S2_EENS_8IINFieldERKNS_12HeaderRecordERKNS_11ICollectionINS1_IT0_EEEEEUlRKS3_E_EE, @object
	.size	_ZTSN8opendnp321TransformedCollectionINS_7IndexedINS_12Group121Var1EEENS1_INS_12SecurityStatEEEZNS_18MeasurementHandler25LoadValuesWithTransformToIS4_S2_EENS_8IINFieldERKNS_12HeaderRecordERKNS_11ICollectionINS1_IT0_EEEEEUlRKS3_E_EE, 228
_ZTSN8opendnp321TransformedCollectionINS_7IndexedINS_12Group121Var1EEENS1_INS_12SecurityStatEEEZNS_18MeasurementHandler25LoadValuesWithTransformToIS4_S2_EENS_8IINFieldERKNS_12HeaderRecordERKNS_11ICollectionINS1_IT0_EEEEEUlRKS3_E_EE:
	.string	"N8opendnp321TransformedCollectionINS_7IndexedINS_12Group121Var1EEENS1_INS_12SecurityStatEEEZNS_18MeasurementHandler25LoadValuesWithTransformToIS4_S2_EENS_8IINFieldERKNS_12HeaderRecordERKNS_11ICollectionINS1_IT0_EEEEEUlRKS3_E_EE"
	.weak	_ZTIN8opendnp321TransformedCollectionINS_7IndexedINS_12Group121Var1EEENS1_INS_12SecurityStatEEEZNS_18MeasurementHandler25LoadValuesWithTransformToIS4_S2_EENS_8IINFieldERKNS_12HeaderRecordERKNS_11ICollectionINS1_IT0_EEEEEUlRKS3_E_EE
	.section	.data.rel.ro._ZTIN8opendnp321TransformedCollectionINS_7IndexedINS_12Group121Var1EEENS1_INS_12SecurityStatEEEZNS_18MeasurementHandler25LoadValuesWithTransformToIS4_S2_EENS_8IINFieldERKNS_12HeaderRecordERKNS_11ICollectionINS1_IT0_EEEEEUlRKS3_E_EE,"awG",@progbits,_ZTIN8opendnp321TransformedCollectionINS_7IndexedINS_12Group121Var1EEENS1_INS_12SecurityStatEEEZNS_18MeasurementHandler25LoadValuesWithTransformToIS4_S2_EENS_8IINFieldERKNS_12HeaderRecordERKNS_11ICollectionINS1_IT0_EEEEEUlRKS3_E_EE,comdat
	.align 8
	.type	_ZTIN8opendnp321TransformedCollectionINS_7IndexedINS_12Group121Var1EEENS1_INS_12SecurityStatEEEZNS_18MeasurementHandler25LoadValuesWithTransformToIS4_S2_EENS_8IINFieldERKNS_12HeaderRecordERKNS_11ICollectionINS1_IT0_EEEEEUlRKS3_E_EE, @object
	.size	_ZTIN8opendnp321TransformedCollectionINS_7IndexedINS_12Group121Var1EEENS1_INS_12SecurityStatEEEZNS_18MeasurementHandler25LoadValuesWithTransformToIS4_S2_EENS_8IINFieldERKNS_12HeaderRecordERKNS_11ICollectionINS1_IT0_EEEEEUlRKS3_E_EE, 24
_ZTIN8opendnp321TransformedCollectionINS_7IndexedINS_12Group121Var1EEENS1_INS_12SecurityStatEEEZNS_18MeasurementHandler25LoadValuesWithTransformToIS4_S2_EENS_8IINFieldERKNS_12HeaderRecordERKNS_11ICollectionINS1_IT0_EEEEEUlRKS3_E_EE:
	.quad	_ZTVN10__cxxabiv120__si_class_type_infoE+16
	.quad	_ZTSN8opendnp321TransformedCollectionINS_7IndexedINS_12Group121Var1EEENS1_INS_12SecurityStatEEEZNS_18MeasurementHandler25LoadValuesWithTransformToIS4_S2_EENS_8IINFieldERKNS_12HeaderRecordERKNS_11ICollectionINS1_IT0_EEEEEUlRKS3_E_EE
	.quad	_ZTIN8opendnp311ICollectionINS_7IndexedINS_12SecurityStatEEEEE
	.weak	_ZTSN8opendnp321TransformedCollectionINS_7IndexedINS_6BinaryEEES3_ZNS_18MeasurementHandler14ProcessWithCTOIS2_EENS_8IINFieldERKNS_12HeaderRecordERKNS_11ICollectionINS1_IT_EEEEEUlRKS3_E_EE
	.section	.rodata._ZTSN8opendnp321TransformedCollectionINS_7IndexedINS_6BinaryEEES3_ZNS_18MeasurementHandler14ProcessWithCTOIS2_EENS_8IINFieldERKNS_12HeaderRecordERKNS_11ICollectionINS1_IT_EEEEEUlRKS3_E_EE,"aG",@progbits,_ZTSN8opendnp321TransformedCollectionINS_7IndexedINS_6BinaryEEES3_ZNS_18MeasurementHandler14ProcessWithCTOIS2_EENS_8IINFieldERKNS_12HeaderRecordERKNS_11ICollectionINS1_IT_EEEEEUlRKS3_E_EE,comdat
	.align 32
	.type	_ZTSN8opendnp321TransformedCollectionINS_7IndexedINS_6BinaryEEES3_ZNS_18MeasurementHandler14ProcessWithCTOIS2_EENS_8IINFieldERKNS_12HeaderRecordERKNS_11ICollectionINS1_IT_EEEEEUlRKS3_E_EE, @object
	.size	_ZTSN8opendnp321TransformedCollectionINS_7IndexedINS_6BinaryEEES3_ZNS_18MeasurementHandler14ProcessWithCTOIS2_EENS_8IINFieldERKNS_12HeaderRecordERKNS_11ICollectionINS1_IT_EEEEEUlRKS3_E_EE, 184
_ZTSN8opendnp321TransformedCollectionINS_7IndexedINS_6BinaryEEES3_ZNS_18MeasurementHandler14ProcessWithCTOIS2_EENS_8IINFieldERKNS_12HeaderRecordERKNS_11ICollectionINS1_IT_EEEEEUlRKS3_E_EE:
	.string	"N8opendnp321TransformedCollectionINS_7IndexedINS_6BinaryEEES3_ZNS_18MeasurementHandler14ProcessWithCTOIS2_EENS_8IINFieldERKNS_12HeaderRecordERKNS_11ICollectionINS1_IT_EEEEEUlRKS3_E_EE"
	.weak	_ZTIN8opendnp321TransformedCollectionINS_7IndexedINS_6BinaryEEES3_ZNS_18MeasurementHandler14ProcessWithCTOIS2_EENS_8IINFieldERKNS_12HeaderRecordERKNS_11ICollectionINS1_IT_EEEEEUlRKS3_E_EE
	.section	.data.rel.ro._ZTIN8opendnp321TransformedCollectionINS_7IndexedINS_6BinaryEEES3_ZNS_18MeasurementHandler14ProcessWithCTOIS2_EENS_8IINFieldERKNS_12HeaderRecordERKNS_11ICollectionINS1_IT_EEEEEUlRKS3_E_EE,"awG",@progbits,_ZTIN8opendnp321TransformedCollectionINS_7IndexedINS_6BinaryEEES3_ZNS_18MeasurementHandler14ProcessWithCTOIS2_EENS_8IINFieldERKNS_12HeaderRecordERKNS_11ICollectionINS1_IT_EEEEEUlRKS3_E_EE,comdat
	.align 8
	.type	_ZTIN8opendnp321TransformedCollectionINS_7IndexedINS_6BinaryEEES3_ZNS_18MeasurementHandler14ProcessWithCTOIS2_EENS_8IINFieldERKNS_12HeaderRecordERKNS_11ICollectionINS1_IT_EEEEEUlRKS3_E_EE, @object
	.size	_ZTIN8opendnp321TransformedCollectionINS_7IndexedINS_6BinaryEEES3_ZNS_18MeasurementHandler14ProcessWithCTOIS2_EENS_8IINFieldERKNS_12HeaderRecordERKNS_11ICollectionINS1_IT_EEEEEUlRKS3_E_EE, 24
_ZTIN8opendnp321TransformedCollectionINS_7IndexedINS_6BinaryEEES3_ZNS_18MeasurementHandler14ProcessWithCTOIS2_EENS_8IINFieldERKNS_12HeaderRecordERKNS_11ICollectionINS1_IT_EEEEEUlRKS3_E_EE:
	.quad	_ZTVN10__cxxabiv120__si_class_type_infoE+16
	.quad	_ZTSN8opendnp321TransformedCollectionINS_7IndexedINS_6BinaryEEES3_ZNS_18MeasurementHandler14ProcessWithCTOIS2_EENS_8IINFieldERKNS_12HeaderRecordERKNS_11ICollectionINS1_IT_EEEEEUlRKS3_E_EE
	.quad	_ZTIN8opendnp311ICollectionINS_7IndexedINS_6BinaryEEEEE
	.weak	_ZTSN8opendnp321TransformedCollectionINS_7IndexedINS_15DoubleBitBinaryEEES3_ZNS_18MeasurementHandler14ProcessWithCTOIS2_EENS_8IINFieldERKNS_12HeaderRecordERKNS_11ICollectionINS1_IT_EEEEEUlRKS3_E_EE
	.section	.rodata._ZTSN8opendnp321TransformedCollectionINS_7IndexedINS_15DoubleBitBinaryEEES3_ZNS_18MeasurementHandler14ProcessWithCTOIS2_EENS_8IINFieldERKNS_12HeaderRecordERKNS_11ICollectionINS1_IT_EEEEEUlRKS3_E_EE,"aG",@progbits,_ZTSN8opendnp321TransformedCollectionINS_7IndexedINS_15DoubleBitBinaryEEES3_ZNS_18MeasurementHandler14ProcessWithCTOIS2_EENS_8IINFieldERKNS_12HeaderRecordERKNS_11ICollectionINS1_IT_EEEEEUlRKS3_E_EE,comdat
	.align 32
	.type	_ZTSN8opendnp321TransformedCollectionINS_7IndexedINS_15DoubleBitBinaryEEES3_ZNS_18MeasurementHandler14ProcessWithCTOIS2_EENS_8IINFieldERKNS_12HeaderRecordERKNS_11ICollectionINS1_IT_EEEEEUlRKS3_E_EE, @object
	.size	_ZTSN8opendnp321TransformedCollectionINS_7IndexedINS_15DoubleBitBinaryEEES3_ZNS_18MeasurementHandler14ProcessWithCTOIS2_EENS_8IINFieldERKNS_12HeaderRecordERKNS_11ICollectionINS1_IT_EEEEEUlRKS3_E_EE, 194
_ZTSN8opendnp321TransformedCollectionINS_7IndexedINS_15DoubleBitBinaryEEES3_ZNS_18MeasurementHandler14ProcessWithCTOIS2_EENS_8IINFieldERKNS_12HeaderRecordERKNS_11ICollectionINS1_IT_EEEEEUlRKS3_E_EE:
	.string	"N8opendnp321TransformedCollectionINS_7IndexedINS_15DoubleBitBinaryEEES3_ZNS_18MeasurementHandler14ProcessWithCTOIS2_EENS_8IINFieldERKNS_12HeaderRecordERKNS_11ICollectionINS1_IT_EEEEEUlRKS3_E_EE"
	.weak	_ZTIN8opendnp321TransformedCollectionINS_7IndexedINS_15DoubleBitBinaryEEES3_ZNS_18MeasurementHandler14ProcessWithCTOIS2_EENS_8IINFieldERKNS_12HeaderRecordERKNS_11ICollectionINS1_IT_EEEEEUlRKS3_E_EE
	.section	.data.rel.ro._ZTIN8opendnp321TransformedCollectionINS_7IndexedINS_15DoubleBitBinaryEEES3_ZNS_18MeasurementHandler14ProcessWithCTOIS2_EENS_8IINFieldERKNS_12HeaderRecordERKNS_11ICollectionINS1_IT_EEEEEUlRKS3_E_EE,"awG",@progbits,_ZTIN8opendnp321TransformedCollectionINS_7IndexedINS_15DoubleBitBinaryEEES3_ZNS_18MeasurementHandler14ProcessWithCTOIS2_EENS_8IINFieldERKNS_12HeaderRecordERKNS_11ICollectionINS1_IT_EEEEEUlRKS3_E_EE,comdat
	.align 8
	.type	_ZTIN8opendnp321TransformedCollectionINS_7IndexedINS_15DoubleBitBinaryEEES3_ZNS_18MeasurementHandler14ProcessWithCTOIS2_EENS_8IINFieldERKNS_12HeaderRecordERKNS_11ICollectionINS1_IT_EEEEEUlRKS3_E_EE, @object
	.size	_ZTIN8opendnp321TransformedCollectionINS_7IndexedINS_15DoubleBitBinaryEEES3_ZNS_18MeasurementHandler14ProcessWithCTOIS2_EENS_8IINFieldERKNS_12HeaderRecordERKNS_11ICollectionINS1_IT_EEEEEUlRKS3_E_EE, 24
_ZTIN8opendnp321TransformedCollectionINS_7IndexedINS_15DoubleBitBinaryEEES3_ZNS_18MeasurementHandler14ProcessWithCTOIS2_EENS_8IINFieldERKNS_12HeaderRecordERKNS_11ICollectionINS1_IT_EEEEEUlRKS3_E_EE:
	.quad	_ZTVN10__cxxabiv120__si_class_type_infoE+16
	.quad	_ZTSN8opendnp321TransformedCollectionINS_7IndexedINS_15DoubleBitBinaryEEES3_ZNS_18MeasurementHandler14ProcessWithCTOIS2_EENS_8IINFieldERKNS_12HeaderRecordERKNS_11ICollectionINS1_IT_EEEEEUlRKS3_E_EE
	.quad	_ZTIN8opendnp311ICollectionINS_7IndexedINS_15DoubleBitBinaryEEEEE
	.weak	_ZTSN8opendnp321TransformedCollectionINS_7IndexedINS_12Group122Var1EEENS1_INS_12SecurityStatEEEZNS_18MeasurementHandler25LoadValuesWithTransformToIS4_S2_EENS_8IINFieldERKNS_12HeaderRecordERKNS_11ICollectionINS1_IT0_EEEEEUlRKS3_E_EE
	.section	.rodata._ZTSN8opendnp321TransformedCollectionINS_7IndexedINS_12Group122Var1EEENS1_INS_12SecurityStatEEEZNS_18MeasurementHandler25LoadValuesWithTransformToIS4_S2_EENS_8IINFieldERKNS_12HeaderRecordERKNS_11ICollectionINS1_IT0_EEEEEUlRKS3_E_EE,"aG",@progbits,_ZTSN8opendnp321TransformedCollectionINS_7IndexedINS_12Group122Var1EEENS1_INS_12SecurityStatEEEZNS_18MeasurementHandler25LoadValuesWithTransformToIS4_S2_EENS_8IINFieldERKNS_12HeaderRecordERKNS_11ICollectionINS1_IT0_EEEEEUlRKS3_E_EE,comdat
	.align 32
	.type	_ZTSN8opendnp321TransformedCollectionINS_7IndexedINS_12Group122Var1EEENS1_INS_12SecurityStatEEEZNS_18MeasurementHandler25LoadValuesWithTransformToIS4_S2_EENS_8IINFieldERKNS_12HeaderRecordERKNS_11ICollectionINS1_IT0_EEEEEUlRKS3_E_EE, @object
	.size	_ZTSN8opendnp321TransformedCollectionINS_7IndexedINS_12Group122Var1EEENS1_INS_12SecurityStatEEEZNS_18MeasurementHandler25LoadValuesWithTransformToIS4_S2_EENS_8IINFieldERKNS_12HeaderRecordERKNS_11ICollectionINS1_IT0_EEEEEUlRKS3_E_EE, 228
_ZTSN8opendnp321TransformedCollectionINS_7IndexedINS_12Group122Var1EEENS1_INS_12SecurityStatEEEZNS_18MeasurementHandler25LoadValuesWithTransformToIS4_S2_EENS_8IINFieldERKNS_12HeaderRecordERKNS_11ICollectionINS1_IT0_EEEEEUlRKS3_E_EE:
	.string	"N8opendnp321TransformedCollectionINS_7IndexedINS_12Group122Var1EEENS1_INS_12SecurityStatEEEZNS_18MeasurementHandler25LoadValuesWithTransformToIS4_S2_EENS_8IINFieldERKNS_12HeaderRecordERKNS_11ICollectionINS1_IT0_EEEEEUlRKS3_E_EE"
	.weak	_ZTIN8opendnp321TransformedCollectionINS_7IndexedINS_12Group122Var1EEENS1_INS_12SecurityStatEEEZNS_18MeasurementHandler25LoadValuesWithTransformToIS4_S2_EENS_8IINFieldERKNS_12HeaderRecordERKNS_11ICollectionINS1_IT0_EEEEEUlRKS3_E_EE
	.section	.data.rel.ro._ZTIN8opendnp321TransformedCollectionINS_7IndexedINS_12Group122Var1EEENS1_INS_12SecurityStatEEEZNS_18MeasurementHandler25LoadValuesWithTransformToIS4_S2_EENS_8IINFieldERKNS_12HeaderRecordERKNS_11ICollectionINS1_IT0_EEEEEUlRKS3_E_EE,"awG",@progbits,_ZTIN8opendnp321TransformedCollectionINS_7IndexedINS_12Group122Var1EEENS1_INS_12SecurityStatEEEZNS_18MeasurementHandler25LoadValuesWithTransformToIS4_S2_EENS_8IINFieldERKNS_12HeaderRecordERKNS_11ICollectionINS1_IT0_EEEEEUlRKS3_E_EE,comdat
	.align 8
	.type	_ZTIN8opendnp321TransformedCollectionINS_7IndexedINS_12Group122Var1EEENS1_INS_12SecurityStatEEEZNS_18MeasurementHandler25LoadValuesWithTransformToIS4_S2_EENS_8IINFieldERKNS_12HeaderRecordERKNS_11ICollectionINS1_IT0_EEEEEUlRKS3_E_EE, @object
	.size	_ZTIN8opendnp321TransformedCollectionINS_7IndexedINS_12Group122Var1EEENS1_INS_12SecurityStatEEEZNS_18MeasurementHandler25LoadValuesWithTransformToIS4_S2_EENS_8IINFieldERKNS_12HeaderRecordERKNS_11ICollectionINS1_IT0_EEEEEUlRKS3_E_EE, 24
_ZTIN8opendnp321TransformedCollectionINS_7IndexedINS_12Group122Var1EEENS1_INS_12SecurityStatEEEZNS_18MeasurementHandler25LoadValuesWithTransformToIS4_S2_EENS_8IINFieldERKNS_12HeaderRecordERKNS_11ICollectionINS1_IT0_EEEEEUlRKS3_E_EE:
	.quad	_ZTVN10__cxxabiv120__si_class_type_infoE+16
	.quad	_ZTSN8opendnp321TransformedCollectionINS_7IndexedINS_12Group122Var1EEENS1_INS_12SecurityStatEEEZNS_18MeasurementHandler25LoadValuesWithTransformToIS4_S2_EENS_8IINFieldERKNS_12HeaderRecordERKNS_11ICollectionINS1_IT0_EEEEEUlRKS3_E_EE
	.quad	_ZTIN8opendnp311ICollectionINS_7IndexedINS_12SecurityStatEEEEE
	.weak	_ZTSN8opendnp321TransformedCollectionINS_7IndexedINS_12Group122Var2EEENS1_INS_12SecurityStatEEEZNS_18MeasurementHandler25LoadValuesWithTransformToIS4_S2_EENS_8IINFieldERKNS_12HeaderRecordERKNS_11ICollectionINS1_IT0_EEEEEUlRKS3_E_EE
	.section	.rodata._ZTSN8opendnp321TransformedCollectionINS_7IndexedINS_12Group122Var2EEENS1_INS_12SecurityStatEEEZNS_18MeasurementHandler25LoadValuesWithTransformToIS4_S2_EENS_8IINFieldERKNS_12HeaderRecordERKNS_11ICollectionINS1_IT0_EEEEEUlRKS3_E_EE,"aG",@progbits,_ZTSN8opendnp321TransformedCollectionINS_7IndexedINS_12Group122Var2EEENS1_INS_12SecurityStatEEEZNS_18MeasurementHandler25LoadValuesWithTransformToIS4_S2_EENS_8IINFieldERKNS_12HeaderRecordERKNS_11ICollectionINS1_IT0_EEEEEUlRKS3_E_EE,comdat
	.align 32
	.type	_ZTSN8opendnp321TransformedCollectionINS_7IndexedINS_12Group122Var2EEENS1_INS_12SecurityStatEEEZNS_18MeasurementHandler25LoadValuesWithTransformToIS4_S2_EENS_8IINFieldERKNS_12HeaderRecordERKNS_11ICollectionINS1_IT0_EEEEEUlRKS3_E_EE, @object
	.size	_ZTSN8opendnp321TransformedCollectionINS_7IndexedINS_12Group122Var2EEENS1_INS_12SecurityStatEEEZNS_18MeasurementHandler25LoadValuesWithTransformToIS4_S2_EENS_8IINFieldERKNS_12HeaderRecordERKNS_11ICollectionINS1_IT0_EEEEEUlRKS3_E_EE, 228
_ZTSN8opendnp321TransformedCollectionINS_7IndexedINS_12Group122Var2EEENS1_INS_12SecurityStatEEEZNS_18MeasurementHandler25LoadValuesWithTransformToIS4_S2_EENS_8IINFieldERKNS_12HeaderRecordERKNS_11ICollectionINS1_IT0_EEEEEUlRKS3_E_EE:
	.string	"N8opendnp321TransformedCollectionINS_7IndexedINS_12Group122Var2EEENS1_INS_12SecurityStatEEEZNS_18MeasurementHandler25LoadValuesWithTransformToIS4_S2_EENS_8IINFieldERKNS_12HeaderRecordERKNS_11ICollectionINS1_IT0_EEEEEUlRKS3_E_EE"
	.weak	_ZTIN8opendnp321TransformedCollectionINS_7IndexedINS_12Group122Var2EEENS1_INS_12SecurityStatEEEZNS_18MeasurementHandler25LoadValuesWithTransformToIS4_S2_EENS_8IINFieldERKNS_12HeaderRecordERKNS_11ICollectionINS1_IT0_EEEEEUlRKS3_E_EE
	.section	.data.rel.ro._ZTIN8opendnp321TransformedCollectionINS_7IndexedINS_12Group122Var2EEENS1_INS_12SecurityStatEEEZNS_18MeasurementHandler25LoadValuesWithTransformToIS4_S2_EENS_8IINFieldERKNS_12HeaderRecordERKNS_11ICollectionINS1_IT0_EEEEEUlRKS3_E_EE,"awG",@progbits,_ZTIN8opendnp321TransformedCollectionINS_7IndexedINS_12Group122Var2EEENS1_INS_12SecurityStatEEEZNS_18MeasurementHandler25LoadValuesWithTransformToIS4_S2_EENS_8IINFieldERKNS_12HeaderRecordERKNS_11ICollectionINS1_IT0_EEEEEUlRKS3_E_EE,comdat
	.align 8
	.type	_ZTIN8opendnp321TransformedCollectionINS_7IndexedINS_12Group122Var2EEENS1_INS_12SecurityStatEEEZNS_18MeasurementHandler25LoadValuesWithTransformToIS4_S2_EENS_8IINFieldERKNS_12HeaderRecordERKNS_11ICollectionINS1_IT0_EEEEEUlRKS3_E_EE, @object
	.size	_ZTIN8opendnp321TransformedCollectionINS_7IndexedINS_12Group122Var2EEENS1_INS_12SecurityStatEEEZNS_18MeasurementHandler25LoadValuesWithTransformToIS4_S2_EENS_8IINFieldERKNS_12HeaderRecordERKNS_11ICollectionINS1_IT0_EEEEEUlRKS3_E_EE, 24
_ZTIN8opendnp321TransformedCollectionINS_7IndexedINS_12Group122Var2EEENS1_INS_12SecurityStatEEEZNS_18MeasurementHandler25LoadValuesWithTransformToIS4_S2_EENS_8IINFieldERKNS_12HeaderRecordERKNS_11ICollectionINS1_IT0_EEEEEUlRKS3_E_EE:
	.quad	_ZTVN10__cxxabiv120__si_class_type_infoE+16
	.quad	_ZTSN8opendnp321TransformedCollectionINS_7IndexedINS_12Group122Var2EEENS1_INS_12SecurityStatEEEZNS_18MeasurementHandler25LoadValuesWithTransformToIS4_S2_EENS_8IINFieldERKNS_12HeaderRecordERKNS_11ICollectionINS1_IT0_EEEEEUlRKS3_E_EE
	.quad	_ZTIN8opendnp311ICollectionINS_7IndexedINS_12SecurityStatEEEEE
	.weak	_ZTSN8opendnp38IVisitorINS_11Group51Var1EEE
	.section	.rodata._ZTSN8opendnp38IVisitorINS_11Group51Var1EEE,"aG",@progbits,_ZTSN8opendnp38IVisitorINS_11Group51Var1EEE,comdat
	.align 32
	.type	_ZTSN8opendnp38IVisitorINS_11Group51Var1EEE, @object
	.size	_ZTSN8opendnp38IVisitorINS_11Group51Var1EEE, 40
_ZTSN8opendnp38IVisitorINS_11Group51Var1EEE:
	.string	"N8opendnp38IVisitorINS_11Group51Var1EEE"
	.weak	_ZTIN8opendnp38IVisitorINS_11Group51Var1EEE
	.section	.data.rel.ro._ZTIN8opendnp38IVisitorINS_11Group51Var1EEE,"awG",@progbits,_ZTIN8opendnp38IVisitorINS_11Group51Var1EEE,comdat
	.align 8
	.type	_ZTIN8opendnp38IVisitorINS_11Group51Var1EEE, @object
	.size	_ZTIN8opendnp38IVisitorINS_11Group51Var1EEE, 16
_ZTIN8opendnp38IVisitorINS_11Group51Var1EEE:
	.quad	_ZTVN10__cxxabiv117__class_type_infoE+16
	.quad	_ZTSN8opendnp38IVisitorINS_11Group51Var1EEE
	.weak	_ZTSN8opendnp314FunctorVisitorINS_11Group51Var1EZNKS_11ICollectionIS1_E13ReadOnlyValueERS1_EUlRKS1_E_EE
	.section	.rodata._ZTSN8opendnp314FunctorVisitorINS_11Group51Var1EZNKS_11ICollectionIS1_E13ReadOnlyValueERS1_EUlRKS1_E_EE,"aG",@progbits,_ZTSN8opendnp314FunctorVisitorINS_11Group51Var1EZNKS_11ICollectionIS1_E13ReadOnlyValueERS1_EUlRKS1_E_EE,comdat
	.align 32
	.type	_ZTSN8opendnp314FunctorVisitorINS_11Group51Var1EZNKS_11ICollectionIS1_E13ReadOnlyValueERS1_EUlRKS1_E_EE, @object
	.size	_ZTSN8opendnp314FunctorVisitorINS_11Group51Var1EZNKS_11ICollectionIS1_E13ReadOnlyValueERS1_EUlRKS1_E_EE, 100
_ZTSN8opendnp314FunctorVisitorINS_11Group51Var1EZNKS_11ICollectionIS1_E13ReadOnlyValueERS1_EUlRKS1_E_EE:
	.string	"N8opendnp314FunctorVisitorINS_11Group51Var1EZNKS_11ICollectionIS1_E13ReadOnlyValueERS1_EUlRKS1_E_EE"
	.weak	_ZTIN8opendnp314FunctorVisitorINS_11Group51Var1EZNKS_11ICollectionIS1_E13ReadOnlyValueERS1_EUlRKS1_E_EE
	.section	.data.rel.ro._ZTIN8opendnp314FunctorVisitorINS_11Group51Var1EZNKS_11ICollectionIS1_E13ReadOnlyValueERS1_EUlRKS1_E_EE,"awG",@progbits,_ZTIN8opendnp314FunctorVisitorINS_11Group51Var1EZNKS_11ICollectionIS1_E13ReadOnlyValueERS1_EUlRKS1_E_EE,comdat
	.align 8
	.type	_ZTIN8opendnp314FunctorVisitorINS_11Group51Var1EZNKS_11ICollectionIS1_E13ReadOnlyValueERS1_EUlRKS1_E_EE, @object
	.size	_ZTIN8opendnp314FunctorVisitorINS_11Group51Var1EZNKS_11ICollectionIS1_E13ReadOnlyValueERS1_EUlRKS1_E_EE, 24
_ZTIN8opendnp314FunctorVisitorINS_11Group51Var1EZNKS_11ICollectionIS1_E13ReadOnlyValueERS1_EUlRKS1_E_EE:
	.quad	_ZTVN10__cxxabiv120__si_class_type_infoE+16
	.quad	_ZTSN8opendnp314FunctorVisitorINS_11Group51Var1EZNKS_11ICollectionIS1_E13ReadOnlyValueERS1_EUlRKS1_E_EE
	.quad	_ZTIN8opendnp38IVisitorINS_11Group51Var1EEE
	.weak	_ZTSN8opendnp38IVisitorINS_11Group51Var2EEE
	.section	.rodata._ZTSN8opendnp38IVisitorINS_11Group51Var2EEE,"aG",@progbits,_ZTSN8opendnp38IVisitorINS_11Group51Var2EEE,comdat
	.align 32
	.type	_ZTSN8opendnp38IVisitorINS_11Group51Var2EEE, @object
	.size	_ZTSN8opendnp38IVisitorINS_11Group51Var2EEE, 40
_ZTSN8opendnp38IVisitorINS_11Group51Var2EEE:
	.string	"N8opendnp38IVisitorINS_11Group51Var2EEE"
	.weak	_ZTIN8opendnp38IVisitorINS_11Group51Var2EEE
	.section	.data.rel.ro._ZTIN8opendnp38IVisitorINS_11Group51Var2EEE,"awG",@progbits,_ZTIN8opendnp38IVisitorINS_11Group51Var2EEE,comdat
	.align 8
	.type	_ZTIN8opendnp38IVisitorINS_11Group51Var2EEE, @object
	.size	_ZTIN8opendnp38IVisitorINS_11Group51Var2EEE, 16
_ZTIN8opendnp38IVisitorINS_11Group51Var2EEE:
	.quad	_ZTVN10__cxxabiv117__class_type_infoE+16
	.quad	_ZTSN8opendnp38IVisitorINS_11Group51Var2EEE
	.weak	_ZTSN8opendnp314FunctorVisitorINS_11Group51Var2EZNKS_11ICollectionIS1_E13ReadOnlyValueERS1_EUlRKS1_E_EE
	.section	.rodata._ZTSN8opendnp314FunctorVisitorINS_11Group51Var2EZNKS_11ICollectionIS1_E13ReadOnlyValueERS1_EUlRKS1_E_EE,"aG",@progbits,_ZTSN8opendnp314FunctorVisitorINS_11Group51Var2EZNKS_11ICollectionIS1_E13ReadOnlyValueERS1_EUlRKS1_E_EE,comdat
	.align 32
	.type	_ZTSN8opendnp314FunctorVisitorINS_11Group51Var2EZNKS_11ICollectionIS1_E13ReadOnlyValueERS1_EUlRKS1_E_EE, @object
	.size	_ZTSN8opendnp314FunctorVisitorINS_11Group51Var2EZNKS_11ICollectionIS1_E13ReadOnlyValueERS1_EUlRKS1_E_EE, 100
_ZTSN8opendnp314FunctorVisitorINS_11Group51Var2EZNKS_11ICollectionIS1_E13ReadOnlyValueERS1_EUlRKS1_E_EE:
	.string	"N8opendnp314FunctorVisitorINS_11Group51Var2EZNKS_11ICollectionIS1_E13ReadOnlyValueERS1_EUlRKS1_E_EE"
	.weak	_ZTIN8opendnp314FunctorVisitorINS_11Group51Var2EZNKS_11ICollectionIS1_E13ReadOnlyValueERS1_EUlRKS1_E_EE
	.section	.data.rel.ro._ZTIN8opendnp314FunctorVisitorINS_11Group51Var2EZNKS_11ICollectionIS1_E13ReadOnlyValueERS1_EUlRKS1_E_EE,"awG",@progbits,_ZTIN8opendnp314FunctorVisitorINS_11Group51Var2EZNKS_11ICollectionIS1_E13ReadOnlyValueERS1_EUlRKS1_E_EE,comdat
	.align 8
	.type	_ZTIN8opendnp314FunctorVisitorINS_11Group51Var2EZNKS_11ICollectionIS1_E13ReadOnlyValueERS1_EUlRKS1_E_EE, @object
	.size	_ZTIN8opendnp314FunctorVisitorINS_11Group51Var2EZNKS_11ICollectionIS1_E13ReadOnlyValueERS1_EUlRKS1_E_EE, 24
_ZTIN8opendnp314FunctorVisitorINS_11Group51Var2EZNKS_11ICollectionIS1_E13ReadOnlyValueERS1_EUlRKS1_E_EE:
	.quad	_ZTVN10__cxxabiv120__si_class_type_infoE+16
	.quad	_ZTSN8opendnp314FunctorVisitorINS_11Group51Var2EZNKS_11ICollectionIS1_E13ReadOnlyValueERS1_EUlRKS1_E_EE
	.quad	_ZTIN8opendnp38IVisitorINS_11Group51Var2EEE
	.section	.data.rel.ro.local
	.align 8
	.type	_ZTVN8opendnp321TransformedCollectionINS_11Group50Var1EN7openpal10UInt48TypeEZNS_18MeasurementHandler13ProcessHeaderERKNS_11CountHeaderERKNS_11ICollectionIS1_EEEUlRKS1_E_EE, @object
	.size	_ZTVN8opendnp321TransformedCollectionINS_11Group50Var1EN7openpal10UInt48TypeEZNS_18MeasurementHandler13ProcessHeaderERKNS_11CountHeaderERKNS_11ICollectionIS1_EEEUlRKS1_E_EE, 32
_ZTVN8opendnp321TransformedCollectionINS_11Group50Var1EN7openpal10UInt48TypeEZNS_18MeasurementHandler13ProcessHeaderERKNS_11CountHeaderERKNS_11ICollectionIS1_EEEUlRKS1_E_EE:
	.quad	0
	.quad	_ZTIN8opendnp321TransformedCollectionINS_11Group50Var1EN7openpal10UInt48TypeEZNS_18MeasurementHandler13ProcessHeaderERKNS_11CountHeaderERKNS_11ICollectionIS1_EEEUlRKS1_E_EE
	.quad	_ZNK8opendnp321TransformedCollectionINS_11Group50Var1EN7openpal10UInt48TypeEZNS_18MeasurementHandler13ProcessHeaderERKNS_11CountHeaderERKNS_11ICollectionIS1_EEEUlRKS1_E_E5CountEv
	.quad	_ZNK8opendnp321TransformedCollectionINS_11Group50Var1EN7openpal10UInt48TypeEZNS_18MeasurementHandler13ProcessHeaderERKNS_11CountHeaderERKNS_11ICollectionIS1_EEEUlRKS1_E_E7ForeachERNS_8IVisitorIS3_EE
	.weak	_ZTVN8opendnp318MeasurementHandlerE
	.section	.data.rel.ro._ZTVN8opendnp318MeasurementHandlerE,"awG",@progbits,_ZTVN8opendnp318MeasurementHandlerE,comdat
	.align 8
	.type	_ZTVN8opendnp318MeasurementHandlerE, @object
	.size	_ZTVN8opendnp318MeasurementHandlerE, 448
_ZTVN8opendnp318MeasurementHandlerE:
	.quad	0
	.quad	_ZTIN8opendnp318MeasurementHandlerE
	.quad	_ZN8opendnp318MeasurementHandler9IsAllowedEjNS_14GroupVariationENS_13QualifierCodeE
	.quad	_ZN8opendnp312IAPDUHandler13ProcessHeaderERKNS_16AllObjectsHeaderE
	.quad	_ZN8opendnp312IAPDUHandler13ProcessHeaderERKNS_11RangeHeaderE
	.quad	_ZN8opendnp312IAPDUHandler13ProcessHeaderERKNS_11CountHeaderE
	.quad	_ZN8opendnp312IAPDUHandler13ProcessHeaderERKNS_16FreeFormatHeaderERKNS_12Group120Var1ERKN7openpal6RSliceE
	.quad	_ZN8opendnp312IAPDUHandler13ProcessHeaderERKNS_16FreeFormatHeaderERKNS_12Group120Var2ERKN7openpal6RSliceE
	.quad	_ZN8opendnp312IAPDUHandler13ProcessHeaderERKNS_16FreeFormatHeaderERKNS_12Group120Var5ERKN7openpal6RSliceE
	.quad	_ZN8opendnp312IAPDUHandler13ProcessHeaderERKNS_16FreeFormatHeaderERKNS_12Group120Var6ERKN7openpal6RSliceE
	.quad	_ZN8opendnp312IAPDUHandler13ProcessHeaderERKNS_16FreeFormatHeaderERKNS_12Group120Var8ERKN7openpal6RSliceE
	.quad	_ZN8opendnp312IAPDUHandler13ProcessHeaderERKNS_16FreeFormatHeaderERKNS_12Group120Var7ERKN7openpal6RSliceE
	.quad	_ZN8opendnp312IAPDUHandler13ProcessHeaderERKNS_16FreeFormatHeaderERKNS_12Group120Var9ERKN7openpal6RSliceE
	.quad	_ZN8opendnp312IAPDUHandler13ProcessHeaderERKNS_16FreeFormatHeaderERKNS_13Group120Var10ERKN7openpal6RSliceE
	.quad	_ZN8opendnp312IAPDUHandler13ProcessHeaderERKNS_16FreeFormatHeaderERKNS_13Group120Var11ERKN7openpal6RSliceE
	.quad	_ZN8opendnp312IAPDUHandler13ProcessHeaderERKNS_16FreeFormatHeaderERKNS_13Group120Var12ERKN7openpal6RSliceE
	.quad	_ZN8opendnp312IAPDUHandler13ProcessHeaderERKNS_16FreeFormatHeaderERKNS_13Group120Var13ERKN7openpal6RSliceE
	.quad	_ZN8opendnp312IAPDUHandler13ProcessHeaderERKNS_16FreeFormatHeaderERKNS_13Group120Var14ERKN7openpal6RSliceE
	.quad	_ZN8opendnp312IAPDUHandler13ProcessHeaderERKNS_16FreeFormatHeaderERKNS_13Group120Var15ERKN7openpal6RSliceE
	.quad	_ZN8opendnp318MeasurementHandler13ProcessHeaderERKNS_11CountHeaderERKNS_11ICollectionINS_11Group50Var1EEE
	.quad	_ZN8opendnp318MeasurementHandler13ProcessHeaderERKNS_11CountHeaderERKNS_11ICollectionINS_11Group51Var1EEE
	.quad	_ZN8opendnp318MeasurementHandler13ProcessHeaderERKNS_11CountHeaderERKNS_11ICollectionINS_11Group51Var2EEE
	.quad	_ZN8opendnp312IAPDUHandler13ProcessHeaderERKNS_11CountHeaderERKNS_11ICollectionINS_11Group52Var1EEE
	.quad	_ZN8opendnp312IAPDUHandler13ProcessHeaderERKNS_11CountHeaderERKNS_11ICollectionINS_11Group52Var2EEE
	.quad	_ZN8opendnp312IAPDUHandler13ProcessHeaderERKNS_11CountHeaderERKNS_11ICollectionINS_12Group120Var3EEE
	.quad	_ZN8opendnp312IAPDUHandler13ProcessHeaderERKNS_11CountHeaderERKNS_11ICollectionINS_12Group120Var4EEE
	.quad	_ZN8opendnp312IAPDUHandler13ProcessHeaderERKNS_11RangeHeaderERKNS_11ICollectionINS_7IndexedINS_8IINValueEEEEE
	.quad	_ZN8opendnp318MeasurementHandler13ProcessHeaderERKNS_11RangeHeaderERKNS_11ICollectionINS_7IndexedINS_6BinaryEEEEE
	.quad	_ZN8opendnp318MeasurementHandler13ProcessHeaderERKNS_11RangeHeaderERKNS_11ICollectionINS_7IndexedINS_15DoubleBitBinaryEEEEE
	.quad	_ZN8opendnp318MeasurementHandler13ProcessHeaderERKNS_11RangeHeaderERKNS_11ICollectionINS_7IndexedINS_18BinaryOutputStatusEEEEE
	.quad	_ZN8opendnp318MeasurementHandler13ProcessHeaderERKNS_11RangeHeaderERKNS_11ICollectionINS_7IndexedINS_7CounterEEEEE
	.quad	_ZN8opendnp318MeasurementHandler13ProcessHeaderERKNS_11RangeHeaderERKNS_11ICollectionINS_7IndexedINS_13FrozenCounterEEEEE
	.quad	_ZN8opendnp318MeasurementHandler13ProcessHeaderERKNS_11RangeHeaderERKNS_11ICollectionINS_7IndexedINS_6AnalogEEEEE
	.quad	_ZN8opendnp318MeasurementHandler13ProcessHeaderERKNS_11RangeHeaderERKNS_11ICollectionINS_7IndexedINS_18AnalogOutputStatusEEEEE
	.quad	_ZN8opendnp318MeasurementHandler13ProcessHeaderERKNS_11RangeHeaderERKNS_11ICollectionINS_7IndexedINS_11OctetStringEEEEE
	.quad	_ZN8opendnp318MeasurementHandler13ProcessHeaderERKNS_11RangeHeaderERKNS_11ICollectionINS_7IndexedINS_15TimeAndIntervalEEEEE
	.quad	_ZN8opendnp318MeasurementHandler13ProcessHeaderERKNS_11RangeHeaderERKNS_11ICollectionINS_7IndexedINS_12Group121Var1EEEEE
	.quad	_ZN8opendnp318MeasurementHandler13ProcessHeaderERKNS_12PrefixHeaderERKNS_11ICollectionINS_7IndexedINS_6BinaryEEEEE
	.quad	_ZN8opendnp318MeasurementHandler13ProcessHeaderERKNS_12PrefixHeaderERKNS_11ICollectionINS_7IndexedINS_18BinaryOutputStatusEEEEE
	.quad	_ZN8opendnp318MeasurementHandler13ProcessHeaderERKNS_12PrefixHeaderERKNS_11ICollectionINS_7IndexedINS_15DoubleBitBinaryEEEEE
	.quad	_ZN8opendnp318MeasurementHandler13ProcessHeaderERKNS_12PrefixHeaderERKNS_11ICollectionINS_7IndexedINS_7CounterEEEEE
	.quad	_ZN8opendnp318MeasurementHandler13ProcessHeaderERKNS_12PrefixHeaderERKNS_11ICollectionINS_7IndexedINS_13FrozenCounterEEEEE
	.quad	_ZN8opendnp318MeasurementHandler13ProcessHeaderERKNS_12PrefixHeaderERKNS_11ICollectionINS_7IndexedINS_6AnalogEEEEE
	.quad	_ZN8opendnp318MeasurementHandler13ProcessHeaderERKNS_12PrefixHeaderERKNS_11ICollectionINS_7IndexedINS_18AnalogOutputStatusEEEEE
	.quad	_ZN8opendnp318MeasurementHandler13ProcessHeaderERKNS_12PrefixHeaderERKNS_11ICollectionINS_7IndexedINS_11OctetStringEEEEE
	.quad	_ZN8opendnp312IAPDUHandler13ProcessHeaderERKNS_12PrefixHeaderERKNS_11ICollectionINS_7IndexedINS_15TimeAndIntervalEEEEE
	.quad	_ZN8opendnp318MeasurementHandler13ProcessHeaderERKNS_12PrefixHeaderERKNS_11ICollectionINS_7IndexedINS_18BinaryCommandEventEEEEE
	.quad	_ZN8opendnp318MeasurementHandler13ProcessHeaderERKNS_12PrefixHeaderERKNS_11ICollectionINS_7IndexedINS_18AnalogCommandEventEEEEE
	.quad	_ZN8opendnp318MeasurementHandler13ProcessHeaderERKNS_12PrefixHeaderERKNS_11ICollectionINS_7IndexedINS_12Group122Var1EEEEE
	.quad	_ZN8opendnp318MeasurementHandler13ProcessHeaderERKNS_12PrefixHeaderERKNS_11ICollectionINS_7IndexedINS_12Group122Var2EEEEE
	.quad	_ZN8opendnp312IAPDUHandler13ProcessHeaderERKNS_12PrefixHeaderERKNS_11ICollectionINS_7IndexedINS_23ControlRelayOutputBlockEEEEE
	.quad	_ZN8opendnp312IAPDUHandler13ProcessHeaderERKNS_12PrefixHeaderERKNS_11ICollectionINS_7IndexedINS_17AnalogOutputInt16EEEEE
	.quad	_ZN8opendnp312IAPDUHandler13ProcessHeaderERKNS_12PrefixHeaderERKNS_11ICollectionINS_7IndexedINS_17AnalogOutputInt32EEEEE
	.quad	_ZN8opendnp312IAPDUHandler13ProcessHeaderERKNS_12PrefixHeaderERKNS_11ICollectionINS_7IndexedINS_19AnalogOutputFloat32EEEEE
	.quad	_ZN8opendnp312IAPDUHandler13ProcessHeaderERKNS_12PrefixHeaderERKNS_11ICollectionINS_7IndexedINS_20AnalogOutputDouble64EEEEE
	.quad	_ZN8opendnp312IAPDUHandler14OnHeaderResultERKNS_12HeaderRecordERKNS_8IINFieldE
	.weak	_ZTVN8opendnp321TransformedCollectionINS_7IndexedINS_12Group121Var1EEENS1_INS_12SecurityStatEEEZNS_18MeasurementHandler25LoadValuesWithTransformToIS4_S2_EENS_8IINFieldERKNS_12HeaderRecordERKNS_11ICollectionINS1_IT0_EEEEEUlRKS3_E_EE
	.section	.data.rel.ro._ZTVN8opendnp321TransformedCollectionINS_7IndexedINS_12Group121Var1EEENS1_INS_12SecurityStatEEEZNS_18MeasurementHandler25LoadValuesWithTransformToIS4_S2_EENS_8IINFieldERKNS_12HeaderRecordERKNS_11ICollectionINS1_IT0_EEEEEUlRKS3_E_EE,"awG",@progbits,_ZTVN8opendnp321TransformedCollectionINS_7IndexedINS_12Group121Var1EEENS1_INS_12SecurityStatEEEZNS_18MeasurementHandler25LoadValuesWithTransformToIS4_S2_EENS_8IINFieldERKNS_12HeaderRecordERKNS_11ICollectionINS1_IT0_EEEEEUlRKS3_E_EE,comdat
	.align 8
	.type	_ZTVN8opendnp321TransformedCollectionINS_7IndexedINS_12Group121Var1EEENS1_INS_12SecurityStatEEEZNS_18MeasurementHandler25LoadValuesWithTransformToIS4_S2_EENS_8IINFieldERKNS_12HeaderRecordERKNS_11ICollectionINS1_IT0_EEEEEUlRKS3_E_EE, @object
	.size	_ZTVN8opendnp321TransformedCollectionINS_7IndexedINS_12Group121Var1EEENS1_INS_12SecurityStatEEEZNS_18MeasurementHandler25LoadValuesWithTransformToIS4_S2_EENS_8IINFieldERKNS_12HeaderRecordERKNS_11ICollectionINS1_IT0_EEEEEUlRKS3_E_EE, 32
_ZTVN8opendnp321TransformedCollectionINS_7IndexedINS_12Group121Var1EEENS1_INS_12SecurityStatEEEZNS_18MeasurementHandler25LoadValuesWithTransformToIS4_S2_EENS_8IINFieldERKNS_12HeaderRecordERKNS_11ICollectionINS1_IT0_EEEEEUlRKS3_E_EE:
	.quad	0
	.quad	_ZTIN8opendnp321TransformedCollectionINS_7IndexedINS_12Group121Var1EEENS1_INS_12SecurityStatEEEZNS_18MeasurementHandler25LoadValuesWithTransformToIS4_S2_EENS_8IINFieldERKNS_12HeaderRecordERKNS_11ICollectionINS1_IT0_EEEEEUlRKS3_E_EE
	.quad	_ZNK8opendnp321TransformedCollectionINS_7IndexedINS_12Group121Var1EEENS1_INS_12SecurityStatEEEZNS_18MeasurementHandler25LoadValuesWithTransformToIS4_S2_EENS_8IINFieldERKNS_12HeaderRecordERKNS_11ICollectionINS1_IT0_EEEEEUlRKS3_E_E5CountEv
	.quad	_ZNK8opendnp321TransformedCollectionINS_7IndexedINS_12Group121Var1EEENS1_INS_12SecurityStatEEEZNS_18MeasurementHandler25LoadValuesWithTransformToIS4_S2_EENS_8IINFieldERKNS_12HeaderRecordERKNS_11ICollectionINS1_IT0_EEEEEUlRKS3_E_E7ForeachERNS_8IVisitorIS5_EE
	.weak	_ZTVN8opendnp321TransformedCollectionINS_7IndexedINS_6BinaryEEES3_ZNS_18MeasurementHandler14ProcessWithCTOIS2_EENS_8IINFieldERKNS_12HeaderRecordERKNS_11ICollectionINS1_IT_EEEEEUlRKS3_E_EE
	.section	.data.rel.ro._ZTVN8opendnp321TransformedCollectionINS_7IndexedINS_6BinaryEEES3_ZNS_18MeasurementHandler14ProcessWithCTOIS2_EENS_8IINFieldERKNS_12HeaderRecordERKNS_11ICollectionINS1_IT_EEEEEUlRKS3_E_EE,"awG",@progbits,_ZTVN8opendnp321TransformedCollectionINS_7IndexedINS_6BinaryEEES3_ZNS_18MeasurementHandler14ProcessWithCTOIS2_EENS_8IINFieldERKNS_12HeaderRecordERKNS_11ICollectionINS1_IT_EEEEEUlRKS3_E_EE,comdat
	.align 8
	.type	_ZTVN8opendnp321TransformedCollectionINS_7IndexedINS_6BinaryEEES3_ZNS_18MeasurementHandler14ProcessWithCTOIS2_EENS_8IINFieldERKNS_12HeaderRecordERKNS_11ICollectionINS1_IT_EEEEEUlRKS3_E_EE, @object
	.size	_ZTVN8opendnp321TransformedCollectionINS_7IndexedINS_6BinaryEEES3_ZNS_18MeasurementHandler14ProcessWithCTOIS2_EENS_8IINFieldERKNS_12HeaderRecordERKNS_11ICollectionINS1_IT_EEEEEUlRKS3_E_EE, 32
_ZTVN8opendnp321TransformedCollectionINS_7IndexedINS_6BinaryEEES3_ZNS_18MeasurementHandler14ProcessWithCTOIS2_EENS_8IINFieldERKNS_12HeaderRecordERKNS_11ICollectionINS1_IT_EEEEEUlRKS3_E_EE:
	.quad	0
	.quad	_ZTIN8opendnp321TransformedCollectionINS_7IndexedINS_6BinaryEEES3_ZNS_18MeasurementHandler14ProcessWithCTOIS2_EENS_8IINFieldERKNS_12HeaderRecordERKNS_11ICollectionINS1_IT_EEEEEUlRKS3_E_EE
	.quad	_ZNK8opendnp321TransformedCollectionINS_7IndexedINS_6BinaryEEES3_ZNS_18MeasurementHandler14ProcessWithCTOIS2_EENS_8IINFieldERKNS_12HeaderRecordERKNS_11ICollectionINS1_IT_EEEEEUlRKS3_E_E5CountEv
	.quad	_ZNK8opendnp321TransformedCollectionINS_7IndexedINS_6BinaryEEES3_ZNS_18MeasurementHandler14ProcessWithCTOIS2_EENS_8IINFieldERKNS_12HeaderRecordERKNS_11ICollectionINS1_IT_EEEEEUlRKS3_E_E7ForeachERNS_8IVisitorIS3_EE
	.weak	_ZTVN8opendnp321TransformedCollectionINS_7IndexedINS_15DoubleBitBinaryEEES3_ZNS_18MeasurementHandler14ProcessWithCTOIS2_EENS_8IINFieldERKNS_12HeaderRecordERKNS_11ICollectionINS1_IT_EEEEEUlRKS3_E_EE
	.section	.data.rel.ro._ZTVN8opendnp321TransformedCollectionINS_7IndexedINS_15DoubleBitBinaryEEES3_ZNS_18MeasurementHandler14ProcessWithCTOIS2_EENS_8IINFieldERKNS_12HeaderRecordERKNS_11ICollectionINS1_IT_EEEEEUlRKS3_E_EE,"awG",@progbits,_ZTVN8opendnp321TransformedCollectionINS_7IndexedINS_15DoubleBitBinaryEEES3_ZNS_18MeasurementHandler14ProcessWithCTOIS2_EENS_8IINFieldERKNS_12HeaderRecordERKNS_11ICollectionINS1_IT_EEEEEUlRKS3_E_EE,comdat
	.align 8
	.type	_ZTVN8opendnp321TransformedCollectionINS_7IndexedINS_15DoubleBitBinaryEEES3_ZNS_18MeasurementHandler14ProcessWithCTOIS2_EENS_8IINFieldERKNS_12HeaderRecordERKNS_11ICollectionINS1_IT_EEEEEUlRKS3_E_EE, @object
	.size	_ZTVN8opendnp321TransformedCollectionINS_7IndexedINS_15DoubleBitBinaryEEES3_ZNS_18MeasurementHandler14ProcessWithCTOIS2_EENS_8IINFieldERKNS_12HeaderRecordERKNS_11ICollectionINS1_IT_EEEEEUlRKS3_E_EE, 32
_ZTVN8opendnp321TransformedCollectionINS_7IndexedINS_15DoubleBitBinaryEEES3_ZNS_18MeasurementHandler14ProcessWithCTOIS2_EENS_8IINFieldERKNS_12HeaderRecordERKNS_11ICollectionINS1_IT_EEEEEUlRKS3_E_EE:
	.quad	0
	.quad	_ZTIN8opendnp321TransformedCollectionINS_7IndexedINS_15DoubleBitBinaryEEES3_ZNS_18MeasurementHandler14ProcessWithCTOIS2_EENS_8IINFieldERKNS_12HeaderRecordERKNS_11ICollectionINS1_IT_EEEEEUlRKS3_E_EE
	.quad	_ZNK8opendnp321TransformedCollectionINS_7IndexedINS_15DoubleBitBinaryEEES3_ZNS_18MeasurementHandler14ProcessWithCTOIS2_EENS_8IINFieldERKNS_12HeaderRecordERKNS_11ICollectionINS1_IT_EEEEEUlRKS3_E_E5CountEv
	.quad	_ZNK8opendnp321TransformedCollectionINS_7IndexedINS_15DoubleBitBinaryEEES3_ZNS_18MeasurementHandler14ProcessWithCTOIS2_EENS_8IINFieldERKNS_12HeaderRecordERKNS_11ICollectionINS1_IT_EEEEEUlRKS3_E_E7ForeachERNS_8IVisitorIS3_EE
	.weak	_ZTVN8opendnp321TransformedCollectionINS_7IndexedINS_12Group122Var1EEENS1_INS_12SecurityStatEEEZNS_18MeasurementHandler25LoadValuesWithTransformToIS4_S2_EENS_8IINFieldERKNS_12HeaderRecordERKNS_11ICollectionINS1_IT0_EEEEEUlRKS3_E_EE
	.section	.data.rel.ro._ZTVN8opendnp321TransformedCollectionINS_7IndexedINS_12Group122Var1EEENS1_INS_12SecurityStatEEEZNS_18MeasurementHandler25LoadValuesWithTransformToIS4_S2_EENS_8IINFieldERKNS_12HeaderRecordERKNS_11ICollectionINS1_IT0_EEEEEUlRKS3_E_EE,"awG",@progbits,_ZTVN8opendnp321TransformedCollectionINS_7IndexedINS_12Group122Var1EEENS1_INS_12SecurityStatEEEZNS_18MeasurementHandler25LoadValuesWithTransformToIS4_S2_EENS_8IINFieldERKNS_12HeaderRecordERKNS_11ICollectionINS1_IT0_EEEEEUlRKS3_E_EE,comdat
	.align 8
	.type	_ZTVN8opendnp321TransformedCollectionINS_7IndexedINS_12Group122Var1EEENS1_INS_12SecurityStatEEEZNS_18MeasurementHandler25LoadValuesWithTransformToIS4_S2_EENS_8IINFieldERKNS_12HeaderRecordERKNS_11ICollectionINS1_IT0_EEEEEUlRKS3_E_EE, @object
	.size	_ZTVN8opendnp321TransformedCollectionINS_7IndexedINS_12Group122Var1EEENS1_INS_12SecurityStatEEEZNS_18MeasurementHandler25LoadValuesWithTransformToIS4_S2_EENS_8IINFieldERKNS_12HeaderRecordERKNS_11ICollectionINS1_IT0_EEEEEUlRKS3_E_EE, 32
_ZTVN8opendnp321TransformedCollectionINS_7IndexedINS_12Group122Var1EEENS1_INS_12SecurityStatEEEZNS_18MeasurementHandler25LoadValuesWithTransformToIS4_S2_EENS_8IINFieldERKNS_12HeaderRecordERKNS_11ICollectionINS1_IT0_EEEEEUlRKS3_E_EE:
	.quad	0
	.quad	_ZTIN8opendnp321TransformedCollectionINS_7IndexedINS_12Group122Var1EEENS1_INS_12SecurityStatEEEZNS_18MeasurementHandler25LoadValuesWithTransformToIS4_S2_EENS_8IINFieldERKNS_12HeaderRecordERKNS_11ICollectionINS1_IT0_EEEEEUlRKS3_E_EE
	.quad	_ZNK8opendnp321TransformedCollectionINS_7IndexedINS_12Group122Var1EEENS1_INS_12SecurityStatEEEZNS_18MeasurementHandler25LoadValuesWithTransformToIS4_S2_EENS_8IINFieldERKNS_12HeaderRecordERKNS_11ICollectionINS1_IT0_EEEEEUlRKS3_E_E5CountEv
	.quad	_ZNK8opendnp321TransformedCollectionINS_7IndexedINS_12Group122Var1EEENS1_INS_12SecurityStatEEEZNS_18MeasurementHandler25LoadValuesWithTransformToIS4_S2_EENS_8IINFieldERKNS_12HeaderRecordERKNS_11ICollectionINS1_IT0_EEEEEUlRKS3_E_E7ForeachERNS_8IVisitorIS5_EE
	.weak	_ZTVN8opendnp321TransformedCollectionINS_7IndexedINS_12Group122Var2EEENS1_INS_12SecurityStatEEEZNS_18MeasurementHandler25LoadValuesWithTransformToIS4_S2_EENS_8IINFieldERKNS_12HeaderRecordERKNS_11ICollectionINS1_IT0_EEEEEUlRKS3_E_EE
	.section	.data.rel.ro._ZTVN8opendnp321TransformedCollectionINS_7IndexedINS_12Group122Var2EEENS1_INS_12SecurityStatEEEZNS_18MeasurementHandler25LoadValuesWithTransformToIS4_S2_EENS_8IINFieldERKNS_12HeaderRecordERKNS_11ICollectionINS1_IT0_EEEEEUlRKS3_E_EE,"awG",@progbits,_ZTVN8opendnp321TransformedCollectionINS_7IndexedINS_12Group122Var2EEENS1_INS_12SecurityStatEEEZNS_18MeasurementHandler25LoadValuesWithTransformToIS4_S2_EENS_8IINFieldERKNS_12HeaderRecordERKNS_11ICollectionINS1_IT0_EEEEEUlRKS3_E_EE,comdat
	.align 8
	.type	_ZTVN8opendnp321TransformedCollectionINS_7IndexedINS_12Group122Var2EEENS1_INS_12SecurityStatEEEZNS_18MeasurementHandler25LoadValuesWithTransformToIS4_S2_EENS_8IINFieldERKNS_12HeaderRecordERKNS_11ICollectionINS1_IT0_EEEEEUlRKS3_E_EE, @object
	.size	_ZTVN8opendnp321TransformedCollectionINS_7IndexedINS_12Group122Var2EEENS1_INS_12SecurityStatEEEZNS_18MeasurementHandler25LoadValuesWithTransformToIS4_S2_EENS_8IINFieldERKNS_12HeaderRecordERKNS_11ICollectionINS1_IT0_EEEEEUlRKS3_E_EE, 32
_ZTVN8opendnp321TransformedCollectionINS_7IndexedINS_12Group122Var2EEENS1_INS_12SecurityStatEEEZNS_18MeasurementHandler25LoadValuesWithTransformToIS4_S2_EENS_8IINFieldERKNS_12HeaderRecordERKNS_11ICollectionINS1_IT0_EEEEEUlRKS3_E_EE:
	.quad	0
	.quad	_ZTIN8opendnp321TransformedCollectionINS_7IndexedINS_12Group122Var2EEENS1_INS_12SecurityStatEEEZNS_18MeasurementHandler25LoadValuesWithTransformToIS4_S2_EENS_8IINFieldERKNS_12HeaderRecordERKNS_11ICollectionINS1_IT0_EEEEEUlRKS3_E_EE
	.quad	_ZNK8opendnp321TransformedCollectionINS_7IndexedINS_12Group122Var2EEENS1_INS_12SecurityStatEEEZNS_18MeasurementHandler25LoadValuesWithTransformToIS4_S2_EENS_8IINFieldERKNS_12HeaderRecordERKNS_11ICollectionINS1_IT0_EEEEEUlRKS3_E_E5CountEv
	.quad	_ZNK8opendnp321TransformedCollectionINS_7IndexedINS_12Group122Var2EEENS1_INS_12SecurityStatEEEZNS_18MeasurementHandler25LoadValuesWithTransformToIS4_S2_EENS_8IINFieldERKNS_12HeaderRecordERKNS_11ICollectionINS1_IT0_EEEEEUlRKS3_E_E7ForeachERNS_8IVisitorIS5_EE
	.weak	_ZTVN8opendnp314FunctorVisitorINS_11Group51Var1EZNKS_11ICollectionIS1_E13ReadOnlyValueERS1_EUlRKS1_E_EE
	.section	.data.rel.ro._ZTVN8opendnp314FunctorVisitorINS_11Group51Var1EZNKS_11ICollectionIS1_E13ReadOnlyValueERS1_EUlRKS1_E_EE,"awG",@progbits,_ZTVN8opendnp314FunctorVisitorINS_11Group51Var1EZNKS_11ICollectionIS1_E13ReadOnlyValueERS1_EUlRKS1_E_EE,comdat
	.align 8
	.type	_ZTVN8opendnp314FunctorVisitorINS_11Group51Var1EZNKS_11ICollectionIS1_E13ReadOnlyValueERS1_EUlRKS1_E_EE, @object
	.size	_ZTVN8opendnp314FunctorVisitorINS_11Group51Var1EZNKS_11ICollectionIS1_E13ReadOnlyValueERS1_EUlRKS1_E_EE, 24
_ZTVN8opendnp314FunctorVisitorINS_11Group51Var1EZNKS_11ICollectionIS1_E13ReadOnlyValueERS1_EUlRKS1_E_EE:
	.quad	0
	.quad	_ZTIN8opendnp314FunctorVisitorINS_11Group51Var1EZNKS_11ICollectionIS1_E13ReadOnlyValueERS1_EUlRKS1_E_EE
	.quad	_ZN8opendnp314FunctorVisitorINS_11Group51Var1EZNKS_11ICollectionIS1_E13ReadOnlyValueERS1_EUlRKS1_E_E7OnValueES6_
	.weak	_ZTVN8opendnp314FunctorVisitorINS_11Group51Var2EZNKS_11ICollectionIS1_E13ReadOnlyValueERS1_EUlRKS1_E_EE
	.section	.data.rel.ro._ZTVN8opendnp314FunctorVisitorINS_11Group51Var2EZNKS_11ICollectionIS1_E13ReadOnlyValueERS1_EUlRKS1_E_EE,"awG",@progbits,_ZTVN8opendnp314FunctorVisitorINS_11Group51Var2EZNKS_11ICollectionIS1_E13ReadOnlyValueERS1_EUlRKS1_E_EE,comdat
	.align 8
	.type	_ZTVN8opendnp314FunctorVisitorINS_11Group51Var2EZNKS_11ICollectionIS1_E13ReadOnlyValueERS1_EUlRKS1_E_EE, @object
	.size	_ZTVN8opendnp314FunctorVisitorINS_11Group51Var2EZNKS_11ICollectionIS1_E13ReadOnlyValueERS1_EUlRKS1_E_EE, 24
_ZTVN8opendnp314FunctorVisitorINS_11Group51Var2EZNKS_11ICollectionIS1_E13ReadOnlyValueERS1_EUlRKS1_E_EE:
	.quad	0
	.quad	_ZTIN8opendnp314FunctorVisitorINS_11Group51Var2EZNKS_11ICollectionIS1_E13ReadOnlyValueERS1_EUlRKS1_E_EE
	.quad	_ZN8opendnp314FunctorVisitorINS_11Group51Var2EZNKS_11ICollectionIS1_E13ReadOnlyValueERS1_EUlRKS1_E_E7OnValueES6_
	.weakref	_ZL28__gthrw___pthread_key_createPjPFvPvE,__pthread_key_create
	.hidden	DW.ref.__gxx_personality_v0
	.weak	DW.ref.__gxx_personality_v0
	.section	.data.rel.local.DW.ref.__gxx_personality_v0,"awG",@progbits,DW.ref.__gxx_personality_v0,comdat
	.align 8
	.type	DW.ref.__gxx_personality_v0, @object
	.size	DW.ref.__gxx_personality_v0, 8
DW.ref.__gxx_personality_v0:
	.quad	__gxx_personality_v0
	.ident	"GCC: (Ubuntu 7.5.0-3ubuntu1~18.04) 7.5.0"
	.section	.note.GNU-stack,"",@progbits
