	.file	"OutstationStack.cpp"
	.text
	.section	.rodata._ZNK4asio6detail15system_category4nameEv.str1.1,"aMS",@progbits,1
.LC0:
	.string	"asio.system"
	.section	.text._ZNK4asio6detail15system_category4nameEv,"axG",@progbits,_ZNK4asio6detail15system_category4nameEv,comdat
	.align 2
	.p2align 4,,15
	.weak	_ZNK4asio6detail15system_category4nameEv
	.type	_ZNK4asio6detail15system_category4nameEv, @function
_ZNK4asio6detail15system_category4nameEv:
.LFB2689:
	.cfi_startproc
	leaq	.LC0(%rip), %rax
	ret
	.cfi_endproc
.LFE2689:
	.size	_ZNK4asio6detail15system_category4nameEv, .-_ZNK4asio6detail15system_category4nameEv
	.section	.rodata._ZNK4asio5error6detail14netdb_category4nameEv.str1.1,"aMS",@progbits,1
.LC1:
	.string	"asio.netdb"
	.section	.text._ZNK4asio5error6detail14netdb_category4nameEv,"axG",@progbits,_ZNK4asio5error6detail14netdb_category4nameEv,comdat
	.align 2
	.p2align 4,,15
	.weak	_ZNK4asio5error6detail14netdb_category4nameEv
	.type	_ZNK4asio5error6detail14netdb_category4nameEv, @function
_ZNK4asio5error6detail14netdb_category4nameEv:
.LFB2729:
	.cfi_startproc
	leaq	.LC1(%rip), %rax
	ret
	.cfi_endproc
.LFE2729:
	.size	_ZNK4asio5error6detail14netdb_category4nameEv, .-_ZNK4asio5error6detail14netdb_category4nameEv
	.section	.rodata._ZNK4asio5error6detail17addrinfo_category4nameEv.str1.1,"aMS",@progbits,1
.LC2:
	.string	"asio.addrinfo"
	.section	.text._ZNK4asio5error6detail17addrinfo_category4nameEv,"axG",@progbits,_ZNK4asio5error6detail17addrinfo_category4nameEv,comdat
	.align 2
	.p2align 4,,15
	.weak	_ZNK4asio5error6detail17addrinfo_category4nameEv
	.type	_ZNK4asio5error6detail17addrinfo_category4nameEv, @function
_ZNK4asio5error6detail17addrinfo_category4nameEv:
.LFB2735:
	.cfi_startproc
	leaq	.LC2(%rip), %rax
	ret
	.cfi_endproc
.LFE2735:
	.size	_ZNK4asio5error6detail17addrinfo_category4nameEv, .-_ZNK4asio5error6detail17addrinfo_category4nameEv
	.section	.rodata._ZNK4asio5error6detail13misc_category4nameEv.str1.1,"aMS",@progbits,1
.LC3:
	.string	"asio.misc"
	.section	.text._ZNK4asio5error6detail13misc_category4nameEv,"axG",@progbits,_ZNK4asio5error6detail13misc_category4nameEv,comdat
	.align 2
	.p2align 4,,15
	.weak	_ZNK4asio5error6detail13misc_category4nameEv
	.type	_ZNK4asio5error6detail13misc_category4nameEv, @function
_ZNK4asio5error6detail13misc_category4nameEv:
.LFB2741:
	.cfi_startproc
	leaq	.LC3(%rip), %rax
	ret
	.cfi_endproc
.LFE2741:
	.size	_ZNK4asio5error6detail13misc_category4nameEv, .-_ZNK4asio5error6detail13misc_category4nameEv
	.section	.text._ZNSt13__future_base13_State_baseV217_M_complete_asyncEv,"axG",@progbits,_ZNSt13__future_base13_State_baseV217_M_complete_asyncEv,comdat
	.align 2
	.p2align 4,,15
	.weak	_ZNSt13__future_base13_State_baseV217_M_complete_asyncEv
	.type	_ZNSt13__future_base13_State_baseV217_M_complete_asyncEv, @function
_ZNSt13__future_base13_State_baseV217_M_complete_asyncEv:
.LFB6677:
	.cfi_startproc
	rep ret
	.cfi_endproc
.LFE6677:
	.size	_ZNSt13__future_base13_State_baseV217_M_complete_asyncEv, .-_ZNSt13__future_base13_State_baseV217_M_complete_asyncEv
	.section	.text._ZNKSt13__future_base13_State_baseV221_M_is_deferred_futureEv,"axG",@progbits,_ZNKSt13__future_base13_State_baseV221_M_is_deferred_futureEv,comdat
	.align 2
	.p2align 4,,15
	.weak	_ZNKSt13__future_base13_State_baseV221_M_is_deferred_futureEv
	.type	_ZNKSt13__future_base13_State_baseV221_M_is_deferred_futureEv, @function
_ZNKSt13__future_base13_State_baseV221_M_is_deferred_futureEv:
.LFB6678:
	.cfi_startproc
	xorl	%eax, %eax
	ret
	.cfi_endproc
.LFE6678:
	.size	_ZNKSt13__future_base13_State_baseV221_M_is_deferred_futureEv, .-_ZNKSt13__future_base13_State_baseV221_M_is_deferred_futureEv
	.section	.text._ZZSt9call_onceIMNSt13__future_base13_State_baseV2EFvPSt8functionIFSt10unique_ptrINS0_12_Result_baseENS4_8_DeleterEEvEEPbEJPS1_S9_SA_EEvRSt9once_flagOT_DpOT0_ENUlvE0_4_FUNEv,"axG",@progbits,_ZZSt9call_onceIMNSt13__future_base13_State_baseV2EFvPSt8functionIFSt10unique_ptrINS0_12_Result_baseENS4_8_DeleterEEvEEPbEJPS1_S9_SA_EEvRSt9once_flagOT_DpOT0_ENKUlvE0_clEv,comdat
	.p2align 4,,15
	.weak	_ZZSt9call_onceIMNSt13__future_base13_State_baseV2EFvPSt8functionIFSt10unique_ptrINS0_12_Result_baseENS4_8_DeleterEEvEEPbEJPS1_S9_SA_EEvRSt9once_flagOT_DpOT0_ENUlvE0_4_FUNEv
	.type	_ZZSt9call_onceIMNSt13__future_base13_State_baseV2EFvPSt8functionIFSt10unique_ptrINS0_12_Result_baseENS4_8_DeleterEEvEEPbEJPS1_S9_SA_EEvRSt9once_flagOT_DpOT0_ENUlvE0_4_FUNEv, @function
_ZZSt9call_onceIMNSt13__future_base13_State_baseV2EFvPSt8functionIFSt10unique_ptrINS0_12_Result_baseENS4_8_DeleterEEvEEPbEJPS1_S9_SA_EEvRSt9once_flagOT_DpOT0_ENUlvE0_4_FUNEv:
.LFB8921:
	.cfi_startproc
	subq	$8, %rsp
	.cfi_def_cfa_offset 16
	.byte	0x66
	leaq	_ZSt15__once_callable@tlsgd(%rip), %rdi
	.value	0x6666
	rex64
	call	__tls_get_addr@PLT
	movq	(%rax), %rax
	movq	16(%rax), %rdx
	movq	(%rax), %rcx
	movq	(%rdx), %rsi
	movq	24(%rax), %rdx
	movq	8(%rax), %rax
	movq	8(%rcx), %rdi
	movq	(%rdx), %rdx
	addq	(%rax), %rdi
	movq	(%rcx), %rax
	testb	$1, %al
	je	.L9
	movq	(%rdi), %rcx
	movq	-1(%rcx,%rax), %rax
.L9:
	addq	$8, %rsp
	.cfi_def_cfa_offset 8
	jmp	*%rax
	.cfi_endproc
.LFE8921:
	.size	_ZZSt9call_onceIMNSt13__future_base13_State_baseV2EFvPSt8functionIFSt10unique_ptrINS0_12_Result_baseENS4_8_DeleterEEvEEPbEJPS1_S9_SA_EEvRSt9once_flagOT_DpOT0_ENUlvE0_4_FUNEv, .-_ZZSt9call_onceIMNSt13__future_base13_State_baseV2EFvPSt8functionIFSt10unique_ptrINS0_12_Result_baseENS4_8_DeleterEEvEEPbEJPS1_S9_SA_EEvRSt9once_flagOT_DpOT0_ENUlvE0_4_FUNEv
	.section	.text._ZNSt15__exception_ptr12__dest_thunkISt12future_errorEEvPv,"axG",@progbits,_ZNSt15__exception_ptr12__dest_thunkISt12future_errorEEvPv,comdat
	.p2align 4,,15
	.weak	_ZNSt15__exception_ptr12__dest_thunkISt12future_errorEEvPv
	.type	_ZNSt15__exception_ptr12__dest_thunkISt12future_errorEEvPv, @function
_ZNSt15__exception_ptr12__dest_thunkISt12future_errorEEvPv:
.LFB9689:
	.cfi_startproc
	movq	(%rdi), %rax
	jmp	*(%rax)
	.cfi_endproc
.LFE9689:
	.size	_ZNSt15__exception_ptr12__dest_thunkISt12future_errorEEvPv, .-_ZNSt15__exception_ptr12__dest_thunkISt12future_errorEEvPv
	.section	.text._ZNSt17_Function_handlerIFSt10unique_ptrINSt13__future_base12_Result_baseENS2_8_DeleterEEvENS1_13_State_baseV27_SetterIbObEEE9_M_invokeERKSt9_Any_data,"axG",@progbits,_ZNSt17_Function_handlerIFSt10unique_ptrINSt13__future_base12_Result_baseENS2_8_DeleterEEvENS1_13_State_baseV27_SetterIbObEEE9_M_invokeERKSt9_Any_data,comdat
	.p2align 4,,15
	.weak	_ZNSt17_Function_handlerIFSt10unique_ptrINSt13__future_base12_Result_baseENS2_8_DeleterEEvENS1_13_State_baseV27_SetterIbObEEE9_M_invokeERKSt9_Any_data
	.type	_ZNSt17_Function_handlerIFSt10unique_ptrINSt13__future_base12_Result_baseENS2_8_DeleterEEvENS1_13_State_baseV27_SetterIbObEEE9_M_invokeERKSt9_Any_data, @function
_ZNSt17_Function_handlerIFSt10unique_ptrINSt13__future_base12_Result_baseENS2_8_DeleterEEvENS1_13_State_baseV27_SetterIbObEEE9_M_invokeERKSt9_Any_data:
.LFB10695:
	.cfi_startproc
	movq	8(%rsi), %rcx
	movq	(%rsi), %rdx
	movq	%rdi, %rax
	movzbl	(%rcx), %ecx
	movq	16(%rdx), %rdx
	movb	$1, 17(%rdx)
	movb	%cl, 16(%rdx)
	movq	(%rsi), %rdx
	movq	16(%rdx), %rcx
	movq	$0, 16(%rdx)
	movq	%rcx, (%rdi)
	ret
	.cfi_endproc
.LFE10695:
	.size	_ZNSt17_Function_handlerIFSt10unique_ptrINSt13__future_base12_Result_baseENS2_8_DeleterEEvENS1_13_State_baseV27_SetterIbObEEE9_M_invokeERKSt9_Any_data, .-_ZNSt17_Function_handlerIFSt10unique_ptrINSt13__future_base12_Result_baseENS2_8_DeleterEEvENS1_13_State_baseV27_SetterIbObEEE9_M_invokeERKSt9_Any_data
	.section	.text._ZNSt14_Function_base13_Base_managerINSt13__future_base13_State_baseV27_SetterIbObEEE10_M_managerERSt9_Any_dataRKS7_St18_Manager_operation,"axG",@progbits,_ZNSt14_Function_base13_Base_managerINSt13__future_base13_State_baseV27_SetterIbObEEE10_M_managerERSt9_Any_dataRKS7_St18_Manager_operation,comdat
	.p2align 4,,15
	.weak	_ZNSt14_Function_base13_Base_managerINSt13__future_base13_State_baseV27_SetterIbObEEE10_M_managerERSt9_Any_dataRKS7_St18_Manager_operation
	.type	_ZNSt14_Function_base13_Base_managerINSt13__future_base13_State_baseV27_SetterIbObEEE10_M_managerERSt9_Any_dataRKS7_St18_Manager_operation, @function
_ZNSt14_Function_base13_Base_managerINSt13__future_base13_State_baseV27_SetterIbObEEE10_M_managerERSt9_Any_dataRKS7_St18_Manager_operation:
.LFB10696:
	.cfi_startproc
	cmpl	$1, %edx
	je	.L18
	jb	.L19
	cmpl	$2, %edx
	jne	.L17
	movdqu	(%rsi), %xmm0
	movups	%xmm0, (%rdi)
.L17:
	xorl	%eax, %eax
	ret
	.p2align 4,,10
	.p2align 3
.L19:
	movq	_ZTINSt13__future_base13_State_baseV27_SetterIbObEE@GOTPCREL(%rip), %rax
	movq	%rax, (%rdi)
	xorl	%eax, %eax
	ret
	.p2align 4,,10
	.p2align 3
.L18:
	movq	%rsi, (%rdi)
	xorl	%eax, %eax
	ret
	.cfi_endproc
.LFE10696:
	.size	_ZNSt14_Function_base13_Base_managerINSt13__future_base13_State_baseV27_SetterIbObEEE10_M_managerERSt9_Any_dataRKS7_St18_Manager_operation, .-_ZNSt14_Function_base13_Base_managerINSt13__future_base13_State_baseV27_SetterIbObEEE10_M_managerERSt9_Any_dataRKS7_St18_Manager_operation
	.section	.text._ZNSt17_Function_handlerIFSt10unique_ptrINSt13__future_base12_Result_baseENS2_8_DeleterEEvENS1_13_State_baseV27_SetterIN8opendnp315StackStatisticsEOS9_EEE9_M_invokeERKSt9_Any_data,"axG",@progbits,_ZNSt17_Function_handlerIFSt10unique_ptrINSt13__future_base12_Result_baseENS2_8_DeleterEEvENS1_13_State_baseV27_SetterIN8opendnp315StackStatisticsEOS9_EEE9_M_invokeERKSt9_Any_data,comdat
	.p2align 4,,15
	.weak	_ZNSt17_Function_handlerIFSt10unique_ptrINSt13__future_base12_Result_baseENS2_8_DeleterEEvENS1_13_State_baseV27_SetterIN8opendnp315StackStatisticsEOS9_EEE9_M_invokeERKSt9_Any_data
	.type	_ZNSt17_Function_handlerIFSt10unique_ptrINSt13__future_base12_Result_baseENS2_8_DeleterEEvENS1_13_State_baseV27_SetterIN8opendnp315StackStatisticsEOS9_EEE9_M_invokeERKSt9_Any_data, @function
_ZNSt17_Function_handlerIFSt10unique_ptrINSt13__future_base12_Result_baseENS2_8_DeleterEEvENS1_13_State_baseV27_SetterIN8opendnp315StackStatisticsEOS9_EEE9_M_invokeERKSt9_Any_data:
.LFB10747:
	.cfi_startproc
	movq	(%rsi), %rdx
	movq	8(%rsi), %rcx
	movq	%rdi, %rax
	movq	16(%rdx), %rdx
	movdqu	(%rcx), %xmm0
	movups	%xmm0, 16(%rdx)
	movdqu	16(%rcx), %xmm0
	movups	%xmm0, 32(%rdx)
	movq	32(%rcx), %rcx
	movb	$1, 56(%rdx)
	movq	%rcx, 48(%rdx)
	movq	(%rsi), %rdx
	movq	16(%rdx), %rcx
	movq	$0, 16(%rdx)
	movq	%rcx, (%rdi)
	ret
	.cfi_endproc
.LFE10747:
	.size	_ZNSt17_Function_handlerIFSt10unique_ptrINSt13__future_base12_Result_baseENS2_8_DeleterEEvENS1_13_State_baseV27_SetterIN8opendnp315StackStatisticsEOS9_EEE9_M_invokeERKSt9_Any_data, .-_ZNSt17_Function_handlerIFSt10unique_ptrINSt13__future_base12_Result_baseENS2_8_DeleterEEvENS1_13_State_baseV27_SetterIN8opendnp315StackStatisticsEOS9_EEE9_M_invokeERKSt9_Any_data
	.section	.text._ZNSt14_Function_base13_Base_managerINSt13__future_base13_State_baseV27_SetterIN8opendnp315StackStatisticsEOS5_EEE10_M_managerERSt9_Any_dataRKS9_St18_Manager_operation,"axG",@progbits,_ZNSt14_Function_base13_Base_managerINSt13__future_base13_State_baseV27_SetterIN8opendnp315StackStatisticsEOS5_EEE10_M_managerERSt9_Any_dataRKS9_St18_Manager_operation,comdat
	.p2align 4,,15
	.weak	_ZNSt14_Function_base13_Base_managerINSt13__future_base13_State_baseV27_SetterIN8opendnp315StackStatisticsEOS5_EEE10_M_managerERSt9_Any_dataRKS9_St18_Manager_operation
	.type	_ZNSt14_Function_base13_Base_managerINSt13__future_base13_State_baseV27_SetterIN8opendnp315StackStatisticsEOS5_EEE10_M_managerERSt9_Any_dataRKS9_St18_Manager_operation, @function
_ZNSt14_Function_base13_Base_managerINSt13__future_base13_State_baseV27_SetterIN8opendnp315StackStatisticsEOS5_EEE10_M_managerERSt9_Any_dataRKS9_St18_Manager_operation:
.LFB10748:
	.cfi_startproc
	cmpl	$1, %edx
	je	.L24
	jb	.L25
	cmpl	$2, %edx
	jne	.L23
	movdqu	(%rsi), %xmm0
	movups	%xmm0, (%rdi)
.L23:
	xorl	%eax, %eax
	ret
	.p2align 4,,10
	.p2align 3
.L25:
	movq	_ZTINSt13__future_base13_State_baseV27_SetterIN8opendnp315StackStatisticsEOS3_EE@GOTPCREL(%rip), %rax
	movq	%rax, (%rdi)
	xorl	%eax, %eax
	ret
	.p2align 4,,10
	.p2align 3
.L24:
	movq	%rsi, (%rdi)
	xorl	%eax, %eax
	ret
	.cfi_endproc
.LFE10748:
	.size	_ZNSt14_Function_base13_Base_managerINSt13__future_base13_State_baseV27_SetterIN8opendnp315StackStatisticsEOS5_EEE10_M_managerERSt9_Any_dataRKS9_St18_Manager_operation, .-_ZNSt14_Function_base13_Base_managerINSt13__future_base13_State_baseV27_SetterIN8opendnp315StackStatisticsEOS5_EEE10_M_managerERSt9_Any_dataRKS9_St18_Manager_operation
	.section	.text._ZNSt13__future_base13_State_baseV2D2Ev,"axG",@progbits,_ZNSt13__future_base13_State_baseV2D5Ev,comdat
	.align 2
	.p2align 4,,15
	.weak	_ZNSt13__future_base13_State_baseV2D2Ev
	.type	_ZNSt13__future_base13_State_baseV2D2Ev, @function
_ZNSt13__future_base13_State_baseV2D2Ev:
.LFB11545:
	.cfi_startproc
	.cfi_personality 0x9b,DW.ref.__gxx_personality_v0
	.cfi_lsda 0x1b,.LLSDA11545
	movq	_ZTVNSt13__future_base13_State_baseV2E@GOTPCREL(%rip), %rax
	addq	$16, %rax
	movq	%rax, (%rdi)
	movq	8(%rdi), %rdi
	testq	%rdi, %rdi
	je	.L27
	movq	(%rdi), %rax
	jmp	*(%rax)
	.p2align 4,,10
	.p2align 3
.L27:
	rep ret
	.cfi_endproc
.LFE11545:
	.globl	__gxx_personality_v0
	.section	.gcc_except_table._ZNSt13__future_base13_State_baseV2D2Ev,"aG",@progbits,_ZNSt13__future_base13_State_baseV2D5Ev,comdat
.LLSDA11545:
	.byte	0xff
	.byte	0xff
	.byte	0x1
	.uleb128 .LLSDACSE11545-.LLSDACSB11545
.LLSDACSB11545:
.LLSDACSE11545:
	.section	.text._ZNSt13__future_base13_State_baseV2D2Ev,"axG",@progbits,_ZNSt13__future_base13_State_baseV2D5Ev,comdat
	.size	_ZNSt13__future_base13_State_baseV2D2Ev, .-_ZNSt13__future_base13_State_baseV2D2Ev
	.weak	_ZNSt13__future_base13_State_baseV2D1Ev
	.set	_ZNSt13__future_base13_State_baseV2D1Ev,_ZNSt13__future_base13_State_baseV2D2Ev
	.section	.text._ZN4asio6detail7tss_ptrINS0_10call_stackINS0_15task_io_serviceENS0_27task_io_service_thread_infoEE7contextEED2Ev,"axG",@progbits,_ZN4asio6detail7tss_ptrINS0_10call_stackINS0_15task_io_serviceENS0_27task_io_service_thread_infoEE7contextEED5Ev,comdat
	.align 2
	.p2align 4,,15
	.weak	_ZN4asio6detail7tss_ptrINS0_10call_stackINS0_15task_io_serviceENS0_27task_io_service_thread_infoEE7contextEED2Ev
	.type	_ZN4asio6detail7tss_ptrINS0_10call_stackINS0_15task_io_serviceENS0_27task_io_service_thread_infoEE7contextEED2Ev, @function
_ZN4asio6detail7tss_ptrINS0_10call_stackINS0_15task_io_serviceENS0_27task_io_service_thread_infoEE7contextEED2Ev:
.LFB11610:
	.cfi_startproc
	rep ret
	.cfi_endproc
.LFE11610:
	.size	_ZN4asio6detail7tss_ptrINS0_10call_stackINS0_15task_io_serviceENS0_27task_io_service_thread_infoEE7contextEED2Ev, .-_ZN4asio6detail7tss_ptrINS0_10call_stackINS0_15task_io_serviceENS0_27task_io_service_thread_infoEE7contextEED2Ev
	.weak	_ZN4asio6detail7tss_ptrINS0_10call_stackINS0_15task_io_serviceENS0_27task_io_service_thread_infoEE7contextEED1Ev
	.set	_ZN4asio6detail7tss_ptrINS0_10call_stackINS0_15task_io_serviceENS0_27task_io_service_thread_infoEE7contextEED1Ev,_ZN4asio6detail7tss_ptrINS0_10call_stackINS0_15task_io_serviceENS0_27task_io_service_thread_infoEE7contextEED2Ev
	.section	.text._ZN4asio6detail10service_idINS0_13epoll_reactorEED2Ev,"axG",@progbits,_ZN4asio6detail10service_idINS0_13epoll_reactorEED5Ev,comdat
	.align 2
	.p2align 4,,15
	.weak	_ZN4asio6detail10service_idINS0_13epoll_reactorEED2Ev
	.type	_ZN4asio6detail10service_idINS0_13epoll_reactorEED2Ev, @function
_ZN4asio6detail10service_idINS0_13epoll_reactorEED2Ev:
.LFB11613:
	.cfi_startproc
	rep ret
	.cfi_endproc
.LFE11613:
	.size	_ZN4asio6detail10service_idINS0_13epoll_reactorEED2Ev, .-_ZN4asio6detail10service_idINS0_13epoll_reactorEED2Ev
	.weak	_ZN4asio6detail10service_idINS0_13epoll_reactorEED1Ev
	.set	_ZN4asio6detail10service_idINS0_13epoll_reactorEED1Ev,_ZN4asio6detail10service_idINS0_13epoll_reactorEED2Ev
	.section	.text._ZN4asio6detail10service_idINS0_15task_io_serviceEED2Ev,"axG",@progbits,_ZN4asio6detail10service_idINS0_15task_io_serviceEED5Ev,comdat
	.align 2
	.p2align 4,,15
	.weak	_ZN4asio6detail10service_idINS0_15task_io_serviceEED2Ev
	.type	_ZN4asio6detail10service_idINS0_15task_io_serviceEED2Ev, @function
_ZN4asio6detail10service_idINS0_15task_io_serviceEED2Ev:
.LFB11616:
	.cfi_startproc
	rep ret
	.cfi_endproc
.LFE11616:
	.size	_ZN4asio6detail10service_idINS0_15task_io_serviceEED2Ev, .-_ZN4asio6detail10service_idINS0_15task_io_serviceEED2Ev
	.weak	_ZN4asio6detail10service_idINS0_15task_io_serviceEED1Ev
	.set	_ZN4asio6detail10service_idINS0_15task_io_serviceEED1Ev,_ZN4asio6detail10service_idINS0_15task_io_serviceEED2Ev
	.section	.text._ZN4asio6detail7tss_ptrINS0_10call_stackINS0_14strand_service11strand_implEhE7contextEED2Ev,"axG",@progbits,_ZN4asio6detail7tss_ptrINS0_10call_stackINS0_14strand_service11strand_implEhE7contextEED5Ev,comdat
	.align 2
	.p2align 4,,15
	.weak	_ZN4asio6detail7tss_ptrINS0_10call_stackINS0_14strand_service11strand_implEhE7contextEED2Ev
	.type	_ZN4asio6detail7tss_ptrINS0_10call_stackINS0_14strand_service11strand_implEhE7contextEED2Ev, @function
_ZN4asio6detail7tss_ptrINS0_10call_stackINS0_14strand_service11strand_implEhE7contextEED2Ev:
.LFB11619:
	.cfi_startproc
	rep ret
	.cfi_endproc
.LFE11619:
	.size	_ZN4asio6detail7tss_ptrINS0_10call_stackINS0_14strand_service11strand_implEhE7contextEED2Ev, .-_ZN4asio6detail7tss_ptrINS0_10call_stackINS0_14strand_service11strand_implEhE7contextEED2Ev
	.weak	_ZN4asio6detail7tss_ptrINS0_10call_stackINS0_14strand_service11strand_implEhE7contextEED1Ev
	.set	_ZN4asio6detail7tss_ptrINS0_10call_stackINS0_14strand_service11strand_implEhE7contextEED1Ev,_ZN4asio6detail7tss_ptrINS0_10call_stackINS0_14strand_service11strand_implEhE7contextEED2Ev
	.section	.text._ZN4asio6detail10service_idINS0_14strand_serviceEED2Ev,"axG",@progbits,_ZN4asio6detail10service_idINS0_14strand_serviceEED5Ev,comdat
	.align 2
	.p2align 4,,15
	.weak	_ZN4asio6detail10service_idINS0_14strand_serviceEED2Ev
	.type	_ZN4asio6detail10service_idINS0_14strand_serviceEED2Ev, @function
_ZN4asio6detail10service_idINS0_14strand_serviceEED2Ev:
.LFB11622:
	.cfi_startproc
	rep ret
	.cfi_endproc
.LFE11622:
	.size	_ZN4asio6detail10service_idINS0_14strand_serviceEED2Ev, .-_ZN4asio6detail10service_idINS0_14strand_serviceEED2Ev
	.weak	_ZN4asio6detail10service_idINS0_14strand_serviceEED1Ev
	.set	_ZN4asio6detail10service_idINS0_14strand_serviceEED1Ev,_ZN4asio6detail10service_idINS0_14strand_serviceEED2Ev
	.section	.text._ZNSt23_Sp_counted_ptr_inplaceINSt13__future_base13_State_baseV2ESaIS1_ELN9__gnu_cxx12_Lock_policyE2EED2Ev,"axG",@progbits,_ZNSt23_Sp_counted_ptr_inplaceINSt13__future_base13_State_baseV2ESaIS1_ELN9__gnu_cxx12_Lock_policyE2EED5Ev,comdat
	.align 2
	.p2align 4,,15
	.weak	_ZNSt23_Sp_counted_ptr_inplaceINSt13__future_base13_State_baseV2ESaIS1_ELN9__gnu_cxx12_Lock_policyE2EED2Ev
	.type	_ZNSt23_Sp_counted_ptr_inplaceINSt13__future_base13_State_baseV2ESaIS1_ELN9__gnu_cxx12_Lock_policyE2EED2Ev, @function
_ZNSt23_Sp_counted_ptr_inplaceINSt13__future_base13_State_baseV2ESaIS1_ELN9__gnu_cxx12_Lock_policyE2EED2Ev:
.LFB11695:
	.cfi_startproc
	rep ret
	.cfi_endproc
.LFE11695:
	.size	_ZNSt23_Sp_counted_ptr_inplaceINSt13__future_base13_State_baseV2ESaIS1_ELN9__gnu_cxx12_Lock_policyE2EED2Ev, .-_ZNSt23_Sp_counted_ptr_inplaceINSt13__future_base13_State_baseV2ESaIS1_ELN9__gnu_cxx12_Lock_policyE2EED2Ev
	.weak	_ZNSt23_Sp_counted_ptr_inplaceINSt13__future_base13_State_baseV2ESaIS1_ELN9__gnu_cxx12_Lock_policyE2EED1Ev
	.set	_ZNSt23_Sp_counted_ptr_inplaceINSt13__future_base13_State_baseV2ESaIS1_ELN9__gnu_cxx12_Lock_policyE2EED1Ev,_ZNSt23_Sp_counted_ptr_inplaceINSt13__future_base13_State_baseV2ESaIS1_ELN9__gnu_cxx12_Lock_policyE2EED2Ev
	.section	.text._ZNSt23_Sp_counted_ptr_inplaceINSt13__future_base13_State_baseV2ESaIS1_ELN9__gnu_cxx12_Lock_policyE2EE10_M_disposeEv,"axG",@progbits,_ZNSt23_Sp_counted_ptr_inplaceINSt13__future_base13_State_baseV2ESaIS1_ELN9__gnu_cxx12_Lock_policyE2EE10_M_disposeEv,comdat
	.align 2
	.p2align 4,,15
	.weak	_ZNSt23_Sp_counted_ptr_inplaceINSt13__future_base13_State_baseV2ESaIS1_ELN9__gnu_cxx12_Lock_policyE2EE10_M_disposeEv
	.type	_ZNSt23_Sp_counted_ptr_inplaceINSt13__future_base13_State_baseV2ESaIS1_ELN9__gnu_cxx12_Lock_policyE2EE10_M_disposeEv, @function
_ZNSt23_Sp_counted_ptr_inplaceINSt13__future_base13_State_baseV2ESaIS1_ELN9__gnu_cxx12_Lock_policyE2EE10_M_disposeEv:
.LFB11698:
	.cfi_startproc
	movq	%rdi, %rax
	leaq	16(%rdi), %rdi
	movq	16(%rax), %rax
	jmp	*(%rax)
	.cfi_endproc
.LFE11698:
	.size	_ZNSt23_Sp_counted_ptr_inplaceINSt13__future_base13_State_baseV2ESaIS1_ELN9__gnu_cxx12_Lock_policyE2EE10_M_disposeEv, .-_ZNSt23_Sp_counted_ptr_inplaceINSt13__future_base13_State_baseV2ESaIS1_ELN9__gnu_cxx12_Lock_policyE2EE10_M_disposeEv
	.section	.text._ZNSt13__future_base13_State_baseV2D0Ev,"axG",@progbits,_ZNSt13__future_base13_State_baseV2D5Ev,comdat
	.align 2
	.p2align 4,,15
	.weak	_ZNSt13__future_base13_State_baseV2D0Ev
	.type	_ZNSt13__future_base13_State_baseV2D0Ev, @function
_ZNSt13__future_base13_State_baseV2D0Ev:
.LFB11547:
	.cfi_startproc
	.cfi_personality 0x9b,DW.ref.__gxx_personality_v0
	.cfi_lsda 0x1b,.LLSDA11547
	movq	_ZTVNSt13__future_base13_State_baseV2E@GOTPCREL(%rip), %rax
	pushq	%rbx
	.cfi_def_cfa_offset 16
	.cfi_offset 3, -16
	movq	%rdi, %rbx
	addq	$16, %rax
	movq	%rax, (%rdi)
	movq	8(%rdi), %rdi
	testq	%rdi, %rdi
	je	.L37
	movq	(%rdi), %rax
	call	*(%rax)
.L37:
	movq	%rbx, %rdi
	movl	$32, %esi
	popq	%rbx
	.cfi_def_cfa_offset 8
	jmp	_ZdlPvm@PLT
	.cfi_endproc
.LFE11547:
	.section	.gcc_except_table._ZNSt13__future_base13_State_baseV2D0Ev,"aG",@progbits,_ZNSt13__future_base13_State_baseV2D5Ev,comdat
.LLSDA11547:
	.byte	0xff
	.byte	0xff
	.byte	0x1
	.uleb128 .LLSDACSE11547-.LLSDACSB11547
.LLSDACSB11547:
.LLSDACSE11547:
	.section	.text._ZNSt13__future_base13_State_baseV2D0Ev,"axG",@progbits,_ZNSt13__future_base13_State_baseV2D5Ev,comdat
	.size	_ZNSt13__future_base13_State_baseV2D0Ev, .-_ZNSt13__future_base13_State_baseV2D0Ev
	.section	.text._ZNSt23_Sp_counted_ptr_inplaceINSt13__future_base13_State_baseV2ESaIS1_ELN9__gnu_cxx12_Lock_policyE2EED0Ev,"axG",@progbits,_ZNSt23_Sp_counted_ptr_inplaceINSt13__future_base13_State_baseV2ESaIS1_ELN9__gnu_cxx12_Lock_policyE2EED5Ev,comdat
	.align 2
	.p2align 4,,15
	.weak	_ZNSt23_Sp_counted_ptr_inplaceINSt13__future_base13_State_baseV2ESaIS1_ELN9__gnu_cxx12_Lock_policyE2EED0Ev
	.type	_ZNSt23_Sp_counted_ptr_inplaceINSt13__future_base13_State_baseV2ESaIS1_ELN9__gnu_cxx12_Lock_policyE2EED0Ev, @function
_ZNSt23_Sp_counted_ptr_inplaceINSt13__future_base13_State_baseV2ESaIS1_ELN9__gnu_cxx12_Lock_policyE2EED0Ev:
.LFB11697:
	.cfi_startproc
	movl	$48, %esi
	jmp	_ZdlPvm@PLT
	.cfi_endproc
.LFE11697:
	.size	_ZNSt23_Sp_counted_ptr_inplaceINSt13__future_base13_State_baseV2ESaIS1_ELN9__gnu_cxx12_Lock_policyE2EED0Ev, .-_ZNSt23_Sp_counted_ptr_inplaceINSt13__future_base13_State_baseV2ESaIS1_ELN9__gnu_cxx12_Lock_policyE2EED0Ev
	.section	.text._ZNSt23_Sp_counted_ptr_inplaceINSt13__future_base13_State_baseV2ESaIS1_ELN9__gnu_cxx12_Lock_policyE2EE10_M_destroyEv,"axG",@progbits,_ZNSt23_Sp_counted_ptr_inplaceINSt13__future_base13_State_baseV2ESaIS1_ELN9__gnu_cxx12_Lock_policyE2EE10_M_destroyEv,comdat
	.align 2
	.p2align 4,,15
	.weak	_ZNSt23_Sp_counted_ptr_inplaceINSt13__future_base13_State_baseV2ESaIS1_ELN9__gnu_cxx12_Lock_policyE2EE10_M_destroyEv
	.type	_ZNSt23_Sp_counted_ptr_inplaceINSt13__future_base13_State_baseV2ESaIS1_ELN9__gnu_cxx12_Lock_policyE2EE10_M_destroyEv, @function
_ZNSt23_Sp_counted_ptr_inplaceINSt13__future_base13_State_baseV2ESaIS1_ELN9__gnu_cxx12_Lock_policyE2EE10_M_destroyEv:
.LFB11699:
	.cfi_startproc
	jmp	_ZdlPv@PLT
	.cfi_endproc
.LFE11699:
	.size	_ZNSt23_Sp_counted_ptr_inplaceINSt13__future_base13_State_baseV2ESaIS1_ELN9__gnu_cxx12_Lock_policyE2EE10_M_destroyEv, .-_ZNSt23_Sp_counted_ptr_inplaceINSt13__future_base13_State_baseV2ESaIS1_ELN9__gnu_cxx12_Lock_policyE2EE10_M_destroyEv
	.section	.text._ZNSt13__future_base7_ResultIbED2Ev,"axG",@progbits,_ZNSt13__future_base7_ResultIbED5Ev,comdat
	.align 2
	.p2align 4,,15
	.weak	_ZNSt13__future_base7_ResultIbED2Ev
	.type	_ZNSt13__future_base7_ResultIbED2Ev, @function
_ZNSt13__future_base7_ResultIbED2Ev:
.LFB11722:
	.cfi_startproc
	movq	_ZTVNSt13__future_base7_ResultIbEE@GOTPCREL(%rip), %rax
	addq	$16, %rax
	movq	%rax, (%rdi)
	jmp	_ZNSt13__future_base12_Result_baseD2Ev@PLT
	.cfi_endproc
.LFE11722:
	.size	_ZNSt13__future_base7_ResultIbED2Ev, .-_ZNSt13__future_base7_ResultIbED2Ev
	.weak	_ZNSt13__future_base7_ResultIbED1Ev
	.set	_ZNSt13__future_base7_ResultIbED1Ev,_ZNSt13__future_base7_ResultIbED2Ev
	.section	.text._ZNSt13__future_base7_ResultIbED0Ev,"axG",@progbits,_ZNSt13__future_base7_ResultIbED5Ev,comdat
	.align 2
	.p2align 4,,15
	.weak	_ZNSt13__future_base7_ResultIbED0Ev
	.type	_ZNSt13__future_base7_ResultIbED0Ev, @function
_ZNSt13__future_base7_ResultIbED0Ev:
.LFB11724:
	.cfi_startproc
	movq	_ZTVNSt13__future_base7_ResultIbEE@GOTPCREL(%rip), %rax
	pushq	%rbx
	.cfi_def_cfa_offset 16
	.cfi_offset 3, -16
	movq	%rdi, %rbx
	addq	$16, %rax
	movq	%rax, (%rdi)
	call	_ZNSt13__future_base12_Result_baseD2Ev@PLT
	movq	%rbx, %rdi
	movl	$24, %esi
	popq	%rbx
	.cfi_def_cfa_offset 8
	jmp	_ZdlPvm@PLT
	.cfi_endproc
.LFE11724:
	.size	_ZNSt13__future_base7_ResultIbED0Ev, .-_ZNSt13__future_base7_ResultIbED0Ev
	.section	.text._ZNSt13__future_base7_ResultIN8opendnp315StackStatisticsEED2Ev,"axG",@progbits,_ZNSt13__future_base7_ResultIN8opendnp315StackStatisticsEED5Ev,comdat
	.align 2
	.p2align 4,,15
	.weak	_ZNSt13__future_base7_ResultIN8opendnp315StackStatisticsEED2Ev
	.type	_ZNSt13__future_base7_ResultIN8opendnp315StackStatisticsEED2Ev, @function
_ZNSt13__future_base7_ResultIN8opendnp315StackStatisticsEED2Ev:
.LFB11717:
	.cfi_startproc
	movq	_ZTVNSt13__future_base7_ResultIN8opendnp315StackStatisticsEEE@GOTPCREL(%rip), %rax
	addq	$16, %rax
	movq	%rax, (%rdi)
	jmp	_ZNSt13__future_base12_Result_baseD2Ev@PLT
	.cfi_endproc
.LFE11717:
	.size	_ZNSt13__future_base7_ResultIN8opendnp315StackStatisticsEED2Ev, .-_ZNSt13__future_base7_ResultIN8opendnp315StackStatisticsEED2Ev
	.weak	_ZNSt13__future_base7_ResultIN8opendnp315StackStatisticsEED1Ev
	.set	_ZNSt13__future_base7_ResultIN8opendnp315StackStatisticsEED1Ev,_ZNSt13__future_base7_ResultIN8opendnp315StackStatisticsEED2Ev
	.section	.text._ZNSt13__future_base7_ResultIN8opendnp315StackStatisticsEED0Ev,"axG",@progbits,_ZNSt13__future_base7_ResultIN8opendnp315StackStatisticsEED5Ev,comdat
	.align 2
	.p2align 4,,15
	.weak	_ZNSt13__future_base7_ResultIN8opendnp315StackStatisticsEED0Ev
	.type	_ZNSt13__future_base7_ResultIN8opendnp315StackStatisticsEED0Ev, @function
_ZNSt13__future_base7_ResultIN8opendnp315StackStatisticsEED0Ev:
.LFB11719:
	.cfi_startproc
	movq	_ZTVNSt13__future_base7_ResultIN8opendnp315StackStatisticsEEE@GOTPCREL(%rip), %rax
	pushq	%rbx
	.cfi_def_cfa_offset 16
	.cfi_offset 3, -16
	movq	%rdi, %rbx
	addq	$16, %rax
	movq	%rax, (%rdi)
	call	_ZNSt13__future_base12_Result_baseD2Ev@PLT
	movq	%rbx, %rdi
	movl	$64, %esi
	popq	%rbx
	.cfi_def_cfa_offset 8
	jmp	_ZdlPvm@PLT
	.cfi_endproc
.LFE11719:
	.size	_ZNSt13__future_base7_ResultIN8opendnp315StackStatisticsEED0Ev, .-_ZNSt13__future_base7_ResultIN8opendnp315StackStatisticsEED0Ev
	.section	.text._ZNSt23_Sp_counted_ptr_inplaceINSt13__future_base13_State_baseV2ESaIS1_ELN9__gnu_cxx12_Lock_policyE2EE14_M_get_deleterERKSt9type_info,"axG",@progbits,_ZNSt23_Sp_counted_ptr_inplaceINSt13__future_base13_State_baseV2ESaIS1_ELN9__gnu_cxx12_Lock_policyE2EE14_M_get_deleterERKSt9type_info,comdat
	.align 2
	.p2align 4,,15
	.weak	_ZNSt23_Sp_counted_ptr_inplaceINSt13__future_base13_State_baseV2ESaIS1_ELN9__gnu_cxx12_Lock_policyE2EE14_M_get_deleterERKSt9type_info
	.type	_ZNSt23_Sp_counted_ptr_inplaceINSt13__future_base13_State_baseV2ESaIS1_ELN9__gnu_cxx12_Lock_policyE2EE14_M_get_deleterERKSt9type_info, @function
_ZNSt23_Sp_counted_ptr_inplaceINSt13__future_base13_State_baseV2ESaIS1_ELN9__gnu_cxx12_Lock_policyE2EE14_M_get_deleterERKSt9type_info:
.LFB11700:
	.cfi_startproc
	pushq	%rbx
	.cfi_def_cfa_offset 16
	.cfi_offset 3, -16
	movq	%rdi, %rbx
	movq	8(%rsi), %rdi
	movq	_ZTSSt19_Sp_make_shared_tag@GOTPCREL(%rip), %rsi
	cmpq	%rsi, %rdi
	je	.L51
	cmpb	$42, (%rdi)
	je	.L54
	call	strcmp@PLT
	testl	%eax, %eax
	jne	.L54
.L51:
	leaq	16(%rbx), %rax
	popq	%rbx
	.cfi_remember_state
	.cfi_def_cfa_offset 8
	ret
	.p2align 4,,10
	.p2align 3
.L54:
	.cfi_restore_state
	xorl	%eax, %eax
	popq	%rbx
	.cfi_def_cfa_offset 8
	ret
	.cfi_endproc
.LFE11700:
	.size	_ZNSt23_Sp_counted_ptr_inplaceINSt13__future_base13_State_baseV2ESaIS1_ELN9__gnu_cxx12_Lock_policyE2EE14_M_get_deleterERKSt9type_info, .-_ZNSt23_Sp_counted_ptr_inplaceINSt13__future_base13_State_baseV2ESaIS1_ELN9__gnu_cxx12_Lock_policyE2EE14_M_get_deleterERKSt9type_info
	.section	.text._ZN7openpal5ArrayIhjED2Ev,"axG",@progbits,_ZN7openpal5ArrayIhjED5Ev,comdat
	.align 2
	.p2align 4,,15
	.weak	_ZN7openpal5ArrayIhjED2Ev
	.type	_ZN7openpal5ArrayIhjED2Ev, @function
_ZN7openpal5ArrayIhjED2Ev:
.LFB9056:
	.cfi_startproc
	movq	_ZTVN7openpal5ArrayIhjEE@GOTPCREL(%rip), %rax
	addq	$16, %rax
	movq	%rax, (%rdi)
	movq	16(%rdi), %rdi
	testq	%rdi, %rdi
	je	.L56
	jmp	_ZdaPv@PLT
	.p2align 4,,10
	.p2align 3
.L56:
	rep ret
	.cfi_endproc
.LFE9056:
	.size	_ZN7openpal5ArrayIhjED2Ev, .-_ZN7openpal5ArrayIhjED2Ev
	.weak	_ZN7openpal5ArrayIhjED1Ev
	.set	_ZN7openpal5ArrayIhjED1Ev,_ZN7openpal5ArrayIhjED2Ev
	.section	.text._ZN7openpal5ArrayIhjED0Ev,"axG",@progbits,_ZN7openpal5ArrayIhjED5Ev,comdat
	.align 2
	.p2align 4,,15
	.weak	_ZN7openpal5ArrayIhjED0Ev
	.type	_ZN7openpal5ArrayIhjED0Ev, @function
_ZN7openpal5ArrayIhjED0Ev:
.LFB9058:
	.cfi_startproc
	movq	_ZTVN7openpal5ArrayIhjEE@GOTPCREL(%rip), %rax
	pushq	%rbx
	.cfi_def_cfa_offset 16
	.cfi_offset 3, -16
	movq	%rdi, %rbx
	addq	$16, %rax
	movq	%rax, (%rdi)
	movq	16(%rdi), %rdi
	testq	%rdi, %rdi
	je	.L59
	call	_ZdaPv@PLT
.L59:
	movq	%rbx, %rdi
	movl	$24, %esi
	popq	%rbx
	.cfi_def_cfa_offset 8
	jmp	_ZdlPvm@PLT
	.cfi_endproc
.LFE9058:
	.size	_ZN7openpal5ArrayIhjED0Ev, .-_ZN7openpal5ArrayIhjED0Ev
	.section	.text._ZN7openpal5ArrayIN8opendnp34CellINS1_19TimeAndIntervalSpecEEEtED2Ev,"axG",@progbits,_ZN7openpal5ArrayIN8opendnp34CellINS1_19TimeAndIntervalSpecEEEtED5Ev,comdat
	.align 2
	.p2align 4,,15
	.weak	_ZN7openpal5ArrayIN8opendnp34CellINS1_19TimeAndIntervalSpecEEEtED2Ev
	.type	_ZN7openpal5ArrayIN8opendnp34CellINS1_19TimeAndIntervalSpecEEEtED2Ev, @function
_ZN7openpal5ArrayIN8opendnp34CellINS1_19TimeAndIntervalSpecEEEtED2Ev:
.LFB11759:
	.cfi_startproc
	movq	_ZTVN7openpal5ArrayIN8opendnp34CellINS1_19TimeAndIntervalSpecEEEtEE@GOTPCREL(%rip), %rax
	addq	$16, %rax
	movq	%rax, (%rdi)
	movq	16(%rdi), %rdi
	testq	%rdi, %rdi
	je	.L64
	jmp	_ZdaPv@PLT
	.p2align 4,,10
	.p2align 3
.L64:
	rep ret
	.cfi_endproc
.LFE11759:
	.size	_ZN7openpal5ArrayIN8opendnp34CellINS1_19TimeAndIntervalSpecEEEtED2Ev, .-_ZN7openpal5ArrayIN8opendnp34CellINS1_19TimeAndIntervalSpecEEEtED2Ev
	.weak	_ZN7openpal5ArrayIN8opendnp34CellINS1_19TimeAndIntervalSpecEEEtED1Ev
	.set	_ZN7openpal5ArrayIN8opendnp34CellINS1_19TimeAndIntervalSpecEEEtED1Ev,_ZN7openpal5ArrayIN8opendnp34CellINS1_19TimeAndIntervalSpecEEEtED2Ev
	.section	.text._ZN7openpal5ArrayIN8opendnp34CellINS1_19TimeAndIntervalSpecEEEtED0Ev,"axG",@progbits,_ZN7openpal5ArrayIN8opendnp34CellINS1_19TimeAndIntervalSpecEEEtED5Ev,comdat
	.align 2
	.p2align 4,,15
	.weak	_ZN7openpal5ArrayIN8opendnp34CellINS1_19TimeAndIntervalSpecEEEtED0Ev
	.type	_ZN7openpal5ArrayIN8opendnp34CellINS1_19TimeAndIntervalSpecEEEtED0Ev, @function
_ZN7openpal5ArrayIN8opendnp34CellINS1_19TimeAndIntervalSpecEEEtED0Ev:
.LFB11761:
	.cfi_startproc
	movq	_ZTVN7openpal5ArrayIN8opendnp34CellINS1_19TimeAndIntervalSpecEEEtEE@GOTPCREL(%rip), %rax
	pushq	%rbx
	.cfi_def_cfa_offset 16
	.cfi_offset 3, -16
	movq	%rdi, %rbx
	addq	$16, %rax
	movq	%rax, (%rdi)
	movq	16(%rdi), %rdi
	testq	%rdi, %rdi
	je	.L67
	call	_ZdaPv@PLT
.L67:
	movq	%rbx, %rdi
	movl	$24, %esi
	popq	%rbx
	.cfi_def_cfa_offset 8
	jmp	_ZdlPvm@PLT
	.cfi_endproc
.LFE11761:
	.size	_ZN7openpal5ArrayIN8opendnp34CellINS1_19TimeAndIntervalSpecEEEtED0Ev, .-_ZN7openpal5ArrayIN8opendnp34CellINS1_19TimeAndIntervalSpecEEEtED0Ev
	.section	.text._ZN7openpal5ArrayIN8opendnp34CellINS1_22AnalogOutputStatusSpecEEEtED2Ev,"axG",@progbits,_ZN7openpal5ArrayIN8opendnp34CellINS1_22AnalogOutputStatusSpecEEEtED5Ev,comdat
	.align 2
	.p2align 4,,15
	.weak	_ZN7openpal5ArrayIN8opendnp34CellINS1_22AnalogOutputStatusSpecEEEtED2Ev
	.type	_ZN7openpal5ArrayIN8opendnp34CellINS1_22AnalogOutputStatusSpecEEEtED2Ev, @function
_ZN7openpal5ArrayIN8opendnp34CellINS1_22AnalogOutputStatusSpecEEEtED2Ev:
.LFB11755:
	.cfi_startproc
	movq	_ZTVN7openpal5ArrayIN8opendnp34CellINS1_22AnalogOutputStatusSpecEEEtEE@GOTPCREL(%rip), %rax
	addq	$16, %rax
	movq	%rax, (%rdi)
	movq	16(%rdi), %rdi
	testq	%rdi, %rdi
	je	.L72
	jmp	_ZdaPv@PLT
	.p2align 4,,10
	.p2align 3
.L72:
	rep ret
	.cfi_endproc
.LFE11755:
	.size	_ZN7openpal5ArrayIN8opendnp34CellINS1_22AnalogOutputStatusSpecEEEtED2Ev, .-_ZN7openpal5ArrayIN8opendnp34CellINS1_22AnalogOutputStatusSpecEEEtED2Ev
	.weak	_ZN7openpal5ArrayIN8opendnp34CellINS1_22AnalogOutputStatusSpecEEEtED1Ev
	.set	_ZN7openpal5ArrayIN8opendnp34CellINS1_22AnalogOutputStatusSpecEEEtED1Ev,_ZN7openpal5ArrayIN8opendnp34CellINS1_22AnalogOutputStatusSpecEEEtED2Ev
	.section	.text._ZN7openpal5ArrayIN8opendnp34CellINS1_22AnalogOutputStatusSpecEEEtED0Ev,"axG",@progbits,_ZN7openpal5ArrayIN8opendnp34CellINS1_22AnalogOutputStatusSpecEEEtED5Ev,comdat
	.align 2
	.p2align 4,,15
	.weak	_ZN7openpal5ArrayIN8opendnp34CellINS1_22AnalogOutputStatusSpecEEEtED0Ev
	.type	_ZN7openpal5ArrayIN8opendnp34CellINS1_22AnalogOutputStatusSpecEEEtED0Ev, @function
_ZN7openpal5ArrayIN8opendnp34CellINS1_22AnalogOutputStatusSpecEEEtED0Ev:
.LFB11757:
	.cfi_startproc
	movq	_ZTVN7openpal5ArrayIN8opendnp34CellINS1_22AnalogOutputStatusSpecEEEtEE@GOTPCREL(%rip), %rax
	pushq	%rbx
	.cfi_def_cfa_offset 16
	.cfi_offset 3, -16
	movq	%rdi, %rbx
	addq	$16, %rax
	movq	%rax, (%rdi)
	movq	16(%rdi), %rdi
	testq	%rdi, %rdi
	je	.L75
	call	_ZdaPv@PLT
.L75:
	movq	%rbx, %rdi
	movl	$24, %esi
	popq	%rbx
	.cfi_def_cfa_offset 8
	jmp	_ZdlPvm@PLT
	.cfi_endproc
.LFE11757:
	.size	_ZN7openpal5ArrayIN8opendnp34CellINS1_22AnalogOutputStatusSpecEEEtED0Ev, .-_ZN7openpal5ArrayIN8opendnp34CellINS1_22AnalogOutputStatusSpecEEEtED0Ev
	.section	.text._ZN7openpal5ArrayIN8opendnp34CellINS1_22BinaryOutputStatusSpecEEEtED2Ev,"axG",@progbits,_ZN7openpal5ArrayIN8opendnp34CellINS1_22BinaryOutputStatusSpecEEEtED5Ev,comdat
	.align 2
	.p2align 4,,15
	.weak	_ZN7openpal5ArrayIN8opendnp34CellINS1_22BinaryOutputStatusSpecEEEtED2Ev
	.type	_ZN7openpal5ArrayIN8opendnp34CellINS1_22BinaryOutputStatusSpecEEEtED2Ev, @function
_ZN7openpal5ArrayIN8opendnp34CellINS1_22BinaryOutputStatusSpecEEEtED2Ev:
.LFB11751:
	.cfi_startproc
	movq	_ZTVN7openpal5ArrayIN8opendnp34CellINS1_22BinaryOutputStatusSpecEEEtEE@GOTPCREL(%rip), %rax
	addq	$16, %rax
	movq	%rax, (%rdi)
	movq	16(%rdi), %rdi
	testq	%rdi, %rdi
	je	.L80
	jmp	_ZdaPv@PLT
	.p2align 4,,10
	.p2align 3
.L80:
	rep ret
	.cfi_endproc
.LFE11751:
	.size	_ZN7openpal5ArrayIN8opendnp34CellINS1_22BinaryOutputStatusSpecEEEtED2Ev, .-_ZN7openpal5ArrayIN8opendnp34CellINS1_22BinaryOutputStatusSpecEEEtED2Ev
	.weak	_ZN7openpal5ArrayIN8opendnp34CellINS1_22BinaryOutputStatusSpecEEEtED1Ev
	.set	_ZN7openpal5ArrayIN8opendnp34CellINS1_22BinaryOutputStatusSpecEEEtED1Ev,_ZN7openpal5ArrayIN8opendnp34CellINS1_22BinaryOutputStatusSpecEEEtED2Ev
	.section	.text._ZN7openpal5ArrayIN8opendnp34CellINS1_22BinaryOutputStatusSpecEEEtED0Ev,"axG",@progbits,_ZN7openpal5ArrayIN8opendnp34CellINS1_22BinaryOutputStatusSpecEEEtED5Ev,comdat
	.align 2
	.p2align 4,,15
	.weak	_ZN7openpal5ArrayIN8opendnp34CellINS1_22BinaryOutputStatusSpecEEEtED0Ev
	.type	_ZN7openpal5ArrayIN8opendnp34CellINS1_22BinaryOutputStatusSpecEEEtED0Ev, @function
_ZN7openpal5ArrayIN8opendnp34CellINS1_22BinaryOutputStatusSpecEEEtED0Ev:
.LFB11753:
	.cfi_startproc
	movq	_ZTVN7openpal5ArrayIN8opendnp34CellINS1_22BinaryOutputStatusSpecEEEtEE@GOTPCREL(%rip), %rax
	pushq	%rbx
	.cfi_def_cfa_offset 16
	.cfi_offset 3, -16
	movq	%rdi, %rbx
	addq	$16, %rax
	movq	%rax, (%rdi)
	movq	16(%rdi), %rdi
	testq	%rdi, %rdi
	je	.L83
	call	_ZdaPv@PLT
.L83:
	movq	%rbx, %rdi
	movl	$24, %esi
	popq	%rbx
	.cfi_def_cfa_offset 8
	jmp	_ZdlPvm@PLT
	.cfi_endproc
.LFE11753:
	.size	_ZN7openpal5ArrayIN8opendnp34CellINS1_22BinaryOutputStatusSpecEEEtED0Ev, .-_ZN7openpal5ArrayIN8opendnp34CellINS1_22BinaryOutputStatusSpecEEEtED0Ev
	.section	.text._ZN7openpal5ArrayIN8opendnp34CellINS1_17FrozenCounterSpecEEEtED2Ev,"axG",@progbits,_ZN7openpal5ArrayIN8opendnp34CellINS1_17FrozenCounterSpecEEEtED5Ev,comdat
	.align 2
	.p2align 4,,15
	.weak	_ZN7openpal5ArrayIN8opendnp34CellINS1_17FrozenCounterSpecEEEtED2Ev
	.type	_ZN7openpal5ArrayIN8opendnp34CellINS1_17FrozenCounterSpecEEEtED2Ev, @function
_ZN7openpal5ArrayIN8opendnp34CellINS1_17FrozenCounterSpecEEEtED2Ev:
.LFB11747:
	.cfi_startproc
	movq	_ZTVN7openpal5ArrayIN8opendnp34CellINS1_17FrozenCounterSpecEEEtEE@GOTPCREL(%rip), %rax
	addq	$16, %rax
	movq	%rax, (%rdi)
	movq	16(%rdi), %rdi
	testq	%rdi, %rdi
	je	.L88
	jmp	_ZdaPv@PLT
	.p2align 4,,10
	.p2align 3
.L88:
	rep ret
	.cfi_endproc
.LFE11747:
	.size	_ZN7openpal5ArrayIN8opendnp34CellINS1_17FrozenCounterSpecEEEtED2Ev, .-_ZN7openpal5ArrayIN8opendnp34CellINS1_17FrozenCounterSpecEEEtED2Ev
	.weak	_ZN7openpal5ArrayIN8opendnp34CellINS1_17FrozenCounterSpecEEEtED1Ev
	.set	_ZN7openpal5ArrayIN8opendnp34CellINS1_17FrozenCounterSpecEEEtED1Ev,_ZN7openpal5ArrayIN8opendnp34CellINS1_17FrozenCounterSpecEEEtED2Ev
	.section	.text._ZN7openpal5ArrayIN8opendnp34CellINS1_17FrozenCounterSpecEEEtED0Ev,"axG",@progbits,_ZN7openpal5ArrayIN8opendnp34CellINS1_17FrozenCounterSpecEEEtED5Ev,comdat
	.align 2
	.p2align 4,,15
	.weak	_ZN7openpal5ArrayIN8opendnp34CellINS1_17FrozenCounterSpecEEEtED0Ev
	.type	_ZN7openpal5ArrayIN8opendnp34CellINS1_17FrozenCounterSpecEEEtED0Ev, @function
_ZN7openpal5ArrayIN8opendnp34CellINS1_17FrozenCounterSpecEEEtED0Ev:
.LFB11749:
	.cfi_startproc
	movq	_ZTVN7openpal5ArrayIN8opendnp34CellINS1_17FrozenCounterSpecEEEtEE@GOTPCREL(%rip), %rax
	pushq	%rbx
	.cfi_def_cfa_offset 16
	.cfi_offset 3, -16
	movq	%rdi, %rbx
	addq	$16, %rax
	movq	%rax, (%rdi)
	movq	16(%rdi), %rdi
	testq	%rdi, %rdi
	je	.L91
	call	_ZdaPv@PLT
.L91:
	movq	%rbx, %rdi
	movl	$24, %esi
	popq	%rbx
	.cfi_def_cfa_offset 8
	jmp	_ZdlPvm@PLT
	.cfi_endproc
.LFE11749:
	.size	_ZN7openpal5ArrayIN8opendnp34CellINS1_17FrozenCounterSpecEEEtED0Ev, .-_ZN7openpal5ArrayIN8opendnp34CellINS1_17FrozenCounterSpecEEEtED0Ev
	.section	.text._ZN7openpal5ArrayIN8opendnp34CellINS1_11CounterSpecEEEtED2Ev,"axG",@progbits,_ZN7openpal5ArrayIN8opendnp34CellINS1_11CounterSpecEEEtED5Ev,comdat
	.align 2
	.p2align 4,,15
	.weak	_ZN7openpal5ArrayIN8opendnp34CellINS1_11CounterSpecEEEtED2Ev
	.type	_ZN7openpal5ArrayIN8opendnp34CellINS1_11CounterSpecEEEtED2Ev, @function
_ZN7openpal5ArrayIN8opendnp34CellINS1_11CounterSpecEEEtED2Ev:
.LFB11743:
	.cfi_startproc
	movq	_ZTVN7openpal5ArrayIN8opendnp34CellINS1_11CounterSpecEEEtEE@GOTPCREL(%rip), %rax
	addq	$16, %rax
	movq	%rax, (%rdi)
	movq	16(%rdi), %rdi
	testq	%rdi, %rdi
	je	.L96
	jmp	_ZdaPv@PLT
	.p2align 4,,10
	.p2align 3
.L96:
	rep ret
	.cfi_endproc
.LFE11743:
	.size	_ZN7openpal5ArrayIN8opendnp34CellINS1_11CounterSpecEEEtED2Ev, .-_ZN7openpal5ArrayIN8opendnp34CellINS1_11CounterSpecEEEtED2Ev
	.weak	_ZN7openpal5ArrayIN8opendnp34CellINS1_11CounterSpecEEEtED1Ev
	.set	_ZN7openpal5ArrayIN8opendnp34CellINS1_11CounterSpecEEEtED1Ev,_ZN7openpal5ArrayIN8opendnp34CellINS1_11CounterSpecEEEtED2Ev
	.section	.text._ZN7openpal5ArrayIN8opendnp34CellINS1_11CounterSpecEEEtED0Ev,"axG",@progbits,_ZN7openpal5ArrayIN8opendnp34CellINS1_11CounterSpecEEEtED5Ev,comdat
	.align 2
	.p2align 4,,15
	.weak	_ZN7openpal5ArrayIN8opendnp34CellINS1_11CounterSpecEEEtED0Ev
	.type	_ZN7openpal5ArrayIN8opendnp34CellINS1_11CounterSpecEEEtED0Ev, @function
_ZN7openpal5ArrayIN8opendnp34CellINS1_11CounterSpecEEEtED0Ev:
.LFB11745:
	.cfi_startproc
	movq	_ZTVN7openpal5ArrayIN8opendnp34CellINS1_11CounterSpecEEEtEE@GOTPCREL(%rip), %rax
	pushq	%rbx
	.cfi_def_cfa_offset 16
	.cfi_offset 3, -16
	movq	%rdi, %rbx
	addq	$16, %rax
	movq	%rax, (%rdi)
	movq	16(%rdi), %rdi
	testq	%rdi, %rdi
	je	.L99
	call	_ZdaPv@PLT
.L99:
	movq	%rbx, %rdi
	movl	$24, %esi
	popq	%rbx
	.cfi_def_cfa_offset 8
	jmp	_ZdlPvm@PLT
	.cfi_endproc
.LFE11745:
	.size	_ZN7openpal5ArrayIN8opendnp34CellINS1_11CounterSpecEEEtED0Ev, .-_ZN7openpal5ArrayIN8opendnp34CellINS1_11CounterSpecEEEtED0Ev
	.section	.text._ZN7openpal5ArrayIN8opendnp34CellINS1_10AnalogSpecEEEtED2Ev,"axG",@progbits,_ZN7openpal5ArrayIN8opendnp34CellINS1_10AnalogSpecEEEtED5Ev,comdat
	.align 2
	.p2align 4,,15
	.weak	_ZN7openpal5ArrayIN8opendnp34CellINS1_10AnalogSpecEEEtED2Ev
	.type	_ZN7openpal5ArrayIN8opendnp34CellINS1_10AnalogSpecEEEtED2Ev, @function
_ZN7openpal5ArrayIN8opendnp34CellINS1_10AnalogSpecEEEtED2Ev:
.LFB11739:
	.cfi_startproc
	movq	_ZTVN7openpal5ArrayIN8opendnp34CellINS1_10AnalogSpecEEEtEE@GOTPCREL(%rip), %rax
	addq	$16, %rax
	movq	%rax, (%rdi)
	movq	16(%rdi), %rdi
	testq	%rdi, %rdi
	je	.L104
	jmp	_ZdaPv@PLT
	.p2align 4,,10
	.p2align 3
.L104:
	rep ret
	.cfi_endproc
.LFE11739:
	.size	_ZN7openpal5ArrayIN8opendnp34CellINS1_10AnalogSpecEEEtED2Ev, .-_ZN7openpal5ArrayIN8opendnp34CellINS1_10AnalogSpecEEEtED2Ev
	.weak	_ZN7openpal5ArrayIN8opendnp34CellINS1_10AnalogSpecEEEtED1Ev
	.set	_ZN7openpal5ArrayIN8opendnp34CellINS1_10AnalogSpecEEEtED1Ev,_ZN7openpal5ArrayIN8opendnp34CellINS1_10AnalogSpecEEEtED2Ev
	.section	.text._ZN7openpal5ArrayIN8opendnp34CellINS1_10AnalogSpecEEEtED0Ev,"axG",@progbits,_ZN7openpal5ArrayIN8opendnp34CellINS1_10AnalogSpecEEEtED5Ev,comdat
	.align 2
	.p2align 4,,15
	.weak	_ZN7openpal5ArrayIN8opendnp34CellINS1_10AnalogSpecEEEtED0Ev
	.type	_ZN7openpal5ArrayIN8opendnp34CellINS1_10AnalogSpecEEEtED0Ev, @function
_ZN7openpal5ArrayIN8opendnp34CellINS1_10AnalogSpecEEEtED0Ev:
.LFB11741:
	.cfi_startproc
	movq	_ZTVN7openpal5ArrayIN8opendnp34CellINS1_10AnalogSpecEEEtEE@GOTPCREL(%rip), %rax
	pushq	%rbx
	.cfi_def_cfa_offset 16
	.cfi_offset 3, -16
	movq	%rdi, %rbx
	addq	$16, %rax
	movq	%rax, (%rdi)
	movq	16(%rdi), %rdi
	testq	%rdi, %rdi
	je	.L107
	call	_ZdaPv@PLT
.L107:
	movq	%rbx, %rdi
	movl	$24, %esi
	popq	%rbx
	.cfi_def_cfa_offset 8
	jmp	_ZdlPvm@PLT
	.cfi_endproc
.LFE11741:
	.size	_ZN7openpal5ArrayIN8opendnp34CellINS1_10AnalogSpecEEEtED0Ev, .-_ZN7openpal5ArrayIN8opendnp34CellINS1_10AnalogSpecEEEtED0Ev
	.section	.text._ZN7openpal5ArrayIN8opendnp34CellINS1_19DoubleBitBinarySpecEEEtED2Ev,"axG",@progbits,_ZN7openpal5ArrayIN8opendnp34CellINS1_19DoubleBitBinarySpecEEEtED5Ev,comdat
	.align 2
	.p2align 4,,15
	.weak	_ZN7openpal5ArrayIN8opendnp34CellINS1_19DoubleBitBinarySpecEEEtED2Ev
	.type	_ZN7openpal5ArrayIN8opendnp34CellINS1_19DoubleBitBinarySpecEEEtED2Ev, @function
_ZN7openpal5ArrayIN8opendnp34CellINS1_19DoubleBitBinarySpecEEEtED2Ev:
.LFB11735:
	.cfi_startproc
	movq	_ZTVN7openpal5ArrayIN8opendnp34CellINS1_19DoubleBitBinarySpecEEEtEE@GOTPCREL(%rip), %rax
	addq	$16, %rax
	movq	%rax, (%rdi)
	movq	16(%rdi), %rdi
	testq	%rdi, %rdi
	je	.L112
	jmp	_ZdaPv@PLT
	.p2align 4,,10
	.p2align 3
.L112:
	rep ret
	.cfi_endproc
.LFE11735:
	.size	_ZN7openpal5ArrayIN8opendnp34CellINS1_19DoubleBitBinarySpecEEEtED2Ev, .-_ZN7openpal5ArrayIN8opendnp34CellINS1_19DoubleBitBinarySpecEEEtED2Ev
	.weak	_ZN7openpal5ArrayIN8opendnp34CellINS1_19DoubleBitBinarySpecEEEtED1Ev
	.set	_ZN7openpal5ArrayIN8opendnp34CellINS1_19DoubleBitBinarySpecEEEtED1Ev,_ZN7openpal5ArrayIN8opendnp34CellINS1_19DoubleBitBinarySpecEEEtED2Ev
	.section	.text._ZN7openpal5ArrayIN8opendnp34CellINS1_19DoubleBitBinarySpecEEEtED0Ev,"axG",@progbits,_ZN7openpal5ArrayIN8opendnp34CellINS1_19DoubleBitBinarySpecEEEtED5Ev,comdat
	.align 2
	.p2align 4,,15
	.weak	_ZN7openpal5ArrayIN8opendnp34CellINS1_19DoubleBitBinarySpecEEEtED0Ev
	.type	_ZN7openpal5ArrayIN8opendnp34CellINS1_19DoubleBitBinarySpecEEEtED0Ev, @function
_ZN7openpal5ArrayIN8opendnp34CellINS1_19DoubleBitBinarySpecEEEtED0Ev:
.LFB11737:
	.cfi_startproc
	movq	_ZTVN7openpal5ArrayIN8opendnp34CellINS1_19DoubleBitBinarySpecEEEtEE@GOTPCREL(%rip), %rax
	pushq	%rbx
	.cfi_def_cfa_offset 16
	.cfi_offset 3, -16
	movq	%rdi, %rbx
	addq	$16, %rax
	movq	%rax, (%rdi)
	movq	16(%rdi), %rdi
	testq	%rdi, %rdi
	je	.L115
	call	_ZdaPv@PLT
.L115:
	movq	%rbx, %rdi
	movl	$24, %esi
	popq	%rbx
	.cfi_def_cfa_offset 8
	jmp	_ZdlPvm@PLT
	.cfi_endproc
.LFE11737:
	.size	_ZN7openpal5ArrayIN8opendnp34CellINS1_19DoubleBitBinarySpecEEEtED0Ev, .-_ZN7openpal5ArrayIN8opendnp34CellINS1_19DoubleBitBinarySpecEEEtED0Ev
	.section	.text._ZN7openpal5ArrayIN8opendnp34CellINS1_10BinarySpecEEEtED2Ev,"axG",@progbits,_ZN7openpal5ArrayIN8opendnp34CellINS1_10BinarySpecEEEtED5Ev,comdat
	.align 2
	.p2align 4,,15
	.weak	_ZN7openpal5ArrayIN8opendnp34CellINS1_10BinarySpecEEEtED2Ev
	.type	_ZN7openpal5ArrayIN8opendnp34CellINS1_10BinarySpecEEEtED2Ev, @function
_ZN7openpal5ArrayIN8opendnp34CellINS1_10BinarySpecEEEtED2Ev:
.LFB11731:
	.cfi_startproc
	movq	_ZTVN7openpal5ArrayIN8opendnp34CellINS1_10BinarySpecEEEtEE@GOTPCREL(%rip), %rax
	addq	$16, %rax
	movq	%rax, (%rdi)
	movq	16(%rdi), %rdi
	testq	%rdi, %rdi
	je	.L120
	jmp	_ZdaPv@PLT
	.p2align 4,,10
	.p2align 3
.L120:
	rep ret
	.cfi_endproc
.LFE11731:
	.size	_ZN7openpal5ArrayIN8opendnp34CellINS1_10BinarySpecEEEtED2Ev, .-_ZN7openpal5ArrayIN8opendnp34CellINS1_10BinarySpecEEEtED2Ev
	.weak	_ZN7openpal5ArrayIN8opendnp34CellINS1_10BinarySpecEEEtED1Ev
	.set	_ZN7openpal5ArrayIN8opendnp34CellINS1_10BinarySpecEEEtED1Ev,_ZN7openpal5ArrayIN8opendnp34CellINS1_10BinarySpecEEEtED2Ev
	.section	.text._ZN7openpal5ArrayIN8opendnp34CellINS1_10BinarySpecEEEtED0Ev,"axG",@progbits,_ZN7openpal5ArrayIN8opendnp34CellINS1_10BinarySpecEEEtED5Ev,comdat
	.align 2
	.p2align 4,,15
	.weak	_ZN7openpal5ArrayIN8opendnp34CellINS1_10BinarySpecEEEtED0Ev
	.type	_ZN7openpal5ArrayIN8opendnp34CellINS1_10BinarySpecEEEtED0Ev, @function
_ZN7openpal5ArrayIN8opendnp34CellINS1_10BinarySpecEEEtED0Ev:
.LFB11733:
	.cfi_startproc
	movq	_ZTVN7openpal5ArrayIN8opendnp34CellINS1_10BinarySpecEEEtEE@GOTPCREL(%rip), %rax
	pushq	%rbx
	.cfi_def_cfa_offset 16
	.cfi_offset 3, -16
	movq	%rdi, %rbx
	addq	$16, %rax
	movq	%rax, (%rdi)
	movq	16(%rdi), %rdi
	testq	%rdi, %rdi
	je	.L123
	call	_ZdaPv@PLT
.L123:
	movq	%rbx, %rdi
	movl	$24, %esi
	popq	%rbx
	.cfi_def_cfa_offset 8
	jmp	_ZdlPvm@PLT
	.cfi_endproc
.LFE11733:
	.size	_ZN7openpal5ArrayIN8opendnp34CellINS1_10BinarySpecEEEtED0Ev, .-_ZN7openpal5ArrayIN8opendnp34CellINS1_10BinarySpecEEEtED0Ev
	.section	.text._ZN7openpal5ArrayINS_8ListNodeIN8opendnp39SOERecordEEEjED2Ev,"axG",@progbits,_ZN7openpal5ArrayINS_8ListNodeIN8opendnp39SOERecordEEEjED5Ev,comdat
	.align 2
	.p2align 4,,15
	.weak	_ZN7openpal5ArrayINS_8ListNodeIN8opendnp39SOERecordEEEjED2Ev
	.type	_ZN7openpal5ArrayINS_8ListNodeIN8opendnp39SOERecordEEEjED2Ev, @function
_ZN7openpal5ArrayINS_8ListNodeIN8opendnp39SOERecordEEEjED2Ev:
.LFB11727:
	.cfi_startproc
	movq	_ZTVN7openpal5ArrayINS_8ListNodeIN8opendnp39SOERecordEEEjEE@GOTPCREL(%rip), %rax
	addq	$16, %rax
	movq	%rax, (%rdi)
	movq	16(%rdi), %rdi
	testq	%rdi, %rdi
	je	.L128
	jmp	_ZdaPv@PLT
	.p2align 4,,10
	.p2align 3
.L128:
	rep ret
	.cfi_endproc
.LFE11727:
	.size	_ZN7openpal5ArrayINS_8ListNodeIN8opendnp39SOERecordEEEjED2Ev, .-_ZN7openpal5ArrayINS_8ListNodeIN8opendnp39SOERecordEEEjED2Ev
	.weak	_ZN7openpal5ArrayINS_8ListNodeIN8opendnp39SOERecordEEEjED1Ev
	.set	_ZN7openpal5ArrayINS_8ListNodeIN8opendnp39SOERecordEEEjED1Ev,_ZN7openpal5ArrayINS_8ListNodeIN8opendnp39SOERecordEEEjED2Ev
	.section	.text._ZN7openpal5ArrayINS_8ListNodeIN8opendnp39SOERecordEEEjED0Ev,"axG",@progbits,_ZN7openpal5ArrayINS_8ListNodeIN8opendnp39SOERecordEEEjED5Ev,comdat
	.align 2
	.p2align 4,,15
	.weak	_ZN7openpal5ArrayINS_8ListNodeIN8opendnp39SOERecordEEEjED0Ev
	.type	_ZN7openpal5ArrayINS_8ListNodeIN8opendnp39SOERecordEEEjED0Ev, @function
_ZN7openpal5ArrayINS_8ListNodeIN8opendnp39SOERecordEEEjED0Ev:
.LFB11729:
	.cfi_startproc
	movq	_ZTVN7openpal5ArrayINS_8ListNodeIN8opendnp39SOERecordEEEjEE@GOTPCREL(%rip), %rax
	pushq	%rbx
	.cfi_def_cfa_offset 16
	.cfi_offset 3, -16
	movq	%rdi, %rbx
	addq	$16, %rax
	movq	%rax, (%rdi)
	movq	16(%rdi), %rdi
	testq	%rdi, %rdi
	je	.L131
	call	_ZdaPv@PLT
.L131:
	movq	%rbx, %rdi
	movl	$24, %esi
	popq	%rbx
	.cfi_def_cfa_offset 8
	jmp	_ZdlPvm@PLT
	.cfi_endproc
.LFE11729:
	.size	_ZN7openpal5ArrayINS_8ListNodeIN8opendnp39SOERecordEEEjED0Ev, .-_ZN7openpal5ArrayINS_8ListNodeIN8opendnp39SOERecordEEEjED0Ev
	.section	.text._ZNSt13__future_base13_State_baseV29_M_do_setEPSt8functionIFSt10unique_ptrINS_12_Result_baseENS3_8_DeleterEEvEEPb,"axG",@progbits,_ZNSt13__future_base13_State_baseV29_M_do_setEPSt8functionIFSt10unique_ptrINS_12_Result_baseENS3_8_DeleterEEvEEPb,comdat
	.align 2
	.p2align 4,,15
	.weak	_ZNSt13__future_base13_State_baseV29_M_do_setEPSt8functionIFSt10unique_ptrINS_12_Result_baseENS3_8_DeleterEEvEEPb
	.type	_ZNSt13__future_base13_State_baseV29_M_do_setEPSt8functionIFSt10unique_ptrINS_12_Result_baseENS3_8_DeleterEEvEEPb, @function
_ZNSt13__future_base13_State_baseV29_M_do_setEPSt8functionIFSt10unique_ptrINS_12_Result_baseENS3_8_DeleterEEvEEPb:
.LFB6676:
	.cfi_startproc
	.cfi_personality 0x9b,DW.ref.__gxx_personality_v0
	.cfi_lsda 0x1b,.LLSDA6676
	pushq	%rbp
	.cfi_def_cfa_offset 16
	.cfi_offset 6, -16
	pushq	%rbx
	.cfi_def_cfa_offset 24
	.cfi_offset 3, -24
	subq	$24, %rsp
	.cfi_def_cfa_offset 48
	movq	%fs:40, %rcx
	movq	%rcx, 8(%rsp)
	xorl	%ecx, %ecx
	cmpq	$0, 16(%rsi)
	je	.L144
	movq	%rdi, %rbx
	movq	%rdx, %rbp
	movq	%rsp, %rdi
.LEHB0:
	call	*24(%rsi)
.LEHE0:
	movq	8(%rbx), %rdi
	movq	(%rsp), %rax
	movb	$1, 0(%rbp)
	testq	%rdi, %rdi
	movq	%rax, 8(%rbx)
	movq	%rdi, (%rsp)
	je	.L136
	movq	(%rdi), %rax
	call	*(%rax)
.L136:
	movq	8(%rsp), %rax
	xorq	%fs:40, %rax
	jne	.L145
	addq	$24, %rsp
	.cfi_remember_state
	.cfi_def_cfa_offset 24
	popq	%rbx
	.cfi_def_cfa_offset 16
	popq	%rbp
	.cfi_def_cfa_offset 8
	ret
.L144:
	.cfi_restore_state
.LEHB1:
	call	_ZSt25__throw_bad_function_callv@PLT
.LEHE1:
.L145:
	call	__stack_chk_fail@PLT
	.cfi_endproc
.LFE6676:
	.section	.gcc_except_table._ZNSt13__future_base13_State_baseV29_M_do_setEPSt8functionIFSt10unique_ptrINS_12_Result_baseENS3_8_DeleterEEvEEPb,"aG",@progbits,_ZNSt13__future_base13_State_baseV29_M_do_setEPSt8functionIFSt10unique_ptrINS_12_Result_baseENS3_8_DeleterEEvEEPb,comdat
.LLSDA6676:
	.byte	0xff
	.byte	0xff
	.byte	0x1
	.uleb128 .LLSDACSE6676-.LLSDACSB6676
.LLSDACSB6676:
	.uleb128 .LEHB0-.LFB6676
	.uleb128 .LEHE0-.LEHB0
	.uleb128 0
	.uleb128 0
	.uleb128 .LEHB1-.LFB6676
	.uleb128 .LEHE1-.LEHB1
	.uleb128 0
	.uleb128 0
.LLSDACSE6676:
	.section	.text._ZNSt13__future_base13_State_baseV29_M_do_setEPSt8functionIFSt10unique_ptrINS_12_Result_baseENS3_8_DeleterEEvEEPb,"axG",@progbits,_ZNSt13__future_base13_State_baseV29_M_do_setEPSt8functionIFSt10unique_ptrINS_12_Result_baseENS3_8_DeleterEEvEEPb,comdat
	.size	_ZNSt13__future_base13_State_baseV29_M_do_setEPSt8functionIFSt10unique_ptrINS_12_Result_baseENS3_8_DeleterEEvEEPb, .-_ZNSt13__future_base13_State_baseV29_M_do_setEPSt8functionIFSt10unique_ptrINS_12_Result_baseENS3_8_DeleterEEvEEPb
	.text
	.p2align 4,,15
	.type	_ZNSt17_Function_handlerIFN8opendnp315StackStatisticsEvEZN8asiodnp315OutstationStack18GetStackStatisticsEvEUlvE_E9_M_invokeERKSt9_Any_data, @function
_ZNSt17_Function_handlerIFN8opendnp315StackStatisticsEvEZN8asiodnp315OutstationStack18GetStackStatisticsEvEUlvE_E9_M_invokeERKSt9_Any_data:
.LFB10004:
	.cfi_startproc
	pushq	%rbp
	.cfi_def_cfa_offset 16
	.cfi_offset 6, -16
	pushq	%rbx
	.cfi_def_cfa_offset 24
	.cfi_offset 3, -24
	movq	%rdi, %rbx
	subq	$40, %rsp
	.cfi_def_cfa_offset 64
	movq	%fs:40, %rax
	movq	%rax, 24(%rsp)
	xorl	%eax, %eax
	movq	(%rsi), %rax
	movq	%rsp, %rdi
	movq	(%rax), %rbp
	movq	120(%rbp), %rsi
	call	_ZNK8opendnp314TransportLayer13GetStatisticsEv@PLT
	movq	136(%rbp), %rdi
	call	_ZNK8opendnp39LinkLayer13GetStatisticsEv@PLT
	movdqu	(%rax), %xmm0
	movq	16(%rsp), %rax
	movups	%xmm0, (%rbx)
	movq	24(%rsp), %rdx
	xorq	%fs:40, %rdx
	movdqa	(%rsp), %xmm0
	movq	%rax, 32(%rbx)
	movups	%xmm0, 16(%rbx)
	jne	.L149
	addq	$40, %rsp
	.cfi_remember_state
	.cfi_def_cfa_offset 24
	movq	%rbx, %rax
	popq	%rbx
	.cfi_def_cfa_offset 16
	popq	%rbp
	.cfi_def_cfa_offset 8
	ret
.L149:
	.cfi_restore_state
	call	__stack_chk_fail@PLT
	.cfi_endproc
.LFE10004:
	.size	_ZNSt17_Function_handlerIFN8opendnp315StackStatisticsEvEZN8asiodnp315OutstationStack18GetStackStatisticsEvEUlvE_E9_M_invokeERKSt9_Any_data, .-_ZNSt17_Function_handlerIFN8opendnp315StackStatisticsEvEZN8asiodnp315OutstationStack18GetStackStatisticsEvEUlvE_E9_M_invokeERKSt9_Any_data
	.section	.text._ZN4asio6detail15system_categoryD2Ev,"axG",@progbits,_ZN4asio6detail15system_categoryD5Ev,comdat
	.align 2
	.p2align 4,,15
	.weak	_ZN4asio6detail15system_categoryD2Ev
	.type	_ZN4asio6detail15system_categoryD2Ev, @function
_ZN4asio6detail15system_categoryD2Ev:
.LFB11589:
	.cfi_startproc
	movq	_ZTVN4asio6detail15system_categoryE@GOTPCREL(%rip), %rax
	addq	$16, %rax
	movq	%rax, (%rdi)
	jmp	_ZNSt3_V214error_categoryD2Ev@PLT
	.cfi_endproc
.LFE11589:
	.size	_ZN4asio6detail15system_categoryD2Ev, .-_ZN4asio6detail15system_categoryD2Ev
	.weak	_ZN4asio6detail15system_categoryD1Ev
	.set	_ZN4asio6detail15system_categoryD1Ev,_ZN4asio6detail15system_categoryD2Ev
	.section	.text._ZN4asio6detail15system_categoryD0Ev,"axG",@progbits,_ZN4asio6detail15system_categoryD5Ev,comdat
	.align 2
	.p2align 4,,15
	.weak	_ZN4asio6detail15system_categoryD0Ev
	.type	_ZN4asio6detail15system_categoryD0Ev, @function
_ZN4asio6detail15system_categoryD0Ev:
.LFB11591:
	.cfi_startproc
	movq	_ZTVN4asio6detail15system_categoryE@GOTPCREL(%rip), %rax
	pushq	%rbx
	.cfi_def_cfa_offset 16
	.cfi_offset 3, -16
	movq	%rdi, %rbx
	addq	$16, %rax
	movq	%rax, (%rdi)
	call	_ZNSt3_V214error_categoryD2Ev@PLT
	movq	%rbx, %rdi
	movl	$8, %esi
	popq	%rbx
	.cfi_def_cfa_offset 8
	jmp	_ZdlPvm@PLT
	.cfi_endproc
.LFE11591:
	.size	_ZN4asio6detail15system_categoryD0Ev, .-_ZN4asio6detail15system_categoryD0Ev
	.section	.text._ZN4asio5error6detail14netdb_categoryD2Ev,"axG",@progbits,_ZN4asio5error6detail14netdb_categoryD5Ev,comdat
	.align 2
	.p2align 4,,15
	.weak	_ZN4asio5error6detail14netdb_categoryD2Ev
	.type	_ZN4asio5error6detail14netdb_categoryD2Ev, @function
_ZN4asio5error6detail14netdb_categoryD2Ev:
.LFB11577:
	.cfi_startproc
	movq	_ZTVN4asio5error6detail14netdb_categoryE@GOTPCREL(%rip), %rax
	addq	$16, %rax
	movq	%rax, (%rdi)
	jmp	_ZNSt3_V214error_categoryD2Ev@PLT
	.cfi_endproc
.LFE11577:
	.size	_ZN4asio5error6detail14netdb_categoryD2Ev, .-_ZN4asio5error6detail14netdb_categoryD2Ev
	.weak	_ZN4asio5error6detail14netdb_categoryD1Ev
	.set	_ZN4asio5error6detail14netdb_categoryD1Ev,_ZN4asio5error6detail14netdb_categoryD2Ev
	.section	.text._ZN4asio5error6detail14netdb_categoryD0Ev,"axG",@progbits,_ZN4asio5error6detail14netdb_categoryD5Ev,comdat
	.align 2
	.p2align 4,,15
	.weak	_ZN4asio5error6detail14netdb_categoryD0Ev
	.type	_ZN4asio5error6detail14netdb_categoryD0Ev, @function
_ZN4asio5error6detail14netdb_categoryD0Ev:
.LFB11579:
	.cfi_startproc
	movq	_ZTVN4asio5error6detail14netdb_categoryE@GOTPCREL(%rip), %rax
	pushq	%rbx
	.cfi_def_cfa_offset 16
	.cfi_offset 3, -16
	movq	%rdi, %rbx
	addq	$16, %rax
	movq	%rax, (%rdi)
	call	_ZNSt3_V214error_categoryD2Ev@PLT
	movq	%rbx, %rdi
	movl	$8, %esi
	popq	%rbx
	.cfi_def_cfa_offset 8
	jmp	_ZdlPvm@PLT
	.cfi_endproc
.LFE11579:
	.size	_ZN4asio5error6detail14netdb_categoryD0Ev, .-_ZN4asio5error6detail14netdb_categoryD0Ev
	.section	.text._ZN4asio5error6detail17addrinfo_categoryD2Ev,"axG",@progbits,_ZN4asio5error6detail17addrinfo_categoryD5Ev,comdat
	.align 2
	.p2align 4,,15
	.weak	_ZN4asio5error6detail17addrinfo_categoryD2Ev
	.type	_ZN4asio5error6detail17addrinfo_categoryD2Ev, @function
_ZN4asio5error6detail17addrinfo_categoryD2Ev:
.LFB11573:
	.cfi_startproc
	movq	_ZTVN4asio5error6detail17addrinfo_categoryE@GOTPCREL(%rip), %rax
	addq	$16, %rax
	movq	%rax, (%rdi)
	jmp	_ZNSt3_V214error_categoryD2Ev@PLT
	.cfi_endproc
.LFE11573:
	.size	_ZN4asio5error6detail17addrinfo_categoryD2Ev, .-_ZN4asio5error6detail17addrinfo_categoryD2Ev
	.weak	_ZN4asio5error6detail17addrinfo_categoryD1Ev
	.set	_ZN4asio5error6detail17addrinfo_categoryD1Ev,_ZN4asio5error6detail17addrinfo_categoryD2Ev
	.section	.text._ZN4asio5error6detail17addrinfo_categoryD0Ev,"axG",@progbits,_ZN4asio5error6detail17addrinfo_categoryD5Ev,comdat
	.align 2
	.p2align 4,,15
	.weak	_ZN4asio5error6detail17addrinfo_categoryD0Ev
	.type	_ZN4asio5error6detail17addrinfo_categoryD0Ev, @function
_ZN4asio5error6detail17addrinfo_categoryD0Ev:
.LFB11575:
	.cfi_startproc
	movq	_ZTVN4asio5error6detail17addrinfo_categoryE@GOTPCREL(%rip), %rax
	pushq	%rbx
	.cfi_def_cfa_offset 16
	.cfi_offset 3, -16
	movq	%rdi, %rbx
	addq	$16, %rax
	movq	%rax, (%rdi)
	call	_ZNSt3_V214error_categoryD2Ev@PLT
	movq	%rbx, %rdi
	movl	$8, %esi
	popq	%rbx
	.cfi_def_cfa_offset 8
	jmp	_ZdlPvm@PLT
	.cfi_endproc
.LFE11575:
	.size	_ZN4asio5error6detail17addrinfo_categoryD0Ev, .-_ZN4asio5error6detail17addrinfo_categoryD0Ev
	.section	.text._ZN4asio5error6detail13misc_categoryD2Ev,"axG",@progbits,_ZN4asio5error6detail13misc_categoryD5Ev,comdat
	.align 2
	.p2align 4,,15
	.weak	_ZN4asio5error6detail13misc_categoryD2Ev
	.type	_ZN4asio5error6detail13misc_categoryD2Ev, @function
_ZN4asio5error6detail13misc_categoryD2Ev:
.LFB11569:
	.cfi_startproc
	movq	_ZTVN4asio5error6detail13misc_categoryE@GOTPCREL(%rip), %rax
	addq	$16, %rax
	movq	%rax, (%rdi)
	jmp	_ZNSt3_V214error_categoryD2Ev@PLT
	.cfi_endproc
.LFE11569:
	.size	_ZN4asio5error6detail13misc_categoryD2Ev, .-_ZN4asio5error6detail13misc_categoryD2Ev
	.weak	_ZN4asio5error6detail13misc_categoryD1Ev
	.set	_ZN4asio5error6detail13misc_categoryD1Ev,_ZN4asio5error6detail13misc_categoryD2Ev
	.section	.text._ZN4asio5error6detail13misc_categoryD0Ev,"axG",@progbits,_ZN4asio5error6detail13misc_categoryD5Ev,comdat
	.align 2
	.p2align 4,,15
	.weak	_ZN4asio5error6detail13misc_categoryD0Ev
	.type	_ZN4asio5error6detail13misc_categoryD0Ev, @function
_ZN4asio5error6detail13misc_categoryD0Ev:
.LFB11571:
	.cfi_startproc
	movq	_ZTVN4asio5error6detail13misc_categoryE@GOTPCREL(%rip), %rax
	pushq	%rbx
	.cfi_def_cfa_offset 16
	.cfi_offset 3, -16
	movq	%rdi, %rbx
	addq	$16, %rax
	movq	%rax, (%rdi)
	call	_ZNSt3_V214error_categoryD2Ev@PLT
	movq	%rbx, %rdi
	movl	$8, %esi
	popq	%rbx
	.cfi_def_cfa_offset 8
	jmp	_ZdlPvm@PLT
	.cfi_endproc
.LFE11571:
	.size	_ZN4asio5error6detail13misc_categoryD0Ev, .-_ZN4asio5error6detail13misc_categoryD0Ev
	.section	.text._ZNSt13__future_base7_ResultIN8opendnp315StackStatisticsEE10_M_destroyEv,"axG",@progbits,_ZNSt13__future_base7_ResultIN8opendnp315StackStatisticsEE10_M_destroyEv,comdat
	.align 2
	.p2align 4,,15
	.weak	_ZNSt13__future_base7_ResultIN8opendnp315StackStatisticsEE10_M_destroyEv
	.type	_ZNSt13__future_base7_ResultIN8opendnp315StackStatisticsEE10_M_destroyEv, @function
_ZNSt13__future_base7_ResultIN8opendnp315StackStatisticsEE10_M_destroyEv:
.LFB11715:
	.cfi_startproc
	movq	(%rdi), %rax
	movq	16(%rax), %rax
	cmpq	_ZNSt13__future_base7_ResultIN8opendnp315StackStatisticsEED0Ev@GOTPCREL(%rip), %rax
	jne	.L163
	movq	_ZTVNSt13__future_base7_ResultIN8opendnp315StackStatisticsEEE@GOTPCREL(%rip), %rax
	pushq	%rbx
	.cfi_def_cfa_offset 16
	.cfi_offset 3, -16
	movq	%rdi, %rbx
	addq	$16, %rax
	movq	%rax, (%rdi)
	call	_ZNSt13__future_base12_Result_baseD2Ev@PLT
	movq	%rbx, %rdi
	movl	$64, %esi
	popq	%rbx
	.cfi_restore 3
	.cfi_def_cfa_offset 8
	jmp	_ZdlPvm@PLT
	.p2align 4,,10
	.p2align 3
.L163:
	jmp	*%rax
	.cfi_endproc
.LFE11715:
	.size	_ZNSt13__future_base7_ResultIN8opendnp315StackStatisticsEE10_M_destroyEv, .-_ZNSt13__future_base7_ResultIN8opendnp315StackStatisticsEE10_M_destroyEv
	.section	.text._ZNSt13__future_base7_ResultIbE10_M_destroyEv,"axG",@progbits,_ZNSt13__future_base7_ResultIbE10_M_destroyEv,comdat
	.align 2
	.p2align 4,,15
	.weak	_ZNSt13__future_base7_ResultIbE10_M_destroyEv
	.type	_ZNSt13__future_base7_ResultIbE10_M_destroyEv, @function
_ZNSt13__future_base7_ResultIbE10_M_destroyEv:
.LFB11720:
	.cfi_startproc
	movq	(%rdi), %rax
	movq	16(%rax), %rax
	cmpq	_ZNSt13__future_base7_ResultIbED0Ev@GOTPCREL(%rip), %rax
	jne	.L168
	movq	_ZTVNSt13__future_base7_ResultIbEE@GOTPCREL(%rip), %rax
	pushq	%rbx
	.cfi_def_cfa_offset 16
	.cfi_offset 3, -16
	movq	%rdi, %rbx
	addq	$16, %rax
	movq	%rax, (%rdi)
	call	_ZNSt13__future_base12_Result_baseD2Ev@PLT
	movq	%rbx, %rdi
	movl	$24, %esi
	popq	%rbx
	.cfi_restore 3
	.cfi_def_cfa_offset 8
	jmp	_ZdlPvm@PLT
	.p2align 4,,10
	.p2align 3
.L168:
	jmp	*%rax
	.cfi_endproc
.LFE11720:
	.size	_ZNSt13__future_base7_ResultIbE10_M_destroyEv, .-_ZNSt13__future_base7_ResultIbE10_M_destroyEv
	.section	.text._ZN4asio6detail18completion_handlerIZN7asiopal8Executor10ReturnFromIN8opendnp315StackStatisticsEEET_RKSt8functionIFS7_vEEEUlvE_E11do_completeEPNS0_15task_io_serviceEPNS0_25task_io_service_operationERKSt10error_codem,"axG",@progbits,_ZN4asio6detail18completion_handlerIZN7asiopal8Executor10ReturnFromIN8opendnp315StackStatisticsEEET_RKSt8functionIFS7_vEEEUlvE_E11do_completeEPNS0_15task_io_serviceEPNS0_25task_io_service_operationERKSt10error_codem,comdat
	.p2align 4,,15
	.weak	_ZN4asio6detail18completion_handlerIZN7asiopal8Executor10ReturnFromIN8opendnp315StackStatisticsEEET_RKSt8functionIFS7_vEEEUlvE_E11do_completeEPNS0_15task_io_serviceEPNS0_25task_io_service_operationERKSt10error_codem
	.type	_ZN4asio6detail18completion_handlerIZN7asiopal8Executor10ReturnFromIN8opendnp315StackStatisticsEEET_RKSt8functionIFS7_vEEEUlvE_E11do_completeEPNS0_15task_io_serviceEPNS0_25task_io_service_operationERKSt10error_codem, @function
_ZN4asio6detail18completion_handlerIZN7asiopal8Executor10ReturnFromIN8opendnp315StackStatisticsEEET_RKSt8functionIFS7_vEEEUlvE_E11do_completeEPNS0_15task_io_serviceEPNS0_25task_io_service_operationERKSt10error_codem:
.LFB10992:
	.cfi_startproc
	.cfi_personality 0x9b,DW.ref.__gxx_personality_v0
	.cfi_lsda 0x1b,.LLSDA10992
	pushq	%r13
	.cfi_def_cfa_offset 16
	.cfi_offset 13, -16
	pushq	%r12
	.cfi_def_cfa_offset 24
	.cfi_offset 12, -24
	movq	%rdi, %r13
	pushq	%rbp
	.cfi_def_cfa_offset 32
	.cfi_offset 6, -32
	pushq	%rbx
	.cfi_def_cfa_offset 40
	.cfi_offset 3, -40
	movq	%rsi, %rbx
	subq	$200, %rsp
	.cfi_def_cfa_offset 240
	movq	24(%rsi), %r12
	movq	32(%rsi), %rbp
	movq	%fs:40, %rax
	movq	%rax, 184(%rsp)
	xorl	%eax, %eax
	.byte	0x66
	leaq	_ZN4asio6detail15keyword_tss_ptrINS0_10call_stackINS0_15task_io_serviceENS0_27task_io_service_thread_infoEE7contextEE6value_E@tlsgd(%rip), %rdi
	.value	0x6666
	rex64
	call	__tls_get_addr@PLT
	movq	(%rax), %rax
	testq	%rax, %rax
	je	.L173
	movq	8(%rax), %rax
	testq	%rax, %rax
	je	.L173
	cmpq	$0, (%rax)
	je	.L205
.L173:
	movq	%rbx, %rdi
	call	_ZdlPv@PLT
.L174:
	testq	%r13, %r13
	je	.L172
	cmpq	$0, 16(%rbp)
	je	.L206
	leaq	96(%rsp), %r13
	movq	%rbp, %rsi
	movq	%r13, %rdi
.LEHB2:
	call	*24(%rbp)
.LEHE2:
	movq	(%r12), %rbx
	testq	%rbx, %rbx
	je	.L207
	leaq	23(%rsp), %rax
	movq	_ZNSt14_Function_base13_Base_managerINSt13__future_base13_State_baseV27_SetterIN8opendnp315StackStatisticsEOS5_EEE10_M_managerERSt9_Any_dataRKS9_St18_Manager_operation@GOTPCREL(%rip), %xmm0
	movhps	_ZNSt17_Function_handlerIFSt10unique_ptrINSt13__future_base12_Result_baseENS2_8_DeleterEEvENS1_13_State_baseV27_SetterIN8opendnp315StackStatisticsEOS9_EEE9_M_invokeERKSt9_Any_data@GOTPCREL(%rip), %xmm0
	leaq	144(%rsp), %rbp
	movq	%r12, 144(%rsp)
	movq	%rax, 40(%rsp)
	movq	_ZNSt13__future_base13_State_baseV29_M_do_setEPSt8functionIFSt10unique_ptrINS_12_Result_baseENS3_8_DeleterEEvEEPb@GOTPCREL(%rip), %rax
	movaps	%xmm0, 160(%rsp)
	movq	%r13, 152(%rsp)
	movb	$0, 23(%rsp)
	movq	%rax, 48(%rsp)
	leaq	48(%rsp), %rax
	movq	%rbp, 32(%rsp)
	movq	%rbx, 24(%rsp)
	movq	$0, 56(%rsp)
	movq	%rax, 8(%rsp)
	leaq	24(%rsp), %rax
	movq	8(%rsp), %xmm0
	movq	%rax, 8(%rsp)
	leaq	32(%rsp), %rax
	movhps	8(%rsp), %xmm0
	movq	%rax, 8(%rsp)
	leaq	40(%rsp), %rax
	movaps	%xmm0, 64(%rsp)
	movq	8(%rsp), %xmm0
	movq	%rax, 8(%rsp)
	movhps	8(%rsp), %xmm0
	movaps	%xmm0, 80(%rsp)
	.byte	0x66
	leaq	_ZSt15__once_callable@tlsgd(%rip), %rdi
	.value	0x6666
	rex64
	call	__tls_get_addr@PLT
	leaq	64(%rsp), %rdx
	movq	%rdx, (%rax)
	.byte	0x66
	leaq	_ZSt11__once_call@tlsgd(%rip), %rdi
	.value	0x6666
	rex64
	call	__tls_get_addr@PLT
	cmpq	$0, _ZL28__gthrw___pthread_key_createPjPFvPvE@GOTPCREL(%rip)
	movq	_ZZSt9call_onceIMNSt13__future_base13_State_baseV2EFvPSt8functionIFSt10unique_ptrINS0_12_Result_baseENS4_8_DeleterEEvEEPbEJPS1_S9_SA_EEvRSt9once_flagOT_DpOT0_ENUlvE0_4_FUNEv@GOTPCREL(%rip), %rdx
	leaq	24(%rbx), %rdi
	movq	%rdx, (%rax)
	je	.L189
	movq	__once_proxy@GOTPCREL(%rip), %rsi
.LEHB3:
	call	_ZL20__gthrw_pthread_oncePiPFvvE@PLT
	testl	%eax, %eax
	jne	.L178
	cmpb	$0, 23(%rsp)
	jne	.L208
	movl	$2, %edi
	call	_ZSt20__throw_future_errori@PLT
	.p2align 4,,10
	.p2align 3
.L208:
	leaq	16(%rbx), %rdi
	movl	$1, %eax
	xchgl	(%rdi), %eax
	testl	%eax, %eax
	jns	.L184
	call	_ZNSt28__atomic_futex_unsigned_base19_M_futex_notify_allEPj@PLT
.LEHE3:
.L184:
	movq	160(%rsp), %rax
	testq	%rax, %rax
	je	.L183
	movl	$3, %edx
	movq	%rbp, %rsi
	movq	%rbp, %rdi
	call	*%rax
.L183:
	sfence
.L172:
	movq	184(%rsp), %rax
	xorq	%fs:40, %rax
	jne	.L209
	addq	$200, %rsp
	.cfi_remember_state
	.cfi_def_cfa_offset 40
	popq	%rbx
	.cfi_def_cfa_offset 32
	popq	%rbp
	.cfi_def_cfa_offset 24
	popq	%r12
	.cfi_def_cfa_offset 16
	popq	%r13
	.cfi_def_cfa_offset 8
	ret
	.p2align 4,,10
	.p2align 3
.L205:
	.cfi_restore_state
	movzbl	40(%rbx), %edx
	movb	%dl, (%rbx)
	movq	%rbx, (%rax)
	jmp	.L174
.L191:
	movq	%rax, %rbx
	movq	160(%rsp), %rax
	testq	%rax, %rax
	je	.L186
	movl	$3, %edx
	movq	%rbp, %rsi
	movq	%rbp, %rdi
	call	*%rax
.L186:
	movq	%rbx, %rax
.L187:
	movq	%rax, %rdi
	sfence
.LEHB4:
	call	_Unwind_Resume@PLT
.LEHE4:
.L189:
	orl	$-1, %eax
.L178:
	movl	%eax, %edi
.LEHB5:
	call	_ZSt20__throw_system_errori@PLT
.LEHE5:
.L206:
.LEHB6:
	call	_ZSt25__throw_bad_function_callv@PLT
.L190:
	jmp	.L187
.L207:
	movl	$3, %edi
	call	_ZSt20__throw_future_errori@PLT
.LEHE6:
.L209:
	call	__stack_chk_fail@PLT
	.cfi_endproc
.LFE10992:
	.section	.gcc_except_table._ZN4asio6detail18completion_handlerIZN7asiopal8Executor10ReturnFromIN8opendnp315StackStatisticsEEET_RKSt8functionIFS7_vEEEUlvE_E11do_completeEPNS0_15task_io_serviceEPNS0_25task_io_service_operationERKSt10error_codem,"aG",@progbits,_ZN4asio6detail18completion_handlerIZN7asiopal8Executor10ReturnFromIN8opendnp315StackStatisticsEEET_RKSt8functionIFS7_vEEEUlvE_E11do_completeEPNS0_15task_io_serviceEPNS0_25task_io_service_operationERKSt10error_codem,comdat
.LLSDA10992:
	.byte	0xff
	.byte	0xff
	.byte	0x1
	.uleb128 .LLSDACSE10992-.LLSDACSB10992
.LLSDACSB10992:
	.uleb128 .LEHB2-.LFB10992
	.uleb128 .LEHE2-.LEHB2
	.uleb128 .L190-.LFB10992
	.uleb128 0
	.uleb128 .LEHB3-.LFB10992
	.uleb128 .LEHE3-.LEHB3
	.uleb128 .L191-.LFB10992
	.uleb128 0
	.uleb128 .LEHB4-.LFB10992
	.uleb128 .LEHE4-.LEHB4
	.uleb128 0
	.uleb128 0
	.uleb128 .LEHB5-.LFB10992
	.uleb128 .LEHE5-.LEHB5
	.uleb128 .L191-.LFB10992
	.uleb128 0
	.uleb128 .LEHB6-.LFB10992
	.uleb128 .LEHE6-.LEHB6
	.uleb128 .L190-.LFB10992
	.uleb128 0
.LLSDACSE10992:
	.section	.text._ZN4asio6detail18completion_handlerIZN7asiopal8Executor10ReturnFromIN8opendnp315StackStatisticsEEET_RKSt8functionIFS7_vEEEUlvE_E11do_completeEPNS0_15task_io_serviceEPNS0_25task_io_service_operationERKSt10error_codem,"axG",@progbits,_ZN4asio6detail18completion_handlerIZN7asiopal8Executor10ReturnFromIN8opendnp315StackStatisticsEEET_RKSt8functionIFS7_vEEEUlvE_E11do_completeEPNS0_15task_io_serviceEPNS0_25task_io_service_operationERKSt10error_codem,comdat
	.size	_ZN4asio6detail18completion_handlerIZN7asiopal8Executor10ReturnFromIN8opendnp315StackStatisticsEEET_RKSt8functionIFS7_vEEEUlvE_E11do_completeEPNS0_15task_io_serviceEPNS0_25task_io_service_operationERKSt10error_codem, .-_ZN4asio6detail18completion_handlerIZN7asiopal8Executor10ReturnFromIN8opendnp315StackStatisticsEEET_RKSt8functionIFS7_vEEEUlvE_E11do_completeEPNS0_15task_io_serviceEPNS0_25task_io_service_operationERKSt10error_codem
	.section	.text._ZN4asio6detail18completion_handlerIZN7asiopal8Executor10ReturnFromIbEET_RKSt8functionIFS5_vEEEUlvE_E11do_completeEPNS0_15task_io_serviceEPNS0_25task_io_service_operationERKSt10error_codem,"axG",@progbits,_ZN4asio6detail18completion_handlerIZN7asiopal8Executor10ReturnFromIbEET_RKSt8functionIFS5_vEEEUlvE_E11do_completeEPNS0_15task_io_serviceEPNS0_25task_io_service_operationERKSt10error_codem,comdat
	.p2align 4,,15
	.weak	_ZN4asio6detail18completion_handlerIZN7asiopal8Executor10ReturnFromIbEET_RKSt8functionIFS5_vEEEUlvE_E11do_completeEPNS0_15task_io_serviceEPNS0_25task_io_service_operationERKSt10error_codem
	.type	_ZN4asio6detail18completion_handlerIZN7asiopal8Executor10ReturnFromIbEET_RKSt8functionIFS5_vEEEUlvE_E11do_completeEPNS0_15task_io_serviceEPNS0_25task_io_service_operationERKSt10error_codem, @function
_ZN4asio6detail18completion_handlerIZN7asiopal8Executor10ReturnFromIbEET_RKSt8functionIFS5_vEEEUlvE_E11do_completeEPNS0_15task_io_serviceEPNS0_25task_io_service_operationERKSt10error_codem:
.LFB10957:
	.cfi_startproc
	.cfi_personality 0x9b,DW.ref.__gxx_personality_v0
	.cfi_lsda 0x1b,.LLSDA10957
	pushq	%r13
	.cfi_def_cfa_offset 16
	.cfi_offset 13, -16
	pushq	%r12
	.cfi_def_cfa_offset 24
	.cfi_offset 12, -24
	movq	%rdi, %r13
	pushq	%rbp
	.cfi_def_cfa_offset 32
	.cfi_offset 6, -32
	pushq	%rbx
	.cfi_def_cfa_offset 40
	.cfi_offset 3, -40
	movq	%rsi, %rbx
	subq	$152, %rsp
	.cfi_def_cfa_offset 192
	movq	24(%rsi), %r12
	movq	32(%rsi), %rbp
	movq	%fs:40, %rax
	movq	%rax, 136(%rsp)
	xorl	%eax, %eax
	.byte	0x66
	leaq	_ZN4asio6detail15keyword_tss_ptrINS0_10call_stackINS0_15task_io_serviceENS0_27task_io_service_thread_infoEE7contextEE6value_E@tlsgd(%rip), %rdi
	.value	0x6666
	rex64
	call	__tls_get_addr@PLT
	movq	(%rax), %rax
	testq	%rax, %rax
	je	.L211
	movq	8(%rax), %rax
	testq	%rax, %rax
	je	.L211
	cmpq	$0, (%rax)
	je	.L243
.L211:
	movq	%rbx, %rdi
	call	_ZdlPv@PLT
.L212:
	testq	%r13, %r13
	je	.L210
	cmpq	$0, 16(%rbp)
	je	.L244
	movq	%rbp, %rdi
.LEHB7:
	call	*24(%rbp)
.LEHE7:
	movq	(%r12), %rbx
	movb	%al, 22(%rsp)
	testq	%rbx, %rbx
	je	.L245
	leaq	22(%rsp), %rax
	movq	_ZNSt14_Function_base13_Base_managerINSt13__future_base13_State_baseV27_SetterIbObEEE10_M_managerERSt9_Any_dataRKS7_St18_Manager_operation@GOTPCREL(%rip), %xmm0
	movhps	_ZNSt17_Function_handlerIFSt10unique_ptrINSt13__future_base12_Result_baseENS2_8_DeleterEEvENS1_13_State_baseV27_SetterIbObEEE9_M_invokeERKSt9_Any_data@GOTPCREL(%rip), %xmm0
	leaq	96(%rsp), %rbp
	movq	%r12, 96(%rsp)
	movq	%rax, 104(%rsp)
	leaq	23(%rsp), %rax
	movb	$0, 23(%rsp)
	movaps	%xmm0, 112(%rsp)
	movq	%rax, 40(%rsp)
	movq	_ZNSt13__future_base13_State_baseV29_M_do_setEPSt8functionIFSt10unique_ptrINS_12_Result_baseENS3_8_DeleterEEvEEPb@GOTPCREL(%rip), %rax
	movq	%rax, 48(%rsp)
	leaq	48(%rsp), %rax
	movq	%rbp, 32(%rsp)
	movq	%rbx, 24(%rsp)
	movq	$0, 56(%rsp)
	movq	%rax, 8(%rsp)
	leaq	24(%rsp), %rax
	movq	8(%rsp), %xmm0
	movq	%rax, 8(%rsp)
	leaq	32(%rsp), %rax
	movhps	8(%rsp), %xmm0
	movq	%rax, 8(%rsp)
	leaq	40(%rsp), %rax
	movaps	%xmm0, 64(%rsp)
	movq	8(%rsp), %xmm0
	movq	%rax, 8(%rsp)
	movhps	8(%rsp), %xmm0
	movaps	%xmm0, 80(%rsp)
	.byte	0x66
	leaq	_ZSt15__once_callable@tlsgd(%rip), %rdi
	.value	0x6666
	rex64
	call	__tls_get_addr@PLT
	leaq	64(%rsp), %rdx
	movq	%rdx, (%rax)
	.byte	0x66
	leaq	_ZSt11__once_call@tlsgd(%rip), %rdi
	.value	0x6666
	rex64
	call	__tls_get_addr@PLT
	cmpq	$0, _ZL28__gthrw___pthread_key_createPjPFvPvE@GOTPCREL(%rip)
	movq	_ZZSt9call_onceIMNSt13__future_base13_State_baseV2EFvPSt8functionIFSt10unique_ptrINS0_12_Result_baseENS4_8_DeleterEEvEEPbEJPS1_S9_SA_EEvRSt9once_flagOT_DpOT0_ENUlvE0_4_FUNEv@GOTPCREL(%rip), %rdx
	leaq	24(%rbx), %rdi
	movq	%rdx, (%rax)
	je	.L227
	movq	__once_proxy@GOTPCREL(%rip), %rsi
.LEHB8:
	call	_ZL20__gthrw_pthread_oncePiPFvvE@PLT
	testl	%eax, %eax
	jne	.L216
	cmpb	$0, 23(%rsp)
	jne	.L246
	movl	$2, %edi
	call	_ZSt20__throw_future_errori@PLT
	.p2align 4,,10
	.p2align 3
.L246:
	leaq	16(%rbx), %rdi
	movl	$1, %eax
	xchgl	(%rdi), %eax
	testl	%eax, %eax
	jns	.L222
	call	_ZNSt28__atomic_futex_unsigned_base19_M_futex_notify_allEPj@PLT
.LEHE8:
.L222:
	movq	112(%rsp), %rax
	testq	%rax, %rax
	je	.L221
	movl	$3, %edx
	movq	%rbp, %rsi
	movq	%rbp, %rdi
	call	*%rax
.L221:
	sfence
.L210:
	movq	136(%rsp), %rax
	xorq	%fs:40, %rax
	jne	.L247
	addq	$152, %rsp
	.cfi_remember_state
	.cfi_def_cfa_offset 40
	popq	%rbx
	.cfi_def_cfa_offset 32
	popq	%rbp
	.cfi_def_cfa_offset 24
	popq	%r12
	.cfi_def_cfa_offset 16
	popq	%r13
	.cfi_def_cfa_offset 8
	ret
	.p2align 4,,10
	.p2align 3
.L243:
	.cfi_restore_state
	movzbl	40(%rbx), %edx
	movb	%dl, (%rbx)
	movq	%rbx, (%rax)
	jmp	.L212
.L229:
	movq	%rax, %rbx
	movq	112(%rsp), %rax
	testq	%rax, %rax
	je	.L224
	movl	$3, %edx
	movq	%rbp, %rsi
	movq	%rbp, %rdi
	call	*%rax
.L224:
	movq	%rbx, %rax
.L225:
	movq	%rax, %rdi
	sfence
.LEHB9:
	call	_Unwind_Resume@PLT
.LEHE9:
.L227:
	orl	$-1, %eax
.L216:
	movl	%eax, %edi
.LEHB10:
	call	_ZSt20__throw_system_errori@PLT
.LEHE10:
.L244:
.LEHB11:
	call	_ZSt25__throw_bad_function_callv@PLT
.L228:
	jmp	.L225
.L245:
	movl	$3, %edi
	call	_ZSt20__throw_future_errori@PLT
.LEHE11:
.L247:
	call	__stack_chk_fail@PLT
	.cfi_endproc
.LFE10957:
	.section	.gcc_except_table._ZN4asio6detail18completion_handlerIZN7asiopal8Executor10ReturnFromIbEET_RKSt8functionIFS5_vEEEUlvE_E11do_completeEPNS0_15task_io_serviceEPNS0_25task_io_service_operationERKSt10error_codem,"aG",@progbits,_ZN4asio6detail18completion_handlerIZN7asiopal8Executor10ReturnFromIbEET_RKSt8functionIFS5_vEEEUlvE_E11do_completeEPNS0_15task_io_serviceEPNS0_25task_io_service_operationERKSt10error_codem,comdat
.LLSDA10957:
	.byte	0xff
	.byte	0xff
	.byte	0x1
	.uleb128 .LLSDACSE10957-.LLSDACSB10957
.LLSDACSB10957:
	.uleb128 .LEHB7-.LFB10957
	.uleb128 .LEHE7-.LEHB7
	.uleb128 .L228-.LFB10957
	.uleb128 0
	.uleb128 .LEHB8-.LFB10957
	.uleb128 .LEHE8-.LEHB8
	.uleb128 .L229-.LFB10957
	.uleb128 0
	.uleb128 .LEHB9-.LFB10957
	.uleb128 .LEHE9-.LEHB9
	.uleb128 0
	.uleb128 0
	.uleb128 .LEHB10-.LFB10957
	.uleb128 .LEHE10-.LEHB10
	.uleb128 .L229-.LFB10957
	.uleb128 0
	.uleb128 .LEHB11-.LFB10957
	.uleb128 .LEHE11-.LEHB11
	.uleb128 .L228-.LFB10957
	.uleb128 0
.LLSDACSE10957:
	.section	.text._ZN4asio6detail18completion_handlerIZN7asiopal8Executor10ReturnFromIbEET_RKSt8functionIFS5_vEEEUlvE_E11do_completeEPNS0_15task_io_serviceEPNS0_25task_io_service_operationERKSt10error_codem,"axG",@progbits,_ZN4asio6detail18completion_handlerIZN7asiopal8Executor10ReturnFromIbEET_RKSt8functionIFS5_vEEEUlvE_E11do_completeEPNS0_15task_io_serviceEPNS0_25task_io_service_operationERKSt10error_codem,comdat
	.size	_ZN4asio6detail18completion_handlerIZN7asiopal8Executor10ReturnFromIbEET_RKSt8functionIFS5_vEEEUlvE_E11do_completeEPNS0_15task_io_serviceEPNS0_25task_io_service_operationERKSt10error_codem, .-_ZN4asio6detail18completion_handlerIZN7asiopal8Executor10ReturnFromIbEET_RKSt8functionIFS5_vEEEUlvE_E11do_completeEPNS0_15task_io_serviceEPNS0_25task_io_service_operationERKSt10error_codem
	.section	.rodata._ZNK4asio6detail15system_category7messageB5cxx11Ei.str1.8,"aMS",@progbits,1
	.align 8
.LC4:
	.string	"basic_string::_M_construct null not valid"
	.section	.text._ZNK4asio6detail15system_category7messageB5cxx11Ei,"axG",@progbits,_ZNK4asio6detail15system_category7messageB5cxx11Ei,comdat
	.align 2
	.p2align 4,,15
	.weak	_ZNK4asio6detail15system_category7messageB5cxx11Ei
	.type	_ZNK4asio6detail15system_category7messageB5cxx11Ei, @function
_ZNK4asio6detail15system_category7messageB5cxx11Ei:
.LFB2690:
	.cfi_startproc
	pushq	%r13
	.cfi_def_cfa_offset 16
	.cfi_offset 13, -16
	pushq	%r12
	.cfi_def_cfa_offset 24
	.cfi_offset 12, -24
	pushq	%rbp
	.cfi_def_cfa_offset 32
	.cfi_offset 6, -32
	pushq	%rbx
	.cfi_def_cfa_offset 40
	.cfi_offset 3, -40
	leaq	16(%rdi), %rbp
	movq	%rdi, %rbx
	subq	$296, %rsp
	.cfi_def_cfa_offset 336
	movq	%fs:40, %rax
	movq	%rax, 280(%rsp)
	xorl	%eax, %eax
	cmpl	$125, %edx
	je	.L263
	pxor	%xmm0, %xmm0
	leaq	32(%rsp), %rdi
	movl	%edx, %r8d
	xorl	%eax, %eax
	movl	$30, %ecx
	leaq	16(%rsp), %rsi
	rep stosq
	movl	$256, %edx
	movl	%r8d, %edi
	movaps	%xmm0, 16(%rsp)
	call	strerror_r@PLT
	testq	%rax, %rax
	movq	%rax, %r12
	movq	%rbp, (%rbx)
	je	.L251
	movq	%rax, %rdi
	call	strlen@PLT
	cmpq	$15, %rax
	movq	%rax, %r13
	movq	%rax, 8(%rsp)
	ja	.L264
	cmpq	$1, %rax
	jne	.L255
	movzbl	(%r12), %edx
	movb	%dl, 16(%rbx)
.L256:
	movq	%rax, 8(%rbx)
	movb	$0, 0(%rbp,%rax)
.L248:
	movq	280(%rsp), %rcx
	xorq	%fs:40, %rcx
	movq	%rbx, %rax
	jne	.L265
	addq	$296, %rsp
	.cfi_remember_state
	.cfi_def_cfa_offset 40
	popq	%rbx
	.cfi_def_cfa_offset 32
	popq	%rbp
	.cfi_def_cfa_offset 24
	popq	%r12
	.cfi_def_cfa_offset 16
	popq	%r13
	.cfi_def_cfa_offset 8
	ret
	.p2align 4,,10
	.p2align 3
.L264:
	.cfi_restore_state
	leaq	8(%rsp), %rsi
	xorl	%edx, %edx
	movq	%rbx, %rdi
	call	_ZNSt7__cxx1112basic_stringIcSt11char_traitsIcESaIcEE9_M_createERmm@PLT
	movq	%rax, %rbp
	movq	%rax, (%rbx)
	movq	8(%rsp), %rax
	movq	%rax, 16(%rbx)
.L254:
	movq	%rbp, %rdi
	movq	%r13, %rdx
	movq	%r12, %rsi
	call	memcpy@PLT
	movq	8(%rsp), %rax
	movq	(%rbx), %rbp
	jmp	.L256
	.p2align 4,,10
	.p2align 3
.L263:
	leaq	8(%rsp), %rsi
	xorl	%edx, %edx
	movq	%rbp, (%rdi)
	movq	$18, 8(%rsp)
	call	_ZNSt7__cxx1112basic_stringIcSt11char_traitsIcESaIcEE9_M_createERmm@PLT
	movq	8(%rsp), %rdx
	movq	%rax, (%rbx)
	movdqa	.LC5(%rip), %xmm0
	movq	%rdx, 16(%rbx)
	movl	$11876, %edx
	movups	%xmm0, (%rax)
	movw	%dx, 16(%rax)
	movq	8(%rsp), %rax
	movq	(%rbx), %rdx
	movq	%rax, 8(%rbx)
	movb	$0, (%rdx,%rax)
	jmp	.L248
	.p2align 4,,10
	.p2align 3
.L255:
	testq	%rax, %rax
	je	.L256
	jmp	.L254
.L265:
	call	__stack_chk_fail@PLT
.L251:
	leaq	.LC4(%rip), %rdi
	call	_ZSt19__throw_logic_errorPKc@PLT
	.cfi_endproc
.LFE2690:
	.size	_ZNK4asio6detail15system_category7messageB5cxx11Ei, .-_ZNK4asio6detail15system_category7messageB5cxx11Ei
	.section	.text.unlikely,"ax",@progbits
	.align 2
	.type	_ZZN8asiodnp315OutstationStack5ApplyERKNS_7UpdatesEENUlvE_D2Ev, @function
_ZZN8asiodnp315OutstationStack5ApplyERKNS_7UpdatesEENUlvE_D2Ev:
.LFB8297:
	.cfi_startproc
	pushq	%rbp
	.cfi_def_cfa_offset 16
	.cfi_offset 6, -16
	pushq	%rbx
	.cfi_def_cfa_offset 24
	.cfi_offset 3, -24
	movq	%rdi, %rbp
	subq	$8, %rsp
	.cfi_def_cfa_offset 32
	movq	24(%rdi), %rbx
	testq	%rbx, %rbx
	je	.L268
	cmpq	$0, _ZL28__gthrw___pthread_key_createPjPFvPvE@GOTPCREL(%rip)
	je	.L269
	lock decl	8(%rbx)
	jne	.L268
	jmp	.L282
.L269:
	movl	8(%rbx), %eax
	leal	-1(%rax), %edx
	decl	%eax
	movl	%edx, 8(%rbx)
	jne	.L268
	jmp	.L283
.L282:
	movq	(%rbx), %rax
	movq	%rbx, %rdi
	call	*16(%rax)
	orl	$-1, %eax
	lock xaddl	%eax, 12(%rbx)
.L279:
	decl	%eax
	jne	.L268
	movq	(%rbx), %rax
	movq	%rbx, %rdi
	call	*24(%rax)
.L268:
	movq	8(%rbp), %rbx
	testq	%rbx, %rbx
	je	.L266
	cmpq	$0, _ZL28__gthrw___pthread_key_createPjPFvPvE@GOTPCREL(%rip)
	je	.L275
	lock decl	8(%rbx)
	jne	.L266
	movq	(%rbx), %rax
	movq	%rbx, %rdi
	call	*16(%rax)
	orl	$-1, %eax
	lock xaddl	%eax, 12(%rbx)
	jmp	.L280
.L275:
	movl	8(%rbx), %eax
	leal	-1(%rax), %edx
	decl	%eax
	movl	%edx, 8(%rbx)
	jne	.L266
	movq	(%rbx), %rax
	movq	%rbx, %rdi
	call	*16(%rax)
	movl	12(%rbx), %eax
	leal	-1(%rax), %edx
	movl	%edx, 12(%rbx)
.L280:
	decl	%eax
	jne	.L266
	movq	(%rbx), %rax
	movq	%rbx, %rdi
	movq	24(%rax), %rax
	popq	%rdx
	.cfi_remember_state
	.cfi_def_cfa_offset 24
	popq	%rbx
	.cfi_def_cfa_offset 16
	popq	%rbp
	.cfi_def_cfa_offset 8
	jmp	*%rax
.L283:
	.cfi_restore_state
	movq	(%rbx), %rax
	movq	%rbx, %rdi
	call	*16(%rax)
	movl	12(%rbx), %eax
	leal	-1(%rax), %edx
	movl	%edx, 12(%rbx)
	jmp	.L279
.L266:
	popq	%rax
	.cfi_def_cfa_offset 24
	popq	%rbx
	.cfi_def_cfa_offset 16
	popq	%rbp
	.cfi_def_cfa_offset 8
	ret
	.cfi_endproc
.LFE8297:
	.size	_ZZN8asiodnp315OutstationStack5ApplyERKNS_7UpdatesEENUlvE_D2Ev, .-_ZZN8asiodnp315OutstationStack5ApplyERKNS_7UpdatesEENUlvE_D2Ev
	.set	_ZZN8asiodnp315OutstationStack5ApplyERKNS_7UpdatesEENUlvE_D1Ev,_ZZN8asiodnp315OutstationStack5ApplyERKNS_7UpdatesEENUlvE_D2Ev
	.section	.text._ZNK4asio5error6detail17addrinfo_category7messageB5cxx11Ei,"axG",@progbits,_ZNK4asio5error6detail17addrinfo_category7messageB5cxx11Ei,comdat
	.align 2
	.p2align 4,,15
	.weak	_ZNK4asio5error6detail17addrinfo_category7messageB5cxx11Ei
	.type	_ZNK4asio5error6detail17addrinfo_category7messageB5cxx11Ei, @function
_ZNK4asio5error6detail17addrinfo_category7messageB5cxx11Ei:
.LFB2736:
	.cfi_startproc
	pushq	%rbx
	.cfi_def_cfa_offset 16
	.cfi_offset 3, -16
	movq	%rdi, %rbx
	subq	$16, %rsp
	.cfi_def_cfa_offset 32
	movq	%fs:40, %rax
	movq	%rax, 8(%rsp)
	xorl	%eax, %eax
	leaq	16(%rdi), %rax
	cmpl	$-8, %edx
	movq	%rax, (%rdi)
	je	.L290
	cmpl	$-7, %edx
	je	.L291
	xorl	%edx, %edx
	movq	%rsp, %rsi
	movq	$19, (%rsp)
	call	_ZNSt7__cxx1112basic_stringIcSt11char_traitsIcESaIcEE9_M_createERmm@PLT
	movq	(%rsp), %rdx
	movq	%rax, (%rbx)
	movdqa	.LC8(%rip), %xmm0
	movq	%rdx, 16(%rbx)
	movl	$28530, %edx
	movb	$114, 18(%rax)
	movups	%xmm0, (%rax)
	movw	%dx, 16(%rax)
	movq	(%rsp), %rax
	movq	(%rbx), %rdx
	movq	%rax, 8(%rbx)
	movb	$0, (%rdx,%rax)
.L284:
	movq	8(%rsp), %rcx
	xorq	%fs:40, %rcx
	movq	%rbx, %rax
	jne	.L292
	addq	$16, %rsp
	.cfi_remember_state
	.cfi_def_cfa_offset 16
	popq	%rbx
	.cfi_def_cfa_offset 8
	ret
	.p2align 4,,10
	.p2align 3
.L291:
	.cfi_restore_state
	xorl	%edx, %edx
	movq	%rsp, %rsi
	movq	$25, (%rsp)
	call	_ZNSt7__cxx1112basic_stringIcSt11char_traitsIcESaIcEE9_M_createERmm@PLT
	movq	(%rsp), %rdx
	movabsq	$7310593918082512243, %rcx
	movq	%rax, (%rbx)
	movdqa	.LC7(%rip), %xmm0
	movq	%rdx, 16(%rbx)
	movq	%rcx, 16(%rax)
	movups	%xmm0, (%rax)
	movb	$100, 24(%rax)
	movq	(%rsp), %rax
	movq	(%rbx), %rdx
	movq	%rax, 8(%rbx)
	movb	$0, (%rdx,%rax)
	jmp	.L284
	.p2align 4,,10
	.p2align 3
.L290:
	xorl	%edx, %edx
	movq	%rsp, %rsi
	movq	$17, (%rsp)
	call	_ZNSt7__cxx1112basic_stringIcSt11char_traitsIcESaIcEE9_M_createERmm@PLT
	movq	(%rsp), %rdx
	movq	%rax, (%rbx)
	movdqa	.LC6(%rip), %xmm0
	movq	%rdx, 16(%rbx)
	movb	$100, 16(%rax)
	movups	%xmm0, (%rax)
	movq	(%rsp), %rax
	movq	(%rbx), %rdx
	movq	%rax, 8(%rbx)
	movb	$0, (%rdx,%rax)
	jmp	.L284
.L292:
	call	__stack_chk_fail@PLT
	.cfi_endproc
.LFE2736:
	.size	_ZNK4asio5error6detail17addrinfo_category7messageB5cxx11Ei, .-_ZNK4asio5error6detail17addrinfo_category7messageB5cxx11Ei
	.section	.text._ZNK4asio5error6detail14netdb_category7messageB5cxx11Ei,"axG",@progbits,_ZNK4asio5error6detail14netdb_category7messageB5cxx11Ei,comdat
	.align 2
	.p2align 4,,15
	.weak	_ZNK4asio5error6detail14netdb_category7messageB5cxx11Ei
	.type	_ZNK4asio5error6detail14netdb_category7messageB5cxx11Ei, @function
_ZNK4asio5error6detail14netdb_category7messageB5cxx11Ei:
.LFB2730:
	.cfi_startproc
	pushq	%rbx
	.cfi_def_cfa_offset 16
	.cfi_offset 3, -16
	movq	%rdi, %rbx
	subq	$16, %rsp
	.cfi_def_cfa_offset 32
	movq	%fs:40, %rax
	movq	%rax, 8(%rsp)
	xorl	%eax, %eax
	leaq	16(%rdi), %rax
	cmpl	$1, %edx
	movq	%rax, (%rdi)
	je	.L301
	cmpl	$2, %edx
	je	.L302
	cmpl	$4, %edx
	je	.L303
	cmpl	$3, %edx
	je	.L304
	xorl	%edx, %edx
	movq	%rsp, %rsi
	movq	$16, (%rsp)
	call	_ZNSt7__cxx1112basic_stringIcSt11char_traitsIcESaIcEE9_M_createERmm@PLT
	movq	(%rsp), %rdx
	movq	%rax, (%rbx)
	movdqa	.LC18(%rip), %xmm0
	movq	%rdx, 16(%rbx)
	movups	%xmm0, (%rax)
	movq	(%rsp), %rax
	movq	(%rbx), %rdx
	movq	%rax, 8(%rbx)
	movb	$0, (%rdx,%rax)
.L293:
	movq	8(%rsp), %rcx
	xorq	%fs:40, %rcx
	movq	%rbx, %rax
	jne	.L305
	addq	$16, %rsp
	.cfi_remember_state
	.cfi_def_cfa_offset 16
	popq	%rbx
	.cfi_def_cfa_offset 8
	ret
	.p2align 4,,10
	.p2align 3
.L304:
	.cfi_restore_state
	xorl	%edx, %edx
	movq	%rsp, %rsi
	movq	$55, (%rsp)
	call	_ZNSt7__cxx1112basic_stringIcSt11char_traitsIcESaIcEE9_M_createERmm@PLT
	movq	(%rsp), %rdx
	movq	%rax, (%rbx)
	movdqa	.LC15(%rip), %xmm0
	movq	%rdx, 16(%rbx)
	movl	$30059, %edx
	movl	$1869573152, 48(%rax)
	movups	%xmm0, (%rax)
	movw	%dx, 52(%rax)
	movb	$112, 54(%rax)
	movdqa	.LC16(%rip), %xmm0
	movups	%xmm0, 16(%rax)
	movdqa	.LC17(%rip), %xmm0
	movups	%xmm0, 32(%rax)
	movq	(%rsp), %rax
	movq	(%rbx), %rdx
	movq	%rax, 8(%rbx)
	movb	$0, (%rdx,%rax)
	jmp	.L293
	.p2align 4,,10
	.p2align 3
.L301:
	movq	%rsp, %rsi
	xorl	%edx, %edx
	movq	$30, (%rsp)
	call	_ZNSt7__cxx1112basic_stringIcSt11char_traitsIcESaIcEE9_M_createERmm@PLT
	movq	(%rsp), %rdx
	movabsq	$8388361603773658465, %rcx
	movl	$10597, %esi
	movdqa	.LC9(%rip), %xmm0
	movq	%rax, (%rbx)
	movq	%rdx, 16(%rbx)
	movq	%rcx, 16(%rax)
	movups	%xmm0, (%rax)
	movl	$1986622561, 24(%rax)
	movw	%si, 28(%rax)
	movq	(%rsp), %rax
	movq	(%rbx), %rdx
	movq	%rax, 8(%rbx)
	movb	$0, (%rdx,%rax)
	jmp	.L293
	.p2align 4,,10
	.p2align 3
.L302:
	xorl	%edx, %edx
	movq	%rsp, %rsi
	movq	$51, (%rsp)
	call	_ZNSt7__cxx1112basic_stringIcSt11char_traitsIcESaIcEE9_M_createERmm@PLT
	movq	(%rsp), %rdx
	movq	%rax, (%rbx)
	movl	$25972, %ecx
	movdqa	.LC9(%rip), %xmm0
	movq	%rdx, 16(%rbx)
	movw	%cx, 48(%rax)
	movups	%xmm0, (%rax)
	movb	$114, 50(%rax)
	movdqa	.LC10(%rip), %xmm0
	movups	%xmm0, 16(%rax)
	movdqa	.LC11(%rip), %xmm0
	movups	%xmm0, 32(%rax)
	movq	(%rsp), %rax
	movq	(%rbx), %rdx
	movq	%rax, 8(%rbx)
	movb	$0, (%rdx,%rax)
	jmp	.L293
	.p2align 4,,10
	.p2align 3
.L303:
	xorl	%edx, %edx
	movq	%rsp, %rsi
	movq	$56, (%rsp)
	call	_ZNSt7__cxx1112basic_stringIcSt11char_traitsIcESaIcEE9_M_createERmm@PLT
	movq	(%rsp), %rdx
	movq	%rax, (%rbx)
	movabsq	$7022344801645520244, %rcx
	movdqa	.LC12(%rip), %xmm0
	movq	%rdx, 16(%rbx)
	movq	%rcx, 48(%rax)
	movups	%xmm0, (%rax)
	movdqa	.LC13(%rip), %xmm0
	movups	%xmm0, 16(%rax)
	movdqa	.LC14(%rip), %xmm0
	movups	%xmm0, 32(%rax)
	movq	(%rsp), %rax
	movq	(%rbx), %rdx
	movq	%rax, 8(%rbx)
	movb	$0, (%rdx,%rax)
	jmp	.L293
.L305:
	call	__stack_chk_fail@PLT
	.cfi_endproc
.LFE2730:
	.size	_ZNK4asio5error6detail14netdb_category7messageB5cxx11Ei, .-_ZNK4asio5error6detail14netdb_category7messageB5cxx11Ei
	.section	.text._ZNK4asio5error6detail13misc_category7messageB5cxx11Ei,"axG",@progbits,_ZNK4asio5error6detail13misc_category7messageB5cxx11Ei,comdat
	.align 2
	.p2align 4,,15
	.weak	_ZNK4asio5error6detail13misc_category7messageB5cxx11Ei
	.type	_ZNK4asio5error6detail13misc_category7messageB5cxx11Ei, @function
_ZNK4asio5error6detail13misc_category7messageB5cxx11Ei:
.LFB2742:
	.cfi_startproc
	pushq	%rbx
	.cfi_def_cfa_offset 16
	.cfi_offset 3, -16
	movq	%rdi, %rbx
	subq	$16, %rsp
	.cfi_def_cfa_offset 32
	movq	%fs:40, %rax
	movq	%rax, 8(%rsp)
	xorl	%eax, %eax
	leaq	16(%rdi), %rax
	cmpl	$1, %edx
	movq	%rax, (%rdi)
	je	.L314
	cmpl	$2, %edx
	je	.L315
	cmpl	$3, %edx
	je	.L316
	cmpl	$4, %edx
	je	.L317
	movabsq	$8316298233121436513, %rsi
	movl	$28530, %edx
	movq	%rsi, 16(%rdi)
	movl	$1919230051, 8(%rax)
	movw	%dx, 12(%rax)
	movb	$114, 14(%rax)
	movq	$15, 8(%rdi)
	movb	$0, 31(%rdi)
.L306:
	movq	8(%rsp), %rcx
	xorq	%fs:40, %rcx
	movq	%rbx, %rax
	jne	.L318
	addq	$16, %rsp
	.cfi_remember_state
	.cfi_def_cfa_offset 16
	popq	%rbx
	.cfi_def_cfa_offset 8
	ret
	.p2align 4,,10
	.p2align 3
.L317:
	.cfi_restore_state
	xorl	%edx, %edx
	movq	%rsp, %rsi
	movq	$57, (%rsp)
	call	_ZNSt7__cxx1112basic_stringIcSt11char_traitsIcESaIcEE9_M_createERmm@PLT
	movq	(%rsp), %rdx
	movq	%rax, (%rbx)
	movabsq	$7310291504967217959, %rdi
	movdqa	.LC20(%rip), %xmm0
	movq	%rdx, 16(%rbx)
	movq	%rdi, 48(%rax)
	movups	%xmm0, (%rax)
	movb	$116, 56(%rax)
	movdqa	.LC21(%rip), %xmm0
	movups	%xmm0, 16(%rax)
	movdqa	.LC22(%rip), %xmm0
	movups	%xmm0, 32(%rax)
	movq	(%rsp), %rax
	movq	(%rbx), %rdx
	movq	%rax, 8(%rbx)
	movb	$0, (%rdx,%rax)
	jmp	.L306
	.p2align 4,,10
	.p2align 3
.L314:
	movabsq	$2340011850872286273, %rcx
	movq	%rcx, 16(%rdi)
	movl	$1852141679, 8(%rax)
	movq	$12, 8(%rdi)
	movb	$0, 28(%rdi)
	jmp	.L306
	.p2align 4,,10
	.p2align 3
.L315:
	movabsq	$7358994418594246213, %rcx
	movq	%rcx, 16(%rdi)
	movl	$27753, %ecx
	movb	$101, 10(%rax)
	movw	%cx, 8(%rax)
	movq	$11, 8(%rdi)
	movb	$0, 27(%rdi)
	jmp	.L306
	.p2align 4,,10
	.p2align 3
.L316:
	xorl	%edx, %edx
	movq	%rsp, %rsi
	movq	$17, (%rsp)
	call	_ZNSt7__cxx1112basic_stringIcSt11char_traitsIcESaIcEE9_M_createERmm@PLT
	movq	(%rsp), %rdx
	movq	%rax, (%rbx)
	movdqa	.LC19(%rip), %xmm0
	movq	%rdx, 16(%rbx)
	movb	$100, 16(%rax)
	movups	%xmm0, (%rax)
	movq	(%rsp), %rax
	movq	(%rbx), %rdx
	movq	%rax, 8(%rbx)
	movb	$0, (%rdx,%rax)
	jmp	.L306
.L318:
	call	__stack_chk_fail@PLT
	.cfi_endproc
.LFE2742:
	.size	_ZNK4asio5error6detail13misc_category7messageB5cxx11Ei, .-_ZNK4asio5error6detail13misc_category7messageB5cxx11Ei
	.section	.text._ZN8asiodnp315OutstationStackD2Ev,"axG",@progbits,_ZN8asiodnp315OutstationStackD5Ev,comdat
	.p2align 4,,15
	.weak	_ZThn16_N8asiodnp315OutstationStackD1Ev
	.type	_ZThn16_N8asiodnp315OutstationStackD1Ev, @function
_ZThn16_N8asiodnp315OutstationStackD1Ev:
.LFB11990:
	.cfi_startproc
	pushq	%rbp
	.cfi_def_cfa_offset 16
	.cfi_offset 6, -16
	pushq	%rbx
	.cfi_def_cfa_offset 24
	.cfi_offset 3, -24
	movq	%rdi, %rbx
	subq	$8, %rsp
	.cfi_def_cfa_offset 32
	movq	_ZTVN8asiodnp315OutstationStackE@GOTPCREL(%rip), %rax
	movq	_ZTVN7openpal5ArrayIhjEE@GOTPCREL(%rip), %rbp
	leaq	16(%rax), %rdx
	movq	%rdx, -16(%rdi)
	leaq	144(%rax), %rdx
	addq	$208, %rax
	movq	%rax, (%rdi)
	movq	_ZTVN8opendnp38OContextE@GOTPCREL(%rip), %rax
	movq	%rdx, -8(%rdi)
	addq	$16, %rax
	movq	%rax, 136(%rdi)
	leaq	16(%rbp), %rax
	movq	%rax, 1056(%rdi)
	movq	1072(%rdi), %rdi
	testq	%rdi, %rdi
	je	.L320
	call	_ZdaPv@PLT
.L320:
	movq	1016(%rbx), %rdi
	leaq	16(%rbp), %rax
	movq	%rax, 1000(%rbx)
	testq	%rdi, %rdi
	je	.L321
	call	_ZdaPv@PLT
.L321:
	movq	936(%rbx), %rdi
	leaq	16(%rbp), %rax
	movq	%rax, 920(%rbx)
	testq	%rdi, %rdi
	je	.L322
	call	_ZdaPv@PLT
.L322:
	leaq	864(%rbx), %rdi
	call	_ZN7openpal8TimerRefD1Ev@PLT
	movq	_ZTVN8opendnp38DatabaseE@GOTPCREL(%rip), %rax
	movq	728(%rbx), %rdi
	addq	$16, %rax
	movq	%rax, 496(%rbx)
	movq	_ZTVN8opendnp315DatabaseBuffersE@GOTPCREL(%rip), %rax
	leaq	16(%rax), %rdx
	movq	%rdx, 520(%rbx)
	leaq	88(%rax), %rdx
	addq	$120, %rax
	movq	%rax, 536(%rbx)
	movq	_ZTVN7openpal5ArrayIN8opendnp34CellINS1_19TimeAndIntervalSpecEEEtEE@GOTPCREL(%rip), %rax
	movq	%rdx, 528(%rbx)
	addq	$16, %rax
	testq	%rdi, %rdi
	movq	%rax, 712(%rbx)
	je	.L323
	call	_ZdaPv@PLT
.L323:
	movq	_ZTVN7openpal5ArrayIN8opendnp34CellINS1_22AnalogOutputStatusSpecEEEtEE@GOTPCREL(%rip), %rax
	movq	704(%rbx), %rdi
	addq	$16, %rax
	testq	%rdi, %rdi
	movq	%rax, 688(%rbx)
	je	.L324
	call	_ZdaPv@PLT
.L324:
	movq	_ZTVN7openpal5ArrayIN8opendnp34CellINS1_22BinaryOutputStatusSpecEEEtEE@GOTPCREL(%rip), %rax
	movq	680(%rbx), %rdi
	addq	$16, %rax
	testq	%rdi, %rdi
	movq	%rax, 664(%rbx)
	je	.L325
	call	_ZdaPv@PLT
.L325:
	movq	_ZTVN7openpal5ArrayIN8opendnp34CellINS1_17FrozenCounterSpecEEEtEE@GOTPCREL(%rip), %rax
	movq	656(%rbx), %rdi
	addq	$16, %rax
	testq	%rdi, %rdi
	movq	%rax, 640(%rbx)
	je	.L326
	call	_ZdaPv@PLT
.L326:
	movq	_ZTVN7openpal5ArrayIN8opendnp34CellINS1_11CounterSpecEEEtEE@GOTPCREL(%rip), %rax
	movq	632(%rbx), %rdi
	addq	$16, %rax
	testq	%rdi, %rdi
	movq	%rax, 616(%rbx)
	je	.L327
	call	_ZdaPv@PLT
.L327:
	movq	_ZTVN7openpal5ArrayIN8opendnp34CellINS1_10AnalogSpecEEEtEE@GOTPCREL(%rip), %rax
	movq	608(%rbx), %rdi
	addq	$16, %rax
	testq	%rdi, %rdi
	movq	%rax, 592(%rbx)
	je	.L328
	call	_ZdaPv@PLT
.L328:
	movq	_ZTVN7openpal5ArrayIN8opendnp34CellINS1_19DoubleBitBinarySpecEEEtEE@GOTPCREL(%rip), %rax
	movq	584(%rbx), %rdi
	addq	$16, %rax
	testq	%rdi, %rdi
	movq	%rax, 568(%rbx)
	je	.L329
	call	_ZdaPv@PLT
.L329:
	movq	_ZTVN7openpal5ArrayIN8opendnp34CellINS1_10BinarySpecEEEtEE@GOTPCREL(%rip), %rax
	movq	560(%rbx), %rdi
	addq	$16, %rax
	testq	%rdi, %rdi
	movq	%rax, 544(%rbx)
	je	.L330
	call	_ZdaPv@PLT
.L330:
	movq	_ZTVN8opendnp311EventBufferE@GOTPCREL(%rip), %rax
	movq	344(%rbx), %rdi
	leaq	16(%rax), %rdx
	movq	%rdx, 240(%rbx)
	leaq	160(%rax), %rdx
	movq	%rdx, 248(%rbx)
	leaq	192(%rax), %rdx
	addq	$224, %rax
	movq	%rax, 264(%rbx)
	movq	_ZTVN7openpal5ArrayINS_8ListNodeIN8opendnp39SOERecordEEEjEE@GOTPCREL(%rip), %rax
	movq	%rdx, 256(%rbx)
	addq	$16, %rax
	testq	%rdi, %rdi
	movq	%rax, 328(%rbx)
	je	.L331
	call	_ZdaPv@PLT
.L331:
	movq	232(%rbx), %rbp
	testq	%rbp, %rbp
	je	.L333
	cmpq	$0, _ZL28__gthrw___pthread_key_createPjPFvPvE@GOTPCREL(%rip)
	je	.L334
	lock subl	$1, 8(%rbp)
	je	.L465
.L333:
	movq	216(%rbx), %rbp
	testq	%rbp, %rbp
	je	.L339
	cmpq	$0, _ZL28__gthrw___pthread_key_createPjPFvPvE@GOTPCREL(%rip)
	je	.L340
	lock subl	$1, 8(%rbp)
	je	.L466
.L339:
	movq	200(%rbx), %rbp
	testq	%rbp, %rbp
	je	.L345
	cmpq	$0, _ZL28__gthrw___pthread_key_createPjPFvPvE@GOTPCREL(%rip)
	je	.L346
	lock subl	$1, 8(%rbp)
	je	.L467
.L345:
	movq	184(%rbx), %rbp
	testq	%rbp, %rbp
	je	.L351
	cmpq	$0, _ZL28__gthrw___pthread_key_createPjPFvPvE@GOTPCREL(%rip)
	je	.L352
	lock subl	$1, 8(%rbp)
	je	.L468
.L351:
	movq	168(%rbx), %rbp
	testq	%rbp, %rbp
	je	.L357
	cmpq	$0, _ZL28__gthrw___pthread_key_createPjPFvPvE@GOTPCREL(%rip)
	je	.L358
	lock subl	$1, 8(%rbp)
	je	.L469
.L357:
	movq	152(%rbx), %rbp
	testq	%rbp, %rbp
	je	.L363
	cmpq	$0, _ZL28__gthrw___pthread_key_createPjPFvPvE@GOTPCREL(%rip)
	je	.L364
	lock subl	$1, 8(%rbp)
	je	.L470
.L363:
	movq	128(%rbx), %rbp
	testq	%rbp, %rbp
	je	.L369
	cmpq	$0, _ZL28__gthrw___pthread_key_createPjPFvPvE@GOTPCREL(%rip)
	je	.L370
	lock subl	$1, 8(%rbp)
	je	.L471
.L369:
	movq	112(%rbx), %rbp
	testq	%rbp, %rbp
	je	.L375
	cmpq	$0, _ZL28__gthrw___pthread_key_createPjPFvPvE@GOTPCREL(%rip)
	je	.L376
	lock subl	$1, 8(%rbp)
	je	.L472
.L375:
	movq	96(%rbx), %rbp
	testq	%rbp, %rbp
	je	.L381
	cmpq	$0, _ZL28__gthrw___pthread_key_createPjPFvPvE@GOTPCREL(%rip)
	je	.L382
	lock subl	$1, 8(%rbp)
	je	.L473
.L381:
	movq	80(%rbx), %rbp
	testq	%rbp, %rbp
	je	.L387
	cmpq	$0, _ZL28__gthrw___pthread_key_createPjPFvPvE@GOTPCREL(%rip)
	je	.L388
	lock subl	$1, 8(%rbp)
	je	.L474
.L387:
	movq	64(%rbx), %rbp
	testq	%rbp, %rbp
	je	.L393
	cmpq	$0, _ZL28__gthrw___pthread_key_createPjPFvPvE@GOTPCREL(%rip)
	je	.L394
	lock subl	$1, 8(%rbp)
	je	.L475
.L393:
	movq	48(%rbx), %rbp
	testq	%rbp, %rbp
	je	.L399
	cmpq	$0, _ZL28__gthrw___pthread_key_createPjPFvPvE@GOTPCREL(%rip)
	je	.L400
	lock subl	$1, 8(%rbp)
	je	.L476
.L399:
	movq	32(%rbx), %rbp
	testq	%rbp, %rbp
	je	.L405
	cmpq	$0, _ZL28__gthrw___pthread_key_createPjPFvPvE@GOTPCREL(%rip)
	je	.L406
	lock subl	$1, 8(%rbp)
	je	.L477
.L405:
	movq	16(%rbx), %rdi
	testq	%rdi, %rdi
	je	.L319
	cmpq	$0, _ZL28__gthrw___pthread_key_createPjPFvPvE@GOTPCREL(%rip)
	je	.L412
	movl	$-1, %eax
	lock xaddl	%eax, 12(%rdi)
	cmpl	$1, %eax
	je	.L478
.L319:
	addq	$8, %rsp
	.cfi_remember_state
	.cfi_def_cfa_offset 24
	popq	%rbx
	.cfi_def_cfa_offset 16
	popq	%rbp
	.cfi_def_cfa_offset 8
	ret
	.p2align 4,,10
	.p2align 3
.L376:
	.cfi_restore_state
	movl	8(%rbp), %eax
	leal	-1(%rax), %edx
	cmpl	$1, %eax
	movl	%edx, 8(%rbp)
	jne	.L375
	movq	0(%rbp), %rax
	movq	%rbp, %rdi
	call	*16(%rax)
	movl	12(%rbp), %eax
	leal	-1(%rax), %edx
	movl	%edx, 12(%rbp)
	jmp	.L422
	.p2align 4,,10
	.p2align 3
.L412:
	movl	12(%rdi), %eax
	leal	-1(%rax), %edx
	cmpl	$1, %eax
	movl	%edx, 12(%rdi)
	jne	.L319
.L478:
	movq	(%rdi), %rax
	movq	24(%rax), %rax
	addq	$8, %rsp
	.cfi_remember_state
	.cfi_def_cfa_offset 24
	popq	%rbx
	.cfi_def_cfa_offset 16
	popq	%rbp
	.cfi_def_cfa_offset 8
	jmp	*%rax
	.p2align 4,,10
	.p2align 3
.L394:
	.cfi_restore_state
	movl	8(%rbp), %eax
	leal	-1(%rax), %edx
	cmpl	$1, %eax
	movl	%edx, 8(%rbp)
	jne	.L393
	movq	0(%rbp), %rax
	movq	%rbp, %rdi
	call	*16(%rax)
	movl	12(%rbp), %eax
	leal	-1(%rax), %edx
	movl	%edx, 12(%rbp)
	jmp	.L425
	.p2align 4,,10
	.p2align 3
.L406:
	movl	8(%rbp), %eax
	leal	-1(%rax), %edx
	cmpl	$1, %eax
	movl	%edx, 8(%rbp)
	jne	.L405
	movq	0(%rbp), %rax
	movq	%rbp, %rdi
	call	*16(%rax)
	movl	12(%rbp), %eax
	leal	-1(%rax), %edx
	movl	%edx, 12(%rbp)
	jmp	.L427
	.p2align 4,,10
	.p2align 3
.L352:
	movl	8(%rbp), %eax
	leal	-1(%rax), %edx
	cmpl	$1, %eax
	movl	%edx, 8(%rbp)
	jne	.L351
	movq	0(%rbp), %rax
	movq	%rbp, %rdi
	call	*16(%rax)
	movl	12(%rbp), %eax
	leal	-1(%rax), %edx
	movl	%edx, 12(%rbp)
	jmp	.L418
	.p2align 4,,10
	.p2align 3
.L364:
	movl	8(%rbp), %eax
	leal	-1(%rax), %edx
	cmpl	$1, %eax
	movl	%edx, 8(%rbp)
	jne	.L363
	movq	0(%rbp), %rax
	movq	%rbp, %rdi
	call	*16(%rax)
	movl	12(%rbp), %eax
	leal	-1(%rax), %edx
	movl	%edx, 12(%rbp)
	jmp	.L420
	.p2align 4,,10
	.p2align 3
.L382:
	movl	8(%rbp), %eax
	leal	-1(%rax), %edx
	cmpl	$1, %eax
	movl	%edx, 8(%rbp)
	jne	.L381
	movq	0(%rbp), %rax
	movq	%rbp, %rdi
	call	*16(%rax)
	movl	12(%rbp), %eax
	leal	-1(%rax), %edx
	movl	%edx, 12(%rbp)
	jmp	.L423
	.p2align 4,,10
	.p2align 3
.L400:
	movl	8(%rbp), %eax
	leal	-1(%rax), %edx
	cmpl	$1, %eax
	movl	%edx, 8(%rbp)
	jne	.L399
	movq	0(%rbp), %rax
	movq	%rbp, %rdi
	call	*16(%rax)
	movl	12(%rbp), %eax
	leal	-1(%rax), %edx
	movl	%edx, 12(%rbp)
	jmp	.L426
	.p2align 4,,10
	.p2align 3
.L388:
	movl	8(%rbp), %eax
	leal	-1(%rax), %edx
	cmpl	$1, %eax
	movl	%edx, 8(%rbp)
	jne	.L387
	movq	0(%rbp), %rax
	movq	%rbp, %rdi
	call	*16(%rax)
	movl	12(%rbp), %eax
	leal	-1(%rax), %edx
	movl	%edx, 12(%rbp)
	jmp	.L424
	.p2align 4,,10
	.p2align 3
.L370:
	movl	8(%rbp), %eax
	leal	-1(%rax), %edx
	cmpl	$1, %eax
	movl	%edx, 8(%rbp)
	jne	.L369
	movq	0(%rbp), %rax
	movq	%rbp, %rdi
	call	*16(%rax)
	movl	12(%rbp), %eax
	leal	-1(%rax), %edx
	movl	%edx, 12(%rbp)
	jmp	.L421
	.p2align 4,,10
	.p2align 3
.L358:
	movl	8(%rbp), %eax
	leal	-1(%rax), %edx
	cmpl	$1, %eax
	movl	%edx, 8(%rbp)
	jne	.L357
	movq	0(%rbp), %rax
	movq	%rbp, %rdi
	call	*16(%rax)
	movl	12(%rbp), %eax
	leal	-1(%rax), %edx
	movl	%edx, 12(%rbp)
	jmp	.L419
	.p2align 4,,10
	.p2align 3
.L346:
	movl	8(%rbp), %eax
	leal	-1(%rax), %edx
	cmpl	$1, %eax
	movl	%edx, 8(%rbp)
	jne	.L345
	movq	0(%rbp), %rax
	movq	%rbp, %rdi
	call	*16(%rax)
	movl	12(%rbp), %eax
	leal	-1(%rax), %edx
	movl	%edx, 12(%rbp)
	jmp	.L417
	.p2align 4,,10
	.p2align 3
.L340:
	movl	8(%rbp), %eax
	leal	-1(%rax), %edx
	cmpl	$1, %eax
	movl	%edx, 8(%rbp)
	jne	.L339
	movq	0(%rbp), %rax
	movq	%rbp, %rdi
	call	*16(%rax)
	movl	12(%rbp), %eax
	leal	-1(%rax), %edx
	movl	%edx, 12(%rbp)
	jmp	.L416
	.p2align 4,,10
	.p2align 3
.L334:
	movl	8(%rbp), %eax
	leal	-1(%rax), %edx
	cmpl	$1, %eax
	movl	%edx, 8(%rbp)
	jne	.L333
	movq	0(%rbp), %rax
	movq	%rbp, %rdi
	call	*16(%rax)
	movl	12(%rbp), %eax
	leal	-1(%rax), %edx
	movl	%edx, 12(%rbp)
	jmp	.L415
	.p2align 4,,10
	.p2align 3
.L468:
	movq	0(%rbp), %rax
	movq	%rbp, %rdi
	call	*16(%rax)
	movl	$-1, %eax
	lock xaddl	%eax, 12(%rbp)
.L418:
	cmpl	$1, %eax
	jne	.L351
	movq	0(%rbp), %rax
	movq	%rbp, %rdi
	call	*24(%rax)
	jmp	.L351
	.p2align 4,,10
	.p2align 3
.L470:
	movq	0(%rbp), %rax
	movq	%rbp, %rdi
	call	*16(%rax)
	movl	$-1, %eax
	lock xaddl	%eax, 12(%rbp)
.L420:
	cmpl	$1, %eax
	jne	.L363
	movq	0(%rbp), %rax
	movq	%rbp, %rdi
	call	*24(%rax)
	jmp	.L363
	.p2align 4,,10
	.p2align 3
.L472:
	movq	0(%rbp), %rax
	movq	%rbp, %rdi
	call	*16(%rax)
	movl	$-1, %eax
	lock xaddl	%eax, 12(%rbp)
.L422:
	cmpl	$1, %eax
	jne	.L375
	movq	0(%rbp), %rax
	movq	%rbp, %rdi
	call	*24(%rax)
	jmp	.L375
	.p2align 4,,10
	.p2align 3
.L475:
	movq	0(%rbp), %rax
	movq	%rbp, %rdi
	call	*16(%rax)
	movl	$-1, %eax
	lock xaddl	%eax, 12(%rbp)
.L425:
	cmpl	$1, %eax
	jne	.L393
	movq	0(%rbp), %rax
	movq	%rbp, %rdi
	call	*24(%rax)
	jmp	.L393
	.p2align 4,,10
	.p2align 3
.L477:
	movq	0(%rbp), %rax
	movq	%rbp, %rdi
	call	*16(%rax)
	movl	$-1, %eax
	lock xaddl	%eax, 12(%rbp)
.L427:
	cmpl	$1, %eax
	jne	.L405
	movq	0(%rbp), %rax
	movq	%rbp, %rdi
	call	*24(%rax)
	jmp	.L405
	.p2align 4,,10
	.p2align 3
.L469:
	movq	0(%rbp), %rax
	movq	%rbp, %rdi
	call	*16(%rax)
	movl	$-1, %eax
	lock xaddl	%eax, 12(%rbp)
.L419:
	cmpl	$1, %eax
	jne	.L357
	movq	0(%rbp), %rax
	movq	%rbp, %rdi
	call	*24(%rax)
	jmp	.L357
	.p2align 4,,10
	.p2align 3
.L467:
	movq	0(%rbp), %rax
	movq	%rbp, %rdi
	call	*16(%rax)
	movl	$-1, %eax
	lock xaddl	%eax, 12(%rbp)
.L417:
	cmpl	$1, %eax
	jne	.L345
	movq	0(%rbp), %rax
	movq	%rbp, %rdi
	call	*24(%rax)
	jmp	.L345
	.p2align 4,,10
	.p2align 3
.L471:
	movq	0(%rbp), %rax
	movq	%rbp, %rdi
	call	*16(%rax)
	movl	$-1, %eax
	lock xaddl	%eax, 12(%rbp)
.L421:
	cmpl	$1, %eax
	jne	.L369
	movq	0(%rbp), %rax
	movq	%rbp, %rdi
	call	*24(%rax)
	jmp	.L369
	.p2align 4,,10
	.p2align 3
.L473:
	movq	0(%rbp), %rax
	movq	%rbp, %rdi
	call	*16(%rax)
	movl	$-1, %eax
	lock xaddl	%eax, 12(%rbp)
.L423:
	cmpl	$1, %eax
	jne	.L381
	movq	0(%rbp), %rax
	movq	%rbp, %rdi
	call	*24(%rax)
	jmp	.L381
	.p2align 4,,10
	.p2align 3
.L474:
	movq	0(%rbp), %rax
	movq	%rbp, %rdi
	call	*16(%rax)
	movl	$-1, %eax
	lock xaddl	%eax, 12(%rbp)
.L424:
	cmpl	$1, %eax
	jne	.L387
	movq	0(%rbp), %rax
	movq	%rbp, %rdi
	call	*24(%rax)
	jmp	.L387
	.p2align 4,,10
	.p2align 3
.L476:
	movq	0(%rbp), %rax
	movq	%rbp, %rdi
	call	*16(%rax)
	movl	$-1, %eax
	lock xaddl	%eax, 12(%rbp)
.L426:
	cmpl	$1, %eax
	jne	.L399
	movq	0(%rbp), %rax
	movq	%rbp, %rdi
	call	*24(%rax)
	jmp	.L399
	.p2align 4,,10
	.p2align 3
.L465:
	movq	0(%rbp), %rax
	movq	%rbp, %rdi
	call	*16(%rax)
	movl	$-1, %eax
	lock xaddl	%eax, 12(%rbp)
.L415:
	cmpl	$1, %eax
	jne	.L333
	movq	0(%rbp), %rax
	movq	%rbp, %rdi
	call	*24(%rax)
	jmp	.L333
	.p2align 4,,10
	.p2align 3
.L466:
	movq	0(%rbp), %rax
	movq	%rbp, %rdi
	call	*16(%rax)
	movl	$-1, %eax
	lock xaddl	%eax, 12(%rbp)
.L416:
	cmpl	$1, %eax
	jne	.L339
	movq	0(%rbp), %rax
	movq	%rbp, %rdi
	call	*24(%rax)
	jmp	.L339
	.cfi_endproc
.LFE11990:
	.size	_ZThn16_N8asiodnp315OutstationStackD1Ev, .-_ZThn16_N8asiodnp315OutstationStackD1Ev
	.p2align 4,,15
	.weak	_ZThn8_N8asiodnp315OutstationStackD1Ev
	.type	_ZThn8_N8asiodnp315OutstationStackD1Ev, @function
_ZThn8_N8asiodnp315OutstationStackD1Ev:
.LFB11991:
	.cfi_startproc
	pushq	%rbp
	.cfi_def_cfa_offset 16
	.cfi_offset 6, -16
	pushq	%rbx
	.cfi_def_cfa_offset 24
	.cfi_offset 3, -24
	movq	%rdi, %rbx
	subq	$8, %rsp
	.cfi_def_cfa_offset 32
	movq	_ZTVN8asiodnp315OutstationStackE@GOTPCREL(%rip), %rax
	movq	_ZTVN7openpal5ArrayIhjEE@GOTPCREL(%rip), %rbp
	leaq	16(%rax), %rdx
	movq	%rdx, -8(%rdi)
	leaq	144(%rax), %rdx
	addq	$208, %rax
	movq	%rax, 8(%rdi)
	movq	_ZTVN8opendnp38OContextE@GOTPCREL(%rip), %rax
	movq	%rdx, (%rdi)
	addq	$16, %rax
	movq	%rax, 144(%rdi)
	leaq	16(%rbp), %rax
	movq	%rax, 1064(%rdi)
	movq	1080(%rdi), %rdi
	testq	%rdi, %rdi
	je	.L480
	call	_ZdaPv@PLT
.L480:
	movq	1024(%rbx), %rdi
	leaq	16(%rbp), %rax
	movq	%rax, 1008(%rbx)
	testq	%rdi, %rdi
	je	.L481
	call	_ZdaPv@PLT
.L481:
	movq	944(%rbx), %rdi
	leaq	16(%rbp), %rax
	movq	%rax, 928(%rbx)
	testq	%rdi, %rdi
	je	.L482
	call	_ZdaPv@PLT
.L482:
	leaq	872(%rbx), %rdi
	call	_ZN7openpal8TimerRefD1Ev@PLT
	movq	_ZTVN8opendnp38DatabaseE@GOTPCREL(%rip), %rax
	movq	736(%rbx), %rdi
	addq	$16, %rax
	movq	%rax, 504(%rbx)
	movq	_ZTVN8opendnp315DatabaseBuffersE@GOTPCREL(%rip), %rax
	leaq	16(%rax), %rdx
	movq	%rdx, 528(%rbx)
	leaq	88(%rax), %rdx
	addq	$120, %rax
	movq	%rax, 544(%rbx)
	movq	_ZTVN7openpal5ArrayIN8opendnp34CellINS1_19TimeAndIntervalSpecEEEtEE@GOTPCREL(%rip), %rax
	movq	%rdx, 536(%rbx)
	addq	$16, %rax
	testq	%rdi, %rdi
	movq	%rax, 720(%rbx)
	je	.L483
	call	_ZdaPv@PLT
.L483:
	movq	_ZTVN7openpal5ArrayIN8opendnp34CellINS1_22AnalogOutputStatusSpecEEEtEE@GOTPCREL(%rip), %rax
	movq	712(%rbx), %rdi
	addq	$16, %rax
	testq	%rdi, %rdi
	movq	%rax, 696(%rbx)
	je	.L484
	call	_ZdaPv@PLT
.L484:
	movq	_ZTVN7openpal5ArrayIN8opendnp34CellINS1_22BinaryOutputStatusSpecEEEtEE@GOTPCREL(%rip), %rax
	movq	688(%rbx), %rdi
	addq	$16, %rax
	testq	%rdi, %rdi
	movq	%rax, 672(%rbx)
	je	.L485
	call	_ZdaPv@PLT
.L485:
	movq	_ZTVN7openpal5ArrayIN8opendnp34CellINS1_17FrozenCounterSpecEEEtEE@GOTPCREL(%rip), %rax
	movq	664(%rbx), %rdi
	addq	$16, %rax
	testq	%rdi, %rdi
	movq	%rax, 648(%rbx)
	je	.L486
	call	_ZdaPv@PLT
.L486:
	movq	_ZTVN7openpal5ArrayIN8opendnp34CellINS1_11CounterSpecEEEtEE@GOTPCREL(%rip), %rax
	movq	640(%rbx), %rdi
	addq	$16, %rax
	testq	%rdi, %rdi
	movq	%rax, 624(%rbx)
	je	.L487
	call	_ZdaPv@PLT
.L487:
	movq	_ZTVN7openpal5ArrayIN8opendnp34CellINS1_10AnalogSpecEEEtEE@GOTPCREL(%rip), %rax
	movq	616(%rbx), %rdi
	addq	$16, %rax
	testq	%rdi, %rdi
	movq	%rax, 600(%rbx)
	je	.L488
	call	_ZdaPv@PLT
.L488:
	movq	_ZTVN7openpal5ArrayIN8opendnp34CellINS1_19DoubleBitBinarySpecEEEtEE@GOTPCREL(%rip), %rax
	movq	592(%rbx), %rdi
	addq	$16, %rax
	testq	%rdi, %rdi
	movq	%rax, 576(%rbx)
	je	.L489
	call	_ZdaPv@PLT
.L489:
	movq	_ZTVN7openpal5ArrayIN8opendnp34CellINS1_10BinarySpecEEEtEE@GOTPCREL(%rip), %rax
	movq	568(%rbx), %rdi
	addq	$16, %rax
	testq	%rdi, %rdi
	movq	%rax, 552(%rbx)
	je	.L490
	call	_ZdaPv@PLT
.L490:
	movq	_ZTVN8opendnp311EventBufferE@GOTPCREL(%rip), %rax
	movq	352(%rbx), %rdi
	leaq	16(%rax), %rdx
	movq	%rdx, 248(%rbx)
	leaq	160(%rax), %rdx
	movq	%rdx, 256(%rbx)
	leaq	192(%rax), %rdx
	addq	$224, %rax
	movq	%rax, 272(%rbx)
	movq	_ZTVN7openpal5ArrayINS_8ListNodeIN8opendnp39SOERecordEEEjEE@GOTPCREL(%rip), %rax
	movq	%rdx, 264(%rbx)
	addq	$16, %rax
	testq	%rdi, %rdi
	movq	%rax, 336(%rbx)
	je	.L491
	call	_ZdaPv@PLT
.L491:
	movq	240(%rbx), %rbp
	testq	%rbp, %rbp
	je	.L493
	cmpq	$0, _ZL28__gthrw___pthread_key_createPjPFvPvE@GOTPCREL(%rip)
	je	.L494
	lock subl	$1, 8(%rbp)
	je	.L625
.L493:
	movq	224(%rbx), %rbp
	testq	%rbp, %rbp
	je	.L499
	cmpq	$0, _ZL28__gthrw___pthread_key_createPjPFvPvE@GOTPCREL(%rip)
	je	.L500
	lock subl	$1, 8(%rbp)
	je	.L626
.L499:
	movq	208(%rbx), %rbp
	testq	%rbp, %rbp
	je	.L505
	cmpq	$0, _ZL28__gthrw___pthread_key_createPjPFvPvE@GOTPCREL(%rip)
	je	.L506
	lock subl	$1, 8(%rbp)
	je	.L627
.L505:
	movq	192(%rbx), %rbp
	testq	%rbp, %rbp
	je	.L511
	cmpq	$0, _ZL28__gthrw___pthread_key_createPjPFvPvE@GOTPCREL(%rip)
	je	.L512
	lock subl	$1, 8(%rbp)
	je	.L628
.L511:
	movq	176(%rbx), %rbp
	testq	%rbp, %rbp
	je	.L517
	cmpq	$0, _ZL28__gthrw___pthread_key_createPjPFvPvE@GOTPCREL(%rip)
	je	.L518
	lock subl	$1, 8(%rbp)
	je	.L629
.L517:
	movq	160(%rbx), %rbp
	testq	%rbp, %rbp
	je	.L523
	cmpq	$0, _ZL28__gthrw___pthread_key_createPjPFvPvE@GOTPCREL(%rip)
	je	.L524
	lock subl	$1, 8(%rbp)
	je	.L630
.L523:
	movq	136(%rbx), %rbp
	testq	%rbp, %rbp
	je	.L529
	cmpq	$0, _ZL28__gthrw___pthread_key_createPjPFvPvE@GOTPCREL(%rip)
	je	.L530
	lock subl	$1, 8(%rbp)
	je	.L631
.L529:
	movq	120(%rbx), %rbp
	testq	%rbp, %rbp
	je	.L535
	cmpq	$0, _ZL28__gthrw___pthread_key_createPjPFvPvE@GOTPCREL(%rip)
	je	.L536
	lock subl	$1, 8(%rbp)
	je	.L632
.L535:
	movq	104(%rbx), %rbp
	testq	%rbp, %rbp
	je	.L541
	cmpq	$0, _ZL28__gthrw___pthread_key_createPjPFvPvE@GOTPCREL(%rip)
	je	.L542
	lock subl	$1, 8(%rbp)
	je	.L633
.L541:
	movq	88(%rbx), %rbp
	testq	%rbp, %rbp
	je	.L547
	cmpq	$0, _ZL28__gthrw___pthread_key_createPjPFvPvE@GOTPCREL(%rip)
	je	.L548
	lock subl	$1, 8(%rbp)
	je	.L634
.L547:
	movq	72(%rbx), %rbp
	testq	%rbp, %rbp
	je	.L553
	cmpq	$0, _ZL28__gthrw___pthread_key_createPjPFvPvE@GOTPCREL(%rip)
	je	.L554
	lock subl	$1, 8(%rbp)
	je	.L635
.L553:
	movq	56(%rbx), %rbp
	testq	%rbp, %rbp
	je	.L559
	cmpq	$0, _ZL28__gthrw___pthread_key_createPjPFvPvE@GOTPCREL(%rip)
	je	.L560
	lock subl	$1, 8(%rbp)
	je	.L636
.L559:
	movq	40(%rbx), %rbp
	testq	%rbp, %rbp
	je	.L565
	cmpq	$0, _ZL28__gthrw___pthread_key_createPjPFvPvE@GOTPCREL(%rip)
	je	.L566
	lock subl	$1, 8(%rbp)
	je	.L637
.L565:
	movq	24(%rbx), %rdi
	testq	%rdi, %rdi
	je	.L479
	cmpq	$0, _ZL28__gthrw___pthread_key_createPjPFvPvE@GOTPCREL(%rip)
	je	.L572
	movl	$-1, %eax
	lock xaddl	%eax, 12(%rdi)
	cmpl	$1, %eax
	je	.L638
.L479:
	addq	$8, %rsp
	.cfi_remember_state
	.cfi_def_cfa_offset 24
	popq	%rbx
	.cfi_def_cfa_offset 16
	popq	%rbp
	.cfi_def_cfa_offset 8
	ret
	.p2align 4,,10
	.p2align 3
.L536:
	.cfi_restore_state
	movl	8(%rbp), %eax
	leal	-1(%rax), %edx
	cmpl	$1, %eax
	movl	%edx, 8(%rbp)
	jne	.L535
	movq	0(%rbp), %rax
	movq	%rbp, %rdi
	call	*16(%rax)
	movl	12(%rbp), %eax
	leal	-1(%rax), %edx
	movl	%edx, 12(%rbp)
	jmp	.L582
	.p2align 4,,10
	.p2align 3
.L572:
	movl	12(%rdi), %eax
	leal	-1(%rax), %edx
	cmpl	$1, %eax
	movl	%edx, 12(%rdi)
	jne	.L479
.L638:
	movq	(%rdi), %rax
	movq	24(%rax), %rax
	addq	$8, %rsp
	.cfi_remember_state
	.cfi_def_cfa_offset 24
	popq	%rbx
	.cfi_def_cfa_offset 16
	popq	%rbp
	.cfi_def_cfa_offset 8
	jmp	*%rax
	.p2align 4,,10
	.p2align 3
.L554:
	.cfi_restore_state
	movl	8(%rbp), %eax
	leal	-1(%rax), %edx
	cmpl	$1, %eax
	movl	%edx, 8(%rbp)
	jne	.L553
	movq	0(%rbp), %rax
	movq	%rbp, %rdi
	call	*16(%rax)
	movl	12(%rbp), %eax
	leal	-1(%rax), %edx
	movl	%edx, 12(%rbp)
	jmp	.L585
	.p2align 4,,10
	.p2align 3
.L566:
	movl	8(%rbp), %eax
	leal	-1(%rax), %edx
	cmpl	$1, %eax
	movl	%edx, 8(%rbp)
	jne	.L565
	movq	0(%rbp), %rax
	movq	%rbp, %rdi
	call	*16(%rax)
	movl	12(%rbp), %eax
	leal	-1(%rax), %edx
	movl	%edx, 12(%rbp)
	jmp	.L587
	.p2align 4,,10
	.p2align 3
.L512:
	movl	8(%rbp), %eax
	leal	-1(%rax), %edx
	cmpl	$1, %eax
	movl	%edx, 8(%rbp)
	jne	.L511
	movq	0(%rbp), %rax
	movq	%rbp, %rdi
	call	*16(%rax)
	movl	12(%rbp), %eax
	leal	-1(%rax), %edx
	movl	%edx, 12(%rbp)
	jmp	.L578
	.p2align 4,,10
	.p2align 3
.L524:
	movl	8(%rbp), %eax
	leal	-1(%rax), %edx
	cmpl	$1, %eax
	movl	%edx, 8(%rbp)
	jne	.L523
	movq	0(%rbp), %rax
	movq	%rbp, %rdi
	call	*16(%rax)
	movl	12(%rbp), %eax
	leal	-1(%rax), %edx
	movl	%edx, 12(%rbp)
	jmp	.L580
	.p2align 4,,10
	.p2align 3
.L542:
	movl	8(%rbp), %eax
	leal	-1(%rax), %edx
	cmpl	$1, %eax
	movl	%edx, 8(%rbp)
	jne	.L541
	movq	0(%rbp), %rax
	movq	%rbp, %rdi
	call	*16(%rax)
	movl	12(%rbp), %eax
	leal	-1(%rax), %edx
	movl	%edx, 12(%rbp)
	jmp	.L583
	.p2align 4,,10
	.p2align 3
.L560:
	movl	8(%rbp), %eax
	leal	-1(%rax), %edx
	cmpl	$1, %eax
	movl	%edx, 8(%rbp)
	jne	.L559
	movq	0(%rbp), %rax
	movq	%rbp, %rdi
	call	*16(%rax)
	movl	12(%rbp), %eax
	leal	-1(%rax), %edx
	movl	%edx, 12(%rbp)
	jmp	.L586
	.p2align 4,,10
	.p2align 3
.L548:
	movl	8(%rbp), %eax
	leal	-1(%rax), %edx
	cmpl	$1, %eax
	movl	%edx, 8(%rbp)
	jne	.L547
	movq	0(%rbp), %rax
	movq	%rbp, %rdi
	call	*16(%rax)
	movl	12(%rbp), %eax
	leal	-1(%rax), %edx
	movl	%edx, 12(%rbp)
	jmp	.L584
	.p2align 4,,10
	.p2align 3
.L530:
	movl	8(%rbp), %eax
	leal	-1(%rax), %edx
	cmpl	$1, %eax
	movl	%edx, 8(%rbp)
	jne	.L529
	movq	0(%rbp), %rax
	movq	%rbp, %rdi
	call	*16(%rax)
	movl	12(%rbp), %eax
	leal	-1(%rax), %edx
	movl	%edx, 12(%rbp)
	jmp	.L581
	.p2align 4,,10
	.p2align 3
.L518:
	movl	8(%rbp), %eax
	leal	-1(%rax), %edx
	cmpl	$1, %eax
	movl	%edx, 8(%rbp)
	jne	.L517
	movq	0(%rbp), %rax
	movq	%rbp, %rdi
	call	*16(%rax)
	movl	12(%rbp), %eax
	leal	-1(%rax), %edx
	movl	%edx, 12(%rbp)
	jmp	.L579
	.p2align 4,,10
	.p2align 3
.L506:
	movl	8(%rbp), %eax
	leal	-1(%rax), %edx
	cmpl	$1, %eax
	movl	%edx, 8(%rbp)
	jne	.L505
	movq	0(%rbp), %rax
	movq	%rbp, %rdi
	call	*16(%rax)
	movl	12(%rbp), %eax
	leal	-1(%rax), %edx
	movl	%edx, 12(%rbp)
	jmp	.L577
	.p2align 4,,10
	.p2align 3
.L500:
	movl	8(%rbp), %eax
	leal	-1(%rax), %edx
	cmpl	$1, %eax
	movl	%edx, 8(%rbp)
	jne	.L499
	movq	0(%rbp), %rax
	movq	%rbp, %rdi
	call	*16(%rax)
	movl	12(%rbp), %eax
	leal	-1(%rax), %edx
	movl	%edx, 12(%rbp)
	jmp	.L576
	.p2align 4,,10
	.p2align 3
.L494:
	movl	8(%rbp), %eax
	leal	-1(%rax), %edx
	cmpl	$1, %eax
	movl	%edx, 8(%rbp)
	jne	.L493
	movq	0(%rbp), %rax
	movq	%rbp, %rdi
	call	*16(%rax)
	movl	12(%rbp), %eax
	leal	-1(%rax), %edx
	movl	%edx, 12(%rbp)
	jmp	.L575
	.p2align 4,,10
	.p2align 3
.L628:
	movq	0(%rbp), %rax
	movq	%rbp, %rdi
	call	*16(%rax)
	movl	$-1, %eax
	lock xaddl	%eax, 12(%rbp)
.L578:
	cmpl	$1, %eax
	jne	.L511
	movq	0(%rbp), %rax
	movq	%rbp, %rdi
	call	*24(%rax)
	jmp	.L511
	.p2align 4,,10
	.p2align 3
.L630:
	movq	0(%rbp), %rax
	movq	%rbp, %rdi
	call	*16(%rax)
	movl	$-1, %eax
	lock xaddl	%eax, 12(%rbp)
.L580:
	cmpl	$1, %eax
	jne	.L523
	movq	0(%rbp), %rax
	movq	%rbp, %rdi
	call	*24(%rax)
	jmp	.L523
	.p2align 4,,10
	.p2align 3
.L632:
	movq	0(%rbp), %rax
	movq	%rbp, %rdi
	call	*16(%rax)
	movl	$-1, %eax
	lock xaddl	%eax, 12(%rbp)
.L582:
	cmpl	$1, %eax
	jne	.L535
	movq	0(%rbp), %rax
	movq	%rbp, %rdi
	call	*24(%rax)
	jmp	.L535
	.p2align 4,,10
	.p2align 3
.L635:
	movq	0(%rbp), %rax
	movq	%rbp, %rdi
	call	*16(%rax)
	movl	$-1, %eax
	lock xaddl	%eax, 12(%rbp)
.L585:
	cmpl	$1, %eax
	jne	.L553
	movq	0(%rbp), %rax
	movq	%rbp, %rdi
	call	*24(%rax)
	jmp	.L553
	.p2align 4,,10
	.p2align 3
.L637:
	movq	0(%rbp), %rax
	movq	%rbp, %rdi
	call	*16(%rax)
	movl	$-1, %eax
	lock xaddl	%eax, 12(%rbp)
.L587:
	cmpl	$1, %eax
	jne	.L565
	movq	0(%rbp), %rax
	movq	%rbp, %rdi
	call	*24(%rax)
	jmp	.L565
	.p2align 4,,10
	.p2align 3
.L629:
	movq	0(%rbp), %rax
	movq	%rbp, %rdi
	call	*16(%rax)
	movl	$-1, %eax
	lock xaddl	%eax, 12(%rbp)
.L579:
	cmpl	$1, %eax
	jne	.L517
	movq	0(%rbp), %rax
	movq	%rbp, %rdi
	call	*24(%rax)
	jmp	.L517
	.p2align 4,,10
	.p2align 3
.L627:
	movq	0(%rbp), %rax
	movq	%rbp, %rdi
	call	*16(%rax)
	movl	$-1, %eax
	lock xaddl	%eax, 12(%rbp)
.L577:
	cmpl	$1, %eax
	jne	.L505
	movq	0(%rbp), %rax
	movq	%rbp, %rdi
	call	*24(%rax)
	jmp	.L505
	.p2align 4,,10
	.p2align 3
.L631:
	movq	0(%rbp), %rax
	movq	%rbp, %rdi
	call	*16(%rax)
	movl	$-1, %eax
	lock xaddl	%eax, 12(%rbp)
.L581:
	cmpl	$1, %eax
	jne	.L529
	movq	0(%rbp), %rax
	movq	%rbp, %rdi
	call	*24(%rax)
	jmp	.L529
	.p2align 4,,10
	.p2align 3
.L633:
	movq	0(%rbp), %rax
	movq	%rbp, %rdi
	call	*16(%rax)
	movl	$-1, %eax
	lock xaddl	%eax, 12(%rbp)
.L583:
	cmpl	$1, %eax
	jne	.L541
	movq	0(%rbp), %rax
	movq	%rbp, %rdi
	call	*24(%rax)
	jmp	.L541
	.p2align 4,,10
	.p2align 3
.L634:
	movq	0(%rbp), %rax
	movq	%rbp, %rdi
	call	*16(%rax)
	movl	$-1, %eax
	lock xaddl	%eax, 12(%rbp)
.L584:
	cmpl	$1, %eax
	jne	.L547
	movq	0(%rbp), %rax
	movq	%rbp, %rdi
	call	*24(%rax)
	jmp	.L547
	.p2align 4,,10
	.p2align 3
.L636:
	movq	0(%rbp), %rax
	movq	%rbp, %rdi
	call	*16(%rax)
	movl	$-1, %eax
	lock xaddl	%eax, 12(%rbp)
.L586:
	cmpl	$1, %eax
	jne	.L559
	movq	0(%rbp), %rax
	movq	%rbp, %rdi
	call	*24(%rax)
	jmp	.L559
	.p2align 4,,10
	.p2align 3
.L625:
	movq	0(%rbp), %rax
	movq	%rbp, %rdi
	call	*16(%rax)
	movl	$-1, %eax
	lock xaddl	%eax, 12(%rbp)
.L575:
	cmpl	$1, %eax
	jne	.L493
	movq	0(%rbp), %rax
	movq	%rbp, %rdi
	call	*24(%rax)
	jmp	.L493
	.p2align 4,,10
	.p2align 3
.L626:
	movq	0(%rbp), %rax
	movq	%rbp, %rdi
	call	*16(%rax)
	movl	$-1, %eax
	lock xaddl	%eax, 12(%rbp)
.L576:
	cmpl	$1, %eax
	jne	.L499
	movq	0(%rbp), %rax
	movq	%rbp, %rdi
	call	*24(%rax)
	jmp	.L499
	.cfi_endproc
.LFE11991:
	.size	_ZThn8_N8asiodnp315OutstationStackD1Ev, .-_ZThn8_N8asiodnp315OutstationStackD1Ev
	.section	.text._ZN8asiodnp315OutstationStackD0Ev,"axG",@progbits,_ZN8asiodnp315OutstationStackD5Ev,comdat
	.p2align 4,,15
	.weak	_ZThn16_N8asiodnp315OutstationStackD0Ev
	.type	_ZThn16_N8asiodnp315OutstationStackD0Ev, @function
_ZThn16_N8asiodnp315OutstationStackD0Ev:
.LFB11988:
	.cfi_startproc
	movq	_ZTVN8asiodnp315OutstationStackE@GOTPCREL(%rip), %rax
	pushq	%r12
	.cfi_def_cfa_offset 16
	.cfi_offset 12, -16
	leaq	-16(%rdi), %r12
	pushq	%rbp
	.cfi_def_cfa_offset 24
	.cfi_offset 6, -24
	pushq	%rbx
	.cfi_def_cfa_offset 32
	.cfi_offset 3, -32
	movq	%rdi, %rbx
	movq	_ZTVN7openpal5ArrayIhjEE@GOTPCREL(%rip), %rbp
	leaq	16(%rax), %rdx
	movq	%rdx, -16(%rdi)
	leaq	144(%rax), %rdx
	addq	$208, %rax
	movq	%rax, (%rdi)
	movq	_ZTVN8opendnp38OContextE@GOTPCREL(%rip), %rax
	movq	%rdx, -8(%rdi)
	addq	$16, %rax
	movq	%rax, 136(%rdi)
	leaq	16(%rbp), %rax
	movq	%rax, 1056(%rdi)
	movq	1072(%rdi), %rdi
	testq	%rdi, %rdi
	je	.L640
	call	_ZdaPv@PLT
.L640:
	movq	1016(%rbx), %rdi
	leaq	16(%rbp), %rax
	movq	%rax, 1000(%rbx)
	testq	%rdi, %rdi
	je	.L641
	call	_ZdaPv@PLT
.L641:
	movq	936(%rbx), %rdi
	leaq	16(%rbp), %rax
	movq	%rax, 920(%rbx)
	testq	%rdi, %rdi
	je	.L642
	call	_ZdaPv@PLT
.L642:
	leaq	864(%rbx), %rdi
	call	_ZN7openpal8TimerRefD1Ev@PLT
	movq	_ZTVN8opendnp38DatabaseE@GOTPCREL(%rip), %rax
	movq	728(%rbx), %rdi
	addq	$16, %rax
	movq	%rax, 496(%rbx)
	movq	_ZTVN8opendnp315DatabaseBuffersE@GOTPCREL(%rip), %rax
	leaq	16(%rax), %rdx
	movq	%rdx, 520(%rbx)
	leaq	88(%rax), %rdx
	addq	$120, %rax
	movq	%rax, 536(%rbx)
	movq	_ZTVN7openpal5ArrayIN8opendnp34CellINS1_19TimeAndIntervalSpecEEEtEE@GOTPCREL(%rip), %rax
	movq	%rdx, 528(%rbx)
	addq	$16, %rax
	testq	%rdi, %rdi
	movq	%rax, 712(%rbx)
	je	.L643
	call	_ZdaPv@PLT
.L643:
	movq	_ZTVN7openpal5ArrayIN8opendnp34CellINS1_22AnalogOutputStatusSpecEEEtEE@GOTPCREL(%rip), %rax
	movq	704(%rbx), %rdi
	addq	$16, %rax
	testq	%rdi, %rdi
	movq	%rax, 688(%rbx)
	je	.L644
	call	_ZdaPv@PLT
.L644:
	movq	_ZTVN7openpal5ArrayIN8opendnp34CellINS1_22BinaryOutputStatusSpecEEEtEE@GOTPCREL(%rip), %rax
	movq	680(%rbx), %rdi
	addq	$16, %rax
	testq	%rdi, %rdi
	movq	%rax, 664(%rbx)
	je	.L645
	call	_ZdaPv@PLT
.L645:
	movq	_ZTVN7openpal5ArrayIN8opendnp34CellINS1_17FrozenCounterSpecEEEtEE@GOTPCREL(%rip), %rax
	movq	656(%rbx), %rdi
	addq	$16, %rax
	testq	%rdi, %rdi
	movq	%rax, 640(%rbx)
	je	.L646
	call	_ZdaPv@PLT
.L646:
	movq	_ZTVN7openpal5ArrayIN8opendnp34CellINS1_11CounterSpecEEEtEE@GOTPCREL(%rip), %rax
	movq	632(%rbx), %rdi
	addq	$16, %rax
	testq	%rdi, %rdi
	movq	%rax, 616(%rbx)
	je	.L647
	call	_ZdaPv@PLT
.L647:
	movq	_ZTVN7openpal5ArrayIN8opendnp34CellINS1_10AnalogSpecEEEtEE@GOTPCREL(%rip), %rax
	movq	608(%rbx), %rdi
	addq	$16, %rax
	testq	%rdi, %rdi
	movq	%rax, 592(%rbx)
	je	.L648
	call	_ZdaPv@PLT
.L648:
	movq	_ZTVN7openpal5ArrayIN8opendnp34CellINS1_19DoubleBitBinarySpecEEEtEE@GOTPCREL(%rip), %rax
	movq	584(%rbx), %rdi
	addq	$16, %rax
	testq	%rdi, %rdi
	movq	%rax, 568(%rbx)
	je	.L649
	call	_ZdaPv@PLT
.L649:
	movq	_ZTVN7openpal5ArrayIN8opendnp34CellINS1_10BinarySpecEEEtEE@GOTPCREL(%rip), %rax
	movq	560(%rbx), %rdi
	addq	$16, %rax
	testq	%rdi, %rdi
	movq	%rax, 544(%rbx)
	je	.L650
	call	_ZdaPv@PLT
.L650:
	movq	_ZTVN8opendnp311EventBufferE@GOTPCREL(%rip), %rax
	movq	344(%rbx), %rdi
	leaq	16(%rax), %rdx
	movq	%rdx, 240(%rbx)
	leaq	160(%rax), %rdx
	movq	%rdx, 248(%rbx)
	leaq	192(%rax), %rdx
	addq	$224, %rax
	movq	%rax, 264(%rbx)
	movq	_ZTVN7openpal5ArrayINS_8ListNodeIN8opendnp39SOERecordEEEjEE@GOTPCREL(%rip), %rax
	movq	%rdx, 256(%rbx)
	addq	$16, %rax
	testq	%rdi, %rdi
	movq	%rax, 328(%rbx)
	je	.L651
	call	_ZdaPv@PLT
.L651:
	movq	232(%rbx), %rbp
	testq	%rbp, %rbp
	je	.L653
	cmpq	$0, _ZL28__gthrw___pthread_key_createPjPFvPvE@GOTPCREL(%rip)
	je	.L654
	lock subl	$1, 8(%rbp)
	je	.L785
.L653:
	movq	216(%rbx), %rbp
	testq	%rbp, %rbp
	je	.L659
	cmpq	$0, _ZL28__gthrw___pthread_key_createPjPFvPvE@GOTPCREL(%rip)
	je	.L660
	lock subl	$1, 8(%rbp)
	je	.L786
.L659:
	movq	200(%rbx), %rbp
	testq	%rbp, %rbp
	je	.L665
	cmpq	$0, _ZL28__gthrw___pthread_key_createPjPFvPvE@GOTPCREL(%rip)
	je	.L666
	lock subl	$1, 8(%rbp)
	je	.L787
.L665:
	movq	184(%rbx), %rbp
	testq	%rbp, %rbp
	je	.L671
	cmpq	$0, _ZL28__gthrw___pthread_key_createPjPFvPvE@GOTPCREL(%rip)
	je	.L672
	lock subl	$1, 8(%rbp)
	je	.L788
.L671:
	movq	168(%rbx), %rbp
	testq	%rbp, %rbp
	je	.L677
	cmpq	$0, _ZL28__gthrw___pthread_key_createPjPFvPvE@GOTPCREL(%rip)
	je	.L678
	lock subl	$1, 8(%rbp)
	je	.L789
.L677:
	movq	152(%rbx), %rbp
	testq	%rbp, %rbp
	je	.L683
	cmpq	$0, _ZL28__gthrw___pthread_key_createPjPFvPvE@GOTPCREL(%rip)
	je	.L684
	lock subl	$1, 8(%rbp)
	je	.L790
.L683:
	movq	128(%rbx), %rbp
	testq	%rbp, %rbp
	je	.L689
	cmpq	$0, _ZL28__gthrw___pthread_key_createPjPFvPvE@GOTPCREL(%rip)
	je	.L690
	lock subl	$1, 8(%rbp)
	je	.L791
.L689:
	movq	112(%rbx), %rbp
	testq	%rbp, %rbp
	je	.L695
	cmpq	$0, _ZL28__gthrw___pthread_key_createPjPFvPvE@GOTPCREL(%rip)
	je	.L696
	lock subl	$1, 8(%rbp)
	je	.L792
.L695:
	movq	96(%rbx), %rbp
	testq	%rbp, %rbp
	je	.L701
	cmpq	$0, _ZL28__gthrw___pthread_key_createPjPFvPvE@GOTPCREL(%rip)
	je	.L702
	lock subl	$1, 8(%rbp)
	je	.L793
.L701:
	movq	80(%rbx), %rbp
	testq	%rbp, %rbp
	je	.L707
	cmpq	$0, _ZL28__gthrw___pthread_key_createPjPFvPvE@GOTPCREL(%rip)
	je	.L708
	lock subl	$1, 8(%rbp)
	je	.L794
.L707:
	movq	64(%rbx), %rbp
	testq	%rbp, %rbp
	je	.L713
	cmpq	$0, _ZL28__gthrw___pthread_key_createPjPFvPvE@GOTPCREL(%rip)
	je	.L714
	lock subl	$1, 8(%rbp)
	je	.L795
.L713:
	movq	48(%rbx), %rbp
	testq	%rbp, %rbp
	je	.L719
	cmpq	$0, _ZL28__gthrw___pthread_key_createPjPFvPvE@GOTPCREL(%rip)
	je	.L720
	lock subl	$1, 8(%rbp)
	je	.L796
.L719:
	movq	32(%rbx), %rbp
	testq	%rbp, %rbp
	je	.L725
	cmpq	$0, _ZL28__gthrw___pthread_key_createPjPFvPvE@GOTPCREL(%rip)
	je	.L726
	lock subl	$1, 8(%rbp)
	je	.L797
.L725:
	movq	16(%rbx), %rdi
	testq	%rdi, %rdi
	je	.L731
	cmpq	$0, _ZL28__gthrw___pthread_key_createPjPFvPvE@GOTPCREL(%rip)
	je	.L732
	movl	$-1, %eax
	lock xaddl	%eax, 12(%rdi)
	cmpl	$1, %eax
	je	.L798
.L731:
	popq	%rbx
	.cfi_remember_state
	.cfi_def_cfa_offset 24
	movq	%r12, %rdi
	movl	$1104, %esi
	popq	%rbp
	.cfi_def_cfa_offset 16
	popq	%r12
	.cfi_def_cfa_offset 8
	jmp	_ZdlPvm@PLT
	.p2align 4,,10
	.p2align 3
.L696:
	.cfi_restore_state
	movl	8(%rbp), %eax
	leal	-1(%rax), %edx
	cmpl	$1, %eax
	movl	%edx, 8(%rbp)
	jne	.L695
	movq	0(%rbp), %rax
	movq	%rbp, %rdi
	call	*16(%rax)
	movl	12(%rbp), %eax
	leal	-1(%rax), %edx
	movl	%edx, 12(%rbp)
	jmp	.L742
	.p2align 4,,10
	.p2align 3
.L732:
	movl	12(%rdi), %eax
	leal	-1(%rax), %edx
	cmpl	$1, %eax
	movl	%edx, 12(%rdi)
	jne	.L731
.L798:
	movq	(%rdi), %rax
	call	*24(%rax)
	jmp	.L731
	.p2align 4,,10
	.p2align 3
.L714:
	movl	8(%rbp), %eax
	leal	-1(%rax), %edx
	cmpl	$1, %eax
	movl	%edx, 8(%rbp)
	jne	.L713
	movq	0(%rbp), %rax
	movq	%rbp, %rdi
	call	*16(%rax)
	movl	12(%rbp), %eax
	leal	-1(%rax), %edx
	movl	%edx, 12(%rbp)
	jmp	.L745
	.p2align 4,,10
	.p2align 3
.L726:
	movl	8(%rbp), %eax
	leal	-1(%rax), %edx
	cmpl	$1, %eax
	movl	%edx, 8(%rbp)
	jne	.L725
	movq	0(%rbp), %rax
	movq	%rbp, %rdi
	call	*16(%rax)
	movl	12(%rbp), %eax
	leal	-1(%rax), %edx
	movl	%edx, 12(%rbp)
	jmp	.L747
	.p2align 4,,10
	.p2align 3
.L672:
	movl	8(%rbp), %eax
	leal	-1(%rax), %edx
	cmpl	$1, %eax
	movl	%edx, 8(%rbp)
	jne	.L671
	movq	0(%rbp), %rax
	movq	%rbp, %rdi
	call	*16(%rax)
	movl	12(%rbp), %eax
	leal	-1(%rax), %edx
	movl	%edx, 12(%rbp)
	jmp	.L738
	.p2align 4,,10
	.p2align 3
.L684:
	movl	8(%rbp), %eax
	leal	-1(%rax), %edx
	cmpl	$1, %eax
	movl	%edx, 8(%rbp)
	jne	.L683
	movq	0(%rbp), %rax
	movq	%rbp, %rdi
	call	*16(%rax)
	movl	12(%rbp), %eax
	leal	-1(%rax), %edx
	movl	%edx, 12(%rbp)
	jmp	.L740
	.p2align 4,,10
	.p2align 3
.L702:
	movl	8(%rbp), %eax
	leal	-1(%rax), %edx
	cmpl	$1, %eax
	movl	%edx, 8(%rbp)
	jne	.L701
	movq	0(%rbp), %rax
	movq	%rbp, %rdi
	call	*16(%rax)
	movl	12(%rbp), %eax
	leal	-1(%rax), %edx
	movl	%edx, 12(%rbp)
	jmp	.L743
	.p2align 4,,10
	.p2align 3
.L720:
	movl	8(%rbp), %eax
	leal	-1(%rax), %edx
	cmpl	$1, %eax
	movl	%edx, 8(%rbp)
	jne	.L719
	movq	0(%rbp), %rax
	movq	%rbp, %rdi
	call	*16(%rax)
	movl	12(%rbp), %eax
	leal	-1(%rax), %edx
	movl	%edx, 12(%rbp)
	jmp	.L746
	.p2align 4,,10
	.p2align 3
.L708:
	movl	8(%rbp), %eax
	leal	-1(%rax), %edx
	cmpl	$1, %eax
	movl	%edx, 8(%rbp)
	jne	.L707
	movq	0(%rbp), %rax
	movq	%rbp, %rdi
	call	*16(%rax)
	movl	12(%rbp), %eax
	leal	-1(%rax), %edx
	movl	%edx, 12(%rbp)
	jmp	.L744
	.p2align 4,,10
	.p2align 3
.L690:
	movl	8(%rbp), %eax
	leal	-1(%rax), %edx
	cmpl	$1, %eax
	movl	%edx, 8(%rbp)
	jne	.L689
	movq	0(%rbp), %rax
	movq	%rbp, %rdi
	call	*16(%rax)
	movl	12(%rbp), %eax
	leal	-1(%rax), %edx
	movl	%edx, 12(%rbp)
	jmp	.L741
	.p2align 4,,10
	.p2align 3
.L678:
	movl	8(%rbp), %eax
	leal	-1(%rax), %edx
	cmpl	$1, %eax
	movl	%edx, 8(%rbp)
	jne	.L677
	movq	0(%rbp), %rax
	movq	%rbp, %rdi
	call	*16(%rax)
	movl	12(%rbp), %eax
	leal	-1(%rax), %edx
	movl	%edx, 12(%rbp)
	jmp	.L739
	.p2align 4,,10
	.p2align 3
.L666:
	movl	8(%rbp), %eax
	leal	-1(%rax), %edx
	cmpl	$1, %eax
	movl	%edx, 8(%rbp)
	jne	.L665
	movq	0(%rbp), %rax
	movq	%rbp, %rdi
	call	*16(%rax)
	movl	12(%rbp), %eax
	leal	-1(%rax), %edx
	movl	%edx, 12(%rbp)
	jmp	.L737
	.p2align 4,,10
	.p2align 3
.L660:
	movl	8(%rbp), %eax
	leal	-1(%rax), %edx
	cmpl	$1, %eax
	movl	%edx, 8(%rbp)
	jne	.L659
	movq	0(%rbp), %rax
	movq	%rbp, %rdi
	call	*16(%rax)
	movl	12(%rbp), %eax
	leal	-1(%rax), %edx
	movl	%edx, 12(%rbp)
	jmp	.L736
	.p2align 4,,10
	.p2align 3
.L654:
	movl	8(%rbp), %eax
	leal	-1(%rax), %edx
	cmpl	$1, %eax
	movl	%edx, 8(%rbp)
	jne	.L653
	movq	0(%rbp), %rax
	movq	%rbp, %rdi
	call	*16(%rax)
	movl	12(%rbp), %eax
	leal	-1(%rax), %edx
	movl	%edx, 12(%rbp)
	jmp	.L735
	.p2align 4,,10
	.p2align 3
.L788:
	movq	0(%rbp), %rax
	movq	%rbp, %rdi
	call	*16(%rax)
	movl	$-1, %eax
	lock xaddl	%eax, 12(%rbp)
.L738:
	cmpl	$1, %eax
	jne	.L671
	movq	0(%rbp), %rax
	movq	%rbp, %rdi
	call	*24(%rax)
	jmp	.L671
	.p2align 4,,10
	.p2align 3
.L790:
	movq	0(%rbp), %rax
	movq	%rbp, %rdi
	call	*16(%rax)
	movl	$-1, %eax
	lock xaddl	%eax, 12(%rbp)
.L740:
	cmpl	$1, %eax
	jne	.L683
	movq	0(%rbp), %rax
	movq	%rbp, %rdi
	call	*24(%rax)
	jmp	.L683
	.p2align 4,,10
	.p2align 3
.L792:
	movq	0(%rbp), %rax
	movq	%rbp, %rdi
	call	*16(%rax)
	movl	$-1, %eax
	lock xaddl	%eax, 12(%rbp)
.L742:
	cmpl	$1, %eax
	jne	.L695
	movq	0(%rbp), %rax
	movq	%rbp, %rdi
	call	*24(%rax)
	jmp	.L695
	.p2align 4,,10
	.p2align 3
.L795:
	movq	0(%rbp), %rax
	movq	%rbp, %rdi
	call	*16(%rax)
	movl	$-1, %eax
	lock xaddl	%eax, 12(%rbp)
.L745:
	cmpl	$1, %eax
	jne	.L713
	movq	0(%rbp), %rax
	movq	%rbp, %rdi
	call	*24(%rax)
	jmp	.L713
	.p2align 4,,10
	.p2align 3
.L797:
	movq	0(%rbp), %rax
	movq	%rbp, %rdi
	call	*16(%rax)
	movl	$-1, %eax
	lock xaddl	%eax, 12(%rbp)
.L747:
	cmpl	$1, %eax
	jne	.L725
	movq	0(%rbp), %rax
	movq	%rbp, %rdi
	call	*24(%rax)
	jmp	.L725
	.p2align 4,,10
	.p2align 3
.L789:
	movq	0(%rbp), %rax
	movq	%rbp, %rdi
	call	*16(%rax)
	movl	$-1, %eax
	lock xaddl	%eax, 12(%rbp)
.L739:
	cmpl	$1, %eax
	jne	.L677
	movq	0(%rbp), %rax
	movq	%rbp, %rdi
	call	*24(%rax)
	jmp	.L677
	.p2align 4,,10
	.p2align 3
.L787:
	movq	0(%rbp), %rax
	movq	%rbp, %rdi
	call	*16(%rax)
	movl	$-1, %eax
	lock xaddl	%eax, 12(%rbp)
.L737:
	cmpl	$1, %eax
	jne	.L665
	movq	0(%rbp), %rax
	movq	%rbp, %rdi
	call	*24(%rax)
	jmp	.L665
	.p2align 4,,10
	.p2align 3
.L791:
	movq	0(%rbp), %rax
	movq	%rbp, %rdi
	call	*16(%rax)
	movl	$-1, %eax
	lock xaddl	%eax, 12(%rbp)
.L741:
	cmpl	$1, %eax
	jne	.L689
	movq	0(%rbp), %rax
	movq	%rbp, %rdi
	call	*24(%rax)
	jmp	.L689
	.p2align 4,,10
	.p2align 3
.L793:
	movq	0(%rbp), %rax
	movq	%rbp, %rdi
	call	*16(%rax)
	movl	$-1, %eax
	lock xaddl	%eax, 12(%rbp)
.L743:
	cmpl	$1, %eax
	jne	.L701
	movq	0(%rbp), %rax
	movq	%rbp, %rdi
	call	*24(%rax)
	jmp	.L701
	.p2align 4,,10
	.p2align 3
.L794:
	movq	0(%rbp), %rax
	movq	%rbp, %rdi
	call	*16(%rax)
	movl	$-1, %eax
	lock xaddl	%eax, 12(%rbp)
.L744:
	cmpl	$1, %eax
	jne	.L707
	movq	0(%rbp), %rax
	movq	%rbp, %rdi
	call	*24(%rax)
	jmp	.L707
	.p2align 4,,10
	.p2align 3
.L796:
	movq	0(%rbp), %rax
	movq	%rbp, %rdi
	call	*16(%rax)
	movl	$-1, %eax
	lock xaddl	%eax, 12(%rbp)
.L746:
	cmpl	$1, %eax
	jne	.L719
	movq	0(%rbp), %rax
	movq	%rbp, %rdi
	call	*24(%rax)
	jmp	.L719
	.p2align 4,,10
	.p2align 3
.L785:
	movq	0(%rbp), %rax
	movq	%rbp, %rdi
	call	*16(%rax)
	movl	$-1, %eax
	lock xaddl	%eax, 12(%rbp)
.L735:
	cmpl	$1, %eax
	jne	.L653
	movq	0(%rbp), %rax
	movq	%rbp, %rdi
	call	*24(%rax)
	jmp	.L653
	.p2align 4,,10
	.p2align 3
.L786:
	movq	0(%rbp), %rax
	movq	%rbp, %rdi
	call	*16(%rax)
	movl	$-1, %eax
	lock xaddl	%eax, 12(%rbp)
.L736:
	cmpl	$1, %eax
	jne	.L659
	movq	0(%rbp), %rax
	movq	%rbp, %rdi
	call	*24(%rax)
	jmp	.L659
	.cfi_endproc
.LFE11988:
	.size	_ZThn16_N8asiodnp315OutstationStackD0Ev, .-_ZThn16_N8asiodnp315OutstationStackD0Ev
	.p2align 4,,15
	.weak	_ZThn8_N8asiodnp315OutstationStackD0Ev
	.type	_ZThn8_N8asiodnp315OutstationStackD0Ev, @function
_ZThn8_N8asiodnp315OutstationStackD0Ev:
.LFB11989:
	.cfi_startproc
	movq	_ZTVN8asiodnp315OutstationStackE@GOTPCREL(%rip), %rax
	pushq	%r12
	.cfi_def_cfa_offset 16
	.cfi_offset 12, -16
	leaq	-8(%rdi), %r12
	pushq	%rbp
	.cfi_def_cfa_offset 24
	.cfi_offset 6, -24
	pushq	%rbx
	.cfi_def_cfa_offset 32
	.cfi_offset 3, -32
	movq	%rdi, %rbx
	movq	_ZTVN7openpal5ArrayIhjEE@GOTPCREL(%rip), %rbp
	leaq	16(%rax), %rdx
	movq	%rdx, -8(%rdi)
	leaq	144(%rax), %rdx
	addq	$208, %rax
	movq	%rax, 8(%rdi)
	movq	_ZTVN8opendnp38OContextE@GOTPCREL(%rip), %rax
	movq	%rdx, (%rdi)
	addq	$16, %rax
	movq	%rax, 144(%rdi)
	leaq	16(%rbp), %rax
	movq	%rax, 1064(%rdi)
	movq	1080(%rdi), %rdi
	testq	%rdi, %rdi
	je	.L800
	call	_ZdaPv@PLT
.L800:
	movq	1024(%rbx), %rdi
	leaq	16(%rbp), %rax
	movq	%rax, 1008(%rbx)
	testq	%rdi, %rdi
	je	.L801
	call	_ZdaPv@PLT
.L801:
	movq	944(%rbx), %rdi
	leaq	16(%rbp), %rax
	movq	%rax, 928(%rbx)
	testq	%rdi, %rdi
	je	.L802
	call	_ZdaPv@PLT
.L802:
	leaq	872(%rbx), %rdi
	call	_ZN7openpal8TimerRefD1Ev@PLT
	movq	_ZTVN8opendnp38DatabaseE@GOTPCREL(%rip), %rax
	movq	736(%rbx), %rdi
	addq	$16, %rax
	movq	%rax, 504(%rbx)
	movq	_ZTVN8opendnp315DatabaseBuffersE@GOTPCREL(%rip), %rax
	leaq	16(%rax), %rdx
	movq	%rdx, 528(%rbx)
	leaq	88(%rax), %rdx
	addq	$120, %rax
	movq	%rax, 544(%rbx)
	movq	_ZTVN7openpal5ArrayIN8opendnp34CellINS1_19TimeAndIntervalSpecEEEtEE@GOTPCREL(%rip), %rax
	movq	%rdx, 536(%rbx)
	addq	$16, %rax
	testq	%rdi, %rdi
	movq	%rax, 720(%rbx)
	je	.L803
	call	_ZdaPv@PLT
.L803:
	movq	_ZTVN7openpal5ArrayIN8opendnp34CellINS1_22AnalogOutputStatusSpecEEEtEE@GOTPCREL(%rip), %rax
	movq	712(%rbx), %rdi
	addq	$16, %rax
	testq	%rdi, %rdi
	movq	%rax, 696(%rbx)
	je	.L804
	call	_ZdaPv@PLT
.L804:
	movq	_ZTVN7openpal5ArrayIN8opendnp34CellINS1_22BinaryOutputStatusSpecEEEtEE@GOTPCREL(%rip), %rax
	movq	688(%rbx), %rdi
	addq	$16, %rax
	testq	%rdi, %rdi
	movq	%rax, 672(%rbx)
	je	.L805
	call	_ZdaPv@PLT
.L805:
	movq	_ZTVN7openpal5ArrayIN8opendnp34CellINS1_17FrozenCounterSpecEEEtEE@GOTPCREL(%rip), %rax
	movq	664(%rbx), %rdi
	addq	$16, %rax
	testq	%rdi, %rdi
	movq	%rax, 648(%rbx)
	je	.L806
	call	_ZdaPv@PLT
.L806:
	movq	_ZTVN7openpal5ArrayIN8opendnp34CellINS1_11CounterSpecEEEtEE@GOTPCREL(%rip), %rax
	movq	640(%rbx), %rdi
	addq	$16, %rax
	testq	%rdi, %rdi
	movq	%rax, 624(%rbx)
	je	.L807
	call	_ZdaPv@PLT
.L807:
	movq	_ZTVN7openpal5ArrayIN8opendnp34CellINS1_10AnalogSpecEEEtEE@GOTPCREL(%rip), %rax
	movq	616(%rbx), %rdi
	addq	$16, %rax
	testq	%rdi, %rdi
	movq	%rax, 600(%rbx)
	je	.L808
	call	_ZdaPv@PLT
.L808:
	movq	_ZTVN7openpal5ArrayIN8opendnp34CellINS1_19DoubleBitBinarySpecEEEtEE@GOTPCREL(%rip), %rax
	movq	592(%rbx), %rdi
	addq	$16, %rax
	testq	%rdi, %rdi
	movq	%rax, 576(%rbx)
	je	.L809
	call	_ZdaPv@PLT
.L809:
	movq	_ZTVN7openpal5ArrayIN8opendnp34CellINS1_10BinarySpecEEEtEE@GOTPCREL(%rip), %rax
	movq	568(%rbx), %rdi
	addq	$16, %rax
	testq	%rdi, %rdi
	movq	%rax, 552(%rbx)
	je	.L810
	call	_ZdaPv@PLT
.L810:
	movq	_ZTVN8opendnp311EventBufferE@GOTPCREL(%rip), %rax
	movq	352(%rbx), %rdi
	leaq	16(%rax), %rdx
	movq	%rdx, 248(%rbx)
	leaq	160(%rax), %rdx
	movq	%rdx, 256(%rbx)
	leaq	192(%rax), %rdx
	addq	$224, %rax
	movq	%rax, 272(%rbx)
	movq	_ZTVN7openpal5ArrayINS_8ListNodeIN8opendnp39SOERecordEEEjEE@GOTPCREL(%rip), %rax
	movq	%rdx, 264(%rbx)
	addq	$16, %rax
	testq	%rdi, %rdi
	movq	%rax, 336(%rbx)
	je	.L811
	call	_ZdaPv@PLT
.L811:
	movq	240(%rbx), %rbp
	testq	%rbp, %rbp
	je	.L813
	cmpq	$0, _ZL28__gthrw___pthread_key_createPjPFvPvE@GOTPCREL(%rip)
	je	.L814
	lock subl	$1, 8(%rbp)
	je	.L945
.L813:
	movq	224(%rbx), %rbp
	testq	%rbp, %rbp
	je	.L819
	cmpq	$0, _ZL28__gthrw___pthread_key_createPjPFvPvE@GOTPCREL(%rip)
	je	.L820
	lock subl	$1, 8(%rbp)
	je	.L946
.L819:
	movq	208(%rbx), %rbp
	testq	%rbp, %rbp
	je	.L825
	cmpq	$0, _ZL28__gthrw___pthread_key_createPjPFvPvE@GOTPCREL(%rip)
	je	.L826
	lock subl	$1, 8(%rbp)
	je	.L947
.L825:
	movq	192(%rbx), %rbp
	testq	%rbp, %rbp
	je	.L831
	cmpq	$0, _ZL28__gthrw___pthread_key_createPjPFvPvE@GOTPCREL(%rip)
	je	.L832
	lock subl	$1, 8(%rbp)
	je	.L948
.L831:
	movq	176(%rbx), %rbp
	testq	%rbp, %rbp
	je	.L837
	cmpq	$0, _ZL28__gthrw___pthread_key_createPjPFvPvE@GOTPCREL(%rip)
	je	.L838
	lock subl	$1, 8(%rbp)
	je	.L949
.L837:
	movq	160(%rbx), %rbp
	testq	%rbp, %rbp
	je	.L843
	cmpq	$0, _ZL28__gthrw___pthread_key_createPjPFvPvE@GOTPCREL(%rip)
	je	.L844
	lock subl	$1, 8(%rbp)
	je	.L950
.L843:
	movq	136(%rbx), %rbp
	testq	%rbp, %rbp
	je	.L849
	cmpq	$0, _ZL28__gthrw___pthread_key_createPjPFvPvE@GOTPCREL(%rip)
	je	.L850
	lock subl	$1, 8(%rbp)
	je	.L951
.L849:
	movq	120(%rbx), %rbp
	testq	%rbp, %rbp
	je	.L855
	cmpq	$0, _ZL28__gthrw___pthread_key_createPjPFvPvE@GOTPCREL(%rip)
	je	.L856
	lock subl	$1, 8(%rbp)
	je	.L952
.L855:
	movq	104(%rbx), %rbp
	testq	%rbp, %rbp
	je	.L861
	cmpq	$0, _ZL28__gthrw___pthread_key_createPjPFvPvE@GOTPCREL(%rip)
	je	.L862
	lock subl	$1, 8(%rbp)
	je	.L953
.L861:
	movq	88(%rbx), %rbp
	testq	%rbp, %rbp
	je	.L867
	cmpq	$0, _ZL28__gthrw___pthread_key_createPjPFvPvE@GOTPCREL(%rip)
	je	.L868
	lock subl	$1, 8(%rbp)
	je	.L954
.L867:
	movq	72(%rbx), %rbp
	testq	%rbp, %rbp
	je	.L873
	cmpq	$0, _ZL28__gthrw___pthread_key_createPjPFvPvE@GOTPCREL(%rip)
	je	.L874
	lock subl	$1, 8(%rbp)
	je	.L955
.L873:
	movq	56(%rbx), %rbp
	testq	%rbp, %rbp
	je	.L879
	cmpq	$0, _ZL28__gthrw___pthread_key_createPjPFvPvE@GOTPCREL(%rip)
	je	.L880
	lock subl	$1, 8(%rbp)
	je	.L956
.L879:
	movq	40(%rbx), %rbp
	testq	%rbp, %rbp
	je	.L885
	cmpq	$0, _ZL28__gthrw___pthread_key_createPjPFvPvE@GOTPCREL(%rip)
	je	.L886
	lock subl	$1, 8(%rbp)
	je	.L957
.L885:
	movq	24(%rbx), %rdi
	testq	%rdi, %rdi
	je	.L891
	cmpq	$0, _ZL28__gthrw___pthread_key_createPjPFvPvE@GOTPCREL(%rip)
	je	.L892
	movl	$-1, %eax
	lock xaddl	%eax, 12(%rdi)
	cmpl	$1, %eax
	je	.L958
.L891:
	popq	%rbx
	.cfi_remember_state
	.cfi_def_cfa_offset 24
	movq	%r12, %rdi
	movl	$1104, %esi
	popq	%rbp
	.cfi_def_cfa_offset 16
	popq	%r12
	.cfi_def_cfa_offset 8
	jmp	_ZdlPvm@PLT
	.p2align 4,,10
	.p2align 3
.L856:
	.cfi_restore_state
	movl	8(%rbp), %eax
	leal	-1(%rax), %edx
	cmpl	$1, %eax
	movl	%edx, 8(%rbp)
	jne	.L855
	movq	0(%rbp), %rax
	movq	%rbp, %rdi
	call	*16(%rax)
	movl	12(%rbp), %eax
	leal	-1(%rax), %edx
	movl	%edx, 12(%rbp)
	jmp	.L902
	.p2align 4,,10
	.p2align 3
.L892:
	movl	12(%rdi), %eax
	leal	-1(%rax), %edx
	cmpl	$1, %eax
	movl	%edx, 12(%rdi)
	jne	.L891
.L958:
	movq	(%rdi), %rax
	call	*24(%rax)
	jmp	.L891
	.p2align 4,,10
	.p2align 3
.L874:
	movl	8(%rbp), %eax
	leal	-1(%rax), %edx
	cmpl	$1, %eax
	movl	%edx, 8(%rbp)
	jne	.L873
	movq	0(%rbp), %rax
	movq	%rbp, %rdi
	call	*16(%rax)
	movl	12(%rbp), %eax
	leal	-1(%rax), %edx
	movl	%edx, 12(%rbp)
	jmp	.L905
	.p2align 4,,10
	.p2align 3
.L886:
	movl	8(%rbp), %eax
	leal	-1(%rax), %edx
	cmpl	$1, %eax
	movl	%edx, 8(%rbp)
	jne	.L885
	movq	0(%rbp), %rax
	movq	%rbp, %rdi
	call	*16(%rax)
	movl	12(%rbp), %eax
	leal	-1(%rax), %edx
	movl	%edx, 12(%rbp)
	jmp	.L907
	.p2align 4,,10
	.p2align 3
.L832:
	movl	8(%rbp), %eax
	leal	-1(%rax), %edx
	cmpl	$1, %eax
	movl	%edx, 8(%rbp)
	jne	.L831
	movq	0(%rbp), %rax
	movq	%rbp, %rdi
	call	*16(%rax)
	movl	12(%rbp), %eax
	leal	-1(%rax), %edx
	movl	%edx, 12(%rbp)
	jmp	.L898
	.p2align 4,,10
	.p2align 3
.L844:
	movl	8(%rbp), %eax
	leal	-1(%rax), %edx
	cmpl	$1, %eax
	movl	%edx, 8(%rbp)
	jne	.L843
	movq	0(%rbp), %rax
	movq	%rbp, %rdi
	call	*16(%rax)
	movl	12(%rbp), %eax
	leal	-1(%rax), %edx
	movl	%edx, 12(%rbp)
	jmp	.L900
	.p2align 4,,10
	.p2align 3
.L862:
	movl	8(%rbp), %eax
	leal	-1(%rax), %edx
	cmpl	$1, %eax
	movl	%edx, 8(%rbp)
	jne	.L861
	movq	0(%rbp), %rax
	movq	%rbp, %rdi
	call	*16(%rax)
	movl	12(%rbp), %eax
	leal	-1(%rax), %edx
	movl	%edx, 12(%rbp)
	jmp	.L903
	.p2align 4,,10
	.p2align 3
.L880:
	movl	8(%rbp), %eax
	leal	-1(%rax), %edx
	cmpl	$1, %eax
	movl	%edx, 8(%rbp)
	jne	.L879
	movq	0(%rbp), %rax
	movq	%rbp, %rdi
	call	*16(%rax)
	movl	12(%rbp), %eax
	leal	-1(%rax), %edx
	movl	%edx, 12(%rbp)
	jmp	.L906
	.p2align 4,,10
	.p2align 3
.L868:
	movl	8(%rbp), %eax
	leal	-1(%rax), %edx
	cmpl	$1, %eax
	movl	%edx, 8(%rbp)
	jne	.L867
	movq	0(%rbp), %rax
	movq	%rbp, %rdi
	call	*16(%rax)
	movl	12(%rbp), %eax
	leal	-1(%rax), %edx
	movl	%edx, 12(%rbp)
	jmp	.L904
	.p2align 4,,10
	.p2align 3
.L850:
	movl	8(%rbp), %eax
	leal	-1(%rax), %edx
	cmpl	$1, %eax
	movl	%edx, 8(%rbp)
	jne	.L849
	movq	0(%rbp), %rax
	movq	%rbp, %rdi
	call	*16(%rax)
	movl	12(%rbp), %eax
	leal	-1(%rax), %edx
	movl	%edx, 12(%rbp)
	jmp	.L901
	.p2align 4,,10
	.p2align 3
.L838:
	movl	8(%rbp), %eax
	leal	-1(%rax), %edx
	cmpl	$1, %eax
	movl	%edx, 8(%rbp)
	jne	.L837
	movq	0(%rbp), %rax
	movq	%rbp, %rdi
	call	*16(%rax)
	movl	12(%rbp), %eax
	leal	-1(%rax), %edx
	movl	%edx, 12(%rbp)
	jmp	.L899
	.p2align 4,,10
	.p2align 3
.L826:
	movl	8(%rbp), %eax
	leal	-1(%rax), %edx
	cmpl	$1, %eax
	movl	%edx, 8(%rbp)
	jne	.L825
	movq	0(%rbp), %rax
	movq	%rbp, %rdi
	call	*16(%rax)
	movl	12(%rbp), %eax
	leal	-1(%rax), %edx
	movl	%edx, 12(%rbp)
	jmp	.L897
	.p2align 4,,10
	.p2align 3
.L820:
	movl	8(%rbp), %eax
	leal	-1(%rax), %edx
	cmpl	$1, %eax
	movl	%edx, 8(%rbp)
	jne	.L819
	movq	0(%rbp), %rax
	movq	%rbp, %rdi
	call	*16(%rax)
	movl	12(%rbp), %eax
	leal	-1(%rax), %edx
	movl	%edx, 12(%rbp)
	jmp	.L896
	.p2align 4,,10
	.p2align 3
.L814:
	movl	8(%rbp), %eax
	leal	-1(%rax), %edx
	cmpl	$1, %eax
	movl	%edx, 8(%rbp)
	jne	.L813
	movq	0(%rbp), %rax
	movq	%rbp, %rdi
	call	*16(%rax)
	movl	12(%rbp), %eax
	leal	-1(%rax), %edx
	movl	%edx, 12(%rbp)
	jmp	.L895
	.p2align 4,,10
	.p2align 3
.L948:
	movq	0(%rbp), %rax
	movq	%rbp, %rdi
	call	*16(%rax)
	movl	$-1, %eax
	lock xaddl	%eax, 12(%rbp)
.L898:
	cmpl	$1, %eax
	jne	.L831
	movq	0(%rbp), %rax
	movq	%rbp, %rdi
	call	*24(%rax)
	jmp	.L831
	.p2align 4,,10
	.p2align 3
.L950:
	movq	0(%rbp), %rax
	movq	%rbp, %rdi
	call	*16(%rax)
	movl	$-1, %eax
	lock xaddl	%eax, 12(%rbp)
.L900:
	cmpl	$1, %eax
	jne	.L843
	movq	0(%rbp), %rax
	movq	%rbp, %rdi
	call	*24(%rax)
	jmp	.L843
	.p2align 4,,10
	.p2align 3
.L952:
	movq	0(%rbp), %rax
	movq	%rbp, %rdi
	call	*16(%rax)
	movl	$-1, %eax
	lock xaddl	%eax, 12(%rbp)
.L902:
	cmpl	$1, %eax
	jne	.L855
	movq	0(%rbp), %rax
	movq	%rbp, %rdi
	call	*24(%rax)
	jmp	.L855
	.p2align 4,,10
	.p2align 3
.L955:
	movq	0(%rbp), %rax
	movq	%rbp, %rdi
	call	*16(%rax)
	movl	$-1, %eax
	lock xaddl	%eax, 12(%rbp)
.L905:
	cmpl	$1, %eax
	jne	.L873
	movq	0(%rbp), %rax
	movq	%rbp, %rdi
	call	*24(%rax)
	jmp	.L873
	.p2align 4,,10
	.p2align 3
.L957:
	movq	0(%rbp), %rax
	movq	%rbp, %rdi
	call	*16(%rax)
	movl	$-1, %eax
	lock xaddl	%eax, 12(%rbp)
.L907:
	cmpl	$1, %eax
	jne	.L885
	movq	0(%rbp), %rax
	movq	%rbp, %rdi
	call	*24(%rax)
	jmp	.L885
	.p2align 4,,10
	.p2align 3
.L949:
	movq	0(%rbp), %rax
	movq	%rbp, %rdi
	call	*16(%rax)
	movl	$-1, %eax
	lock xaddl	%eax, 12(%rbp)
.L899:
	cmpl	$1, %eax
	jne	.L837
	movq	0(%rbp), %rax
	movq	%rbp, %rdi
	call	*24(%rax)
	jmp	.L837
	.p2align 4,,10
	.p2align 3
.L947:
	movq	0(%rbp), %rax
	movq	%rbp, %rdi
	call	*16(%rax)
	movl	$-1, %eax
	lock xaddl	%eax, 12(%rbp)
.L897:
	cmpl	$1, %eax
	jne	.L825
	movq	0(%rbp), %rax
	movq	%rbp, %rdi
	call	*24(%rax)
	jmp	.L825
	.p2align 4,,10
	.p2align 3
.L951:
	movq	0(%rbp), %rax
	movq	%rbp, %rdi
	call	*16(%rax)
	movl	$-1, %eax
	lock xaddl	%eax, 12(%rbp)
.L901:
	cmpl	$1, %eax
	jne	.L849
	movq	0(%rbp), %rax
	movq	%rbp, %rdi
	call	*24(%rax)
	jmp	.L849
	.p2align 4,,10
	.p2align 3
.L953:
	movq	0(%rbp), %rax
	movq	%rbp, %rdi
	call	*16(%rax)
	movl	$-1, %eax
	lock xaddl	%eax, 12(%rbp)
.L903:
	cmpl	$1, %eax
	jne	.L861
	movq	0(%rbp), %rax
	movq	%rbp, %rdi
	call	*24(%rax)
	jmp	.L861
	.p2align 4,,10
	.p2align 3
.L954:
	movq	0(%rbp), %rax
	movq	%rbp, %rdi
	call	*16(%rax)
	movl	$-1, %eax
	lock xaddl	%eax, 12(%rbp)
.L904:
	cmpl	$1, %eax
	jne	.L867
	movq	0(%rbp), %rax
	movq	%rbp, %rdi
	call	*24(%rax)
	jmp	.L867
	.p2align 4,,10
	.p2align 3
.L956:
	movq	0(%rbp), %rax
	movq	%rbp, %rdi
	call	*16(%rax)
	movl	$-1, %eax
	lock xaddl	%eax, 12(%rbp)
.L906:
	cmpl	$1, %eax
	jne	.L879
	movq	0(%rbp), %rax
	movq	%rbp, %rdi
	call	*24(%rax)
	jmp	.L879
	.p2align 4,,10
	.p2align 3
.L945:
	movq	0(%rbp), %rax
	movq	%rbp, %rdi
	call	*16(%rax)
	movl	$-1, %eax
	lock xaddl	%eax, 12(%rbp)
.L895:
	cmpl	$1, %eax
	jne	.L813
	movq	0(%rbp), %rax
	movq	%rbp, %rdi
	call	*24(%rax)
	jmp	.L813
	.p2align 4,,10
	.p2align 3
.L946:
	movq	0(%rbp), %rax
	movq	%rbp, %rdi
	call	*16(%rax)
	movl	$-1, %eax
	lock xaddl	%eax, 12(%rbp)
.L896:
	cmpl	$1, %eax
	jne	.L819
	movq	0(%rbp), %rax
	movq	%rbp, %rdi
	call	*24(%rax)
	jmp	.L819
	.cfi_endproc
.LFE11989:
	.size	_ZThn8_N8asiodnp315OutstationStackD0Ev, .-_ZThn8_N8asiodnp315OutstationStackD0Ev
	.align 2
	.p2align 4,,15
	.weak	_ZN8asiodnp315OutstationStackD0Ev
	.type	_ZN8asiodnp315OutstationStackD0Ev, @function
_ZN8asiodnp315OutstationStackD0Ev:
.LFB11535:
	.cfi_startproc
	pushq	%rbp
	.cfi_def_cfa_offset 16
	.cfi_offset 6, -16
	pushq	%rbx
	.cfi_def_cfa_offset 24
	.cfi_offset 3, -24
	movq	%rdi, %rbx
	subq	$8, %rsp
	.cfi_def_cfa_offset 32
	movq	_ZTVN8asiodnp315OutstationStackE@GOTPCREL(%rip), %rax
	movq	_ZTVN7openpal5ArrayIhjEE@GOTPCREL(%rip), %rbp
	leaq	16(%rax), %rdx
	movq	%rdx, (%rdi)
	leaq	144(%rax), %rdx
	addq	$208, %rax
	movq	%rax, 16(%rdi)
	movq	_ZTVN8opendnp38OContextE@GOTPCREL(%rip), %rax
	movq	%rdx, 8(%rdi)
	addq	$16, %rax
	movq	%rax, 152(%rdi)
	leaq	16(%rbp), %rax
	movq	%rax, 1072(%rdi)
	movq	1088(%rdi), %rdi
	testq	%rdi, %rdi
	je	.L960
	call	_ZdaPv@PLT
.L960:
	movq	1032(%rbx), %rdi
	leaq	16(%rbp), %rax
	movq	%rax, 1016(%rbx)
	testq	%rdi, %rdi
	je	.L961
	call	_ZdaPv@PLT
.L961:
	movq	952(%rbx), %rdi
	leaq	16(%rbp), %rax
	movq	%rax, 936(%rbx)
	testq	%rdi, %rdi
	je	.L962
	call	_ZdaPv@PLT
.L962:
	leaq	880(%rbx), %rdi
	call	_ZN7openpal8TimerRefD1Ev@PLT
	movq	_ZTVN8opendnp38DatabaseE@GOTPCREL(%rip), %rax
	movq	744(%rbx), %rdi
	addq	$16, %rax
	movq	%rax, 512(%rbx)
	movq	_ZTVN8opendnp315DatabaseBuffersE@GOTPCREL(%rip), %rax
	leaq	16(%rax), %rdx
	movq	%rdx, 536(%rbx)
	leaq	88(%rax), %rdx
	addq	$120, %rax
	movq	%rax, 552(%rbx)
	movq	_ZTVN7openpal5ArrayIN8opendnp34CellINS1_19TimeAndIntervalSpecEEEtEE@GOTPCREL(%rip), %rax
	movq	%rdx, 544(%rbx)
	addq	$16, %rax
	testq	%rdi, %rdi
	movq	%rax, 728(%rbx)
	je	.L963
	call	_ZdaPv@PLT
.L963:
	movq	_ZTVN7openpal5ArrayIN8opendnp34CellINS1_22AnalogOutputStatusSpecEEEtEE@GOTPCREL(%rip), %rax
	movq	720(%rbx), %rdi
	addq	$16, %rax
	testq	%rdi, %rdi
	movq	%rax, 704(%rbx)
	je	.L964
	call	_ZdaPv@PLT
.L964:
	movq	_ZTVN7openpal5ArrayIN8opendnp34CellINS1_22BinaryOutputStatusSpecEEEtEE@GOTPCREL(%rip), %rax
	movq	696(%rbx), %rdi
	addq	$16, %rax
	testq	%rdi, %rdi
	movq	%rax, 680(%rbx)
	je	.L965
	call	_ZdaPv@PLT
.L965:
	movq	_ZTVN7openpal5ArrayIN8opendnp34CellINS1_17FrozenCounterSpecEEEtEE@GOTPCREL(%rip), %rax
	movq	672(%rbx), %rdi
	addq	$16, %rax
	testq	%rdi, %rdi
	movq	%rax, 656(%rbx)
	je	.L966
	call	_ZdaPv@PLT
.L966:
	movq	_ZTVN7openpal5ArrayIN8opendnp34CellINS1_11CounterSpecEEEtEE@GOTPCREL(%rip), %rax
	movq	648(%rbx), %rdi
	addq	$16, %rax
	testq	%rdi, %rdi
	movq	%rax, 632(%rbx)
	je	.L967
	call	_ZdaPv@PLT
.L967:
	movq	_ZTVN7openpal5ArrayIN8opendnp34CellINS1_10AnalogSpecEEEtEE@GOTPCREL(%rip), %rax
	movq	624(%rbx), %rdi
	addq	$16, %rax
	testq	%rdi, %rdi
	movq	%rax, 608(%rbx)
	je	.L968
	call	_ZdaPv@PLT
.L968:
	movq	_ZTVN7openpal5ArrayIN8opendnp34CellINS1_19DoubleBitBinarySpecEEEtEE@GOTPCREL(%rip), %rax
	movq	600(%rbx), %rdi
	addq	$16, %rax
	testq	%rdi, %rdi
	movq	%rax, 584(%rbx)
	je	.L969
	call	_ZdaPv@PLT
.L969:
	movq	_ZTVN7openpal5ArrayIN8opendnp34CellINS1_10BinarySpecEEEtEE@GOTPCREL(%rip), %rax
	movq	576(%rbx), %rdi
	addq	$16, %rax
	testq	%rdi, %rdi
	movq	%rax, 560(%rbx)
	je	.L970
	call	_ZdaPv@PLT
.L970:
	movq	_ZTVN8opendnp311EventBufferE@GOTPCREL(%rip), %rax
	movq	360(%rbx), %rdi
	leaq	16(%rax), %rdx
	movq	%rdx, 256(%rbx)
	leaq	160(%rax), %rdx
	movq	%rdx, 264(%rbx)
	leaq	192(%rax), %rdx
	addq	$224, %rax
	movq	%rax, 280(%rbx)
	movq	_ZTVN7openpal5ArrayINS_8ListNodeIN8opendnp39SOERecordEEEjEE@GOTPCREL(%rip), %rax
	movq	%rdx, 272(%rbx)
	addq	$16, %rax
	testq	%rdi, %rdi
	movq	%rax, 344(%rbx)
	je	.L971
	call	_ZdaPv@PLT
.L971:
	movq	248(%rbx), %rbp
	testq	%rbp, %rbp
	je	.L973
	cmpq	$0, _ZL28__gthrw___pthread_key_createPjPFvPvE@GOTPCREL(%rip)
	je	.L974
	lock subl	$1, 8(%rbp)
	je	.L1105
.L973:
	movq	232(%rbx), %rbp
	testq	%rbp, %rbp
	je	.L979
	cmpq	$0, _ZL28__gthrw___pthread_key_createPjPFvPvE@GOTPCREL(%rip)
	je	.L980
	lock subl	$1, 8(%rbp)
	je	.L1106
.L979:
	movq	216(%rbx), %rbp
	testq	%rbp, %rbp
	je	.L985
	cmpq	$0, _ZL28__gthrw___pthread_key_createPjPFvPvE@GOTPCREL(%rip)
	je	.L986
	lock subl	$1, 8(%rbp)
	je	.L1107
.L985:
	movq	200(%rbx), %rbp
	testq	%rbp, %rbp
	je	.L991
	cmpq	$0, _ZL28__gthrw___pthread_key_createPjPFvPvE@GOTPCREL(%rip)
	je	.L992
	lock subl	$1, 8(%rbp)
	je	.L1108
.L991:
	movq	184(%rbx), %rbp
	testq	%rbp, %rbp
	je	.L997
	cmpq	$0, _ZL28__gthrw___pthread_key_createPjPFvPvE@GOTPCREL(%rip)
	je	.L998
	lock subl	$1, 8(%rbp)
	je	.L1109
.L997:
	movq	168(%rbx), %rbp
	testq	%rbp, %rbp
	je	.L1003
	cmpq	$0, _ZL28__gthrw___pthread_key_createPjPFvPvE@GOTPCREL(%rip)
	je	.L1004
	lock subl	$1, 8(%rbp)
	je	.L1110
.L1003:
	movq	144(%rbx), %rbp
	testq	%rbp, %rbp
	je	.L1009
	cmpq	$0, _ZL28__gthrw___pthread_key_createPjPFvPvE@GOTPCREL(%rip)
	je	.L1010
	lock subl	$1, 8(%rbp)
	je	.L1111
.L1009:
	movq	128(%rbx), %rbp
	testq	%rbp, %rbp
	je	.L1015
	cmpq	$0, _ZL28__gthrw___pthread_key_createPjPFvPvE@GOTPCREL(%rip)
	je	.L1016
	lock subl	$1, 8(%rbp)
	je	.L1112
.L1015:
	movq	112(%rbx), %rbp
	testq	%rbp, %rbp
	je	.L1021
	cmpq	$0, _ZL28__gthrw___pthread_key_createPjPFvPvE@GOTPCREL(%rip)
	je	.L1022
	lock subl	$1, 8(%rbp)
	je	.L1113
.L1021:
	movq	96(%rbx), %rbp
	testq	%rbp, %rbp
	je	.L1027
	cmpq	$0, _ZL28__gthrw___pthread_key_createPjPFvPvE@GOTPCREL(%rip)
	je	.L1028
	lock subl	$1, 8(%rbp)
	je	.L1114
.L1027:
	movq	80(%rbx), %rbp
	testq	%rbp, %rbp
	je	.L1033
	cmpq	$0, _ZL28__gthrw___pthread_key_createPjPFvPvE@GOTPCREL(%rip)
	je	.L1034
	lock subl	$1, 8(%rbp)
	je	.L1115
.L1033:
	movq	64(%rbx), %rbp
	testq	%rbp, %rbp
	je	.L1039
	cmpq	$0, _ZL28__gthrw___pthread_key_createPjPFvPvE@GOTPCREL(%rip)
	je	.L1040
	lock subl	$1, 8(%rbp)
	je	.L1116
.L1039:
	movq	48(%rbx), %rbp
	testq	%rbp, %rbp
	je	.L1045
	cmpq	$0, _ZL28__gthrw___pthread_key_createPjPFvPvE@GOTPCREL(%rip)
	je	.L1046
	lock subl	$1, 8(%rbp)
	je	.L1117
.L1045:
	movq	32(%rbx), %rdi
	testq	%rdi, %rdi
	je	.L1051
	cmpq	$0, _ZL28__gthrw___pthread_key_createPjPFvPvE@GOTPCREL(%rip)
	je	.L1052
	movl	$-1, %eax
	lock xaddl	%eax, 12(%rdi)
	cmpl	$1, %eax
	je	.L1118
.L1051:
	addq	$8, %rsp
	.cfi_remember_state
	.cfi_def_cfa_offset 24
	movq	%rbx, %rdi
	movl	$1104, %esi
	popq	%rbx
	.cfi_def_cfa_offset 16
	popq	%rbp
	.cfi_def_cfa_offset 8
	jmp	_ZdlPvm@PLT
	.p2align 4,,10
	.p2align 3
.L1016:
	.cfi_restore_state
	movl	8(%rbp), %eax
	leal	-1(%rax), %edx
	cmpl	$1, %eax
	movl	%edx, 8(%rbp)
	jne	.L1015
	movq	0(%rbp), %rax
	movq	%rbp, %rdi
	call	*16(%rax)
	movl	12(%rbp), %eax
	leal	-1(%rax), %edx
	movl	%edx, 12(%rbp)
	jmp	.L1062
	.p2align 4,,10
	.p2align 3
.L1052:
	movl	12(%rdi), %eax
	leal	-1(%rax), %edx
	cmpl	$1, %eax
	movl	%edx, 12(%rdi)
	jne	.L1051
.L1118:
	movq	(%rdi), %rax
	call	*24(%rax)
	jmp	.L1051
	.p2align 4,,10
	.p2align 3
.L1034:
	movl	8(%rbp), %eax
	leal	-1(%rax), %edx
	cmpl	$1, %eax
	movl	%edx, 8(%rbp)
	jne	.L1033
	movq	0(%rbp), %rax
	movq	%rbp, %rdi
	call	*16(%rax)
	movl	12(%rbp), %eax
	leal	-1(%rax), %edx
	movl	%edx, 12(%rbp)
	jmp	.L1065
	.p2align 4,,10
	.p2align 3
.L1046:
	movl	8(%rbp), %eax
	leal	-1(%rax), %edx
	cmpl	$1, %eax
	movl	%edx, 8(%rbp)
	jne	.L1045
	movq	0(%rbp), %rax
	movq	%rbp, %rdi
	call	*16(%rax)
	movl	12(%rbp), %eax
	leal	-1(%rax), %edx
	movl	%edx, 12(%rbp)
	jmp	.L1067
	.p2align 4,,10
	.p2align 3
.L992:
	movl	8(%rbp), %eax
	leal	-1(%rax), %edx
	cmpl	$1, %eax
	movl	%edx, 8(%rbp)
	jne	.L991
	movq	0(%rbp), %rax
	movq	%rbp, %rdi
	call	*16(%rax)
	movl	12(%rbp), %eax
	leal	-1(%rax), %edx
	movl	%edx, 12(%rbp)
	jmp	.L1058
	.p2align 4,,10
	.p2align 3
.L1004:
	movl	8(%rbp), %eax
	leal	-1(%rax), %edx
	cmpl	$1, %eax
	movl	%edx, 8(%rbp)
	jne	.L1003
	movq	0(%rbp), %rax
	movq	%rbp, %rdi
	call	*16(%rax)
	movl	12(%rbp), %eax
	leal	-1(%rax), %edx
	movl	%edx, 12(%rbp)
	jmp	.L1060
	.p2align 4,,10
	.p2align 3
.L1022:
	movl	8(%rbp), %eax
	leal	-1(%rax), %edx
	cmpl	$1, %eax
	movl	%edx, 8(%rbp)
	jne	.L1021
	movq	0(%rbp), %rax
	movq	%rbp, %rdi
	call	*16(%rax)
	movl	12(%rbp), %eax
	leal	-1(%rax), %edx
	movl	%edx, 12(%rbp)
	jmp	.L1063
	.p2align 4,,10
	.p2align 3
.L1040:
	movl	8(%rbp), %eax
	leal	-1(%rax), %edx
	cmpl	$1, %eax
	movl	%edx, 8(%rbp)
	jne	.L1039
	movq	0(%rbp), %rax
	movq	%rbp, %rdi
	call	*16(%rax)
	movl	12(%rbp), %eax
	leal	-1(%rax), %edx
	movl	%edx, 12(%rbp)
	jmp	.L1066
	.p2align 4,,10
	.p2align 3
.L1028:
	movl	8(%rbp), %eax
	leal	-1(%rax), %edx
	cmpl	$1, %eax
	movl	%edx, 8(%rbp)
	jne	.L1027
	movq	0(%rbp), %rax
	movq	%rbp, %rdi
	call	*16(%rax)
	movl	12(%rbp), %eax
	leal	-1(%rax), %edx
	movl	%edx, 12(%rbp)
	jmp	.L1064
	.p2align 4,,10
	.p2align 3
.L1010:
	movl	8(%rbp), %eax
	leal	-1(%rax), %edx
	cmpl	$1, %eax
	movl	%edx, 8(%rbp)
	jne	.L1009
	movq	0(%rbp), %rax
	movq	%rbp, %rdi
	call	*16(%rax)
	movl	12(%rbp), %eax
	leal	-1(%rax), %edx
	movl	%edx, 12(%rbp)
	jmp	.L1061
	.p2align 4,,10
	.p2align 3
.L998:
	movl	8(%rbp), %eax
	leal	-1(%rax), %edx
	cmpl	$1, %eax
	movl	%edx, 8(%rbp)
	jne	.L997
	movq	0(%rbp), %rax
	movq	%rbp, %rdi
	call	*16(%rax)
	movl	12(%rbp), %eax
	leal	-1(%rax), %edx
	movl	%edx, 12(%rbp)
	jmp	.L1059
	.p2align 4,,10
	.p2align 3
.L986:
	movl	8(%rbp), %eax
	leal	-1(%rax), %edx
	cmpl	$1, %eax
	movl	%edx, 8(%rbp)
	jne	.L985
	movq	0(%rbp), %rax
	movq	%rbp, %rdi
	call	*16(%rax)
	movl	12(%rbp), %eax
	leal	-1(%rax), %edx
	movl	%edx, 12(%rbp)
	jmp	.L1057
	.p2align 4,,10
	.p2align 3
.L980:
	movl	8(%rbp), %eax
	leal	-1(%rax), %edx
	cmpl	$1, %eax
	movl	%edx, 8(%rbp)
	jne	.L979
	movq	0(%rbp), %rax
	movq	%rbp, %rdi
	call	*16(%rax)
	movl	12(%rbp), %eax
	leal	-1(%rax), %edx
	movl	%edx, 12(%rbp)
	jmp	.L1056
	.p2align 4,,10
	.p2align 3
.L974:
	movl	8(%rbp), %eax
	leal	-1(%rax), %edx
	cmpl	$1, %eax
	movl	%edx, 8(%rbp)
	jne	.L973
	movq	0(%rbp), %rax
	movq	%rbp, %rdi
	call	*16(%rax)
	movl	12(%rbp), %eax
	leal	-1(%rax), %edx
	movl	%edx, 12(%rbp)
	jmp	.L1055
	.p2align 4,,10
	.p2align 3
.L1108:
	movq	0(%rbp), %rax
	movq	%rbp, %rdi
	call	*16(%rax)
	movl	$-1, %eax
	lock xaddl	%eax, 12(%rbp)
.L1058:
	cmpl	$1, %eax
	jne	.L991
	movq	0(%rbp), %rax
	movq	%rbp, %rdi
	call	*24(%rax)
	jmp	.L991
	.p2align 4,,10
	.p2align 3
.L1110:
	movq	0(%rbp), %rax
	movq	%rbp, %rdi
	call	*16(%rax)
	movl	$-1, %eax
	lock xaddl	%eax, 12(%rbp)
.L1060:
	cmpl	$1, %eax
	jne	.L1003
	movq	0(%rbp), %rax
	movq	%rbp, %rdi
	call	*24(%rax)
	jmp	.L1003
	.p2align 4,,10
	.p2align 3
.L1112:
	movq	0(%rbp), %rax
	movq	%rbp, %rdi
	call	*16(%rax)
	movl	$-1, %eax
	lock xaddl	%eax, 12(%rbp)
.L1062:
	cmpl	$1, %eax
	jne	.L1015
	movq	0(%rbp), %rax
	movq	%rbp, %rdi
	call	*24(%rax)
	jmp	.L1015
	.p2align 4,,10
	.p2align 3
.L1115:
	movq	0(%rbp), %rax
	movq	%rbp, %rdi
	call	*16(%rax)
	movl	$-1, %eax
	lock xaddl	%eax, 12(%rbp)
.L1065:
	cmpl	$1, %eax
	jne	.L1033
	movq	0(%rbp), %rax
	movq	%rbp, %rdi
	call	*24(%rax)
	jmp	.L1033
	.p2align 4,,10
	.p2align 3
.L1117:
	movq	0(%rbp), %rax
	movq	%rbp, %rdi
	call	*16(%rax)
	movl	$-1, %eax
	lock xaddl	%eax, 12(%rbp)
.L1067:
	cmpl	$1, %eax
	jne	.L1045
	movq	0(%rbp), %rax
	movq	%rbp, %rdi
	call	*24(%rax)
	jmp	.L1045
	.p2align 4,,10
	.p2align 3
.L1109:
	movq	0(%rbp), %rax
	movq	%rbp, %rdi
	call	*16(%rax)
	movl	$-1, %eax
	lock xaddl	%eax, 12(%rbp)
.L1059:
	cmpl	$1, %eax
	jne	.L997
	movq	0(%rbp), %rax
	movq	%rbp, %rdi
	call	*24(%rax)
	jmp	.L997
	.p2align 4,,10
	.p2align 3
.L1107:
	movq	0(%rbp), %rax
	movq	%rbp, %rdi
	call	*16(%rax)
	movl	$-1, %eax
	lock xaddl	%eax, 12(%rbp)
.L1057:
	cmpl	$1, %eax
	jne	.L985
	movq	0(%rbp), %rax
	movq	%rbp, %rdi
	call	*24(%rax)
	jmp	.L985
	.p2align 4,,10
	.p2align 3
.L1111:
	movq	0(%rbp), %rax
	movq	%rbp, %rdi
	call	*16(%rax)
	movl	$-1, %eax
	lock xaddl	%eax, 12(%rbp)
.L1061:
	cmpl	$1, %eax
	jne	.L1009
	movq	0(%rbp), %rax
	movq	%rbp, %rdi
	call	*24(%rax)
	jmp	.L1009
	.p2align 4,,10
	.p2align 3
.L1113:
	movq	0(%rbp), %rax
	movq	%rbp, %rdi
	call	*16(%rax)
	movl	$-1, %eax
	lock xaddl	%eax, 12(%rbp)
.L1063:
	cmpl	$1, %eax
	jne	.L1021
	movq	0(%rbp), %rax
	movq	%rbp, %rdi
	call	*24(%rax)
	jmp	.L1021
	.p2align 4,,10
	.p2align 3
.L1114:
	movq	0(%rbp), %rax
	movq	%rbp, %rdi
	call	*16(%rax)
	movl	$-1, %eax
	lock xaddl	%eax, 12(%rbp)
.L1064:
	cmpl	$1, %eax
	jne	.L1027
	movq	0(%rbp), %rax
	movq	%rbp, %rdi
	call	*24(%rax)
	jmp	.L1027
	.p2align 4,,10
	.p2align 3
.L1116:
	movq	0(%rbp), %rax
	movq	%rbp, %rdi
	call	*16(%rax)
	movl	$-1, %eax
	lock xaddl	%eax, 12(%rbp)
.L1066:
	cmpl	$1, %eax
	jne	.L1039
	movq	0(%rbp), %rax
	movq	%rbp, %rdi
	call	*24(%rax)
	jmp	.L1039
	.p2align 4,,10
	.p2align 3
.L1105:
	movq	0(%rbp), %rax
	movq	%rbp, %rdi
	call	*16(%rax)
	movl	$-1, %eax
	lock xaddl	%eax, 12(%rbp)
.L1055:
	cmpl	$1, %eax
	jne	.L973
	movq	0(%rbp), %rax
	movq	%rbp, %rdi
	call	*24(%rax)
	jmp	.L973
	.p2align 4,,10
	.p2align 3
.L1106:
	movq	0(%rbp), %rax
	movq	%rbp, %rdi
	call	*16(%rax)
	movl	$-1, %eax
	lock xaddl	%eax, 12(%rbp)
.L1056:
	cmpl	$1, %eax
	jne	.L979
	movq	0(%rbp), %rax
	movq	%rbp, %rdi
	call	*24(%rax)
	jmp	.L979
	.cfi_endproc
.LFE11535:
	.size	_ZN8asiodnp315OutstationStackD0Ev, .-_ZN8asiodnp315OutstationStackD0Ev
	.section	.text._ZN8asiodnp315OutstationStackD2Ev,"axG",@progbits,_ZN8asiodnp315OutstationStackD5Ev,comdat
	.align 2
	.p2align 4,,15
	.weak	_ZN8asiodnp315OutstationStackD2Ev
	.type	_ZN8asiodnp315OutstationStackD2Ev, @function
_ZN8asiodnp315OutstationStackD2Ev:
.LFB11533:
	.cfi_startproc
	pushq	%rbp
	.cfi_def_cfa_offset 16
	.cfi_offset 6, -16
	pushq	%rbx
	.cfi_def_cfa_offset 24
	.cfi_offset 3, -24
	movq	%rdi, %rbx
	subq	$8, %rsp
	.cfi_def_cfa_offset 32
	movq	_ZTVN8asiodnp315OutstationStackE@GOTPCREL(%rip), %rax
	movq	_ZTVN7openpal5ArrayIhjEE@GOTPCREL(%rip), %rbp
	leaq	16(%rax), %rdx
	movq	%rdx, (%rdi)
	leaq	144(%rax), %rdx
	addq	$208, %rax
	movq	%rax, 16(%rdi)
	movq	_ZTVN8opendnp38OContextE@GOTPCREL(%rip), %rax
	movq	%rdx, 8(%rdi)
	addq	$16, %rax
	movq	%rax, 152(%rdi)
	leaq	16(%rbp), %rax
	movq	%rax, 1072(%rdi)
	movq	1088(%rdi), %rdi
	testq	%rdi, %rdi
	je	.L1120
	call	_ZdaPv@PLT
.L1120:
	movq	1032(%rbx), %rdi
	leaq	16(%rbp), %rax
	movq	%rax, 1016(%rbx)
	testq	%rdi, %rdi
	je	.L1121
	call	_ZdaPv@PLT
.L1121:
	movq	952(%rbx), %rdi
	leaq	16(%rbp), %rax
	movq	%rax, 936(%rbx)
	testq	%rdi, %rdi
	je	.L1122
	call	_ZdaPv@PLT
.L1122:
	leaq	880(%rbx), %rdi
	call	_ZN7openpal8TimerRefD1Ev@PLT
	movq	_ZTVN8opendnp38DatabaseE@GOTPCREL(%rip), %rax
	movq	744(%rbx), %rdi
	addq	$16, %rax
	movq	%rax, 512(%rbx)
	movq	_ZTVN8opendnp315DatabaseBuffersE@GOTPCREL(%rip), %rax
	leaq	16(%rax), %rdx
	movq	%rdx, 536(%rbx)
	leaq	88(%rax), %rdx
	addq	$120, %rax
	movq	%rax, 552(%rbx)
	movq	_ZTVN7openpal5ArrayIN8opendnp34CellINS1_19TimeAndIntervalSpecEEEtEE@GOTPCREL(%rip), %rax
	movq	%rdx, 544(%rbx)
	addq	$16, %rax
	testq	%rdi, %rdi
	movq	%rax, 728(%rbx)
	je	.L1123
	call	_ZdaPv@PLT
.L1123:
	movq	_ZTVN7openpal5ArrayIN8opendnp34CellINS1_22AnalogOutputStatusSpecEEEtEE@GOTPCREL(%rip), %rax
	movq	720(%rbx), %rdi
	addq	$16, %rax
	testq	%rdi, %rdi
	movq	%rax, 704(%rbx)
	je	.L1124
	call	_ZdaPv@PLT
.L1124:
	movq	_ZTVN7openpal5ArrayIN8opendnp34CellINS1_22BinaryOutputStatusSpecEEEtEE@GOTPCREL(%rip), %rax
	movq	696(%rbx), %rdi
	addq	$16, %rax
	testq	%rdi, %rdi
	movq	%rax, 680(%rbx)
	je	.L1125
	call	_ZdaPv@PLT
.L1125:
	movq	_ZTVN7openpal5ArrayIN8opendnp34CellINS1_17FrozenCounterSpecEEEtEE@GOTPCREL(%rip), %rax
	movq	672(%rbx), %rdi
	addq	$16, %rax
	testq	%rdi, %rdi
	movq	%rax, 656(%rbx)
	je	.L1126
	call	_ZdaPv@PLT
.L1126:
	movq	_ZTVN7openpal5ArrayIN8opendnp34CellINS1_11CounterSpecEEEtEE@GOTPCREL(%rip), %rax
	movq	648(%rbx), %rdi
	addq	$16, %rax
	testq	%rdi, %rdi
	movq	%rax, 632(%rbx)
	je	.L1127
	call	_ZdaPv@PLT
.L1127:
	movq	_ZTVN7openpal5ArrayIN8opendnp34CellINS1_10AnalogSpecEEEtEE@GOTPCREL(%rip), %rax
	movq	624(%rbx), %rdi
	addq	$16, %rax
	testq	%rdi, %rdi
	movq	%rax, 608(%rbx)
	je	.L1128
	call	_ZdaPv@PLT
.L1128:
	movq	_ZTVN7openpal5ArrayIN8opendnp34CellINS1_19DoubleBitBinarySpecEEEtEE@GOTPCREL(%rip), %rax
	movq	600(%rbx), %rdi
	addq	$16, %rax
	testq	%rdi, %rdi
	movq	%rax, 584(%rbx)
	je	.L1129
	call	_ZdaPv@PLT
.L1129:
	movq	_ZTVN7openpal5ArrayIN8opendnp34CellINS1_10BinarySpecEEEtEE@GOTPCREL(%rip), %rax
	movq	576(%rbx), %rdi
	addq	$16, %rax
	testq	%rdi, %rdi
	movq	%rax, 560(%rbx)
	je	.L1130
	call	_ZdaPv@PLT
.L1130:
	movq	_ZTVN8opendnp311EventBufferE@GOTPCREL(%rip), %rax
	movq	360(%rbx), %rdi
	leaq	16(%rax), %rdx
	movq	%rdx, 256(%rbx)
	leaq	160(%rax), %rdx
	movq	%rdx, 264(%rbx)
	leaq	192(%rax), %rdx
	addq	$224, %rax
	movq	%rax, 280(%rbx)
	movq	_ZTVN7openpal5ArrayINS_8ListNodeIN8opendnp39SOERecordEEEjEE@GOTPCREL(%rip), %rax
	movq	%rdx, 272(%rbx)
	addq	$16, %rax
	testq	%rdi, %rdi
	movq	%rax, 344(%rbx)
	je	.L1131
	call	_ZdaPv@PLT
.L1131:
	movq	248(%rbx), %rbp
	testq	%rbp, %rbp
	je	.L1133
	cmpq	$0, _ZL28__gthrw___pthread_key_createPjPFvPvE@GOTPCREL(%rip)
	je	.L1134
	lock subl	$1, 8(%rbp)
	je	.L1265
.L1133:
	movq	232(%rbx), %rbp
	testq	%rbp, %rbp
	je	.L1139
	cmpq	$0, _ZL28__gthrw___pthread_key_createPjPFvPvE@GOTPCREL(%rip)
	je	.L1140
	lock subl	$1, 8(%rbp)
	je	.L1266
.L1139:
	movq	216(%rbx), %rbp
	testq	%rbp, %rbp
	je	.L1145
	cmpq	$0, _ZL28__gthrw___pthread_key_createPjPFvPvE@GOTPCREL(%rip)
	je	.L1146
	lock subl	$1, 8(%rbp)
	je	.L1267
.L1145:
	movq	200(%rbx), %rbp
	testq	%rbp, %rbp
	je	.L1151
	cmpq	$0, _ZL28__gthrw___pthread_key_createPjPFvPvE@GOTPCREL(%rip)
	je	.L1152
	lock subl	$1, 8(%rbp)
	je	.L1268
.L1151:
	movq	184(%rbx), %rbp
	testq	%rbp, %rbp
	je	.L1157
	cmpq	$0, _ZL28__gthrw___pthread_key_createPjPFvPvE@GOTPCREL(%rip)
	je	.L1158
	lock subl	$1, 8(%rbp)
	je	.L1269
.L1157:
	movq	168(%rbx), %rbp
	testq	%rbp, %rbp
	je	.L1163
	cmpq	$0, _ZL28__gthrw___pthread_key_createPjPFvPvE@GOTPCREL(%rip)
	je	.L1164
	lock subl	$1, 8(%rbp)
	je	.L1270
.L1163:
	movq	144(%rbx), %rbp
	testq	%rbp, %rbp
	je	.L1169
	cmpq	$0, _ZL28__gthrw___pthread_key_createPjPFvPvE@GOTPCREL(%rip)
	je	.L1170
	lock subl	$1, 8(%rbp)
	je	.L1271
.L1169:
	movq	128(%rbx), %rbp
	testq	%rbp, %rbp
	je	.L1175
	cmpq	$0, _ZL28__gthrw___pthread_key_createPjPFvPvE@GOTPCREL(%rip)
	je	.L1176
	lock subl	$1, 8(%rbp)
	je	.L1272
.L1175:
	movq	112(%rbx), %rbp
	testq	%rbp, %rbp
	je	.L1181
	cmpq	$0, _ZL28__gthrw___pthread_key_createPjPFvPvE@GOTPCREL(%rip)
	je	.L1182
	lock subl	$1, 8(%rbp)
	je	.L1273
.L1181:
	movq	96(%rbx), %rbp
	testq	%rbp, %rbp
	je	.L1187
	cmpq	$0, _ZL28__gthrw___pthread_key_createPjPFvPvE@GOTPCREL(%rip)
	je	.L1188
	lock subl	$1, 8(%rbp)
	je	.L1274
.L1187:
	movq	80(%rbx), %rbp
	testq	%rbp, %rbp
	je	.L1193
	cmpq	$0, _ZL28__gthrw___pthread_key_createPjPFvPvE@GOTPCREL(%rip)
	je	.L1194
	lock subl	$1, 8(%rbp)
	je	.L1275
.L1193:
	movq	64(%rbx), %rbp
	testq	%rbp, %rbp
	je	.L1199
	cmpq	$0, _ZL28__gthrw___pthread_key_createPjPFvPvE@GOTPCREL(%rip)
	je	.L1200
	lock subl	$1, 8(%rbp)
	je	.L1276
.L1199:
	movq	48(%rbx), %rbp
	testq	%rbp, %rbp
	je	.L1205
	cmpq	$0, _ZL28__gthrw___pthread_key_createPjPFvPvE@GOTPCREL(%rip)
	je	.L1206
	lock subl	$1, 8(%rbp)
	je	.L1277
.L1205:
	movq	32(%rbx), %rdi
	testq	%rdi, %rdi
	je	.L1119
	cmpq	$0, _ZL28__gthrw___pthread_key_createPjPFvPvE@GOTPCREL(%rip)
	je	.L1212
	movl	$-1, %eax
	lock xaddl	%eax, 12(%rdi)
	cmpl	$1, %eax
	je	.L1278
.L1119:
	addq	$8, %rsp
	.cfi_remember_state
	.cfi_def_cfa_offset 24
	popq	%rbx
	.cfi_def_cfa_offset 16
	popq	%rbp
	.cfi_def_cfa_offset 8
	ret
	.p2align 4,,10
	.p2align 3
.L1176:
	.cfi_restore_state
	movl	8(%rbp), %eax
	leal	-1(%rax), %edx
	cmpl	$1, %eax
	movl	%edx, 8(%rbp)
	jne	.L1175
	movq	0(%rbp), %rax
	movq	%rbp, %rdi
	call	*16(%rax)
	movl	12(%rbp), %eax
	leal	-1(%rax), %edx
	movl	%edx, 12(%rbp)
	jmp	.L1222
	.p2align 4,,10
	.p2align 3
.L1212:
	movl	12(%rdi), %eax
	leal	-1(%rax), %edx
	cmpl	$1, %eax
	movl	%edx, 12(%rdi)
	jne	.L1119
.L1278:
	movq	(%rdi), %rax
	movq	24(%rax), %rax
	addq	$8, %rsp
	.cfi_remember_state
	.cfi_def_cfa_offset 24
	popq	%rbx
	.cfi_def_cfa_offset 16
	popq	%rbp
	.cfi_def_cfa_offset 8
	jmp	*%rax
	.p2align 4,,10
	.p2align 3
.L1194:
	.cfi_restore_state
	movl	8(%rbp), %eax
	leal	-1(%rax), %edx
	cmpl	$1, %eax
	movl	%edx, 8(%rbp)
	jne	.L1193
	movq	0(%rbp), %rax
	movq	%rbp, %rdi
	call	*16(%rax)
	movl	12(%rbp), %eax
	leal	-1(%rax), %edx
	movl	%edx, 12(%rbp)
	jmp	.L1225
	.p2align 4,,10
	.p2align 3
.L1206:
	movl	8(%rbp), %eax
	leal	-1(%rax), %edx
	cmpl	$1, %eax
	movl	%edx, 8(%rbp)
	jne	.L1205
	movq	0(%rbp), %rax
	movq	%rbp, %rdi
	call	*16(%rax)
	movl	12(%rbp), %eax
	leal	-1(%rax), %edx
	movl	%edx, 12(%rbp)
	jmp	.L1227
	.p2align 4,,10
	.p2align 3
.L1152:
	movl	8(%rbp), %eax
	leal	-1(%rax), %edx
	cmpl	$1, %eax
	movl	%edx, 8(%rbp)
	jne	.L1151
	movq	0(%rbp), %rax
	movq	%rbp, %rdi
	call	*16(%rax)
	movl	12(%rbp), %eax
	leal	-1(%rax), %edx
	movl	%edx, 12(%rbp)
	jmp	.L1218
	.p2align 4,,10
	.p2align 3
.L1164:
	movl	8(%rbp), %eax
	leal	-1(%rax), %edx
	cmpl	$1, %eax
	movl	%edx, 8(%rbp)
	jne	.L1163
	movq	0(%rbp), %rax
	movq	%rbp, %rdi
	call	*16(%rax)
	movl	12(%rbp), %eax
	leal	-1(%rax), %edx
	movl	%edx, 12(%rbp)
	jmp	.L1220
	.p2align 4,,10
	.p2align 3
.L1182:
	movl	8(%rbp), %eax
	leal	-1(%rax), %edx
	cmpl	$1, %eax
	movl	%edx, 8(%rbp)
	jne	.L1181
	movq	0(%rbp), %rax
	movq	%rbp, %rdi
	call	*16(%rax)
	movl	12(%rbp), %eax
	leal	-1(%rax), %edx
	movl	%edx, 12(%rbp)
	jmp	.L1223
	.p2align 4,,10
	.p2align 3
.L1200:
	movl	8(%rbp), %eax
	leal	-1(%rax), %edx
	cmpl	$1, %eax
	movl	%edx, 8(%rbp)
	jne	.L1199
	movq	0(%rbp), %rax
	movq	%rbp, %rdi
	call	*16(%rax)
	movl	12(%rbp), %eax
	leal	-1(%rax), %edx
	movl	%edx, 12(%rbp)
	jmp	.L1226
	.p2align 4,,10
	.p2align 3
.L1188:
	movl	8(%rbp), %eax
	leal	-1(%rax), %edx
	cmpl	$1, %eax
	movl	%edx, 8(%rbp)
	jne	.L1187
	movq	0(%rbp), %rax
	movq	%rbp, %rdi
	call	*16(%rax)
	movl	12(%rbp), %eax
	leal	-1(%rax), %edx
	movl	%edx, 12(%rbp)
	jmp	.L1224
	.p2align 4,,10
	.p2align 3
.L1170:
	movl	8(%rbp), %eax
	leal	-1(%rax), %edx
	cmpl	$1, %eax
	movl	%edx, 8(%rbp)
	jne	.L1169
	movq	0(%rbp), %rax
	movq	%rbp, %rdi
	call	*16(%rax)
	movl	12(%rbp), %eax
	leal	-1(%rax), %edx
	movl	%edx, 12(%rbp)
	jmp	.L1221
	.p2align 4,,10
	.p2align 3
.L1158:
	movl	8(%rbp), %eax
	leal	-1(%rax), %edx
	cmpl	$1, %eax
	movl	%edx, 8(%rbp)
	jne	.L1157
	movq	0(%rbp), %rax
	movq	%rbp, %rdi
	call	*16(%rax)
	movl	12(%rbp), %eax
	leal	-1(%rax), %edx
	movl	%edx, 12(%rbp)
	jmp	.L1219
	.p2align 4,,10
	.p2align 3
.L1146:
	movl	8(%rbp), %eax
	leal	-1(%rax), %edx
	cmpl	$1, %eax
	movl	%edx, 8(%rbp)
	jne	.L1145
	movq	0(%rbp), %rax
	movq	%rbp, %rdi
	call	*16(%rax)
	movl	12(%rbp), %eax
	leal	-1(%rax), %edx
	movl	%edx, 12(%rbp)
	jmp	.L1217
	.p2align 4,,10
	.p2align 3
.L1140:
	movl	8(%rbp), %eax
	leal	-1(%rax), %edx
	cmpl	$1, %eax
	movl	%edx, 8(%rbp)
	jne	.L1139
	movq	0(%rbp), %rax
	movq	%rbp, %rdi
	call	*16(%rax)
	movl	12(%rbp), %eax
	leal	-1(%rax), %edx
	movl	%edx, 12(%rbp)
	jmp	.L1216
	.p2align 4,,10
	.p2align 3
.L1134:
	movl	8(%rbp), %eax
	leal	-1(%rax), %edx
	cmpl	$1, %eax
	movl	%edx, 8(%rbp)
	jne	.L1133
	movq	0(%rbp), %rax
	movq	%rbp, %rdi
	call	*16(%rax)
	movl	12(%rbp), %eax
	leal	-1(%rax), %edx
	movl	%edx, 12(%rbp)
	jmp	.L1215
	.p2align 4,,10
	.p2align 3
.L1268:
	movq	0(%rbp), %rax
	movq	%rbp, %rdi
	call	*16(%rax)
	movl	$-1, %eax
	lock xaddl	%eax, 12(%rbp)
.L1218:
	cmpl	$1, %eax
	jne	.L1151
	movq	0(%rbp), %rax
	movq	%rbp, %rdi
	call	*24(%rax)
	jmp	.L1151
	.p2align 4,,10
	.p2align 3
.L1270:
	movq	0(%rbp), %rax
	movq	%rbp, %rdi
	call	*16(%rax)
	movl	$-1, %eax
	lock xaddl	%eax, 12(%rbp)
.L1220:
	cmpl	$1, %eax
	jne	.L1163
	movq	0(%rbp), %rax
	movq	%rbp, %rdi
	call	*24(%rax)
	jmp	.L1163
	.p2align 4,,10
	.p2align 3
.L1272:
	movq	0(%rbp), %rax
	movq	%rbp, %rdi
	call	*16(%rax)
	movl	$-1, %eax
	lock xaddl	%eax, 12(%rbp)
.L1222:
	cmpl	$1, %eax
	jne	.L1175
	movq	0(%rbp), %rax
	movq	%rbp, %rdi
	call	*24(%rax)
	jmp	.L1175
	.p2align 4,,10
	.p2align 3
.L1275:
	movq	0(%rbp), %rax
	movq	%rbp, %rdi
	call	*16(%rax)
	movl	$-1, %eax
	lock xaddl	%eax, 12(%rbp)
.L1225:
	cmpl	$1, %eax
	jne	.L1193
	movq	0(%rbp), %rax
	movq	%rbp, %rdi
	call	*24(%rax)
	jmp	.L1193
	.p2align 4,,10
	.p2align 3
.L1277:
	movq	0(%rbp), %rax
	movq	%rbp, %rdi
	call	*16(%rax)
	movl	$-1, %eax
	lock xaddl	%eax, 12(%rbp)
.L1227:
	cmpl	$1, %eax
	jne	.L1205
	movq	0(%rbp), %rax
	movq	%rbp, %rdi
	call	*24(%rax)
	jmp	.L1205
	.p2align 4,,10
	.p2align 3
.L1269:
	movq	0(%rbp), %rax
	movq	%rbp, %rdi
	call	*16(%rax)
	movl	$-1, %eax
	lock xaddl	%eax, 12(%rbp)
.L1219:
	cmpl	$1, %eax
	jne	.L1157
	movq	0(%rbp), %rax
	movq	%rbp, %rdi
	call	*24(%rax)
	jmp	.L1157
	.p2align 4,,10
	.p2align 3
.L1267:
	movq	0(%rbp), %rax
	movq	%rbp, %rdi
	call	*16(%rax)
	movl	$-1, %eax
	lock xaddl	%eax, 12(%rbp)
.L1217:
	cmpl	$1, %eax
	jne	.L1145
	movq	0(%rbp), %rax
	movq	%rbp, %rdi
	call	*24(%rax)
	jmp	.L1145
	.p2align 4,,10
	.p2align 3
.L1271:
	movq	0(%rbp), %rax
	movq	%rbp, %rdi
	call	*16(%rax)
	movl	$-1, %eax
	lock xaddl	%eax, 12(%rbp)
.L1221:
	cmpl	$1, %eax
	jne	.L1169
	movq	0(%rbp), %rax
	movq	%rbp, %rdi
	call	*24(%rax)
	jmp	.L1169
	.p2align 4,,10
	.p2align 3
.L1273:
	movq	0(%rbp), %rax
	movq	%rbp, %rdi
	call	*16(%rax)
	movl	$-1, %eax
	lock xaddl	%eax, 12(%rbp)
.L1223:
	cmpl	$1, %eax
	jne	.L1181
	movq	0(%rbp), %rax
	movq	%rbp, %rdi
	call	*24(%rax)
	jmp	.L1181
	.p2align 4,,10
	.p2align 3
.L1274:
	movq	0(%rbp), %rax
	movq	%rbp, %rdi
	call	*16(%rax)
	movl	$-1, %eax
	lock xaddl	%eax, 12(%rbp)
.L1224:
	cmpl	$1, %eax
	jne	.L1187
	movq	0(%rbp), %rax
	movq	%rbp, %rdi
	call	*24(%rax)
	jmp	.L1187
	.p2align 4,,10
	.p2align 3
.L1276:
	movq	0(%rbp), %rax
	movq	%rbp, %rdi
	call	*16(%rax)
	movl	$-1, %eax
	lock xaddl	%eax, 12(%rbp)
.L1226:
	cmpl	$1, %eax
	jne	.L1199
	movq	0(%rbp), %rax
	movq	%rbp, %rdi
	call	*24(%rax)
	jmp	.L1199
	.p2align 4,,10
	.p2align 3
.L1265:
	movq	0(%rbp), %rax
	movq	%rbp, %rdi
	call	*16(%rax)
	movl	$-1, %eax
	lock xaddl	%eax, 12(%rbp)
.L1215:
	cmpl	$1, %eax
	jne	.L1133
	movq	0(%rbp), %rax
	movq	%rbp, %rdi
	call	*24(%rax)
	jmp	.L1133
	.p2align 4,,10
	.p2align 3
.L1266:
	movq	0(%rbp), %rax
	movq	%rbp, %rdi
	call	*16(%rax)
	movl	$-1, %eax
	lock xaddl	%eax, 12(%rbp)
.L1216:
	cmpl	$1, %eax
	jne	.L1139
	movq	0(%rbp), %rax
	movq	%rbp, %rdi
	call	*24(%rax)
	jmp	.L1139
	.cfi_endproc
.LFE11533:
	.size	_ZN8asiodnp315OutstationStackD2Ev, .-_ZN8asiodnp315OutstationStackD2Ev
	.weak	_ZN8asiodnp315OutstationStackD1Ev
	.set	_ZN8asiodnp315OutstationStackD1Ev,_ZN8asiodnp315OutstationStackD2Ev
	.text
	.p2align 4,,15
	.type	_ZN4asio6detail18completion_handlerIZN8asiodnp315OutstationStack13SetLogFiltersERKN7openpal10LogFiltersEEUlvE_E11do_completeEPNS0_15task_io_serviceEPNS0_25task_io_service_operationERKSt10error_codem, @function
_ZN4asio6detail18completion_handlerIZN8asiodnp315OutstationStack13SetLogFiltersERKN7openpal10LogFiltersEEUlvE_E11do_completeEPNS0_15task_io_serviceEPNS0_25task_io_service_operationERKSt10error_codem:
.LFB10767:
	.cfi_startproc
	.cfi_personality 0x9b,DW.ref.__gxx_personality_v0
	pushq	%r14
	.cfi_def_cfa_offset 16
	.cfi_offset 14, -16
	pushq	%r13
	.cfi_def_cfa_offset 24
	.cfi_offset 13, -24
	pushq	%r12
	.cfi_def_cfa_offset 32
	.cfi_offset 12, -32
	pushq	%rbp
	.cfi_def_cfa_offset 40
	.cfi_offset 6, -40
	movq	%rdi, %r12
	pushq	%rbx
	.cfi_def_cfa_offset 48
	.cfi_offset 3, -48
	movq	24(%rsi), %r14
	movq	%rsi, %rbx
	movq	32(%rsi), %rbp
	movl	40(%rsi), %r13d
	.byte	0x66
	leaq	_ZN4asio6detail15keyword_tss_ptrINS0_10call_stackINS0_15task_io_serviceENS0_27task_io_service_thread_infoEE7contextEE6value_E@tlsgd(%rip), %rdi
	.value	0x6666
	rex64
	call	__tls_get_addr@PLT
	movq	(%rax), %rax
	testq	%rax, %rax
	je	.L1280
	movq	8(%rax), %rax
	testq	%rax, %rax
	je	.L1280
	cmpq	$0, (%rax)
	je	.L1300
.L1280:
	movq	%rbx, %rdi
	call	_ZdlPv@PLT
.L1281:
	testq	%r12, %r12
	je	.L1282
	movq	56(%r14), %rax
	movl	%r13d, 32(%rax)
	sfence
.L1282:
	testq	%rbp, %rbp
	je	.L1279
	cmpq	$0, _ZL28__gthrw___pthread_key_createPjPFvPvE@GOTPCREL(%rip)
	je	.L1285
	lock subl	$1, 8(%rbp)
	je	.L1301
.L1279:
	popq	%rbx
	.cfi_remember_state
	.cfi_def_cfa_offset 40
	popq	%rbp
	.cfi_def_cfa_offset 32
	popq	%r12
	.cfi_def_cfa_offset 24
	popq	%r13
	.cfi_def_cfa_offset 16
	popq	%r14
	.cfi_def_cfa_offset 8
	ret
	.p2align 4,,10
	.p2align 3
.L1285:
	.cfi_restore_state
	movl	8(%rbp), %eax
	leal	-1(%rax), %edx
	cmpl	$1, %eax
	movl	%edx, 8(%rbp)
	jne	.L1279
	movq	0(%rbp), %rax
	movq	%rbp, %rdi
	call	*16(%rax)
	movl	12(%rbp), %eax
	leal	-1(%rax), %edx
	movl	%edx, 12(%rbp)
	jmp	.L1289
	.p2align 4,,10
	.p2align 3
.L1300:
	movzbl	48(%rbx), %edx
	movb	%dl, (%rbx)
	movq	%rbx, (%rax)
	jmp	.L1281
	.p2align 4,,10
	.p2align 3
.L1301:
	movq	0(%rbp), %rax
	movq	%rbp, %rdi
	call	*16(%rax)
	movl	$-1, %eax
	lock xaddl	%eax, 12(%rbp)
.L1289:
	cmpl	$1, %eax
	jne	.L1279
	movq	0(%rbp), %rax
	movq	%rbp, %rdi
	popq	%rbx
	.cfi_def_cfa_offset 40
	popq	%rbp
	.cfi_def_cfa_offset 32
	popq	%r12
	.cfi_def_cfa_offset 24
	popq	%r13
	.cfi_def_cfa_offset 16
	popq	%r14
	.cfi_def_cfa_offset 8
	movq	24(%rax), %rax
	jmp	*%rax
	.cfi_endproc
.LFE10767:
	.size	_ZN4asio6detail18completion_handlerIZN8asiodnp315OutstationStack13SetLogFiltersERKN7openpal10LogFiltersEEUlvE_E11do_completeEPNS0_15task_io_serviceEPNS0_25task_io_service_operationERKSt10error_codem, .-_ZN4asio6detail18completion_handlerIZN8asiodnp315OutstationStack13SetLogFiltersERKN7openpal10LogFiltersEEUlvE_E11do_completeEPNS0_15task_io_serviceEPNS0_25task_io_service_operationERKSt10error_codem
	.section	.text._ZSt20__throw_bad_weak_ptrv,"axG",@progbits,_ZSt20__throw_bad_weak_ptrv,comdat
	.p2align 4,,15
	.weak	_ZSt20__throw_bad_weak_ptrv
	.type	_ZSt20__throw_bad_weak_ptrv, @function
_ZSt20__throw_bad_weak_ptrv:
.LFB1534:
	.cfi_startproc
	movl	$8, %edi
	subq	$8, %rsp
	.cfi_def_cfa_offset 16
	call	__cxa_allocate_exception@PLT
	movq	_ZTVSt12bad_weak_ptr@GOTPCREL(%rip), %rdx
	movq	_ZTISt12bad_weak_ptr@GOTPCREL(%rip), %rsi
	movq	%rax, %rdi
	addq	$16, %rdx
	movq	%rdx, (%rax)
	movq	_ZNSt12bad_weak_ptrD1Ev@GOTPCREL(%rip), %rdx
	call	__cxa_throw@PLT
	.cfi_endproc
.LFE1534:
	.size	_ZSt20__throw_bad_weak_ptrv, .-_ZSt20__throw_bad_weak_ptrv
	.section	.text._ZN4asio28asio_handler_is_continuationEz,"axG",@progbits,_ZN4asio28asio_handler_is_continuationEz,comdat
	.p2align 4,,15
	.weak	_ZN4asio28asio_handler_is_continuationEz
	.type	_ZN4asio28asio_handler_is_continuationEz, @function
_ZN4asio28asio_handler_is_continuationEz:
.LFB2489:
	.cfi_startproc
	xorl	%eax, %eax
	ret
	.cfi_endproc
.LFE2489:
	.size	_ZN4asio28asio_handler_is_continuationEz, .-_ZN4asio28asio_handler_is_continuationEz
	.section	.text._ZN4asio6detail14strand_service7do_postERPNS1_11strand_implEPNS0_25task_io_service_operationEb,"axG",@progbits,_ZN4asio6detail14strand_service7do_postERPNS1_11strand_implEPNS0_25task_io_service_operationEb,comdat
	.align 2
	.p2align 4,,15
	.weak	_ZN4asio6detail14strand_service7do_postERPNS1_11strand_implEPNS0_25task_io_service_operationEb
	.type	_ZN4asio6detail14strand_service7do_postERPNS1_11strand_implEPNS0_25task_io_service_operationEb, @function
_ZN4asio6detail14strand_service7do_postERPNS1_11strand_implEPNS0_25task_io_service_operationEb:
.LFB6404:
	.cfi_startproc
	pushq	%r13
	.cfi_def_cfa_offset 16
	.cfi_offset 13, -16
	pushq	%r12
	.cfi_def_cfa_offset 24
	.cfi_offset 12, -24
	movq	%rdi, %r13
	pushq	%rbp
	.cfi_def_cfa_offset 32
	.cfi_offset 6, -32
	pushq	%rbx
	.cfi_def_cfa_offset 40
	.cfi_offset 3, -40
	movq	%rsi, %rbp
	movq	%rdx, %rbx
	movl	%ecx, %r12d
	subq	$40, %rsp
	.cfi_def_cfa_offset 80
	movq	%fs:40, %rax
	movq	%rax, 24(%rsp)
	xorl	%eax, %eax
	movq	(%rsi), %rax
	leaq	24(%rax), %rdi
	call	pthread_mutex_lock@PLT
	movq	0(%rbp), %rdi
	cmpb	$0, 64(%rdi)
	je	.L1306
	cmpq	$0, 80(%rdi)
	movq	$0, (%rbx)
	je	.L1307
	movq	80(%rdi), %rax
	movq	%rbx, (%rax)
	movq	%rbx, 80(%rdi)
.L1308:
	addq	$24, %rdi
	call	pthread_mutex_unlock@PLT
.L1305:
	movq	24(%rsp), %rax
	xorq	%fs:40, %rax
	jne	.L1339
	addq	$40, %rsp
	.cfi_remember_state
	.cfi_def_cfa_offset 40
	popq	%rbx
	.cfi_def_cfa_offset 32
	popq	%rbp
	.cfi_def_cfa_offset 24
	popq	%r12
	.cfi_def_cfa_offset 16
	popq	%r13
	.cfi_def_cfa_offset 8
	ret
	.p2align 4,,10
	.p2align 3
.L1307:
	.cfi_restore_state
	movq	%rbx, 80(%rdi)
	movq	%rbx, 72(%rdi)
	jmp	.L1308
	.p2align 4,,10
	.p2align 3
.L1306:
	movb	$1, 64(%rdi)
	movq	0(%rbp), %rax
	leaq	24(%rax), %rdi
	call	pthread_mutex_unlock@PLT
	movq	0(%rbp), %rbp
	movq	$0, (%rbx)
	cmpq	$0, 96(%rbp)
	je	.L1310
	movq	96(%rbp), %rax
	movq	%rbx, (%rax)
	movq	%rbx, 96(%rbp)
.L1311:
	movq	40(%r13), %rbx
	cmpb	$0, 40(%rbx)
	jne	.L1325
	testb	%r12b, %r12b
	je	.L1312
.L1325:
	.byte	0x66
	leaq	_ZN4asio6detail15keyword_tss_ptrINS0_10call_stackINS0_15task_io_serviceENS0_27task_io_service_thread_infoEE7contextEE6value_E@tlsgd(%rip), %rdi
	.value	0x6666
	rex64
	call	__tls_get_addr@PLT
	movq	(%rax), %rax
	testq	%rax, %rax
	jne	.L1336
	jmp	.L1312
	.p2align 4,,10
	.p2align 3
.L1315:
	movq	16(%rax), %rax
	testq	%rax, %rax
	je	.L1312
.L1336:
	cmpq	(%rax), %rbx
	jne	.L1315
	movq	8(%rax), %rax
	testq	%rax, %rax
	je	.L1312
	addq	$1, 24(%rax)
	cmpq	$0, 16(%rax)
	movq	$0, 0(%rbp)
	je	.L1318
	movq	16(%rax), %rdx
	movq	%rbp, (%rdx)
	movq	%rbp, 16(%rax)
	jmp	.L1305
	.p2align 4,,10
	.p2align 3
.L1312:
	lock addq	$1, 184(%rbx)
	leaq	48(%rbx), %r12
	movq	%r12, %rdi
	call	pthread_mutex_lock@PLT
	cmpq	$0, 200(%rbx)
	movq	$0, 0(%rbp)
	je	.L1319
	movq	200(%rbx), %rax
	movq	%rbp, (%rax)
	movq	%rbp, 200(%rbx)
.L1320:
	movq	136(%rbx), %rax
	orq	$1, %rax
	cmpq	$1, %rax
	movq	%rax, 136(%rbx)
	jne	.L1340
	cmpb	$0, 176(%rbx)
	jne	.L1323
	movq	144(%rbx), %rax
	testq	%rax, %rax
	je	.L1323
	leaq	88(%rax), %rdx
	movb	$1, 176(%rbx)
	movl	96(%rax), %edi
	leaq	12(%rsp), %rcx
	movl	$3, %esi
	movl	$-2147483639, 12(%rsp)
	movq	%rdx, 16(%rsp)
	movl	88(%rax), %edx
	call	epoll_ctl@PLT
.L1323:
	movq	%r12, %rdi
	call	pthread_mutex_unlock@PLT
	jmp	.L1305
	.p2align 4,,10
	.p2align 3
.L1310:
	movq	%rbx, 96(%rbp)
	movq	%rbx, 88(%rbp)
	jmp	.L1311
	.p2align 4,,10
	.p2align 3
.L1340:
	movq	%r12, %rdi
	call	pthread_mutex_unlock@PLT
	leaq	88(%rbx), %rdi
	call	pthread_cond_signal@PLT
	jmp	.L1305
	.p2align 4,,10
	.p2align 3
.L1318:
	movq	%rbp, 16(%rax)
	movq	%rbp, 8(%rax)
	jmp	.L1305
	.p2align 4,,10
	.p2align 3
.L1319:
	movq	%rbp, 200(%rbx)
	movq	%rbp, 192(%rbx)
	jmp	.L1320
.L1339:
	call	__stack_chk_fail@PLT
	.cfi_endproc
.LFE6404:
	.size	_ZN4asio6detail14strand_service7do_postERPNS1_11strand_implEPNS0_25task_io_service_operationEb, .-_ZN4asio6detail14strand_service7do_postERPNS1_11strand_implEPNS0_25task_io_service_operationEb
	.section	.text._ZN7openpal6LoggerD2Ev,"axG",@progbits,_ZN7openpal6LoggerD5Ev,comdat
	.align 2
	.p2align 4,,15
	.weak	_ZN7openpal6LoggerD2Ev
	.type	_ZN7openpal6LoggerD2Ev, @function
_ZN7openpal6LoggerD2Ev:
.LFB7389:
	.cfi_startproc
	pushq	%rbp
	.cfi_def_cfa_offset 16
	.cfi_offset 6, -16
	pushq	%rbx
	.cfi_def_cfa_offset 24
	.cfi_offset 3, -24
	movq	%rdi, %rbp
	subq	$8, %rsp
	.cfi_def_cfa_offset 32
	movq	24(%rdi), %rbx
	testq	%rbx, %rbx
	je	.L1343
	cmpq	$0, _ZL28__gthrw___pthread_key_createPjPFvPvE@GOTPCREL(%rip)
	je	.L1344
	lock subl	$1, 8(%rbx)
	je	.L1357
.L1343:
	movq	8(%rbp), %rbx
	testq	%rbx, %rbx
	je	.L1341
	cmpq	$0, _ZL28__gthrw___pthread_key_createPjPFvPvE@GOTPCREL(%rip)
	je	.L1350
	lock subl	$1, 8(%rbx)
	je	.L1358
.L1341:
	addq	$8, %rsp
	.cfi_remember_state
	.cfi_def_cfa_offset 24
	popq	%rbx
	.cfi_def_cfa_offset 16
	popq	%rbp
	.cfi_def_cfa_offset 8
	ret
	.p2align 4,,10
	.p2align 3
.L1350:
	.cfi_restore_state
	movl	8(%rbx), %eax
	leal	-1(%rax), %edx
	cmpl	$1, %eax
	movl	%edx, 8(%rbx)
	jne	.L1341
	movq	(%rbx), %rax
	movq	%rbx, %rdi
	call	*16(%rax)
	movl	12(%rbx), %eax
	leal	-1(%rax), %edx
	movl	%edx, 12(%rbx)
	jmp	.L1355
	.p2align 4,,10
	.p2align 3
.L1344:
	movl	8(%rbx), %eax
	leal	-1(%rax), %edx
	cmpl	$1, %eax
	movl	%edx, 8(%rbx)
	jne	.L1343
	movq	(%rbx), %rax
	movq	%rbx, %rdi
	call	*16(%rax)
	movl	12(%rbx), %eax
	leal	-1(%rax), %edx
	movl	%edx, 12(%rbx)
	jmp	.L1354
	.p2align 4,,10
	.p2align 3
.L1358:
	movq	(%rbx), %rax
	movq	%rbx, %rdi
	call	*16(%rax)
	movl	$-1, %eax
	lock xaddl	%eax, 12(%rbx)
.L1355:
	cmpl	$1, %eax
	jne	.L1341
	movq	(%rbx), %rax
	movq	%rbx, %rdi
	movq	24(%rax), %rax
	addq	$8, %rsp
	.cfi_remember_state
	.cfi_def_cfa_offset 24
	popq	%rbx
	.cfi_def_cfa_offset 16
	popq	%rbp
	.cfi_def_cfa_offset 8
	jmp	*%rax
	.p2align 4,,10
	.p2align 3
.L1357:
	.cfi_restore_state
	movq	(%rbx), %rax
	movq	%rbx, %rdi
	call	*16(%rax)
	movl	$-1, %eax
	lock xaddl	%eax, 12(%rbx)
.L1354:
	cmpl	$1, %eax
	jne	.L1343
	movq	(%rbx), %rax
	movq	%rbx, %rdi
	call	*24(%rax)
	jmp	.L1343
	.cfi_endproc
.LFE7389:
	.size	_ZN7openpal6LoggerD2Ev, .-_ZN7openpal6LoggerD2Ev
	.weak	_ZN7openpal6LoggerD1Ev
	.set	_ZN7openpal6LoggerD1Ev,_ZN7openpal6LoggerD2Ev
	.section	.text._ZN8asiodnp39StackBaseD2Ev,"axG",@progbits,_ZN8asiodnp39StackBaseD5Ev,comdat
	.align 2
	.p2align 4,,15
	.weak	_ZN8asiodnp39StackBaseD2Ev
	.type	_ZN8asiodnp39StackBaseD2Ev, @function
_ZN8asiodnp39StackBaseD2Ev:
.LFB8201:
	.cfi_startproc
	pushq	%rbp
	.cfi_def_cfa_offset 16
	.cfi_offset 6, -16
	pushq	%rbx
	.cfi_def_cfa_offset 24
	.cfi_offset 3, -24
	movq	%rdi, %rbx
	subq	$8, %rsp
	.cfi_def_cfa_offset 32
	movq	104(%rdi), %rbp
	testq	%rbp, %rbp
	je	.L1361
	cmpq	$0, _ZL28__gthrw___pthread_key_createPjPFvPvE@GOTPCREL(%rip)
	je	.L1362
	lock subl	$1, 8(%rbp)
	je	.L1410
.L1361:
	movq	88(%rbx), %rbp
	testq	%rbp, %rbp
	je	.L1367
	cmpq	$0, _ZL28__gthrw___pthread_key_createPjPFvPvE@GOTPCREL(%rip)
	je	.L1368
	lock subl	$1, 8(%rbp)
	je	.L1411
.L1367:
	movq	72(%rbx), %rbp
	testq	%rbp, %rbp
	je	.L1373
	cmpq	$0, _ZL28__gthrw___pthread_key_createPjPFvPvE@GOTPCREL(%rip)
	je	.L1374
	lock subl	$1, 8(%rbp)
	je	.L1412
.L1373:
	movq	56(%rbx), %rbp
	testq	%rbp, %rbp
	je	.L1379
	cmpq	$0, _ZL28__gthrw___pthread_key_createPjPFvPvE@GOTPCREL(%rip)
	je	.L1380
	lock subl	$1, 8(%rbp)
	je	.L1413
.L1379:
	movq	40(%rbx), %rbp
	testq	%rbp, %rbp
	je	.L1385
	cmpq	$0, _ZL28__gthrw___pthread_key_createPjPFvPvE@GOTPCREL(%rip)
	je	.L1386
	lock subl	$1, 8(%rbp)
	je	.L1414
.L1385:
	movq	24(%rbx), %rbp
	testq	%rbp, %rbp
	je	.L1391
	cmpq	$0, _ZL28__gthrw___pthread_key_createPjPFvPvE@GOTPCREL(%rip)
	je	.L1392
	lock subl	$1, 8(%rbp)
	je	.L1415
.L1391:
	movq	8(%rbx), %rbx
	testq	%rbx, %rbx
	je	.L1359
	cmpq	$0, _ZL28__gthrw___pthread_key_createPjPFvPvE@GOTPCREL(%rip)
	je	.L1398
	lock subl	$1, 8(%rbx)
	je	.L1416
.L1359:
	addq	$8, %rsp
	.cfi_remember_state
	.cfi_def_cfa_offset 24
	popq	%rbx
	.cfi_def_cfa_offset 16
	popq	%rbp
	.cfi_def_cfa_offset 8
	ret
	.p2align 4,,10
	.p2align 3
.L1368:
	.cfi_restore_state
	movl	8(%rbp), %eax
	leal	-1(%rax), %edx
	cmpl	$1, %eax
	movl	%edx, 8(%rbp)
	jne	.L1367
	movq	0(%rbp), %rax
	movq	%rbp, %rdi
	call	*16(%rax)
	movl	12(%rbp), %eax
	leal	-1(%rax), %edx
	movl	%edx, 12(%rbp)
	jmp	.L1403
	.p2align 4,,10
	.p2align 3
.L1386:
	movl	8(%rbp), %eax
	leal	-1(%rax), %edx
	cmpl	$1, %eax
	movl	%edx, 8(%rbp)
	jne	.L1385
	movq	0(%rbp), %rax
	movq	%rbp, %rdi
	call	*16(%rax)
	movl	12(%rbp), %eax
	leal	-1(%rax), %edx
	movl	%edx, 12(%rbp)
	jmp	.L1406
	.p2align 4,,10
	.p2align 3
.L1398:
	movl	8(%rbx), %eax
	leal	-1(%rax), %edx
	cmpl	$1, %eax
	movl	%edx, 8(%rbx)
	jne	.L1359
	movq	(%rbx), %rax
	movq	%rbx, %rdi
	call	*16(%rax)
	movl	12(%rbx), %eax
	leal	-1(%rax), %edx
	movl	%edx, 12(%rbx)
	jmp	.L1408
	.p2align 4,,10
	.p2align 3
.L1374:
	movl	8(%rbp), %eax
	leal	-1(%rax), %edx
	cmpl	$1, %eax
	movl	%edx, 8(%rbp)
	jne	.L1373
	movq	0(%rbp), %rax
	movq	%rbp, %rdi
	call	*16(%rax)
	movl	12(%rbp), %eax
	leal	-1(%rax), %edx
	movl	%edx, 12(%rbp)
	jmp	.L1404
	.p2align 4,,10
	.p2align 3
.L1362:
	movl	8(%rbp), %eax
	leal	-1(%rax), %edx
	cmpl	$1, %eax
	movl	%edx, 8(%rbp)
	jne	.L1361
	movq	0(%rbp), %rax
	movq	%rbp, %rdi
	call	*16(%rax)
	movl	12(%rbp), %eax
	leal	-1(%rax), %edx
	movl	%edx, 12(%rbp)
	jmp	.L1402
	.p2align 4,,10
	.p2align 3
.L1392:
	movl	8(%rbp), %eax
	leal	-1(%rax), %edx
	cmpl	$1, %eax
	movl	%edx, 8(%rbp)
	jne	.L1391
	movq	0(%rbp), %rax
	movq	%rbp, %rdi
	call	*16(%rax)
	movl	12(%rbp), %eax
	leal	-1(%rax), %edx
	movl	%edx, 12(%rbp)
	jmp	.L1407
	.p2align 4,,10
	.p2align 3
.L1380:
	movl	8(%rbp), %eax
	leal	-1(%rax), %edx
	cmpl	$1, %eax
	movl	%edx, 8(%rbp)
	jne	.L1379
	movq	0(%rbp), %rax
	movq	%rbp, %rdi
	call	*16(%rax)
	movl	12(%rbp), %eax
	leal	-1(%rax), %edx
	movl	%edx, 12(%rbp)
	jmp	.L1405
	.p2align 4,,10
	.p2align 3
.L1411:
	movq	0(%rbp), %rax
	movq	%rbp, %rdi
	call	*16(%rax)
	movl	$-1, %eax
	lock xaddl	%eax, 12(%rbp)
.L1403:
	cmpl	$1, %eax
	jne	.L1367
	movq	0(%rbp), %rax
	movq	%rbp, %rdi
	call	*24(%rax)
	jmp	.L1367
	.p2align 4,,10
	.p2align 3
.L1414:
	movq	0(%rbp), %rax
	movq	%rbp, %rdi
	call	*16(%rax)
	movl	$-1, %eax
	lock xaddl	%eax, 12(%rbp)
.L1406:
	cmpl	$1, %eax
	jne	.L1385
	movq	0(%rbp), %rax
	movq	%rbp, %rdi
	call	*24(%rax)
	jmp	.L1385
	.p2align 4,,10
	.p2align 3
.L1416:
	movq	(%rbx), %rax
	movq	%rbx, %rdi
	call	*16(%rax)
	movl	$-1, %eax
	lock xaddl	%eax, 12(%rbx)
.L1408:
	cmpl	$1, %eax
	jne	.L1359
	movq	(%rbx), %rax
	movq	%rbx, %rdi
	movq	24(%rax), %rax
	addq	$8, %rsp
	.cfi_remember_state
	.cfi_def_cfa_offset 24
	popq	%rbx
	.cfi_def_cfa_offset 16
	popq	%rbp
	.cfi_def_cfa_offset 8
	jmp	*%rax
	.p2align 4,,10
	.p2align 3
.L1412:
	.cfi_restore_state
	movq	0(%rbp), %rax
	movq	%rbp, %rdi
	call	*16(%rax)
	movl	$-1, %eax
	lock xaddl	%eax, 12(%rbp)
.L1404:
	cmpl	$1, %eax
	jne	.L1373
	movq	0(%rbp), %rax
	movq	%rbp, %rdi
	call	*24(%rax)
	jmp	.L1373
	.p2align 4,,10
	.p2align 3
.L1413:
	movq	0(%rbp), %rax
	movq	%rbp, %rdi
	call	*16(%rax)
	movl	$-1, %eax
	lock xaddl	%eax, 12(%rbp)
.L1405:
	cmpl	$1, %eax
	jne	.L1379
	movq	0(%rbp), %rax
	movq	%rbp, %rdi
	call	*24(%rax)
	jmp	.L1379
	.p2align 4,,10
	.p2align 3
.L1415:
	movq	0(%rbp), %rax
	movq	%rbp, %rdi
	call	*16(%rax)
	movl	$-1, %eax
	lock xaddl	%eax, 12(%rbp)
.L1407:
	cmpl	$1, %eax
	jne	.L1391
	movq	0(%rbp), %rax
	movq	%rbp, %rdi
	call	*24(%rax)
	jmp	.L1391
	.p2align 4,,10
	.p2align 3
.L1410:
	movq	0(%rbp), %rax
	movq	%rbp, %rdi
	call	*16(%rax)
	movl	$-1, %eax
	lock xaddl	%eax, 12(%rbp)
.L1402:
	cmpl	$1, %eax
	jne	.L1361
	movq	0(%rbp), %rax
	movq	%rbp, %rdi
	call	*24(%rax)
	jmp	.L1361
	.cfi_endproc
.LFE8201:
	.size	_ZN8asiodnp39StackBaseD2Ev, .-_ZN8asiodnp39StackBaseD2Ev
	.weak	_ZN8asiodnp39StackBaseD1Ev
	.set	_ZN8asiodnp39StackBaseD1Ev,_ZN8asiodnp39StackBaseD2Ev
	.section	.text._ZZSt9call_onceIMNSt13__future_base13_State_baseV2EFvPSt8functionIFSt10unique_ptrINS0_12_Result_baseENS4_8_DeleterEEvEEPbEJPS1_S9_SA_EEvRSt9once_flagOT_DpOT0_ENKUlvE0_clEv,"axG",@progbits,_ZZSt9call_onceIMNSt13__future_base13_State_baseV2EFvPSt8functionIFSt10unique_ptrINS0_12_Result_baseENS4_8_DeleterEEvEEPbEJPS1_S9_SA_EEvRSt9once_flagOT_DpOT0_ENKUlvE0_clEv,comdat
	.align 2
	.p2align 4,,15
	.weak	_ZZSt9call_onceIMNSt13__future_base13_State_baseV2EFvPSt8functionIFSt10unique_ptrINS0_12_Result_baseENS4_8_DeleterEEvEEPbEJPS1_S9_SA_EEvRSt9once_flagOT_DpOT0_ENKUlvE0_clEv
	.type	_ZZSt9call_onceIMNSt13__future_base13_State_baseV2EFvPSt8functionIFSt10unique_ptrINS0_12_Result_baseENS4_8_DeleterEEvEEPbEJPS1_S9_SA_EEvRSt9once_flagOT_DpOT0_ENKUlvE0_clEv, @function
_ZZSt9call_onceIMNSt13__future_base13_State_baseV2EFvPSt8functionIFSt10unique_ptrINS0_12_Result_baseENS4_8_DeleterEEvEEPbEJPS1_S9_SA_EEvRSt9once_flagOT_DpOT0_ENKUlvE0_clEv:
.LFB8920:
	.cfi_startproc
	subq	$8, %rsp
	.cfi_def_cfa_offset 16
	.byte	0x66
	leaq	_ZSt15__once_callable@tlsgd(%rip), %rdi
	.value	0x6666
	rex64
	call	__tls_get_addr@PLT
	movq	(%rax), %rax
	movq	16(%rax), %rdx
	movq	(%rax), %rcx
	movq	(%rdx), %rsi
	movq	24(%rax), %rdx
	movq	8(%rax), %rax
	movq	8(%rcx), %rdi
	movq	(%rdx), %rdx
	addq	(%rax), %rdi
	movq	(%rcx), %rax
	testb	$1, %al
	je	.L1418
	movq	(%rdi), %rcx
	movq	-1(%rcx,%rax), %rax
.L1418:
	addq	$8, %rsp
	.cfi_def_cfa_offset 8
	jmp	*%rax
	.cfi_endproc
.LFE8920:
	.size	_ZZSt9call_onceIMNSt13__future_base13_State_baseV2EFvPSt8functionIFSt10unique_ptrINS0_12_Result_baseENS4_8_DeleterEEvEEPbEJPS1_S9_SA_EEvRSt9once_flagOT_DpOT0_ENKUlvE0_clEv, .-_ZZSt9call_onceIMNSt13__future_base13_State_baseV2EFvPSt8functionIFSt10unique_ptrINS0_12_Result_baseENS4_8_DeleterEEvEEPbEJPS1_S9_SA_EEvRSt9once_flagOT_DpOT0_ENKUlvE0_clEv
	.section	.text._ZNSt16_Sp_counted_baseILN9__gnu_cxx12_Lock_policyE2EE10_M_releaseEv,"axG",@progbits,_ZNSt16_Sp_counted_baseILN9__gnu_cxx12_Lock_policyE2EE10_M_releaseEv,comdat
	.align 2
	.p2align 4,,15
	.weak	_ZNSt16_Sp_counted_baseILN9__gnu_cxx12_Lock_policyE2EE10_M_releaseEv
	.type	_ZNSt16_Sp_counted_baseILN9__gnu_cxx12_Lock_policyE2EE10_M_releaseEv, @function
_ZNSt16_Sp_counted_baseILN9__gnu_cxx12_Lock_policyE2EE10_M_releaseEv:
.LFB9535:
	.cfi_startproc
	cmpq	$0, _ZL28__gthrw___pthread_key_createPjPFvPvE@GOTPCREL(%rip)
	pushq	%rbx
	.cfi_def_cfa_offset 16
	.cfi_offset 3, -16
	movq	%rdi, %rbx
	je	.L1424
	lock subl	$1, 8(%rdi)
	je	.L1431
.L1423:
	popq	%rbx
	.cfi_remember_state
	.cfi_def_cfa_offset 8
	ret
	.p2align 4,,10
	.p2align 3
.L1424:
	.cfi_restore_state
	movl	8(%rdi), %eax
	leal	-1(%rax), %edx
	cmpl	$1, %eax
	movl	%edx, 8(%rdi)
	jne	.L1423
	movq	(%rdi), %rax
	call	*16(%rax)
	movl	12(%rbx), %eax
	leal	-1(%rax), %edx
	movl	%edx, 12(%rbx)
	jmp	.L1429
	.p2align 4,,10
	.p2align 3
.L1431:
	movq	(%rdi), %rax
	call	*16(%rax)
	movl	$-1, %eax
	lock xaddl	%eax, 12(%rbx)
.L1429:
	cmpl	$1, %eax
	jne	.L1423
	movq	(%rbx), %rax
	movq	%rbx, %rdi
	popq	%rbx
	.cfi_def_cfa_offset 8
	movq	24(%rax), %rax
	jmp	*%rax
	.cfi_endproc
.LFE9535:
	.size	_ZNSt16_Sp_counted_baseILN9__gnu_cxx12_Lock_policyE2EE10_M_releaseEv, .-_ZNSt16_Sp_counted_baseILN9__gnu_cxx12_Lock_policyE2EE10_M_releaseEv
	.text
	.p2align 4,,15
	.type	_ZNSt14_Function_base13_Base_managerIZN8asiodnp315OutstationStack6EnableEvEUlvE_E10_M_managerERSt9_Any_dataRKS5_St18_Manager_operation, @function
_ZNSt14_Function_base13_Base_managerIZN8asiodnp315OutstationStack6EnableEvEUlvE_E10_M_managerERSt9_Any_dataRKS5_St18_Manager_operation:
.LFB9968:
	.cfi_startproc
	cmpl	$1, %edx
	je	.L1434
	jb	.L1435
	pushq	%rbp
	.cfi_def_cfa_offset 16
	.cfi_offset 6, -16
	pushq	%rbx
	.cfi_def_cfa_offset 24
	.cfi_offset 3, -24
	movq	%rdi, %rbx
	subq	$8, %rsp
	.cfi_def_cfa_offset 32
	cmpl	$2, %edx
	je	.L1436
	cmpl	$3, %edx
	jne	.L1433
	movq	(%rdi), %rbx
	testq	%rbx, %rbx
	je	.L1433
	movq	8(%rbx), %rdi
	testq	%rdi, %rdi
	je	.L1440
	call	_ZNSt16_Sp_counted_baseILN9__gnu_cxx12_Lock_policyE2EE10_M_releaseEv@PLT
.L1440:
	movl	$16, %esi
	movq	%rbx, %rdi
	call	_ZdlPvm@PLT
.L1433:
	addq	$8, %rsp
	.cfi_remember_state
	.cfi_def_cfa_offset 24
	xorl	%eax, %eax
	popq	%rbx
	.cfi_def_cfa_offset 16
	popq	%rbp
	.cfi_def_cfa_offset 8
	ret
	.p2align 4,,10
	.p2align 3
.L1436:
	.cfi_restore_state
	movq	(%rsi), %rbp
	movl	$16, %edi
	call	_Znwm@PLT
	movq	0(%rbp), %rdx
	movq	%rdx, (%rax)
	movq	8(%rbp), %rdx
	testq	%rdx, %rdx
	movq	%rdx, 8(%rax)
	je	.L1438
	cmpq	$0, _ZL28__gthrw___pthread_key_createPjPFvPvE@GOTPCREL(%rip)
	je	.L1439
	lock addl	$1, 8(%rdx)
.L1438:
	movq	%rax, (%rbx)
	addq	$8, %rsp
	.cfi_def_cfa_offset 24
	xorl	%eax, %eax
	popq	%rbx
	.cfi_def_cfa_offset 16
	popq	%rbp
	.cfi_def_cfa_offset 8
	ret
	.p2align 4,,10
	.p2align 3
.L1435:
	.cfi_restore 3
	.cfi_restore 6
	leaq	_ZTIZN8asiodnp315OutstationStack6EnableEvEUlvE_(%rip), %rax
	movq	%rax, (%rdi)
	xorl	%eax, %eax
	ret
	.p2align 4,,10
	.p2align 3
.L1434:
	movq	(%rsi), %rax
	movq	%rax, (%rdi)
	xorl	%eax, %eax
	ret
	.p2align 4,,10
	.p2align 3
.L1439:
	.cfi_def_cfa_offset 32
	.cfi_offset 3, -24
	.cfi_offset 6, -16
	addl	$1, 8(%rdx)
	jmp	.L1438
	.cfi_endproc
.LFE9968:
	.size	_ZNSt14_Function_base13_Base_managerIZN8asiodnp315OutstationStack6EnableEvEUlvE_E10_M_managerERSt9_Any_dataRKS5_St18_Manager_operation, .-_ZNSt14_Function_base13_Base_managerIZN8asiodnp315OutstationStack6EnableEvEUlvE_E10_M_managerERSt9_Any_dataRKS5_St18_Manager_operation
	.p2align 4,,15
	.type	_ZNSt14_Function_base13_Base_managerIZN8asiodnp315OutstationStack7DisableEvEUlvE_E10_M_managerERSt9_Any_dataRKS5_St18_Manager_operation, @function
_ZNSt14_Function_base13_Base_managerIZN8asiodnp315OutstationStack7DisableEvEUlvE_E10_M_managerERSt9_Any_dataRKS5_St18_Manager_operation:
.LFB9989:
	.cfi_startproc
	cmpl	$1, %edx
	je	.L1456
	jb	.L1457
	pushq	%rbp
	.cfi_def_cfa_offset 16
	.cfi_offset 6, -16
	pushq	%rbx
	.cfi_def_cfa_offset 24
	.cfi_offset 3, -24
	movq	%rdi, %rbx
	subq	$8, %rsp
	.cfi_def_cfa_offset 32
	cmpl	$2, %edx
	je	.L1458
	cmpl	$3, %edx
	jne	.L1455
	movq	(%rdi), %rbx
	testq	%rbx, %rbx
	je	.L1455
	movq	8(%rbx), %rdi
	testq	%rdi, %rdi
	je	.L1462
	call	_ZNSt16_Sp_counted_baseILN9__gnu_cxx12_Lock_policyE2EE10_M_releaseEv@PLT
.L1462:
	movl	$16, %esi
	movq	%rbx, %rdi
	call	_ZdlPvm@PLT
.L1455:
	addq	$8, %rsp
	.cfi_remember_state
	.cfi_def_cfa_offset 24
	xorl	%eax, %eax
	popq	%rbx
	.cfi_def_cfa_offset 16
	popq	%rbp
	.cfi_def_cfa_offset 8
	ret
	.p2align 4,,10
	.p2align 3
.L1458:
	.cfi_restore_state
	movq	(%rsi), %rbp
	movl	$16, %edi
	call	_Znwm@PLT
	movq	0(%rbp), %rdx
	movq	%rdx, (%rax)
	movq	8(%rbp), %rdx
	testq	%rdx, %rdx
	movq	%rdx, 8(%rax)
	je	.L1460
	cmpq	$0, _ZL28__gthrw___pthread_key_createPjPFvPvE@GOTPCREL(%rip)
	je	.L1461
	lock addl	$1, 8(%rdx)
.L1460:
	movq	%rax, (%rbx)
	addq	$8, %rsp
	.cfi_def_cfa_offset 24
	xorl	%eax, %eax
	popq	%rbx
	.cfi_def_cfa_offset 16
	popq	%rbp
	.cfi_def_cfa_offset 8
	ret
	.p2align 4,,10
	.p2align 3
.L1457:
	.cfi_restore 3
	.cfi_restore 6
	leaq	_ZTIZN8asiodnp315OutstationStack7DisableEvEUlvE_(%rip), %rax
	movq	%rax, (%rdi)
	xorl	%eax, %eax
	ret
	.p2align 4,,10
	.p2align 3
.L1456:
	movq	(%rsi), %rax
	movq	%rax, (%rdi)
	xorl	%eax, %eax
	ret
	.p2align 4,,10
	.p2align 3
.L1461:
	.cfi_def_cfa_offset 32
	.cfi_offset 3, -24
	.cfi_offset 6, -16
	addl	$1, 8(%rdx)
	jmp	.L1460
	.cfi_endproc
.LFE9989:
	.size	_ZNSt14_Function_base13_Base_managerIZN8asiodnp315OutstationStack7DisableEvEUlvE_E10_M_managerERSt9_Any_dataRKS5_St18_Manager_operation, .-_ZNSt14_Function_base13_Base_managerIZN8asiodnp315OutstationStack7DisableEvEUlvE_E10_M_managerERSt9_Any_dataRKS5_St18_Manager_operation
	.p2align 4,,15
	.type	_ZNSt14_Function_base13_Base_managerIZN8asiodnp315OutstationStack18GetStackStatisticsEvEUlvE_E10_M_managerERSt9_Any_dataRKS5_St18_Manager_operation, @function
_ZNSt14_Function_base13_Base_managerIZN8asiodnp315OutstationStack18GetStackStatisticsEvEUlvE_E10_M_managerERSt9_Any_dataRKS5_St18_Manager_operation:
.LFB10005:
	.cfi_startproc
	cmpl	$1, %edx
	je	.L1478
	jb	.L1479
	pushq	%rbp
	.cfi_def_cfa_offset 16
	.cfi_offset 6, -16
	pushq	%rbx
	.cfi_def_cfa_offset 24
	.cfi_offset 3, -24
	movq	%rdi, %rbx
	subq	$8, %rsp
	.cfi_def_cfa_offset 32
	cmpl	$2, %edx
	je	.L1480
	cmpl	$3, %edx
	jne	.L1477
	movq	(%rdi), %rbx
	testq	%rbx, %rbx
	je	.L1477
	movq	8(%rbx), %rdi
	testq	%rdi, %rdi
	je	.L1484
	call	_ZNSt16_Sp_counted_baseILN9__gnu_cxx12_Lock_policyE2EE10_M_releaseEv@PLT
.L1484:
	movl	$16, %esi
	movq	%rbx, %rdi
	call	_ZdlPvm@PLT
.L1477:
	addq	$8, %rsp
	.cfi_remember_state
	.cfi_def_cfa_offset 24
	xorl	%eax, %eax
	popq	%rbx
	.cfi_def_cfa_offset 16
	popq	%rbp
	.cfi_def_cfa_offset 8
	ret
	.p2align 4,,10
	.p2align 3
.L1480:
	.cfi_restore_state
	movq	(%rsi), %rbp
	movl	$16, %edi
	call	_Znwm@PLT
	movq	0(%rbp), %rdx
	movq	%rdx, (%rax)
	movq	8(%rbp), %rdx
	testq	%rdx, %rdx
	movq	%rdx, 8(%rax)
	je	.L1482
	cmpq	$0, _ZL28__gthrw___pthread_key_createPjPFvPvE@GOTPCREL(%rip)
	je	.L1483
	lock addl	$1, 8(%rdx)
.L1482:
	movq	%rax, (%rbx)
	addq	$8, %rsp
	.cfi_def_cfa_offset 24
	xorl	%eax, %eax
	popq	%rbx
	.cfi_def_cfa_offset 16
	popq	%rbp
	.cfi_def_cfa_offset 8
	ret
	.p2align 4,,10
	.p2align 3
.L1479:
	.cfi_restore 3
	.cfi_restore 6
	leaq	_ZTIZN8asiodnp315OutstationStack18GetStackStatisticsEvEUlvE_(%rip), %rax
	movq	%rax, (%rdi)
	xorl	%eax, %eax
	ret
	.p2align 4,,10
	.p2align 3
.L1478:
	movq	(%rsi), %rax
	movq	%rax, (%rdi)
	xorl	%eax, %eax
	ret
	.p2align 4,,10
	.p2align 3
.L1483:
	.cfi_def_cfa_offset 32
	.cfi_offset 3, -24
	.cfi_offset 6, -16
	addl	$1, 8(%rdx)
	jmp	.L1482
	.cfi_endproc
.LFE10005:
	.size	_ZNSt14_Function_base13_Base_managerIZN8asiodnp315OutstationStack18GetStackStatisticsEvEUlvE_E10_M_managerERSt9_Any_dataRKS5_St18_Manager_operation, .-_ZNSt14_Function_base13_Base_managerIZN8asiodnp315OutstationStack18GetStackStatisticsEvEUlvE_E10_M_managerERSt9_Any_dataRKS5_St18_Manager_operation
	.p2align 4,,15
	.type	_ZN4asio6detail18completion_handlerIZN8asiodnp315OutstationStack13SetRestartIINEvEUlvE_E11do_completeEPNS0_15task_io_serviceEPNS0_25task_io_service_operationERKSt10error_codem, @function
_ZN4asio6detail18completion_handlerIZN8asiodnp315OutstationStack13SetRestartIINEvEUlvE_E11do_completeEPNS0_15task_io_serviceEPNS0_25task_io_service_operationERKSt10error_codem:
.LFB10772:
	.cfi_startproc
	.cfi_personality 0x9b,DW.ref.__gxx_personality_v0
	.cfi_lsda 0x1b,.LLSDA10772
	pushq	%r13
	.cfi_def_cfa_offset 16
	.cfi_offset 13, -16
	pushq	%r12
	.cfi_def_cfa_offset 24
	.cfi_offset 12, -24
	movq	%rdi, %r13
	pushq	%rbp
	.cfi_def_cfa_offset 32
	.cfi_offset 6, -32
	pushq	%rbx
	.cfi_def_cfa_offset 40
	.cfi_offset 3, -40
	movq	%rsi, %rbp
	subq	$8, %rsp
	.cfi_def_cfa_offset 48
	movq	24(%rsi), %r12
	movq	32(%rsi), %rbx
	.byte	0x66
	leaq	_ZN4asio6detail15keyword_tss_ptrINS0_10call_stackINS0_15task_io_serviceENS0_27task_io_service_thread_infoEE7contextEE6value_E@tlsgd(%rip), %rdi
	.value	0x6666
	rex64
	call	__tls_get_addr@PLT
	movq	(%rax), %rax
	testq	%rax, %rax
	je	.L1499
	movq	8(%rax), %rax
	testq	%rax, %rax
	je	.L1499
	cmpq	$0, (%rax)
	je	.L1525
.L1499:
	movq	%rbp, %rdi
	call	_ZdlPv@PLT
.L1500:
	testq	%r13, %r13
	je	.L1501
	leaq	152(%r12), %rdi
.LEHB12:
	call	_ZN8opendnp38OContext13SetRestartIINEv@PLT
.LEHE12:
	sfence
.L1501:
	testq	%rbx, %rbx
	je	.L1498
	cmpq	$0, _ZL28__gthrw___pthread_key_createPjPFvPvE@GOTPCREL(%rip)
	je	.L1504
	lock subl	$1, 8(%rbx)
	je	.L1526
.L1498:
	addq	$8, %rsp
	.cfi_remember_state
	.cfi_def_cfa_offset 40
	popq	%rbx
	.cfi_def_cfa_offset 32
	popq	%rbp
	.cfi_def_cfa_offset 24
	popq	%r12
	.cfi_def_cfa_offset 16
	popq	%r13
	.cfi_def_cfa_offset 8
	ret
	.p2align 4,,10
	.p2align 3
.L1504:
	.cfi_restore_state
	movl	8(%rbx), %eax
	leal	-1(%rax), %edx
	cmpl	$1, %eax
	movl	%edx, 8(%rbx)
	jne	.L1498
	movq	(%rbx), %rax
	movq	%rbx, %rdi
	call	*16(%rax)
	movl	12(%rbx), %eax
	leal	-1(%rax), %edx
	movl	%edx, 12(%rbx)
	jmp	.L1510
	.p2align 4,,10
	.p2align 3
.L1525:
	movzbl	40(%rbp), %edx
	movb	%dl, 0(%rbp)
	movq	%rbp, (%rax)
	jmp	.L1500
	.p2align 4,,10
	.p2align 3
.L1526:
	movq	(%rbx), %rax
	movq	%rbx, %rdi
	call	*16(%rax)
	movl	$-1, %eax
	lock xaddl	%eax, 12(%rbx)
.L1510:
	cmpl	$1, %eax
	jne	.L1498
	movq	(%rbx), %rax
	movq	%rbx, %rdi
	movq	24(%rax), %rax
	addq	$8, %rsp
	.cfi_remember_state
	.cfi_def_cfa_offset 40
	popq	%rbx
	.cfi_def_cfa_offset 32
	popq	%rbp
	.cfi_def_cfa_offset 24
	popq	%r12
	.cfi_def_cfa_offset 16
	popq	%r13
	.cfi_def_cfa_offset 8
	jmp	*%rax
.L1511:
	.cfi_restore_state
	testq	%rbx, %rbx
	movq	%rax, %rbp
	sfence
	je	.L1509
	movq	%rbx, %rdi
	call	_ZNSt16_Sp_counted_baseILN9__gnu_cxx12_Lock_policyE2EE10_M_releaseEv@PLT
.L1509:
	movq	%rbp, %rdi
.LEHB13:
	call	_Unwind_Resume@PLT
.LEHE13:
	.cfi_endproc
.LFE10772:
	.section	.gcc_except_table,"a",@progbits
.LLSDA10772:
	.byte	0xff
	.byte	0xff
	.byte	0x1
	.uleb128 .LLSDACSE10772-.LLSDACSB10772
.LLSDACSB10772:
	.uleb128 .LEHB12-.LFB10772
	.uleb128 .LEHE12-.LEHB12
	.uleb128 .L1511-.LFB10772
	.uleb128 0
	.uleb128 .LEHB13-.LFB10772
	.uleb128 .LEHE13-.LEHB13
	.uleb128 0
	.uleb128 0
.LLSDACSE10772:
	.text
	.size	_ZN4asio6detail18completion_handlerIZN8asiodnp315OutstationStack13SetRestartIINEvEUlvE_E11do_completeEPNS0_15task_io_serviceEPNS0_25task_io_service_operationERKSt10error_codem, .-_ZN4asio6detail18completion_handlerIZN8asiodnp315OutstationStack13SetRestartIINEvEUlvE_E11do_completeEPNS0_15task_io_serviceEPNS0_25task_io_service_operationERKSt10error_codem
	.p2align 4,,15
	.type	_ZNSt17_Function_handlerIFbvEZN8asiodnp315OutstationStack6EnableEvEUlvE_E9_M_invokeERKSt9_Any_data, @function
_ZNSt17_Function_handlerIFbvEZN8asiodnp315OutstationStack6EnableEvEUlvE_E9_M_invokeERKSt9_Any_data:
.LFB9967:
	.cfi_startproc
	.cfi_personality 0x9b,DW.ref.__gxx_personality_v0
	.cfi_lsda 0x1b,.LLSDA9967
	pushq	%rbx
	.cfi_def_cfa_offset 16
	.cfi_offset 3, -16
	subq	$48, %rsp
	.cfi_def_cfa_offset 64
	movq	(%rdi), %rdx
	movq	%fs:40, %rax
	movq	%rax, 40(%rsp)
	xorl	%eax, %eax
	movq	(%rdx), %rax
	movq	88(%rax), %rdi
	addq	$8, %rax
	movq	%rax, 16(%rsp)
	movq	8(%rdx), %rax
	testq	%rax, %rax
	movq	%rax, 24(%rsp)
	je	.L1528
	cmpq	$0, _ZL28__gthrw___pthread_key_createPjPFvPvE@GOTPCREL(%rip)
	jne	.L1548
	addl	$1, 8(%rax)
.L1528:
	leaq	16(%rsp), %rsi
.LEHB14:
	call	_ZN8asiodnp39IOHandler6EnableERKSt10shared_ptrIN8opendnp312ILinkSessionEE@PLT
.LEHE14:
	movq	24(%rsp), %rbx
	testq	%rbx, %rbx
	je	.L1527
	cmpq	$0, _ZL28__gthrw___pthread_key_createPjPFvPvE@GOTPCREL(%rip)
	je	.L1532
	lock subl	$1, 8(%rbx)
	je	.L1549
.L1527:
	movq	40(%rsp), %rcx
	xorq	%fs:40, %rcx
	jne	.L1550
	addq	$48, %rsp
	.cfi_remember_state
	.cfi_def_cfa_offset 16
	popq	%rbx
	.cfi_def_cfa_offset 8
	ret
	.p2align 4,,10
	.p2align 3
.L1548:
	.cfi_restore_state
	lock addl	$1, 8(%rax)
	jmp	.L1528
	.p2align 4,,10
	.p2align 3
.L1532:
	movl	8(%rbx), %edx
	leal	-1(%rdx), %ecx
	cmpl	$1, %edx
	movl	%ecx, 8(%rbx)
	jne	.L1527
	movq	(%rbx), %rdx
	movb	%al, 15(%rsp)
	movq	%rbx, %rdi
	call	*16(%rdx)
	movl	12(%rbx), %edx
	movzbl	15(%rsp), %eax
	leal	-1(%rdx), %ecx
	movl	%ecx, 12(%rbx)
	jmp	.L1538
	.p2align 4,,10
	.p2align 3
.L1549:
	movq	(%rbx), %rdx
	movb	%al, 15(%rsp)
	movq	%rbx, %rdi
	call	*16(%rdx)
	movl	$-1, %edx
	lock xaddl	%edx, 12(%rbx)
	movzbl	15(%rsp), %eax
.L1538:
	cmpl	$1, %edx
	jne	.L1527
	movq	(%rbx), %rdx
	movb	%al, 15(%rsp)
	movq	%rbx, %rdi
	call	*24(%rdx)
	movzbl	15(%rsp), %eax
	jmp	.L1527
.L1550:
	call	__stack_chk_fail@PLT
.L1540:
	movq	24(%rsp), %rdi
	movq	%rax, %rbx
	testq	%rdi, %rdi
	je	.L1537
	call	_ZNSt16_Sp_counted_baseILN9__gnu_cxx12_Lock_policyE2EE10_M_releaseEv@PLT
.L1537:
	movq	%rbx, %rdi
.LEHB15:
	call	_Unwind_Resume@PLT
.LEHE15:
	.cfi_endproc
.LFE9967:
	.section	.gcc_except_table
.LLSDA9967:
	.byte	0xff
	.byte	0xff
	.byte	0x1
	.uleb128 .LLSDACSE9967-.LLSDACSB9967
.LLSDACSB9967:
	.uleb128 .LEHB14-.LFB9967
	.uleb128 .LEHE14-.LEHB14
	.uleb128 .L1540-.LFB9967
	.uleb128 0
	.uleb128 .LEHB15-.LFB9967
	.uleb128 .LEHE15-.LEHB15
	.uleb128 0
	.uleb128 0
.LLSDACSE9967:
	.text
	.size	_ZNSt17_Function_handlerIFbvEZN8asiodnp315OutstationStack6EnableEvEUlvE_E9_M_invokeERKSt9_Any_data, .-_ZNSt17_Function_handlerIFbvEZN8asiodnp315OutstationStack6EnableEvEUlvE_E9_M_invokeERKSt9_Any_data
	.p2align 4,,15
	.type	_ZNSt17_Function_handlerIFbvEZN8asiodnp315OutstationStack7DisableEvEUlvE_E9_M_invokeERKSt9_Any_data, @function
_ZNSt17_Function_handlerIFbvEZN8asiodnp315OutstationStack7DisableEvEUlvE_E9_M_invokeERKSt9_Any_data:
.LFB9988:
	.cfi_startproc
	.cfi_personality 0x9b,DW.ref.__gxx_personality_v0
	.cfi_lsda 0x1b,.LLSDA9988
	pushq	%rbx
	.cfi_def_cfa_offset 16
	.cfi_offset 3, -16
	subq	$48, %rsp
	.cfi_def_cfa_offset 64
	movq	(%rdi), %rdx
	movq	%fs:40, %rax
	movq	%rax, 40(%rsp)
	xorl	%eax, %eax
	movq	(%rdx), %rax
	movq	88(%rax), %rdi
	addq	$8, %rax
	movq	%rax, 16(%rsp)
	movq	8(%rdx), %rax
	testq	%rax, %rax
	movq	%rax, 24(%rsp)
	je	.L1552
	cmpq	$0, _ZL28__gthrw___pthread_key_createPjPFvPvE@GOTPCREL(%rip)
	jne	.L1572
	addl	$1, 8(%rax)
.L1552:
	leaq	16(%rsp), %rsi
.LEHB16:
	call	_ZN8asiodnp39IOHandler7DisableERKSt10shared_ptrIN8opendnp312ILinkSessionEE@PLT
.LEHE16:
	movq	24(%rsp), %rbx
	testq	%rbx, %rbx
	je	.L1551
	cmpq	$0, _ZL28__gthrw___pthread_key_createPjPFvPvE@GOTPCREL(%rip)
	je	.L1556
	lock subl	$1, 8(%rbx)
	je	.L1573
.L1551:
	movq	40(%rsp), %rcx
	xorq	%fs:40, %rcx
	jne	.L1574
	addq	$48, %rsp
	.cfi_remember_state
	.cfi_def_cfa_offset 16
	popq	%rbx
	.cfi_def_cfa_offset 8
	ret
	.p2align 4,,10
	.p2align 3
.L1572:
	.cfi_restore_state
	lock addl	$1, 8(%rax)
	jmp	.L1552
	.p2align 4,,10
	.p2align 3
.L1556:
	movl	8(%rbx), %edx
	leal	-1(%rdx), %ecx
	cmpl	$1, %edx
	movl	%ecx, 8(%rbx)
	jne	.L1551
	movq	(%rbx), %rdx
	movb	%al, 15(%rsp)
	movq	%rbx, %rdi
	call	*16(%rdx)
	movl	12(%rbx), %edx
	movzbl	15(%rsp), %eax
	leal	-1(%rdx), %ecx
	movl	%ecx, 12(%rbx)
	jmp	.L1562
	.p2align 4,,10
	.p2align 3
.L1573:
	movq	(%rbx), %rdx
	movb	%al, 15(%rsp)
	movq	%rbx, %rdi
	call	*16(%rdx)
	movl	$-1, %edx
	lock xaddl	%edx, 12(%rbx)
	movzbl	15(%rsp), %eax
.L1562:
	cmpl	$1, %edx
	jne	.L1551
	movq	(%rbx), %rdx
	movb	%al, 15(%rsp)
	movq	%rbx, %rdi
	call	*24(%rdx)
	movzbl	15(%rsp), %eax
	jmp	.L1551
.L1574:
	call	__stack_chk_fail@PLT
.L1564:
	movq	24(%rsp), %rdi
	movq	%rax, %rbx
	testq	%rdi, %rdi
	je	.L1561
	call	_ZNSt16_Sp_counted_baseILN9__gnu_cxx12_Lock_policyE2EE10_M_releaseEv@PLT
.L1561:
	movq	%rbx, %rdi
.LEHB17:
	call	_Unwind_Resume@PLT
.LEHE17:
	.cfi_endproc
.LFE9988:
	.section	.gcc_except_table
.LLSDA9988:
	.byte	0xff
	.byte	0xff
	.byte	0x1
	.uleb128 .LLSDACSE9988-.LLSDACSB9988
.LLSDACSB9988:
	.uleb128 .LEHB16-.LFB9988
	.uleb128 .LEHE16-.LEHB16
	.uleb128 .L1564-.LFB9988
	.uleb128 0
	.uleb128 .LEHB17-.LFB9988
	.uleb128 .LEHE17-.LEHB17
	.uleb128 0
	.uleb128 0
.LLSDACSE9988:
	.text
	.size	_ZNSt17_Function_handlerIFbvEZN8asiodnp315OutstationStack7DisableEvEUlvE_E9_M_invokeERKSt9_Any_data, .-_ZNSt17_Function_handlerIFbvEZN8asiodnp315OutstationStack7DisableEvEUlvE_E9_M_invokeERKSt9_Any_data
	.align 2
	.p2align 4,,15
	.globl	_ZN8asiodnp315OutstationStack13SetLogFiltersERKN7openpal10LogFiltersE
	.type	_ZN8asiodnp315OutstationStack13SetLogFiltersERKN7openpal10LogFiltersE, @function
_ZN8asiodnp315OutstationStack13SetLogFiltersERKN7openpal10LogFiltersE:
.LFB8272:
	.cfi_startproc
	.cfi_personality 0x9b,DW.ref.__gxx_personality_v0
	.cfi_lsda 0x1b,.LLSDA8272
	pushq	%r15
	.cfi_def_cfa_offset 16
	.cfi_offset 15, -16
	pushq	%r14
	.cfi_def_cfa_offset 24
	.cfi_offset 14, -24
	pushq	%r13
	.cfi_def_cfa_offset 32
	.cfi_offset 13, -32
	pushq	%r12
	.cfi_def_cfa_offset 40
	.cfi_offset 12, -40
	pushq	%rbp
	.cfi_def_cfa_offset 48
	.cfi_offset 6, -48
	pushq	%rbx
	.cfi_def_cfa_offset 56
	.cfi_offset 3, -56
	subq	$88, %rsp
	.cfi_def_cfa_offset 144
	movq	32(%rdi), %rbx
	movq	%fs:40, %rax
	movq	%rax, 72(%rsp)
	xorl	%eax, %eax
	testq	%rbx, %rbx
	je	.L1576
	movl	8(%rbx), %eax
	leaq	8(%rbx), %r12
	testl	%eax, %eax
	je	.L1576
.L1660:
	leal	1(%rax), %edx
	lock cmpxchgl	%edx, (%r12)
	jne	.L1666
	cmpq	$0, _ZL28__gthrw___pthread_key_createPjPFvPvE@GOTPCREL(%rip)
	movq	24(%rdi), %rdx
	movl	(%rsi), %eax
	movq	72(%rdi), %rbp
	movq	%rbx, 40(%rsp)
	movq	%rdx, 32(%rsp)
	jne	.L1667
	addl	$1, 8(%rbx)
	movq	%rbx, %r13
.L1582:
	leaq	32(%rsp), %rdi
	movl	%eax, 48(%rsp)
	xorl	%eax, %eax
	movq	40(%rbp), %r14
	call	_ZN4asio28asio_handler_is_continuationEz@PLT
	movb	%al, 15(%rsp)
	.byte	0x66
	leaq	_ZN4asio6detail15keyword_tss_ptrINS0_10call_stackINS0_15task_io_serviceENS0_27task_io_service_thread_infoEE7contextEE6value_E@tlsgd(%rip), %rdi
	.value	0x6666
	rex64
	call	__tls_get_addr@PLT
	movq	(%rax), %rax
	testq	%rax, %rax
	je	.L1583
	movq	8(%rax), %rax
	testq	%rax, %rax
	je	.L1583
	movq	(%rax), %r15
	testq	%r15, %r15
	je	.L1583
	movq	$0, (%rax)
	movzbl	(%r15), %eax
	cmpb	$47, %al
	jbe	.L1584
	movb	%al, 48(%r15)
	jmp	.L1585
	.p2align 4,,10
	.p2align 3
.L1584:
	movq	%r15, %rdi
	call	_ZdlPv@PLT
.L1583:
	movl	$49, %edi
.LEHB18:
	call	_Znwm@PLT
.LEHE18:
	movq	%rax, %r15
	movb	$48, 48(%rax)
.L1585:
	leaq	_ZN4asio6detail18completion_handlerIZN8asiodnp315OutstationStack13SetLogFiltersERKN7openpal10LogFiltersEEUlvE_E11do_completeEPNS0_15task_io_serviceEPNS0_25task_io_service_operationERKSt10error_codem(%rip), %rax
	pxor	%xmm0, %xmm0
	movq	$0, (%r15)
	movl	$0, 16(%r15)
	movq	%rax, 8(%r15)
	movq	32(%rsp), %rax
	movq	%r13, 32(%r15)
	movaps	%xmm0, 32(%rsp)
	movq	%rax, 24(%r15)
	movl	48(%rsp), %eax
	movl	%eax, 40(%r15)
	movq	48(%rbp), %rax
	leaq	24(%rax), %rdi
	call	pthread_mutex_lock@PLT
	movq	48(%rbp), %rdi
	cmpb	$0, 64(%rdi)
	je	.L1668
	cmpq	$0, 80(%rdi)
	movq	$0, (%r15)
	je	.L1586
	movq	80(%rdi), %rax
	movq	%r15, (%rax)
	movq	%r15, 80(%rdi)
.L1587:
	addq	$24, %rdi
	call	pthread_mutex_unlock@PLT
.L1605:
	cmpq	$0, _ZL28__gthrw___pthread_key_createPjPFvPvE@GOTPCREL(%rip)
	je	.L1612
.L1611:
	lock subl	$1, (%r12)
	je	.L1669
.L1575:
	movq	72(%rsp), %rax
	xorq	%fs:40, %rax
	jne	.L1670
	addq	$88, %rsp
	.cfi_remember_state
	.cfi_def_cfa_offset 56
	popq	%rbx
	.cfi_def_cfa_offset 48
	popq	%rbp
	.cfi_def_cfa_offset 40
	popq	%r12
	.cfi_def_cfa_offset 32
	popq	%r13
	.cfi_def_cfa_offset 24
	popq	%r14
	.cfi_def_cfa_offset 16
	popq	%r15
	.cfi_def_cfa_offset 8
	ret
	.p2align 4,,10
	.p2align 3
.L1586:
	.cfi_restore_state
	movq	%r15, 80(%rdi)
	movq	%r15, 72(%rdi)
	jmp	.L1587
	.p2align 4,,10
	.p2align 3
.L1667:
	lock addl	$1, (%r12)
	movq	40(%rsp), %r13
	jmp	.L1582
	.p2align 4,,10
	.p2align 3
.L1668:
	movb	$1, 64(%rdi)
	movq	48(%rbp), %rax
	leaq	24(%rax), %rdi
	call	pthread_mutex_unlock@PLT
	movq	48(%rbp), %r13
	movq	$0, (%r15)
	cmpq	$0, 96(%r13)
	je	.L1589
	movq	96(%r13), %rax
	movq	%r15, (%rax)
	movq	%r15, 96(%r13)
.L1590:
	movq	40(%r14), %rbp
	cmpb	$0, 40(%rbp)
	jne	.L1625
	cmpb	$0, 15(%rsp)
	je	.L1591
.L1625:
	.byte	0x66
	leaq	_ZN4asio6detail15keyword_tss_ptrINS0_10call_stackINS0_15task_io_serviceENS0_27task_io_service_thread_infoEE7contextEE6value_E@tlsgd(%rip), %rdi
	.value	0x6666
	rex64
	call	__tls_get_addr@PLT
	movq	(%rax), %rax
	testq	%rax, %rax
	jne	.L1661
	jmp	.L1591
	.p2align 4,,10
	.p2align 3
.L1594:
	movq	16(%rax), %rax
	testq	%rax, %rax
	je	.L1591
.L1661:
	cmpq	(%rax), %rbp
	jne	.L1594
	movq	8(%rax), %rax
	testq	%rax, %rax
	je	.L1591
	addq	$1, 24(%rax)
	cmpq	$0, 16(%rax)
	movq	$0, 0(%r13)
	je	.L1597
	movq	16(%rax), %rdx
	movq	40(%rsp), %rbp
	movq	%r13, (%rdx)
	movq	%r13, 16(%rax)
.L1598:
	testq	%rbp, %rbp
	je	.L1605
	cmpq	$0, _ZL28__gthrw___pthread_key_createPjPFvPvE@GOTPCREL(%rip)
	je	.L1606
	lock subl	$1, 8(%rbp)
	jne	.L1611
	movq	0(%rbp), %rax
	movq	%rbp, %rdi
	call	*16(%rax)
	movl	$-1, %eax
	lock xaddl	%eax, 12(%rbp)
.L1621:
	cmpl	$1, %eax
	jne	.L1605
	movq	0(%rbp), %rax
	movq	%rbp, %rdi
	call	*24(%rax)
	jmp	.L1605
	.p2align 4,,10
	.p2align 3
.L1606:
	movl	8(%rbp), %eax
	leal	-1(%rax), %edx
	cmpl	$1, %eax
	movl	%edx, 8(%rbp)
	je	.L1671
.L1612:
	movl	8(%rbx), %eax
	leal	-1(%rax), %edx
	cmpl	$1, %eax
	movl	%edx, 8(%rbx)
	jne	.L1575
	movq	(%rbx), %rax
	movq	%rbx, %rdi
	call	*16(%rax)
	movl	12(%rbx), %eax
	leal	-1(%rax), %edx
	movl	%edx, 12(%rbx)
	jmp	.L1622
	.p2align 4,,10
	.p2align 3
.L1591:
	lock addq	$1, 184(%rbp)
	leaq	48(%rbp), %r14
	movq	%r14, %rdi
	call	pthread_mutex_lock@PLT
	cmpq	$0, 200(%rbp)
	movq	$0, 0(%r13)
	je	.L1599
	movq	200(%rbp), %rax
	movq	%r13, (%rax)
	movq	%r13, 200(%rbp)
.L1600:
	movq	136(%rbp), %rax
	orq	$1, %rax
	cmpq	$1, %rax
	movq	%rax, 136(%rbp)
	jne	.L1672
	cmpb	$0, 176(%rbp)
	jne	.L1603
	movq	144(%rbp), %rax
	testq	%rax, %rax
	je	.L1603
	leaq	88(%rax), %rdx
	movb	$1, 176(%rbp)
	movl	96(%rax), %edi
	leaq	20(%rsp), %rcx
	movl	$3, %esi
	movl	$-2147483639, 20(%rsp)
	movq	%rdx, 24(%rsp)
	movl	88(%rax), %edx
	call	epoll_ctl@PLT
.L1603:
	movq	%r14, %rdi
	call	pthread_mutex_unlock@PLT
.L1602:
	movq	40(%rsp), %rbp
	jmp	.L1598
	.p2align 4,,10
	.p2align 3
.L1589:
	movq	%r15, 96(%r13)
	movq	%r15, 88(%r13)
	jmp	.L1590
	.p2align 4,,10
	.p2align 3
.L1672:
	movq	%r14, %rdi
	call	pthread_mutex_unlock@PLT
	leaq	88(%rbp), %rdi
	call	pthread_cond_signal@PLT
	jmp	.L1602
	.p2align 4,,10
	.p2align 3
.L1669:
	movq	(%rbx), %rax
	movq	%rbx, %rdi
	call	*16(%rax)
	movl	$-1, %eax
	lock xaddl	%eax, 12(%rbx)
.L1622:
	cmpl	$1, %eax
	jne	.L1575
	movq	(%rbx), %rax
	movq	%rbx, %rdi
	call	*24(%rax)
	jmp	.L1575
	.p2align 4,,10
	.p2align 3
.L1597:
	movq	%r13, 16(%rax)
	movq	%r13, 8(%rax)
	movq	40(%rsp), %rbp
	jmp	.L1598
	.p2align 4,,10
	.p2align 3
.L1671:
	movq	0(%rbp), %rax
	movq	%rbp, %rdi
	call	*16(%rax)
	movl	12(%rbp), %eax
	leal	-1(%rax), %edx
	movl	%edx, 12(%rbp)
	jmp	.L1621
	.p2align 4,,10
	.p2align 3
.L1599:
	movq	%r13, 200(%rbp)
	movq	%r13, 192(%rbp)
	jmp	.L1600
.L1666:
	testl	%eax, %eax
	jne	.L1660
.L1576:
.LEHB19:
	call	_ZSt20__throw_bad_weak_ptrv@PLT
.L1670:
	call	__stack_chk_fail@PLT
.L1624:
	testq	%r13, %r13
	movq	%rax, %rbp
	je	.L1614
	movq	%r13, %rdi
	call	_ZNSt16_Sp_counted_baseILN9__gnu_cxx12_Lock_policyE2EE10_M_releaseEv@PLT
.L1614:
	movq	%rbx, %rdi
	call	_ZNSt16_Sp_counted_baseILN9__gnu_cxx12_Lock_policyE2EE10_M_releaseEv@PLT
	movq	%rbp, %rdi
	call	_Unwind_Resume@PLT
.LEHE19:
	.cfi_endproc
.LFE8272:
	.section	.gcc_except_table
.LLSDA8272:
	.byte	0xff
	.byte	0xff
	.byte	0x1
	.uleb128 .LLSDACSE8272-.LLSDACSB8272
.LLSDACSB8272:
	.uleb128 .LEHB18-.LFB8272
	.uleb128 .LEHE18-.LEHB18
	.uleb128 .L1624-.LFB8272
	.uleb128 0
	.uleb128 .LEHB19-.LFB8272
	.uleb128 .LEHE19-.LEHB19
	.uleb128 0
	.uleb128 0
.LLSDACSE8272:
	.text
	.size	_ZN8asiodnp315OutstationStack13SetLogFiltersERKN7openpal10LogFiltersE, .-_ZN8asiodnp315OutstationStack13SetLogFiltersERKN7openpal10LogFiltersE
	.align 2
	.p2align 4,,15
	.globl	_ZN8asiodnp315OutstationStack13SetRestartIINEv
	.type	_ZN8asiodnp315OutstationStack13SetRestartIINEv, @function
_ZN8asiodnp315OutstationStack13SetRestartIINEv:
.LFB8280:
	.cfi_startproc
	.cfi_personality 0x9b,DW.ref.__gxx_personality_v0
	.cfi_lsda 0x1b,.LLSDA8280
	pushq	%r15
	.cfi_def_cfa_offset 16
	.cfi_offset 15, -16
	pushq	%r14
	.cfi_def_cfa_offset 24
	.cfi_offset 14, -24
	pushq	%r13
	.cfi_def_cfa_offset 32
	.cfi_offset 13, -32
	pushq	%r12
	.cfi_def_cfa_offset 40
	.cfi_offset 12, -40
	pushq	%rbp
	.cfi_def_cfa_offset 48
	.cfi_offset 6, -48
	pushq	%rbx
	.cfi_def_cfa_offset 56
	.cfi_offset 3, -56
	subq	$72, %rsp
	.cfi_def_cfa_offset 128
	movq	32(%rdi), %rbx
	movq	%fs:40, %rax
	movq	%rax, 56(%rsp)
	xorl	%eax, %eax
	testq	%rbx, %rbx
	je	.L1674
	movl	8(%rbx), %eax
	leaq	8(%rbx), %r12
	testl	%eax, %eax
	je	.L1674
.L1758:
	leal	1(%rax), %edx
	lock cmpxchgl	%edx, (%r12)
	jne	.L1764
	cmpq	$0, _ZL28__gthrw___pthread_key_createPjPFvPvE@GOTPCREL(%rip)
	movq	24(%rdi), %rax
	movq	72(%rdi), %rbp
	movq	%rbx, 40(%rsp)
	movq	%rax, 32(%rsp)
	jne	.L1765
	addl	$1, 8(%rbx)
	movq	%rbx, %r13
.L1680:
	leaq	32(%rsp), %rdi
	xorl	%eax, %eax
	movq	40(%rbp), %r14
	call	_ZN4asio28asio_handler_is_continuationEz@PLT
	movb	%al, 15(%rsp)
	.byte	0x66
	leaq	_ZN4asio6detail15keyword_tss_ptrINS0_10call_stackINS0_15task_io_serviceENS0_27task_io_service_thread_infoEE7contextEE6value_E@tlsgd(%rip), %rdi
	.value	0x6666
	rex64
	call	__tls_get_addr@PLT
	movq	(%rax), %rax
	testq	%rax, %rax
	je	.L1681
	movq	8(%rax), %rax
	testq	%rax, %rax
	je	.L1681
	movq	(%rax), %r15
	testq	%r15, %r15
	je	.L1681
	movq	$0, (%rax)
	movzbl	(%r15), %eax
	cmpb	$39, %al
	jbe	.L1682
	movb	%al, 40(%r15)
	jmp	.L1683
	.p2align 4,,10
	.p2align 3
.L1682:
	movq	%r15, %rdi
	call	_ZdlPv@PLT
.L1681:
	movl	$41, %edi
.LEHB20:
	call	_Znwm@PLT
.LEHE20:
	movq	%rax, %r15
	movb	$40, 40(%rax)
.L1683:
	leaq	_ZN4asio6detail18completion_handlerIZN8asiodnp315OutstationStack13SetRestartIINEvEUlvE_E11do_completeEPNS0_15task_io_serviceEPNS0_25task_io_service_operationERKSt10error_codem(%rip), %rax
	pxor	%xmm0, %xmm0
	movq	$0, (%r15)
	movl	$0, 16(%r15)
	movq	%rax, 8(%r15)
	movq	32(%rsp), %rax
	movq	%r13, 32(%r15)
	movaps	%xmm0, 32(%rsp)
	movq	%rax, 24(%r15)
	movq	48(%rbp), %rax
	leaq	24(%rax), %rdi
	call	pthread_mutex_lock@PLT
	movq	48(%rbp), %rdi
	cmpb	$0, 64(%rdi)
	je	.L1766
	cmpq	$0, 80(%rdi)
	movq	$0, (%r15)
	je	.L1684
	movq	80(%rdi), %rax
	movq	%r15, (%rax)
	movq	%r15, 80(%rdi)
.L1685:
	addq	$24, %rdi
	call	pthread_mutex_unlock@PLT
.L1703:
	cmpq	$0, _ZL28__gthrw___pthread_key_createPjPFvPvE@GOTPCREL(%rip)
	je	.L1710
.L1709:
	lock subl	$1, (%r12)
	je	.L1767
.L1673:
	movq	56(%rsp), %rax
	xorq	%fs:40, %rax
	jne	.L1768
	addq	$72, %rsp
	.cfi_remember_state
	.cfi_def_cfa_offset 56
	popq	%rbx
	.cfi_def_cfa_offset 48
	popq	%rbp
	.cfi_def_cfa_offset 40
	popq	%r12
	.cfi_def_cfa_offset 32
	popq	%r13
	.cfi_def_cfa_offset 24
	popq	%r14
	.cfi_def_cfa_offset 16
	popq	%r15
	.cfi_def_cfa_offset 8
	ret
	.p2align 4,,10
	.p2align 3
.L1684:
	.cfi_restore_state
	movq	%r15, 80(%rdi)
	movq	%r15, 72(%rdi)
	jmp	.L1685
	.p2align 4,,10
	.p2align 3
.L1765:
	lock addl	$1, (%r12)
	movq	40(%rsp), %r13
	jmp	.L1680
	.p2align 4,,10
	.p2align 3
.L1766:
	movb	$1, 64(%rdi)
	movq	48(%rbp), %rax
	leaq	24(%rax), %rdi
	call	pthread_mutex_unlock@PLT
	movq	48(%rbp), %r13
	movq	$0, (%r15)
	cmpq	$0, 96(%r13)
	je	.L1687
	movq	96(%r13), %rax
	movq	%r15, (%rax)
	movq	%r15, 96(%r13)
.L1688:
	movq	40(%r14), %rbp
	cmpb	$0, 40(%rbp)
	jne	.L1723
	cmpb	$0, 15(%rsp)
	je	.L1689
.L1723:
	.byte	0x66
	leaq	_ZN4asio6detail15keyword_tss_ptrINS0_10call_stackINS0_15task_io_serviceENS0_27task_io_service_thread_infoEE7contextEE6value_E@tlsgd(%rip), %rdi
	.value	0x6666
	rex64
	call	__tls_get_addr@PLT
	movq	(%rax), %rax
	testq	%rax, %rax
	jne	.L1759
	jmp	.L1689
	.p2align 4,,10
	.p2align 3
.L1692:
	movq	16(%rax), %rax
	testq	%rax, %rax
	je	.L1689
.L1759:
	cmpq	(%rax), %rbp
	jne	.L1692
	movq	8(%rax), %rax
	testq	%rax, %rax
	je	.L1689
	addq	$1, 24(%rax)
	cmpq	$0, 16(%rax)
	movq	$0, 0(%r13)
	je	.L1695
	movq	16(%rax), %rdx
	movq	40(%rsp), %rbp
	movq	%r13, (%rdx)
	movq	%r13, 16(%rax)
.L1696:
	testq	%rbp, %rbp
	je	.L1703
	cmpq	$0, _ZL28__gthrw___pthread_key_createPjPFvPvE@GOTPCREL(%rip)
	je	.L1704
	lock subl	$1, 8(%rbp)
	jne	.L1709
	movq	0(%rbp), %rax
	movq	%rbp, %rdi
	call	*16(%rax)
	movl	$-1, %eax
	lock xaddl	%eax, 12(%rbp)
.L1719:
	cmpl	$1, %eax
	jne	.L1703
	movq	0(%rbp), %rax
	movq	%rbp, %rdi
	call	*24(%rax)
	jmp	.L1703
	.p2align 4,,10
	.p2align 3
.L1704:
	movl	8(%rbp), %eax
	leal	-1(%rax), %edx
	cmpl	$1, %eax
	movl	%edx, 8(%rbp)
	je	.L1769
.L1710:
	movl	8(%rbx), %eax
	leal	-1(%rax), %edx
	cmpl	$1, %eax
	movl	%edx, 8(%rbx)
	jne	.L1673
	movq	(%rbx), %rax
	movq	%rbx, %rdi
	call	*16(%rax)
	movl	12(%rbx), %eax
	leal	-1(%rax), %edx
	movl	%edx, 12(%rbx)
	jmp	.L1720
	.p2align 4,,10
	.p2align 3
.L1689:
	lock addq	$1, 184(%rbp)
	leaq	48(%rbp), %r14
	movq	%r14, %rdi
	call	pthread_mutex_lock@PLT
	cmpq	$0, 200(%rbp)
	movq	$0, 0(%r13)
	je	.L1697
	movq	200(%rbp), %rax
	movq	%r13, (%rax)
	movq	%r13, 200(%rbp)
.L1698:
	movq	136(%rbp), %rax
	orq	$1, %rax
	cmpq	$1, %rax
	movq	%rax, 136(%rbp)
	jne	.L1770
	cmpb	$0, 176(%rbp)
	jne	.L1701
	movq	144(%rbp), %rax
	testq	%rax, %rax
	je	.L1701
	leaq	88(%rax), %rdx
	movb	$1, 176(%rbp)
	movl	96(%rax), %edi
	leaq	20(%rsp), %rcx
	movl	$3, %esi
	movl	$-2147483639, 20(%rsp)
	movq	%rdx, 24(%rsp)
	movl	88(%rax), %edx
	call	epoll_ctl@PLT
.L1701:
	movq	%r14, %rdi
	call	pthread_mutex_unlock@PLT
.L1700:
	movq	40(%rsp), %rbp
	jmp	.L1696
	.p2align 4,,10
	.p2align 3
.L1687:
	movq	%r15, 96(%r13)
	movq	%r15, 88(%r13)
	jmp	.L1688
	.p2align 4,,10
	.p2align 3
.L1770:
	movq	%r14, %rdi
	call	pthread_mutex_unlock@PLT
	leaq	88(%rbp), %rdi
	call	pthread_cond_signal@PLT
	jmp	.L1700
	.p2align 4,,10
	.p2align 3
.L1767:
	movq	(%rbx), %rax
	movq	%rbx, %rdi
	call	*16(%rax)
	movl	$-1, %eax
	lock xaddl	%eax, 12(%rbx)
.L1720:
	cmpl	$1, %eax
	jne	.L1673
	movq	(%rbx), %rax
	movq	%rbx, %rdi
	call	*24(%rax)
	jmp	.L1673
	.p2align 4,,10
	.p2align 3
.L1695:
	movq	%r13, 16(%rax)
	movq	%r13, 8(%rax)
	movq	40(%rsp), %rbp
	jmp	.L1696
	.p2align 4,,10
	.p2align 3
.L1769:
	movq	0(%rbp), %rax
	movq	%rbp, %rdi
	call	*16(%rax)
	movl	12(%rbp), %eax
	leal	-1(%rax), %edx
	movl	%edx, 12(%rbp)
	jmp	.L1719
	.p2align 4,,10
	.p2align 3
.L1697:
	movq	%r13, 200(%rbp)
	movq	%r13, 192(%rbp)
	jmp	.L1698
.L1764:
	testl	%eax, %eax
	jne	.L1758
.L1674:
.LEHB21:
	call	_ZSt20__throw_bad_weak_ptrv@PLT
.L1768:
	call	__stack_chk_fail@PLT
.L1722:
	testq	%r13, %r13
	movq	%rax, %rbp
	je	.L1712
	movq	%r13, %rdi
	call	_ZNSt16_Sp_counted_baseILN9__gnu_cxx12_Lock_policyE2EE10_M_releaseEv@PLT
.L1712:
	movq	%rbx, %rdi
	call	_ZNSt16_Sp_counted_baseILN9__gnu_cxx12_Lock_policyE2EE10_M_releaseEv@PLT
	movq	%rbp, %rdi
	call	_Unwind_Resume@PLT
.LEHE21:
	.cfi_endproc
.LFE8280:
	.section	.gcc_except_table
.LLSDA8280:
	.byte	0xff
	.byte	0xff
	.byte	0x1
	.uleb128 .LLSDACSE8280-.LLSDACSB8280
.LLSDACSB8280:
	.uleb128 .LEHB20-.LFB8280
	.uleb128 .LEHE20-.LEHB20
	.uleb128 .L1722-.LFB8280
	.uleb128 0
	.uleb128 .LEHB21-.LFB8280
	.uleb128 .LEHE21-.LEHB21
	.uleb128 0
	.uleb128 0
.LLSDACSE8280:
	.text
	.size	_ZN8asiodnp315OutstationStack13SetRestartIINEv, .-_ZN8asiodnp315OutstationStack13SetRestartIINEv
	.section	.text._ZN8asiodnp315OutstationStack13BeginTransmitERKN7openpal6RSliceERN8opendnp312ILinkSessionE,"axG",@progbits,_ZN8asiodnp315OutstationStack13BeginTransmitERKN7openpal6RSliceERN8opendnp312ILinkSessionE,comdat
	.align 2
	.p2align 4,,15
	.weak	_ZN8asiodnp315OutstationStack13BeginTransmitERKN7openpal6RSliceERN8opendnp312ILinkSessionE
	.type	_ZN8asiodnp315OutstationStack13BeginTransmitERKN7openpal6RSliceERN8opendnp312ILinkSessionE, @function
_ZN8asiodnp315OutstationStack13BeginTransmitERKN7openpal6RSliceERN8opendnp312ILinkSessionE:
.LFB8173:
	.cfi_startproc
	.cfi_personality 0x9b,DW.ref.__gxx_personality_v0
	.cfi_lsda 0x1b,.LLSDA8173
	pushq	%rbx
	.cfi_def_cfa_offset 16
	.cfi_offset 3, -16
	movq	%rdi, %r8
	subq	$32, %rsp
	.cfi_def_cfa_offset 48
	movq	32(%r8), %rcx
	movq	88(%rdi), %rdi
	movq	%fs:40, %rax
	movq	%rax, 24(%rsp)
	xorl	%eax, %eax
	testq	%rcx, %rcx
	je	.L1772
	movl	8(%rcx), %eax
	leaq	8(%rcx), %r9
	testl	%eax, %eax
	je	.L1772
	movq	%rsi, %rdx
	leal	1(%rax), %esi
	lock cmpxchgl	%esi, (%r9)
	jne	.L1775
.L1774:
	movq	24(%r8), %r8
	movl	$0, %esi
	movq	%rcx, 8(%rsp)
	leaq	8(%r8), %rax
	testq	%r8, %r8
	cmove	%rsi, %rax
	movq	%rsp, %rsi
	movq	%rax, (%rsp)
.LEHB22:
	call	_ZN8asiodnp39IOHandler13BeginTransmitERKSt10shared_ptrIN8opendnp312ILinkSessionEERKN7openpal6RSliceE@PLT
.LEHE22:
	movq	8(%rsp), %rbx
	testq	%rbx, %rbx
	je	.L1771
	cmpq	$0, _ZL28__gthrw___pthread_key_createPjPFvPvE@GOTPCREL(%rip)
	je	.L1780
	lock subl	$1, 8(%rbx)
	je	.L1804
.L1771:
	movq	24(%rsp), %rax
	xorq	%fs:40, %rax
	jne	.L1805
	addq	$32, %rsp
	.cfi_remember_state
	.cfi_def_cfa_offset 16
	popq	%rbx
	.cfi_def_cfa_offset 8
	ret
	.p2align 4,,10
	.p2align 3
.L1780:
	.cfi_restore_state
	movl	8(%rbx), %eax
	leal	-1(%rax), %edx
	cmpl	$1, %eax
	movl	%edx, 8(%rbx)
	jne	.L1771
	movq	(%rbx), %rax
	movq	%rbx, %rdi
	call	*16(%rax)
	movl	12(%rbx), %eax
	leal	-1(%rax), %edx
	movl	%edx, 12(%rbx)
	jmp	.L1786
	.p2align 4,,10
	.p2align 3
.L1804:
	movq	(%rbx), %rax
	movq	%rbx, %rdi
	call	*16(%rax)
	movl	$-1, %eax
	lock xaddl	%eax, 12(%rbx)
.L1786:
	cmpl	$1, %eax
	jne	.L1771
	movq	(%rbx), %rax
	movq	%rbx, %rdi
	call	*24(%rax)
	jmp	.L1771
.L1772:
.LEHB23:
	call	_ZSt20__throw_bad_weak_ptrv@PLT
.L1775:
	testl	%eax, %eax
	je	.L1772
	leal	1(%rax), %esi
	lock cmpxchgl	%esi, (%r9)
	je	.L1774
	jmp	.L1775
.L1805:
	call	__stack_chk_fail@PLT
.L1789:
	movq	8(%rsp), %rdi
	movq	%rax, %rbx
	testq	%rdi, %rdi
	je	.L1785
	call	_ZNSt16_Sp_counted_baseILN9__gnu_cxx12_Lock_policyE2EE10_M_releaseEv@PLT
.L1785:
	movq	%rbx, %rdi
	call	_Unwind_Resume@PLT
.LEHE23:
	.cfi_endproc
.LFE8173:
	.section	.gcc_except_table
.LLSDA8173:
	.byte	0xff
	.byte	0xff
	.byte	0x1
	.uleb128 .LLSDACSE8173-.LLSDACSB8173
.LLSDACSB8173:
	.uleb128 .LEHB22-.LFB8173
	.uleb128 .LEHE22-.LEHB22
	.uleb128 .L1789-.LFB8173
	.uleb128 0
	.uleb128 .LEHB23-.LFB8173
	.uleb128 .LEHE23-.LEHB23
	.uleb128 0
	.uleb128 0
.LLSDACSE8173:
	.section	.text._ZN8asiodnp315OutstationStack13BeginTransmitERKN7openpal6RSliceERN8opendnp312ILinkSessionE,"axG",@progbits,_ZN8asiodnp315OutstationStack13BeginTransmitERKN7openpal6RSliceERN8opendnp312ILinkSessionE,comdat
	.size	_ZN8asiodnp315OutstationStack13BeginTransmitERKN7openpal6RSliceERN8opendnp312ILinkSessionE, .-_ZN8asiodnp315OutstationStack13BeginTransmitERKN7openpal6RSliceERN8opendnp312ILinkSessionE
	.text
	.align 2
	.p2align 4,,15
	.globl	_ZN8asiodnp315OutstationStack8ShutdownEv
	.type	_ZN8asiodnp315OutstationStack8ShutdownEv, @function
_ZN8asiodnp315OutstationStack8ShutdownEv:
.LFB8257:
	.cfi_startproc
	.cfi_personality 0x9b,DW.ref.__gxx_personality_v0
	.cfi_lsda 0x1b,.LLSDA8257
	pushq	%r14
	.cfi_def_cfa_offset 16
	.cfi_offset 14, -16
	pushq	%r13
	.cfi_def_cfa_offset 24
	.cfi_offset 13, -24
	pushq	%r12
	.cfi_def_cfa_offset 32
	.cfi_offset 12, -32
	pushq	%rbp
	.cfi_def_cfa_offset 40
	.cfi_offset 6, -40
	pushq	%rbx
	.cfi_def_cfa_offset 48
	.cfi_offset 3, -48
	subq	$48, %rsp
	.cfi_def_cfa_offset 96
	movq	32(%rdi), %rbx
	movq	%fs:40, %rax
	movq	%rax, 40(%rsp)
	xorl	%eax, %eax
	testq	%rbx, %rbx
	je	.L1807
	movl	8(%rbx), %eax
	leaq	8(%rbx), %rbp
	testl	%eax, %eax
	je	.L1807
.L1882:
	leal	1(%rax), %edx
	lock cmpxchgl	%edx, 0(%rbp)
	jne	.L1887
	movq	_ZL28__gthrw___pthread_key_createPjPFvPvE@GOTPCREL(%rip), %r12
	movq	24(%rdi), %r13
	testq	%r12, %r12
	jne	.L1888
	movq	72(%rdi), %r14
	addl	$2, 8(%rbx)
.L1813:
	movl	$16, %edi
	movq	$0, 16(%rsp)
.LEHB24:
	call	_Znwm@PLT
.LEHE24:
	testq	%r12, %r12
	movq	%r13, (%rax)
	movq	%rbx, 8(%rax)
	jne	.L1889
	addl	$1, 8(%rbx)
.L1815:
	movq	_ZNSt14_Function_base13_Base_managerIZN8asiodnp39StackBase15PerformShutdownINS1_15OutstationStackEEEvRKSt10shared_ptrIT_EEUlvE_E10_M_managerERSt9_Any_dataRKSC_St18_Manager_operation@GOTPCREL(%rip), %xmm0
	movq	%rsp, %r13
	movq	%r14, %rdi
	movhps	_ZNSt17_Function_handlerIFvvEZN8asiodnp39StackBase15PerformShutdownINS1_15OutstationStackEEEvRKSt10shared_ptrIT_EEUlvE_E9_M_invokeERKSt9_Any_data@GOTPCREL(%rip), %xmm0
	movq	%r13, %rsi
	movq	%rax, (%rsp)
	movaps	%xmm0, 16(%rsp)
.LEHB25:
	call	_ZN7asiopal8Executor18BlockUntilAndFlushERKSt8functionIFvvEE@PLT
.LEHE25:
	movq	16(%rsp), %rax
	testq	%rax, %rax
	je	.L1820
	movl	$3, %edx
	movq	%r13, %rsi
	movq	%r13, %rdi
	call	*%rax
.L1820:
	testq	%r12, %r12
	je	.L1821
	lock subl	$1, 0(%rbp)
	je	.L1890
.L1841:
	lock subl	$1, 0(%rbp)
	je	.L1891
.L1828:
	testq	%r12, %r12
	je	.L1832
.L1831:
	lock subl	$1, 0(%rbp)
	je	.L1892
.L1806:
	movq	40(%rsp), %rax
	xorq	%fs:40, %rax
	jne	.L1893
	addq	$48, %rsp
	.cfi_remember_state
	.cfi_def_cfa_offset 48
	popq	%rbx
	.cfi_def_cfa_offset 40
	popq	%rbp
	.cfi_def_cfa_offset 32
	popq	%r12
	.cfi_def_cfa_offset 24
	popq	%r13
	.cfi_def_cfa_offset 16
	popq	%r14
	.cfi_def_cfa_offset 8
	ret
	.p2align 4,,10
	.p2align 3
.L1888:
	.cfi_restore_state
	lock addl	$1, 0(%rbp)
	movq	72(%rdi), %r14
	lock addl	$1, 0(%rbp)
	jmp	.L1813
	.p2align 4,,10
	.p2align 3
.L1889:
	lock addl	$1, 0(%rbp)
	jmp	.L1815
	.p2align 4,,10
	.p2align 3
.L1821:
	movl	8(%rbx), %eax
	leal	-1(%rax), %edx
	cmpl	$1, %eax
	movl	%edx, 8(%rbx)
	je	.L1894
.L1826:
	movl	8(%rbx), %eax
	leal	-1(%rax), %edx
	cmpl	$1, %eax
	movl	%edx, 8(%rbx)
	jne	.L1832
	.p2align 4,,10
	.p2align 3
.L1895:
	movq	(%rbx), %rax
	movq	%rbx, %rdi
	call	*16(%rax)
	movl	12(%rbx), %eax
	leal	-1(%rax), %edx
	cmpl	$1, %eax
	movl	%edx, 12(%rbx)
	je	.L1842
	.p2align 4,,10
	.p2align 3
.L1832:
	movl	8(%rbx), %eax
	leal	-1(%rax), %edx
	cmpl	$1, %eax
	movl	%edx, 8(%rbx)
	jne	.L1806
	movq	(%rbx), %rax
	movq	%rbx, %rdi
	call	*16(%rax)
	movl	12(%rbx), %eax
	leal	-1(%rax), %edx
	movl	%edx, 12(%rbx)
.L1845:
	cmpl	$1, %eax
	jne	.L1806
	movq	(%rbx), %rax
	movq	%rbx, %rdi
	call	*24(%rax)
	jmp	.L1806
	.p2align 4,,10
	.p2align 3
.L1890:
	movq	(%rbx), %rax
	movq	%rbx, %rdi
	call	*16(%rax)
	lock subl	$1, 12(%rbx)
	jne	.L1841
	.p2align 4,,10
	.p2align 3
.L1839:
	movq	(%rbx), %rax
	movq	%rbx, %rdi
	call	*24(%rax)
	testq	%r12, %r12
	jne	.L1841
	movl	8(%rbx), %eax
	leal	-1(%rax), %edx
	cmpl	$1, %eax
	movl	%edx, 8(%rbx)
	jne	.L1832
	jmp	.L1895
	.p2align 4,,10
	.p2align 3
.L1894:
	movq	(%rbx), %rax
	movq	%rbx, %rdi
	call	*16(%rax)
	movl	12(%rbx), %eax
	leal	-1(%rax), %edx
	cmpl	$1, %eax
	movl	%edx, 12(%rbx)
	je	.L1839
	jmp	.L1826
	.p2align 4,,10
	.p2align 3
.L1892:
	movq	(%rbx), %rax
	movq	%rbx, %rdi
	call	*16(%rax)
	movl	$-1, %eax
	lock xaddl	%eax, 12(%rbx)
	jmp	.L1845
	.p2align 4,,10
	.p2align 3
.L1891:
	movq	(%rbx), %rax
	movq	%rbx, %rdi
	call	*16(%rax)
	lock subl	$1, 12(%rbx)
	jne	.L1831
.L1842:
	movq	(%rbx), %rax
	movq	%rbx, %rdi
	call	*24(%rax)
	jmp	.L1828
.L1887:
	testl	%eax, %eax
	jne	.L1882
.L1807:
.LEHB26:
	call	_ZSt20__throw_bad_weak_ptrv@PLT
.LEHE26:
.L1893:
	call	__stack_chk_fail@PLT
.L1848:
	movq	%rax, %rbp
	movq	16(%rsp), %rax
	testq	%rax, %rax
	je	.L1819
	movq	%rsp, %rdi
	movl	$3, %edx
	movq	%rdi, %rsi
	call	*%rax
.L1819:
	movq	%rbx, %rdi
	call	_ZNSt16_Sp_counted_baseILN9__gnu_cxx12_Lock_policyE2EE10_M_releaseEv@PLT
	movq	%rbx, %rdi
	call	_ZNSt16_Sp_counted_baseILN9__gnu_cxx12_Lock_policyE2EE10_M_releaseEv@PLT
	movq	%rbx, %rdi
	call	_ZNSt16_Sp_counted_baseILN9__gnu_cxx12_Lock_policyE2EE10_M_releaseEv@PLT
	movq	%rbp, %rdi
.LEHB27:
	call	_Unwind_Resume@PLT
.LEHE27:
.L1847:
	movq	%rax, %rbp
	movq	16(%rsp), %rax
	testq	%rax, %rax
	je	.L1819
	movl	$3, %edx
	movq	%r13, %rsi
	movq	%r13, %rdi
	call	*%rax
	jmp	.L1819
	.cfi_endproc
.LFE8257:
	.section	.gcc_except_table
.LLSDA8257:
	.byte	0xff
	.byte	0xff
	.byte	0x1
	.uleb128 .LLSDACSE8257-.LLSDACSB8257
.LLSDACSB8257:
	.uleb128 .LEHB24-.LFB8257
	.uleb128 .LEHE24-.LEHB24
	.uleb128 .L1848-.LFB8257
	.uleb128 0
	.uleb128 .LEHB25-.LFB8257
	.uleb128 .LEHE25-.LEHB25
	.uleb128 .L1847-.LFB8257
	.uleb128 0
	.uleb128 .LEHB26-.LFB8257
	.uleb128 .LEHE26-.LEHB26
	.uleb128 0
	.uleb128 0
	.uleb128 .LEHB27-.LFB8257
	.uleb128 .LEHE27-.LEHB27
	.uleb128 0
	.uleb128 0
.LLSDACSE8257:
	.text
	.size	_ZN8asiodnp315OutstationStack8ShutdownEv, .-_ZN8asiodnp315OutstationStack8ShutdownEv
	.section	.text._ZNSt14_Function_base13_Base_managerIZN8asiodnp39StackBase15PerformShutdownINS1_15OutstationStackEEEvRKSt10shared_ptrIT_EEUlvE_E10_M_managerERSt9_Any_dataRKSC_St18_Manager_operation,"axG",@progbits,_ZNSt14_Function_base13_Base_managerIZN8asiodnp39StackBase15PerformShutdownINS1_15OutstationStackEEEvRKSt10shared_ptrIT_EEUlvE_E10_M_managerERSt9_Any_dataRKSC_St18_Manager_operation,comdat
	.p2align 4,,15
	.weak	_ZNSt14_Function_base13_Base_managerIZN8asiodnp39StackBase15PerformShutdownINS1_15OutstationStackEEEvRKSt10shared_ptrIT_EEUlvE_E10_M_managerERSt9_Any_dataRKSC_St18_Manager_operation
	.type	_ZNSt14_Function_base13_Base_managerIZN8asiodnp39StackBase15PerformShutdownINS1_15OutstationStackEEEvRKSt10shared_ptrIT_EEUlvE_E10_M_managerERSt9_Any_dataRKSC_St18_Manager_operation, @function
_ZNSt14_Function_base13_Base_managerIZN8asiodnp39StackBase15PerformShutdownINS1_15OutstationStackEEEvRKSt10shared_ptrIT_EEUlvE_E10_M_managerERSt9_Any_dataRKSC_St18_Manager_operation:
.LFB10426:
	.cfi_startproc
	cmpl	$1, %edx
	je	.L1898
	jb	.L1899
	pushq	%rbp
	.cfi_def_cfa_offset 16
	.cfi_offset 6, -16
	pushq	%rbx
	.cfi_def_cfa_offset 24
	.cfi_offset 3, -24
	movq	%rdi, %rbx
	subq	$8, %rsp
	.cfi_def_cfa_offset 32
	cmpl	$2, %edx
	je	.L1900
	cmpl	$3, %edx
	jne	.L1897
	movq	(%rdi), %rbx
	testq	%rbx, %rbx
	je	.L1897
	movq	8(%rbx), %rdi
	testq	%rdi, %rdi
	je	.L1904
	call	_ZNSt16_Sp_counted_baseILN9__gnu_cxx12_Lock_policyE2EE10_M_releaseEv@PLT
.L1904:
	movl	$16, %esi
	movq	%rbx, %rdi
	call	_ZdlPvm@PLT
.L1897:
	addq	$8, %rsp
	.cfi_remember_state
	.cfi_def_cfa_offset 24
	xorl	%eax, %eax
	popq	%rbx
	.cfi_def_cfa_offset 16
	popq	%rbp
	.cfi_def_cfa_offset 8
	ret
	.p2align 4,,10
	.p2align 3
.L1900:
	.cfi_restore_state
	movq	(%rsi), %rbp
	movl	$16, %edi
	call	_Znwm@PLT
	movq	0(%rbp), %rdx
	movq	%rdx, (%rax)
	movq	8(%rbp), %rdx
	testq	%rdx, %rdx
	movq	%rdx, 8(%rax)
	je	.L1902
	cmpq	$0, _ZL28__gthrw___pthread_key_createPjPFvPvE@GOTPCREL(%rip)
	je	.L1903
	lock addl	$1, 8(%rdx)
.L1902:
	movq	%rax, (%rbx)
	addq	$8, %rsp
	.cfi_def_cfa_offset 24
	xorl	%eax, %eax
	popq	%rbx
	.cfi_def_cfa_offset 16
	popq	%rbp
	.cfi_def_cfa_offset 8
	ret
	.p2align 4,,10
	.p2align 3
.L1899:
	.cfi_restore 3
	.cfi_restore 6
	movq	_ZTIZN8asiodnp39StackBase15PerformShutdownINS_15OutstationStackEEEvRKSt10shared_ptrIT_EEUlvE_@GOTPCREL(%rip), %rax
	movq	%rax, (%rdi)
	xorl	%eax, %eax
	ret
	.p2align 4,,10
	.p2align 3
.L1898:
	movq	(%rsi), %rax
	movq	%rax, (%rdi)
	xorl	%eax, %eax
	ret
	.p2align 4,,10
	.p2align 3
.L1903:
	.cfi_def_cfa_offset 32
	.cfi_offset 3, -24
	.cfi_offset 6, -16
	addl	$1, 8(%rdx)
	jmp	.L1902
	.cfi_endproc
.LFE10426:
	.size	_ZNSt14_Function_base13_Base_managerIZN8asiodnp39StackBase15PerformShutdownINS1_15OutstationStackEEEvRKSt10shared_ptrIT_EEUlvE_E10_M_managerERSt9_Any_dataRKSC_St18_Manager_operation, .-_ZNSt14_Function_base13_Base_managerIZN8asiodnp39StackBase15PerformShutdownINS1_15OutstationStackEEEvRKSt10shared_ptrIT_EEUlvE_E10_M_managerERSt9_Any_dataRKSC_St18_Manager_operation
	.section	.text._ZNSt17_Function_handlerIFvvEZN8asiodnp39StackBase15PerformShutdownINS1_15OutstationStackEEEvRKSt10shared_ptrIT_EEUlvE_E9_M_invokeERKSt9_Any_data,"axG",@progbits,_ZNSt17_Function_handlerIFvvEZN8asiodnp39StackBase15PerformShutdownINS1_15OutstationStackEEEvRKSt10shared_ptrIT_EEUlvE_E9_M_invokeERKSt9_Any_data,comdat
	.p2align 4,,15
	.weak	_ZNSt17_Function_handlerIFvvEZN8asiodnp39StackBase15PerformShutdownINS1_15OutstationStackEEEvRKSt10shared_ptrIT_EEUlvE_E9_M_invokeERKSt9_Any_data
	.type	_ZNSt17_Function_handlerIFvvEZN8asiodnp39StackBase15PerformShutdownINS1_15OutstationStackEEEvRKSt10shared_ptrIT_EEUlvE_E9_M_invokeERKSt9_Any_data, @function
_ZNSt17_Function_handlerIFvvEZN8asiodnp39StackBase15PerformShutdownINS1_15OutstationStackEEEvRKSt10shared_ptrIT_EEUlvE_E9_M_invokeERKSt9_Any_data:
.LFB10425:
	.cfi_startproc
	.cfi_personality 0x9b,DW.ref.__gxx_personality_v0
	.cfi_lsda 0x1b,.LLSDA10425
	pushq	%r15
	.cfi_def_cfa_offset 16
	.cfi_offset 15, -16
	pushq	%r14
	.cfi_def_cfa_offset 24
	.cfi_offset 14, -24
	pushq	%r13
	.cfi_def_cfa_offset 32
	.cfi_offset 13, -32
	pushq	%r12
	.cfi_def_cfa_offset 40
	.cfi_offset 12, -40
	pushq	%rbp
	.cfi_def_cfa_offset 48
	.cfi_offset 6, -48
	pushq	%rbx
	.cfi_def_cfa_offset 56
	.cfi_offset 3, -56
	subq	$56, %rsp
	.cfi_def_cfa_offset 112
	movq	(%rdi), %rbx
	movq	%fs:40, %rax
	movq	%rax, 40(%rsp)
	xorl	%eax, %eax
	movq	(%rbx), %rax
	movq	88(%rax), %rdi
	addq	$8, %rax
	movq	%rax, 16(%rsp)
	movq	8(%rbx), %rax
	testq	%rax, %rax
	movq	%rax, 24(%rsp)
	je	.L1919
	cmpq	$0, _ZL28__gthrw___pthread_key_createPjPFvPvE@GOTPCREL(%rip)
	jne	.L2013
	addl	$1, 8(%rax)
.L1919:
	leaq	16(%rsp), %r14
	movq	%r14, %rsi
.LEHB28:
	call	_ZN8asiodnp39IOHandler6RemoveERKSt10shared_ptrIN8opendnp312ILinkSessionEE@PLT
.LEHE28:
	movq	24(%rsp), %rbp
	testq	%rbp, %rbp
	je	.L1922
	cmpq	$0, _ZL28__gthrw___pthread_key_createPjPFvPvE@GOTPCREL(%rip)
	je	.L1923
	lock subl	$1, 8(%rbp)
	je	.L2014
.L1922:
	movq	8(%rbx), %rbp
	movq	(%rbx), %rax
	testq	%rbp, %rbp
	je	.L1927
	cmpq	$0, _ZL28__gthrw___pthread_key_createPjPFvPvE@GOTPCREL(%rip)
	jne	.L2015
	movl	8(%rbp), %edx
	movq	72(%rax), %r12
	movq	%rbp, %r15
	movq	%rax, 16(%rsp)
	movq	%rbp, 24(%rsp)
	leal	2(%rdx), %eax
	movl	%eax, 8(%rbp)
.L1929:
	movq	%r14, %rdi
	xorl	%eax, %eax
	movq	40(%r12), %r13
	call	_ZN4asio28asio_handler_is_continuationEz@PLT
	movl	%eax, %r14d
	.byte	0x66
	leaq	_ZN4asio6detail15keyword_tss_ptrINS0_10call_stackINS0_15task_io_serviceENS0_27task_io_service_thread_infoEE7contextEE6value_E@tlsgd(%rip), %rdi
	.value	0x6666
	rex64
	call	__tls_get_addr@PLT
	movq	(%rax), %rax
	testq	%rax, %rax
	je	.L1930
	movq	8(%rax), %rax
	testq	%rax, %rax
	je	.L1930
	movq	(%rax), %rbx
	testq	%rbx, %rbx
	je	.L1930
	movq	$0, (%rax)
	movzbl	(%rbx), %eax
	cmpb	$39, %al
	jbe	.L1931
	movb	%al, 40(%rbx)
.L1932:
	movq	_ZN4asio6detail18completion_handlerIZZN8asiodnp39StackBase15PerformShutdownINS2_15OutstationStackEEEvRKSt10shared_ptrIT_EENKUlvE_clEvEUlvE_E11do_completeEPNS0_15task_io_serviceEPNS0_25task_io_service_operationERKSt10error_codem@GOTPCREL(%rip), %rax
	testq	%r15, %r15
	movq	$0, (%rbx)
	movl	$0, 16(%rbx)
	movq	%rax, 8(%rbx)
	movq	16(%rsp), %rax
	movq	%r15, 32(%rbx)
	movq	%rax, 24(%rbx)
	je	.L1934
	cmpq	$0, _ZL28__gthrw___pthread_key_createPjPFvPvE@GOTPCREL(%rip)
	je	.L1933
	lock addl	$1, 8(%r15)
.L1934:
	movq	48(%r12), %rax
	leaq	24(%rax), %rdi
	call	pthread_mutex_lock@PLT
	movq	48(%r12), %rdi
	cmpb	$0, 64(%rdi)
	je	.L1935
	cmpq	$0, 80(%rdi)
	movq	$0, (%rbx)
	je	.L1936
	movq	80(%rdi), %rax
	movq	%rbx, (%rax)
	movq	%rbx, 80(%rdi)
.L1937:
	addq	$24, %rdi
	call	pthread_mutex_unlock@PLT
.L1938:
	movq	24(%rsp), %rbx
	testq	%rbx, %rbx
	je	.L1954
	cmpq	$0, _ZL28__gthrw___pthread_key_createPjPFvPvE@GOTPCREL(%rip)
	je	.L1955
	lock subl	$1, 8(%rbx)
	jne	.L1954
	movq	(%rbx), %rax
	movq	%rbx, %rdi
	call	*16(%rax)
	movl	$-1, %eax
	lock xaddl	%eax, 12(%rbx)
.L1973:
	cmpl	$1, %eax
	je	.L2016
	.p2align 4,,10
	.p2align 3
.L1954:
	testq	%rbp, %rbp
	je	.L1918
	cmpq	$0, _ZL28__gthrw___pthread_key_createPjPFvPvE@GOTPCREL(%rip)
	je	.L1965
	lock subl	$1, 8(%rbp)
	jne	.L1918
	movq	0(%rbp), %rax
	movq	%rbp, %rdi
	call	*16(%rax)
	movl	$-1, %eax
	lock xaddl	%eax, 12(%rbp)
.L1974:
	cmpl	$1, %eax
	je	.L2017
	.p2align 4,,10
	.p2align 3
.L1918:
	movq	40(%rsp), %rax
	xorq	%fs:40, %rax
	jne	.L2018
	addq	$56, %rsp
	.cfi_remember_state
	.cfi_def_cfa_offset 56
	popq	%rbx
	.cfi_def_cfa_offset 48
	popq	%rbp
	.cfi_def_cfa_offset 40
	popq	%r12
	.cfi_def_cfa_offset 32
	popq	%r13
	.cfi_def_cfa_offset 24
	popq	%r14
	.cfi_def_cfa_offset 16
	popq	%r15
	.cfi_def_cfa_offset 8
	ret
	.p2align 4,,10
	.p2align 3
.L2015:
	.cfi_restore_state
	leaq	8(%rbp), %rdx
	lock addl	$1, (%rdx)
	movq	(%rbx), %rcx
	movq	72(%rcx), %r12
	movq	%rax, 16(%rsp)
	movq	%rbp, 24(%rsp)
	lock addl	$1, (%rdx)
	movq	24(%rsp), %r15
	jmp	.L1929
	.p2align 4,,10
	.p2align 3
.L2013:
	lock addl	$1, 8(%rax)
	jmp	.L1919
	.p2align 4,,10
	.p2align 3
.L1923:
	movl	8(%rbp), %eax
	leal	-1(%rax), %edx
	cmpl	$1, %eax
	movl	%edx, 8(%rbp)
	jne	.L1922
	movq	0(%rbp), %rax
	movq	%rbp, %rdi
	call	*16(%rax)
	movl	12(%rbp), %eax
	leal	-1(%rax), %edx
	movl	%edx, 12(%rbp)
	jmp	.L1972
	.p2align 4,,10
	.p2align 3
.L1931:
	movq	%rbx, %rdi
	call	_ZdlPv@PLT
.L1930:
	movl	$41, %edi
.LEHB29:
	call	_Znwm@PLT
.LEHE29:
	movq	%rax, %rbx
	movb	$40, 40(%rax)
	jmp	.L1932
	.p2align 4,,10
	.p2align 3
.L1935:
	movb	$1, 64(%rdi)
	movq	48(%r12), %rax
	leaq	24(%rax), %rdi
	call	pthread_mutex_unlock@PLT
	movq	48(%r12), %r12
	movq	$0, (%rbx)
	cmpq	$0, 96(%r12)
	je	.L1939
	movq	96(%r12), %rax
	movq	%rbx, (%rax)
	movq	%rbx, 96(%r12)
.L1940:
	movq	40(%r13), %rbx
	cmpb	$0, 40(%rbx)
	jne	.L1978
	testb	%r14b, %r14b
	je	.L1941
.L1978:
	.byte	0x66
	leaq	_ZN4asio6detail15keyword_tss_ptrINS0_10call_stackINS0_15task_io_serviceENS0_27task_io_service_thread_infoEE7contextEE6value_E@tlsgd(%rip), %rdi
	.value	0x6666
	rex64
	call	__tls_get_addr@PLT
	movq	(%rax), %rax
	testq	%rax, %rax
	je	.L1941
	cmpq	%rbx, (%rax)
	jne	.L1944
	jmp	.L1943
	.p2align 4,,10
	.p2align 3
.L2010:
	cmpq	(%rax), %rbx
	je	.L1943
.L1944:
	movq	16(%rax), %rax
	testq	%rax, %rax
	jne	.L2010
.L1941:
	lock addq	$1, 184(%rbx)
	leaq	48(%rbx), %r13
	movq	%r13, %rdi
	call	pthread_mutex_lock@PLT
	cmpq	$0, 200(%rbx)
	movq	$0, (%r12)
	je	.L1948
	movq	200(%rbx), %rax
	movq	%r12, (%rax)
	movq	%r12, 200(%rbx)
.L1949:
	movq	136(%rbx), %rax
	orq	$1, %rax
	cmpq	$1, %rax
	movq	%rax, 136(%rbx)
	jne	.L2019
	cmpb	$0, 176(%rbx)
	jne	.L1952
	movq	144(%rbx), %rax
	testq	%rax, %rax
	je	.L1952
	leaq	88(%rax), %rdx
	movb	$1, 176(%rbx)
	movl	96(%rax), %edi
	leaq	4(%rsp), %rcx
	movl	$3, %esi
	movl	$-2147483639, 4(%rsp)
	movq	%rdx, 8(%rsp)
	movl	88(%rax), %edx
	call	epoll_ctl@PLT
.L1952:
	movq	%r13, %rdi
	call	pthread_mutex_unlock@PLT
	jmp	.L1938
	.p2align 4,,10
	.p2align 3
.L1927:
	movq	72(%rax), %r12
	xorl	%r15d, %r15d
	movq	%rax, 16(%rsp)
	movq	$0, 24(%rsp)
	jmp	.L1929
	.p2align 4,,10
	.p2align 3
.L1933:
	addl	$1, 8(%r15)
	jmp	.L1934
	.p2align 4,,10
	.p2align 3
.L1936:
	movq	%rbx, 80(%rdi)
	movq	%rbx, 72(%rdi)
	jmp	.L1937
	.p2align 4,,10
	.p2align 3
.L1955:
	movl	8(%rbx), %eax
	leal	-1(%rax), %edx
	cmpl	$1, %eax
	movl	%edx, 8(%rbx)
	jne	.L1954
	movq	(%rbx), %rax
	movq	%rbx, %rdi
	call	*16(%rax)
	movl	12(%rbx), %eax
	leal	-1(%rax), %edx
	movl	%edx, 12(%rbx)
	jmp	.L1973
	.p2align 4,,10
	.p2align 3
.L1965:
	movl	8(%rbp), %eax
	leal	-1(%rax), %edx
	cmpl	$1, %eax
	movl	%edx, 8(%rbp)
	jne	.L1918
	movq	0(%rbp), %rax
	movq	%rbp, %rdi
	call	*16(%rax)
	movl	12(%rbp), %eax
	leal	-1(%rax), %edx
	movl	%edx, 12(%rbp)
	jmp	.L1974
	.p2align 4,,10
	.p2align 3
.L2014:
	movq	0(%rbp), %rax
	movq	%rbp, %rdi
	call	*16(%rax)
	movl	$-1, %eax
	lock xaddl	%eax, 12(%rbp)
.L1972:
	cmpl	$1, %eax
	jne	.L1922
	movq	0(%rbp), %rax
	movq	%rbp, %rdi
	call	*24(%rax)
	jmp	.L1922
	.p2align 4,,10
	.p2align 3
.L1943:
	movq	8(%rax), %rax
	testq	%rax, %rax
	je	.L1941
	addq	$1, 24(%rax)
	cmpq	$0, 16(%rax)
	movq	$0, (%r12)
	je	.L1947
	movq	16(%rax), %rdx
	movq	%r12, (%rdx)
	movq	%r12, 16(%rax)
	jmp	.L1938
	.p2align 4,,10
	.p2align 3
.L1939:
	movq	%rbx, 96(%r12)
	movq	%rbx, 88(%r12)
	jmp	.L1940
	.p2align 4,,10
	.p2align 3
.L2019:
	movq	%r13, %rdi
	call	pthread_mutex_unlock@PLT
	leaq	88(%rbx), %rdi
	call	pthread_cond_signal@PLT
	jmp	.L1938
	.p2align 4,,10
	.p2align 3
.L1947:
	movq	%r12, 16(%rax)
	movq	%r12, 8(%rax)
	jmp	.L1938
	.p2align 4,,10
	.p2align 3
.L2016:
	movq	(%rbx), %rax
	movq	%rbx, %rdi
	call	*24(%rax)
	jmp	.L1954
	.p2align 4,,10
	.p2align 3
.L2017:
	movq	0(%rbp), %rax
	movq	%rbp, %rdi
	call	*24(%rax)
	jmp	.L1918
	.p2align 4,,10
	.p2align 3
.L1948:
	movq	%r12, 200(%rbx)
	movq	%r12, 192(%rbx)
	jmp	.L1949
.L2018:
	call	__stack_chk_fail@PLT
.L1977:
	testq	%r15, %r15
	movq	%rax, %rbx
	je	.L1962
	movq	%r15, %rdi
	call	_ZNSt16_Sp_counted_baseILN9__gnu_cxx12_Lock_policyE2EE10_M_releaseEv@PLT
.L1962:
	testq	%rbp, %rbp
	movq	%rbp, %rdi
	je	.L1964
.L2012:
	call	_ZNSt16_Sp_counted_baseILN9__gnu_cxx12_Lock_policyE2EE10_M_releaseEv@PLT
.L1964:
	movq	%rbx, %rdi
.LEHB30:
	call	_Unwind_Resume@PLT
.LEHE30:
.L1976:
	movq	24(%rsp), %rdi
	movq	%rax, %rbx
	testq	%rdi, %rdi
	jne	.L2012
	jmp	.L1964
	.cfi_endproc
.LFE10425:
	.section	.gcc_except_table
.LLSDA10425:
	.byte	0xff
	.byte	0xff
	.byte	0x1
	.uleb128 .LLSDACSE10425-.LLSDACSB10425
.LLSDACSB10425:
	.uleb128 .LEHB28-.LFB10425
	.uleb128 .LEHE28-.LEHB28
	.uleb128 .L1976-.LFB10425
	.uleb128 0
	.uleb128 .LEHB29-.LFB10425
	.uleb128 .LEHE29-.LEHB29
	.uleb128 .L1977-.LFB10425
	.uleb128 0
	.uleb128 .LEHB30-.LFB10425
	.uleb128 .LEHE30-.LEHB30
	.uleb128 0
	.uleb128 0
.LLSDACSE10425:
	.section	.text._ZNSt17_Function_handlerIFvvEZN8asiodnp39StackBase15PerformShutdownINS1_15OutstationStackEEEvRKSt10shared_ptrIT_EEUlvE_E9_M_invokeERKSt9_Any_data,"axG",@progbits,_ZNSt17_Function_handlerIFvvEZN8asiodnp39StackBase15PerformShutdownINS1_15OutstationStackEEEvRKSt10shared_ptrIT_EEUlvE_E9_M_invokeERKSt9_Any_data,comdat
	.size	_ZNSt17_Function_handlerIFvvEZN8asiodnp39StackBase15PerformShutdownINS1_15OutstationStackEEEvRKSt10shared_ptrIT_EEUlvE_E9_M_invokeERKSt9_Any_data, .-_ZNSt17_Function_handlerIFvvEZN8asiodnp39StackBase15PerformShutdownINS1_15OutstationStackEEEvRKSt10shared_ptrIT_EEUlvE_E9_M_invokeERKSt9_Any_data
	.section	.text._ZN4asio6detail18completion_handlerIZZN8asiodnp39StackBase15PerformShutdownINS2_15OutstationStackEEEvRKSt10shared_ptrIT_EENKUlvE_clEvEUlvE_E11do_completeEPNS0_15task_io_serviceEPNS0_25task_io_service_operationERKSt10error_codem,"axG",@progbits,_ZN4asio6detail18completion_handlerIZZN8asiodnp39StackBase15PerformShutdownINS2_15OutstationStackEEEvRKSt10shared_ptrIT_EENKUlvE_clEvEUlvE_E11do_completeEPNS0_15task_io_serviceEPNS0_25task_io_service_operationERKSt10error_codem,comdat
	.p2align 4,,15
	.weak	_ZN4asio6detail18completion_handlerIZZN8asiodnp39StackBase15PerformShutdownINS2_15OutstationStackEEEvRKSt10shared_ptrIT_EENKUlvE_clEvEUlvE_E11do_completeEPNS0_15task_io_serviceEPNS0_25task_io_service_operationERKSt10error_codem
	.type	_ZN4asio6detail18completion_handlerIZZN8asiodnp39StackBase15PerformShutdownINS2_15OutstationStackEEEvRKSt10shared_ptrIT_EENKUlvE_clEvEUlvE_E11do_completeEPNS0_15task_io_serviceEPNS0_25task_io_service_operationERKSt10error_codem, @function
_ZN4asio6detail18completion_handlerIZZN8asiodnp39StackBase15PerformShutdownINS2_15OutstationStackEEEvRKSt10shared_ptrIT_EENKUlvE_clEvEUlvE_E11do_completeEPNS0_15task_io_serviceEPNS0_25task_io_service_operationERKSt10error_codem:
.LFB10963:
	.cfi_startproc
	.cfi_personality 0x9b,DW.ref.__gxx_personality_v0
	.cfi_lsda 0x1b,.LLSDA10963
	pushq	%r14
	.cfi_def_cfa_offset 16
	.cfi_offset 14, -16
	pushq	%r13
	.cfi_def_cfa_offset 24
	.cfi_offset 13, -24
	movq	%rdi, %r13
	pushq	%r12
	.cfi_def_cfa_offset 32
	.cfi_offset 12, -32
	pushq	%rbp
	.cfi_def_cfa_offset 40
	.cfi_offset 6, -40
	movq	%rsi, %rbp
	pushq	%rbx
	.cfi_def_cfa_offset 48
	.cfi_offset 3, -48
	subq	$32, %rsp
	.cfi_def_cfa_offset 80
	movq	32(%rsi), %rbx
	movq	24(%rsi), %r12
	movq	%fs:40, %rax
	movq	%rax, 24(%rsp)
	xorl	%eax, %eax
	testq	%rbx, %rbx
	je	.L2022
	cmpq	$0, _ZL28__gthrw___pthread_key_createPjPFvPvE@GOTPCREL(%rip)
	jne	.L2070
	movl	8(%rbx), %eax
	testl	%eax, %eax
	je	.L2071
.L2022:
	.byte	0x66
	leaq	_ZN4asio6detail15keyword_tss_ptrINS0_10call_stackINS0_15task_io_serviceENS0_27task_io_service_thread_infoEE7contextEE6value_E@tlsgd(%rip), %rdi
	.value	0x6666
	rex64
	call	__tls_get_addr@PLT
	movq	(%rax), %rax
	testq	%rax, %rax
	je	.L2027
	movq	8(%rax), %rax
	testq	%rax, %rax
	je	.L2027
	cmpq	$0, (%rax)
	je	.L2072
.L2027:
	movq	%rbp, %rdi
	call	_ZdlPv@PLT
.L2028:
	testq	%r13, %r13
	je	.L2029
	movq	104(%r12), %rdi
	testq	%rbx, %rbx
	movq	(%rdi), %rax
	movq	%r12, (%rsp)
	movq	%rbx, 8(%rsp)
	movq	16(%rax), %rax
	je	.L2030
	cmpq	$0, _ZL28__gthrw___pthread_key_createPjPFvPvE@GOTPCREL(%rip)
	jne	.L2073
	addl	$1, 8(%rbx)
.L2030:
	movq	%rsp, %rsi
.LEHB31:
	call	*%rax
.LEHE31:
	movq	8(%rsp), %rbp
	testq	%rbp, %rbp
	je	.L2033
	cmpq	$0, _ZL28__gthrw___pthread_key_createPjPFvPvE@GOTPCREL(%rip)
	je	.L2034
	lock subl	$1, 8(%rbp)
	je	.L2074
.L2033:
	sfence
.L2029:
	testq	%rbx, %rbx
	je	.L2020
	cmpq	$0, _ZL28__gthrw___pthread_key_createPjPFvPvE@GOTPCREL(%rip)
	je	.L2044
	lock subl	$1, 8(%rbx)
	je	.L2075
.L2020:
	movq	24(%rsp), %rax
	xorq	%fs:40, %rax
	jne	.L2076
	addq	$32, %rsp
	.cfi_remember_state
	.cfi_def_cfa_offset 48
	popq	%rbx
	.cfi_def_cfa_offset 40
	popq	%rbp
	.cfi_def_cfa_offset 32
	popq	%r12
	.cfi_def_cfa_offset 24
	popq	%r13
	.cfi_def_cfa_offset 16
	popq	%r14
	.cfi_def_cfa_offset 8
	ret
	.p2align 4,,10
	.p2align 3
.L2070:
	.cfi_restore_state
	lock addl	$1, 8(%rbx)
	movq	32(%rsi), %r14
	testq	%r14, %r14
	je	.L2022
	lock subl	$1, 8(%r14)
	jne	.L2022
	movq	(%r14), %rax
	movq	%r14, %rdi
	call	*16(%rax)
	movl	$-1, %eax
	lock xaddl	%eax, 12(%r14)
	jmp	.L2048
	.p2align 4,,10
	.p2align 3
.L2044:
	movl	8(%rbx), %eax
	leal	-1(%rax), %edx
	cmpl	$1, %eax
	movl	%edx, 8(%rbx)
	jne	.L2020
	movq	(%rbx), %rax
	movq	%rbx, %rdi
	call	*16(%rax)
	movl	12(%rbx), %eax
	leal	-1(%rax), %edx
	movl	%edx, 12(%rbx)
	jmp	.L2050
	.p2align 4,,10
	.p2align 3
.L2073:
	lock addl	$1, 8(%rbx)
	jmp	.L2030
	.p2align 4,,10
	.p2align 3
.L2034:
	movl	8(%rbp), %eax
	leal	-1(%rax), %edx
	cmpl	$1, %eax
	movl	%edx, 8(%rbp)
	jne	.L2033
	movq	0(%rbp), %rax
	movq	%rbp, %rdi
	call	*16(%rax)
	movl	12(%rbp), %eax
	leal	-1(%rax), %edx
	movl	%edx, 12(%rbp)
	jmp	.L2049
	.p2align 4,,10
	.p2align 3
.L2072:
	movzbl	40(%rbp), %edx
	movb	%dl, 0(%rbp)
	movq	%rbp, (%rax)
	jmp	.L2028
	.p2align 4,,10
	.p2align 3
.L2071:
	movq	(%rbx), %rax
	movq	%rbx, %rdi
	movq	%rbx, %r14
	call	*16(%rax)
	movl	12(%rbx), %eax
	leal	-1(%rax), %edx
	movl	%edx, 12(%rbx)
.L2048:
	cmpl	$1, %eax
	jne	.L2022
	movq	(%r14), %rax
	movq	%r14, %rdi
	call	*24(%rax)
	jmp	.L2022
	.p2align 4,,10
	.p2align 3
.L2075:
	movq	(%rbx), %rax
	movq	%rbx, %rdi
	call	*16(%rax)
	movl	$-1, %eax
	lock xaddl	%eax, 12(%rbx)
.L2050:
	cmpl	$1, %eax
	jne	.L2020
	movq	(%rbx), %rax
	movq	%rbx, %rdi
	call	*24(%rax)
	jmp	.L2020
	.p2align 4,,10
	.p2align 3
.L2074:
	movq	0(%rbp), %rax
	movq	%rbp, %rdi
	call	*16(%rax)
	movl	$-1, %eax
	lock xaddl	%eax, 12(%rbp)
.L2049:
	cmpl	$1, %eax
	jne	.L2033
	movq	0(%rbp), %rax
	movq	%rbp, %rdi
	call	*24(%rax)
	jmp	.L2033
.L2076:
	call	__stack_chk_fail@PLT
.L2053:
	movq	8(%rsp), %rdi
	movq	%rax, %rbp
	testq	%rdi, %rdi
	je	.L2039
	call	_ZNSt16_Sp_counted_baseILN9__gnu_cxx12_Lock_policyE2EE10_M_releaseEv@PLT
.L2039:
	testq	%rbx, %rbx
	sfence
	je	.L2041
	movq	%rbx, %rdi
	call	_ZNSt16_Sp_counted_baseILN9__gnu_cxx12_Lock_policyE2EE10_M_releaseEv@PLT
.L2041:
	movq	%rbp, %rdi
.LEHB32:
	call	_Unwind_Resume@PLT
.LEHE32:
	.cfi_endproc
.LFE10963:
	.section	.gcc_except_table
.LLSDA10963:
	.byte	0xff
	.byte	0xff
	.byte	0x1
	.uleb128 .LLSDACSE10963-.LLSDACSB10963
.LLSDACSB10963:
	.uleb128 .LEHB31-.LFB10963
	.uleb128 .LEHE31-.LEHB31
	.uleb128 .L2053-.LFB10963
	.uleb128 0
	.uleb128 .LEHB32-.LFB10963
	.uleb128 .LEHE32-.LEHB32
	.uleb128 0
	.uleb128 0
.LLSDACSE10963:
	.section	.text._ZN4asio6detail18completion_handlerIZZN8asiodnp39StackBase15PerformShutdownINS2_15OutstationStackEEEvRKSt10shared_ptrIT_EENKUlvE_clEvEUlvE_E11do_completeEPNS0_15task_io_serviceEPNS0_25task_io_service_operationERKSt10error_codem,"axG",@progbits,_ZN4asio6detail18completion_handlerIZZN8asiodnp39StackBase15PerformShutdownINS2_15OutstationStackEEEvRKSt10shared_ptrIT_EENKUlvE_clEvEUlvE_E11do_completeEPNS0_15task_io_serviceEPNS0_25task_io_service_operationERKSt10error_codem,comdat
	.size	_ZN4asio6detail18completion_handlerIZZN8asiodnp39StackBase15PerformShutdownINS2_15OutstationStackEEEvRKSt10shared_ptrIT_EENKUlvE_clEvEUlvE_E11do_completeEPNS0_15task_io_serviceEPNS0_25task_io_service_operationERKSt10error_codem, .-_ZN4asio6detail18completion_handlerIZZN8asiodnp39StackBase15PerformShutdownINS2_15OutstationStackEEEvRKSt10shared_ptrIT_EENKUlvE_clEvEUlvE_E11do_completeEPNS0_15task_io_serviceEPNS0_25task_io_service_operationERKSt10error_codem
	.section	.text._ZN8asiodnp315OutstationStack13BeginTransmitERKN7openpal6RSliceERN8opendnp312ILinkSessionE,"axG",@progbits,_ZN8asiodnp315OutstationStack13BeginTransmitERKN7openpal6RSliceERN8opendnp312ILinkSessionE,comdat
	.p2align 4,,15
	.weak	_ZThn16_N8asiodnp315OutstationStack13BeginTransmitERKN7openpal6RSliceERN8opendnp312ILinkSessionE
	.type	_ZThn16_N8asiodnp315OutstationStack13BeginTransmitERKN7openpal6RSliceERN8opendnp312ILinkSessionE, @function
_ZThn16_N8asiodnp315OutstationStack13BeginTransmitERKN7openpal6RSliceERN8opendnp312ILinkSessionE:
.LFB11992:
	.cfi_startproc
	.cfi_personality 0x9b,DW.ref.__gxx_personality_v0
	.cfi_lsda 0x1b,.LLSDA11992
	pushq	%rbx
	.cfi_def_cfa_offset 16
	.cfi_offset 3, -16
	movq	%rdi, %r8
	subq	$32, %rsp
	.cfi_def_cfa_offset 48
	movq	16(%r8), %rcx
	movq	72(%rdi), %rdi
	movq	%fs:40, %rax
	movq	%rax, 24(%rsp)
	xorl	%eax, %eax
	testq	%rcx, %rcx
	je	.L2078
	movl	8(%rcx), %eax
	leaq	8(%rcx), %r9
	testl	%eax, %eax
	je	.L2078
	movq	%rsi, %rdx
	leal	1(%rax), %esi
	lock cmpxchgl	%esi, (%r9)
	jne	.L2081
.L2080:
	movq	8(%r8), %r8
	movl	$0, %esi
	movq	%rcx, 8(%rsp)
	leaq	8(%r8), %rax
	testq	%r8, %r8
	cmove	%rsi, %rax
	movq	%rsp, %rsi
	movq	%rax, (%rsp)
.LEHB33:
	call	_ZN8asiodnp39IOHandler13BeginTransmitERKSt10shared_ptrIN8opendnp312ILinkSessionEERKN7openpal6RSliceE@PLT
.LEHE33:
	movq	8(%rsp), %rbx
	testq	%rbx, %rbx
	je	.L2077
	cmpq	$0, _ZL28__gthrw___pthread_key_createPjPFvPvE@GOTPCREL(%rip)
	je	.L2086
	lock subl	$1, 8(%rbx)
	je	.L2110
.L2077:
	movq	24(%rsp), %rax
	xorq	%fs:40, %rax
	jne	.L2111
	addq	$32, %rsp
	.cfi_remember_state
	.cfi_def_cfa_offset 16
	popq	%rbx
	.cfi_def_cfa_offset 8
	ret
	.p2align 4,,10
	.p2align 3
.L2086:
	.cfi_restore_state
	movl	8(%rbx), %eax
	leal	-1(%rax), %edx
	cmpl	$1, %eax
	movl	%edx, 8(%rbx)
	jne	.L2077
	movq	(%rbx), %rax
	movq	%rbx, %rdi
	call	*16(%rax)
	movl	12(%rbx), %eax
	leal	-1(%rax), %edx
	movl	%edx, 12(%rbx)
	jmp	.L2092
	.p2align 4,,10
	.p2align 3
.L2110:
	movq	(%rbx), %rax
	movq	%rbx, %rdi
	call	*16(%rax)
	movl	$-1, %eax
	lock xaddl	%eax, 12(%rbx)
.L2092:
	cmpl	$1, %eax
	jne	.L2077
	movq	(%rbx), %rax
	movq	%rbx, %rdi
	call	*24(%rax)
	jmp	.L2077
.L2078:
.LEHB34:
	call	_ZSt20__throw_bad_weak_ptrv@PLT
.L2081:
	testl	%eax, %eax
	je	.L2078
	leal	1(%rax), %esi
	lock cmpxchgl	%esi, (%r9)
	je	.L2080
	jmp	.L2081
.L2111:
	call	__stack_chk_fail@PLT
.L2095:
	movq	8(%rsp), %rdi
	movq	%rax, %rbx
	testq	%rdi, %rdi
	je	.L2091
	call	_ZNSt16_Sp_counted_baseILN9__gnu_cxx12_Lock_policyE2EE10_M_releaseEv@PLT
.L2091:
	movq	%rbx, %rdi
	call	_Unwind_Resume@PLT
.LEHE34:
	.cfi_endproc
.LFE11992:
	.section	.gcc_except_table
.LLSDA11992:
	.byte	0xff
	.byte	0xff
	.byte	0x1
	.uleb128 .LLSDACSE11992-.LLSDACSB11992
.LLSDACSB11992:
	.uleb128 .LEHB33-.LFB11992
	.uleb128 .LEHE33-.LEHB33
	.uleb128 .L2095-.LFB11992
	.uleb128 0
	.uleb128 .LEHB34-.LFB11992
	.uleb128 .LEHE34-.LEHB34
	.uleb128 0
	.uleb128 0
.LLSDACSE11992:
	.section	.text._ZN8asiodnp315OutstationStack13BeginTransmitERKN7openpal6RSliceERN8opendnp312ILinkSessionE,"axG",@progbits,_ZN8asiodnp315OutstationStack13BeginTransmitERKN7openpal6RSliceERN8opendnp312ILinkSessionE,comdat
	.size	_ZThn16_N8asiodnp315OutstationStack13BeginTransmitERKN7openpal6RSliceERN8opendnp312ILinkSessionE, .-_ZThn16_N8asiodnp315OutstationStack13BeginTransmitERKN7openpal6RSliceERN8opendnp312ILinkSessionE
	.text
	.p2align 4,,15
	.type	_ZN4asio6detail18completion_handlerIZN8asiodnp315OutstationStack5ApplyERKNS2_7UpdatesEEUlvE_E11do_completeEPNS0_15task_io_serviceEPNS0_25task_io_service_operationERKSt10error_codem, @function
_ZN4asio6detail18completion_handlerIZN8asiodnp315OutstationStack5ApplyERKNS2_7UpdatesEEUlvE_E11do_completeEPNS0_15task_io_serviceEPNS0_25task_io_service_operationERKSt10error_codem:
.LFB10777:
	.cfi_startproc
	.cfi_personality 0x9b,DW.ref.__gxx_personality_v0
	.cfi_lsda 0x1b,.LLSDA10777
	pushq	%r13
	.cfi_def_cfa_offset 16
	.cfi_offset 13, -16
	pushq	%r12
	.cfi_def_cfa_offset 24
	.cfi_offset 12, -24
	movq	%rdi, %r12
	pushq	%rbp
	.cfi_def_cfa_offset 32
	.cfi_offset 6, -32
	pushq	%rbx
	.cfi_def_cfa_offset 40
	.cfi_offset 3, -40
	movq	%rsi, %rbx
	subq	$56, %rsp
	.cfi_def_cfa_offset 96
	movq	48(%rsi), %rbp
	movq	%fs:40, %rax
	movq	%rax, 40(%rsp)
	xorl	%eax, %eax
	movq	24(%rsi), %rax
	movq	$0, 24(%rsi)
	testq	%rbp, %rbp
	movq	%rbp, 24(%rsp)
	movq	%rax, (%rsp)
	movq	32(%rsi), %rax
	movq	$0, 32(%rsi)
	movq	%rax, 8(%rsp)
	movq	40(%rsi), %rax
	movq	%rax, 16(%rsp)
	je	.L2123
	movq	_ZL28__gthrw___pthread_key_createPjPFvPvE@GOTPCREL(%rip), %r13
	testq	%r13, %r13
	jne	.L2173
	movl	8(%rbp), %eax
	testl	%eax, %eax
	je	.L2174
.L2123:
	.byte	0x66
	leaq	_ZN4asio6detail15keyword_tss_ptrINS0_10call_stackINS0_15task_io_serviceENS0_27task_io_service_thread_infoEE7contextEE6value_E@tlsgd(%rip), %rdi
	.value	0x6666
	rex64
	call	__tls_get_addr@PLT
	movq	(%rax), %rax
	testq	%rax, %rax
	je	.L2127
	movq	8(%rax), %rax
	testq	%rax, %rax
	je	.L2127
	cmpq	$0, (%rax)
	je	.L2175
.L2127:
	movq	%rbx, %rdi
	call	_ZdlPv@PLT
.L2128:
	testq	%r12, %r12
	je	.L2129
	movq	(%rsp), %rax
	leaq	152(%rax), %rdi
.LEHB35:
	call	_ZN8opendnp38OContext16GetUpdateHandlerEv@PLT
	movq	%rax, %r12
	movq	16(%rsp), %rax
	testq	%rax, %rax
	je	.L2132
	movq	(%rax), %rbx
	movq	8(%rax), %rbp
	cmpq	%rbp, %rbx
	je	.L2132
	.p2align 4,,10
	.p2align 3
.L2135:
	cmpq	$0, 16(%rbx)
	je	.L2176
	movq	%r12, %rsi
	movq	%rbx, %rdi
	call	*24(%rbx)
	addq	$32, %rbx
	cmpq	%rbx, %rbp
	jne	.L2135
.L2132:
	movq	(%rsp), %rax
	leaq	152(%rax), %rdi
	call	_ZN8opendnp38OContext17CheckForTaskStartEv@PLT
	sfence
.L2129:
	movq	24(%rsp), %rbx
	testq	%rbx, %rbx
	je	.L2137
	cmpq	$0, _ZL28__gthrw___pthread_key_createPjPFvPvE@GOTPCREL(%rip)
	je	.L2138
	lock subl	$1, 8(%rbx)
	je	.L2177
.L2137:
	movq	8(%rsp), %rbx
	testq	%rbx, %rbx
	je	.L2112
	cmpq	$0, _ZL28__gthrw___pthread_key_createPjPFvPvE@GOTPCREL(%rip)
	je	.L2144
	lock subl	$1, 8(%rbx)
	je	.L2178
.L2112:
	movq	40(%rsp), %rax
	xorq	%fs:40, %rax
	jne	.L2179
	addq	$56, %rsp
	.cfi_remember_state
	.cfi_def_cfa_offset 40
	popq	%rbx
	.cfi_def_cfa_offset 32
	popq	%rbp
	.cfi_def_cfa_offset 24
	popq	%r12
	.cfi_def_cfa_offset 16
	popq	%r13
	.cfi_def_cfa_offset 8
	ret
	.p2align 4,,10
	.p2align 3
.L2173:
	.cfi_restore_state
	lock addl	$1, 8(%rbp)
	movq	48(%rsi), %rbp
	testq	%rbp, %rbp
	jne	.L2116
.L2169:
	movq	32(%rbx), %rbp
	testq	%rbp, %rbp
	je	.L2123
.L2155:
	lock subl	$1, 8(%rbp)
	jne	.L2123
	movq	0(%rbp), %rax
	movq	%rbp, %rdi
	call	*16(%rax)
	movl	$-1, %eax
	lock xaddl	%eax, 12(%rbp)
	jmp	.L2150
	.p2align 4,,10
	.p2align 3
.L2144:
	movl	8(%rbx), %eax
	leal	-1(%rax), %edx
	cmpl	$1, %eax
	movl	%edx, 8(%rbx)
	jne	.L2112
	movq	(%rbx), %rax
	movq	%rbx, %rdi
	call	*16(%rax)
	movl	12(%rbx), %eax
	leal	-1(%rax), %edx
	movl	%edx, 12(%rbx)
	jmp	.L2152
	.p2align 4,,10
	.p2align 3
.L2138:
	movl	8(%rbx), %eax
	leal	-1(%rax), %edx
	cmpl	$1, %eax
	movl	%edx, 8(%rbx)
	jne	.L2137
	movq	(%rbx), %rax
	movq	%rbx, %rdi
	call	*16(%rax)
	movl	12(%rbx), %eax
	leal	-1(%rax), %edx
	movl	%edx, 12(%rbx)
	jmp	.L2151
	.p2align 4,,10
	.p2align 3
.L2175:
	movzbl	56(%rbx), %edx
	movb	%dl, (%rbx)
	movq	%rbx, (%rax)
	jmp	.L2128
	.p2align 4,,10
	.p2align 3
.L2178:
	movq	(%rbx), %rax
	movq	%rbx, %rdi
	call	*16(%rax)
	movl	$-1, %eax
	lock xaddl	%eax, 12(%rbx)
.L2152:
	cmpl	$1, %eax
	jne	.L2112
	movq	(%rbx), %rax
	movq	%rbx, %rdi
	call	*24(%rax)
	jmp	.L2112
	.p2align 4,,10
	.p2align 3
.L2177:
	movq	(%rbx), %rax
	movq	%rbx, %rdi
	call	*16(%rax)
	movl	$-1, %eax
	lock xaddl	%eax, 12(%rbx)
.L2151:
	cmpl	$1, %eax
	jne	.L2137
	movq	(%rbx), %rax
	movq	%rbx, %rdi
	call	*24(%rax)
	jmp	.L2137
	.p2align 4,,10
	.p2align 3
.L2116:
	lock subl	$1, 8(%rbp)
	jne	.L2169
	movq	0(%rbp), %rax
	movq	%rbp, %rdi
	call	*16(%rax)
	movl	$-1, %eax
	lock xaddl	%eax, 12(%rbp)
	jmp	.L2149
	.p2align 4,,10
	.p2align 3
.L2174:
	movq	0(%rbp), %rax
	movq	%rbp, %rdi
	call	*16(%rax)
	movl	12(%rbp), %eax
	leal	-1(%rax), %edx
	movl	%edx, 12(%rbp)
.L2149:
	cmpl	$1, %eax
	je	.L2120
.L2171:
	movq	32(%rbx), %rbp
	testq	%rbp, %rbp
	je	.L2123
	testq	%r13, %r13
	jne	.L2155
	movl	8(%rbp), %eax
	leal	-1(%rax), %edx
	cmpl	$1, %eax
	movl	%edx, 8(%rbp)
	jne	.L2123
	movq	0(%rbp), %rax
	movq	%rbp, %rdi
	call	*16(%rax)
	movl	12(%rbp), %eax
	leal	-1(%rax), %edx
	movl	%edx, 12(%rbp)
.L2150:
	cmpl	$1, %eax
	jne	.L2123
	movq	0(%rbp), %rax
	movq	%rbp, %rdi
	call	*24(%rax)
	jmp	.L2123
.L2120:
	movq	0(%rbp), %rax
	movq	%rbp, %rdi
	call	*24(%rax)
	jmp	.L2171
.L2176:
	call	_ZSt25__throw_bad_function_callv@PLT
.LEHE35:
.L2157:
	movq	%rax, %rbx
	movq	%rsp, %rdi
	sfence
	call	_ZZN8asiodnp315OutstationStack5ApplyERKNS_7UpdatesEENUlvE_D1Ev
	movq	%rbx, %rdi
.LEHB36:
	call	_Unwind_Resume@PLT
.LEHE36:
.L2179:
	call	__stack_chk_fail@PLT
	.cfi_endproc
.LFE10777:
	.section	.gcc_except_table
.LLSDA10777:
	.byte	0xff
	.byte	0xff
	.byte	0x1
	.uleb128 .LLSDACSE10777-.LLSDACSB10777
.LLSDACSB10777:
	.uleb128 .LEHB35-.LFB10777
	.uleb128 .LEHE35-.LEHB35
	.uleb128 .L2157-.LFB10777
