	.file	"OutstationStates.cpp"
	.text
	.section	.text._ZN8opendnp315OutstationState6IsIdleEv,"axG",@progbits,_ZN8opendnp315OutstationState6IsIdleEv,comdat
	.align 2
	.p2align 4,,15
	.weak	_ZN8opendnp315OutstationState6IsIdleEv
	.type	_ZN8opendnp315OutstationState6IsIdleEv, @function
_ZN8opendnp315OutstationState6IsIdleEv:
.LFB53:
	.cfi_startproc
	xorl	%eax, %eax
	ret
	.cfi_endproc
.LFE53:
	.size	_ZN8opendnp315OutstationState6IsIdleEv, .-_ZN8opendnp315OutstationState6IsIdleEv
	.section	.text._ZN8opendnp39StateIdle6IsIdleEv,"axG",@progbits,_ZN8opendnp39StateIdle6IsIdleEv,comdat
	.align 2
	.p2align 4,,15
	.weak	_ZN8opendnp39StateIdle6IsIdleEv
	.type	_ZN8opendnp39StateIdle6IsIdleEv, @function
_ZN8opendnp39StateIdle6IsIdleEv:
.LFB54:
	.cfi_startproc
	movl	$1, %eax
	ret
	.cfi_endproc
.LFE54:
	.size	_ZN8opendnp39StateIdle6IsIdleEv, .-_ZN8opendnp39StateIdle6IsIdleEv
	.section	.rodata._ZN8opendnp39StateIdle4NameEv.str1.1,"aMS",@progbits,1
.LC0:
	.string	"Idle"
	.section	.text._ZN8opendnp39StateIdle4NameEv,"axG",@progbits,_ZN8opendnp39StateIdle4NameEv,comdat
	.align 2
	.p2align 4,,15
	.weak	_ZN8opendnp39StateIdle4NameEv
	.type	_ZN8opendnp39StateIdle4NameEv, @function
_ZN8opendnp39StateIdle4NameEv:
.LFB55:
	.cfi_startproc
	leaq	.LC0(%rip), %rax
	ret
	.cfi_endproc
.LFE55:
	.size	_ZN8opendnp39StateIdle4NameEv, .-_ZN8opendnp39StateIdle4NameEv
	.section	.rodata._ZN8opendnp325StateSolicitedConfirmWait4NameEv.str1.1,"aMS",@progbits,1
.LC1:
	.string	"SolicitedConfirmWait"
	.section	.text._ZN8opendnp325StateSolicitedConfirmWait4NameEv,"axG",@progbits,_ZN8opendnp325StateSolicitedConfirmWait4NameEv,comdat
	.align 2
	.p2align 4,,15
	.weak	_ZN8opendnp325StateSolicitedConfirmWait4NameEv
	.type	_ZN8opendnp325StateSolicitedConfirmWait4NameEv, @function
_ZN8opendnp325StateSolicitedConfirmWait4NameEv:
.LFB67:
	.cfi_startproc
	leaq	.LC1(%rip), %rax
	ret
	.cfi_endproc
.LFE67:
	.size	_ZN8opendnp325StateSolicitedConfirmWait4NameEv, .-_ZN8opendnp325StateSolicitedConfirmWait4NameEv
	.section	.rodata._ZN8opendnp327StateUnsolicitedConfirmWait4NameEv.str1.1,"aMS",@progbits,1
.LC2:
	.string	"UnsolicitedConfirmWait"
	.section	.text._ZN8opendnp327StateUnsolicitedConfirmWait4NameEv,"axG",@progbits,_ZN8opendnp327StateUnsolicitedConfirmWait4NameEv,comdat
	.align 2
	.p2align 4,,15
	.weak	_ZN8opendnp327StateUnsolicitedConfirmWait4NameEv
	.type	_ZN8opendnp327StateUnsolicitedConfirmWait4NameEv, @function
_ZN8opendnp327StateUnsolicitedConfirmWait4NameEv:
.LFB72:
	.cfi_startproc
	leaq	.LC2(%rip), %rax
	ret
	.cfi_endproc
.LFE72:
	.size	_ZN8opendnp327StateUnsolicitedConfirmWait4NameEv, .-_ZN8opendnp327StateUnsolicitedConfirmWait4NameEv
	.section	.text._ZN8opendnp39StateIdleD2Ev,"axG",@progbits,_ZN8opendnp39StateIdleD5Ev,comdat
	.align 2
	.p2align 4,,15
	.weak	_ZN8opendnp39StateIdleD2Ev
	.type	_ZN8opendnp39StateIdleD2Ev, @function
_ZN8opendnp39StateIdleD2Ev:
.LFB3484:
	.cfi_startproc
	rep ret
	.cfi_endproc
.LFE3484:
	.size	_ZN8opendnp39StateIdleD2Ev, .-_ZN8opendnp39StateIdleD2Ev
	.weak	_ZN8opendnp39StateIdleD1Ev
	.set	_ZN8opendnp39StateIdleD1Ev,_ZN8opendnp39StateIdleD2Ev
	.section	.text._ZN8opendnp325StateSolicitedConfirmWaitD2Ev,"axG",@progbits,_ZN8opendnp325StateSolicitedConfirmWaitD5Ev,comdat
	.align 2
	.p2align 4,,15
	.weak	_ZN8opendnp325StateSolicitedConfirmWaitD2Ev
	.type	_ZN8opendnp325StateSolicitedConfirmWaitD2Ev, @function
_ZN8opendnp325StateSolicitedConfirmWaitD2Ev:
.LFB3487:
	.cfi_startproc
	rep ret
	.cfi_endproc
.LFE3487:
	.size	_ZN8opendnp325StateSolicitedConfirmWaitD2Ev, .-_ZN8opendnp325StateSolicitedConfirmWaitD2Ev
	.weak	_ZN8opendnp325StateSolicitedConfirmWaitD1Ev
	.set	_ZN8opendnp325StateSolicitedConfirmWaitD1Ev,_ZN8opendnp325StateSolicitedConfirmWaitD2Ev
	.section	.text._ZN8opendnp327StateUnsolicitedConfirmWaitD2Ev,"axG",@progbits,_ZN8opendnp327StateUnsolicitedConfirmWaitD5Ev,comdat
	.align 2
	.p2align 4,,15
	.weak	_ZN8opendnp327StateUnsolicitedConfirmWaitD2Ev
	.type	_ZN8opendnp327StateUnsolicitedConfirmWaitD2Ev, @function
_ZN8opendnp327StateUnsolicitedConfirmWaitD2Ev:
.LFB3490:
	.cfi_startproc
	rep ret
	.cfi_endproc
.LFE3490:
	.size	_ZN8opendnp327StateUnsolicitedConfirmWaitD2Ev, .-_ZN8opendnp327StateUnsolicitedConfirmWaitD2Ev
	.weak	_ZN8opendnp327StateUnsolicitedConfirmWaitD1Ev
	.set	_ZN8opendnp327StateUnsolicitedConfirmWaitD1Ev,_ZN8opendnp327StateUnsolicitedConfirmWaitD2Ev
	.section	.rodata.str1.1,"aMS",@progbits,1
.LC3:
	.string	"unexpected confirm timeout"
	.section	.rodata.str1.8,"aMS",@progbits,1
	.align 8
.LC4:
	.string	"/home/raihan/OpenPLC_v3/utils/dnp3_src/cpp/libs/src/opendnp3/outstation/OutstationStates.cpp(46)"
	.text
	.align 2
	.p2align 4,,15
	.globl	_ZN8opendnp39StateIdle16OnConfirmTimeoutERNS_8OContextE
	.type	_ZN8opendnp39StateIdle16OnConfirmTimeoutERNS_8OContextE, @function
_ZN8opendnp39StateIdle16OnConfirmTimeoutERNS_8OContextE:
.LFB2670:
	.cfi_startproc
	pushq	%rbp
	.cfi_def_cfa_offset 16
	.cfi_offset 6, -16
	pushq	%rbx
	.cfi_def_cfa_offset 24
	.cfi_offset 3, -24
	leaq	8(%rsi), %rbx
	subq	$24, %rsp
	.cfi_def_cfa_offset 48
	movq	%rbx, %rdi
	leaq	4(%rsp), %rbp
	movl	$4, 4(%rsp)
	movq	%fs:40, %rax
	movq	%rax, 8(%rsp)
	xorl	%eax, %eax
	movq	%rbp, %rsi
	call	_ZNK7openpal6Logger9IsEnabledERKNS_10LogFiltersE@PLT
	testb	%al, %al
	je	.L11
	leaq	.LC3(%rip), %rcx
	leaq	.LC4(%rip), %rdx
	movq	%rbp, %rsi
	movq	%rbx, %rdi
	movl	$4, 4(%rsp)
	call	_ZN7openpal6Logger3LogERKNS_10LogFiltersEPKcS5_@PLT
.L11:
	movq	8(%rsp), %rdx
	xorq	%fs:40, %rdx
	movq	_ZN8opendnp39StateIdle8instanceE@GOTPCREL(%rip), %rax
	jne	.L17
	addq	$24, %rsp
	.cfi_remember_state
	.cfi_def_cfa_offset 24
	popq	%rbx
	.cfi_def_cfa_offset 16
	popq	%rbp
	.cfi_def_cfa_offset 8
	ret
.L17:
	.cfi_restore_state
	call	__stack_chk_fail@PLT
	.cfi_endproc
.LFE2670:
	.size	_ZN8opendnp39StateIdle16OnConfirmTimeoutERNS_8OContextE, .-_ZN8opendnp39StateIdle16OnConfirmTimeoutERNS_8OContextE
	.section	.rodata.str1.1
.LC5:
	.string	"solicited confirm timeout"
	.section	.rodata.str1.8
	.align 8
.LC6:
	.string	"/home/raihan/OpenPLC_v3/utils/dnp3_src/cpp/libs/src/opendnp3/outstation/OutstationStates.cpp(108)"
	.text
	.align 2
	.p2align 4,,15
	.globl	_ZN8opendnp325StateSolicitedConfirmWait16OnConfirmTimeoutERNS_8OContextE
	.type	_ZN8opendnp325StateSolicitedConfirmWait16OnConfirmTimeoutERNS_8OContextE, @function
_ZN8opendnp325StateSolicitedConfirmWait16OnConfirmTimeoutERNS_8OContextE:
.LFB2676:
	.cfi_startproc
	pushq	%rbp
	.cfi_def_cfa_offset 16
	.cfi_offset 6, -16
	pushq	%rbx
	.cfi_def_cfa_offset 24
	.cfi_offset 3, -24
	leaq	8(%rsi), %rbx
	subq	$24, %rsp
	.cfi_def_cfa_offset 48
	movq	%rbx, %rdi
	leaq	4(%rsp), %rbp
	movl	$4, 4(%rsp)
	movq	%fs:40, %rax
	movq	%rax, 8(%rsp)
	xorl	%eax, %eax
	movq	%rbp, %rsi
	call	_ZNK7openpal6Logger9IsEnabledERKNS_10LogFiltersE@PLT
	testb	%al, %al
	je	.L19
	leaq	.LC5(%rip), %rcx
	leaq	.LC6(%rip), %rdx
	movq	%rbp, %rsi
	movq	%rbx, %rdi
	movl	$4, 4(%rsp)
	call	_ZN7openpal6Logger3LogERKNS_10LogFiltersEPKcS5_@PLT
.L19:
	movq	8(%rsp), %rdx
	xorq	%fs:40, %rdx
	movq	_ZN8opendnp39StateIdle8instanceE@GOTPCREL(%rip), %rax
	jne	.L25
	addq	$24, %rsp
	.cfi_remember_state
	.cfi_def_cfa_offset 24
	popq	%rbx
	.cfi_def_cfa_offset 16
	popq	%rbp
	.cfi_def_cfa_offset 8
	ret
.L25:
	.cfi_restore_state
	call	__stack_chk_fail@PLT
	.cfi_endproc
.LFE2676:
	.size	_ZN8opendnp325StateSolicitedConfirmWait16OnConfirmTimeoutERNS_8OContextE, .-_ZN8opendnp325StateSolicitedConfirmWait16OnConfirmTimeoutERNS_8OContextE
	.section	.rodata.str1.8
	.align 8
.LC7:
	.string	"unexpected confirm while IDLE with sequence: %u"
	.align 8
.LC8:
	.string	"/home/raihan/OpenPLC_v3/utils/dnp3_src/cpp/libs/src/opendnp3/outstation/OutstationStates.cpp(40)"
	.text
	.align 2
	.p2align 4,,15
	.globl	_ZN8opendnp39StateIdle9OnConfirmERNS_8OContextERKNS_10APDUHeaderE
	.type	_ZN8opendnp39StateIdle9OnConfirmERNS_8OContextERKNS_10APDUHeaderE, @function
_ZN8opendnp39StateIdle9OnConfirmERNS_8OContextERKNS_10APDUHeaderE:
.LFB2669:
	.cfi_startproc
	pushq	%r13
	.cfi_def_cfa_offset 16
	.cfi_offset 13, -16
	pushq	%r12
	.cfi_def_cfa_offset 24
	.cfi_offset 12, -24
	movq	%rdx, %r12
	pushq	%rbp
	.cfi_def_cfa_offset 32
	.cfi_offset 6, -32
	pushq	%rbx
	.cfi_def_cfa_offset 40
	.cfi_offset 3, -40
	leaq	8(%rsi), %rbx
	subq	$152, %rsp
	.cfi_def_cfa_offset 192
	movq	%rbx, %rdi
	leaq	12(%rsp), %rbp
	movl	$4, 12(%rsp)
	movq	%fs:40, %rax
	movq	%rax, 136(%rsp)
	xorl	%eax, %eax
	movq	%rbp, %rsi
	call	_ZNK7openpal6Logger9IsEnabledERKNS_10LogFiltersE@PLT
	testb	%al, %al
	je	.L27
	movzbl	5(%r12), %r9d
	leaq	16(%rsp), %r13
	leaq	.LC7(%rip), %r8
	movl	$120, %ecx
	movl	$1, %edx
	movl	$120, %esi
	movq	%r13, %rdi
	xorl	%eax, %eax
	call	__snprintf_chk@PLT
	leaq	.LC8(%rip), %rdx
	movq	%r13, %rcx
	movq	%rbp, %rsi
	movq	%rbx, %rdi
	movl	$4, 12(%rsp)
	call	_ZN7openpal6Logger3LogERKNS_10LogFiltersEPKcS5_@PLT
.L27:
	movq	136(%rsp), %rcx
	xorq	%fs:40, %rcx
	movq	_ZN8opendnp39StateIdle8instanceE@GOTPCREL(%rip), %rax
	jne	.L33
	addq	$152, %rsp
	.cfi_remember_state
	.cfi_def_cfa_offset 40
	popq	%rbx
	.cfi_def_cfa_offset 32
	popq	%rbp
	.cfi_def_cfa_offset 24
	popq	%r12
	.cfi_def_cfa_offset 16
	popq	%r13
	.cfi_def_cfa_offset 8
	ret
.L33:
	.cfi_restore_state
	call	__stack_chk_fail@PLT
	.cfi_endproc
.LFE2669:
	.size	_ZN8opendnp39StateIdle9OnConfirmERNS_8OContextERKNS_10APDUHeaderE, .-_ZN8opendnp39StateIdle9OnConfirmERNS_8OContextERKNS_10APDUHeaderE
	.align 2
	.p2align 4,,15
	.globl	_ZN8opendnp39StateIdle16OnNewReadRequestERNS_8OContextERKNS_10APDUHeaderERKN7openpal6RSliceE
	.type	_ZN8opendnp39StateIdle16OnNewReadRequestERNS_8OContextERKNS_10APDUHeaderERKN7openpal6RSliceE, @function
_ZN8opendnp39StateIdle16OnNewReadRequestERNS_8OContextERKNS_10APDUHeaderERKN7openpal6RSliceE:
.LFB2671:
	.cfi_startproc
	movq	%rsi, %rdi
	movq	%rdx, %rsi
	movq	%rcx, %rdx
	jmp	_ZN8opendnp38OContext20RespondToReadRequestERKNS_10APDUHeaderERKN7openpal6RSliceE@PLT
	.cfi_endproc
.LFE2671:
	.size	_ZN8opendnp39StateIdle16OnNewReadRequestERNS_8OContextERKNS_10APDUHeaderERKN7openpal6RSliceE, .-_ZN8opendnp39StateIdle16OnNewReadRequestERNS_8OContextERKNS_10APDUHeaderERKN7openpal6RSliceE
	.align 2
	.p2align 4,,15
	.globl	_ZN8opendnp39StateIdle19OnNewNonReadRequestERNS_8OContextERKNS_10APDUHeaderERKN7openpal6RSliceE
	.type	_ZN8opendnp39StateIdle19OnNewNonReadRequestERNS_8OContextERKNS_10APDUHeaderERKN7openpal6RSliceE, @function
_ZN8opendnp39StateIdle19OnNewNonReadRequestERNS_8OContextERKNS_10APDUHeaderERKN7openpal6RSliceE:
.LFB2672:
	.cfi_startproc
	pushq	%rbx
	.cfi_def_cfa_offset 16
	.cfi_offset 3, -16
	movq	%rdi, %rbx
	movq	%rsi, %rdi
	movq	%rdx, %rsi
	movq	%rcx, %rdx
	call	_ZN8opendnp38OContext23RespondToNonReadRequestERKNS_10APDUHeaderERKN7openpal6RSliceE@PLT
	movq	%rbx, %rax
	popq	%rbx
	.cfi_def_cfa_offset 8
	ret
	.cfi_endproc
.LFE2672:
	.size	_ZN8opendnp39StateIdle19OnNewNonReadRequestERNS_8OContextERKNS_10APDUHeaderERKN7openpal6RSliceE, .-_ZN8opendnp39StateIdle19OnNewNonReadRequestERNS_8OContextERKNS_10APDUHeaderERKN7openpal6RSliceE
	.align 2
	.p2align 4,,15
	.globl	_ZN8opendnp39StateIdle22OnRepeatNonReadRequestERNS_8OContextERKNS_10APDUHeaderERKN7openpal6RSliceE
	.type	_ZN8opendnp39StateIdle22OnRepeatNonReadRequestERNS_8OContextERKNS_10APDUHeaderERKN7openpal6RSliceE, @function
_ZN8opendnp39StateIdle22OnRepeatNonReadRequestERNS_8OContextERKNS_10APDUHeaderERKN7openpal6RSliceE:
.LFB2673:
	.cfi_startproc
	pushq	%rbx
	.cfi_def_cfa_offset 16
	.cfi_offset 3, -16
	leaq	840(%rsi), %rdx
	movq	%rdi, %rbx
	movq	%rsi, %rdi
	leaq	856(%rsi), %rsi
	call	_ZN8opendnp38OContext15BeginResponseTxERKNS_15AppControlFieldERKN7openpal6RSliceE@PLT
	movq	%rbx, %rax
	popq	%rbx
	.cfi_def_cfa_offset 8
	ret
	.cfi_endproc
.LFE2673:
	.size	_ZN8opendnp39StateIdle22OnRepeatNonReadRequestERNS_8OContextERKNS_10APDUHeaderERKN7openpal6RSliceE, .-_ZN8opendnp39StateIdle22OnRepeatNonReadRequestERNS_8OContextERKNS_10APDUHeaderERKN7openpal6RSliceE
	.globl	_ZN8opendnp39StateIdle19OnRepeatReadRequestERNS_8OContextERKNS_10APDUHeaderERKN7openpal6RSliceE
	.set	_ZN8opendnp39StateIdle19OnRepeatReadRequestERNS_8OContextERKNS_10APDUHeaderERKN7openpal6RSliceE,_ZN8opendnp39StateIdle22OnRepeatNonReadRequestERNS_8OContextERKNS_10APDUHeaderERKN7openpal6RSliceE
	.align 2
	.p2align 4,,15
	.globl	_ZN8opendnp327StateUnsolicitedConfirmWait22OnRepeatNonReadRequestERNS_8OContextERKNS_10APDUHeaderERKN7openpal6RSliceE
	.type	_ZN8opendnp327StateUnsolicitedConfirmWait22OnRepeatNonReadRequestERNS_8OContextERKNS_10APDUHeaderERKN7openpal6RSliceE, @function
_ZN8opendnp327StateUnsolicitedConfirmWait22OnRepeatNonReadRequestERNS_8OContextERKNS_10APDUHeaderERKN7openpal6RSliceE:
.LFB2685:
	.cfi_startproc
	pushq	%rbx
	.cfi_def_cfa_offset 16
	.cfi_offset 3, -16
	leaq	840(%rsi), %rdx
	movq	%rdi, %rbx
	movq	%rsi, %rdi
	leaq	856(%rsi), %rsi
	call	_ZN8opendnp38OContext15BeginResponseTxERKNS_15AppControlFieldERKN7openpal6RSliceE@PLT
	movq	%rbx, %rax
	popq	%rbx
	.cfi_def_cfa_offset 8
	ret
	.cfi_endproc
.LFE2685:
	.size	_ZN8opendnp327StateUnsolicitedConfirmWait22OnRepeatNonReadRequestERNS_8OContextERKNS_10APDUHeaderERKN7openpal6RSliceE, .-_ZN8opendnp327StateUnsolicitedConfirmWait22OnRepeatNonReadRequestERNS_8OContextERKNS_10APDUHeaderERKN7openpal6RSliceE
	.align 2
	.p2align 4,,15
	.globl	_ZN8opendnp325StateSolicitedConfirmWait16OnNewReadRequestERNS_8OContextERKNS_10APDUHeaderERKN7openpal6RSliceE
	.type	_ZN8opendnp325StateSolicitedConfirmWait16OnNewReadRequestERNS_8OContextERKNS_10APDUHeaderERKN7openpal6RSliceE, @function
_ZN8opendnp325StateSolicitedConfirmWait16OnNewReadRequestERNS_8OContextERKNS_10APDUHeaderERKN7openpal6RSliceE:
.LFB2677:
	.cfi_startproc
	pushq	%r12
	.cfi_def_cfa_offset 16
	.cfi_offset 12, -16
	leaq	728(%rsi), %rdi
	pushq	%rbp
	.cfi_def_cfa_offset 24
	.cfi_offset 6, -24
	pushq	%rbx
	.cfi_def_cfa_offset 32
	.cfi_offset 3, -32
	movq	%rdx, %rbp
	movq	%rsi, %rbx
	movq	%rcx, %r12
	call	_ZN7openpal8TimerRef6CancelEv@PLT
	movq	%r12, %rdx
	movq	%rbp, %rsi
	movq	%rbx, %rdi
	popq	%rbx
	.cfi_def_cfa_offset 24
	popq	%rbp
	.cfi_def_cfa_offset 16
	popq	%r12
	.cfi_def_cfa_offset 8
	jmp	_ZN8opendnp38OContext20RespondToReadRequestERKNS_10APDUHeaderERKN7openpal6RSliceE@PLT
	.cfi_endproc
.LFE2677:
	.size	_ZN8opendnp325StateSolicitedConfirmWait16OnNewReadRequestERNS_8OContextERKNS_10APDUHeaderERKN7openpal6RSliceE, .-_ZN8opendnp325StateSolicitedConfirmWait16OnNewReadRequestERNS_8OContextERKNS_10APDUHeaderERKN7openpal6RSliceE
	.align 2
	.p2align 4,,15
	.globl	_ZN8opendnp325StateSolicitedConfirmWait19OnNewNonReadRequestERNS_8OContextERKNS_10APDUHeaderERKN7openpal6RSliceE
	.type	_ZN8opendnp325StateSolicitedConfirmWait19OnNewNonReadRequestERNS_8OContextERKNS_10APDUHeaderERKN7openpal6RSliceE, @function
_ZN8opendnp325StateSolicitedConfirmWait19OnNewNonReadRequestERNS_8OContextERKNS_10APDUHeaderERKN7openpal6RSliceE:
.LFB2678:
	.cfi_startproc
	pushq	%r12
	.cfi_def_cfa_offset 16
	.cfi_offset 12, -16
	leaq	728(%rsi), %rdi
	pushq	%rbp
	.cfi_def_cfa_offset 24
	.cfi_offset 6, -24
	pushq	%rbx
	.cfi_def_cfa_offset 32
	.cfi_offset 3, -32
	movq	%rdx, %rbp
	movq	%rsi, %rbx
	movq	%rcx, %r12
	call	_ZN7openpal8TimerRef6CancelEv@PLT
	movq	%r12, %rdx
	movq	%rbp, %rsi
	movq	%rbx, %rdi
	call	_ZN8opendnp38OContext23RespondToNonReadRequestERKNS_10APDUHeaderERKN7openpal6RSliceE@PLT
	popq	%rbx
	.cfi_def_cfa_offset 24
	movq	_ZN8opendnp39StateIdle8instanceE@GOTPCREL(%rip), %rax
	popq	%rbp
	.cfi_def_cfa_offset 16
	popq	%r12
	.cfi_def_cfa_offset 8
	ret
	.cfi_endproc
.LFE2678:
	.size	_ZN8opendnp325StateSolicitedConfirmWait19OnNewNonReadRequestERNS_8OContextERKNS_10APDUHeaderERKN7openpal6RSliceE, .-_ZN8opendnp325StateSolicitedConfirmWait19OnNewNonReadRequestERNS_8OContextERKNS_10APDUHeaderERKN7openpal6RSliceE
	.align 2
	.p2align 4,,15
	.globl	_ZN8opendnp325StateSolicitedConfirmWait22OnRepeatNonReadRequestERNS_8OContextERKNS_10APDUHeaderERKN7openpal6RSliceE
	.type	_ZN8opendnp325StateSolicitedConfirmWait22OnRepeatNonReadRequestERNS_8OContextERKNS_10APDUHeaderERKN7openpal6RSliceE, @function
_ZN8opendnp325StateSolicitedConfirmWait22OnRepeatNonReadRequestERNS_8OContextERKNS_10APDUHeaderERKN7openpal6RSliceE:
.LFB2679:
	.cfi_startproc
	pushq	%rbp
	.cfi_def_cfa_offset 16
	.cfi_offset 6, -16
	pushq	%rbx
	.cfi_def_cfa_offset 24
	.cfi_offset 3, -24
	movq	%rdi, %rbp
	leaq	728(%rsi), %rdi
	movq	%rsi, %rbx
	subq	$8, %rsp
	.cfi_def_cfa_offset 32
	call	_ZN7openpal8TimerRef6CancelEv@PLT
	leaq	840(%rbx), %rdx
	leaq	856(%rbx), %rsi
	movq	%rbx, %rdi
	call	_ZN8opendnp38OContext15BeginResponseTxERKNS_15AppControlFieldERKN7openpal6RSliceE@PLT
	addq	$8, %rsp
	.cfi_def_cfa_offset 24
	movq	%rbp, %rax
	popq	%rbx
	.cfi_def_cfa_offset 16
	popq	%rbp
	.cfi_def_cfa_offset 8
	ret
	.cfi_endproc
.LFE2679:
	.size	_ZN8opendnp325StateSolicitedConfirmWait22OnRepeatNonReadRequestERNS_8OContextERKNS_10APDUHeaderERKN7openpal6RSliceE, .-_ZN8opendnp325StateSolicitedConfirmWait22OnRepeatNonReadRequestERNS_8OContextERKNS_10APDUHeaderERKN7openpal6RSliceE
	.align 2
	.p2align 4,,15
	.globl	_ZN8opendnp325StateSolicitedConfirmWait19OnRepeatReadRequestERNS_8OContextERKNS_10APDUHeaderERKN7openpal6RSliceE
	.type	_ZN8opendnp325StateSolicitedConfirmWait19OnRepeatReadRequestERNS_8OContextERKNS_10APDUHeaderERKN7openpal6RSliceE, @function
_ZN8opendnp325StateSolicitedConfirmWait19OnRepeatReadRequestERNS_8OContextERKNS_10APDUHeaderERKN7openpal6RSliceE:
.LFB2680:
	.cfi_startproc
	pushq	%rbp
	.cfi_def_cfa_offset 16
	.cfi_offset 6, -16
	pushq	%rbx
	.cfi_def_cfa_offset 24
	.cfi_offset 3, -24
	movq	%rdi, %rbp
	movq	%rsi, %rbx
	movq	%rsi, %rdi
	subq	$8, %rsp
	.cfi_def_cfa_offset 32
	call	_ZN8opendnp38OContext19RestartConfirmTimerEv@PLT
	leaq	840(%rbx), %rdx
	leaq	856(%rbx), %rsi
	movq	%rbx, %rdi
	call	_ZN8opendnp38OContext15BeginResponseTxERKNS_15AppControlFieldERKN7openpal6RSliceE@PLT
	addq	$8, %rsp
	.cfi_def_cfa_offset 24
	movq	%rbp, %rax
	popq	%rbx
	.cfi_def_cfa_offset 16
	popq	%rbp
	.cfi_def_cfa_offset 8
	ret
	.cfi_endproc
.LFE2680:
	.size	_ZN8opendnp325StateSolicitedConfirmWait19OnRepeatReadRequestERNS_8OContextERKNS_10APDUHeaderERKN7openpal6RSliceE, .-_ZN8opendnp325StateSolicitedConfirmWait19OnRepeatReadRequestERNS_8OContextERKNS_10APDUHeaderERKN7openpal6RSliceE
	.align 2
	.p2align 4,,15
	.globl	_ZN8opendnp327StateUnsolicitedConfirmWait16OnNewReadRequestERNS_8OContextERKNS_10APDUHeaderERKN7openpal6RSliceE
	.type	_ZN8opendnp327StateUnsolicitedConfirmWait16OnNewReadRequestERNS_8OContextERKNS_10APDUHeaderERKN7openpal6RSliceE, @function
_ZN8opendnp327StateUnsolicitedConfirmWait16OnNewReadRequestERNS_8OContextERKNS_10APDUHeaderERKN7openpal6RSliceE:
.LFB2683:
	.cfi_startproc
	movq	%rdx, %r8
	pushq	%rbx
	.cfi_def_cfa_offset 16
	.cfi_offset 3, -16
	movq	%rdi, %rbx
	leaq	760(%rsi), %rdi
	movzbl	1(%r8), %esi
	movzbl	(%r8), %r9d
	movl	(%rcx), %edx
	movq	8(%rcx), %rcx
	salq	$8, %rsi
	orq	%r9, %rsi
	movzbl	2(%r8), %r9d
	salq	$16, %r9
	orq	%r9, %rsi
	movzbl	3(%r8), %r9d
	salq	$24, %r9
	orq	%rsi, %r9
	movzbl	4(%r8), %esi
	salq	$32, %rsi
	orq	%rsi, %r9
	movzbl	5(%r8), %esi
	salq	$40, %rsi
	orq	%r9, %rsi
	call	_ZN8opendnp315DeferredRequest3SetENS_10APDUHeaderEN7openpal6RSliceE@PLT
	movq	%rbx, %rax
	popq	%rbx
	.cfi_def_cfa_offset 8
	ret
	.cfi_endproc
.LFE2683:
	.size	_ZN8opendnp327StateUnsolicitedConfirmWait16OnNewReadRequestERNS_8OContextERKNS_10APDUHeaderERKN7openpal6RSliceE, .-_ZN8opendnp327StateUnsolicitedConfirmWait16OnNewReadRequestERNS_8OContextERKNS_10APDUHeaderERKN7openpal6RSliceE
	.globl	_ZN8opendnp327StateUnsolicitedConfirmWait19OnRepeatReadRequestERNS_8OContextERKNS_10APDUHeaderERKN7openpal6RSliceE
	.set	_ZN8opendnp327StateUnsolicitedConfirmWait19OnRepeatReadRequestERNS_8OContextERKNS_10APDUHeaderERKN7openpal6RSliceE,_ZN8opendnp327StateUnsolicitedConfirmWait16OnNewReadRequestERNS_8OContextERKNS_10APDUHeaderERKN7openpal6RSliceE
	.align 2
	.p2align 4,,15
	.globl	_ZN8opendnp327StateUnsolicitedConfirmWait19OnNewNonReadRequestERNS_8OContextERKNS_10APDUHeaderERKN7openpal6RSliceE
	.type	_ZN8opendnp327StateUnsolicitedConfirmWait19OnNewNonReadRequestERNS_8OContextERKNS_10APDUHeaderERKN7openpal6RSliceE, @function
_ZN8opendnp327StateUnsolicitedConfirmWait19OnNewNonReadRequestERNS_8OContextERKNS_10APDUHeaderERKN7openpal6RSliceE:
.LFB2684:
	.cfi_startproc
	pushq	%r13
	.cfi_def_cfa_offset 16
	.cfi_offset 13, -16
	pushq	%r12
	.cfi_def_cfa_offset 24
	.cfi_offset 12, -24
	movq	%rcx, %r13
	pushq	%rbp
	.cfi_def_cfa_offset 32
	.cfi_offset 6, -32
	pushq	%rbx
	.cfi_def_cfa_offset 40
	.cfi_offset 3, -40
	movq	%rdi, %rbp
	leaq	760(%rsi), %rdi
	movq	%rsi, %rbx
	movq	%rdx, %r12
	subq	$8, %rsp
	.cfi_def_cfa_offset 48
	call	_ZN8opendnp315DeferredRequest5ResetEv@PLT
	movq	%r13, %rdx
	movq	%r12, %rsi
	movq	%rbx, %rdi
	call	_ZN8opendnp38OContext23RespondToNonReadRequestERKNS_10APDUHeaderERKN7openpal6RSliceE@PLT
	addq	$8, %rsp
	.cfi_def_cfa_offset 40
	movq	%rbp, %rax
	popq	%rbx
	.cfi_def_cfa_offset 32
	popq	%rbp
	.cfi_def_cfa_offset 24
	popq	%r12
	.cfi_def_cfa_offset 16
	popq	%r13
	.cfi_def_cfa_offset 8
	ret
	.cfi_endproc
.LFE2684:
	.size	_ZN8opendnp327StateUnsolicitedConfirmWait19OnNewNonReadRequestERNS_8OContextERKNS_10APDUHeaderERKN7openpal6RSliceE, .-_ZN8opendnp327StateUnsolicitedConfirmWait19OnNewNonReadRequestERNS_8OContextERKNS_10APDUHeaderERKN7openpal6RSliceE
	.section	.rodata.str1.8
	.align 8
.LC9:
	.string	"received solicited confirm while waiting for unsolicited confirm (seq: %u)"
	.align 8
.LC10:
	.string	"/home/raihan/OpenPLC_v3/utils/dnp3_src/cpp/libs/src/opendnp3/outstation/OutstationStates.cpp(148)"
	.align 8
.LC11:
	.string	"unsolicited confirm with wrong seq: %u, expected: %u"
	.align 8
.LC12:
	.string	"/home/raihan/OpenPLC_v3/utils/dnp3_src/cpp/libs/src/opendnp3/outstation/OutstationStates.cpp(154)"
	.text
	.align 2
	.p2align 4,,15
	.globl	_ZN8opendnp327StateUnsolicitedConfirmWait9OnConfirmERNS_8OContextERKNS_10APDUHeaderE
	.type	_ZN8opendnp327StateUnsolicitedConfirmWait9OnConfirmERNS_8OContextERKNS_10APDUHeaderE, @function
_ZN8opendnp327StateUnsolicitedConfirmWait9OnConfirmERNS_8OContextERKNS_10APDUHeaderE:
.LFB2681:
	.cfi_startproc
	pushq	%r15
	.cfi_def_cfa_offset 16
	.cfi_offset 15, -16
	pushq	%r14
	.cfi_def_cfa_offset 24
	.cfi_offset 14, -24
	pushq	%r13
	.cfi_def_cfa_offset 32
	.cfi_offset 13, -32
	pushq	%r12
	.cfi_def_cfa_offset 40
	.cfi_offset 12, -40
	movq	%rdx, %r12
	pushq	%rbp
	.cfi_def_cfa_offset 48
	.cfi_offset 6, -48
	pushq	%rbx
	.cfi_def_cfa_offset 56
	.cfi_offset 3, -56
	movq	%rdi, %rbp
	movq	%rsi, %rbx
	subq	$152, %rsp
	.cfi_def_cfa_offset 208
	movq	%fs:40, %rax
	movq	%rax, 136(%rsp)
	xorl	%eax, %eax
	cmpb	$0, 4(%rdx)
	je	.L66
	movzbl	890(%rsi), %eax
	cmpb	%al, 5(%rdx)
	je	.L58
	leaq	8(%rsi), %r13
	leaq	12(%rsp), %r14
	movl	$4, 12(%rsp)
	movq	%r14, %rsi
	movq	%r13, %rdi
	call	_ZNK7openpal6Logger9IsEnabledERKNS_10LogFiltersE@PLT
	testb	%al, %al
	je	.L56
	movzbl	890(%rbx), %eax
	movzbl	5(%r12), %r9d
	leaq	16(%rsp), %r15
	subq	$8, %rsp
	.cfi_def_cfa_offset 216
	leaq	.LC11(%rip), %r8
	movl	$120, %ecx
	movl	$1, %edx
	movl	$120, %esi
	movq	%r15, %rdi
	pushq	%rax
	.cfi_def_cfa_offset 224
	xorl	%eax, %eax
	call	__snprintf_chk@PLT
	movl	$4, 28(%rsp)
	movq	%r15, %rcx
	movq	%r14, %rsi
	popq	%rax
	.cfi_def_cfa_offset 216
	popq	%rdx
	.cfi_def_cfa_offset 208
	leaq	.LC12(%rip), %rdx
	movq	%r13, %rdi
	call	_ZN7openpal6Logger3LogERKNS_10LogFiltersEPKcS5_@PLT
.L56:
	movq	%rbp, %rax
.L53:
	movq	136(%rsp), %rcx
	xorq	%fs:40, %rcx
	jne	.L67
	addq	$152, %rsp
	.cfi_remember_state
	.cfi_def_cfa_offset 56
	popq	%rbx
	.cfi_def_cfa_offset 48
	popq	%rbp
	.cfi_def_cfa_offset 40
	popq	%r12
	.cfi_def_cfa_offset 32
	popq	%r13
	.cfi_def_cfa_offset 24
	popq	%r14
	.cfi_def_cfa_offset 16
	popq	%r15
	.cfi_def_cfa_offset 8
	ret
	.p2align 4,,10
	.p2align 3
.L58:
	.cfi_restore_state
	leaq	744(%rsi), %rdi
	call	_ZN8opendnp314RequestHistory5ResetEv@PLT
	leaq	728(%rbx), %rdi
	call	_ZN7openpal8TimerRef6CancelEv@PLT
	cmpb	$0, 888(%rbx)
	jne	.L68
	movb	$1, 888(%rbx)
	movq	_ZN8opendnp39StateIdle8instanceE@GOTPCREL(%rip), %rax
	jmp	.L53
	.p2align 4,,10
	.p2align 3
.L66:
	leaq	12(%rsp), %r13
	addq	$8, %rbx
	movl	$4, 12(%rsp)
	movq	%rbx, %rdi
	movq	%r13, %rsi
	call	_ZNK7openpal6Logger9IsEnabledERKNS_10LogFiltersE@PLT
	testb	%al, %al
	je	.L56
	movzbl	5(%r12), %r9d
	leaq	16(%rsp), %r14
	leaq	.LC9(%rip), %r8
	movl	$120, %ecx
	movl	$1, %edx
	movl	$120, %esi
	movq	%r14, %rdi
	xorl	%eax, %eax
	call	__snprintf_chk@PLT
	leaq	.LC10(%rip), %rdx
	movq	%r14, %rcx
	movq	%r13, %rsi
	movq	%rbx, %rdi
	movl	$4, 12(%rsp)
	call	_ZN7openpal6Logger3LogERKNS_10LogFiltersEPKcS5_@PLT
	jmp	.L56
	.p2align 4,,10
	.p2align 3
.L68:
	leaq	104(%rbx), %rdi
	call	_ZN8opendnp311EventBuffer12ClearWrittenEv@PLT
	movq	_ZN8opendnp39StateIdle8instanceE@GOTPCREL(%rip), %rax
	jmp	.L53
.L67:
	call	__stack_chk_fail@PLT
	.cfi_endproc
.LFE2681:
	.size	_ZN8opendnp327StateUnsolicitedConfirmWait9OnConfirmERNS_8OContextERKNS_10APDUHeaderE, .-_ZN8opendnp327StateUnsolicitedConfirmWait9OnConfirmERNS_8OContextERKNS_10APDUHeaderE
	.section	.rodata.str1.8
	.align 8
.LC13:
	.string	"received unsolicited confirm while waiting for solicited confirm (seq: %u)"
	.align 8
.LC14:
	.string	"/home/raihan/OpenPLC_v3/utils/dnp3_src/cpp/libs/src/opendnp3/outstation/OutstationStates.cpp(82)"
	.align 8
.LC15:
	.string	"solicited confirm with wrong seq: %u, expected: %u"
	.align 8
.LC16:
	.string	"/home/raihan/OpenPLC_v3/utils/dnp3_src/cpp/libs/src/opendnp3/outstation/OutstationStates.cpp(88)"
	.text
	.align 2
	.p2align 4,,15
	.globl	_ZN8opendnp325StateSolicitedConfirmWait9OnConfirmERNS_8OContextERKNS_10APDUHeaderE
	.type	_ZN8opendnp325StateSolicitedConfirmWait9OnConfirmERNS_8OContextERKNS_10APDUHeaderE, @function
_ZN8opendnp325StateSolicitedConfirmWait9OnConfirmERNS_8OContextERKNS_10APDUHeaderE:
.LFB2675:
	.cfi_startproc
	pushq	%r15
	.cfi_def_cfa_offset 16
	.cfi_offset 15, -16
	pushq	%r14
	.cfi_def_cfa_offset 24
	.cfi_offset 14, -24
	pushq	%r13
	.cfi_def_cfa_offset 32
	.cfi_offset 13, -32
	pushq	%r12
	.cfi_def_cfa_offset 40
	.cfi_offset 12, -40
	movq	%rdi, %r12
	pushq	%rbp
	.cfi_def_cfa_offset 48
	.cfi_offset 6, -48
	pushq	%rbx
	.cfi_def_cfa_offset 56
	.cfi_offset 3, -56
	movq	%rdx, %rbp
	movq	%rsi, %rbx
	subq	$152, %rsp
	.cfi_def_cfa_offset 208
	movq	%fs:40, %rax
	movq	%rax, 136(%rsp)
	xorl	%eax, %eax
	cmpb	$0, 4(%rdx)
	jne	.L82
	movzbl	833(%rsi), %eax
	cmpb	%al, 5(%rdx)
	je	.L74
	leaq	8(%rsi), %r13
	leaq	12(%rsp), %r14
	movl	$4, 12(%rsp)
	movq	%r14, %rsi
	movq	%r13, %rdi
	call	_ZNK7openpal6Logger9IsEnabledERKNS_10LogFiltersE@PLT
	testb	%al, %al
	je	.L72
	movzbl	833(%rbx), %eax
	leaq	16(%rsp), %r15
	subq	$8, %rsp
	.cfi_def_cfa_offset 216
	leaq	.LC15(%rip), %r8
	movl	$120, %ecx
	movl	$1, %edx
	movl	$120, %esi
	movq	%r15, %rdi
	pushq	%rax
	.cfi_def_cfa_offset 224
	movzbl	5(%rbp), %r9d
	xorl	%eax, %eax
	call	__snprintf_chk@PLT
	movl	$4, 28(%rsp)
	movq	%r15, %rcx
	movq	%r14, %rsi
	popq	%rax
	.cfi_def_cfa_offset 216
	popq	%rdx
	.cfi_def_cfa_offset 208
	leaq	.LC16(%rip), %rdx
	movq	%r13, %rdi
	call	_ZN7openpal6Logger3LogERKNS_10LogFiltersEPKcS5_@PLT
.L72:
	movq	%r12, %rax
.L69:
	movq	136(%rsp), %rcx
	xorq	%fs:40, %rcx
	jne	.L83
	addq	$152, %rsp
	.cfi_remember_state
	.cfi_def_cfa_offset 56
	popq	%rbx
	.cfi_def_cfa_offset 48
	popq	%rbp
	.cfi_def_cfa_offset 40
	popq	%r12
	.cfi_def_cfa_offset 32
	popq	%r13
	.cfi_def_cfa_offset 24
	popq	%r14
	.cfi_def_cfa_offset 16
	popq	%r15
	.cfi_def_cfa_offset 8
	ret
	.p2align 4,,10
	.p2align 3
.L74:
	.cfi_restore_state
	leaq	744(%rsi), %rdi
	call	_ZN8opendnp314RequestHistory5ResetEv@PLT
	leaq	728(%rbx), %rdi
	call	_ZN7openpal8TimerRef6CancelEv@PLT
	leaq	104(%rbx), %rdi
	call	_ZN8opendnp311EventBuffer12ClearWrittenEv@PLT
	leaq	640(%rbx), %rdi
	call	_ZNK8opendnp315ResponseContext12HasSelectionEv@PLT
	testb	%al, %al
	jne	.L84
	movq	_ZN8opendnp39StateIdle8instanceE@GOTPCREL(%rip), %rax
	jmp	.L69
	.p2align 4,,10
	.p2align 3
.L82:
	leaq	12(%rsp), %r13
	addq	$8, %rbx
	movl	$4, 12(%rsp)
	movq	%rbx, %rdi
	movq	%r13, %rsi
	call	_ZNK7openpal6Logger9IsEnabledERKNS_10LogFiltersE@PLT
	testb	%al, %al
	je	.L72
	movzbl	5(%rbp), %r9d
	leaq	16(%rsp), %r14
	leaq	.LC13(%rip), %r8
	movl	$120, %ecx
	movl	$1, %edx
	movl	$120, %esi
	movq	%r14, %rdi
	xorl	%eax, %eax
	call	__snprintf_chk@PLT
	leaq	.LC14(%rip), %rdx
	movq	%r14, %rcx
	movq	%r13, %rsi
	movq	%rbx, %rdi
	movl	$4, 12(%rsp)
	call	_ZN7openpal6Logger3LogERKNS_10LogFiltersEPKcS5_@PLT
	jmp	.L72
	.p2align 4,,10
	.p2align 3
.L84:
	movzbl	5(%rbp), %eax
	leaq	12(%rsp), %rsi
	movq	%rbx, %rdi
	addl	$1, %eax
	andl	$15, %eax
	movb	%al, 12(%rsp)
	call	_ZN8opendnp38OContext25ContinueMultiFragResponseERKN7openpal11SequenceNumIhLh16EEE@PLT
	jmp	.L69
.L83:
	call	__stack_chk_fail@PLT
	.cfi_endproc
.LFE2675:
	.size	_ZN8opendnp325StateSolicitedConfirmWait9OnConfirmERNS_8OContextERKNS_10APDUHeaderE, .-_ZN8opendnp325StateSolicitedConfirmWait9OnConfirmERNS_8OContextERKNS_10APDUHeaderE
	.section	.text.startup,"ax",@progbits
	.p2align 4,,15
	.type	_GLOBAL__sub_I_OutstationStates.cpp, @function
_GLOBAL__sub_I_OutstationStates.cpp:
.LFB3517:
	.cfi_startproc
	subq	$8, %rsp
	.cfi_def_cfa_offset 16
	movl	$5000, %edi
	call	_ZN7openpal12TimeDuration12MillisecondsEl@PLT
	movq	_ZTVN8opendnp39StateIdleE@GOTPCREL(%rip), %rax
	movq	_ZN8opendnp39StateIdle8instanceE@GOTPCREL(%rip), %rsi
	leaq	__dso_handle(%rip), %rdx
	movq	_ZN8opendnp39StateIdleD1Ev@GOTPCREL(%rip), %rdi
	addq	$16, %rax
	movq	%rax, (%rsi)
	call	__cxa_atexit@PLT
	movq	_ZTVN8opendnp325StateSolicitedConfirmWaitE@GOTPCREL(%rip), %rax
	movq	_ZN8opendnp325StateSolicitedConfirmWait8instanceE@GOTPCREL(%rip), %rsi
	leaq	__dso_handle(%rip), %rdx
	movq	_ZN8opendnp325StateSolicitedConfirmWaitD1Ev@GOTPCREL(%rip), %rdi
	addq	$16, %rax
	movq	%rax, (%rsi)
	call	__cxa_atexit@PLT
	movq	_ZTVN8opendnp327StateUnsolicitedConfirmWaitE@GOTPCREL(%rip), %rax
	movq	_ZN8opendnp327StateUnsolicitedConfirmWait8instanceE@GOTPCREL(%rip), %rsi
	leaq	__dso_handle(%rip), %rdx
	movq	_ZN8opendnp327StateUnsolicitedConfirmWaitD1Ev@GOTPCREL(%rip), %rdi
	addq	$16, %rax
	movq	%rax, (%rsi)
	addq	$8, %rsp
	.cfi_def_cfa_offset 8
	jmp	__cxa_atexit@PLT
	.cfi_endproc
.LFE3517:
	.size	_GLOBAL__sub_I_OutstationStates.cpp, .-_GLOBAL__sub_I_OutstationStates.cpp
	.section	.init_array,"aw"
	.align 8
	.quad	_GLOBAL__sub_I_OutstationStates.cpp
	.section	.rodata.str1.1
.LC17:
	.string	"unsolicited confirm timeout"
	.section	.rodata.str1.8
	.align 8
.LC18:
	.string	"/home/raihan/OpenPLC_v3/utils/dnp3_src/cpp/libs/src/opendnp3/outstation/OutstationStates.cpp(175)"
	.text
	.align 2
	.p2align 4,,15
	.globl	_ZN8opendnp327StateUnsolicitedConfirmWait16OnConfirmTimeoutERNS_8OContextE
	.type	_ZN8opendnp327StateUnsolicitedConfirmWait16OnConfirmTimeoutERNS_8OContextE, @function
_ZN8opendnp327StateUnsolicitedConfirmWait16OnConfirmTimeoutERNS_8OContextE:
.LFB2682:
	.cfi_startproc
	pushq	%r12
	.cfi_def_cfa_offset 16
	.cfi_offset 12, -16
	pushq	%rbp
	.cfi_def_cfa_offset 24
	.cfi_offset 6, -24
	leaq	8(%rsi), %rbp
	pushq	%rbx
	.cfi_def_cfa_offset 32
	.cfi_offset 3, -32
	movq	%rsi, %rbx
	movq	%rbp, %rdi
	subq	$16, %rsp
	.cfi_def_cfa_offset 48
	leaq	4(%rsp), %r12
	movl	$4, 4(%rsp)
	movq	%fs:40, %rax
	movq	%rax, 8(%rsp)
	xorl	%eax, %eax
	movq	%r12, %rsi
	call	_ZNK7openpal6Logger9IsEnabledERKNS_10LogFiltersE@PLT
	testb	%al, %al
	jne	.L95
.L88:
	cmpb	$0, 888(%rbx)
	je	.L89
	leaq	104(%rbx), %rdi
	call	_ZN8opendnp311EventBuffer8UnselectEv@PLT
.L89:
	movq	8(%rsp), %rdx
	xorq	%fs:40, %rdx
	movq	_ZN8opendnp39StateIdle8instanceE@GOTPCREL(%rip), %rax
	jne	.L96
	addq	$16, %rsp
	.cfi_remember_state
	.cfi_def_cfa_offset 32
	popq	%rbx
	.cfi_def_cfa_offset 24
	popq	%rbp
	.cfi_def_cfa_offset 16
	popq	%r12
	.cfi_def_cfa_offset 8
	ret
	.p2align 4,,10
	.p2align 3
.L95:
	.cfi_restore_state
	leaq	.LC17(%rip), %rcx
	leaq	.LC18(%rip), %rdx
	movq	%r12, %rsi
	movq	%rbp, %rdi
	movl	$4, 4(%rsp)
	call	_ZN7openpal6Logger3LogERKNS_10LogFiltersEPKcS5_@PLT
	jmp	.L88
.L96:
	call	__stack_chk_fail@PLT
	.cfi_endproc
.LFE2682:
	.size	_ZN8opendnp327StateUnsolicitedConfirmWait16OnConfirmTimeoutERNS_8OContextE, .-_ZN8opendnp327StateUnsolicitedConfirmWait16OnConfirmTimeoutERNS_8OContextE
	.weak	_ZTSN7openpal10UncopyableE
	.section	.rodata._ZTSN7openpal10UncopyableE,"aG",@progbits,_ZTSN7openpal10UncopyableE,comdat
	.align 16
	.type	_ZTSN7openpal10UncopyableE, @object
	.size	_ZTSN7openpal10UncopyableE, 23
_ZTSN7openpal10UncopyableE:
	.string	"N7openpal10UncopyableE"
	.weak	_ZTIN7openpal10UncopyableE
	.section	.data.rel.ro._ZTIN7openpal10UncopyableE,"awG",@progbits,_ZTIN7openpal10UncopyableE,comdat
	.align 8
	.type	_ZTIN7openpal10UncopyableE, @object
	.size	_ZTIN7openpal10UncopyableE, 16
_ZTIN7openpal10UncopyableE:
	.quad	_ZTVN10__cxxabiv117__class_type_infoE+16
	.quad	_ZTSN7openpal10UncopyableE
	.weak	_ZTSN8opendnp315OutstationStateE
	.section	.rodata._ZTSN8opendnp315OutstationStateE,"aG",@progbits,_ZTSN8opendnp315OutstationStateE,comdat
	.align 16
	.type	_ZTSN8opendnp315OutstationStateE, @object
	.size	_ZTSN8opendnp315OutstationStateE, 29
_ZTSN8opendnp315OutstationStateE:
	.string	"N8opendnp315OutstationStateE"
	.weak	_ZTIN8opendnp315OutstationStateE
	.section	.data.rel.ro._ZTIN8opendnp315OutstationStateE,"awG",@progbits,_ZTIN8opendnp315OutstationStateE,comdat
	.align 8
	.type	_ZTIN8opendnp315OutstationStateE, @object
	.size	_ZTIN8opendnp315OutstationStateE, 40
_ZTIN8opendnp315OutstationStateE:
	.quad	_ZTVN10__cxxabiv121__vmi_class_type_infoE+16
	.quad	_ZTSN8opendnp315OutstationStateE
	.long	0
	.long	1
	.quad	_ZTIN7openpal10UncopyableE
	.quad	0
	.weak	_ZTSN8opendnp39StateIdleE
	.section	.rodata._ZTSN8opendnp39StateIdleE,"aG",@progbits,_ZTSN8opendnp39StateIdleE,comdat
	.align 16
	.type	_ZTSN8opendnp39StateIdleE, @object
	.size	_ZTSN8opendnp39StateIdleE, 22
_ZTSN8opendnp39StateIdleE:
	.string	"N8opendnp39StateIdleE"
	.weak	_ZTIN8opendnp39StateIdleE
	.section	.data.rel.ro._ZTIN8opendnp39StateIdleE,"awG",@progbits,_ZTIN8opendnp39StateIdleE,comdat
	.align 8
	.type	_ZTIN8opendnp39StateIdleE, @object
	.size	_ZTIN8opendnp39StateIdleE, 24
_ZTIN8opendnp39StateIdleE:
	.quad	_ZTVN10__cxxabiv120__si_class_type_infoE+16
	.quad	_ZTSN8opendnp39StateIdleE
	.quad	_ZTIN8opendnp315OutstationStateE
	.weak	_ZTSN8opendnp325StateSolicitedConfirmWaitE
	.section	.rodata._ZTSN8opendnp325StateSolicitedConfirmWaitE,"aG",@progbits,_ZTSN8opendnp325StateSolicitedConfirmWaitE,comdat
	.align 32
	.type	_ZTSN8opendnp325StateSolicitedConfirmWaitE, @object
	.size	_ZTSN8opendnp325StateSolicitedConfirmWaitE, 39
_ZTSN8opendnp325StateSolicitedConfirmWaitE:
	.string	"N8opendnp325StateSolicitedConfirmWaitE"
	.weak	_ZTIN8opendnp325StateSolicitedConfirmWaitE
	.section	.data.rel.ro._ZTIN8opendnp325StateSolicitedConfirmWaitE,"awG",@progbits,_ZTIN8opendnp325StateSolicitedConfirmWaitE,comdat
	.align 8
	.type	_ZTIN8opendnp325StateSolicitedConfirmWaitE, @object
	.size	_ZTIN8opendnp325StateSolicitedConfirmWaitE, 24
_ZTIN8opendnp325StateSolicitedConfirmWaitE:
	.quad	_ZTVN10__cxxabiv120__si_class_type_infoE+16
	.quad	_ZTSN8opendnp325StateSolicitedConfirmWaitE
	.quad	_ZTIN8opendnp315OutstationStateE
	.weak	_ZTSN8opendnp327StateUnsolicitedConfirmWaitE
	.section	.rodata._ZTSN8opendnp327StateUnsolicitedConfirmWaitE,"aG",@progbits,_ZTSN8opendnp327StateUnsolicitedConfirmWaitE,comdat
	.align 32
	.type	_ZTSN8opendnp327StateUnsolicitedConfirmWaitE, @object
	.size	_ZTSN8opendnp327StateUnsolicitedConfirmWaitE, 41
_ZTSN8opendnp327StateUnsolicitedConfirmWaitE:
	.string	"N8opendnp327StateUnsolicitedConfirmWaitE"
	.weak	_ZTIN8opendnp327StateUnsolicitedConfirmWaitE
	.section	.data.rel.ro._ZTIN8opendnp327StateUnsolicitedConfirmWaitE,"awG",@progbits,_ZTIN8opendnp327StateUnsolicitedConfirmWaitE,comdat
	.align 8
	.type	_ZTIN8opendnp327StateUnsolicitedConfirmWaitE, @object
	.size	_ZTIN8opendnp327StateUnsolicitedConfirmWaitE, 24
_ZTIN8opendnp327StateUnsolicitedConfirmWaitE:
	.quad	_ZTVN10__cxxabiv120__si_class_type_infoE+16
	.quad	_ZTSN8opendnp327StateUnsolicitedConfirmWaitE
	.quad	_ZTIN8opendnp315OutstationStateE
	.weak	_ZTVN8opendnp39StateIdleE
	.section	.data.rel.ro._ZTVN8opendnp39StateIdleE,"awG",@progbits,_ZTVN8opendnp39StateIdleE,comdat
	.align 8
	.type	_ZTVN8opendnp39StateIdleE, @object
	.size	_ZTVN8opendnp39StateIdleE, 80
_ZTVN8opendnp39StateIdleE:
	.quad	0
	.quad	_ZTIN8opendnp39StateIdleE
	.quad	_ZN8opendnp39StateIdle6IsIdleEv
	.quad	_ZN8opendnp39StateIdle4NameEv
	.quad	_ZN8opendnp39StateIdle9OnConfirmERNS_8OContextERKNS_10APDUHeaderE
	.quad	_ZN8opendnp39StateIdle16OnConfirmTimeoutERNS_8OContextE
	.quad	_ZN8opendnp39StateIdle16OnNewReadRequestERNS_8OContextERKNS_10APDUHeaderERKN7openpal6RSliceE
	.quad	_ZN8opendnp39StateIdle19OnNewNonReadRequestERNS_8OContextERKNS_10APDUHeaderERKN7openpal6RSliceE
	.quad	_ZN8opendnp39StateIdle22OnRepeatNonReadRequestERNS_8OContextERKNS_10APDUHeaderERKN7openpal6RSliceE
	.quad	_ZN8opendnp39StateIdle19OnRepeatReadRequestERNS_8OContextERKNS_10APDUHeaderERKN7openpal6RSliceE
	.weak	_ZTVN8opendnp325StateSolicitedConfirmWaitE
	.section	.data.rel.ro._ZTVN8opendnp325StateSolicitedConfirmWaitE,"awG",@progbits,_ZTVN8opendnp325StateSolicitedConfirmWaitE,comdat
	.align 8
	.type	_ZTVN8opendnp325StateSolicitedConfirmWaitE, @object
	.size	_ZTVN8opendnp325StateSolicitedConfirmWaitE, 80
_ZTVN8opendnp325StateSolicitedConfirmWaitE:
	.quad	0
	.quad	_ZTIN8opendnp325StateSolicitedConfirmWaitE
	.quad	_ZN8opendnp315OutstationState6IsIdleEv
	.quad	_ZN8opendnp325StateSolicitedConfirmWait4NameEv
	.quad	_ZN8opendnp325StateSolicitedConfirmWait9OnConfirmERNS_8OContextERKNS_10APDUHeaderE
	.quad	_ZN8opendnp325StateSolicitedConfirmWait16OnConfirmTimeoutERNS_8OContextE
	.quad	_ZN8opendnp325StateSolicitedConfirmWait16OnNewReadRequestERNS_8OContextERKNS_10APDUHeaderERKN7openpal6RSliceE
	.quad	_ZN8opendnp325StateSolicitedConfirmWait19OnNewNonReadRequestERNS_8OContextERKNS_10APDUHeaderERKN7openpal6RSliceE
	.quad	_ZN8opendnp325StateSolicitedConfirmWait22OnRepeatNonReadRequestERNS_8OContextERKNS_10APDUHeaderERKN7openpal6RSliceE
	.quad	_ZN8opendnp325StateSolicitedConfirmWait19OnRepeatReadRequestERNS_8OContextERKNS_10APDUHeaderERKN7openpal6RSliceE
	.weak	_ZTVN8opendnp327StateUnsolicitedConfirmWaitE
	.section	.data.rel.ro._ZTVN8opendnp327StateUnsolicitedConfirmWaitE,"awG",@progbits,_ZTVN8opendnp327StateUnsolicitedConfirmWaitE,comdat
	.align 8
	.type	_ZTVN8opendnp327StateUnsolicitedConfirmWaitE, @object
	.size	_ZTVN8opendnp327StateUnsolicitedConfirmWaitE, 80
_ZTVN8opendnp327StateUnsolicitedConfirmWaitE:
	.quad	0
	.quad	_ZTIN8opendnp327StateUnsolicitedConfirmWaitE
	.quad	_ZN8opendnp315OutstationState6IsIdleEv
	.quad	_ZN8opendnp327StateUnsolicitedConfirmWait4NameEv
	.quad	_ZN8opendnp327StateUnsolicitedConfirmWait9OnConfirmERNS_8OContextERKNS_10APDUHeaderE
	.quad	_ZN8opendnp327StateUnsolicitedConfirmWait16OnConfirmTimeoutERNS_8OContextE
	.quad	_ZN8opendnp327StateUnsolicitedConfirmWait16OnNewReadRequestERNS_8OContextERKNS_10APDUHeaderERKN7openpal6RSliceE
	.quad	_ZN8opendnp327StateUnsolicitedConfirmWait19OnNewNonReadRequestERNS_8OContextERKNS_10APDUHeaderERKN7openpal6RSliceE
	.quad	_ZN8opendnp327StateUnsolicitedConfirmWait22OnRepeatNonReadRequestERNS_8OContextERKNS_10APDUHeaderERKN7openpal6RSliceE
	.quad	_ZN8opendnp327StateUnsolicitedConfirmWait19OnRepeatReadRequestERNS_8OContextERKNS_10APDUHeaderERKN7openpal6RSliceE
	.globl	_ZN8opendnp327StateUnsolicitedConfirmWait8instanceE
	.bss
	.align 8
	.type	_ZN8opendnp327StateUnsolicitedConfirmWait8instanceE, @object
	.size	_ZN8opendnp327StateUnsolicitedConfirmWait8instanceE, 8
_ZN8opendnp327StateUnsolicitedConfirmWait8instanceE:
	.zero	8
	.globl	_ZN8opendnp325StateSolicitedConfirmWait8instanceE
	.align 8
	.type	_ZN8opendnp325StateSolicitedConfirmWait8instanceE, @object
	.size	_ZN8opendnp325StateSolicitedConfirmWait8instanceE, 8
_ZN8opendnp325StateSolicitedConfirmWait8instanceE:
	.zero	8
	.globl	_ZN8opendnp39StateIdle8instanceE
	.align 8
	.type	_ZN8opendnp39StateIdle8instanceE, @object
	.size	_ZN8opendnp39StateIdle8instanceE, 8
_ZN8opendnp39StateIdle8instanceE:
	.zero	8
	.hidden	__dso_handle
	.ident	"GCC: (Ubuntu 7.5.0-3ubuntu1~18.04) 7.5.0"
	.section	.note.GNU-stack,"",@progbits
