	.file	"PrintingSOEHandler.cpp"
	.text
	.section	.text._ZNKSt5ctypeIcE8do_widenEc,"axG",@progbits,_ZNKSt5ctypeIcE8do_widenEc,comdat
	.align 2
	.p2align 4,,15
	.weak	_ZNKSt5ctypeIcE8do_widenEc
	.type	_ZNKSt5ctypeIcE8do_widenEc, @function
_ZNKSt5ctypeIcE8do_widenEc:
.LFB1440:
	.cfi_startproc
	movl	%esi, %eax
	ret
	.cfi_endproc
.LFE1440:
	.size	_ZNKSt5ctypeIcE8do_widenEc, .-_ZNKSt5ctypeIcE8do_widenEc
	.section	.text._ZN8asiodnp318PrintingSOEHandler5StartEv,"axG",@progbits,_ZN8asiodnp318PrintingSOEHandler5StartEv,comdat
	.align 2
	.p2align 4,,15
	.weak	_ZN8asiodnp318PrintingSOEHandler5StartEv
	.type	_ZN8asiodnp318PrintingSOEHandler5StartEv, @function
_ZN8asiodnp318PrintingSOEHandler5StartEv:
.LFB2635:
	.cfi_startproc
	rep ret
	.cfi_endproc
.LFE2635:
	.size	_ZN8asiodnp318PrintingSOEHandler5StartEv, .-_ZN8asiodnp318PrintingSOEHandler5StartEv
	.section	.text._ZN8asiodnp318PrintingSOEHandler3EndEv,"axG",@progbits,_ZN8asiodnp318PrintingSOEHandler3EndEv,comdat
	.align 2
	.p2align 4,,15
	.weak	_ZN8asiodnp318PrintingSOEHandler3EndEv
	.type	_ZN8asiodnp318PrintingSOEHandler3EndEv, @function
_ZN8asiodnp318PrintingSOEHandler3EndEv:
.LFB2636:
	.cfi_startproc
	rep ret
	.cfi_endproc
.LFE2636:
	.size	_ZN8asiodnp318PrintingSOEHandler3EndEv, .-_ZN8asiodnp318PrintingSOEHandler3EndEv
	.text
	.align 2
	.p2align 4,,15
	.globl	_ZN8asiodnp318PrintingSOEHandler7ProcessERKN8opendnp310HeaderInfoERKNS1_11ICollectionINS1_7IndexedINS1_6BinaryEEEEE
	.type	_ZN8asiodnp318PrintingSOEHandler7ProcessERKN8opendnp310HeaderInfoERKNS1_11ICollectionINS1_7IndexedINS1_6BinaryEEEEE, @function
_ZN8asiodnp318PrintingSOEHandler7ProcessERKN8opendnp310HeaderInfoERKNS1_11ICollectionINS1_7IndexedINS1_6BinaryEEEEE:
.LFB2643:
	.cfi_startproc
	subq	$40, %rsp
	.cfi_def_cfa_offset 48
	movq	%rdx, %rdi
	movq	%fs:40, %rax
	movq	%rax, 24(%rsp)
	xorl	%eax, %eax
	movq	_ZTVN8opendnp314FunctorVisitorINS_7IndexedINS_6BinaryEEEZN8asiodnp318PrintingSOEHandler8PrintAllIS2_EEvRKNS_10HeaderInfoERKNS_11ICollectionINS1_IT_EEEEEUlRKS3_E_EE@GOTPCREL(%rip), %rax
	movq	%rsi, 8(%rsp)
	movq	%rsp, %rsi
	addq	$16, %rax
	movq	%rax, (%rsp)
	movq	(%rdx), %rax
	call	*8(%rax)
	movq	24(%rsp), %rax
	xorq	%fs:40, %rax
	jne	.L8
	addq	$40, %rsp
	.cfi_remember_state
	.cfi_def_cfa_offset 8
	ret
.L8:
	.cfi_restore_state
	call	__stack_chk_fail@PLT
	.cfi_endproc
.LFE2643:
	.size	_ZN8asiodnp318PrintingSOEHandler7ProcessERKN8opendnp310HeaderInfoERKNS1_11ICollectionINS1_7IndexedINS1_6BinaryEEEEE, .-_ZN8asiodnp318PrintingSOEHandler7ProcessERKN8opendnp310HeaderInfoERKNS1_11ICollectionINS1_7IndexedINS1_6BinaryEEEEE
	.align 2
	.p2align 4,,15
	.globl	_ZN8asiodnp318PrintingSOEHandler7ProcessERKN8opendnp310HeaderInfoERKNS1_11ICollectionINS1_7IndexedINS1_15DoubleBitBinaryEEEEE
	.type	_ZN8asiodnp318PrintingSOEHandler7ProcessERKN8opendnp310HeaderInfoERKNS1_11ICollectionINS1_7IndexedINS1_15DoubleBitBinaryEEEEE, @function
_ZN8asiodnp318PrintingSOEHandler7ProcessERKN8opendnp310HeaderInfoERKNS1_11ICollectionINS1_7IndexedINS1_15DoubleBitBinaryEEEEE:
.LFB2644:
	.cfi_startproc
	subq	$40, %rsp
	.cfi_def_cfa_offset 48
	movq	%rdx, %rdi
	movq	%fs:40, %rax
	movq	%rax, 24(%rsp)
	xorl	%eax, %eax
	movq	_ZTVN8opendnp314FunctorVisitorINS_7IndexedINS_15DoubleBitBinaryEEEZN8asiodnp318PrintingSOEHandler8PrintAllIS2_EEvRKNS_10HeaderInfoERKNS_11ICollectionINS1_IT_EEEEEUlRKS3_E_EE@GOTPCREL(%rip), %rax
	movq	%rsi, 8(%rsp)
	movq	%rsp, %rsi
	addq	$16, %rax
	movq	%rax, (%rsp)
	movq	(%rdx), %rax
	call	*8(%rax)
	movq	24(%rsp), %rax
	xorq	%fs:40, %rax
	jne	.L12
	addq	$40, %rsp
	.cfi_remember_state
	.cfi_def_cfa_offset 8
	ret
.L12:
	.cfi_restore_state
	call	__stack_chk_fail@PLT
	.cfi_endproc
.LFE2644:
	.size	_ZN8asiodnp318PrintingSOEHandler7ProcessERKN8opendnp310HeaderInfoERKNS1_11ICollectionINS1_7IndexedINS1_15DoubleBitBinaryEEEEE, .-_ZN8asiodnp318PrintingSOEHandler7ProcessERKN8opendnp310HeaderInfoERKNS1_11ICollectionINS1_7IndexedINS1_15DoubleBitBinaryEEEEE
	.align 2
	.p2align 4,,15
	.globl	_ZN8asiodnp318PrintingSOEHandler7ProcessERKN8opendnp310HeaderInfoERKNS1_11ICollectionINS1_7IndexedINS1_6AnalogEEEEE
	.type	_ZN8asiodnp318PrintingSOEHandler7ProcessERKN8opendnp310HeaderInfoERKNS1_11ICollectionINS1_7IndexedINS1_6AnalogEEEEE, @function
_ZN8asiodnp318PrintingSOEHandler7ProcessERKN8opendnp310HeaderInfoERKNS1_11ICollectionINS1_7IndexedINS1_6AnalogEEEEE:
.LFB2645:
	.cfi_startproc
	subq	$40, %rsp
	.cfi_def_cfa_offset 48
	movq	%rdx, %rdi
	movq	%fs:40, %rax
	movq	%rax, 24(%rsp)
	xorl	%eax, %eax
	movq	_ZTVN8opendnp314FunctorVisitorINS_7IndexedINS_6AnalogEEEZN8asiodnp318PrintingSOEHandler8PrintAllIS2_EEvRKNS_10HeaderInfoERKNS_11ICollectionINS1_IT_EEEEEUlRKS3_E_EE@GOTPCREL(%rip), %rax
	movq	%rsi, 8(%rsp)
	movq	%rsp, %rsi
	addq	$16, %rax
	movq	%rax, (%rsp)
	movq	(%rdx), %rax
	call	*8(%rax)
	movq	24(%rsp), %rax
	xorq	%fs:40, %rax
	jne	.L16
	addq	$40, %rsp
	.cfi_remember_state
	.cfi_def_cfa_offset 8
	ret
.L16:
	.cfi_restore_state
	call	__stack_chk_fail@PLT
	.cfi_endproc
.LFE2645:
	.size	_ZN8asiodnp318PrintingSOEHandler7ProcessERKN8opendnp310HeaderInfoERKNS1_11ICollectionINS1_7IndexedINS1_6AnalogEEEEE, .-_ZN8asiodnp318PrintingSOEHandler7ProcessERKN8opendnp310HeaderInfoERKNS1_11ICollectionINS1_7IndexedINS1_6AnalogEEEEE
	.align 2
	.p2align 4,,15
	.globl	_ZN8asiodnp318PrintingSOEHandler7ProcessERKN8opendnp310HeaderInfoERKNS1_11ICollectionINS1_7IndexedINS1_7CounterEEEEE
	.type	_ZN8asiodnp318PrintingSOEHandler7ProcessERKN8opendnp310HeaderInfoERKNS1_11ICollectionINS1_7IndexedINS1_7CounterEEEEE, @function
_ZN8asiodnp318PrintingSOEHandler7ProcessERKN8opendnp310HeaderInfoERKNS1_11ICollectionINS1_7IndexedINS1_7CounterEEEEE:
.LFB2646:
	.cfi_startproc
	subq	$40, %rsp
	.cfi_def_cfa_offset 48
	movq	%rdx, %rdi
	movq	%fs:40, %rax
	movq	%rax, 24(%rsp)
	xorl	%eax, %eax
	movq	_ZTVN8opendnp314FunctorVisitorINS_7IndexedINS_7CounterEEEZN8asiodnp318PrintingSOEHandler8PrintAllIS2_EEvRKNS_10HeaderInfoERKNS_11ICollectionINS1_IT_EEEEEUlRKS3_E_EE@GOTPCREL(%rip), %rax
	movq	%rsi, 8(%rsp)
	movq	%rsp, %rsi
	addq	$16, %rax
	movq	%rax, (%rsp)
	movq	(%rdx), %rax
	call	*8(%rax)
	movq	24(%rsp), %rax
	xorq	%fs:40, %rax
	jne	.L20
	addq	$40, %rsp
	.cfi_remember_state
	.cfi_def_cfa_offset 8
	ret
.L20:
	.cfi_restore_state
	call	__stack_chk_fail@PLT
	.cfi_endproc
.LFE2646:
	.size	_ZN8asiodnp318PrintingSOEHandler7ProcessERKN8opendnp310HeaderInfoERKNS1_11ICollectionINS1_7IndexedINS1_7CounterEEEEE, .-_ZN8asiodnp318PrintingSOEHandler7ProcessERKN8opendnp310HeaderInfoERKNS1_11ICollectionINS1_7IndexedINS1_7CounterEEEEE
	.align 2
	.p2align 4,,15
	.globl	_ZN8asiodnp318PrintingSOEHandler7ProcessERKN8opendnp310HeaderInfoERKNS1_11ICollectionINS1_7IndexedINS1_13FrozenCounterEEEEE
	.type	_ZN8asiodnp318PrintingSOEHandler7ProcessERKN8opendnp310HeaderInfoERKNS1_11ICollectionINS1_7IndexedINS1_13FrozenCounterEEEEE, @function
_ZN8asiodnp318PrintingSOEHandler7ProcessERKN8opendnp310HeaderInfoERKNS1_11ICollectionINS1_7IndexedINS1_13FrozenCounterEEEEE:
.LFB2647:
	.cfi_startproc
	subq	$40, %rsp
	.cfi_def_cfa_offset 48
	movq	%rdx, %rdi
	movq	%fs:40, %rax
	movq	%rax, 24(%rsp)
	xorl	%eax, %eax
	movq	_ZTVN8opendnp314FunctorVisitorINS_7IndexedINS_13FrozenCounterEEEZN8asiodnp318PrintingSOEHandler8PrintAllIS2_EEvRKNS_10HeaderInfoERKNS_11ICollectionINS1_IT_EEEEEUlRKS3_E_EE@GOTPCREL(%rip), %rax
	movq	%rsi, 8(%rsp)
	movq	%rsp, %rsi
	addq	$16, %rax
	movq	%rax, (%rsp)
	movq	(%rdx), %rax
	call	*8(%rax)
	movq	24(%rsp), %rax
	xorq	%fs:40, %rax
	jne	.L24
	addq	$40, %rsp
	.cfi_remember_state
	.cfi_def_cfa_offset 8
	ret
.L24:
	.cfi_restore_state
	call	__stack_chk_fail@PLT
	.cfi_endproc
.LFE2647:
	.size	_ZN8asiodnp318PrintingSOEHandler7ProcessERKN8opendnp310HeaderInfoERKNS1_11ICollectionINS1_7IndexedINS1_13FrozenCounterEEEEE, .-_ZN8asiodnp318PrintingSOEHandler7ProcessERKN8opendnp310HeaderInfoERKNS1_11ICollectionINS1_7IndexedINS1_13FrozenCounterEEEEE
	.align 2
	.p2align 4,,15
	.globl	_ZN8asiodnp318PrintingSOEHandler7ProcessERKN8opendnp310HeaderInfoERKNS1_11ICollectionINS1_7IndexedINS1_18BinaryOutputStatusEEEEE
	.type	_ZN8asiodnp318PrintingSOEHandler7ProcessERKN8opendnp310HeaderInfoERKNS1_11ICollectionINS1_7IndexedINS1_18BinaryOutputStatusEEEEE, @function
_ZN8asiodnp318PrintingSOEHandler7ProcessERKN8opendnp310HeaderInfoERKNS1_11ICollectionINS1_7IndexedINS1_18BinaryOutputStatusEEEEE:
.LFB2648:
	.cfi_startproc
	subq	$40, %rsp
	.cfi_def_cfa_offset 48
	movq	%rdx, %rdi
	movq	%fs:40, %rax
	movq	%rax, 24(%rsp)
	xorl	%eax, %eax
	movq	_ZTVN8opendnp314FunctorVisitorINS_7IndexedINS_18BinaryOutputStatusEEEZN8asiodnp318PrintingSOEHandler8PrintAllIS2_EEvRKNS_10HeaderInfoERKNS_11ICollectionINS1_IT_EEEEEUlRKS3_E_EE@GOTPCREL(%rip), %rax
	movq	%rsi, 8(%rsp)
	movq	%rsp, %rsi
	addq	$16, %rax
	movq	%rax, (%rsp)
	movq	(%rdx), %rax
	call	*8(%rax)
	movq	24(%rsp), %rax
	xorq	%fs:40, %rax
	jne	.L28
	addq	$40, %rsp
	.cfi_remember_state
	.cfi_def_cfa_offset 8
	ret
.L28:
	.cfi_restore_state
	call	__stack_chk_fail@PLT
	.cfi_endproc
.LFE2648:
	.size	_ZN8asiodnp318PrintingSOEHandler7ProcessERKN8opendnp310HeaderInfoERKNS1_11ICollectionINS1_7IndexedINS1_18BinaryOutputStatusEEEEE, .-_ZN8asiodnp318PrintingSOEHandler7ProcessERKN8opendnp310HeaderInfoERKNS1_11ICollectionINS1_7IndexedINS1_18BinaryOutputStatusEEEEE
	.align 2
	.p2align 4,,15
	.globl	_ZN8asiodnp318PrintingSOEHandler7ProcessERKN8opendnp310HeaderInfoERKNS1_11ICollectionINS1_7IndexedINS1_18AnalogOutputStatusEEEEE
	.type	_ZN8asiodnp318PrintingSOEHandler7ProcessERKN8opendnp310HeaderInfoERKNS1_11ICollectionINS1_7IndexedINS1_18AnalogOutputStatusEEEEE, @function
_ZN8asiodnp318PrintingSOEHandler7ProcessERKN8opendnp310HeaderInfoERKNS1_11ICollectionINS1_7IndexedINS1_18AnalogOutputStatusEEEEE:
.LFB2649:
	.cfi_startproc
	subq	$40, %rsp
	.cfi_def_cfa_offset 48
	movq	%rdx, %rdi
	movq	%fs:40, %rax
	movq	%rax, 24(%rsp)
	xorl	%eax, %eax
	movq	_ZTVN8opendnp314FunctorVisitorINS_7IndexedINS_18AnalogOutputStatusEEEZN8asiodnp318PrintingSOEHandler8PrintAllIS2_EEvRKNS_10HeaderInfoERKNS_11ICollectionINS1_IT_EEEEEUlRKS3_E_EE@GOTPCREL(%rip), %rax
	movq	%rsi, 8(%rsp)
	movq	%rsp, %rsi
	addq	$16, %rax
	movq	%rax, (%rsp)
	movq	(%rdx), %rax
	call	*8(%rax)
	movq	24(%rsp), %rax
	xorq	%fs:40, %rax
	jne	.L32
	addq	$40, %rsp
	.cfi_remember_state
	.cfi_def_cfa_offset 8
	ret
.L32:
	.cfi_restore_state
	call	__stack_chk_fail@PLT
	.cfi_endproc
.LFE2649:
	.size	_ZN8asiodnp318PrintingSOEHandler7ProcessERKN8opendnp310HeaderInfoERKNS1_11ICollectionINS1_7IndexedINS1_18AnalogOutputStatusEEEEE, .-_ZN8asiodnp318PrintingSOEHandler7ProcessERKN8opendnp310HeaderInfoERKNS1_11ICollectionINS1_7IndexedINS1_18AnalogOutputStatusEEEEE
	.align 2
	.p2align 4,,15
	.globl	_ZN8asiodnp318PrintingSOEHandler7ProcessERKN8opendnp310HeaderInfoERKNS1_11ICollectionINS1_7IndexedINS1_11OctetStringEEEEE
	.type	_ZN8asiodnp318PrintingSOEHandler7ProcessERKN8opendnp310HeaderInfoERKNS1_11ICollectionINS1_7IndexedINS1_11OctetStringEEEEE, @function
_ZN8asiodnp318PrintingSOEHandler7ProcessERKN8opendnp310HeaderInfoERKNS1_11ICollectionINS1_7IndexedINS1_11OctetStringEEEEE:
.LFB2650:
	.cfi_startproc
	subq	$40, %rsp
	.cfi_def_cfa_offset 48
	movq	%rdx, %rdi
	movq	%fs:40, %rax
	movq	%rax, 24(%rsp)
	xorl	%eax, %eax
	leaq	16+_ZTVN8opendnp314FunctorVisitorINS_7IndexedINS_11OctetStringEEEZN8asiodnp318PrintingSOEHandler7ProcessERKNS_10HeaderInfoERKNS_11ICollectionIS3_EEEUlRKS3_E_EE(%rip), %rax
	movq	%rsp, %rsi
	movq	%rax, (%rsp)
	movq	(%rdx), %rax
	call	*8(%rax)
	movq	24(%rsp), %rax
	xorq	%fs:40, %rax
	jne	.L36
	addq	$40, %rsp
	.cfi_remember_state
	.cfi_def_cfa_offset 8
	ret
.L36:
	.cfi_restore_state
	call	__stack_chk_fail@PLT
	.cfi_endproc
.LFE2650:
	.size	_ZN8asiodnp318PrintingSOEHandler7ProcessERKN8opendnp310HeaderInfoERKNS1_11ICollectionINS1_7IndexedINS1_11OctetStringEEEEE, .-_ZN8asiodnp318PrintingSOEHandler7ProcessERKN8opendnp310HeaderInfoERKNS1_11ICollectionINS1_7IndexedINS1_11OctetStringEEEEE
	.align 2
	.p2align 4,,15
	.globl	_ZN8asiodnp318PrintingSOEHandler7ProcessERKN8opendnp310HeaderInfoERKNS1_11ICollectionINS1_7IndexedINS1_15TimeAndIntervalEEEEE
	.type	_ZN8asiodnp318PrintingSOEHandler7ProcessERKN8opendnp310HeaderInfoERKNS1_11ICollectionINS1_7IndexedINS1_15TimeAndIntervalEEEEE, @function
_ZN8asiodnp318PrintingSOEHandler7ProcessERKN8opendnp310HeaderInfoERKNS1_11ICollectionINS1_7IndexedINS1_15TimeAndIntervalEEEEE:
.LFB2654:
	.cfi_startproc
	subq	$40, %rsp
	.cfi_def_cfa_offset 48
	movq	%rdx, %rdi
	movq	%fs:40, %rax
	movq	%rax, 24(%rsp)
	xorl	%eax, %eax
	leaq	16+_ZTVN8opendnp314FunctorVisitorINS_7IndexedINS_15TimeAndIntervalEEEZN8asiodnp318PrintingSOEHandler7ProcessERKNS_10HeaderInfoERKNS_11ICollectionIS3_EEEUlRKS3_E_EE(%rip), %rax
	movq	%rsp, %rsi
	movq	%rax, (%rsp)
	movq	(%rdx), %rax
	call	*8(%rax)
	movq	24(%rsp), %rax
	xorq	%fs:40, %rax
	jne	.L40
	addq	$40, %rsp
	.cfi_remember_state
	.cfi_def_cfa_offset 8
	ret
.L40:
	.cfi_restore_state
	call	__stack_chk_fail@PLT
	.cfi_endproc
.LFE2654:
	.size	_ZN8asiodnp318PrintingSOEHandler7ProcessERKN8opendnp310HeaderInfoERKNS1_11ICollectionINS1_7IndexedINS1_15TimeAndIntervalEEEEE, .-_ZN8asiodnp318PrintingSOEHandler7ProcessERKN8opendnp310HeaderInfoERKNS1_11ICollectionINS1_7IndexedINS1_15TimeAndIntervalEEEEE
	.align 2
	.p2align 4,,15
	.globl	_ZN8asiodnp318PrintingSOEHandler7ProcessERKN8opendnp310HeaderInfoERKNS1_11ICollectionINS1_7IndexedINS1_18BinaryCommandEventEEEEE
	.type	_ZN8asiodnp318PrintingSOEHandler7ProcessERKN8opendnp310HeaderInfoERKNS1_11ICollectionINS1_7IndexedINS1_18BinaryCommandEventEEEEE, @function
_ZN8asiodnp318PrintingSOEHandler7ProcessERKN8opendnp310HeaderInfoERKNS1_11ICollectionINS1_7IndexedINS1_18BinaryCommandEventEEEEE:
.LFB2658:
	.cfi_startproc
	subq	$40, %rsp
	.cfi_def_cfa_offset 48
	movq	%rdx, %rdi
	movq	%fs:40, %rax
	movq	%rax, 24(%rsp)
	xorl	%eax, %eax
	leaq	16+_ZTVN8opendnp314FunctorVisitorINS_7IndexedINS_18BinaryCommandEventEEEZN8asiodnp318PrintingSOEHandler7ProcessERKNS_10HeaderInfoERKNS_11ICollectionIS3_EEEUlRKS3_E_EE(%rip), %rax
	movq	%rsp, %rsi
	movq	%rax, (%rsp)
	movq	(%rdx), %rax
	call	*8(%rax)
	movq	24(%rsp), %rax
	xorq	%fs:40, %rax
	jne	.L44
	addq	$40, %rsp
	.cfi_remember_state
	.cfi_def_cfa_offset 8
	ret
.L44:
	.cfi_restore_state
	call	__stack_chk_fail@PLT
	.cfi_endproc
.LFE2658:
	.size	_ZN8asiodnp318PrintingSOEHandler7ProcessERKN8opendnp310HeaderInfoERKNS1_11ICollectionINS1_7IndexedINS1_18BinaryCommandEventEEEEE, .-_ZN8asiodnp318PrintingSOEHandler7ProcessERKN8opendnp310HeaderInfoERKNS1_11ICollectionINS1_7IndexedINS1_18BinaryCommandEventEEEEE
	.align 2
	.p2align 4,,15
	.globl	_ZN8asiodnp318PrintingSOEHandler7ProcessERKN8opendnp310HeaderInfoERKNS1_11ICollectionINS1_7IndexedINS1_18AnalogCommandEventEEEEE
	.type	_ZN8asiodnp318PrintingSOEHandler7ProcessERKN8opendnp310HeaderInfoERKNS1_11ICollectionINS1_7IndexedINS1_18AnalogCommandEventEEEEE, @function
_ZN8asiodnp318PrintingSOEHandler7ProcessERKN8opendnp310HeaderInfoERKNS1_11ICollectionINS1_7IndexedINS1_18AnalogCommandEventEEEEE:
.LFB2662:
	.cfi_startproc
	subq	$40, %rsp
	.cfi_def_cfa_offset 48
	movq	%rdx, %rdi
	movq	%fs:40, %rax
	movq	%rax, 24(%rsp)
	xorl	%eax, %eax
	leaq	16+_ZTVN8opendnp314FunctorVisitorINS_7IndexedINS_18AnalogCommandEventEEEZN8asiodnp318PrintingSOEHandler7ProcessERKNS_10HeaderInfoERKNS_11ICollectionIS3_EEEUlRKS3_E_EE(%rip), %rax
	movq	%rsp, %rsi
	movq	%rax, (%rsp)
	movq	(%rdx), %rax
	call	*8(%rax)
	movq	24(%rsp), %rax
	xorq	%fs:40, %rax
	jne	.L48
	addq	$40, %rsp
	.cfi_remember_state
	.cfi_def_cfa_offset 8
	ret
.L48:
	.cfi_restore_state
	call	__stack_chk_fail@PLT
	.cfi_endproc
.LFE2662:
	.size	_ZN8asiodnp318PrintingSOEHandler7ProcessERKN8opendnp310HeaderInfoERKNS1_11ICollectionINS1_7IndexedINS1_18AnalogCommandEventEEEEE, .-_ZN8asiodnp318PrintingSOEHandler7ProcessERKN8opendnp310HeaderInfoERKNS1_11ICollectionINS1_7IndexedINS1_18AnalogCommandEventEEEEE
	.align 2
	.p2align 4,,15
	.globl	_ZN8asiodnp318PrintingSOEHandler7ProcessERKN8opendnp310HeaderInfoERKNS1_11ICollectionINS1_7IndexedINS1_12SecurityStatEEEEE
	.type	_ZN8asiodnp318PrintingSOEHandler7ProcessERKN8opendnp310HeaderInfoERKNS1_11ICollectionINS1_7IndexedINS1_12SecurityStatEEEEE, @function
_ZN8asiodnp318PrintingSOEHandler7ProcessERKN8opendnp310HeaderInfoERKNS1_11ICollectionINS1_7IndexedINS1_12SecurityStatEEEEE:
.LFB2666:
	.cfi_startproc
	subq	$40, %rsp
	.cfi_def_cfa_offset 48
	movq	%rdx, %rdi
	movq	%fs:40, %rax
	movq	%rax, 24(%rsp)
	xorl	%eax, %eax
	leaq	16+_ZTVN8opendnp314FunctorVisitorINS_7IndexedINS_12SecurityStatEEEZN8asiodnp318PrintingSOEHandler7ProcessERKNS_10HeaderInfoERKNS_11ICollectionIS3_EEEUlRKS3_E_EE(%rip), %rax
	movq	%rsp, %rsi
	movq	%rax, (%rsp)
	movq	(%rdx), %rax
	call	*8(%rax)
	movq	24(%rsp), %rax
	xorq	%fs:40, %rax
	jne	.L52
	addq	$40, %rsp
	.cfi_remember_state
	.cfi_def_cfa_offset 8
	ret
.L52:
	.cfi_restore_state
	call	__stack_chk_fail@PLT
	.cfi_endproc
.LFE2666:
	.size	_ZN8asiodnp318PrintingSOEHandler7ProcessERKN8opendnp310HeaderInfoERKNS1_11ICollectionINS1_7IndexedINS1_12SecurityStatEEEEE, .-_ZN8asiodnp318PrintingSOEHandler7ProcessERKN8opendnp310HeaderInfoERKNS1_11ICollectionINS1_7IndexedINS1_12SecurityStatEEEEE
	.align 2
	.p2align 4,,15
	.globl	_ZN8asiodnp318PrintingSOEHandler7ProcessERKN8opendnp310HeaderInfoERKNS1_11ICollectionIN7openpal10UInt48TypeEEE
	.type	_ZN8asiodnp318PrintingSOEHandler7ProcessERKN8opendnp310HeaderInfoERKNS1_11ICollectionIN7openpal10UInt48TypeEEE, @function
_ZN8asiodnp318PrintingSOEHandler7ProcessERKN8opendnp310HeaderInfoERKNS1_11ICollectionIN7openpal10UInt48TypeEEE:
.LFB2670:
	.cfi_startproc
	subq	$40, %rsp
	.cfi_def_cfa_offset 48
	movq	%rdx, %rdi
	movq	%fs:40, %rax
	movq	%rax, 24(%rsp)
	xorl	%eax, %eax
	leaq	16+_ZTVN8opendnp314FunctorVisitorIN7openpal10UInt48TypeEZN8asiodnp318PrintingSOEHandler7ProcessERKNS_10HeaderInfoERKNS_11ICollectionIS2_EEEUlRKS2_E_EE(%rip), %rax
	movq	%rsp, %rsi
	movq	%rax, (%rsp)
	movq	(%rdx), %rax
	call	*8(%rax)
	movq	24(%rsp), %rax
	xorq	%fs:40, %rax
	jne	.L56
	addq	$40, %rsp
	.cfi_remember_state
	.cfi_def_cfa_offset 8
	ret
.L56:
	.cfi_restore_state
	call	__stack_chk_fail@PLT
	.cfi_endproc
.LFE2670:
	.size	_ZN8asiodnp318PrintingSOEHandler7ProcessERKN8opendnp310HeaderInfoERKNS1_11ICollectionIN7openpal10UInt48TypeEEE, .-_ZN8asiodnp318PrintingSOEHandler7ProcessERKN8opendnp310HeaderInfoERKNS1_11ICollectionIN7openpal10UInt48TypeEEE
	.section	.text._ZN8asiodnp318PrintingSOEHandlerD2Ev,"axG",@progbits,_ZN8asiodnp318PrintingSOEHandlerD5Ev,comdat
	.align 2
	.p2align 4,,15
	.weak	_ZN8asiodnp318PrintingSOEHandlerD2Ev
	.type	_ZN8asiodnp318PrintingSOEHandlerD2Ev, @function
_ZN8asiodnp318PrintingSOEHandlerD2Ev:
.LFB3490:
	.cfi_startproc
	rep ret
	.cfi_endproc
.LFE3490:
	.size	_ZN8asiodnp318PrintingSOEHandlerD2Ev, .-_ZN8asiodnp318PrintingSOEHandlerD2Ev
	.weak	_ZN8asiodnp318PrintingSOEHandlerD1Ev
	.set	_ZN8asiodnp318PrintingSOEHandlerD1Ev,_ZN8asiodnp318PrintingSOEHandlerD2Ev
	.section	.text._ZN8asiodnp318PrintingSOEHandlerD0Ev,"axG",@progbits,_ZN8asiodnp318PrintingSOEHandlerD5Ev,comdat
	.align 2
	.p2align 4,,15
	.weak	_ZN8asiodnp318PrintingSOEHandlerD0Ev
	.type	_ZN8asiodnp318PrintingSOEHandlerD0Ev, @function
_ZN8asiodnp318PrintingSOEHandlerD0Ev:
.LFB3492:
	.cfi_startproc
	movl	$8, %esi
	jmp	_ZdlPvm@PLT
	.cfi_endproc
.LFE3492:
	.size	_ZN8asiodnp318PrintingSOEHandlerD0Ev, .-_ZN8asiodnp318PrintingSOEHandlerD0Ev
	.section	.rodata.str1.1,"aMS",@progbits,1
.LC0:
	.string	"SecurityStat: "
.LC1:
	.string	"["
.LC2:
	.string	"] : "
.LC3:
	.string	" : "
	.text
	.align 2
	.p2align 4,,15
	.type	_ZN8opendnp314FunctorVisitorINS_7IndexedINS_12SecurityStatEEEZN8asiodnp318PrintingSOEHandler7ProcessERKNS_10HeaderInfoERKNS_11ICollectionIS3_EEEUlRKS3_E_E7OnValueESE_, @function
_ZN8opendnp314FunctorVisitorINS_7IndexedINS_12SecurityStatEEEZN8asiodnp318PrintingSOEHandler7ProcessERKNS_10HeaderInfoERKNS_11ICollectionIS3_EEEUlRKS3_E_E7OnValueESE_:
.LFB3525:
	.cfi_startproc
	pushq	%rbp
	.cfi_def_cfa_offset 16
	.cfi_offset 6, -16
	pushq	%rbx
	.cfi_def_cfa_offset 24
	.cfi_offset 3, -24
	movq	%rsi, %rbx
	leaq	.LC0(%rip), %rsi
	movl	$14, %edx
	subq	$8, %rsp
	.cfi_def_cfa_offset 32
	movq	_ZSt4cout@GOTPCREL(%rip), %rbp
	movq	%rbp, %rdi
	call	_ZSt16__ostream_insertIcSt11char_traitsIcEERSt13basic_ostreamIT_T0_ES6_PKS3_l@PLT
	leaq	.LC1(%rip), %rsi
	movl	$1, %edx
	movq	%rbp, %rdi
	call	_ZSt16__ostream_insertIcSt11char_traitsIcEERSt13basic_ostreamIT_T0_ES6_PKS3_l@PLT
	movzwl	24(%rbx), %esi
	movq	%rbp, %rdi
	call	_ZNSo9_M_insertImEERSoT_@PLT
	leaq	.LC2(%rip), %rsi
	movl	$4, %edx
	movq	%rax, %rdi
	movq	%rax, %rbp
	call	_ZSt16__ostream_insertIcSt11char_traitsIcEERSt13basic_ostreamIT_T0_ES6_PKS3_l@PLT
	movq	16(%rbx), %rsi
	movq	%rbp, %rdi
	call	_ZNSo9_M_insertIlEERSoT_@PLT
	leaq	.LC3(%rip), %rsi
	movl	$3, %edx
	movq	%rax, %rdi
	movq	%rax, %rbp
	call	_ZSt16__ostream_insertIcSt11char_traitsIcEERSt13basic_ostreamIT_T0_ES6_PKS3_l@PLT
	movl	8(%rbx), %esi
	movq	%rbp, %rdi
	call	_ZNSo9_M_insertImEERSoT_@PLT
	leaq	.LC3(%rip), %rsi
	movl	$3, %edx
	movq	%rax, %rdi
	movq	%rax, %rbp
	call	_ZSt16__ostream_insertIcSt11char_traitsIcEERSt13basic_ostreamIT_T0_ES6_PKS3_l@PLT
	movzbl	(%rbx), %esi
	movq	%rbp, %rdi
	call	_ZNSolsEi@PLT
	leaq	.LC3(%rip), %rsi
	movl	$3, %edx
	movq	%rax, %rdi
	movq	%rax, %rbp
	call	_ZSt16__ostream_insertIcSt11char_traitsIcEERSt13basic_ostreamIT_T0_ES6_PKS3_l@PLT
	movzwl	4(%rbx), %esi
	movq	%rbp, %rdi
	call	_ZNSo9_M_insertImEERSoT_@PLT
	movq	%rax, %rbp
	movq	(%rax), %rax
	movq	-24(%rax), %rax
	movq	240(%rbp,%rax), %rbx
	testq	%rbx, %rbx
	je	.L65
	cmpb	$0, 56(%rbx)
	je	.L61
	movsbl	67(%rbx), %esi
.L62:
	movq	%rbp, %rdi
	call	_ZNSo3putEc@PLT
	addq	$8, %rsp
	.cfi_remember_state
	.cfi_def_cfa_offset 24
	movq	%rax, %rdi
	popq	%rbx
	.cfi_def_cfa_offset 16
	popq	%rbp
	.cfi_def_cfa_offset 8
	jmp	_ZNSo5flushEv@PLT
	.p2align 4,,10
	.p2align 3
.L61:
	.cfi_restore_state
	movq	%rbx, %rdi
	call	_ZNKSt5ctypeIcE13_M_widen_initEv@PLT
	movq	(%rbx), %rax
	movl	$10, %esi
	movq	48(%rax), %rax
	cmpq	_ZNKSt5ctypeIcE8do_widenEc@GOTPCREL(%rip), %rax
	je	.L62
	movq	%rbx, %rdi
	call	*%rax
	movsbl	%al, %esi
	jmp	.L62
.L65:
	call	_ZSt16__throw_bad_castv@PLT
	.cfi_endproc
.LFE3525:
	.size	_ZN8opendnp314FunctorVisitorINS_7IndexedINS_12SecurityStatEEEZN8asiodnp318PrintingSOEHandler7ProcessERKNS_10HeaderInfoERKNS_11ICollectionIS3_EEEUlRKS3_E_E7OnValueESE_, .-_ZN8opendnp314FunctorVisitorINS_7IndexedINS_12SecurityStatEEEZN8asiodnp318PrintingSOEHandler7ProcessERKNS_10HeaderInfoERKNS_11ICollectionIS3_EEEUlRKS3_E_E7OnValueESE_
	.section	.rodata.str1.1
.LC4:
	.string	"BinaryCommandEvent: "
	.text
	.align 2
	.p2align 4,,15
	.type	_ZN8opendnp314FunctorVisitorINS_7IndexedINS_18BinaryCommandEventEEEZN8asiodnp318PrintingSOEHandler7ProcessERKNS_10HeaderInfoERKNS_11ICollectionIS3_EEEUlRKS3_E_E7OnValueESE_, @function
_ZN8opendnp314FunctorVisitorINS_7IndexedINS_18BinaryCommandEventEEEZN8asiodnp318PrintingSOEHandler7ProcessERKNS_10HeaderInfoERKNS_11ICollectionIS3_EEEUlRKS3_E_E7OnValueESE_:
.LFB3527:
	.cfi_startproc
	pushq	%rbp
	.cfi_def_cfa_offset 16
	.cfi_offset 6, -16
	pushq	%rbx
	.cfi_def_cfa_offset 24
	.cfi_offset 3, -24
	movq	%rsi, %rbp
	leaq	.LC4(%rip), %rsi
	movl	$20, %edx
	subq	$8, %rsp
	.cfi_def_cfa_offset 32
	movq	_ZSt4cout@GOTPCREL(%rip), %rbx
	movq	%rbx, %rdi
	call	_ZSt16__ostream_insertIcSt11char_traitsIcEERSt13basic_ostreamIT_T0_ES6_PKS3_l@PLT
	leaq	.LC1(%rip), %rsi
	movl	$1, %edx
	movq	%rbx, %rdi
	call	_ZSt16__ostream_insertIcSt11char_traitsIcEERSt13basic_ostreamIT_T0_ES6_PKS3_l@PLT
	movzwl	16(%rbp), %esi
	movq	%rbx, %rdi
	call	_ZNSo9_M_insertImEERSoT_@PLT
	leaq	.LC2(%rip), %rsi
	movl	$4, %edx
	movq	%rax, %rdi
	movq	%rax, %rbx
	call	_ZSt16__ostream_insertIcSt11char_traitsIcEERSt13basic_ostreamIT_T0_ES6_PKS3_l@PLT
	movq	8(%rbp), %rsi
	movq	%rbx, %rdi
	call	_ZNSo9_M_insertIlEERSoT_@PLT
	leaq	.LC3(%rip), %rsi
	movl	$3, %edx
	movq	%rax, %rdi
	movq	%rax, %rbx
	call	_ZSt16__ostream_insertIcSt11char_traitsIcEERSt13basic_ostreamIT_T0_ES6_PKS3_l@PLT
	movzbl	0(%rbp), %esi
	movq	%rbx, %rdi
	call	_ZNSo9_M_insertIbEERSoT_@PLT
	leaq	.LC3(%rip), %rsi
	movl	$3, %edx
	movq	%rax, %rdi
	movq	%rax, %rbx
	call	_ZSt16__ostream_insertIcSt11char_traitsIcEERSt13basic_ostreamIT_T0_ES6_PKS3_l@PLT
	movzbl	1(%rbp), %edi
	call	_ZN8opendnp321CommandStatusToStringENS_13CommandStatusE@PLT
	testq	%rax, %rax
	je	.L74
	movq	%rax, %rbp
	movq	%rax, %rdi
	call	strlen@PLT
	movq	%rbp, %rsi
	movq	%rax, %rdx
	movq	%rbx, %rdi
	call	_ZSt16__ostream_insertIcSt11char_traitsIcEERSt13basic_ostreamIT_T0_ES6_PKS3_l@PLT
.L68:
	movq	(%rbx), %rax
	movq	-24(%rax), %rax
	movq	240(%rbx,%rax), %rbp
	testq	%rbp, %rbp
	je	.L75
	cmpb	$0, 56(%rbp)
	je	.L70
	movsbl	67(%rbp), %esi
.L71:
	movq	%rbx, %rdi
	call	_ZNSo3putEc@PLT
	addq	$8, %rsp
	.cfi_remember_state
	.cfi_def_cfa_offset 24
	movq	%rax, %rdi
	popq	%rbx
	.cfi_def_cfa_offset 16
	popq	%rbp
	.cfi_def_cfa_offset 8
	jmp	_ZNSo5flushEv@PLT
	.p2align 4,,10
	.p2align 3
.L70:
	.cfi_restore_state
	movq	%rbp, %rdi
	call	_ZNKSt5ctypeIcE13_M_widen_initEv@PLT
	movq	0(%rbp), %rax
	movl	$10, %esi
	movq	48(%rax), %rax
	cmpq	_ZNKSt5ctypeIcE8do_widenEc@GOTPCREL(%rip), %rax
	je	.L71
	movq	%rbp, %rdi
	call	*%rax
	movsbl	%al, %esi
	jmp	.L71
	.p2align 4,,10
	.p2align 3
.L74:
	movq	(%rbx), %rax
	movq	-24(%rax), %rdi
	addq	%rbx, %rdi
	movl	32(%rdi), %esi
	orl	$1, %esi
	call	_ZNSt9basic_iosIcSt11char_traitsIcEE5clearESt12_Ios_Iostate@PLT
	jmp	.L68
.L75:
	call	_ZSt16__throw_bad_castv@PLT
	.cfi_endproc
.LFE3527:
	.size	_ZN8opendnp314FunctorVisitorINS_7IndexedINS_18BinaryCommandEventEEEZN8asiodnp318PrintingSOEHandler7ProcessERKNS_10HeaderInfoERKNS_11ICollectionIS3_EEEUlRKS3_E_E7OnValueESE_, .-_ZN8opendnp314FunctorVisitorINS_7IndexedINS_18BinaryCommandEventEEEZN8asiodnp318PrintingSOEHandler7ProcessERKNS_10HeaderInfoERKNS_11ICollectionIS3_EEEUlRKS3_E_E7OnValueESE_
	.section	.rodata.str1.1
.LC5:
	.string	"TimeAndInterval: "
	.text
	.align 2
	.p2align 4,,15
	.type	_ZN8opendnp314FunctorVisitorINS_7IndexedINS_15TimeAndIntervalEEEZN8asiodnp318PrintingSOEHandler7ProcessERKNS_10HeaderInfoERKNS_11ICollectionIS3_EEEUlRKS3_E_E7OnValueESE_, @function
_ZN8opendnp314FunctorVisitorINS_7IndexedINS_15TimeAndIntervalEEEZN8asiodnp318PrintingSOEHandler7ProcessERKNS_10HeaderInfoERKNS_11ICollectionIS3_EEEUlRKS3_E_E7OnValueESE_:
.LFB3528:
	.cfi_startproc
	pushq	%rbp
	.cfi_def_cfa_offset 16
	.cfi_offset 6, -16
	pushq	%rbx
	.cfi_def_cfa_offset 24
	.cfi_offset 3, -24
	movq	%rsi, %rbp
	leaq	.LC5(%rip), %rsi
	movl	$17, %edx
	subq	$8, %rsp
	.cfi_def_cfa_offset 32
	movq	_ZSt4cout@GOTPCREL(%rip), %rbx
	movq	%rbx, %rdi
	call	_ZSt16__ostream_insertIcSt11char_traitsIcEERSt13basic_ostreamIT_T0_ES6_PKS3_l@PLT
	leaq	.LC1(%rip), %rsi
	movl	$1, %edx
	movq	%rbx, %rdi
	call	_ZSt16__ostream_insertIcSt11char_traitsIcEERSt13basic_ostreamIT_T0_ES6_PKS3_l@PLT
	movzwl	16(%rbp), %esi
	movq	%rbx, %rdi
	call	_ZNSo9_M_insertImEERSoT_@PLT
	leaq	.LC2(%rip), %rsi
	movl	$4, %edx
	movq	%rax, %rdi
	movq	%rax, %rbx
	call	_ZSt16__ostream_insertIcSt11char_traitsIcEERSt13basic_ostreamIT_T0_ES6_PKS3_l@PLT
	movq	0(%rbp), %rsi
	movq	%rbx, %rdi
	call	_ZNSo9_M_insertIlEERSoT_@PLT
	leaq	.LC3(%rip), %rsi
	movl	$3, %edx
	movq	%rax, %rdi
	movq	%rax, %rbx
	call	_ZSt16__ostream_insertIcSt11char_traitsIcEERSt13basic_ostreamIT_T0_ES6_PKS3_l@PLT
	movl	8(%rbp), %esi
	movq	%rbx, %rdi
	call	_ZNSo9_M_insertImEERSoT_@PLT
	leaq	.LC3(%rip), %rsi
	movl	$3, %edx
	movq	%rax, %rdi
	movq	%rax, %rbx
	call	_ZSt16__ostream_insertIcSt11char_traitsIcEERSt13basic_ostreamIT_T0_ES6_PKS3_l@PLT
	movq	%rbp, %rdi
	call	_ZNK8opendnp315TimeAndInterval12GetUnitsEnumEv@PLT
	movl	%eax, %edi
	call	_ZN8opendnp321IntervalUnitsToStringENS_13IntervalUnitsE@PLT
	testq	%rax, %rax
	je	.L84
	movq	%rax, %rbp
	movq	%rax, %rdi
	call	strlen@PLT
	movq	%rbp, %rsi
	movq	%rax, %rdx
	movq	%rbx, %rdi
	call	_ZSt16__ostream_insertIcSt11char_traitsIcEERSt13basic_ostreamIT_T0_ES6_PKS3_l@PLT
.L78:
	movq	(%rbx), %rax
	movq	-24(%rax), %rax
	movq	240(%rbx,%rax), %rbp
	testq	%rbp, %rbp
	je	.L85
	cmpb	$0, 56(%rbp)
	je	.L80
	movsbl	67(%rbp), %esi
.L81:
	movq	%rbx, %rdi
	call	_ZNSo3putEc@PLT
	addq	$8, %rsp
	.cfi_remember_state
	.cfi_def_cfa_offset 24
	movq	%rax, %rdi
	popq	%rbx
	.cfi_def_cfa_offset 16
	popq	%rbp
	.cfi_def_cfa_offset 8
	jmp	_ZNSo5flushEv@PLT
	.p2align 4,,10
	.p2align 3
.L80:
	.cfi_restore_state
	movq	%rbp, %rdi
	call	_ZNKSt5ctypeIcE13_M_widen_initEv@PLT
	movq	0(%rbp), %rax
	movl	$10, %esi
	movq	48(%rax), %rax
	cmpq	_ZNKSt5ctypeIcE8do_widenEc@GOTPCREL(%rip), %rax
	je	.L81
	movq	%rbp, %rdi
	call	*%rax
	movsbl	%al, %esi
	jmp	.L81
	.p2align 4,,10
	.p2align 3
.L84:
	movq	(%rbx), %rax
	movq	-24(%rax), %rdi
	addq	%rbx, %rdi
	movl	32(%rdi), %esi
	orl	$1, %esi
	call	_ZNSt9basic_iosIcSt11char_traitsIcEE5clearESt12_Ios_Iostate@PLT
	jmp	.L78
.L85:
	call	_ZSt16__throw_bad_castv@PLT
	.cfi_endproc
.LFE3528:
	.size	_ZN8opendnp314FunctorVisitorINS_7IndexedINS_15TimeAndIntervalEEEZN8asiodnp318PrintingSOEHandler7ProcessERKNS_10HeaderInfoERKNS_11ICollectionIS3_EEEUlRKS3_E_E7OnValueESE_, .-_ZN8opendnp314FunctorVisitorINS_7IndexedINS_15TimeAndIntervalEEEZN8asiodnp318PrintingSOEHandler7ProcessERKNS_10HeaderInfoERKNS_11ICollectionIS3_EEEUlRKS3_E_E7OnValueESE_
	.section	.rodata.str1.1
.LC6:
	.string	"DNPTime: "
	.text
	.align 2
	.p2align 4,,15
	.type	_ZN8opendnp314FunctorVisitorIN7openpal10UInt48TypeEZN8asiodnp318PrintingSOEHandler7ProcessERKNS_10HeaderInfoERKNS_11ICollectionIS2_EEEUlRKS2_E_E7OnValueESD_, @function
_ZN8opendnp314FunctorVisitorIN7openpal10UInt48TypeEZN8asiodnp318PrintingSOEHandler7ProcessERKNS_10HeaderInfoERKNS_11ICollectionIS2_EEEUlRKS2_E_E7OnValueESD_:
.LFB3524:
	.cfi_startproc
	pushq	%rbp
	.cfi_def_cfa_offset 16
	.cfi_offset 6, -16
	pushq	%rbx
	.cfi_def_cfa_offset 24
	.cfi_offset 3, -24
	movq	%rsi, %rbp
	leaq	.LC6(%rip), %rsi
	movl	$9, %edx
	subq	$8, %rsp
	.cfi_def_cfa_offset 32
	movq	_ZSt4cout@GOTPCREL(%rip), %rbx
	movq	%rbx, %rdi
	call	_ZSt16__ostream_insertIcSt11char_traitsIcEERSt13basic_ostreamIT_T0_ES6_PKS3_l@PLT
	movq	0(%rbp), %rsi
	movq	%rbx, %rdi
	call	_ZNSo9_M_insertIlEERSoT_@PLT
	movq	%rax, %rbp
	movq	(%rax), %rax
	movq	-24(%rax), %rax
	movq	240(%rbp,%rax), %rbx
	testq	%rbx, %rbx
	je	.L92
	cmpb	$0, 56(%rbx)
	je	.L88
	movsbl	67(%rbx), %esi
.L89:
	movq	%rbp, %rdi
	call	_ZNSo3putEc@PLT
	addq	$8, %rsp
	.cfi_remember_state
	.cfi_def_cfa_offset 24
	movq	%rax, %rdi
	popq	%rbx
	.cfi_def_cfa_offset 16
	popq	%rbp
	.cfi_def_cfa_offset 8
	jmp	_ZNSo5flushEv@PLT
	.p2align 4,,10
	.p2align 3
.L88:
	.cfi_restore_state
	movq	%rbx, %rdi
	call	_ZNKSt5ctypeIcE13_M_widen_initEv@PLT
	movq	(%rbx), %rax
	movl	$10, %esi
	movq	48(%rax), %rax
	cmpq	_ZNKSt5ctypeIcE8do_widenEc@GOTPCREL(%rip), %rax
	je	.L89
	movq	%rbx, %rdi
	call	*%rax
	movsbl	%al, %esi
	jmp	.L89
.L92:
	call	_ZSt16__throw_bad_castv@PLT
	.cfi_endproc
.LFE3524:
	.size	_ZN8opendnp314FunctorVisitorIN7openpal10UInt48TypeEZN8asiodnp318PrintingSOEHandler7ProcessERKNS_10HeaderInfoERKNS_11ICollectionIS2_EEEUlRKS2_E_E7OnValueESD_, .-_ZN8opendnp314FunctorVisitorIN7openpal10UInt48TypeEZN8asiodnp318PrintingSOEHandler7ProcessERKNS_10HeaderInfoERKNS_11ICollectionIS2_EEEUlRKS2_E_E7OnValueESD_
	.section	.rodata.str1.1
.LC7:
	.string	"AnalogCommandEvent: "
	.text
	.align 2
	.p2align 4,,15
	.type	_ZN8opendnp314FunctorVisitorINS_7IndexedINS_18AnalogCommandEventEEEZN8asiodnp318PrintingSOEHandler7ProcessERKNS_10HeaderInfoERKNS_11ICollectionIS3_EEEUlRKS3_E_E7OnValueESE_, @function
_ZN8opendnp314FunctorVisitorINS_7IndexedINS_18AnalogCommandEventEEEZN8asiodnp318PrintingSOEHandler7ProcessERKNS_10HeaderInfoERKNS_11ICollectionIS3_EEEUlRKS3_E_E7OnValueESE_:
.LFB3526:
	.cfi_startproc
	pushq	%rbp
	.cfi_def_cfa_offset 16
	.cfi_offset 6, -16
	pushq	%rbx
	.cfi_def_cfa_offset 24
	.cfi_offset 3, -24
	movq	%rsi, %rbp
	leaq	.LC7(%rip), %rsi
	movl	$20, %edx
	subq	$8, %rsp
	.cfi_def_cfa_offset 32
	movq	_ZSt4cout@GOTPCREL(%rip), %rbx
	movq	%rbx, %rdi
	call	_ZSt16__ostream_insertIcSt11char_traitsIcEERSt13basic_ostreamIT_T0_ES6_PKS3_l@PLT
	leaq	.LC1(%rip), %rsi
	movl	$1, %edx
	movq	%rbx, %rdi
	call	_ZSt16__ostream_insertIcSt11char_traitsIcEERSt13basic_ostreamIT_T0_ES6_PKS3_l@PLT
	movzwl	24(%rbp), %esi
	movq	%rbx, %rdi
	call	_ZNSo9_M_insertImEERSoT_@PLT
	leaq	.LC2(%rip), %rsi
	movl	$4, %edx
	movq	%rax, %rdi
	movq	%rax, %rbx
	call	_ZSt16__ostream_insertIcSt11char_traitsIcEERSt13basic_ostreamIT_T0_ES6_PKS3_l@PLT
	movq	16(%rbp), %rsi
	movq	%rbx, %rdi
	call	_ZNSo9_M_insertIlEERSoT_@PLT
	leaq	.LC3(%rip), %rsi
	movl	$3, %edx
	movq	%rax, %rdi
	movq	%rax, %rbx
	call	_ZSt16__ostream_insertIcSt11char_traitsIcEERSt13basic_ostreamIT_T0_ES6_PKS3_l@PLT
	movsd	0(%rbp), %xmm0
	movq	%rbx, %rdi
	call	_ZNSo9_M_insertIdEERSoT_@PLT
	leaq	.LC3(%rip), %rsi
	movl	$3, %edx
	movq	%rax, %rdi
	movq	%rax, %rbx
	call	_ZSt16__ostream_insertIcSt11char_traitsIcEERSt13basic_ostreamIT_T0_ES6_PKS3_l@PLT
	movzbl	8(%rbp), %edi
	call	_ZN8opendnp321CommandStatusToStringENS_13CommandStatusE@PLT
	testq	%rax, %rax
	je	.L101
	movq	%rax, %rbp
	movq	%rax, %rdi
	call	strlen@PLT
	movq	%rbp, %rsi
	movq	%rax, %rdx
	movq	%rbx, %rdi
	call	_ZSt16__ostream_insertIcSt11char_traitsIcEERSt13basic_ostreamIT_T0_ES6_PKS3_l@PLT
.L95:
	movq	(%rbx), %rax
	movq	-24(%rax), %rax
	movq	240(%rbx,%rax), %rbp
	testq	%rbp, %rbp
	je	.L102
	cmpb	$0, 56(%rbp)
	je	.L97
	movsbl	67(%rbp), %esi
.L98:
	movq	%rbx, %rdi
	call	_ZNSo3putEc@PLT
	addq	$8, %rsp
	.cfi_remember_state
	.cfi_def_cfa_offset 24
	movq	%rax, %rdi
	popq	%rbx
	.cfi_def_cfa_offset 16
	popq	%rbp
	.cfi_def_cfa_offset 8
	jmp	_ZNSo5flushEv@PLT
	.p2align 4,,10
	.p2align 3
.L97:
	.cfi_restore_state
	movq	%rbp, %rdi
	call	_ZNKSt5ctypeIcE13_M_widen_initEv@PLT
	movq	0(%rbp), %rax
	movl	$10, %esi
	movq	48(%rax), %rax
	cmpq	_ZNKSt5ctypeIcE8do_widenEc@GOTPCREL(%rip), %rax
	je	.L98
	movq	%rbp, %rdi
	call	*%rax
	movsbl	%al, %esi
	jmp	.L98
	.p2align 4,,10
	.p2align 3
.L101:
	movq	(%rbx), %rax
	movq	-24(%rax), %rdi
	addq	%rbx, %rdi
	movl	32(%rdi), %esi
	orl	$1, %esi
	call	_ZNSt9basic_iosIcSt11char_traitsIcEE5clearESt12_Ios_Iostate@PLT
	jmp	.L95
.L102:
	call	_ZSt16__throw_bad_castv@PLT
	.cfi_endproc
.LFE3526:
	.size	_ZN8opendnp314FunctorVisitorINS_7IndexedINS_18AnalogCommandEventEEEZN8asiodnp318PrintingSOEHandler7ProcessERKNS_10HeaderInfoERKNS_11ICollectionIS3_EEEUlRKS3_E_E7OnValueESE_, .-_ZN8opendnp314FunctorVisitorINS_7IndexedINS_18AnalogCommandEventEEEZN8asiodnp318PrintingSOEHandler7ProcessERKNS_10HeaderInfoERKNS_11ICollectionIS3_EEEUlRKS3_E_E7OnValueESE_
	.section	.rodata.str1.1
.LC8:
	.string	"OctetString "
.LC9:
	.string	" ["
.LC10:
	.string	"] : Size : "
	.text
	.align 2
	.p2align 4,,15
	.type	_ZN8opendnp314FunctorVisitorINS_7IndexedINS_11OctetStringEEEZN8asiodnp318PrintingSOEHandler7ProcessERKNS_10HeaderInfoERKNS_11ICollectionIS3_EEEUlRKS3_E_E7OnValueESE_, @function
_ZN8opendnp314FunctorVisitorINS_7IndexedINS_11OctetStringEEEZN8asiodnp318PrintingSOEHandler7ProcessERKNS_10HeaderInfoERKNS_11ICollectionIS3_EEEUlRKS3_E_E7OnValueESE_:
.LFB3529:
	.cfi_startproc
	pushq	%rbp
	.cfi_def_cfa_offset 16
	.cfi_offset 6, -16
	pushq	%rbx
	.cfi_def_cfa_offset 24
	.cfi_offset 3, -24
	movq	%rsi, %rbp
	leaq	.LC8(%rip), %rsi
	movl	$12, %edx
	subq	$8, %rsp
	.cfi_def_cfa_offset 32
	movq	_ZSt4cout@GOTPCREL(%rip), %rbx
	movq	%rbx, %rdi
	call	_ZSt16__ostream_insertIcSt11char_traitsIcEERSt13basic_ostreamIT_T0_ES6_PKS3_l@PLT
	leaq	.LC9(%rip), %rsi
	movl	$2, %edx
	movq	%rbx, %rdi
	call	_ZSt16__ostream_insertIcSt11char_traitsIcEERSt13basic_ostreamIT_T0_ES6_PKS3_l@PLT
	movzwl	272(%rbp), %esi
	movq	%rbx, %rdi
	call	_ZNSo9_M_insertImEERSoT_@PLT
	leaq	.LC10(%rip), %rsi
	movl	$11, %edx
	movq	%rax, %rdi
	movq	%rax, %rbx
	call	_ZSt16__ostream_insertIcSt11char_traitsIcEERSt13basic_ostreamIT_T0_ES6_PKS3_l@PLT
	movq	%rbp, %rdi
	call	_ZNK8opendnp39OctetData8ToRSliceEv@PLT
	movq	%rbx, %rdi
	movl	%eax, %esi
	call	_ZNSo9_M_insertImEERSoT_@PLT
	movq	%rax, %rbp
	movq	(%rax), %rax
	movq	-24(%rax), %rax
	movq	240(%rbp,%rax), %rbx
	testq	%rbx, %rbx
	je	.L109
	cmpb	$0, 56(%rbx)
	je	.L105
	movsbl	67(%rbx), %esi
.L106:
	movq	%rbp, %rdi
	call	_ZNSo3putEc@PLT
	addq	$8, %rsp
	.cfi_remember_state
	.cfi_def_cfa_offset 24
	movq	%rax, %rdi
	popq	%rbx
	.cfi_def_cfa_offset 16
	popq	%rbp
	.cfi_def_cfa_offset 8
	jmp	_ZNSo5flushEv@PLT
	.p2align 4,,10
	.p2align 3
.L105:
	.cfi_restore_state
	movq	%rbx, %rdi
	call	_ZNKSt5ctypeIcE13_M_widen_initEv@PLT
	movq	(%rbx), %rax
	movl	$10, %esi
	movq	48(%rax), %rax
	cmpq	_ZNKSt5ctypeIcE8do_widenEc@GOTPCREL(%rip), %rax
	je	.L106
	movq	%rbx, %rdi
	call	*%rax
	movsbl	%al, %esi
	jmp	.L106
.L109:
	call	_ZSt16__throw_bad_castv@PLT
	.cfi_endproc
.LFE3529:
	.size	_ZN8opendnp314FunctorVisitorINS_7IndexedINS_11OctetStringEEEZN8asiodnp318PrintingSOEHandler7ProcessERKNS_10HeaderInfoERKNS_11ICollectionIS3_EEEUlRKS3_E_E7OnValueESE_, .-_ZN8opendnp314FunctorVisitorINS_7IndexedINS_11OctetStringEEEZN8asiodnp318PrintingSOEHandler7ProcessERKNS_10HeaderInfoERKNS_11ICollectionIS3_EEEUlRKS3_E_E7OnValueESE_
	.section	.rodata._ZN8opendnp314FunctorVisitorINS_7IndexedINS_15DoubleBitBinaryEEEZN8asiodnp318PrintingSOEHandler8PrintAllIS2_EEvRKNS_10HeaderInfoERKNS_11ICollectionINS1_IT_EEEEEUlRKS3_E_E7OnValueESH_.str1.8,"aMS",@progbits,1
	.align 8
.LC11:
	.string	"basic_string::_M_construct null not valid"
	.section	.text._ZN8opendnp314FunctorVisitorINS_7IndexedINS_15DoubleBitBinaryEEEZN8asiodnp318PrintingSOEHandler8PrintAllIS2_EEvRKNS_10HeaderInfoERKNS_11ICollectionINS1_IT_EEEEEUlRKS3_E_E7OnValueESH_,"axG",@progbits,_ZN8opendnp314FunctorVisitorINS_7IndexedINS_15DoubleBitBinaryEEEZN8asiodnp318PrintingSOEHandler8PrintAllIS2_EEvRKNS_10HeaderInfoERKNS_11ICollectionINS1_IT_EEEEEUlRKS3_E_E7OnValueESH_,comdat
	.align 2
	.p2align 4,,15
	.weak	_ZN8opendnp314FunctorVisitorINS_7IndexedINS_15DoubleBitBinaryEEEZN8asiodnp318PrintingSOEHandler8PrintAllIS2_EEvRKNS_10HeaderInfoERKNS_11ICollectionINS1_IT_EEEEEUlRKS3_E_E7OnValueESH_
	.type	_ZN8opendnp314FunctorVisitorINS_7IndexedINS_15DoubleBitBinaryEEEZN8asiodnp318PrintingSOEHandler8PrintAllIS2_EEvRKNS_10HeaderInfoERKNS_11ICollectionINS1_IT_EEEEEUlRKS3_E_E7OnValueESH_, @function
_ZN8opendnp314FunctorVisitorINS_7IndexedINS_15DoubleBitBinaryEEEZN8asiodnp318PrintingSOEHandler8PrintAllIS2_EEvRKNS_10HeaderInfoERKNS_11ICollectionINS1_IT_EEEEEUlRKS3_E_E7OnValueESH_:
.LFB3522:
	.cfi_startproc
	.cfi_personality 0x9b,DW.ref.__gxx_personality_v0
	.cfi_lsda 0x1b,.LLSDA3522
	pushq	%r15
	.cfi_def_cfa_offset 16
	.cfi_offset 15, -16
	pushq	%r14
	.cfi_def_cfa_offset 24
	.cfi_offset 14, -24
	movl	$1, %edx
	pushq	%r13
	.cfi_def_cfa_offset 32
	.cfi_offset 13, -32
	pushq	%r12
	.cfi_def_cfa_offset 40
	.cfi_offset 12, -40
	movq	%rsi, %r12
	pushq	%rbp
	.cfi_def_cfa_offset 48
	.cfi_offset 6, -48
	pushq	%rbx
	.cfi_def_cfa_offset 56
	.cfi_offset 3, -56
	subq	$72, %rsp
	.cfi_def_cfa_offset 128
	movzwl	24(%rsi), %ebx
	movq	_ZSt4cout@GOTPCREL(%rip), %rbp
	leaq	.LC1(%rip), %rsi
	movq	%fs:40, %rax
	movq	%rax, 56(%rsp)
	xorl	%eax, %eax
	movq	%rbp, %rdi
.LEHB0:
	call	_ZSt16__ostream_insertIcSt11char_traitsIcEERSt13basic_ostreamIT_T0_ES6_PKS3_l@PLT
	movzwl	%bx, %esi
	movq	%rbp, %rdi
	leaq	16(%rsp), %rbp
	call	_ZNSo9_M_insertImEERSoT_@PLT
	leaq	.LC2(%rip), %rsi
	movl	$4, %edx
	movq	%rax, %rdi
	movq	%rax, %r13
	leaq	16(%rbp), %rbx
	call	_ZSt16__ostream_insertIcSt11char_traitsIcEERSt13basic_ostreamIT_T0_ES6_PKS3_l@PLT
	movzbl	16(%r12), %edi
	call	_ZN8opendnp317DoubleBitToStringENS_9DoubleBitE@PLT
.LEHE0:
	testq	%rax, %rax
	movq	%rbx, 16(%rsp)
	je	.L111
	movq	%rax, %rdi
	movq	%rax, %r14
	call	strlen@PLT
	cmpq	$15, %rax
	movq	%rax, %r15
	movq	%rax, 8(%rsp)
	ja	.L129
	cmpq	$1, %rax
	jne	.L115
	movzbl	(%r14), %edx
	movb	%dl, 32(%rsp)
.L116:
	movq	%rax, 24(%rsp)
	movb	$0, (%rbx,%rax)
	movq	%r13, %rdi
	movq	24(%rsp), %rdx
	movq	16(%rsp), %rsi
.LEHB1:
	call	_ZSt16__ostream_insertIcSt11char_traitsIcEERSt13basic_ostreamIT_T0_ES6_PKS3_l@PLT
	leaq	.LC3(%rip), %rsi
	movl	$3, %edx
	movq	%rax, %rdi
	movq	%rax, %rbx
	call	_ZSt16__ostream_insertIcSt11char_traitsIcEERSt13basic_ostreamIT_T0_ES6_PKS3_l@PLT
	movzbl	(%r12), %esi
	movq	%rbx, %rdi
	call	_ZNSolsEi@PLT
	leaq	.LC3(%rip), %rsi
	movl	$3, %edx
	movq	%rax, %rdi
	movq	%rax, %rbx
	call	_ZSt16__ostream_insertIcSt11char_traitsIcEERSt13basic_ostreamIT_T0_ES6_PKS3_l@PLT
	movq	8(%r12), %rsi
	movq	%rbx, %rdi
	call	_ZNSo9_M_insertIlEERSoT_@PLT
	movq	%rax, %r12
	movq	(%rax), %rax
	movq	-24(%rax), %rax
	movq	240(%r12,%rax), %rbx
	testq	%rbx, %rbx
	je	.L130
	cmpb	$0, 56(%rbx)
	je	.L118
	movsbl	67(%rbx), %esi
.L119:
	movq	%r12, %rdi
	call	_ZNSo3putEc@PLT
	movq	%rax, %rdi
	call	_ZNSo5flushEv@PLT
	movq	16(%rsp), %rdi
	addq	$16, %rbp
	cmpq	%rbp, %rdi
	je	.L110
	call	_ZdlPv@PLT
.L110:
	movq	56(%rsp), %rax
	xorq	%fs:40, %rax
	jne	.L131
	addq	$72, %rsp
	.cfi_remember_state
	.cfi_def_cfa_offset 56
	popq	%rbx
	.cfi_def_cfa_offset 48
	popq	%rbp
	.cfi_def_cfa_offset 40
	popq	%r12
	.cfi_def_cfa_offset 32
	popq	%r13
	.cfi_def_cfa_offset 24
	popq	%r14
	.cfi_def_cfa_offset 16
	popq	%r15
	.cfi_def_cfa_offset 8
	ret
	.p2align 4,,10
	.p2align 3
.L118:
	.cfi_restore_state
	movq	%rbx, %rdi
	call	_ZNKSt5ctypeIcE13_M_widen_initEv@PLT
	movq	(%rbx), %rax
	movl	$10, %esi
	movq	48(%rax), %rax
	cmpq	_ZNKSt5ctypeIcE8do_widenEc@GOTPCREL(%rip), %rax
	je	.L119
	movq	%rbx, %rdi
	call	*%rax
.LEHE1:
	movsbl	%al, %esi
	jmp	.L119
	.p2align 4,,10
	.p2align 3
.L129:
	leaq	8(%rsp), %rsi
	xorl	%edx, %edx
	movq	%rbp, %rdi
.LEHB2:
	call	_ZNSt7__cxx1112basic_stringIcSt11char_traitsIcESaIcEE9_M_createERmm@PLT
.LEHE2:
	movq	8(%rsp), %rdx
	movq	%rax, 16(%rsp)
	movq	%rdx, 32(%rsp)
.L114:
	movq	%r15, %rdx
	movq	%r14, %rsi
	movq	%rax, %rdi
	call	memcpy@PLT
	movq	8(%rsp), %rax
	movq	16(%rsp), %rbx
	jmp	.L116
	.p2align 4,,10
	.p2align 3
.L115:
	testq	%rax, %rax
	je	.L116
	movq	%rbx, %rax
	jmp	.L114
.L131:
	call	__stack_chk_fail@PLT
.L130:
.LEHB3:
	call	_ZSt16__throw_bad_castv@PLT
.LEHE3:
.L126:
	movq	16(%rsp), %rdi
	addq	$16, %rbp
	movq	%rax, %rbx
	cmpq	%rbp, %rdi
	je	.L122
	call	_ZdlPv@PLT
.L122:
	movq	%rbx, %rdi
.LEHB4:
	call	_Unwind_Resume@PLT
.L111:
	leaq	.LC11(%rip), %rdi
	call	_ZSt19__throw_logic_errorPKc@PLT
.LEHE4:
	.cfi_endproc
.LFE3522:
	.globl	__gxx_personality_v0
	.section	.gcc_except_table._ZN8opendnp314FunctorVisitorINS_7IndexedINS_15DoubleBitBinaryEEEZN8asiodnp318PrintingSOEHandler8PrintAllIS2_EEvRKNS_10HeaderInfoERKNS_11ICollectionINS1_IT_EEEEEUlRKS3_E_E7OnValueESH_,"aG",@progbits,_ZN8opendnp314FunctorVisitorINS_7IndexedINS_15DoubleBitBinaryEEEZN8asiodnp318PrintingSOEHandler8PrintAllIS2_EEvRKNS_10HeaderInfoERKNS_11ICollectionINS1_IT_EEEEEUlRKS3_E_E7OnValueESH_,comdat
.LLSDA3522:
	.byte	0xff
	.byte	0xff
	.byte	0x1
	.uleb128 .LLSDACSE3522-.LLSDACSB3522
.LLSDACSB3522:
	.uleb128 .LEHB0-.LFB3522
	.uleb128 .LEHE0-.LEHB0
	.uleb128 0
	.uleb128 0
	.uleb128 .LEHB1-.LFB3522
	.uleb128 .LEHE1-.LEHB1
	.uleb128 .L126-.LFB3522
	.uleb128 0
	.uleb128 .LEHB2-.LFB3522
	.uleb128 .LEHE2-.LEHB2
	.uleb128 0
	.uleb128 0
	.uleb128 .LEHB3-.LFB3522
	.uleb128 .LEHE3-.LEHB3
	.uleb128 .L126-.LFB3522
	.uleb128 0
	.uleb128 .LEHB4-.LFB3522
	.uleb128 .LEHE4-.LEHB4
	.uleb128 0
	.uleb128 0
.LLSDACSE3522:
	.section	.text._ZN8opendnp314FunctorVisitorINS_7IndexedINS_15DoubleBitBinaryEEEZN8asiodnp318PrintingSOEHandler8PrintAllIS2_EEvRKNS_10HeaderInfoERKNS_11ICollectionINS1_IT_EEEEEUlRKS3_E_E7OnValueESH_,"axG",@progbits,_ZN8opendnp314FunctorVisitorINS_7IndexedINS_15DoubleBitBinaryEEEZN8asiodnp318PrintingSOEHandler8PrintAllIS2_EEvRKNS_10HeaderInfoERKNS_11ICollectionINS1_IT_EEEEEUlRKS3_E_E7OnValueESH_,comdat
	.size	_ZN8opendnp314FunctorVisitorINS_7IndexedINS_15DoubleBitBinaryEEEZN8asiodnp318PrintingSOEHandler8PrintAllIS2_EEvRKNS_10HeaderInfoERKNS_11ICollectionINS1_IT_EEEEEUlRKS3_E_E7OnValueESH_, .-_ZN8opendnp314FunctorVisitorINS_7IndexedINS_15DoubleBitBinaryEEEZN8asiodnp318PrintingSOEHandler8PrintAllIS2_EEvRKNS_10HeaderInfoERKNS_11ICollectionINS1_IT_EEEEEUlRKS3_E_E7OnValueESH_
	.section	.text._ZNSt7__cxx1115basic_stringbufIcSt11char_traitsIcESaIcEED2Ev,"axG",@progbits,_ZNSt7__cxx1115basic_stringbufIcSt11char_traitsIcESaIcEED5Ev,comdat
	.align 2
	.p2align 4,,15
	.weak	_ZNSt7__cxx1115basic_stringbufIcSt11char_traitsIcESaIcEED2Ev
	.type	_ZNSt7__cxx1115basic_stringbufIcSt11char_traitsIcESaIcEED2Ev, @function
_ZNSt7__cxx1115basic_stringbufIcSt11char_traitsIcESaIcEED2Ev:
.LFB2941:
	.cfi_startproc
	movq	_ZTVNSt7__cxx1115basic_stringbufIcSt11char_traitsIcESaIcEEE@GOTPCREL(%rip), %rax
	pushq	%rbx
	.cfi_def_cfa_offset 16
	.cfi_offset 3, -16
	movq	%rdi, %rbx
	addq	$16, %rax
	movq	%rax, (%rdi)
	movq	72(%rdi), %rdi
	leaq	88(%rbx), %rax
	cmpq	%rax, %rdi
	je	.L133
	call	_ZdlPv@PLT
.L133:
	movq	_ZTVSt15basic_streambufIcSt11char_traitsIcEE@GOTPCREL(%rip), %rax
	leaq	56(%rbx), %rdi
	addq	$16, %rax
	movq	%rax, (%rbx)
	popq	%rbx
	.cfi_def_cfa_offset 8
	jmp	_ZNSt6localeD1Ev@PLT
	.cfi_endproc
.LFE2941:
	.size	_ZNSt7__cxx1115basic_stringbufIcSt11char_traitsIcESaIcEED2Ev, .-_ZNSt7__cxx1115basic_stringbufIcSt11char_traitsIcESaIcEED2Ev
	.weak	_ZNSt7__cxx1115basic_stringbufIcSt11char_traitsIcESaIcEED1Ev
	.set	_ZNSt7__cxx1115basic_stringbufIcSt11char_traitsIcESaIcEED1Ev,_ZNSt7__cxx1115basic_stringbufIcSt11char_traitsIcESaIcEED2Ev
	.text
	.p2align 4,,15
	.type	_ZN8asiodnp318PrintingSOEHandler13ValueToStringIN8opendnp36AnalogEEENSt7__cxx1112basic_stringIcSt11char_traitsIcESaIcEEERKT_.isra.51, @function
_ZN8asiodnp318PrintingSOEHandler13ValueToStringIN8opendnp36AnalogEEENSt7__cxx1112basic_stringIcSt11char_traitsIcESaIcEEERKT_.isra.51:
.LFB3586:
	.cfi_startproc
	.cfi_personality 0x9b,DW.ref.__gxx_personality_v0
	.cfi_lsda 0x1b,.LLSDA3586
	pushq	%r15
	.cfi_def_cfa_offset 16
	.cfi_offset 15, -16
	pushq	%r14
	.cfi_def_cfa_offset 24
	.cfi_offset 14, -24
	pushq	%r13
	.cfi_def_cfa_offset 32
	.cfi_offset 13, -32
	pushq	%r12
	.cfi_def_cfa_offset 40
	.cfi_offset 12, -40
	pushq	%rbp
	.cfi_def_cfa_offset 48
	.cfi_offset 6, -48
	pushq	%rbx
	.cfi_def_cfa_offset 56
	.cfi_offset 3, -56
	movq	%rdi, %rbp
	subq	$488, %rsp
	.cfi_def_cfa_offset 544
	leaq	96(%rsp), %rbx
	movq	%rsi, (%rsp)
	movq	%fs:40, %rax
	movq	%rax, 472(%rsp)
	xorl	%eax, %eax
	leaq	112(%rbx), %rdi
	call	_ZNSt8ios_baseC2Ev@PLT
	movq	_ZTTNSt7__cxx1119basic_ostringstreamIcSt11char_traitsIcESaIcEEE@GOTPCREL(%rip), %r14
	movb	$0, 432(%rsp)
	xorl	%esi, %esi
	movq	_ZTVSt9basic_iosIcSt11char_traitsIcEE@GOTPCREL(%rip), %rax
	movq	$0, 424(%rsp)
	movb	$0, 433(%rsp)
	movq	$0, 440(%rsp)
	movq	8(%r14), %r12
	movq	16(%r14), %r15
	addq	$16, %rax
	movq	$0, 448(%rsp)
	movq	$0, 456(%rsp)
	movq	%rax, 208(%rsp)
	movq	$0, 464(%rsp)
	movq	-24(%r12), %rdi
	movq	%r12, 96(%rsp)
	addq	%rbx, %rdi
	movq	%r15, (%rdi)
.LEHB5:
	call	_ZNSt9basic_iosIcSt11char_traitsIcEE4initEPSt15basic_streambufIcS1_E@PLT
.LEHE5:
	movq	_ZTVNSt7__cxx1119basic_ostringstreamIcSt11char_traitsIcESaIcEEE@GOTPCREL(%rip), %r13
	pxor	%xmm0, %xmm0
	leaq	64(%rbx), %rdi
	leaq	24(%r13), %rax
	movaps	%xmm0, 112(%rsp)
	movq	%rax, 96(%rsp)
	leaq	64(%r13), %rax
	movaps	%xmm0, 128(%rsp)
	movaps	%xmm0, 144(%rsp)
	movq	%rax, 208(%rsp)
	movq	_ZTVSt15basic_streambufIcSt11char_traitsIcEE@GOTPCREL(%rip), %rax
	addq	$16, %rax
	movq	%rax, 104(%rsp)
	call	_ZNSt6localeC1Ev@PLT
	movq	_ZTVNSt7__cxx1115basic_stringbufIcSt11char_traitsIcESaIcEEE@GOTPCREL(%rip), %rax
	leaq	8(%rbx), %rsi
	leaq	112(%rbx), %rdi
	movl	$16, 168(%rsp)
	movq	$0, 184(%rsp)
	movb	$0, 192(%rsp)
	addq	$16, %rax
	movq	%rax, 104(%rsp)
	leaq	96(%rbx), %rax
	movq	%rax, 176(%rsp)
.LEHB6:
	call	_ZNSt9basic_iosIcSt11char_traitsIcEE4initEPSt15basic_streambufIcS1_E@PLT
.LEHE6:
	movq	(%rsp), %rax
	movq	%rbx, %rdi
	movsd	(%rax), %xmm0
.LEHB7:
	call	_ZNSo9_M_insertIdEERSoT_@PLT
.LEHE7:
	leaq	16(%rbp), %rax
	movq	$0, 8(%rbp)
	movb	$0, 16(%rbp)
	movq	%rax, 8(%rsp)
	movq	%rax, 0(%rbp)
	movq	144(%rsp), %rax
	testq	%rax, %rax
	je	.L139
	movq	128(%rsp), %r15
	movq	136(%rsp), %r12
	cmpq	%r15, %rax
	ja	.L199
	leaq	32(%rsp), %rax
	testq	%r12, %r12
	movq	%rax, (%rsp)
	leaq	48(%rsp), %rax
	movq	%rax, 32(%rsp)
	jne	.L154
	testq	%r15, %r15
	jne	.L200
.L154:
	subq	%r12, %r15
	cmpq	$15, %r15
	movq	%r15, 24(%rsp)
	ja	.L201
	cmpq	$1, %r15
	jne	.L157
	movzbl	(%r12), %eax
	movb	%al, 48(%rsp)
	movq	(%rsp), %rax
	addq	$16, %rax
.L158:
	movq	%r15, 40(%rsp)
	movb	$0, (%rax,%r15)
	movq	(%rsp), %rax
	movq	32(%rsp), %rsi
	movq	0(%rbp), %rdi
	movq	40(%rsp), %rdx
	addq	$16, %rax
	cmpq	%rax, %rsi
	je	.L202
	cmpq	%rdi, 8(%rsp)
	movq	48(%rsp), %rax
	je	.L203
	testq	%rdi, %rdi
	movq	16(%rbp), %rcx
	movq	%rsi, 0(%rbp)
	movq	%rdx, 8(%rbp)
	movq	%rax, 16(%rbp)
	je	.L164
	movq	(%rsp), %rax
	movq	%rdi, 32(%rsp)
	movq	%rcx, 48(%rsp)
.L162:
	movq	$0, 40(%rsp)
	movb	$0, (%rdi)
	addq	$16, %rax
	movq	32(%rsp), %rdi
	cmpq	%rax, %rdi
	jne	.L198
	jmp	.L165
	.p2align 4,,10
	.p2align 3
.L199:
	leaq	64(%rsp), %rcx
	leaq	80(%rsp), %rdx
	testq	%r12, %r12
	movq	%rcx, (%rsp)
	movq	%rdx, 64(%rsp)
	je	.L204
	subq	%r12, %rax
	cmpq	$15, %rax
	movq	%rax, %r15
	movq	%rax, 16(%rsp)
	ja	.L205
	cmpq	$1, %rax
	jne	.L144
	movzbl	(%r12), %eax
	movb	%al, 80(%rsp)
.L145:
	movq	(%rsp), %rax
	movq	%r15, 72(%rsp)
	movb	$0, (%rdx,%r15)
	movq	64(%rsp), %rsi
	movq	0(%rbp), %rdi
	addq	$16, %rax
	cmpq	%rax, %rsi
	je	.L206
	cmpq	%rdi, 8(%rsp)
	movq	80(%rsp), %rax
	movq	72(%rsp), %rdx
	je	.L207
	testq	%rdi, %rdi
	movq	16(%rbp), %rcx
	movq	%rsi, 0(%rbp)
	movq	%rdx, 8(%rbp)
	movq	%rax, 16(%rbp)
	je	.L151
	movq	(%rsp), %rax
	movq	%rdi, 64(%rsp)
	movq	%rcx, 80(%rsp)
.L149:
	movq	$0, 72(%rsp)
	movb	$0, (%rdi)
	addq	$16, %rax
	movq	64(%rsp), %rdi
	cmpq	%rax, %rdi
	je	.L165
.L198:
	call	_ZdlPv@PLT
.L165:
	movq	8(%r14), %r12
	movq	16(%r14), %r15
.L153:
	leaq	64(%r13), %rax
	leaq	24(%r13), %rcx
	movq	176(%rsp), %rdi
	movq	%rax, 208(%rsp)
	movq	_ZTVNSt7__cxx1115basic_stringbufIcSt11char_traitsIcESaIcEEE@GOTPCREL(%rip), %rax
	movq	%rcx, (%rsp)
	movq	(%rsp), %xmm0
	addq	$16, %rax
	movq	%rax, (%rsp)
	leaq	96(%rbx), %rax
	movhps	(%rsp), %xmm0
	cmpq	%rax, %rdi
	movaps	%xmm0, 96(%rsp)
	je	.L169
	call	_ZdlPv@PLT
.L169:
	leaq	64(%rbx), %rdi
	movq	_ZTVSt15basic_streambufIcSt11char_traitsIcEE@GOTPCREL(%rip), %rax
	addq	$16, %rax
	movq	%rax, 104(%rsp)
	call	_ZNSt6localeD1Ev@PLT
	movq	-24(%r12), %rax
	movq	%r12, 96(%rsp)
	leaq	112(%rbx), %rdi
	movq	%r15, 96(%rsp,%rax)
	movq	_ZTVSt9basic_iosIcSt11char_traitsIcEE@GOTPCREL(%rip), %rax
	addq	$16, %rax
	movq	%rax, 208(%rsp)
	call	_ZNSt8ios_baseD2Ev@PLT
	movq	472(%rsp), %rdx
	xorq	%fs:40, %rdx
	movq	%rbp, %rax
	jne	.L208
	addq	$488, %rsp
	.cfi_remember_state
	.cfi_def_cfa_offset 56
	popq	%rbx
	.cfi_def_cfa_offset 48
	popq	%rbp
	.cfi_def_cfa_offset 40
	popq	%r12
	.cfi_def_cfa_offset 32
	popq	%r13
	.cfi_def_cfa_offset 24
	popq	%r14
	.cfi_def_cfa_offset 16
	popq	%r15
	.cfi_def_cfa_offset 8
	ret
	.p2align 4,,10
	.p2align 3
.L157:
	.cfi_restore_state
	movq	(%rsp), %rax
	addq	$16, %rax
	testq	%r15, %r15
	je	.L158
	jmp	.L156
	.p2align 4,,10
	.p2align 3
.L144:
	testq	%rax, %rax
	je	.L145
	movq	%rdx, %rax
	jmp	.L143
	.p2align 4,,10
	.p2align 3
.L139:
	leaq	80(%rbx), %rsi
	movq	%rbp, %rdi
.LEHB8:
	call	_ZNSt7__cxx1112basic_stringIcSt11char_traitsIcESaIcEE9_M_assignERKS4_@PLT
	jmp	.L153
	.p2align 4,,10
	.p2align 3
.L205:
	leaq	16(%rsp), %rsi
	movq	%rcx, %rdi
	xorl	%edx, %edx
	call	_ZNSt7__cxx1112basic_stringIcSt11char_traitsIcESaIcEE9_M_createERmm@PLT
	movq	16(%rsp), %rdx
	movq	%rax, 64(%rsp)
	movq	%rdx, 80(%rsp)
.L143:
	movq	%r15, %rdx
	movq	%r12, %rsi
	movq	%rax, %rdi
	call	memcpy@PLT
	movq	16(%rsp), %r15
	movq	64(%rsp), %rdx
	jmp	.L145
	.p2align 4,,10
	.p2align 3
.L201:
	movq	(%rsp), %rdi
	leaq	24(%rsp), %rsi
	xorl	%edx, %edx
	call	_ZNSt7__cxx1112basic_stringIcSt11char_traitsIcESaIcEE9_M_createERmm@PLT
.LEHE8:
	movq	24(%rsp), %rdx
	movq	%rax, 32(%rsp)
	movq	%rdx, 48(%rsp)
.L156:
	movq	%r15, %rdx
	movq	%r12, %rsi
	movq	%rax, %rdi
	call	memcpy@PLT
	movq	24(%rsp), %r15
	movq	32(%rsp), %rax
	jmp	.L158
	.p2align 4,,10
	.p2align 3
.L206:
	movq	72(%rsp), %rdx
	testq	%rdx, %rdx
	je	.L147
	cmpq	$1, %rdx
	jne	.L148
	movzbl	80(%rsp), %eax
	movb	%al, (%rdi)
	movq	72(%rsp), %rdx
	movq	0(%rbp), %rdi
.L147:
	movq	%rdx, 8(%rbp)
	movq	(%rsp), %rax
	movb	$0, (%rdi,%rdx)
	movq	64(%rsp), %rdi
	jmp	.L149
	.p2align 4,,10
	.p2align 3
.L202:
	testq	%rdx, %rdx
	je	.L160
	cmpq	$1, %rdx
	jne	.L161
	movzbl	48(%rsp), %eax
	movb	%al, (%rdi)
	movq	40(%rsp), %rdx
	movq	0(%rbp), %rdi
.L160:
	movq	%rdx, 8(%rbp)
	movq	(%rsp), %rax
	movb	$0, (%rdi,%rdx)
	movq	32(%rsp), %rdi
	jmp	.L162
	.p2align 4,,10
	.p2align 3
.L203:
	movq	%rsi, 0(%rbp)
	movq	%rdx, 8(%rbp)
	movq	%rax, 16(%rbp)
.L164:
	movq	(%rsp), %rax
	leaq	16(%rax), %rdi
	movq	%rdi, 32(%rsp)
	jmp	.L162
	.p2align 4,,10
	.p2align 3
.L207:
	movq	%rsi, 0(%rbp)
	movq	%rdx, 8(%rbp)
	movq	%rax, 16(%rbp)
.L151:
	movq	(%rsp), %rax
	leaq	16(%rax), %rdi
	movq	%rdi, 64(%rsp)
	jmp	.L149
	.p2align 4,,10
	.p2align 3
.L148:
	call	memcpy@PLT
	movq	72(%rsp), %rdx
	movq	0(%rbp), %rdi
	jmp	.L147
	.p2align 4,,10
	.p2align 3
.L161:
	call	memcpy@PLT
	movq	40(%rsp), %rdx
	movq	0(%rbp), %rdi
	jmp	.L160
.L208:
	call	__stack_chk_fail@PLT
.L173:
	movq	%rax, %r12
.L168:
	movq	%rbx, %rdi
	call	_ZNSt7__cxx1119basic_ostringstreamIcSt11char_traitsIcESaIcEED1Ev@PLT
	movq	%r12, %rdi
.LEHB9:
	call	_Unwind_Resume@PLT
.L175:
	leaq	8(%rbx), %rdi
	movq	%rax, %rbp
	call	_ZNSt7__cxx1115basic_stringbufIcSt11char_traitsIcESaIcEED1Ev@PLT
	movq	-24(%r12), %rax
	movq	%r12, 96(%rsp)
	movq	%r15, 96(%rsp,%rax)
.L138:
	movq	_ZTVSt9basic_iosIcSt11char_traitsIcEE@GOTPCREL(%rip), %rax
	leaq	112(%rbx), %rdi
	addq	$16, %rax
	movq	%rax, 208(%rsp)
	call	_ZNSt8ios_baseD2Ev@PLT
	movq	%rbp, %rdi
	call	_Unwind_Resume@PLT
.LEHE9:
.L176:
	movq	0(%rbp), %rdi
	cmpq	%rdi, 8(%rsp)
	movq	%rax, %r12
	je	.L168
	call	_ZdlPv@PLT
	jmp	.L168
.L204:
	leaq	.LC11(%rip), %rdi
.LEHB10:
	call	_ZSt19__throw_logic_errorPKc@PLT
.L174:
	movq	%rax, %rbp
	jmp	.L138
.L200:
	leaq	.LC11(%rip), %rdi
	call	_ZSt19__throw_logic_errorPKc@PLT
.LEHE10:
	.cfi_endproc
.LFE3586:
	.section	.gcc_except_table,"a",@progbits
.LLSDA3586:
	.byte	0xff
	.byte	0xff
	.byte	0x1
	.uleb128 .LLSDACSE3586-.LLSDACSB3586
.LLSDACSB3586:
	.uleb128 .LEHB5-.LFB3586
	.uleb128 .LEHE5-.LEHB5
	.uleb128 .L174-.LFB3586
	.uleb128 0
	.uleb128 .LEHB6-.LFB3586
	.uleb128 .LEHE6-.LEHB6
	.uleb128 .L175-.LFB3586
	.uleb128 0
	.uleb128 .LEHB7-.LFB3586
	.uleb128 .LEHE7-.LEHB7
	.uleb128 .L173-.LFB3586
	.uleb128 0
	.uleb128 .LEHB8-.LFB3586
	.uleb128 .LEHE8-.LEHB8
	.uleb128 .L176-.LFB3586
	.uleb128 0
	.uleb128 .LEHB9-.LFB3586
	.uleb128 .LEHE9-.LEHB9
	.uleb128 0
	.uleb128 0
	.uleb128 .LEHB10-.LFB3586
	.uleb128 .LEHE10-.LEHB10
	.uleb128 .L176-.LFB3586
	.uleb128 0
.LLSDACSE3586:
	.text
	.size	_ZN8asiodnp318PrintingSOEHandler13ValueToStringIN8opendnp36AnalogEEENSt7__cxx1112basic_stringIcSt11char_traitsIcESaIcEEERKT_.isra.51, .-_ZN8asiodnp318PrintingSOEHandler13ValueToStringIN8opendnp36AnalogEEENSt7__cxx1112basic_stringIcSt11char_traitsIcESaIcEEERKT_.isra.51
	.set	_ZN8asiodnp318PrintingSOEHandler13ValueToStringIN8opendnp318AnalogOutputStatusEEENSt7__cxx1112basic_stringIcSt11char_traitsIcESaIcEEERKT_.isra.55,_ZN8asiodnp318PrintingSOEHandler13ValueToStringIN8opendnp36AnalogEEENSt7__cxx1112basic_stringIcSt11char_traitsIcESaIcEEERKT_.isra.51
	.section	.text._ZN8opendnp314FunctorVisitorINS_7IndexedINS_18AnalogOutputStatusEEEZN8asiodnp318PrintingSOEHandler8PrintAllIS2_EEvRKNS_10HeaderInfoERKNS_11ICollectionINS1_IT_EEEEEUlRKS3_E_E7OnValueESH_,"axG",@progbits,_ZN8opendnp314FunctorVisitorINS_7IndexedINS_18AnalogOutputStatusEEEZN8asiodnp318PrintingSOEHandler8PrintAllIS2_EEvRKNS_10HeaderInfoERKNS_11ICollectionINS1_IT_EEEEEUlRKS3_E_E7OnValueESH_,comdat
	.align 2
	.p2align 4,,15
	.weak	_ZN8opendnp314FunctorVisitorINS_7IndexedINS_18AnalogOutputStatusEEEZN8asiodnp318PrintingSOEHandler8PrintAllIS2_EEvRKNS_10HeaderInfoERKNS_11ICollectionINS1_IT_EEEEEUlRKS3_E_E7OnValueESH_
	.type	_ZN8opendnp314FunctorVisitorINS_7IndexedINS_18AnalogOutputStatusEEEZN8asiodnp318PrintingSOEHandler8PrintAllIS2_EEvRKNS_10HeaderInfoERKNS_11ICollectionINS1_IT_EEEEEUlRKS3_E_E7OnValueESH_, @function
_ZN8opendnp314FunctorVisitorINS_7IndexedINS_18AnalogOutputStatusEEEZN8asiodnp318PrintingSOEHandler8PrintAllIS2_EEvRKNS_10HeaderInfoERKNS_11ICollectionINS1_IT_EEEEEUlRKS3_E_E7OnValueESH_:
.LFB3517:
	.cfi_startproc
	.cfi_personality 0x9b,DW.ref.__gxx_personality_v0
	.cfi_lsda 0x1b,.LLSDA3517
	pushq	%r12
	.cfi_def_cfa_offset 16
	.cfi_offset 12, -16
	pushq	%rbp
	.cfi_def_cfa_offset 24
	.cfi_offset 6, -24
	movq	%rsi, %rbp
	pushq	%rbx
	.cfi_def_cfa_offset 32
	.cfi_offset 3, -32
	movl	$1, %edx
	subq	$48, %rsp
	.cfi_def_cfa_offset 80
	movzwl	24(%rsi), %ebx
	movq	_ZSt4cout@GOTPCREL(%rip), %r12
	leaq	.LC1(%rip), %rsi
	movq	%fs:40, %rax
	movq	%rax, 40(%rsp)
	xorl	%eax, %eax
	movq	%r12, %rdi
.LEHB11:
	call	_ZSt16__ostream_insertIcSt11char_traitsIcEERSt13basic_ostreamIT_T0_ES6_PKS3_l@PLT
	movzwl	%bx, %esi
	movq	%r12, %rdi
	movq	%rsp, %rbx
	call	_ZNSo9_M_insertImEERSoT_@PLT
	leaq	.LC2(%rip), %rsi
	movl	$4, %edx
	movq	%rax, %rdi
	movq	%rax, %r12
	call	_ZSt16__ostream_insertIcSt11char_traitsIcEERSt13basic_ostreamIT_T0_ES6_PKS3_l@PLT
	leaq	16(%rbp), %rsi
	movq	%rbx, %rdi
	call	_ZN8asiodnp318PrintingSOEHandler13ValueToStringIN8opendnp318AnalogOutputStatusEEENSt7__cxx1112basic_stringIcSt11char_traitsIcESaIcEEERKT_.isra.55
.LEHE11:
	movq	8(%rsp), %rdx
	movq	(%rsp), %rsi
	movq	%r12, %rdi
.LEHB12:
	call	_ZSt16__ostream_insertIcSt11char_traitsIcEERSt13basic_ostreamIT_T0_ES6_PKS3_l@PLT
	leaq	.LC3(%rip), %rsi
	movl	$3, %edx
	movq	%rax, %rdi
	movq	%rax, %r12
	call	_ZSt16__ostream_insertIcSt11char_traitsIcEERSt13basic_ostreamIT_T0_ES6_PKS3_l@PLT
	movzbl	0(%rbp), %esi
	movq	%r12, %rdi
	call	_ZNSolsEi@PLT
	leaq	.LC3(%rip), %rsi
	movl	$3, %edx
	movq	%rax, %rdi
	movq	%rax, %r12
	call	_ZSt16__ostream_insertIcSt11char_traitsIcEERSt13basic_ostreamIT_T0_ES6_PKS3_l@PLT
	movq	8(%rbp), %rsi
	movq	%r12, %rdi
	call	_ZNSo9_M_insertIlEERSoT_@PLT
	movq	%rax, %r12
	movq	(%rax), %rax
	movq	-24(%rax), %rax
	movq	240(%r12,%rax), %rbp
	testq	%rbp, %rbp
	je	.L220
	cmpb	$0, 56(%rbp)
	je	.L211
	movsbl	67(%rbp), %esi
.L212:
	movq	%r12, %rdi
	call	_ZNSo3putEc@PLT
	movq	%rax, %rdi
	call	_ZNSo5flushEv@PLT
	movq	(%rsp), %rdi
	addq	$16, %rbx
	cmpq	%rbx, %rdi
	je	.L209
	call	_ZdlPv@PLT
.L209:
	movq	40(%rsp), %rax
	xorq	%fs:40, %rax
	jne	.L221
	addq	$48, %rsp
	.cfi_remember_state
	.cfi_def_cfa_offset 32
	popq	%rbx
	.cfi_def_cfa_offset 24
	popq	%rbp
	.cfi_def_cfa_offset 16
	popq	%r12
	.cfi_def_cfa_offset 8
	ret
	.p2align 4,,10
	.p2align 3
.L211:
	.cfi_restore_state
	movq	%rbp, %rdi
	call	_ZNKSt5ctypeIcE13_M_widen_initEv@PLT
	movq	0(%rbp), %rax
	movl	$10, %esi
	movq	48(%rax), %rax
	cmpq	_ZNKSt5ctypeIcE8do_widenEc@GOTPCREL(%rip), %rax
	je	.L212
	movq	%rbp, %rdi
	call	*%rax
	movsbl	%al, %esi
	jmp	.L212
.L221:
	call	__stack_chk_fail@PLT
.L220:
	call	_ZSt16__throw_bad_castv@PLT
.LEHE12:
.L218:
	movq	(%rsp), %rdi
	addq	$16, %rbx
	movq	%rax, %rbp
	cmpq	%rbx, %rdi
	je	.L215
	call	_ZdlPv@PLT
.L215:
	movq	%rbp, %rdi
.LEHB13:
	call	_Unwind_Resume@PLT
.LEHE13:
	.cfi_endproc
.LFE3517:
	.section	.gcc_except_table
.LLSDA3517:
	.byte	0xff
	.byte	0xff
	.byte	0x1
	.uleb128 .LLSDACSE3517-.LLSDACSB3517
.LLSDACSB3517:
	.uleb128 .LEHB11-.LFB3517
	.uleb128 .LEHE11-.LEHB11
	.uleb128 0
	.uleb128 0
	.uleb128 .LEHB12-.LFB3517
	.uleb128 .LEHE12-.LEHB12
	.uleb128 .L218-.LFB3517
	.uleb128 0
	.uleb128 .LEHB13-.LFB3517
	.uleb128 .LEHE13-.LEHB13
	.uleb128 0
	.uleb128 0
.LLSDACSE3517:
	.section	.text._ZN8opendnp314FunctorVisitorINS_7IndexedINS_18AnalogOutputStatusEEEZN8asiodnp318PrintingSOEHandler8PrintAllIS2_EEvRKNS_10HeaderInfoERKNS_11ICollectionINS1_IT_EEEEEUlRKS3_E_E7OnValueESH_,"axG",@progbits,_ZN8opendnp314FunctorVisitorINS_7IndexedINS_18AnalogOutputStatusEEEZN8asiodnp318PrintingSOEHandler8PrintAllIS2_EEvRKNS_10HeaderInfoERKNS_11ICollectionINS1_IT_EEEEEUlRKS3_E_E7OnValueESH_,comdat
	.size	_ZN8opendnp314FunctorVisitorINS_7IndexedINS_18AnalogOutputStatusEEEZN8asiodnp318PrintingSOEHandler8PrintAllIS2_EEvRKNS_10HeaderInfoERKNS_11ICollectionINS1_IT_EEEEEUlRKS3_E_E7OnValueESH_, .-_ZN8opendnp314FunctorVisitorINS_7IndexedINS_18AnalogOutputStatusEEEZN8asiodnp318PrintingSOEHandler8PrintAllIS2_EEvRKNS_10HeaderInfoERKNS_11ICollectionINS1_IT_EEEEEUlRKS3_E_E7OnValueESH_
	.section	.text._ZN8opendnp314FunctorVisitorINS_7IndexedINS_6AnalogEEEZN8asiodnp318PrintingSOEHandler8PrintAllIS2_EEvRKNS_10HeaderInfoERKNS_11ICollectionINS1_IT_EEEEEUlRKS3_E_E7OnValueESH_,"axG",@progbits,_ZN8opendnp314FunctorVisitorINS_7IndexedINS_6AnalogEEEZN8asiodnp318PrintingSOEHandler8PrintAllIS2_EEvRKNS_10HeaderInfoERKNS_11ICollectionINS1_IT_EEEEEUlRKS3_E_E7OnValueESH_,comdat
	.align 2
	.p2align 4,,15
	.weak	_ZN8opendnp314FunctorVisitorINS_7IndexedINS_6AnalogEEEZN8asiodnp318PrintingSOEHandler8PrintAllIS2_EEvRKNS_10HeaderInfoERKNS_11ICollectionINS1_IT_EEEEEUlRKS3_E_E7OnValueESH_
	.type	_ZN8opendnp314FunctorVisitorINS_7IndexedINS_6AnalogEEEZN8asiodnp318PrintingSOEHandler8PrintAllIS2_EEvRKNS_10HeaderInfoERKNS_11ICollectionINS1_IT_EEEEEUlRKS3_E_E7OnValueESH_, @function
_ZN8opendnp314FunctorVisitorINS_7IndexedINS_6AnalogEEEZN8asiodnp318PrintingSOEHandler8PrintAllIS2_EEvRKNS_10HeaderInfoERKNS_11ICollectionINS1_IT_EEEEEUlRKS3_E_E7OnValueESH_:
.LFB3521:
	.cfi_startproc
	.cfi_personality 0x9b,DW.ref.__gxx_personality_v0
	.cfi_lsda 0x1b,.LLSDA3521
	pushq	%r12
	.cfi_def_cfa_offset 16
	.cfi_offset 12, -16
	pushq	%rbp
	.cfi_def_cfa_offset 24
	.cfi_offset 6, -24
	movq	%rsi, %rbp
	pushq	%rbx
	.cfi_def_cfa_offset 32
	.cfi_offset 3, -32
	movl	$1, %edx
	subq	$48, %rsp
	.cfi_def_cfa_offset 80
	movzwl	24(%rsi), %ebx
	movq	_ZSt4cout@GOTPCREL(%rip), %r12
	leaq	.LC1(%rip), %rsi
	movq	%fs:40, %rax
	movq	%rax, 40(%rsp)
	xorl	%eax, %eax
	movq	%r12, %rdi
.LEHB14:
	call	_ZSt16__ostream_insertIcSt11char_traitsIcEERSt13basic_ostreamIT_T0_ES6_PKS3_l@PLT
	movzwl	%bx, %esi
	movq	%r12, %rdi
	movq	%rsp, %rbx
	call	_ZNSo9_M_insertImEERSoT_@PLT
	leaq	.LC2(%rip), %rsi
	movl	$4, %edx
	movq	%rax, %rdi
	movq	%rax, %r12
	call	_ZSt16__ostream_insertIcSt11char_traitsIcEERSt13basic_ostreamIT_T0_ES6_PKS3_l@PLT
	leaq	16(%rbp), %rsi
	movq	%rbx, %rdi
	call	_ZN8asiodnp318PrintingSOEHandler13ValueToStringIN8opendnp36AnalogEEENSt7__cxx1112basic_stringIcSt11char_traitsIcESaIcEEERKT_.isra.51
.LEHE14:
	movq	8(%rsp), %rdx
	movq	(%rsp), %rsi
	movq	%r12, %rdi
.LEHB15:
	call	_ZSt16__ostream_insertIcSt11char_traitsIcEERSt13basic_ostreamIT_T0_ES6_PKS3_l@PLT
	leaq	.LC3(%rip), %rsi
	movl	$3, %edx
	movq	%rax, %rdi
	movq	%rax, %r12
	call	_ZSt16__ostream_insertIcSt11char_traitsIcEERSt13basic_ostreamIT_T0_ES6_PKS3_l@PLT
	movzbl	0(%rbp), %esi
	movq	%r12, %rdi
	call	_ZNSolsEi@PLT
	leaq	.LC3(%rip), %rsi
	movl	$3, %edx
	movq	%rax, %rdi
	movq	%rax, %r12
	call	_ZSt16__ostream_insertIcSt11char_traitsIcEERSt13basic_ostreamIT_T0_ES6_PKS3_l@PLT
	movq	8(%rbp), %rsi
	movq	%r12, %rdi
	call	_ZNSo9_M_insertIlEERSoT_@PLT
	movq	%rax, %r12
	movq	(%rax), %rax
	movq	-24(%rax), %rax
	movq	240(%r12,%rax), %rbp
	testq	%rbp, %rbp
	je	.L233
	cmpb	$0, 56(%rbp)
	je	.L224
	movsbl	67(%rbp), %esi
.L225:
	movq	%r12, %rdi
	call	_ZNSo3putEc@PLT
	movq	%rax, %rdi
	call	_ZNSo5flushEv@PLT
	movq	(%rsp), %rdi
	addq	$16, %rbx
	cmpq	%rbx, %rdi
	je	.L222
	call	_ZdlPv@PLT
.L222:
	movq	40(%rsp), %rax
	xorq	%fs:40, %rax
	jne	.L234
	addq	$48, %rsp
	.cfi_remember_state
	.cfi_def_cfa_offset 32
	popq	%rbx
	.cfi_def_cfa_offset 24
	popq	%rbp
	.cfi_def_cfa_offset 16
	popq	%r12
	.cfi_def_cfa_offset 8
	ret
	.p2align 4,,10
	.p2align 3
.L224:
	.cfi_restore_state
	movq	%rbp, %rdi
	call	_ZNKSt5ctypeIcE13_M_widen_initEv@PLT
	movq	0(%rbp), %rax
	movl	$10, %esi
	movq	48(%rax), %rax
	cmpq	_ZNKSt5ctypeIcE8do_widenEc@GOTPCREL(%rip), %rax
	je	.L225
	movq	%rbp, %rdi
	call	*%rax
	movsbl	%al, %esi
	jmp	.L225
.L234:
	call	__stack_chk_fail@PLT
.L233:
	call	_ZSt16__throw_bad_castv@PLT
.LEHE15:
.L231:
	movq	(%rsp), %rdi
	addq	$16, %rbx
	movq	%rax, %rbp
	cmpq	%rbx, %rdi
	je	.L228
	call	_ZdlPv@PLT
.L228:
	movq	%rbp, %rdi
.LEHB16:
	call	_Unwind_Resume@PLT
.LEHE16:
	.cfi_endproc
.LFE3521:
	.section	.gcc_except_table
.LLSDA3521:
	.byte	0xff
	.byte	0xff
	.byte	0x1
	.uleb128 .LLSDACSE3521-.LLSDACSB3521
.LLSDACSB3521:
	.uleb128 .LEHB14-.LFB3521
	.uleb128 .LEHE14-.LEHB14
	.uleb128 0
	.uleb128 0
	.uleb128 .LEHB15-.LFB3521
	.uleb128 .LEHE15-.LEHB15
	.uleb128 .L231-.LFB3521
	.uleb128 0
	.uleb128 .LEHB16-.LFB3521
	.uleb128 .LEHE16-.LEHB16
	.uleb128 0
	.uleb128 0
.LLSDACSE3521:
	.section	.text._ZN8opendnp314FunctorVisitorINS_7IndexedINS_6AnalogEEEZN8asiodnp318PrintingSOEHandler8PrintAllIS2_EEvRKNS_10HeaderInfoERKNS_11ICollectionINS1_IT_EEEEEUlRKS3_E_E7OnValueESH_,"axG",@progbits,_ZN8opendnp314FunctorVisitorINS_7IndexedINS_6AnalogEEEZN8asiodnp318PrintingSOEHandler8PrintAllIS2_EEvRKNS_10HeaderInfoERKNS_11ICollectionINS1_IT_EEEEEUlRKS3_E_E7OnValueESH_,comdat
	.size	_ZN8opendnp314FunctorVisitorINS_7IndexedINS_6AnalogEEEZN8asiodnp318PrintingSOEHandler8PrintAllIS2_EEvRKNS_10HeaderInfoERKNS_11ICollectionINS1_IT_EEEEEUlRKS3_E_E7OnValueESH_, .-_ZN8opendnp314FunctorVisitorINS_7IndexedINS_6AnalogEEEZN8asiodnp318PrintingSOEHandler8PrintAllIS2_EEvRKNS_10HeaderInfoERKNS_11ICollectionINS1_IT_EEEEEUlRKS3_E_E7OnValueESH_
	.text
	.p2align 4,,15
	.type	_ZN8asiodnp318PrintingSOEHandler13ValueToStringIN8opendnp36BinaryEEENSt7__cxx1112basic_stringIcSt11char_traitsIcESaIcEEERKT_.isra.50, @function
_ZN8asiodnp318PrintingSOEHandler13ValueToStringIN8opendnp36BinaryEEENSt7__cxx1112basic_stringIcSt11char_traitsIcESaIcEEERKT_.isra.50:
.LFB3585:
	.cfi_startproc
	.cfi_personality 0x9b,DW.ref.__gxx_personality_v0
	.cfi_lsda 0x1b,.LLSDA3585
	pushq	%r15
	.cfi_def_cfa_offset 16
	.cfi_offset 15, -16
	pushq	%r14
	.cfi_def_cfa_offset 24
	.cfi_offset 14, -24
	pushq	%r13
	.cfi_def_cfa_offset 32
	.cfi_offset 13, -32
	pushq	%r12
	.cfi_def_cfa_offset 40
	.cfi_offset 12, -40
	pushq	%rbp
	.cfi_def_cfa_offset 48
	.cfi_offset 6, -48
	pushq	%rbx
	.cfi_def_cfa_offset 56
	.cfi_offset 3, -56
	movq	%rdi, %rbp
	subq	$488, %rsp
	.cfi_def_cfa_offset 544
	leaq	96(%rsp), %rbx
	movq	%rsi, (%rsp)
	movq	%fs:40, %rax
	movq	%rax, 472(%rsp)
	xorl	%eax, %eax
	leaq	112(%rbx), %rdi
	call	_ZNSt8ios_baseC2Ev@PLT
	movq	_ZTTNSt7__cxx1119basic_ostringstreamIcSt11char_traitsIcESaIcEEE@GOTPCREL(%rip), %r14
	movb	$0, 432(%rsp)
	xorl	%esi, %esi
	movq	_ZTVSt9basic_iosIcSt11char_traitsIcEE@GOTPCREL(%rip), %rax
	movq	$0, 424(%rsp)
	movb	$0, 433(%rsp)
	movq	$0, 440(%rsp)
	movq	8(%r14), %r12
	movq	16(%r14), %r15
	addq	$16, %rax
	movq	$0, 448(%rsp)
	movq	$0, 456(%rsp)
	movq	%rax, 208(%rsp)
	movq	$0, 464(%rsp)
	movq	-24(%r12), %rdi
	movq	%r12, 96(%rsp)
	addq	%rbx, %rdi
	movq	%r15, (%rdi)
.LEHB17:
	call	_ZNSt9basic_iosIcSt11char_traitsIcEE4initEPSt15basic_streambufIcS1_E@PLT
.LEHE17:
	movq	_ZTVNSt7__cxx1119basic_ostringstreamIcSt11char_traitsIcESaIcEEE@GOTPCREL(%rip), %r13
	pxor	%xmm0, %xmm0
	leaq	64(%rbx), %rdi
	leaq	24(%r13), %rax
	movaps	%xmm0, 112(%rsp)
	movq	%rax, 96(%rsp)
	leaq	64(%r13), %rax
	movaps	%xmm0, 128(%rsp)
	movaps	%xmm0, 144(%rsp)
	movq	%rax, 208(%rsp)
	movq	_ZTVSt15basic_streambufIcSt11char_traitsIcEE@GOTPCREL(%rip), %rax
	addq	$16, %rax
	movq	%rax, 104(%rsp)
	call	_ZNSt6localeC1Ev@PLT
	movq	_ZTVNSt7__cxx1115basic_stringbufIcSt11char_traitsIcESaIcEEE@GOTPCREL(%rip), %rax
	leaq	8(%rbx), %rsi
	leaq	112(%rbx), %rdi
	movl	$16, 168(%rsp)
	movq	$0, 184(%rsp)
	movb	$0, 192(%rsp)
	addq	$16, %rax
	movq	%rax, 104(%rsp)
	leaq	96(%rbx), %rax
	movq	%rax, 176(%rsp)
.LEHB18:
	call	_ZNSt9basic_iosIcSt11char_traitsIcEE4initEPSt15basic_streambufIcS1_E@PLT
.LEHE18:
	movq	(%rsp), %rax
	movq	%rbx, %rdi
	movzbl	(%rax), %esi
.LEHB19:
	call	_ZNSo9_M_insertIbEERSoT_@PLT
.LEHE19:
	leaq	16(%rbp), %rax
	movq	$0, 8(%rbp)
	movb	$0, 16(%rbp)
	movq	%rax, 8(%rsp)
	movq	%rax, 0(%rbp)
	movq	144(%rsp), %rax
	testq	%rax, %rax
	je	.L239
	movq	128(%rsp), %r15
	movq	136(%rsp), %r12
	cmpq	%r15, %rax
	ja	.L299
	leaq	32(%rsp), %rax
	testq	%r12, %r12
	movq	%rax, (%rsp)
	leaq	48(%rsp), %rax
	movq	%rax, 32(%rsp)
	jne	.L254
	testq	%r15, %r15
	jne	.L300
.L254:
	subq	%r12, %r15
	cmpq	$15, %r15
	movq	%r15, 24(%rsp)
	ja	.L301
	cmpq	$1, %r15
	jne	.L257
	movzbl	(%r12), %eax
	movb	%al, 48(%rsp)
	movq	(%rsp), %rax
	addq	$16, %rax
.L258:
	movq	%r15, 40(%rsp)
	movb	$0, (%rax,%r15)
	movq	(%rsp), %rax
	movq	32(%rsp), %rsi
	movq	0(%rbp), %rdi
	movq	40(%rsp), %rdx
	addq	$16, %rax
	cmpq	%rax, %rsi
	je	.L302
	cmpq	%rdi, 8(%rsp)
	movq	48(%rsp), %rax
	je	.L303
	testq	%rdi, %rdi
	movq	16(%rbp), %rcx
	movq	%rsi, 0(%rbp)
	movq	%rdx, 8(%rbp)
	movq	%rax, 16(%rbp)
	je	.L264
	movq	(%rsp), %rax
	movq	%rdi, 32(%rsp)
	movq	%rcx, 48(%rsp)
.L262:
	movq	$0, 40(%rsp)
	movb	$0, (%rdi)
	addq	$16, %rax
	movq	32(%rsp), %rdi
	cmpq	%rax, %rdi
	jne	.L298
	jmp	.L265
	.p2align 4,,10
	.p2align 3
.L299:
	leaq	64(%rsp), %rcx
	leaq	80(%rsp), %rdx
	testq	%r12, %r12
	movq	%rcx, (%rsp)
	movq	%rdx, 64(%rsp)
	je	.L304
	subq	%r12, %rax
	cmpq	$15, %rax
	movq	%rax, %r15
	movq	%rax, 16(%rsp)
	ja	.L305
	cmpq	$1, %rax
	jne	.L244
	movzbl	(%r12), %eax
	movb	%al, 80(%rsp)
.L245:
	movq	(%rsp), %rax
	movq	%r15, 72(%rsp)
	movb	$0, (%rdx,%r15)
	movq	64(%rsp), %rsi
	movq	0(%rbp), %rdi
	addq	$16, %rax
	cmpq	%rax, %rsi
	je	.L306
	cmpq	%rdi, 8(%rsp)
	movq	80(%rsp), %rax
	movq	72(%rsp), %rdx
	je	.L307
	testq	%rdi, %rdi
	movq	16(%rbp), %rcx
	movq	%rsi, 0(%rbp)
	movq	%rdx, 8(%rbp)
	movq	%rax, 16(%rbp)
	je	.L251
	movq	(%rsp), %rax
	movq	%rdi, 64(%rsp)
	movq	%rcx, 80(%rsp)
.L249:
	movq	$0, 72(%rsp)
	movb	$0, (%rdi)
	addq	$16, %rax
	movq	64(%rsp), %rdi
	cmpq	%rax, %rdi
	je	.L265
.L298:
	call	_ZdlPv@PLT
.L265:
	movq	8(%r14), %r12
	movq	16(%r14), %r15
.L253:
	leaq	64(%r13), %rax
	leaq	24(%r13), %rcx
	movq	176(%rsp), %rdi
	movq	%rax, 208(%rsp)
	movq	_ZTVNSt7__cxx1115basic_stringbufIcSt11char_traitsIcESaIcEEE@GOTPCREL(%rip), %rax
	movq	%rcx, (%rsp)
	movq	(%rsp), %xmm0
	addq	$16, %rax
	movq	%rax, (%rsp)
	leaq	96(%rbx), %rax
	movhps	(%rsp), %xmm0
	cmpq	%rax, %rdi
	movaps	%xmm0, 96(%rsp)
	je	.L269
	call	_ZdlPv@PLT
.L269:
	leaq	64(%rbx), %rdi
	movq	_ZTVSt15basic_streambufIcSt11char_traitsIcEE@GOTPCREL(%rip), %rax
	addq	$16, %rax
	movq	%rax, 104(%rsp)
	call	_ZNSt6localeD1Ev@PLT
	movq	-24(%r12), %rax
	movq	%r12, 96(%rsp)
	leaq	112(%rbx), %rdi
	movq	%r15, 96(%rsp,%rax)
	movq	_ZTVSt9basic_iosIcSt11char_traitsIcEE@GOTPCREL(%rip), %rax
	addq	$16, %rax
	movq	%rax, 208(%rsp)
	call	_ZNSt8ios_baseD2Ev@PLT
	movq	472(%rsp), %rdx
	xorq	%fs:40, %rdx
	movq	%rbp, %rax
	jne	.L308
	addq	$488, %rsp
	.cfi_remember_state
	.cfi_def_cfa_offset 56
	popq	%rbx
	.cfi_def_cfa_offset 48
	popq	%rbp
	.cfi_def_cfa_offset 40
	popq	%r12
	.cfi_def_cfa_offset 32
	popq	%r13
	.cfi_def_cfa_offset 24
	popq	%r14
	.cfi_def_cfa_offset 16
	popq	%r15
	.cfi_def_cfa_offset 8
	ret
	.p2align 4,,10
	.p2align 3
.L257:
	.cfi_restore_state
	movq	(%rsp), %rax
	addq	$16, %rax
	testq	%r15, %r15
	je	.L258
	jmp	.L256
	.p2align 4,,10
	.p2align 3
.L244:
	testq	%rax, %rax
	je	.L245
	movq	%rdx, %rax
	jmp	.L243
	.p2align 4,,10
	.p2align 3
.L239:
	leaq	80(%rbx), %rsi
	movq	%rbp, %rdi
.LEHB20:
	call	_ZNSt7__cxx1112basic_stringIcSt11char_traitsIcESaIcEE9_M_assignERKS4_@PLT
	jmp	.L253
	.p2align 4,,10
	.p2align 3
.L305:
	leaq	16(%rsp), %rsi
	movq	%rcx, %rdi
	xorl	%edx, %edx
	call	_ZNSt7__cxx1112basic_stringIcSt11char_traitsIcESaIcEE9_M_createERmm@PLT
	movq	16(%rsp), %rdx
	movq	%rax, 64(%rsp)
	movq	%rdx, 80(%rsp)
.L243:
	movq	%r15, %rdx
	movq	%r12, %rsi
	movq	%rax, %rdi
	call	memcpy@PLT
	movq	16(%rsp), %r15
	movq	64(%rsp), %rdx
	jmp	.L245
	.p2align 4,,10
	.p2align 3
.L301:
	movq	(%rsp), %rdi
	leaq	24(%rsp), %rsi
	xorl	%edx, %edx
	call	_ZNSt7__cxx1112basic_stringIcSt11char_traitsIcESaIcEE9_M_createERmm@PLT
.LEHE20:
	movq	24(%rsp), %rdx
	movq	%rax, 32(%rsp)
	movq	%rdx, 48(%rsp)
.L256:
	movq	%r15, %rdx
	movq	%r12, %rsi
	movq	%rax, %rdi
	call	memcpy@PLT
	movq	24(%rsp), %r15
	movq	32(%rsp), %rax
	jmp	.L258
	.p2align 4,,10
	.p2align 3
.L306:
	movq	72(%rsp), %rdx
	testq	%rdx, %rdx
	je	.L247
	cmpq	$1, %rdx
	jne	.L248
	movzbl	80(%rsp), %eax
	movb	%al, (%rdi)
	movq	72(%rsp), %rdx
	movq	0(%rbp), %rdi
.L247:
	movq	%rdx, 8(%rbp)
	movq	(%rsp), %rax
	movb	$0, (%rdi,%rdx)
	movq	64(%rsp), %rdi
	jmp	.L249
	.p2align 4,,10
	.p2align 3
.L302:
	testq	%rdx, %rdx
	je	.L260
	cmpq	$1, %rdx
	jne	.L261
	movzbl	48(%rsp), %eax
	movb	%al, (%rdi)
	movq	40(%rsp), %rdx
	movq	0(%rbp), %rdi
.L260:
	movq	%rdx, 8(%rbp)
	movq	(%rsp), %rax
	movb	$0, (%rdi,%rdx)
	movq	32(%rsp), %rdi
	jmp	.L262
	.p2align 4,,10
	.p2align 3
.L303:
	movq	%rsi, 0(%rbp)
	movq	%rdx, 8(%rbp)
	movq	%rax, 16(%rbp)
.L264:
	movq	(%rsp), %rax
	leaq	16(%rax), %rdi
	movq	%rdi, 32(%rsp)
	jmp	.L262
	.p2align 4,,10
	.p2align 3
.L307:
	movq	%rsi, 0(%rbp)
	movq	%rdx, 8(%rbp)
	movq	%rax, 16(%rbp)
.L251:
	movq	(%rsp), %rax
	leaq	16(%rax), %rdi
	movq	%rdi, 64(%rsp)
	jmp	.L249
	.p2align 4,,10
	.p2align 3
.L248:
	call	memcpy@PLT
	movq	72(%rsp), %rdx
	movq	0(%rbp), %rdi
	jmp	.L247
	.p2align 4,,10
	.p2align 3
.L261:
	call	memcpy@PLT
	movq	40(%rsp), %rdx
	movq	0(%rbp), %rdi
	jmp	.L260
.L308:
	call	__stack_chk_fail@PLT
.L273:
	movq	%rax, %r12
.L268:
	movq	%rbx, %rdi
	call	_ZNSt7__cxx1119basic_ostringstreamIcSt11char_traitsIcESaIcEED1Ev@PLT
	movq	%r12, %rdi
.LEHB21:
	call	_Unwind_Resume@PLT
.L275:
	leaq	8(%rbx), %rdi
	movq	%rax, %rbp
	call	_ZNSt7__cxx1115basic_stringbufIcSt11char_traitsIcESaIcEED1Ev@PLT
	movq	-24(%r12), %rax
	movq	%r12, 96(%rsp)
	movq	%r15, 96(%rsp,%rax)
.L238:
	movq	_ZTVSt9basic_iosIcSt11char_traitsIcEE@GOTPCREL(%rip), %rax
	leaq	112(%rbx), %rdi
	addq	$16, %rax
	movq	%rax, 208(%rsp)
	call	_ZNSt8ios_baseD2Ev@PLT
	movq	%rbp, %rdi
	call	_Unwind_Resume@PLT
.LEHE21:
.L276:
	movq	0(%rbp), %rdi
	cmpq	%rdi, 8(%rsp)
	movq	%rax, %r12
	je	.L268
	call	_ZdlPv@PLT
	jmp	.L268
.L304:
	leaq	.LC11(%rip), %rdi
.LEHB22:
	call	_ZSt19__throw_logic_errorPKc@PLT
.L274:
	movq	%rax, %rbp
	jmp	.L238
.L300:
	leaq	.LC11(%rip), %rdi
	call	_ZSt19__throw_logic_errorPKc@PLT
.LEHE22:
	.cfi_endproc
.LFE3585:
	.section	.gcc_except_table
.LLSDA3585:
	.byte	0xff
	.byte	0xff
	.byte	0x1
	.uleb128 .LLSDACSE3585-.LLSDACSB3585
.LLSDACSB3585:
	.uleb128 .LEHB17-.LFB3585
	.uleb128 .LEHE17-.LEHB17
	.uleb128 .L274-.LFB3585
	.uleb128 0
	.uleb128 .LEHB18-.LFB3585
	.uleb128 .LEHE18-.LEHB18
	.uleb128 .L275-.LFB3585
	.uleb128 0
	.uleb128 .LEHB19-.LFB3585
	.uleb128 .LEHE19-.LEHB19
	.uleb128 .L273-.LFB3585
	.uleb128 0
	.uleb128 .LEHB20-.LFB3585
	.uleb128 .LEHE20-.LEHB20
	.uleb128 .L276-.LFB3585
	.uleb128 0
	.uleb128 .LEHB21-.LFB3585
	.uleb128 .LEHE21-.LEHB21
	.uleb128 0
	.uleb128 0
	.uleb128 .LEHB22-.LFB3585
	.uleb128 .LEHE22-.LEHB22
	.uleb128 .L276-.LFB3585
	.uleb128 0
.LLSDACSE3585:
	.text
	.size	_ZN8asiodnp318PrintingSOEHandler13ValueToStringIN8opendnp36BinaryEEENSt7__cxx1112basic_stringIcSt11char_traitsIcESaIcEEERKT_.isra.50, .-_ZN8asiodnp318PrintingSOEHandler13ValueToStringIN8opendnp36BinaryEEENSt7__cxx1112basic_stringIcSt11char_traitsIcESaIcEEERKT_.isra.50
	.set	_ZN8asiodnp318PrintingSOEHandler13ValueToStringIN8opendnp318BinaryOutputStatusEEENSt7__cxx1112basic_stringIcSt11char_traitsIcESaIcEEERKT_.isra.54,_ZN8asiodnp318PrintingSOEHandler13ValueToStringIN8opendnp36BinaryEEENSt7__cxx1112basic_stringIcSt11char_traitsIcESaIcEEERKT_.isra.50
	.section	.text._ZN8opendnp314FunctorVisitorINS_7IndexedINS_18BinaryOutputStatusEEEZN8asiodnp318PrintingSOEHandler8PrintAllIS2_EEvRKNS_10HeaderInfoERKNS_11ICollectionINS1_IT_EEEEEUlRKS3_E_E7OnValueESH_,"axG",@progbits,_ZN8opendnp314FunctorVisitorINS_7IndexedINS_18BinaryOutputStatusEEEZN8asiodnp318PrintingSOEHandler8PrintAllIS2_EEvRKNS_10HeaderInfoERKNS_11ICollectionINS1_IT_EEEEEUlRKS3_E_E7OnValueESH_,comdat
	.align 2
	.p2align 4,,15
	.weak	_ZN8opendnp314FunctorVisitorINS_7IndexedINS_18BinaryOutputStatusEEEZN8asiodnp318PrintingSOEHandler8PrintAllIS2_EEvRKNS_10HeaderInfoERKNS_11ICollectionINS1_IT_EEEEEUlRKS3_E_E7OnValueESH_
	.type	_ZN8opendnp314FunctorVisitorINS_7IndexedINS_18BinaryOutputStatusEEEZN8asiodnp318PrintingSOEHandler8PrintAllIS2_EEvRKNS_10HeaderInfoERKNS_11ICollectionINS1_IT_EEEEEUlRKS3_E_E7OnValueESH_, @function
_ZN8opendnp314FunctorVisitorINS_7IndexedINS_18BinaryOutputStatusEEEZN8asiodnp318PrintingSOEHandler8PrintAllIS2_EEvRKNS_10HeaderInfoERKNS_11ICollectionINS1_IT_EEEEEUlRKS3_E_E7OnValueESH_:
.LFB3518:
	.cfi_startproc
	.cfi_personality 0x9b,DW.ref.__gxx_personality_v0
	.cfi_lsda 0x1b,.LLSDA3518
	pushq	%r12
	.cfi_def_cfa_offset 16
	.cfi_offset 12, -16
	pushq	%rbp
	.cfi_def_cfa_offset 24
	.cfi_offset 6, -24
	movq	%rsi, %rbp
	pushq	%rbx
	.cfi_def_cfa_offset 32
	.cfi_offset 3, -32
	movl	$1, %edx
	subq	$48, %rsp
	.cfi_def_cfa_offset 80
	movzwl	24(%rsi), %ebx
	movq	_ZSt4cout@GOTPCREL(%rip), %r12
	leaq	.LC1(%rip), %rsi
	movq	%fs:40, %rax
	movq	%rax, 40(%rsp)
	xorl	%eax, %eax
	movq	%r12, %rdi
.LEHB23:
	call	_ZSt16__ostream_insertIcSt11char_traitsIcEERSt13basic_ostreamIT_T0_ES6_PKS3_l@PLT
	movzwl	%bx, %esi
	movq	%r12, %rdi
	movq	%rsp, %rbx
	call	_ZNSo9_M_insertImEERSoT_@PLT
	leaq	.LC2(%rip), %rsi
	movl	$4, %edx
	movq	%rax, %rdi
	movq	%rax, %r12
	call	_ZSt16__ostream_insertIcSt11char_traitsIcEERSt13basic_ostreamIT_T0_ES6_PKS3_l@PLT
	leaq	16(%rbp), %rsi
	movq	%rbx, %rdi
	call	_ZN8asiodnp318PrintingSOEHandler13ValueToStringIN8opendnp318BinaryOutputStatusEEENSt7__cxx1112basic_stringIcSt11char_traitsIcESaIcEEERKT_.isra.54
.LEHE23:
	movq	8(%rsp), %rdx
	movq	(%rsp), %rsi
	movq	%r12, %rdi
.LEHB24:
	call	_ZSt16__ostream_insertIcSt11char_traitsIcEERSt13basic_ostreamIT_T0_ES6_PKS3_l@PLT
	leaq	.LC3(%rip), %rsi
	movl	$3, %edx
	movq	%rax, %rdi
	movq	%rax, %r12
	call	_ZSt16__ostream_insertIcSt11char_traitsIcEERSt13basic_ostreamIT_T0_ES6_PKS3_l@PLT
	movzbl	0(%rbp), %esi
	movq	%r12, %rdi
	call	_ZNSolsEi@PLT
	leaq	.LC3(%rip), %rsi
	movl	$3, %edx
	movq	%rax, %rdi
	movq	%rax, %r12
	call	_ZSt16__ostream_insertIcSt11char_traitsIcEERSt13basic_ostreamIT_T0_ES6_PKS3_l@PLT
	movq	8(%rbp), %rsi
	movq	%r12, %rdi
	call	_ZNSo9_M_insertIlEERSoT_@PLT
	movq	%rax, %r12
	movq	(%rax), %rax
	movq	-24(%rax), %rax
	movq	240(%r12,%rax), %rbp
	testq	%rbp, %rbp
	je	.L320
	cmpb	$0, 56(%rbp)
	je	.L311
	movsbl	67(%rbp), %esi
.L312:
	movq	%r12, %rdi
	call	_ZNSo3putEc@PLT
	movq	%rax, %rdi
	call	_ZNSo5flushEv@PLT
	movq	(%rsp), %rdi
	addq	$16, %rbx
	cmpq	%rbx, %rdi
	je	.L309
	call	_ZdlPv@PLT
.L309:
	movq	40(%rsp), %rax
	xorq	%fs:40, %rax
	jne	.L321
	addq	$48, %rsp
	.cfi_remember_state
	.cfi_def_cfa_offset 32
	popq	%rbx
	.cfi_def_cfa_offset 24
	popq	%rbp
	.cfi_def_cfa_offset 16
	popq	%r12
	.cfi_def_cfa_offset 8
	ret
	.p2align 4,,10
	.p2align 3
.L311:
	.cfi_restore_state
	movq	%rbp, %rdi
	call	_ZNKSt5ctypeIcE13_M_widen_initEv@PLT
	movq	0(%rbp), %rax
	movl	$10, %esi
	movq	48(%rax), %rax
	cmpq	_ZNKSt5ctypeIcE8do_widenEc@GOTPCREL(%rip), %rax
	je	.L312
	movq	%rbp, %rdi
	call	*%rax
	movsbl	%al, %esi
	jmp	.L312
.L321:
	call	__stack_chk_fail@PLT
.L320:
	call	_ZSt16__throw_bad_castv@PLT
.LEHE24:
.L318:
	movq	(%rsp), %rdi
	addq	$16, %rbx
	movq	%rax, %rbp
	cmpq	%rbx, %rdi
	je	.L315
	call	_ZdlPv@PLT
.L315:
	movq	%rbp, %rdi
.LEHB25:
	call	_Unwind_Resume@PLT
.LEHE25:
	.cfi_endproc
.LFE3518:
	.section	.gcc_except_table
.LLSDA3518:
	.byte	0xff
	.byte	0xff
	.byte	0x1
	.uleb128 .LLSDACSE3518-.LLSDACSB3518
.LLSDACSB3518:
	.uleb128 .LEHB23-.LFB3518
	.uleb128 .LEHE23-.LEHB23
	.uleb128 0
	.uleb128 0
	.uleb128 .LEHB24-.LFB3518
	.uleb128 .LEHE24-.LEHB24
	.uleb128 .L318-.LFB3518
	.uleb128 0
	.uleb128 .LEHB25-.LFB3518
	.uleb128 .LEHE25-.LEHB25
	.uleb128 0
	.uleb128 0
.LLSDACSE3518:
	.section	.text._ZN8opendnp314FunctorVisitorINS_7IndexedINS_18BinaryOutputStatusEEEZN8asiodnp318PrintingSOEHandler8PrintAllIS2_EEvRKNS_10HeaderInfoERKNS_11ICollectionINS1_IT_EEEEEUlRKS3_E_E7OnValueESH_,"axG",@progbits,_ZN8opendnp314FunctorVisitorINS_7IndexedINS_18BinaryOutputStatusEEEZN8asiodnp318PrintingSOEHandler8PrintAllIS2_EEvRKNS_10HeaderInfoERKNS_11ICollectionINS1_IT_EEEEEUlRKS3_E_E7OnValueESH_,comdat
	.size	_ZN8opendnp314FunctorVisitorINS_7IndexedINS_18BinaryOutputStatusEEEZN8asiodnp318PrintingSOEHandler8PrintAllIS2_EEvRKNS_10HeaderInfoERKNS_11ICollectionINS1_IT_EEEEEUlRKS3_E_E7OnValueESH_, .-_ZN8opendnp314FunctorVisitorINS_7IndexedINS_18BinaryOutputStatusEEEZN8asiodnp318PrintingSOEHandler8PrintAllIS2_EEvRKNS_10HeaderInfoERKNS_11ICollectionINS1_IT_EEEEEUlRKS3_E_E7OnValueESH_
	.section	.text._ZN8opendnp314FunctorVisitorINS_7IndexedINS_6BinaryEEEZN8asiodnp318PrintingSOEHandler8PrintAllIS2_EEvRKNS_10HeaderInfoERKNS_11ICollectionINS1_IT_EEEEEUlRKS3_E_E7OnValueESH_,"axG",@progbits,_ZN8opendnp314FunctorVisitorINS_7IndexedINS_6BinaryEEEZN8asiodnp318PrintingSOEHandler8PrintAllIS2_EEvRKNS_10HeaderInfoERKNS_11ICollectionINS1_IT_EEEEEUlRKS3_E_E7OnValueESH_,comdat
	.align 2
	.p2align 4,,15
	.weak	_ZN8opendnp314FunctorVisitorINS_7IndexedINS_6BinaryEEEZN8asiodnp318PrintingSOEHandler8PrintAllIS2_EEvRKNS_10HeaderInfoERKNS_11ICollectionINS1_IT_EEEEEUlRKS3_E_E7OnValueESH_
	.type	_ZN8opendnp314FunctorVisitorINS_7IndexedINS_6BinaryEEEZN8asiodnp318PrintingSOEHandler8PrintAllIS2_EEvRKNS_10HeaderInfoERKNS_11ICollectionINS1_IT_EEEEEUlRKS3_E_E7OnValueESH_, @function
_ZN8opendnp314FunctorVisitorINS_7IndexedINS_6BinaryEEEZN8asiodnp318PrintingSOEHandler8PrintAllIS2_EEvRKNS_10HeaderInfoERKNS_11ICollectionINS1_IT_EEEEEUlRKS3_E_E7OnValueESH_:
.LFB3523:
	.cfi_startproc
	.cfi_personality 0x9b,DW.ref.__gxx_personality_v0
	.cfi_lsda 0x1b,.LLSDA3523
	pushq	%r12
	.cfi_def_cfa_offset 16
	.cfi_offset 12, -16
	pushq	%rbp
	.cfi_def_cfa_offset 24
	.cfi_offset 6, -24
	movq	%rsi, %rbp
	pushq	%rbx
	.cfi_def_cfa_offset 32
	.cfi_offset 3, -32
	movl	$1, %edx
	subq	$48, %rsp
	.cfi_def_cfa_offset 80
	movzwl	24(%rsi), %ebx
	movq	_ZSt4cout@GOTPCREL(%rip), %r12
	leaq	.LC1(%rip), %rsi
	movq	%fs:40, %rax
	movq	%rax, 40(%rsp)
	xorl	%eax, %eax
	movq	%r12, %rdi
.LEHB26:
	call	_ZSt16__ostream_insertIcSt11char_traitsIcEERSt13basic_ostreamIT_T0_ES6_PKS3_l@PLT
	movzwl	%bx, %esi
	movq	%r12, %rdi
	movq	%rsp, %rbx
	call	_ZNSo9_M_insertImEERSoT_@PLT
	leaq	.LC2(%rip), %rsi
	movl	$4, %edx
	movq	%rax, %rdi
	movq	%rax, %r12
	call	_ZSt16__ostream_insertIcSt11char_traitsIcEERSt13basic_ostreamIT_T0_ES6_PKS3_l@PLT
	leaq	16(%rbp), %rsi
	movq	%rbx, %rdi
	call	_ZN8asiodnp318PrintingSOEHandler13ValueToStringIN8opendnp36BinaryEEENSt7__cxx1112basic_stringIcSt11char_traitsIcESaIcEEERKT_.isra.50
.LEHE26:
	movq	8(%rsp), %rdx
	movq	(%rsp), %rsi
	movq	%r12, %rdi
.LEHB27:
	call	_ZSt16__ostream_insertIcSt11char_traitsIcEERSt13basic_ostreamIT_T0_ES6_PKS3_l@PLT
	leaq	.LC3(%rip), %rsi
	movl	$3, %edx
	movq	%rax, %rdi
	movq	%rax, %r12
	call	_ZSt16__ostream_insertIcSt11char_traitsIcEERSt13basic_ostreamIT_T0_ES6_PKS3_l@PLT
	movzbl	0(%rbp), %esi
	movq	%r12, %rdi
	call	_ZNSolsEi@PLT
	leaq	.LC3(%rip), %rsi
	movl	$3, %edx
	movq	%rax, %rdi
	movq	%rax, %r12
	call	_ZSt16__ostream_insertIcSt11char_traitsIcEERSt13basic_ostreamIT_T0_ES6_PKS3_l@PLT
	movq	8(%rbp), %rsi
	movq	%r12, %rdi
	call	_ZNSo9_M_insertIlEERSoT_@PLT
	movq	%rax, %r12
	movq	(%rax), %rax
	movq	-24(%rax), %rax
	movq	240(%r12,%rax), %rbp
	testq	%rbp, %rbp
	je	.L333
	cmpb	$0, 56(%rbp)
	je	.L324
	movsbl	67(%rbp), %esi
.L325:
	movq	%r12, %rdi
	call	_ZNSo3putEc@PLT
	movq	%rax, %rdi
	call	_ZNSo5flushEv@PLT
	movq	(%rsp), %rdi
	addq	$16, %rbx
	cmpq	%rbx, %rdi
	je	.L322
	call	_ZdlPv@PLT
.L322:
	movq	40(%rsp), %rax
	xorq	%fs:40, %rax
	jne	.L334
	addq	$48, %rsp
	.cfi_remember_state
	.cfi_def_cfa_offset 32
	popq	%rbx
	.cfi_def_cfa_offset 24
	popq	%rbp
	.cfi_def_cfa_offset 16
	popq	%r12
	.cfi_def_cfa_offset 8
	ret
	.p2align 4,,10
	.p2align 3
.L324:
	.cfi_restore_state
	movq	%rbp, %rdi
	call	_ZNKSt5ctypeIcE13_M_widen_initEv@PLT
	movq	0(%rbp), %rax
	movl	$10, %esi
	movq	48(%rax), %rax
	cmpq	_ZNKSt5ctypeIcE8do_widenEc@GOTPCREL(%rip), %rax
	je	.L325
	movq	%rbp, %rdi
	call	*%rax
	movsbl	%al, %esi
	jmp	.L325
.L334:
	call	__stack_chk_fail@PLT
.L333:
	call	_ZSt16__throw_bad_castv@PLT
.LEHE27:
.L331:
	movq	(%rsp), %rdi
	addq	$16, %rbx
	movq	%rax, %rbp
	cmpq	%rbx, %rdi
	je	.L328
	call	_ZdlPv@PLT
.L328:
	movq	%rbp, %rdi
.LEHB28:
	call	_Unwind_Resume@PLT
.LEHE28:
	.cfi_endproc
.LFE3523:
	.section	.gcc_except_table
.LLSDA3523:
	.byte	0xff
	.byte	0xff
	.byte	0x1
	.uleb128 .LLSDACSE3523-.LLSDACSB3523
.LLSDACSB3523:
	.uleb128 .LEHB26-.LFB3523
	.uleb128 .LEHE26-.LEHB26
	.uleb128 0
	.uleb128 0
	.uleb128 .LEHB27-.LFB3523
	.uleb128 .LEHE27-.LEHB27
	.uleb128 .L331-.LFB3523
	.uleb128 0
	.uleb128 .LEHB28-.LFB3523
	.uleb128 .LEHE28-.LEHB28
	.uleb128 0
	.uleb128 0
.LLSDACSE3523:
	.section	.text._ZN8opendnp314FunctorVisitorINS_7IndexedINS_6BinaryEEEZN8asiodnp318PrintingSOEHandler8PrintAllIS2_EEvRKNS_10HeaderInfoERKNS_11ICollectionINS1_IT_EEEEEUlRKS3_E_E7OnValueESH_,"axG",@progbits,_ZN8opendnp314FunctorVisitorINS_7IndexedINS_6BinaryEEEZN8asiodnp318PrintingSOEHandler8PrintAllIS2_EEvRKNS_10HeaderInfoERKNS_11ICollectionINS1_IT_EEEEEUlRKS3_E_E7OnValueESH_,comdat
	.size	_ZN8opendnp314FunctorVisitorINS_7IndexedINS_6BinaryEEEZN8asiodnp318PrintingSOEHandler8PrintAllIS2_EEvRKNS_10HeaderInfoERKNS_11ICollectionINS1_IT_EEEEEUlRKS3_E_E7OnValueESH_, .-_ZN8opendnp314FunctorVisitorINS_7IndexedINS_6BinaryEEEZN8asiodnp318PrintingSOEHandler8PrintAllIS2_EEvRKNS_10HeaderInfoERKNS_11ICollectionINS1_IT_EEEEEUlRKS3_E_E7OnValueESH_
	.text
	.p2align 4,,15
	.type	_ZN8asiodnp318PrintingSOEHandler13ValueToStringIN8opendnp37CounterEEENSt7__cxx1112basic_stringIcSt11char_traitsIcESaIcEEERKT_.isra.52, @function
_ZN8asiodnp318PrintingSOEHandler13ValueToStringIN8opendnp37CounterEEENSt7__cxx1112basic_stringIcSt11char_traitsIcESaIcEEERKT_.isra.52:
.LFB3587:
	.cfi_startproc
	.cfi_personality 0x9b,DW.ref.__gxx_personality_v0
	.cfi_lsda 0x1b,.LLSDA3587
	pushq	%r15
	.cfi_def_cfa_offset 16
	.cfi_offset 15, -16
	pushq	%r14
	.cfi_def_cfa_offset 24
	.cfi_offset 14, -24
	pushq	%r13
	.cfi_def_cfa_offset 32
	.cfi_offset 13, -32
	pushq	%r12
	.cfi_def_cfa_offset 40
	.cfi_offset 12, -40
	pushq	%rbp
	.cfi_def_cfa_offset 48
	.cfi_offset 6, -48
	pushq	%rbx
	.cfi_def_cfa_offset 56
	.cfi_offset 3, -56
	movq	%rdi, %rbp
	subq	$488, %rsp
	.cfi_def_cfa_offset 544
	leaq	96(%rsp), %rbx
	movq	%rsi, (%rsp)
	movq	%fs:40, %rax
	movq	%rax, 472(%rsp)
	xorl	%eax, %eax
	leaq	112(%rbx), %rdi
	call	_ZNSt8ios_baseC2Ev@PLT
	movq	_ZTTNSt7__cxx1119basic_ostringstreamIcSt11char_traitsIcESaIcEEE@GOTPCREL(%rip), %r14
	movb	$0, 432(%rsp)
	xorl	%esi, %esi
	movq	_ZTVSt9basic_iosIcSt11char_traitsIcEE@GOTPCREL(%rip), %rax
	movq	$0, 424(%rsp)
	movb	$0, 433(%rsp)
	movq	$0, 440(%rsp)
	movq	8(%r14), %r12
	movq	16(%r14), %r15
	addq	$16, %rax
	movq	$0, 448(%rsp)
	movq	$0, 456(%rsp)
	movq	%rax, 208(%rsp)
	movq	$0, 464(%rsp)
	movq	-24(%r12), %rdi
	movq	%r12, 96(%rsp)
	addq	%rbx, %rdi
	movq	%r15, (%rdi)
.LEHB29:
	call	_ZNSt9basic_iosIcSt11char_traitsIcEE4initEPSt15basic_streambufIcS1_E@PLT
.LEHE29:
	movq	_ZTVNSt7__cxx1119basic_ostringstreamIcSt11char_traitsIcESaIcEEE@GOTPCREL(%rip), %r13
	pxor	%xmm0, %xmm0
	leaq	64(%rbx), %rdi
	leaq	24(%r13), %rax
	movaps	%xmm0, 112(%rsp)
	movq	%rax, 96(%rsp)
	leaq	64(%r13), %rax
	movaps	%xmm0, 128(%rsp)
	movaps	%xmm0, 144(%rsp)
	movq	%rax, 208(%rsp)
	movq	_ZTVSt15basic_streambufIcSt11char_traitsIcEE@GOTPCREL(%rip), %rax
	addq	$16, %rax
	movq	%rax, 104(%rsp)
	call	_ZNSt6localeC1Ev@PLT
	movq	_ZTVNSt7__cxx1115basic_stringbufIcSt11char_traitsIcESaIcEEE@GOTPCREL(%rip), %rax
	leaq	8(%rbx), %rsi
	leaq	112(%rbx), %rdi
	movl	$16, 168(%rsp)
	movq	$0, 184(%rsp)
	movb	$0, 192(%rsp)
	addq	$16, %rax
	movq	%rax, 104(%rsp)
	leaq	96(%rbx), %rax
	movq	%rax, 176(%rsp)
.LEHB30:
	call	_ZNSt9basic_iosIcSt11char_traitsIcEE4initEPSt15basic_streambufIcS1_E@PLT
.LEHE30:
	movq	(%rsp), %rax
	movq	%rbx, %rdi
	movl	(%rax), %esi
.LEHB31:
	call	_ZNSo9_M_insertImEERSoT_@PLT
.LEHE31:
	leaq	16(%rbp), %rax
	movq	$0, 8(%rbp)
	movb	$0, 16(%rbp)
	movq	%rax, 8(%rsp)
	movq	%rax, 0(%rbp)
	movq	144(%rsp), %rax
	testq	%rax, %rax
	je	.L339
	movq	128(%rsp), %r15
	movq	136(%rsp), %r12
	cmpq	%r15, %rax
	ja	.L399
	leaq	32(%rsp), %rax
	testq	%r12, %r12
	movq	%rax, (%rsp)
	leaq	48(%rsp), %rax
	movq	%rax, 32(%rsp)
	jne	.L354
	testq	%r15, %r15
	jne	.L400
.L354:
	subq	%r12, %r15
	cmpq	$15, %r15
	movq	%r15, 24(%rsp)
	ja	.L401
	cmpq	$1, %r15
	jne	.L357
	movzbl	(%r12), %eax
	movb	%al, 48(%rsp)
	movq	(%rsp), %rax
	addq	$16, %rax
.L358:
	movq	%r15, 40(%rsp)
	movb	$0, (%rax,%r15)
	movq	(%rsp), %rax
	movq	32(%rsp), %rsi
	movq	0(%rbp), %rdi
	movq	40(%rsp), %rdx
	addq	$16, %rax
	cmpq	%rax, %rsi
	je	.L402
	cmpq	%rdi, 8(%rsp)
	movq	48(%rsp), %rax
	je	.L403
	testq	%rdi, %rdi
	movq	16(%rbp), %rcx
	movq	%rsi, 0(%rbp)
	movq	%rdx, 8(%rbp)
	movq	%rax, 16(%rbp)
	je	.L364
	movq	(%rsp), %rax
	movq	%rdi, 32(%rsp)
	movq	%rcx, 48(%rsp)
.L362:
	movq	$0, 40(%rsp)
	movb	$0, (%rdi)
	addq	$16, %rax
	movq	32(%rsp), %rdi
	cmpq	%rax, %rdi
	jne	.L398
	jmp	.L365
	.p2align 4,,10
	.p2align 3
.L399:
	leaq	64(%rsp), %rcx
	leaq	80(%rsp), %rdx
	testq	%r12, %r12
	movq	%rcx, (%rsp)
	movq	%rdx, 64(%rsp)
	je	.L404
	subq	%r12, %rax
	cmpq	$15, %rax
	movq	%rax, %r15
	movq	%rax, 16(%rsp)
	ja	.L405
	cmpq	$1, %rax
	jne	.L344
	movzbl	(%r12), %eax
	movb	%al, 80(%rsp)
.L345:
	movq	(%rsp), %rax
	movq	%r15, 72(%rsp)
	movb	$0, (%rdx,%r15)
	movq	64(%rsp), %rsi
	movq	0(%rbp), %rdi
	addq	$16, %rax
	cmpq	%rax, %rsi
	je	.L406
	cmpq	%rdi, 8(%rsp)
	movq	80(%rsp), %rax
	movq	72(%rsp), %rdx
	je	.L407
	testq	%rdi, %rdi
	movq	16(%rbp), %rcx
	movq	%rsi, 0(%rbp)
	movq	%rdx, 8(%rbp)
	movq	%rax, 16(%rbp)
	je	.L351
	movq	(%rsp), %rax
	movq	%rdi, 64(%rsp)
	movq	%rcx, 80(%rsp)
.L349:
	movq	$0, 72(%rsp)
	movb	$0, (%rdi)
	addq	$16, %rax
	movq	64(%rsp), %rdi
	cmpq	%rax, %rdi
	je	.L365
.L398:
	call	_ZdlPv@PLT
.L365:
	movq	8(%r14), %r12
	movq	16(%r14), %r15
.L353:
	leaq	64(%r13), %rax
	leaq	24(%r13), %rcx
	movq	176(%rsp), %rdi
	movq	%rax, 208(%rsp)
	movq	_ZTVNSt7__cxx1115basic_stringbufIcSt11char_traitsIcESaIcEEE@GOTPCREL(%rip), %rax
	movq	%rcx, (%rsp)
	movq	(%rsp), %xmm0
	addq	$16, %rax
	movq	%rax, (%rsp)
	leaq	96(%rbx), %rax
	movhps	(%rsp), %xmm0
	cmpq	%rax, %rdi
	movaps	%xmm0, 96(%rsp)
	je	.L369
	call	_ZdlPv@PLT
.L369:
	leaq	64(%rbx), %rdi
	movq	_ZTVSt15basic_streambufIcSt11char_traitsIcEE@GOTPCREL(%rip), %rax
	addq	$16, %rax
	movq	%rax, 104(%rsp)
	call	_ZNSt6localeD1Ev@PLT
	movq	-24(%r12), %rax
	movq	%r12, 96(%rsp)
	leaq	112(%rbx), %rdi
	movq	%r15, 96(%rsp,%rax)
	movq	_ZTVSt9basic_iosIcSt11char_traitsIcEE@GOTPCREL(%rip), %rax
	addq	$16, %rax
	movq	%rax, 208(%rsp)
	call	_ZNSt8ios_baseD2Ev@PLT
	movq	472(%rsp), %rdx
	xorq	%fs:40, %rdx
	movq	%rbp, %rax
	jne	.L408
	addq	$488, %rsp
	.cfi_remember_state
	.cfi_def_cfa_offset 56
	popq	%rbx
	.cfi_def_cfa_offset 48
	popq	%rbp
	.cfi_def_cfa_offset 40
	popq	%r12
	.cfi_def_cfa_offset 32
	popq	%r13
	.cfi_def_cfa_offset 24
	popq	%r14
	.cfi_def_cfa_offset 16
	popq	%r15
	.cfi_def_cfa_offset 8
	ret
	.p2align 4,,10
	.p2align 3
.L357:
	.cfi_restore_state
	movq	(%rsp), %rax
	addq	$16, %rax
	testq	%r15, %r15
	je	.L358
	jmp	.L356
	.p2align 4,,10
	.p2align 3
.L344:
	testq	%rax, %rax
	je	.L345
	movq	%rdx, %rax
	jmp	.L343
	.p2align 4,,10
	.p2align 3
.L339:
	leaq	80(%rbx), %rsi
	movq	%rbp, %rdi
.LEHB32:
	call	_ZNSt7__cxx1112basic_stringIcSt11char_traitsIcESaIcEE9_M_assignERKS4_@PLT
	jmp	.L353
	.p2align 4,,10
	.p2align 3
.L405:
	leaq	16(%rsp), %rsi
	movq	%rcx, %rdi
	xorl	%edx, %edx
	call	_ZNSt7__cxx1112basic_stringIcSt11char_traitsIcESaIcEE9_M_createERmm@PLT
	movq	16(%rsp), %rdx
	movq	%rax, 64(%rsp)
	movq	%rdx, 80(%rsp)
.L343:
	movq	%r15, %rdx
	movq	%r12, %rsi
	movq	%rax, %rdi
	call	memcpy@PLT
	movq	16(%rsp), %r15
	movq	64(%rsp), %rdx
	jmp	.L345
	.p2align 4,,10
	.p2align 3
.L401:
	movq	(%rsp), %rdi
	leaq	24(%rsp), %rsi
	xorl	%edx, %edx
	call	_ZNSt7__cxx1112basic_stringIcSt11char_traitsIcESaIcEE9_M_createERmm@PLT
.LEHE32:
	movq	24(%rsp), %rdx
	movq	%rax, 32(%rsp)
	movq	%rdx, 48(%rsp)
.L356:
	movq	%r15, %rdx
	movq	%r12, %rsi
	movq	%rax, %rdi
	call	memcpy@PLT
	movq	24(%rsp), %r15
	movq	32(%rsp), %rax
	jmp	.L358
	.p2align 4,,10
	.p2align 3
.L406:
	movq	72(%rsp), %rdx
	testq	%rdx, %rdx
	je	.L347
	cmpq	$1, %rdx
	jne	.L348
	movzbl	80(%rsp), %eax
	movb	%al, (%rdi)
	movq	72(%rsp), %rdx
	movq	0(%rbp), %rdi
.L347:
	movq	%rdx, 8(%rbp)
	movq	(%rsp), %rax
	movb	$0, (%rdi,%rdx)
	movq	64(%rsp), %rdi
	jmp	.L349
	.p2align 4,,10
	.p2align 3
.L402:
	testq	%rdx, %rdx
	je	.L360
	cmpq	$1, %rdx
	jne	.L361
	movzbl	48(%rsp), %eax
	movb	%al, (%rdi)
	movq	40(%rsp), %rdx
	movq	0(%rbp), %rdi
.L360:
	movq	%rdx, 8(%rbp)
	movq	(%rsp), %rax
	movb	$0, (%rdi,%rdx)
	movq	32(%rsp), %rdi
	jmp	.L362
	.p2align 4,,10
	.p2align 3
.L403:
	movq	%rsi, 0(%rbp)
	movq	%rdx, 8(%rbp)
	movq	%rax, 16(%rbp)
.L364:
	movq	(%rsp), %rax
	leaq	16(%rax), %rdi
	movq	%rdi, 32(%rsp)
	jmp	.L362
	.p2align 4,,10
	.p2align 3
.L407:
	movq	%rsi, 0(%rbp)
	movq	%rdx, 8(%rbp)
	movq	%rax, 16(%rbp)
.L351:
	movq	(%rsp), %rax
	leaq	16(%rax), %rdi
	movq	%rdi, 64(%rsp)
	jmp	.L349
	.p2align 4,,10
	.p2align 3
.L348:
	call	memcpy@PLT
	movq	72(%rsp), %rdx
	movq	0(%rbp), %rdi
	jmp	.L347
	.p2align 4,,10
	.p2align 3
.L361:
	call	memcpy@PLT
	movq	40(%rsp), %rdx
	movq	0(%rbp), %rdi
	jmp	.L360
.L408:
	call	__stack_chk_fail@PLT
.L373:
	movq	%rax, %r12
.L368:
	movq	%rbx, %rdi
	call	_ZNSt7__cxx1119basic_ostringstreamIcSt11char_traitsIcESaIcEED1Ev@PLT
	movq	%r12, %rdi
.LEHB33:
	call	_Unwind_Resume@PLT
.L375:
	leaq	8(%rbx), %rdi
	movq	%rax, %rbp
	call	_ZNSt7__cxx1115basic_stringbufIcSt11char_traitsIcESaIcEED1Ev@PLT
	movq	-24(%r12), %rax
	movq	%r12, 96(%rsp)
	movq	%r15, 96(%rsp,%rax)
.L338:
	movq	_ZTVSt9basic_iosIcSt11char_traitsIcEE@GOTPCREL(%rip), %rax
	leaq	112(%rbx), %rdi
	addq	$16, %rax
	movq	%rax, 208(%rsp)
	call	_ZNSt8ios_baseD2Ev@PLT
	movq	%rbp, %rdi
	call	_Unwind_Resume@PLT
.LEHE33:
.L376:
	movq	0(%rbp), %rdi
	cmpq	%rdi, 8(%rsp)
	movq	%rax, %r12
	je	.L368
	call	_ZdlPv@PLT
	jmp	.L368
.L404:
	leaq	.LC11(%rip), %rdi
.LEHB34:
	call	_ZSt19__throw_logic_errorPKc@PLT
.L374:
	movq	%rax, %rbp
	jmp	.L338
.L400:
	leaq	.LC11(%rip), %rdi
	call	_ZSt19__throw_logic_errorPKc@PLT
.LEHE34:
	.cfi_endproc
.LFE3587:
	.section	.gcc_except_table
.LLSDA3587:
	.byte	0xff
	.byte	0xff
	.byte	0x1
	.uleb128 .LLSDACSE3587-.LLSDACSB3587
.LLSDACSB3587:
	.uleb128 .LEHB29-.LFB3587
	.uleb128 .LEHE29-.LEHB29
	.uleb128 .L374-.LFB3587
	.uleb128 0
	.uleb128 .LEHB30-.LFB3587
	.uleb128 .LEHE30-.LEHB30
	.uleb128 .L375-.LFB3587
	.uleb128 0
	.uleb128 .LEHB31-.LFB3587
	.uleb128 .LEHE31-.LEHB31
	.uleb128 .L373-.LFB3587
	.uleb128 0
	.uleb128 .LEHB32-.LFB3587
	.uleb128 .LEHE32-.LEHB32
	.uleb128 .L376-.LFB3587
	.uleb128 0
	.uleb128 .LEHB33-.LFB3587
	.uleb128 .LEHE33-.LEHB33
	.uleb128 0
	.uleb128 0
	.uleb128 .LEHB34-.LFB3587
	.uleb128 .LEHE34-.LEHB34
	.uleb128 .L376-.LFB3587
	.uleb128 0
.LLSDACSE3587:
	.text
	.size	_ZN8asiodnp318PrintingSOEHandler13ValueToStringIN8opendnp37CounterEEENSt7__cxx1112basic_stringIcSt11char_traitsIcESaIcEEERKT_.isra.52, .-_ZN8asiodnp318PrintingSOEHandler13ValueToStringIN8opendnp37CounterEEENSt7__cxx1112basic_stringIcSt11char_traitsIcESaIcEEERKT_.isra.52
	.set	_ZN8asiodnp318PrintingSOEHandler13ValueToStringIN8opendnp313FrozenCounterEEENSt7__cxx1112basic_stringIcSt11char_traitsIcESaIcEEERKT_.isra.53,_ZN8asiodnp318PrintingSOEHandler13ValueToStringIN8opendnp37CounterEEENSt7__cxx1112basic_stringIcSt11char_traitsIcESaIcEEERKT_.isra.52
	.section	.text._ZN8opendnp314FunctorVisitorINS_7IndexedINS_13FrozenCounterEEEZN8asiodnp318PrintingSOEHandler8PrintAllIS2_EEvRKNS_10HeaderInfoERKNS_11ICollectionINS1_IT_EEEEEUlRKS3_E_E7OnValueESH_,"axG",@progbits,_ZN8opendnp314FunctorVisitorINS_7IndexedINS_13FrozenCounterEEEZN8asiodnp318PrintingSOEHandler8PrintAllIS2_EEvRKNS_10HeaderInfoERKNS_11ICollectionINS1_IT_EEEEEUlRKS3_E_E7OnValueESH_,comdat
	.align 2
	.p2align 4,,15
	.weak	_ZN8opendnp314FunctorVisitorINS_7IndexedINS_13FrozenCounterEEEZN8asiodnp318PrintingSOEHandler8PrintAllIS2_EEvRKNS_10HeaderInfoERKNS_11ICollectionINS1_IT_EEEEEUlRKS3_E_E7OnValueESH_
	.type	_ZN8opendnp314FunctorVisitorINS_7IndexedINS_13FrozenCounterEEEZN8asiodnp318PrintingSOEHandler8PrintAllIS2_EEvRKNS_10HeaderInfoERKNS_11ICollectionINS1_IT_EEEEEUlRKS3_E_E7OnValueESH_, @function
_ZN8opendnp314FunctorVisitorINS_7IndexedINS_13FrozenCounterEEEZN8asiodnp318PrintingSOEHandler8PrintAllIS2_EEvRKNS_10HeaderInfoERKNS_11ICollectionINS1_IT_EEEEEUlRKS3_E_E7OnValueESH_:
.LFB3519:
	.cfi_startproc
	.cfi_personality 0x9b,DW.ref.__gxx_personality_v0
	.cfi_lsda 0x1b,.LLSDA3519
	pushq	%r12
	.cfi_def_cfa_offset 16
	.cfi_offset 12, -16
	pushq	%rbp
	.cfi_def_cfa_offset 24
	.cfi_offset 6, -24
	movq	%rsi, %rbp
	pushq	%rbx
	.cfi_def_cfa_offset 32
	.cfi_offset 3, -32
	movl	$1, %edx
	subq	$48, %rsp
	.cfi_def_cfa_offset 80
	movzwl	24(%rsi), %ebx
	movq	_ZSt4cout@GOTPCREL(%rip), %r12
	leaq	.LC1(%rip), %rsi
	movq	%fs:40, %rax
	movq	%rax, 40(%rsp)
	xorl	%eax, %eax
	movq	%r12, %rdi
.LEHB35:
	call	_ZSt16__ostream_insertIcSt11char_traitsIcEERSt13basic_ostreamIT_T0_ES6_PKS3_l@PLT
	movzwl	%bx, %esi
	movq	%r12, %rdi
	movq	%rsp, %rbx
	call	_ZNSo9_M_insertImEERSoT_@PLT
	leaq	.LC2(%rip), %rsi
	movl	$4, %edx
	movq	%rax, %rdi
	movq	%rax, %r12
	call	_ZSt16__ostream_insertIcSt11char_traitsIcEERSt13basic_ostreamIT_T0_ES6_PKS3_l@PLT
	leaq	16(%rbp), %rsi
	movq	%rbx, %rdi
	call	_ZN8asiodnp318PrintingSOEHandler13ValueToStringIN8opendnp313FrozenCounterEEENSt7__cxx1112basic_stringIcSt11char_traitsIcESaIcEEERKT_.isra.53
.LEHE35:
	movq	8(%rsp), %rdx
	movq	(%rsp), %rsi
	movq	%r12, %rdi
.LEHB36:
	call	_ZSt16__ostream_insertIcSt11char_traitsIcEERSt13basic_ostreamIT_T0_ES6_PKS3_l@PLT
	leaq	.LC3(%rip), %rsi
	movl	$3, %edx
	movq	%rax, %rdi
	movq	%rax, %r12
	call	_ZSt16__ostream_insertIcSt11char_traitsIcEERSt13basic_ostreamIT_T0_ES6_PKS3_l@PLT
	movzbl	0(%rbp), %esi
	movq	%r12, %rdi
	call	_ZNSolsEi@PLT
	leaq	.LC3(%rip), %rsi
	movl	$3, %edx
	movq	%rax, %rdi
	movq	%rax, %r12
	call	_ZSt16__ostream_insertIcSt11char_traitsIcEERSt13basic_ostreamIT_T0_ES6_PKS3_l@PLT
	movq	8(%rbp), %rsi
	movq	%r12, %rdi
	call	_ZNSo9_M_insertIlEERSoT_@PLT
	movq	%rax, %r12
	movq	(%rax), %rax
	movq	-24(%rax), %rax
	movq	240(%r12,%rax), %rbp
	testq	%rbp, %rbp
	je	.L420
	cmpb	$0, 56(%rbp)
	je	.L411
	movsbl	67(%rbp), %esi
.L412:
	movq	%r12, %rdi
	call	_ZNSo3putEc@PLT
	movq	%rax, %rdi
	call	_ZNSo5flushEv@PLT
	movq	(%rsp), %rdi
	addq	$16, %rbx
	cmpq	%rbx, %rdi
	je	.L409
	call	_ZdlPv@PLT
.L409:
	movq	40(%rsp), %rax
	xorq	%fs:40, %rax
	jne	.L421
	addq	$48, %rsp
	.cfi_remember_state
	.cfi_def_cfa_offset 32
	popq	%rbx
	.cfi_def_cfa_offset 24
	popq	%rbp
	.cfi_def_cfa_offset 16
	popq	%r12
	.cfi_def_cfa_offset 8
	ret
	.p2align 4,,10
	.p2align 3
.L411:
	.cfi_restore_state
	movq	%rbp, %rdi
	call	_ZNKSt5ctypeIcE13_M_widen_initEv@PLT
	movq	0(%rbp), %rax
	movl	$10, %esi
	movq	48(%rax), %rax
	cmpq	_ZNKSt5ctypeIcE8do_widenEc@GOTPCREL(%rip), %rax
	je	.L412
	movq	%rbp, %rdi
	call	*%rax
	movsbl	%al, %esi
	jmp	.L412
.L421:
	call	__stack_chk_fail@PLT
.L420:
	call	_ZSt16__throw_bad_castv@PLT
.LEHE36:
.L418:
	movq	(%rsp), %rdi
	addq	$16, %rbx
	movq	%rax, %rbp
	cmpq	%rbx, %rdi
	je	.L415
	call	_ZdlPv@PLT
.L415:
	movq	%rbp, %rdi
.LEHB37:
	call	_Unwind_Resume@PLT
.LEHE37:
	.cfi_endproc
.LFE3519:
	.section	.gcc_except_table
.LLSDA3519:
	.byte	0xff
	.byte	0xff
	.byte	0x1
	.uleb128 .LLSDACSE3519-.LLSDACSB3519
.LLSDACSB3519:
	.uleb128 .LEHB35-.LFB3519
	.uleb128 .LEHE35-.LEHB35
	.uleb128 0
	.uleb128 0
	.uleb128 .LEHB36-.LFB3519
	.uleb128 .LEHE36-.LEHB36
	.uleb128 .L418-.LFB3519
	.uleb128 0
	.uleb128 .LEHB37-.LFB3519
	.uleb128 .LEHE37-.LEHB37
	.uleb128 0
	.uleb128 0
.LLSDACSE3519:
	.section	.text._ZN8opendnp314FunctorVisitorINS_7IndexedINS_13FrozenCounterEEEZN8asiodnp318PrintingSOEHandler8PrintAllIS2_EEvRKNS_10HeaderInfoERKNS_11ICollectionINS1_IT_EEEEEUlRKS3_E_E7OnValueESH_,"axG",@progbits,_ZN8opendnp314FunctorVisitorINS_7IndexedINS_13FrozenCounterEEEZN8asiodnp318PrintingSOEHandler8PrintAllIS2_EEvRKNS_10HeaderInfoERKNS_11ICollectionINS1_IT_EEEEEUlRKS3_E_E7OnValueESH_,comdat
	.size	_ZN8opendnp314FunctorVisitorINS_7IndexedINS_13FrozenCounterEEEZN8asiodnp318PrintingSOEHandler8PrintAllIS2_EEvRKNS_10HeaderInfoERKNS_11ICollectionINS1_IT_EEEEEUlRKS3_E_E7OnValueESH_, .-_ZN8opendnp314FunctorVisitorINS_7IndexedINS_13FrozenCounterEEEZN8asiodnp318PrintingSOEHandler8PrintAllIS2_EEvRKNS_10HeaderInfoERKNS_11ICollectionINS1_IT_EEEEEUlRKS3_E_E7OnValueESH_
	.section	.text._ZN8opendnp314FunctorVisitorINS_7IndexedINS_7CounterEEEZN8asiodnp318PrintingSOEHandler8PrintAllIS2_EEvRKNS_10HeaderInfoERKNS_11ICollectionINS1_IT_EEEEEUlRKS3_E_E7OnValueESH_,"axG",@progbits,_ZN8opendnp314FunctorVisitorINS_7IndexedINS_7CounterEEEZN8asiodnp318PrintingSOEHandler8PrintAllIS2_EEvRKNS_10HeaderInfoERKNS_11ICollectionINS1_IT_EEEEEUlRKS3_E_E7OnValueESH_,comdat
	.align 2
	.p2align 4,,15
	.weak	_ZN8opendnp314FunctorVisitorINS_7IndexedINS_7CounterEEEZN8asiodnp318PrintingSOEHandler8PrintAllIS2_EEvRKNS_10HeaderInfoERKNS_11ICollectionINS1_IT_EEEEEUlRKS3_E_E7OnValueESH_
	.type	_ZN8opendnp314FunctorVisitorINS_7IndexedINS_7CounterEEEZN8asiodnp318PrintingSOEHandler8PrintAllIS2_EEvRKNS_10HeaderInfoERKNS_11ICollectionINS1_IT_EEEEEUlRKS3_E_E7OnValueESH_, @function
_ZN8opendnp314FunctorVisitorINS_7IndexedINS_7CounterEEEZN8asiodnp318PrintingSOEHandler8PrintAllIS2_EEvRKNS_10HeaderInfoERKNS_11ICollectionINS1_IT_EEEEEUlRKS3_E_E7OnValueESH_:
.LFB3520:
	.cfi_startproc
	.cfi_personality 0x9b,DW.ref.__gxx_personality_v0
	.cfi_lsda 0x1b,.LLSDA3520
	pushq	%r12
	.cfi_def_cfa_offset 16
	.cfi_offset 12, -16
	pushq	%rbp
	.cfi_def_cfa_offset 24
	.cfi_offset 6, -24
	movq	%rsi, %rbp
	pushq	%rbx
	.cfi_def_cfa_offset 32
	.cfi_offset 3, -32
	movl	$1, %edx
	subq	$48, %rsp
	.cfi_def_cfa_offset 80
	movzwl	24(%rsi), %ebx
	movq	_ZSt4cout@GOTPCREL(%rip), %r12
	leaq	.LC1(%rip), %rsi
	movq	%fs:40, %rax
	movq	%rax, 40(%rsp)
	xorl	%eax, %eax
	movq	%r12, %rdi
.LEHB38:
	call	_ZSt16__ostream_insertIcSt11char_traitsIcEERSt13basic_ostreamIT_T0_ES6_PKS3_l@PLT
	movzwl	%bx, %esi
	movq	%r12, %rdi
	movq	%rsp, %rbx
	call	_ZNSo9_M_insertImEERSoT_@PLT
	leaq	.LC2(%rip), %rsi
	movl	$4, %edx
	movq	%rax, %rdi
	movq	%rax, %r12
	call	_ZSt16__ostream_insertIcSt11char_traitsIcEERSt13basic_ostreamIT_T0_ES6_PKS3_l@PLT
	leaq	16(%rbp), %rsi
	movq	%rbx, %rdi
	call	_ZN8asiodnp318PrintingSOEHandler13ValueToStringIN8opendnp37CounterEEENSt7__cxx1112basic_stringIcSt11char_traitsIcESaIcEEERKT_.isra.52
.LEHE38:
	movq	8(%rsp), %rdx
	movq	(%rsp), %rsi
	movq	%r12, %rdi
.LEHB39:
	call	_ZSt16__ostream_insertIcSt11char_traitsIcEERSt13basic_ostreamIT_T0_ES6_PKS3_l@PLT
	leaq	.LC3(%rip), %rsi
	movl	$3, %edx
	movq	%rax, %rdi
	movq	%rax, %r12
	call	_ZSt16__ostream_insertIcSt11char_traitsIcEERSt13basic_ostreamIT_T0_ES6_PKS3_l@PLT
	movzbl	0(%rbp), %esi
	movq	%r12, %rdi
	call	_ZNSolsEi@PLT
	leaq	.LC3(%rip), %rsi
	movl	$3, %edx
	movq	%rax, %rdi
	movq	%rax, %r12
	call	_ZSt16__ostream_insertIcSt11char_traitsIcEERSt13basic_ostreamIT_T0_ES6_PKS3_l@PLT
	movq	8(%rbp), %rsi
	movq	%r12, %rdi
	call	_ZNSo9_M_insertIlEERSoT_@PLT
	movq	%rax, %r12
	movq	(%rax), %rax
	movq	-24(%rax), %rax
	movq	240(%r12,%rax), %rbp
	testq	%rbp, %rbp
	je	.L433
	cmpb	$0, 56(%rbp)
	je	.L424
	movsbl	67(%rbp), %esi
.L425:
	movq	%r12, %rdi
	call	_ZNSo3putEc@PLT
	movq	%rax, %rdi
	call	_ZNSo5flushEv@PLT
	movq	(%rsp), %rdi
	addq	$16, %rbx
	cmpq	%rbx, %rdi
	je	.L422
	call	_ZdlPv@PLT
.L422:
	movq	40(%rsp), %rax
	xorq	%fs:40, %rax
	jne	.L434
	addq	$48, %rsp
	.cfi_remember_state
	.cfi_def_cfa_offset 32
	popq	%rbx
	.cfi_def_cfa_offset 24
	popq	%rbp
	.cfi_def_cfa_offset 16
	popq	%r12
	.cfi_def_cfa_offset 8
	ret
	.p2align 4,,10
	.p2align 3
.L424:
	.cfi_restore_state
	movq	%rbp, %rdi
	call	_ZNKSt5ctypeIcE13_M_widen_initEv@PLT
	movq	0(%rbp), %rax
	movl	$10, %esi
	movq	48(%rax), %rax
	cmpq	_ZNKSt5ctypeIcE8do_widenEc@GOTPCREL(%rip), %rax
	je	.L425
	movq	%rbp, %rdi
	call	*%rax
	movsbl	%al, %esi
	jmp	.L425
.L434:
	call	__stack_chk_fail@PLT
.L433:
	call	_ZSt16__throw_bad_castv@PLT
.LEHE39:
.L431:
	movq	(%rsp), %rdi
	addq	$16, %rbx
	movq	%rax, %rbp
	cmpq	%rbx, %rdi
	je	.L428
	call	_ZdlPv@PLT
.L428:
	movq	%rbp, %rdi
.LEHB40:
	call	_Unwind_Resume@PLT
.LEHE40:
	.cfi_endproc
.LFE3520:
	.section	.gcc_except_table
.LLSDA3520:
	.byte	0xff
	.byte	0xff
	.byte	0x1
	.uleb128 .LLSDACSE3520-.LLSDACSB3520
.LLSDACSB3520:
	.uleb128 .LEHB38-.LFB3520
	.uleb128 .LEHE38-.LEHB38
	.uleb128 0
	.uleb128 0
	.uleb128 .LEHB39-.LFB3520
	.uleb128 .LEHE39-.LEHB39
	.uleb128 .L431-.LFB3520
	.uleb128 0
	.uleb128 .LEHB40-.LFB3520
	.uleb128 .LEHE40-.LEHB40
	.uleb128 0
	.uleb128 0
.LLSDACSE3520:
	.section	.text._ZN8opendnp314FunctorVisitorINS_7IndexedINS_7CounterEEEZN8asiodnp318PrintingSOEHandler8PrintAllIS2_EEvRKNS_10HeaderInfoERKNS_11ICollectionINS1_IT_EEEEEUlRKS3_E_E7OnValueESH_,"axG",@progbits,_ZN8opendnp314FunctorVisitorINS_7IndexedINS_7CounterEEEZN8asiodnp318PrintingSOEHandler8PrintAllIS2_EEvRKNS_10HeaderInfoERKNS_11ICollectionINS1_IT_EEEEEUlRKS3_E_E7OnValueESH_,comdat
	.size	_ZN8opendnp314FunctorVisitorINS_7IndexedINS_7CounterEEEZN8asiodnp318PrintingSOEHandler8PrintAllIS2_EEvRKNS_10HeaderInfoERKNS_11ICollectionINS1_IT_EEEEEUlRKS3_E_E7OnValueESH_, .-_ZN8opendnp314FunctorVisitorINS_7IndexedINS_7CounterEEEZN8asiodnp318PrintingSOEHandler8PrintAllIS2_EEvRKNS_10HeaderInfoERKNS_11ICollectionINS1_IT_EEEEEUlRKS3_E_E7OnValueESH_
	.section	.text._ZNSt7__cxx1115basic_stringbufIcSt11char_traitsIcESaIcEED0Ev,"axG",@progbits,_ZNSt7__cxx1115basic_stringbufIcSt11char_traitsIcESaIcEED5Ev,comdat
	.align 2
	.p2align 4,,15
	.weak	_ZNSt7__cxx1115basic_stringbufIcSt11char_traitsIcESaIcEED0Ev
	.type	_ZNSt7__cxx1115basic_stringbufIcSt11char_traitsIcESaIcEED0Ev, @function
_ZNSt7__cxx1115basic_stringbufIcSt11char_traitsIcESaIcEED0Ev:
.LFB2943:
	.cfi_startproc
	movq	_ZTVNSt7__cxx1115basic_stringbufIcSt11char_traitsIcESaIcEEE@GOTPCREL(%rip), %rax
	pushq	%rbx
	.cfi_def_cfa_offset 16
	.cfi_offset 3, -16
	movq	%rdi, %rbx
	addq	$16, %rax
	movq	%rax, (%rdi)
	movq	72(%rdi), %rdi
	leaq	88(%rbx), %rax
	cmpq	%rax, %rdi
	je	.L436
	call	_ZdlPv@PLT
.L436:
	movq	_ZTVSt15basic_streambufIcSt11char_traitsIcEE@GOTPCREL(%rip), %rax
	leaq	56(%rbx), %rdi
	addq	$16, %rax
	movq	%rax, (%rbx)
	call	_ZNSt6localeD1Ev@PLT
	movq	%rbx, %rdi
	movl	$104, %esi
	popq	%rbx
	.cfi_def_cfa_offset 8
	jmp	_ZdlPvm@PLT
	.cfi_endproc
.LFE2943:
	.size	_ZNSt7__cxx1115basic_stringbufIcSt11char_traitsIcESaIcEED0Ev, .-_ZNSt7__cxx1115basic_stringbufIcSt11char_traitsIcESaIcEED0Ev
	.section	.text.startup,"ax",@progbits
	.p2align 4,,15
	.type	_GLOBAL__sub_I_PrintingSOEHandler.cpp, @function
_GLOBAL__sub_I_PrintingSOEHandler.cpp:
.LFB3534:
	.cfi_startproc
	leaq	_ZStL8__ioinit(%rip), %rdi
	subq	$8, %rsp
	.cfi_def_cfa_offset 16
	call	_ZNSt8ios_base4InitC1Ev@PLT
	movq	_ZNSt8ios_base4InitD1Ev@GOTPCREL(%rip), %rdi
	leaq	__dso_handle(%rip), %rdx
	leaq	_ZStL8__ioinit(%rip), %rsi
	addq	$8, %rsp
	.cfi_def_cfa_offset 8
	jmp	__cxa_atexit@PLT
	.cfi_endproc
.LFE3534:
	.size	_GLOBAL__sub_I_PrintingSOEHandler.cpp, .-_GLOBAL__sub_I_PrintingSOEHandler.cpp
	.section	.init_array,"aw"
	.align 8
	.quad	_GLOBAL__sub_I_PrintingSOEHandler.cpp
	.weak	_ZTSN8opendnp313ITransactableE
	.section	.rodata._ZTSN8opendnp313ITransactableE,"aG",@progbits,_ZTSN8opendnp313ITransactableE,comdat
	.align 16
	.type	_ZTSN8opendnp313ITransactableE, @object
	.size	_ZTSN8opendnp313ITransactableE, 27
_ZTSN8opendnp313ITransactableE:
	.string	"N8opendnp313ITransactableE"
	.weak	_ZTIN8opendnp313ITransactableE
	.section	.data.rel.ro._ZTIN8opendnp313ITransactableE,"awG",@progbits,_ZTIN8opendnp313ITransactableE,comdat
	.align 8
	.type	_ZTIN8opendnp313ITransactableE, @object
	.size	_ZTIN8opendnp313ITransactableE, 16
_ZTIN8opendnp313ITransactableE:
	.quad	_ZTVN10__cxxabiv117__class_type_infoE+16
	.quad	_ZTSN8opendnp313ITransactableE
	.weak	_ZTSN8opendnp311ISOEHandlerE
	.section	.rodata._ZTSN8opendnp311ISOEHandlerE,"aG",@progbits,_ZTSN8opendnp311ISOEHandlerE,comdat
	.align 16
	.type	_ZTSN8opendnp311ISOEHandlerE, @object
	.size	_ZTSN8opendnp311ISOEHandlerE, 25
_ZTSN8opendnp311ISOEHandlerE:
	.string	"N8opendnp311ISOEHandlerE"
	.weak	_ZTIN8opendnp311ISOEHandlerE
	.section	.data.rel.ro._ZTIN8opendnp311ISOEHandlerE,"awG",@progbits,_ZTIN8opendnp311ISOEHandlerE,comdat
	.align 8
	.type	_ZTIN8opendnp311ISOEHandlerE, @object
	.size	_ZTIN8opendnp311ISOEHandlerE, 24
_ZTIN8opendnp311ISOEHandlerE:
	.quad	_ZTVN10__cxxabiv120__si_class_type_infoE+16
	.quad	_ZTSN8opendnp311ISOEHandlerE
	.quad	_ZTIN8opendnp313ITransactableE
	.weak	_ZTSN8asiodnp318PrintingSOEHandlerE
	.section	.rodata._ZTSN8asiodnp318PrintingSOEHandlerE,"aG",@progbits,_ZTSN8asiodnp318PrintingSOEHandlerE,comdat
	.align 32
	.type	_ZTSN8asiodnp318PrintingSOEHandlerE, @object
	.size	_ZTSN8asiodnp318PrintingSOEHandlerE, 32
_ZTSN8asiodnp318PrintingSOEHandlerE:
	.string	"N8asiodnp318PrintingSOEHandlerE"
	.weak	_ZTIN8asiodnp318PrintingSOEHandlerE
	.section	.data.rel.ro._ZTIN8asiodnp318PrintingSOEHandlerE,"awG",@progbits,_ZTIN8asiodnp318PrintingSOEHandlerE,comdat
	.align 8
	.type	_ZTIN8asiodnp318PrintingSOEHandlerE, @object
	.size	_ZTIN8asiodnp318PrintingSOEHandlerE, 24
_ZTIN8asiodnp318PrintingSOEHandlerE:
	.quad	_ZTVN10__cxxabiv120__si_class_type_infoE+16
	.quad	_ZTSN8asiodnp318PrintingSOEHandlerE
	.quad	_ZTIN8opendnp311ISOEHandlerE
	.weak	_ZTSN8opendnp38IVisitorINS_7IndexedINS_11OctetStringEEEEE
	.section	.rodata._ZTSN8opendnp38IVisitorINS_7IndexedINS_11OctetStringEEEEE,"aG",@progbits,_ZTSN8opendnp38IVisitorINS_7IndexedINS_11OctetStringEEEEE,comdat
	.align 32
	.type	_ZTSN8opendnp38IVisitorINS_7IndexedINS_11OctetStringEEEEE, @object
	.size	_ZTSN8opendnp38IVisitorINS_7IndexedINS_11OctetStringEEEEE, 54
_ZTSN8opendnp38IVisitorINS_7IndexedINS_11OctetStringEEEEE:
	.string	"N8opendnp38IVisitorINS_7IndexedINS_11OctetStringEEEEE"
	.weak	_ZTIN8opendnp38IVisitorINS_7IndexedINS_11OctetStringEEEEE
	.section	.data.rel.ro._ZTIN8opendnp38IVisitorINS_7IndexedINS_11OctetStringEEEEE,"awG",@progbits,_ZTIN8opendnp38IVisitorINS_7IndexedINS_11OctetStringEEEEE,comdat
	.align 8
	.type	_ZTIN8opendnp38IVisitorINS_7IndexedINS_11OctetStringEEEEE, @object
	.size	_ZTIN8opendnp38IVisitorINS_7IndexedINS_11OctetStringEEEEE, 16
_ZTIN8opendnp38IVisitorINS_7IndexedINS_11OctetStringEEEEE:
	.quad	_ZTVN10__cxxabiv117__class_type_infoE+16
	.quad	_ZTSN8opendnp38IVisitorINS_7IndexedINS_11OctetStringEEEEE
	.section	.data.rel.ro,"aw",@progbits
	.align 8
	.type	_ZTIN8opendnp314FunctorVisitorINS_7IndexedINS_11OctetStringEEEZN8asiodnp318PrintingSOEHandler7ProcessERKNS_10HeaderInfoERKNS_11ICollectionIS3_EEEUlRKS3_E_EE, @object
	.size	_ZTIN8opendnp314FunctorVisitorINS_7IndexedINS_11OctetStringEEEZN8asiodnp318PrintingSOEHandler7ProcessERKNS_10HeaderInfoERKNS_11ICollectionIS3_EEEUlRKS3_E_EE, 24
_ZTIN8opendnp314FunctorVisitorINS_7IndexedINS_11OctetStringEEEZN8asiodnp318PrintingSOEHandler7ProcessERKNS_10HeaderInfoERKNS_11ICollectionIS3_EEEUlRKS3_E_EE:
	.quad	_ZTVN10__cxxabiv120__si_class_type_infoE+16
	.quad	_ZTSN8opendnp314FunctorVisitorINS_7IndexedINS_11OctetStringEEEZN8asiodnp318PrintingSOEHandler7ProcessERKNS_10HeaderInfoERKNS_11ICollectionIS3_EEEUlRKS3_E_EE
	.quad	_ZTIN8opendnp38IVisitorINS_7IndexedINS_11OctetStringEEEEE
	.section	.rodata
	.align 32
	.type	_ZTSN8opendnp314FunctorVisitorINS_7IndexedINS_11OctetStringEEEZN8asiodnp318PrintingSOEHandler7ProcessERKNS_10HeaderInfoERKNS_11ICollectionIS3_EEEUlRKS3_E_EE, @object
	.size	_ZTSN8opendnp314FunctorVisitorINS_7IndexedINS_11OctetStringEEEZN8asiodnp318PrintingSOEHandler7ProcessERKNS_10HeaderInfoERKNS_11ICollectionIS3_EEEUlRKS3_E_EE, 154
_ZTSN8opendnp314FunctorVisitorINS_7IndexedINS_11OctetStringEEEZN8asiodnp318PrintingSOEHandler7ProcessERKNS_10HeaderInfoERKNS_11ICollectionIS3_EEEUlRKS3_E_EE:
	.string	"*N8opendnp314FunctorVisitorINS_7IndexedINS_11OctetStringEEEZN8asiodnp318PrintingSOEHandler7ProcessERKNS_10HeaderInfoERKNS_11ICollectionIS3_EEEUlRKS3_E_EE"
	.weak	_ZTSN8opendnp38IVisitorINS_7IndexedINS_15TimeAndIntervalEEEEE
	.section	.rodata._ZTSN8opendnp38IVisitorINS_7IndexedINS_15TimeAndIntervalEEEEE,"aG",@progbits,_ZTSN8opendnp38IVisitorINS_7IndexedINS_15TimeAndIntervalEEEEE,comdat
	.align 32
	.type	_ZTSN8opendnp38IVisitorINS_7IndexedINS_15TimeAndIntervalEEEEE, @object
	.size	_ZTSN8opendnp38IVisitorINS_7IndexedINS_15TimeAndIntervalEEEEE, 58
_ZTSN8opendnp38IVisitorINS_7IndexedINS_15TimeAndIntervalEEEEE:
	.string	"N8opendnp38IVisitorINS_7IndexedINS_15TimeAndIntervalEEEEE"
	.weak	_ZTIN8opendnp38IVisitorINS_7IndexedINS_15TimeAndIntervalEEEEE
	.section	.data.rel.ro._ZTIN8opendnp38IVisitorINS_7IndexedINS_15TimeAndIntervalEEEEE,"awG",@progbits,_ZTIN8opendnp38IVisitorINS_7IndexedINS_15TimeAndIntervalEEEEE,comdat
	.align 8
	.type	_ZTIN8opendnp38IVisitorINS_7IndexedINS_15TimeAndIntervalEEEEE, @object
	.size	_ZTIN8opendnp38IVisitorINS_7IndexedINS_15TimeAndIntervalEEEEE, 16
_ZTIN8opendnp38IVisitorINS_7IndexedINS_15TimeAndIntervalEEEEE:
	.quad	_ZTVN10__cxxabiv117__class_type_infoE+16
	.quad	_ZTSN8opendnp38IVisitorINS_7IndexedINS_15TimeAndIntervalEEEEE
	.section	.data.rel.ro
	.align 8
	.type	_ZTIN8opendnp314FunctorVisitorINS_7IndexedINS_15TimeAndIntervalEEEZN8asiodnp318PrintingSOEHandler7ProcessERKNS_10HeaderInfoERKNS_11ICollectionIS3_EEEUlRKS3_E_EE, @object
	.size	_ZTIN8opendnp314FunctorVisitorINS_7IndexedINS_15TimeAndIntervalEEEZN8asiodnp318PrintingSOEHandler7ProcessERKNS_10HeaderInfoERKNS_11ICollectionIS3_EEEUlRKS3_E_EE, 24
_ZTIN8opendnp314FunctorVisitorINS_7IndexedINS_15TimeAndIntervalEEEZN8asiodnp318PrintingSOEHandler7ProcessERKNS_10HeaderInfoERKNS_11ICollectionIS3_EEEUlRKS3_E_EE:
	.quad	_ZTVN10__cxxabiv120__si_class_type_infoE+16
	.quad	_ZTSN8opendnp314FunctorVisitorINS_7IndexedINS_15TimeAndIntervalEEEZN8asiodnp318PrintingSOEHandler7ProcessERKNS_10HeaderInfoERKNS_11ICollectionIS3_EEEUlRKS3_E_EE
	.quad	_ZTIN8opendnp38IVisitorINS_7IndexedINS_15TimeAndIntervalEEEEE
	.section	.rodata
	.align 32
	.type	_ZTSN8opendnp314FunctorVisitorINS_7IndexedINS_15TimeAndIntervalEEEZN8asiodnp318PrintingSOEHandler7ProcessERKNS_10HeaderInfoERKNS_11ICollectionIS3_EEEUlRKS3_E_EE, @object
	.size	_ZTSN8opendnp314FunctorVisitorINS_7IndexedINS_15TimeAndIntervalEEEZN8asiodnp318PrintingSOEHandler7ProcessERKNS_10HeaderInfoERKNS_11ICollectionIS3_EEEUlRKS3_E_EE, 158
_ZTSN8opendnp314FunctorVisitorINS_7IndexedINS_15TimeAndIntervalEEEZN8asiodnp318PrintingSOEHandler7ProcessERKNS_10HeaderInfoERKNS_11ICollectionIS3_EEEUlRKS3_E_EE:
	.string	"*N8opendnp314FunctorVisitorINS_7IndexedINS_15TimeAndIntervalEEEZN8asiodnp318PrintingSOEHandler7ProcessERKNS_10HeaderInfoERKNS_11ICollectionIS3_EEEUlRKS3_E_EE"
	.weak	_ZTSN8opendnp38IVisitorINS_7IndexedINS_18BinaryCommandEventEEEEE
	.section	.rodata._ZTSN8opendnp38IVisitorINS_7IndexedINS_18BinaryCommandEventEEEEE,"aG",@progbits,_ZTSN8opendnp38IVisitorINS_7IndexedINS_18BinaryCommandEventEEEEE,comdat
	.align 32
	.type	_ZTSN8opendnp38IVisitorINS_7IndexedINS_18BinaryCommandEventEEEEE, @object
	.size	_ZTSN8opendnp38IVisitorINS_7IndexedINS_18BinaryCommandEventEEEEE, 61
_ZTSN8opendnp38IVisitorINS_7IndexedINS_18BinaryCommandEventEEEEE:
	.string	"N8opendnp38IVisitorINS_7IndexedINS_18BinaryCommandEventEEEEE"
	.weak	_ZTIN8opendnp38IVisitorINS_7IndexedINS_18BinaryCommandEventEEEEE
	.section	.data.rel.ro._ZTIN8opendnp38IVisitorINS_7IndexedINS_18BinaryCommandEventEEEEE,"awG",@progbits,_ZTIN8opendnp38IVisitorINS_7IndexedINS_18BinaryCommandEventEEEEE,comdat
	.align 8
	.type	_ZTIN8opendnp38IVisitorINS_7IndexedINS_18BinaryCommandEventEEEEE, @object
	.size	_ZTIN8opendnp38IVisitorINS_7IndexedINS_18BinaryCommandEventEEEEE, 16
_ZTIN8opendnp38IVisitorINS_7IndexedINS_18BinaryCommandEventEEEEE:
	.quad	_ZTVN10__cxxabiv117__class_type_infoE+16
	.quad	_ZTSN8opendnp38IVisitorINS_7IndexedINS_18BinaryCommandEventEEEEE
	.section	.data.rel.ro
	.align 8
	.type	_ZTIN8opendnp314FunctorVisitorINS_7IndexedINS_18BinaryCommandEventEEEZN8asiodnp318PrintingSOEHandler7ProcessERKNS_10HeaderInfoERKNS_11ICollectionIS3_EEEUlRKS3_E_EE, @object
	.size	_ZTIN8opendnp314FunctorVisitorINS_7IndexedINS_18BinaryCommandEventEEEZN8asiodnp318PrintingSOEHandler7ProcessERKNS_10HeaderInfoERKNS_11ICollectionIS3_EEEUlRKS3_E_EE, 24
_ZTIN8opendnp314FunctorVisitorINS_7IndexedINS_18BinaryCommandEventEEEZN8asiodnp318PrintingSOEHandler7ProcessERKNS_10HeaderInfoERKNS_11ICollectionIS3_EEEUlRKS3_E_EE:
	.quad	_ZTVN10__cxxabiv120__si_class_type_infoE+16
	.quad	_ZTSN8opendnp314FunctorVisitorINS_7IndexedINS_18BinaryCommandEventEEEZN8asiodnp318PrintingSOEHandler7ProcessERKNS_10HeaderInfoERKNS_11ICollectionIS3_EEEUlRKS3_E_EE
	.quad	_ZTIN8opendnp38IVisitorINS_7IndexedINS_18BinaryCommandEventEEEEE
	.section	.rodata
	.align 32
	.type	_ZTSN8opendnp314FunctorVisitorINS_7IndexedINS_18BinaryCommandEventEEEZN8asiodnp318PrintingSOEHandler7ProcessERKNS_10HeaderInfoERKNS_11ICollectionIS3_EEEUlRKS3_E_EE, @object
	.size	_ZTSN8opendnp314FunctorVisitorINS_7IndexedINS_18BinaryCommandEventEEEZN8asiodnp318PrintingSOEHandler7ProcessERKNS_10HeaderInfoERKNS_11ICollectionIS3_EEEUlRKS3_E_EE, 161
_ZTSN8opendnp314FunctorVisitorINS_7IndexedINS_18BinaryCommandEventEEEZN8asiodnp318PrintingSOEHandler7ProcessERKNS_10HeaderInfoERKNS_11ICollectionIS3_EEEUlRKS3_E_EE:
	.string	"*N8opendnp314FunctorVisitorINS_7IndexedINS_18BinaryCommandEventEEEZN8asiodnp318PrintingSOEHandler7ProcessERKNS_10HeaderInfoERKNS_11ICollectionIS3_EEEUlRKS3_E_EE"
	.weak	_ZTSN8opendnp38IVisitorINS_7IndexedINS_18AnalogCommandEventEEEEE
	.section	.rodata._ZTSN8opendnp38IVisitorINS_7IndexedINS_18AnalogCommandEventEEEEE,"aG",@progbits,_ZTSN8opendnp38IVisitorINS_7IndexedINS_18AnalogCommandEventEEEEE,comdat
	.align 32
	.type	_ZTSN8opendnp38IVisitorINS_7IndexedINS_18AnalogCommandEventEEEEE, @object
	.size	_ZTSN8opendnp38IVisitorINS_7IndexedINS_18AnalogCommandEventEEEEE, 61
_ZTSN8opendnp38IVisitorINS_7IndexedINS_18AnalogCommandEventEEEEE:
	.string	"N8opendnp38IVisitorINS_7IndexedINS_18AnalogCommandEventEEEEE"
	.weak	_ZTIN8opendnp38IVisitorINS_7IndexedINS_18AnalogCommandEventEEEEE
	.section	.data.rel.ro._ZTIN8opendnp38IVisitorINS_7IndexedINS_18AnalogCommandEventEEEEE,"awG",@progbits,_ZTIN8opendnp38IVisitorINS_7IndexedINS_18AnalogCommandEventEEEEE,comdat
	.align 8
	.type	_ZTIN8opendnp38IVisitorINS_7IndexedINS_18AnalogCommandEventEEEEE, @object
	.size	_ZTIN8opendnp38IVisitorINS_7IndexedINS_18AnalogCommandEventEEEEE, 16
_ZTIN8opendnp38IVisitorINS_7IndexedINS_18AnalogCommandEventEEEEE:
	.quad	_ZTVN10__cxxabiv117__class_type_infoE+16
	.quad	_ZTSN8opendnp38IVisitorINS_7IndexedINS_18AnalogCommandEventEEEEE
	.section	.data.rel.ro
	.align 8
	.type	_ZTIN8opendnp314FunctorVisitorINS_7IndexedINS_18AnalogCommandEventEEEZN8asiodnp318PrintingSOEHandler7ProcessERKNS_10HeaderInfoERKNS_11ICollectionIS3_EEEUlRKS3_E_EE, @object
	.size	_ZTIN8opendnp314FunctorVisitorINS_7IndexedINS_18AnalogCommandEventEEEZN8asiodnp318PrintingSOEHandler7ProcessERKNS_10HeaderInfoERKNS_11ICollectionIS3_EEEUlRKS3_E_EE, 24
_ZTIN8opendnp314FunctorVisitorINS_7IndexedINS_18AnalogCommandEventEEEZN8asiodnp318PrintingSOEHandler7ProcessERKNS_10HeaderInfoERKNS_11ICollectionIS3_EEEUlRKS3_E_EE:
	.quad	_ZTVN10__cxxabiv120__si_class_type_infoE+16
	.quad	_ZTSN8opendnp314FunctorVisitorINS_7IndexedINS_18AnalogCommandEventEEEZN8asiodnp318PrintingSOEHandler7ProcessERKNS_10HeaderInfoERKNS_11ICollectionIS3_EEEUlRKS3_E_EE
	.quad	_ZTIN8opendnp38IVisitorINS_7IndexedINS_18AnalogCommandEventEEEEE
	.section	.rodata
	.align 32
	.type	_ZTSN8opendnp314FunctorVisitorINS_7IndexedINS_18AnalogCommandEventEEEZN8asiodnp318PrintingSOEHandler7ProcessERKNS_10HeaderInfoERKNS_11ICollectionIS3_EEEUlRKS3_E_EE, @object
	.size	_ZTSN8opendnp314FunctorVisitorINS_7IndexedINS_18AnalogCommandEventEEEZN8asiodnp318PrintingSOEHandler7ProcessERKNS_10HeaderInfoERKNS_11ICollectionIS3_EEEUlRKS3_E_EE, 161
_ZTSN8opendnp314FunctorVisitorINS_7IndexedINS_18AnalogCommandEventEEEZN8asiodnp318PrintingSOEHandler7ProcessERKNS_10HeaderInfoERKNS_11ICollectionIS3_EEEUlRKS3_E_EE:
	.string	"*N8opendnp314FunctorVisitorINS_7IndexedINS_18AnalogCommandEventEEEZN8asiodnp318PrintingSOEHandler7ProcessERKNS_10HeaderInfoERKNS_11ICollectionIS3_EEEUlRKS3_E_EE"
	.weak	_ZTSN8opendnp38IVisitorINS_7IndexedINS_12SecurityStatEEEEE
	.section	.rodata._ZTSN8opendnp38IVisitorINS_7IndexedINS_12SecurityStatEEEEE,"aG",@progbits,_ZTSN8opendnp38IVisitorINS_7IndexedINS_12SecurityStatEEEEE,comdat
	.align 32
	.type	_ZTSN8opendnp38IVisitorINS_7IndexedINS_12SecurityStatEEEEE, @object
	.size	_ZTSN8opendnp38IVisitorINS_7IndexedINS_12SecurityStatEEEEE, 55
_ZTSN8opendnp38IVisitorINS_7IndexedINS_12SecurityStatEEEEE:
	.string	"N8opendnp38IVisitorINS_7IndexedINS_12SecurityStatEEEEE"
	.weak	_ZTIN8opendnp38IVisitorINS_7IndexedINS_12SecurityStatEEEEE
	.section	.data.rel.ro._ZTIN8opendnp38IVisitorINS_7IndexedINS_12SecurityStatEEEEE,"awG",@progbits,_ZTIN8opendnp38IVisitorINS_7IndexedINS_12SecurityStatEEEEE,comdat
	.align 8
	.type	_ZTIN8opendnp38IVisitorINS_7IndexedINS_12SecurityStatEEEEE, @object
	.size	_ZTIN8opendnp38IVisitorINS_7IndexedINS_12SecurityStatEEEEE, 16
_ZTIN8opendnp38IVisitorINS_7IndexedINS_12SecurityStatEEEEE:
	.quad	_ZTVN10__cxxabiv117__class_type_infoE+16
	.quad	_ZTSN8opendnp38IVisitorINS_7IndexedINS_12SecurityStatEEEEE
	.section	.data.rel.ro
	.align 8
	.type	_ZTIN8opendnp314FunctorVisitorINS_7IndexedINS_12SecurityStatEEEZN8asiodnp318PrintingSOEHandler7ProcessERKNS_10HeaderInfoERKNS_11ICollectionIS3_EEEUlRKS3_E_EE, @object
	.size	_ZTIN8opendnp314FunctorVisitorINS_7IndexedINS_12SecurityStatEEEZN8asiodnp318PrintingSOEHandler7ProcessERKNS_10HeaderInfoERKNS_11ICollectionIS3_EEEUlRKS3_E_EE, 24
_ZTIN8opendnp314FunctorVisitorINS_7IndexedINS_12SecurityStatEEEZN8asiodnp318PrintingSOEHandler7ProcessERKNS_10HeaderInfoERKNS_11ICollectionIS3_EEEUlRKS3_E_EE:
	.quad	_ZTVN10__cxxabiv120__si_class_type_infoE+16
	.quad	_ZTSN8opendnp314FunctorVisitorINS_7IndexedINS_12SecurityStatEEEZN8asiodnp318PrintingSOEHandler7ProcessERKNS_10HeaderInfoERKNS_11ICollectionIS3_EEEUlRKS3_E_EE
	.quad	_ZTIN8opendnp38IVisitorINS_7IndexedINS_12SecurityStatEEEEE
	.section	.rodata
	.align 32
	.type	_ZTSN8opendnp314FunctorVisitorINS_7IndexedINS_12SecurityStatEEEZN8asiodnp318PrintingSOEHandler7ProcessERKNS_10HeaderInfoERKNS_11ICollectionIS3_EEEUlRKS3_E_EE, @object
	.size	_ZTSN8opendnp314FunctorVisitorINS_7IndexedINS_12SecurityStatEEEZN8asiodnp318PrintingSOEHandler7ProcessERKNS_10HeaderInfoERKNS_11ICollectionIS3_EEEUlRKS3_E_EE, 155
_ZTSN8opendnp314FunctorVisitorINS_7IndexedINS_12SecurityStatEEEZN8asiodnp318PrintingSOEHandler7ProcessERKNS_10HeaderInfoERKNS_11ICollectionIS3_EEEUlRKS3_E_EE:
	.string	"*N8opendnp314FunctorVisitorINS_7IndexedINS_12SecurityStatEEEZN8asiodnp318PrintingSOEHandler7ProcessERKNS_10HeaderInfoERKNS_11ICollectionIS3_EEEUlRKS3_E_EE"
	.weak	_ZTSN8opendnp38IVisitorIN7openpal10UInt48TypeEEE
	.section	.rodata._ZTSN8opendnp38IVisitorIN7openpal10UInt48TypeEEE,"aG",@progbits,_ZTSN8opendnp38IVisitorIN7openpal10UInt48TypeEEE,comdat
	.align 32
	.type	_ZTSN8opendnp38IVisitorIN7openpal10UInt48TypeEEE, @object
	.size	_ZTSN8opendnp38IVisitorIN7openpal10UInt48TypeEEE, 45
_ZTSN8opendnp38IVisitorIN7openpal10UInt48TypeEEE:
	.string	"N8opendnp38IVisitorIN7openpal10UInt48TypeEEE"
	.weak	_ZTIN8opendnp38IVisitorIN7openpal10UInt48TypeEEE
	.section	.data.rel.ro._ZTIN8opendnp38IVisitorIN7openpal10UInt48TypeEEE,"awG",@progbits,_ZTIN8opendnp38IVisitorIN7openpal10UInt48TypeEEE,comdat
	.align 8
	.type	_ZTIN8opendnp38IVisitorIN7openpal10UInt48TypeEEE, @object
	.size	_ZTIN8opendnp38IVisitorIN7openpal10UInt48TypeEEE, 16
_ZTIN8opendnp38IVisitorIN7openpal10UInt48TypeEEE:
	.quad	_ZTVN10__cxxabiv117__class_type_infoE+16
	.quad	_ZTSN8opendnp38IVisitorIN7openpal10UInt48TypeEEE
	.section	.data.rel.ro
	.align 8
	.type	_ZTIN8opendnp314FunctorVisitorIN7openpal10UInt48TypeEZN8asiodnp318PrintingSOEHandler7ProcessERKNS_10HeaderInfoERKNS_11ICollectionIS2_EEEUlRKS2_E_EE, @object
	.size	_ZTIN8opendnp314FunctorVisitorIN7openpal10UInt48TypeEZN8asiodnp318PrintingSOEHandler7ProcessERKNS_10HeaderInfoERKNS_11ICollectionIS2_EEEUlRKS2_E_EE, 24
_ZTIN8opendnp314FunctorVisitorIN7openpal10UInt48TypeEZN8asiodnp318PrintingSOEHandler7ProcessERKNS_10HeaderInfoERKNS_11ICollectionIS2_EEEUlRKS2_E_EE:
	.quad	_ZTVN10__cxxabiv120__si_class_type_infoE+16
	.quad	_ZTSN8opendnp314FunctorVisitorIN7openpal10UInt48TypeEZN8asiodnp318PrintingSOEHandler7ProcessERKNS_10HeaderInfoERKNS_11ICollectionIS2_EEEUlRKS2_E_EE
	.quad	_ZTIN8opendnp38IVisitorIN7openpal10UInt48TypeEEE
	.section	.rodata
	.align 32
	.type	_ZTSN8opendnp314FunctorVisitorIN7openpal10UInt48TypeEZN8asiodnp318PrintingSOEHandler7ProcessERKNS_10HeaderInfoERKNS_11ICollectionIS2_EEEUlRKS2_E_EE, @object
	.size	_ZTSN8opendnp314FunctorVisitorIN7openpal10UInt48TypeEZN8asiodnp318PrintingSOEHandler7ProcessERKNS_10HeaderInfoERKNS_11ICollectionIS2_EEEUlRKS2_E_EE, 145
_ZTSN8opendnp314FunctorVisitorIN7openpal10UInt48TypeEZN8asiodnp318PrintingSOEHandler7ProcessERKNS_10HeaderInfoERKNS_11ICollectionIS2_EEEUlRKS2_E_EE:
	.string	"*N8opendnp314FunctorVisitorIN7openpal10UInt48TypeEZN8asiodnp318PrintingSOEHandler7ProcessERKNS_10HeaderInfoERKNS_11ICollectionIS2_EEEUlRKS2_E_EE"
	.weak	_ZTSN8opendnp38IVisitorINS_7IndexedINS_6BinaryEEEEE
	.section	.rodata._ZTSN8opendnp38IVisitorINS_7IndexedINS_6BinaryEEEEE,"aG",@progbits,_ZTSN8opendnp38IVisitorINS_7IndexedINS_6BinaryEEEEE,comdat
	.align 32
	.type	_ZTSN8opendnp38IVisitorINS_7IndexedINS_6BinaryEEEEE, @object
	.size	_ZTSN8opendnp38IVisitorINS_7IndexedINS_6BinaryEEEEE, 48
_ZTSN8opendnp38IVisitorINS_7IndexedINS_6BinaryEEEEE:
	.string	"N8opendnp38IVisitorINS_7IndexedINS_6BinaryEEEEE"
	.weak	_ZTIN8opendnp38IVisitorINS_7IndexedINS_6BinaryEEEEE
	.section	.data.rel.ro._ZTIN8opendnp38IVisitorINS_7IndexedINS_6BinaryEEEEE,"awG",@progbits,_ZTIN8opendnp38IVisitorINS_7IndexedINS_6BinaryEEEEE,comdat
	.align 8
	.type	_ZTIN8opendnp38IVisitorINS_7IndexedINS_6BinaryEEEEE, @object
	.size	_ZTIN8opendnp38IVisitorINS_7IndexedINS_6BinaryEEEEE, 16
_ZTIN8opendnp38IVisitorINS_7IndexedINS_6BinaryEEEEE:
	.quad	_ZTVN10__cxxabiv117__class_type_infoE+16
	.quad	_ZTSN8opendnp38IVisitorINS_7IndexedINS_6BinaryEEEEE
	.weak	_ZTSN8opendnp314FunctorVisitorINS_7IndexedINS_6BinaryEEEZN8asiodnp318PrintingSOEHandler8PrintAllIS2_EEvRKNS_10HeaderInfoERKNS_11ICollectionINS1_IT_EEEEEUlRKS3_E_EE
	.section	.rodata._ZTSN8opendnp314FunctorVisitorINS_7IndexedINS_6BinaryEEEZN8asiodnp318PrintingSOEHandler8PrintAllIS2_EEvRKNS_10HeaderInfoERKNS_11ICollectionINS1_IT_EEEEEUlRKS3_E_EE,"aG",@progbits,_ZTSN8opendnp314FunctorVisitorINS_7IndexedINS_6BinaryEEEZN8asiodnp318PrintingSOEHandler8PrintAllIS2_EEvRKNS_10HeaderInfoERKNS_11ICollectionINS1_IT_EEEEEUlRKS3_E_EE,comdat
	.align 32
	.type	_ZTSN8opendnp314FunctorVisitorINS_7IndexedINS_6BinaryEEEZN8asiodnp318PrintingSOEHandler8PrintAllIS2_EEvRKNS_10HeaderInfoERKNS_11ICollectionINS1_IT_EEEEEUlRKS3_E_EE, @object
	.size	_ZTSN8opendnp314FunctorVisitorINS_7IndexedINS_6BinaryEEEZN8asiodnp318PrintingSOEHandler8PrintAllIS2_EEvRKNS_10HeaderInfoERKNS_11ICollectionINS1_IT_EEEEEUlRKS3_E_EE, 160
_ZTSN8opendnp314FunctorVisitorINS_7IndexedINS_6BinaryEEEZN8asiodnp318PrintingSOEHandler8PrintAllIS2_EEvRKNS_10HeaderInfoERKNS_11ICollectionINS1_IT_EEEEEUlRKS3_E_EE:
	.string	"N8opendnp314FunctorVisitorINS_7IndexedINS_6BinaryEEEZN8asiodnp318PrintingSOEHandler8PrintAllIS2_EEvRKNS_10HeaderInfoERKNS_11ICollectionINS1_IT_EEEEEUlRKS3_E_EE"
	.weak	_ZTIN8opendnp314FunctorVisitorINS_7IndexedINS_6BinaryEEEZN8asiodnp318PrintingSOEHandler8PrintAllIS2_EEvRKNS_10HeaderInfoERKNS_11ICollectionINS1_IT_EEEEEUlRKS3_E_EE
	.section	.data.rel.ro._ZTIN8opendnp314FunctorVisitorINS_7IndexedINS_6BinaryEEEZN8asiodnp318PrintingSOEHandler8PrintAllIS2_EEvRKNS_10HeaderInfoERKNS_11ICollectionINS1_IT_EEEEEUlRKS3_E_EE,"awG",@progbits,_ZTIN8opendnp314FunctorVisitorINS_7IndexedINS_6BinaryEEEZN8asiodnp318PrintingSOEHandler8PrintAllIS2_EEvRKNS_10HeaderInfoERKNS_11ICollectionINS1_IT_EEEEEUlRKS3_E_EE,comdat
	.align 8
	.type	_ZTIN8opendnp314FunctorVisitorINS_7IndexedINS_6BinaryEEEZN8asiodnp318PrintingSOEHandler8PrintAllIS2_EEvRKNS_10HeaderInfoERKNS_11ICollectionINS1_IT_EEEEEUlRKS3_E_EE, @object
	.size	_ZTIN8opendnp314FunctorVisitorINS_7IndexedINS_6BinaryEEEZN8asiodnp318PrintingSOEHandler8PrintAllIS2_EEvRKNS_10HeaderInfoERKNS_11ICollectionINS1_IT_EEEEEUlRKS3_E_EE, 24
_ZTIN8opendnp314FunctorVisitorINS_7IndexedINS_6BinaryEEEZN8asiodnp318PrintingSOEHandler8PrintAllIS2_EEvRKNS_10HeaderInfoERKNS_11ICollectionINS1_IT_EEEEEUlRKS3_E_EE:
	.quad	_ZTVN10__cxxabiv120__si_class_type_infoE+16
	.quad	_ZTSN8opendnp314FunctorVisitorINS_7IndexedINS_6BinaryEEEZN8asiodnp318PrintingSOEHandler8PrintAllIS2_EEvRKNS_10HeaderInfoERKNS_11ICollectionINS1_IT_EEEEEUlRKS3_E_EE
	.quad	_ZTIN8opendnp38IVisitorINS_7IndexedINS_6BinaryEEEEE
	.weak	_ZTSN8opendnp38IVisitorINS_7IndexedINS_15DoubleBitBinaryEEEEE
	.section	.rodata._ZTSN8opendnp38IVisitorINS_7IndexedINS_15DoubleBitBinaryEEEEE,"aG",@progbits,_ZTSN8opendnp38IVisitorINS_7IndexedINS_15DoubleBitBinaryEEEEE,comdat
	.align 32
	.type	_ZTSN8opendnp38IVisitorINS_7IndexedINS_15DoubleBitBinaryEEEEE, @object
	.size	_ZTSN8opendnp38IVisitorINS_7IndexedINS_15DoubleBitBinaryEEEEE, 58
_ZTSN8opendnp38IVisitorINS_7IndexedINS_15DoubleBitBinaryEEEEE:
	.string	"N8opendnp38IVisitorINS_7IndexedINS_15DoubleBitBinaryEEEEE"
	.weak	_ZTIN8opendnp38IVisitorINS_7IndexedINS_15DoubleBitBinaryEEEEE
	.section	.data.rel.ro._ZTIN8opendnp38IVisitorINS_7IndexedINS_15DoubleBitBinaryEEEEE,"awG",@progbits,_ZTIN8opendnp38IVisitorINS_7IndexedINS_15DoubleBitBinaryEEEEE,comdat
	.align 8
	.type	_ZTIN8opendnp38IVisitorINS_7IndexedINS_15DoubleBitBinaryEEEEE, @object
	.size	_ZTIN8opendnp38IVisitorINS_7IndexedINS_15DoubleBitBinaryEEEEE, 16
_ZTIN8opendnp38IVisitorINS_7IndexedINS_15DoubleBitBinaryEEEEE:
	.quad	_ZTVN10__cxxabiv117__class_type_infoE+16
	.quad	_ZTSN8opendnp38IVisitorINS_7IndexedINS_15DoubleBitBinaryEEEEE
	.weak	_ZTSN8opendnp314FunctorVisitorINS_7IndexedINS_15DoubleBitBinaryEEEZN8asiodnp318PrintingSOEHandler8PrintAllIS2_EEvRKNS_10HeaderInfoERKNS_11ICollectionINS1_IT_EEEEEUlRKS3_E_EE
	.section	.rodata._ZTSN8opendnp314FunctorVisitorINS_7IndexedINS_15DoubleBitBinaryEEEZN8asiodnp318PrintingSOEHandler8PrintAllIS2_EEvRKNS_10HeaderInfoERKNS_11ICollectionINS1_IT_EEEEEUlRKS3_E_EE,"aG",@progbits,_ZTSN8opendnp314FunctorVisitorINS_7IndexedINS_15DoubleBitBinaryEEEZN8asiodnp318PrintingSOEHandler8PrintAllIS2_EEvRKNS_10HeaderInfoERKNS_11ICollectionINS1_IT_EEEEEUlRKS3_E_EE,comdat
	.align 32
	.type	_ZTSN8opendnp314FunctorVisitorINS_7IndexedINS_15DoubleBitBinaryEEEZN8asiodnp318PrintingSOEHandler8PrintAllIS2_EEvRKNS_10HeaderInfoERKNS_11ICollectionINS1_IT_EEEEEUlRKS3_E_EE, @object
	.size	_ZTSN8opendnp314FunctorVisitorINS_7IndexedINS_15DoubleBitBinaryEEEZN8asiodnp318PrintingSOEHandler8PrintAllIS2_EEvRKNS_10HeaderInfoERKNS_11ICollectionINS1_IT_EEEEEUlRKS3_E_EE, 170
_ZTSN8opendnp314FunctorVisitorINS_7IndexedINS_15DoubleBitBinaryEEEZN8asiodnp318PrintingSOEHandler8PrintAllIS2_EEvRKNS_10HeaderInfoERKNS_11ICollectionINS1_IT_EEEEEUlRKS3_E_EE:
	.string	"N8opendnp314FunctorVisitorINS_7IndexedINS_15DoubleBitBinaryEEEZN8asiodnp318PrintingSOEHandler8PrintAllIS2_EEvRKNS_10HeaderInfoERKNS_11ICollectionINS1_IT_EEEEEUlRKS3_E_EE"
	.weak	_ZTIN8opendnp314FunctorVisitorINS_7IndexedINS_15DoubleBitBinaryEEEZN8asiodnp318PrintingSOEHandler8PrintAllIS2_EEvRKNS_10HeaderInfoERKNS_11ICollectionINS1_IT_EEEEEUlRKS3_E_EE
	.section	.data.rel.ro._ZTIN8opendnp314FunctorVisitorINS_7IndexedINS_15DoubleBitBinaryEEEZN8asiodnp318PrintingSOEHandler8PrintAllIS2_EEvRKNS_10HeaderInfoERKNS_11ICollectionINS1_IT_EEEEEUlRKS3_E_EE,"awG",@progbits,_ZTIN8opendnp314FunctorVisitorINS_7IndexedINS_15DoubleBitBinaryEEEZN8asiodnp318PrintingSOEHandler8PrintAllIS2_EEvRKNS_10HeaderInfoERKNS_11ICollectionINS1_IT_EEEEEUlRKS3_E_EE,comdat
	.align 8
	.type	_ZTIN8opendnp314FunctorVisitorINS_7IndexedINS_15DoubleBitBinaryEEEZN8asiodnp318PrintingSOEHandler8PrintAllIS2_EEvRKNS_10HeaderInfoERKNS_11ICollectionINS1_IT_EEEEEUlRKS3_E_EE, @object
	.size	_ZTIN8opendnp314FunctorVisitorINS_7IndexedINS_15DoubleBitBinaryEEEZN8asiodnp318PrintingSOEHandler8PrintAllIS2_EEvRKNS_10HeaderInfoERKNS_11ICollectionINS1_IT_EEEEEUlRKS3_E_EE, 24
_ZTIN8opendnp314FunctorVisitorINS_7IndexedINS_15DoubleBitBinaryEEEZN8asiodnp318PrintingSOEHandler8PrintAllIS2_EEvRKNS_10HeaderInfoERKNS_11ICollectionINS1_IT_EEEEEUlRKS3_E_EE:
	.quad	_ZTVN10__cxxabiv120__si_class_type_infoE+16
	.quad	_ZTSN8opendnp314FunctorVisitorINS_7IndexedINS_15DoubleBitBinaryEEEZN8asiodnp318PrintingSOEHandler8PrintAllIS2_EEvRKNS_10HeaderInfoERKNS_11ICollectionINS1_IT_EEEEEUlRKS3_E_EE
	.quad	_ZTIN8opendnp38IVisitorINS_7IndexedINS_15DoubleBitBinaryEEEEE
	.weak	_ZTSN8opendnp38IVisitorINS_7IndexedINS_6AnalogEEEEE
	.section	.rodata._ZTSN8opendnp38IVisitorINS_7IndexedINS_6AnalogEEEEE,"aG",@progbits,_ZTSN8opendnp38IVisitorINS_7IndexedINS_6AnalogEEEEE,comdat
	.align 32
	.type	_ZTSN8opendnp38IVisitorINS_7IndexedINS_6AnalogEEEEE, @object
	.size	_ZTSN8opendnp38IVisitorINS_7IndexedINS_6AnalogEEEEE, 48
_ZTSN8opendnp38IVisitorINS_7IndexedINS_6AnalogEEEEE:
	.string	"N8opendnp38IVisitorINS_7IndexedINS_6AnalogEEEEE"
	.weak	_ZTIN8opendnp38IVisitorINS_7IndexedINS_6AnalogEEEEE
	.section	.data.rel.ro._ZTIN8opendnp38IVisitorINS_7IndexedINS_6AnalogEEEEE,"awG",@progbits,_ZTIN8opendnp38IVisitorINS_7IndexedINS_6AnalogEEEEE,comdat
	.align 8
	.type	_ZTIN8opendnp38IVisitorINS_7IndexedINS_6AnalogEEEEE, @object
	.size	_ZTIN8opendnp38IVisitorINS_7IndexedINS_6AnalogEEEEE, 16
_ZTIN8opendnp38IVisitorINS_7IndexedINS_6AnalogEEEEE:
	.quad	_ZTVN10__cxxabiv117__class_type_infoE+16
	.quad	_ZTSN8opendnp38IVisitorINS_7IndexedINS_6AnalogEEEEE
	.weak	_ZTSN8opendnp314FunctorVisitorINS_7IndexedINS_6AnalogEEEZN8asiodnp318PrintingSOEHandler8PrintAllIS2_EEvRKNS_10HeaderInfoERKNS_11ICollectionINS1_IT_EEEEEUlRKS3_E_EE
	.section	.rodata._ZTSN8opendnp314FunctorVisitorINS_7IndexedINS_6AnalogEEEZN8asiodnp318PrintingSOEHandler8PrintAllIS2_EEvRKNS_10HeaderInfoERKNS_11ICollectionINS1_IT_EEEEEUlRKS3_E_EE,"aG",@progbits,_ZTSN8opendnp314FunctorVisitorINS_7IndexedINS_6AnalogEEEZN8asiodnp318PrintingSOEHandler8PrintAllIS2_EEvRKNS_10HeaderInfoERKNS_11ICollectionINS1_IT_EEEEEUlRKS3_E_EE,comdat
	.align 32
	.type	_ZTSN8opendnp314FunctorVisitorINS_7IndexedINS_6AnalogEEEZN8asiodnp318PrintingSOEHandler8PrintAllIS2_EEvRKNS_10HeaderInfoERKNS_11ICollectionINS1_IT_EEEEEUlRKS3_E_EE, @object
	.size	_ZTSN8opendnp314FunctorVisitorINS_7IndexedINS_6AnalogEEEZN8asiodnp318PrintingSOEHandler8PrintAllIS2_EEvRKNS_10HeaderInfoERKNS_11ICollectionINS1_IT_EEEEEUlRKS3_E_EE, 160
_ZTSN8opendnp314FunctorVisitorINS_7IndexedINS_6AnalogEEEZN8asiodnp318PrintingSOEHandler8PrintAllIS2_EEvRKNS_10HeaderInfoERKNS_11ICollectionINS1_IT_EEEEEUlRKS3_E_EE:
	.string	"N8opendnp314FunctorVisitorINS_7IndexedINS_6AnalogEEEZN8asiodnp318PrintingSOEHandler8PrintAllIS2_EEvRKNS_10HeaderInfoERKNS_11ICollectionINS1_IT_EEEEEUlRKS3_E_EE"
	.weak	_ZTIN8opendnp314FunctorVisitorINS_7IndexedINS_6AnalogEEEZN8asiodnp318PrintingSOEHandler8PrintAllIS2_EEvRKNS_10HeaderInfoERKNS_11ICollectionINS1_IT_EEEEEUlRKS3_E_EE
	.section	.data.rel.ro._ZTIN8opendnp314FunctorVisitorINS_7IndexedINS_6AnalogEEEZN8asiodnp318PrintingSOEHandler8PrintAllIS2_EEvRKNS_10HeaderInfoERKNS_11ICollectionINS1_IT_EEEEEUlRKS3_E_EE,"awG",@progbits,_ZTIN8opendnp314FunctorVisitorINS_7IndexedINS_6AnalogEEEZN8asiodnp318PrintingSOEHandler8PrintAllIS2_EEvRKNS_10HeaderInfoERKNS_11ICollectionINS1_IT_EEEEEUlRKS3_E_EE,comdat
	.align 8
	.type	_ZTIN8opendnp314FunctorVisitorINS_7IndexedINS_6AnalogEEEZN8asiodnp318PrintingSOEHandler8PrintAllIS2_EEvRKNS_10HeaderInfoERKNS_11ICollectionINS1_IT_EEEEEUlRKS3_E_EE, @object
	.size	_ZTIN8opendnp314FunctorVisitorINS_7IndexedINS_6AnalogEEEZN8asiodnp318PrintingSOEHandler8PrintAllIS2_EEvRKNS_10HeaderInfoERKNS_11ICollectionINS1_IT_EEEEEUlRKS3_E_EE, 24
_ZTIN8opendnp314FunctorVisitorINS_7IndexedINS_6AnalogEEEZN8asiodnp318PrintingSOEHandler8PrintAllIS2_EEvRKNS_10HeaderInfoERKNS_11ICollectionINS1_IT_EEEEEUlRKS3_E_EE:
	.quad	_ZTVN10__cxxabiv120__si_class_type_infoE+16
	.quad	_ZTSN8opendnp314FunctorVisitorINS_7IndexedINS_6AnalogEEEZN8asiodnp318PrintingSOEHandler8PrintAllIS2_EEvRKNS_10HeaderInfoERKNS_11ICollectionINS1_IT_EEEEEUlRKS3_E_EE
	.quad	_ZTIN8opendnp38IVisitorINS_7IndexedINS_6AnalogEEEEE
	.weak	_ZTSN8opendnp38IVisitorINS_7IndexedINS_7CounterEEEEE
	.section	.rodata._ZTSN8opendnp38IVisitorINS_7IndexedINS_7CounterEEEEE,"aG",@progbits,_ZTSN8opendnp38IVisitorINS_7IndexedINS_7CounterEEEEE,comdat
	.align 32
	.type	_ZTSN8opendnp38IVisitorINS_7IndexedINS_7CounterEEEEE, @object
	.size	_ZTSN8opendnp38IVisitorINS_7IndexedINS_7CounterEEEEE, 49
_ZTSN8opendnp38IVisitorINS_7IndexedINS_7CounterEEEEE:
	.string	"N8opendnp38IVisitorINS_7IndexedINS_7CounterEEEEE"
	.weak	_ZTIN8opendnp38IVisitorINS_7IndexedINS_7CounterEEEEE
	.section	.data.rel.ro._ZTIN8opendnp38IVisitorINS_7IndexedINS_7CounterEEEEE,"awG",@progbits,_ZTIN8opendnp38IVisitorINS_7IndexedINS_7CounterEEEEE,comdat
	.align 8
	.type	_ZTIN8opendnp38IVisitorINS_7IndexedINS_7CounterEEEEE, @object
	.size	_ZTIN8opendnp38IVisitorINS_7IndexedINS_7CounterEEEEE, 16
_ZTIN8opendnp38IVisitorINS_7IndexedINS_7CounterEEEEE:
	.quad	_ZTVN10__cxxabiv117__class_type_infoE+16
	.quad	_ZTSN8opendnp38IVisitorINS_7IndexedINS_7CounterEEEEE
	.weak	_ZTSN8opendnp314FunctorVisitorINS_7IndexedINS_7CounterEEEZN8asiodnp318PrintingSOEHandler8PrintAllIS2_EEvRKNS_10HeaderInfoERKNS_11ICollectionINS1_IT_EEEEEUlRKS3_E_EE
	.section	.rodata._ZTSN8opendnp314FunctorVisitorINS_7IndexedINS_7CounterEEEZN8asiodnp318PrintingSOEHandler8PrintAllIS2_EEvRKNS_10HeaderInfoERKNS_11ICollectionINS1_IT_EEEEEUlRKS3_E_EE,"aG",@progbits,_ZTSN8opendnp314FunctorVisitorINS_7IndexedINS_7CounterEEEZN8asiodnp318PrintingSOEHandler8PrintAllIS2_EEvRKNS_10HeaderInfoERKNS_11ICollectionINS1_IT_EEEEEUlRKS3_E_EE,comdat
	.align 32
	.type	_ZTSN8opendnp314FunctorVisitorINS_7IndexedINS_7CounterEEEZN8asiodnp318PrintingSOEHandler8PrintAllIS2_EEvRKNS_10HeaderInfoERKNS_11ICollectionINS1_IT_EEEEEUlRKS3_E_EE, @object
	.size	_ZTSN8opendnp314FunctorVisitorINS_7IndexedINS_7CounterEEEZN8asiodnp318PrintingSOEHandler8PrintAllIS2_EEvRKNS_10HeaderInfoERKNS_11ICollectionINS1_IT_EEEEEUlRKS3_E_EE, 161
_ZTSN8opendnp314FunctorVisitorINS_7IndexedINS_7CounterEEEZN8asiodnp318PrintingSOEHandler8PrintAllIS2_EEvRKNS_10HeaderInfoERKNS_11ICollectionINS1_IT_EEEEEUlRKS3_E_EE:
	.string	"N8opendnp314FunctorVisitorINS_7IndexedINS_7CounterEEEZN8asiodnp318PrintingSOEHandler8PrintAllIS2_EEvRKNS_10HeaderInfoERKNS_11ICollectionINS1_IT_EEEEEUlRKS3_E_EE"
	.weak	_ZTIN8opendnp314FunctorVisitorINS_7IndexedINS_7CounterEEEZN8asiodnp318PrintingSOEHandler8PrintAllIS2_EEvRKNS_10HeaderInfoERKNS_11ICollectionINS1_IT_EEEEEUlRKS3_E_EE
	.section	.data.rel.ro._ZTIN8opendnp314FunctorVisitorINS_7IndexedINS_7CounterEEEZN8asiodnp318PrintingSOEHandler8PrintAllIS2_EEvRKNS_10HeaderInfoERKNS_11ICollectionINS1_IT_EEEEEUlRKS3_E_EE,"awG",@progbits,_ZTIN8opendnp314FunctorVisitorINS_7IndexedINS_7CounterEEEZN8asiodnp318PrintingSOEHandler8PrintAllIS2_EEvRKNS_10HeaderInfoERKNS_11ICollectionINS1_IT_EEEEEUlRKS3_E_EE,comdat
	.align 8
	.type	_ZTIN8opendnp314FunctorVisitorINS_7IndexedINS_7CounterEEEZN8asiodnp318PrintingSOEHandler8PrintAllIS2_EEvRKNS_10HeaderInfoERKNS_11ICollectionINS1_IT_EEEEEUlRKS3_E_EE, @object
	.size	_ZTIN8opendnp314FunctorVisitorINS_7IndexedINS_7CounterEEEZN8asiodnp318PrintingSOEHandler8PrintAllIS2_EEvRKNS_10HeaderInfoERKNS_11ICollectionINS1_IT_EEEEEUlRKS3_E_EE, 24
_ZTIN8opendnp314FunctorVisitorINS_7IndexedINS_7CounterEEEZN8asiodnp318PrintingSOEHandler8PrintAllIS2_EEvRKNS_10HeaderInfoERKNS_11ICollectionINS1_IT_EEEEEUlRKS3_E_EE:
	.quad	_ZTVN10__cxxabiv120__si_class_type_infoE+16
	.quad	_ZTSN8opendnp314FunctorVisitorINS_7IndexedINS_7CounterEEEZN8asiodnp318PrintingSOEHandler8PrintAllIS2_EEvRKNS_10HeaderInfoERKNS_11ICollectionINS1_IT_EEEEEUlRKS3_E_EE
	.quad	_ZTIN8opendnp38IVisitorINS_7IndexedINS_7CounterEEEEE
	.weak	_ZTSN8opendnp38IVisitorINS_7IndexedINS_13FrozenCounterEEEEE
	.section	.rodata._ZTSN8opendnp38IVisitorINS_7IndexedINS_13FrozenCounterEEEEE,"aG",@progbits,_ZTSN8opendnp38IVisitorINS_7IndexedINS_13FrozenCounterEEEEE,comdat
	.align 32
	.type	_ZTSN8opendnp38IVisitorINS_7IndexedINS_13FrozenCounterEEEEE, @object
	.size	_ZTSN8opendnp38IVisitorINS_7IndexedINS_13FrozenCounterEEEEE, 56
_ZTSN8opendnp38IVisitorINS_7IndexedINS_13FrozenCounterEEEEE:
	.string	"N8opendnp38IVisitorINS_7IndexedINS_13FrozenCounterEEEEE"
	.weak	_ZTIN8opendnp38IVisitorINS_7IndexedINS_13FrozenCounterEEEEE
	.section	.data.rel.ro._ZTIN8opendnp38IVisitorINS_7IndexedINS_13FrozenCounterEEEEE,"awG",@progbits,_ZTIN8opendnp38IVisitorINS_7IndexedINS_13FrozenCounterEEEEE,comdat
	.align 8
	.type	_ZTIN8opendnp38IVisitorINS_7IndexedINS_13FrozenCounterEEEEE, @object
	.size	_ZTIN8opendnp38IVisitorINS_7IndexedINS_13FrozenCounterEEEEE, 16
_ZTIN8opendnp38IVisitorINS_7IndexedINS_13FrozenCounterEEEEE:
	.quad	_ZTVN10__cxxabiv117__class_type_infoE+16
	.quad	_ZTSN8opendnp38IVisitorINS_7IndexedINS_13FrozenCounterEEEEE
	.weak	_ZTSN8opendnp314FunctorVisitorINS_7IndexedINS_13FrozenCounterEEEZN8asiodnp318PrintingSOEHandler8PrintAllIS2_EEvRKNS_10HeaderInfoERKNS_11ICollectionINS1_IT_EEEEEUlRKS3_E_EE
	.section	.rodata._ZTSN8opendnp314FunctorVisitorINS_7IndexedINS_13FrozenCounterEEEZN8asiodnp318PrintingSOEHandler8PrintAllIS2_EEvRKNS_10HeaderInfoERKNS_11ICollectionINS1_IT_EEEEEUlRKS3_E_EE,"aG",@progbits,_ZTSN8opendnp314FunctorVisitorINS_7IndexedINS_13FrozenCounterEEEZN8asiodnp318PrintingSOEHandler8PrintAllIS2_EEvRKNS_10HeaderInfoERKNS_11ICollectionINS1_IT_EEEEEUlRKS3_E_EE,comdat
	.align 32
	.type	_ZTSN8opendnp314FunctorVisitorINS_7IndexedINS_13FrozenCounterEEEZN8asiodnp318PrintingSOEHandler8PrintAllIS2_EEvRKNS_10HeaderInfoERKNS_11ICollectionINS1_IT_EEEEEUlRKS3_E_EE, @object
	.size	_ZTSN8opendnp314FunctorVisitorINS_7IndexedINS_13FrozenCounterEEEZN8asiodnp318PrintingSOEHandler8PrintAllIS2_EEvRKNS_10HeaderInfoERKNS_11ICollectionINS1_IT_EEEEEUlRKS3_E_EE, 168
_ZTSN8opendnp314FunctorVisitorINS_7IndexedINS_13FrozenCounterEEEZN8asiodnp318PrintingSOEHandler8PrintAllIS2_EEvRKNS_10HeaderInfoERKNS_11ICollectionINS1_IT_EEEEEUlRKS3_E_EE:
	.string	"N8opendnp314FunctorVisitorINS_7IndexedINS_13FrozenCounterEEEZN8asiodnp318PrintingSOEHandler8PrintAllIS2_EEvRKNS_10HeaderInfoERKNS_11ICollectionINS1_IT_EEEEEUlRKS3_E_EE"
	.weak	_ZTIN8opendnp314FunctorVisitorINS_7IndexedINS_13FrozenCounterEEEZN8asiodnp318PrintingSOEHandler8PrintAllIS2_EEvRKNS_10HeaderInfoERKNS_11ICollectionINS1_IT_EEEEEUlRKS3_E_EE
	.section	.data.rel.ro._ZTIN8opendnp314FunctorVisitorINS_7IndexedINS_13FrozenCounterEEEZN8asiodnp318PrintingSOEHandler8PrintAllIS2_EEvRKNS_10HeaderInfoERKNS_11ICollectionINS1_IT_EEEEEUlRKS3_E_EE,"awG",@progbits,_ZTIN8opendnp314FunctorVisitorINS_7IndexedINS_13FrozenCounterEEEZN8asiodnp318PrintingSOEHandler8PrintAllIS2_EEvRKNS_10HeaderInfoERKNS_11ICollectionINS1_IT_EEEEEUlRKS3_E_EE,comdat
	.align 8
	.type	_ZTIN8opendnp314FunctorVisitorINS_7IndexedINS_13FrozenCounterEEEZN8asiodnp318PrintingSOEHandler8PrintAllIS2_EEvRKNS_10HeaderInfoERKNS_11ICollectionINS1_IT_EEEEEUlRKS3_E_EE, @object
	.size	_ZTIN8opendnp314FunctorVisitorINS_7IndexedINS_13FrozenCounterEEEZN8asiodnp318PrintingSOEHandler8PrintAllIS2_EEvRKNS_10HeaderInfoERKNS_11ICollectionINS1_IT_EEEEEUlRKS3_E_EE, 24
_ZTIN8opendnp314FunctorVisitorINS_7IndexedINS_13FrozenCounterEEEZN8asiodnp318PrintingSOEHandler8PrintAllIS2_EEvRKNS_10HeaderInfoERKNS_11ICollectionINS1_IT_EEEEEUlRKS3_E_EE:
	.quad	_ZTVN10__cxxabiv120__si_class_type_infoE+16
	.quad	_ZTSN8opendnp314FunctorVisitorINS_7IndexedINS_13FrozenCounterEEEZN8asiodnp318PrintingSOEHandler8PrintAllIS2_EEvRKNS_10HeaderInfoERKNS_11ICollectionINS1_IT_EEEEEUlRKS3_E_EE
	.quad	_ZTIN8opendnp38IVisitorINS_7IndexedINS_13FrozenCounterEEEEE
	.weak	_ZTSN8opendnp38IVisitorINS_7IndexedINS_18BinaryOutputStatusEEEEE
	.section	.rodata._ZTSN8opendnp38IVisitorINS_7IndexedINS_18BinaryOutputStatusEEEEE,"aG",@progbits,_ZTSN8opendnp38IVisitorINS_7IndexedINS_18BinaryOutputStatusEEEEE,comdat
	.align 32
	.type	_ZTSN8opendnp38IVisitorINS_7IndexedINS_18BinaryOutputStatusEEEEE, @object
	.size	_ZTSN8opendnp38IVisitorINS_7IndexedINS_18BinaryOutputStatusEEEEE, 61
_ZTSN8opendnp38IVisitorINS_7IndexedINS_18BinaryOutputStatusEEEEE:
	.string	"N8opendnp38IVisitorINS_7IndexedINS_18BinaryOutputStatusEEEEE"
	.weak	_ZTIN8opendnp38IVisitorINS_7IndexedINS_18BinaryOutputStatusEEEEE
	.section	.data.rel.ro._ZTIN8opendnp38IVisitorINS_7IndexedINS_18BinaryOutputStatusEEEEE,"awG",@progbits,_ZTIN8opendnp38IVisitorINS_7IndexedINS_18BinaryOutputStatusEEEEE,comdat
	.align 8
	.type	_ZTIN8opendnp38IVisitorINS_7IndexedINS_18BinaryOutputStatusEEEEE, @object
	.size	_ZTIN8opendnp38IVisitorINS_7IndexedINS_18BinaryOutputStatusEEEEE, 16
_ZTIN8opendnp38IVisitorINS_7IndexedINS_18BinaryOutputStatusEEEEE:
	.quad	_ZTVN10__cxxabiv117__class_type_infoE+16
	.quad	_ZTSN8opendnp38IVisitorINS_7IndexedINS_18BinaryOutputStatusEEEEE
	.weak	_ZTSN8opendnp314FunctorVisitorINS_7IndexedINS_18BinaryOutputStatusEEEZN8asiodnp318PrintingSOEHandler8PrintAllIS2_EEvRKNS_10HeaderInfoERKNS_11ICollectionINS1_IT_EEEEEUlRKS3_E_EE
	.section	.rodata._ZTSN8opendnp314FunctorVisitorINS_7IndexedINS_18BinaryOutputStatusEEEZN8asiodnp318PrintingSOEHandler8PrintAllIS2_EEvRKNS_10HeaderInfoERKNS_11ICollectionINS1_IT_EEEEEUlRKS3_E_EE,"aG",@progbits,_ZTSN8opendnp314FunctorVisitorINS_7IndexedINS_18BinaryOutputStatusEEEZN8asiodnp318PrintingSOEHandler8PrintAllIS2_EEvRKNS_10HeaderInfoERKNS_11ICollectionINS1_IT_EEEEEUlRKS3_E_EE,comdat
	.align 32
	.type	_ZTSN8opendnp314FunctorVisitorINS_7IndexedINS_18BinaryOutputStatusEEEZN8asiodnp318PrintingSOEHandler8PrintAllIS2_EEvRKNS_10HeaderInfoERKNS_11ICollectionINS1_IT_EEEEEUlRKS3_E_EE, @object
	.size	_ZTSN8opendnp314FunctorVisitorINS_7IndexedINS_18BinaryOutputStatusEEEZN8asiodnp318PrintingSOEHandler8PrintAllIS2_EEvRKNS_10HeaderInfoERKNS_11ICollectionINS1_IT_EEEEEUlRKS3_E_EE, 173
_ZTSN8opendnp314FunctorVisitorINS_7IndexedINS_18BinaryOutputStatusEEEZN8asiodnp318PrintingSOEHandler8PrintAllIS2_EEvRKNS_10HeaderInfoERKNS_11ICollectionINS1_IT_EEEEEUlRKS3_E_EE:
	.string	"N8opendnp314FunctorVisitorINS_7IndexedINS_18BinaryOutputStatusEEEZN8asiodnp318PrintingSOEHandler8PrintAllIS2_EEvRKNS_10HeaderInfoERKNS_11ICollectionINS1_IT_EEEEEUlRKS3_E_EE"
	.weak	_ZTIN8opendnp314FunctorVisitorINS_7IndexedINS_18BinaryOutputStatusEEEZN8asiodnp318PrintingSOEHandler8PrintAllIS2_EEvRKNS_10HeaderInfoERKNS_11ICollectionINS1_IT_EEEEEUlRKS3_E_EE
	.section	.data.rel.ro._ZTIN8opendnp314FunctorVisitorINS_7IndexedINS_18BinaryOutputStatusEEEZN8asiodnp318PrintingSOEHandler8PrintAllIS2_EEvRKNS_10HeaderInfoERKNS_11ICollectionINS1_IT_EEEEEUlRKS3_E_EE,"awG",@progbits,_ZTIN8opendnp314FunctorVisitorINS_7IndexedINS_18BinaryOutputStatusEEEZN8asiodnp318PrintingSOEHandler8PrintAllIS2_EEvRKNS_10HeaderInfoERKNS_11ICollectionINS1_IT_EEEEEUlRKS3_E_EE,comdat
	.align 8
	.type	_ZTIN8opendnp314FunctorVisitorINS_7IndexedINS_18BinaryOutputStatusEEEZN8asiodnp318PrintingSOEHandler8PrintAllIS2_EEvRKNS_10HeaderInfoERKNS_11ICollectionINS1_IT_EEEEEUlRKS3_E_EE, @object
	.size	_ZTIN8opendnp314FunctorVisitorINS_7IndexedINS_18BinaryOutputStatusEEEZN8asiodnp318PrintingSOEHandler8PrintAllIS2_EEvRKNS_10HeaderInfoERKNS_11ICollectionINS1_IT_EEEEEUlRKS3_E_EE, 24
_ZTIN8opendnp314FunctorVisitorINS_7IndexedINS_18BinaryOutputStatusEEEZN8asiodnp318PrintingSOEHandler8PrintAllIS2_EEvRKNS_10HeaderInfoERKNS_11ICollectionINS1_IT_EEEEEUlRKS3_E_EE:
	.quad	_ZTVN10__cxxabiv120__si_class_type_infoE+16
	.quad	_ZTSN8opendnp314FunctorVisitorINS_7IndexedINS_18BinaryOutputStatusEEEZN8asiodnp318PrintingSOEHandler8PrintAllIS2_EEvRKNS_10HeaderInfoERKNS_11ICollectionINS1_IT_EEEEEUlRKS3_E_EE
	.quad	_ZTIN8opendnp38IVisitorINS_7IndexedINS_18BinaryOutputStatusEEEEE
	.weak	_ZTSN8opendnp38IVisitorINS_7IndexedINS_18AnalogOutputStatusEEEEE
	.section	.rodata._ZTSN8opendnp38IVisitorINS_7IndexedINS_18AnalogOutputStatusEEEEE,"aG",@progbits,_ZTSN8opendnp38IVisitorINS_7IndexedINS_18AnalogOutputStatusEEEEE,comdat
	.align 32
	.type	_ZTSN8opendnp38IVisitorINS_7IndexedINS_18AnalogOutputStatusEEEEE, @object
	.size	_ZTSN8opendnp38IVisitorINS_7IndexedINS_18AnalogOutputStatusEEEEE, 61
_ZTSN8opendnp38IVisitorINS_7IndexedINS_18AnalogOutputStatusEEEEE:
	.string	"N8opendnp38IVisitorINS_7IndexedINS_18AnalogOutputStatusEEEEE"
	.weak	_ZTIN8opendnp38IVisitorINS_7IndexedINS_18AnalogOutputStatusEEEEE
	.section	.data.rel.ro._ZTIN8opendnp38IVisitorINS_7IndexedINS_18AnalogOutputStatusEEEEE,"awG",@progbits,_ZTIN8opendnp38IVisitorINS_7IndexedINS_18AnalogOutputStatusEEEEE,comdat
	.align 8
	.type	_ZTIN8opendnp38IVisitorINS_7IndexedINS_18AnalogOutputStatusEEEEE, @object
	.size	_ZTIN8opendnp38IVisitorINS_7IndexedINS_18AnalogOutputStatusEEEEE, 16
_ZTIN8opendnp38IVisitorINS_7IndexedINS_18AnalogOutputStatusEEEEE:
	.quad	_ZTVN10__cxxabiv117__class_type_infoE+16
	.quad	_ZTSN8opendnp38IVisitorINS_7IndexedINS_18AnalogOutputStatusEEEEE
	.weak	_ZTSN8opendnp314FunctorVisitorINS_7IndexedINS_18AnalogOutputStatusEEEZN8asiodnp318PrintingSOEHandler8PrintAllIS2_EEvRKNS_10HeaderInfoERKNS_11ICollectionINS1_IT_EEEEEUlRKS3_E_EE
	.section	.rodata._ZTSN8opendnp314FunctorVisitorINS_7IndexedINS_18AnalogOutputStatusEEEZN8asiodnp318PrintingSOEHandler8PrintAllIS2_EEvRKNS_10HeaderInfoERKNS_11ICollectionINS1_IT_EEEEEUlRKS3_E_EE,"aG",@progbits,_ZTSN8opendnp314FunctorVisitorINS_7IndexedINS_18AnalogOutputStatusEEEZN8asiodnp318PrintingSOEHandler8PrintAllIS2_EEvRKNS_10HeaderInfoERKNS_11ICollectionINS1_IT_EEEEEUlRKS3_E_EE,comdat
	.align 32
	.type	_ZTSN8opendnp314FunctorVisitorINS_7IndexedINS_18AnalogOutputStatusEEEZN8asiodnp318PrintingSOEHandler8PrintAllIS2_EEvRKNS_10HeaderInfoERKNS_11ICollectionINS1_IT_EEEEEUlRKS3_E_EE, @object
	.size	_ZTSN8opendnp314FunctorVisitorINS_7IndexedINS_18AnalogOutputStatusEEEZN8asiodnp318PrintingSOEHandler8PrintAllIS2_EEvRKNS_10HeaderInfoERKNS_11ICollectionINS1_IT_EEEEEUlRKS3_E_EE, 173
_ZTSN8opendnp314FunctorVisitorINS_7IndexedINS_18AnalogOutputStatusEEEZN8asiodnp318PrintingSOEHandler8PrintAllIS2_EEvRKNS_10HeaderInfoERKNS_11ICollectionINS1_IT_EEEEEUlRKS3_E_EE:
	.string	"N8opendnp314FunctorVisitorINS_7IndexedINS_18AnalogOutputStatusEEEZN8asiodnp318PrintingSOEHandler8PrintAllIS2_EEvRKNS_10HeaderInfoERKNS_11ICollectionINS1_IT_EEEEEUlRKS3_E_EE"
	.weak	_ZTIN8opendnp314FunctorVisitorINS_7IndexedINS_18AnalogOutputStatusEEEZN8asiodnp318PrintingSOEHandler8PrintAllIS2_EEvRKNS_10HeaderInfoERKNS_11ICollectionINS1_IT_EEEEEUlRKS3_E_EE
	.section	.data.rel.ro._ZTIN8opendnp314FunctorVisitorINS_7IndexedINS_18AnalogOutputStatusEEEZN8asiodnp318PrintingSOEHandler8PrintAllIS2_EEvRKNS_10HeaderInfoERKNS_11ICollectionINS1_IT_EEEEEUlRKS3_E_EE,"awG",@progbits,_ZTIN8opendnp314FunctorVisitorINS_7IndexedINS_18AnalogOutputStatusEEEZN8asiodnp318PrintingSOEHandler8PrintAllIS2_EEvRKNS_10HeaderInfoERKNS_11ICollectionINS1_IT_EEEEEUlRKS3_E_EE,comdat
	.align 8
	.type	_ZTIN8opendnp314FunctorVisitorINS_7IndexedINS_18AnalogOutputStatusEEEZN8asiodnp318PrintingSOEHandler8PrintAllIS2_EEvRKNS_10HeaderInfoERKNS_11ICollectionINS1_IT_EEEEEUlRKS3_E_EE, @object
	.size	_ZTIN8opendnp314FunctorVisitorINS_7IndexedINS_18AnalogOutputStatusEEEZN8asiodnp318PrintingSOEHandler8PrintAllIS2_EEvRKNS_10HeaderInfoERKNS_11ICollectionINS1_IT_EEEEEUlRKS3_E_EE, 24
_ZTIN8opendnp314FunctorVisitorINS_7IndexedINS_18AnalogOutputStatusEEEZN8asiodnp318PrintingSOEHandler8PrintAllIS2_EEvRKNS_10HeaderInfoERKNS_11ICollectionINS1_IT_EEEEEUlRKS3_E_EE:
	.quad	_ZTVN10__cxxabiv120__si_class_type_infoE+16
	.quad	_ZTSN8opendnp314FunctorVisitorINS_7IndexedINS_18AnalogOutputStatusEEEZN8asiodnp318PrintingSOEHandler8PrintAllIS2_EEvRKNS_10HeaderInfoERKNS_11ICollectionINS1_IT_EEEEEUlRKS3_E_EE
	.quad	_ZTIN8opendnp38IVisitorINS_7IndexedINS_18AnalogOutputStatusEEEEE
	.weak	_ZTVN8asiodnp318PrintingSOEHandlerE
	.section	.data.rel.ro._ZTVN8asiodnp318PrintingSOEHandlerE,"awG",@progbits,_ZTVN8asiodnp318PrintingSOEHandlerE,comdat
	.align 8
	.type	_ZTVN8asiodnp318PrintingSOEHandlerE, @object
	.size	_ZTVN8asiodnp318PrintingSOEHandlerE, 152
_ZTVN8asiodnp318PrintingSOEHandlerE:
	.quad	0
	.quad	_ZTIN8asiodnp318PrintingSOEHandlerE
	.quad	_ZN8asiodnp318PrintingSOEHandlerD1Ev
	.quad	_ZN8asiodnp318PrintingSOEHandlerD0Ev
	.quad	_ZN8asiodnp318PrintingSOEHandler5StartEv
	.quad	_ZN8asiodnp318PrintingSOEHandler3EndEv
	.quad	_ZN8asiodnp318PrintingSOEHandler7ProcessERKN8opendnp310HeaderInfoERKNS1_11ICollectionINS1_7IndexedINS1_6BinaryEEEEE
	.quad	_ZN8asiodnp318PrintingSOEHandler7ProcessERKN8opendnp310HeaderInfoERKNS1_11ICollectionINS1_7IndexedINS1_15DoubleBitBinaryEEEEE
	.quad	_ZN8asiodnp318PrintingSOEHandler7ProcessERKN8opendnp310HeaderInfoERKNS1_11ICollectionINS1_7IndexedINS1_6AnalogEEEEE
	.quad	_ZN8asiodnp318PrintingSOEHandler7ProcessERKN8opendnp310HeaderInfoERKNS1_11ICollectionINS1_7IndexedINS1_7CounterEEEEE
	.quad	_ZN8asiodnp318PrintingSOEHandler7ProcessERKN8opendnp310HeaderInfoERKNS1_11ICollectionINS1_7IndexedINS1_13FrozenCounterEEEEE
	.quad	_ZN8asiodnp318PrintingSOEHandler7ProcessERKN8opendnp310HeaderInfoERKNS1_11ICollectionINS1_7IndexedINS1_18BinaryOutputStatusEEEEE
	.quad	_ZN8asiodnp318PrintingSOEHandler7ProcessERKN8opendnp310HeaderInfoERKNS1_11ICollectionINS1_7IndexedINS1_18AnalogOutputStatusEEEEE
	.quad	_ZN8asiodnp318PrintingSOEHandler7ProcessERKN8opendnp310HeaderInfoERKNS1_11ICollectionINS1_7IndexedINS1_11OctetStringEEEEE
	.quad	_ZN8asiodnp318PrintingSOEHandler7ProcessERKN8opendnp310HeaderInfoERKNS1_11ICollectionINS1_7IndexedINS1_15TimeAndIntervalEEEEE
	.quad	_ZN8asiodnp318PrintingSOEHandler7ProcessERKN8opendnp310HeaderInfoERKNS1_11ICollectionINS1_7IndexedINS1_18BinaryCommandEventEEEEE
	.quad	_ZN8asiodnp318PrintingSOEHandler7ProcessERKN8opendnp310HeaderInfoERKNS1_11ICollectionINS1_7IndexedINS1_18AnalogCommandEventEEEEE
	.quad	_ZN8asiodnp318PrintingSOEHandler7ProcessERKN8opendnp310HeaderInfoERKNS1_11ICollectionINS1_7IndexedINS1_12SecurityStatEEEEE
	.quad	_ZN8asiodnp318PrintingSOEHandler7ProcessERKN8opendnp310HeaderInfoERKNS1_11ICollectionIN7openpal10UInt48TypeEEE
	.section	.data.rel.ro.local,"aw",@progbits
	.align 8
	.type	_ZTVN8opendnp314FunctorVisitorINS_7IndexedINS_11OctetStringEEEZN8asiodnp318PrintingSOEHandler7ProcessERKNS_10HeaderInfoERKNS_11ICollectionIS3_EEEUlRKS3_E_EE, @object
	.size	_ZTVN8opendnp314FunctorVisitorINS_7IndexedINS_11OctetStringEEEZN8asiodnp318PrintingSOEHandler7ProcessERKNS_10HeaderInfoERKNS_11ICollectionIS3_EEEUlRKS3_E_EE, 24
_ZTVN8opendnp314FunctorVisitorINS_7IndexedINS_11OctetStringEEEZN8asiodnp318PrintingSOEHandler7ProcessERKNS_10HeaderInfoERKNS_11ICollectionIS3_EEEUlRKS3_E_EE:
	.quad	0
	.quad	_ZTIN8opendnp314FunctorVisitorINS_7IndexedINS_11OctetStringEEEZN8asiodnp318PrintingSOEHandler7ProcessERKNS_10HeaderInfoERKNS_11ICollectionIS3_EEEUlRKS3_E_EE
	.quad	_ZN8opendnp314FunctorVisitorINS_7IndexedINS_11OctetStringEEEZN8asiodnp318PrintingSOEHandler7ProcessERKNS_10HeaderInfoERKNS_11ICollectionIS3_EEEUlRKS3_E_E7OnValueESE_
	.align 8
	.type	_ZTVN8opendnp314FunctorVisitorINS_7IndexedINS_15TimeAndIntervalEEEZN8asiodnp318PrintingSOEHandler7ProcessERKNS_10HeaderInfoERKNS_11ICollectionIS3_EEEUlRKS3_E_EE, @object
	.size	_ZTVN8opendnp314FunctorVisitorINS_7IndexedINS_15TimeAndIntervalEEEZN8asiodnp318PrintingSOEHandler7ProcessERKNS_10HeaderInfoERKNS_11ICollectionIS3_EEEUlRKS3_E_EE, 24
_ZTVN8opendnp314FunctorVisitorINS_7IndexedINS_15TimeAndIntervalEEEZN8asiodnp318PrintingSOEHandler7ProcessERKNS_10HeaderInfoERKNS_11ICollectionIS3_EEEUlRKS3_E_EE:
	.quad	0
	.quad	_ZTIN8opendnp314FunctorVisitorINS_7IndexedINS_15TimeAndIntervalEEEZN8asiodnp318PrintingSOEHandler7ProcessERKNS_10HeaderInfoERKNS_11ICollectionIS3_EEEUlRKS3_E_EE
	.quad	_ZN8opendnp314FunctorVisitorINS_7IndexedINS_15TimeAndIntervalEEEZN8asiodnp318PrintingSOEHandler7ProcessERKNS_10HeaderInfoERKNS_11ICollectionIS3_EEEUlRKS3_E_E7OnValueESE_
	.align 8
	.type	_ZTVN8opendnp314FunctorVisitorINS_7IndexedINS_18BinaryCommandEventEEEZN8asiodnp318PrintingSOEHandler7ProcessERKNS_10HeaderInfoERKNS_11ICollectionIS3_EEEUlRKS3_E_EE, @object
	.size	_ZTVN8opendnp314FunctorVisitorINS_7IndexedINS_18BinaryCommandEventEEEZN8asiodnp318PrintingSOEHandler7ProcessERKNS_10HeaderInfoERKNS_11ICollectionIS3_EEEUlRKS3_E_EE, 24
_ZTVN8opendnp314FunctorVisitorINS_7IndexedINS_18BinaryCommandEventEEEZN8asiodnp318PrintingSOEHandler7ProcessERKNS_10HeaderInfoERKNS_11ICollectionIS3_EEEUlRKS3_E_EE:
	.quad	0
	.quad	_ZTIN8opendnp314FunctorVisitorINS_7IndexedINS_18BinaryCommandEventEEEZN8asiodnp318PrintingSOEHandler7ProcessERKNS_10HeaderInfoERKNS_11ICollectionIS3_EEEUlRKS3_E_EE
	.quad	_ZN8opendnp314FunctorVisitorINS_7IndexedINS_18BinaryCommandEventEEEZN8asiodnp318PrintingSOEHandler7ProcessERKNS_10HeaderInfoERKNS_11ICollectionIS3_EEEUlRKS3_E_E7OnValueESE_
	.align 8
	.type	_ZTVN8opendnp314FunctorVisitorINS_7IndexedINS_18AnalogCommandEventEEEZN8asiodnp318PrintingSOEHandler7ProcessERKNS_10HeaderInfoERKNS_11ICollectionIS3_EEEUlRKS3_E_EE, @object
	.size	_ZTVN8opendnp314FunctorVisitorINS_7IndexedINS_18AnalogCommandEventEEEZN8asiodnp318PrintingSOEHandler7ProcessERKNS_10HeaderInfoERKNS_11ICollectionIS3_EEEUlRKS3_E_EE, 24
_ZTVN8opendnp314FunctorVisitorINS_7IndexedINS_18AnalogCommandEventEEEZN8asiodnp318PrintingSOEHandler7ProcessERKNS_10HeaderInfoERKNS_11ICollectionIS3_EEEUlRKS3_E_EE:
	.quad	0
	.quad	_ZTIN8opendnp314FunctorVisitorINS_7IndexedINS_18AnalogCommandEventEEEZN8asiodnp318PrintingSOEHandler7ProcessERKNS_10HeaderInfoERKNS_11ICollectionIS3_EEEUlRKS3_E_EE
	.quad	_ZN8opendnp314FunctorVisitorINS_7IndexedINS_18AnalogCommandEventEEEZN8asiodnp318PrintingSOEHandler7ProcessERKNS_10HeaderInfoERKNS_11ICollectionIS3_EEEUlRKS3_E_E7OnValueESE_
	.align 8
	.type	_ZTVN8opendnp314FunctorVisitorINS_7IndexedINS_12SecurityStatEEEZN8asiodnp318PrintingSOEHandler7ProcessERKNS_10HeaderInfoERKNS_11ICollectionIS3_EEEUlRKS3_E_EE, @object
	.size	_ZTVN8opendnp314FunctorVisitorINS_7IndexedINS_12SecurityStatEEEZN8asiodnp318PrintingSOEHandler7ProcessERKNS_10HeaderInfoERKNS_11ICollectionIS3_EEEUlRKS3_E_EE, 24
_ZTVN8opendnp314FunctorVisitorINS_7IndexedINS_12SecurityStatEEEZN8asiodnp318PrintingSOEHandler7ProcessERKNS_10HeaderInfoERKNS_11ICollectionIS3_EEEUlRKS3_E_EE:
	.quad	0
	.quad	_ZTIN8opendnp314FunctorVisitorINS_7IndexedINS_12SecurityStatEEEZN8asiodnp318PrintingSOEHandler7ProcessERKNS_10HeaderInfoERKNS_11ICollectionIS3_EEEUlRKS3_E_EE
	.quad	_ZN8opendnp314FunctorVisitorINS_7IndexedINS_12SecurityStatEEEZN8asiodnp318PrintingSOEHandler7ProcessERKNS_10HeaderInfoERKNS_11ICollectionIS3_EEEUlRKS3_E_E7OnValueESE_
	.align 8
	.type	_ZTVN8opendnp314FunctorVisitorIN7openpal10UInt48TypeEZN8asiodnp318PrintingSOEHandler7ProcessERKNS_10HeaderInfoERKNS_11ICollectionIS2_EEEUlRKS2_E_EE, @object
	.size	_ZTVN8opendnp314FunctorVisitorIN7openpal10UInt48TypeEZN8asiodnp318PrintingSOEHandler7ProcessERKNS_10HeaderInfoERKNS_11ICollectionIS2_EEEUlRKS2_E_EE, 24
_ZTVN8opendnp314FunctorVisitorIN7openpal10UInt48TypeEZN8asiodnp318PrintingSOEHandler7ProcessERKNS_10HeaderInfoERKNS_11ICollectionIS2_EEEUlRKS2_E_EE:
	.quad	0
	.quad	_ZTIN8opendnp314FunctorVisitorIN7openpal10UInt48TypeEZN8asiodnp318PrintingSOEHandler7ProcessERKNS_10HeaderInfoERKNS_11ICollectionIS2_EEEUlRKS2_E_EE
	.quad	_ZN8opendnp314FunctorVisitorIN7openpal10UInt48TypeEZN8asiodnp318PrintingSOEHandler7ProcessERKNS_10HeaderInfoERKNS_11ICollectionIS2_EEEUlRKS2_E_E7OnValueESD_
	.weak	_ZTVN8opendnp314FunctorVisitorINS_7IndexedINS_6BinaryEEEZN8asiodnp318PrintingSOEHandler8PrintAllIS2_EEvRKNS_10HeaderInfoERKNS_11ICollectionINS1_IT_EEEEEUlRKS3_E_EE
	.section	.data.rel.ro._ZTVN8opendnp314FunctorVisitorINS_7IndexedINS_6BinaryEEEZN8asiodnp318PrintingSOEHandler8PrintAllIS2_EEvRKNS_10HeaderInfoERKNS_11ICollectionINS1_IT_EEEEEUlRKS3_E_EE,"awG",@progbits,_ZTVN8opendnp314FunctorVisitorINS_7IndexedINS_6BinaryEEEZN8asiodnp318PrintingSOEHandler8PrintAllIS2_EEvRKNS_10HeaderInfoERKNS_11ICollectionINS1_IT_EEEEEUlRKS3_E_EE,comdat
	.align 8
	.type	_ZTVN8opendnp314FunctorVisitorINS_7IndexedINS_6BinaryEEEZN8asiodnp318PrintingSOEHandler8PrintAllIS2_EEvRKNS_10HeaderInfoERKNS_11ICollectionINS1_IT_EEEEEUlRKS3_E_EE, @object
	.size	_ZTVN8opendnp314FunctorVisitorINS_7IndexedINS_6BinaryEEEZN8asiodnp318PrintingSOEHandler8PrintAllIS2_EEvRKNS_10HeaderInfoERKNS_11ICollectionINS1_IT_EEEEEUlRKS3_E_EE, 24
_ZTVN8opendnp314FunctorVisitorINS_7IndexedINS_6BinaryEEEZN8asiodnp318PrintingSOEHandler8PrintAllIS2_EEvRKNS_10HeaderInfoERKNS_11ICollectionINS1_IT_EEEEEUlRKS3_E_EE:
	.quad	0
	.quad	_ZTIN8opendnp314FunctorVisitorINS_7IndexedINS_6BinaryEEEZN8asiodnp318PrintingSOEHandler8PrintAllIS2_EEvRKNS_10HeaderInfoERKNS_11ICollectionINS1_IT_EEEEEUlRKS3_E_EE
	.quad	_ZN8opendnp314FunctorVisitorINS_7IndexedINS_6BinaryEEEZN8asiodnp318PrintingSOEHandler8PrintAllIS2_EEvRKNS_10HeaderInfoERKNS_11ICollectionINS1_IT_EEEEEUlRKS3_E_E7OnValueESH_
	.weak	_ZTVN8opendnp314FunctorVisitorINS_7IndexedINS_15DoubleBitBinaryEEEZN8asiodnp318PrintingSOEHandler8PrintAllIS2_EEvRKNS_10HeaderInfoERKNS_11ICollectionINS1_IT_EEEEEUlRKS3_E_EE
	.section	.data.rel.ro._ZTVN8opendnp314FunctorVisitorINS_7IndexedINS_15DoubleBitBinaryEEEZN8asiodnp318PrintingSOEHandler8PrintAllIS2_EEvRKNS_10HeaderInfoERKNS_11ICollectionINS1_IT_EEEEEUlRKS3_E_EE,"awG",@progbits,_ZTVN8opendnp314FunctorVisitorINS_7IndexedINS_15DoubleBitBinaryEEEZN8asiodnp318PrintingSOEHandler8PrintAllIS2_EEvRKNS_10HeaderInfoERKNS_11ICollectionINS1_IT_EEEEEUlRKS3_E_EE,comdat
	.align 8
	.type	_ZTVN8opendnp314FunctorVisitorINS_7IndexedINS_15DoubleBitBinaryEEEZN8asiodnp318PrintingSOEHandler8PrintAllIS2_EEvRKNS_10HeaderInfoERKNS_11ICollectionINS1_IT_EEEEEUlRKS3_E_EE, @object
	.size	_ZTVN8opendnp314FunctorVisitorINS_7IndexedINS_15DoubleBitBinaryEEEZN8asiodnp318PrintingSOEHandler8PrintAllIS2_EEvRKNS_10HeaderInfoERKNS_11ICollectionINS1_IT_EEEEEUlRKS3_E_EE, 24
_ZTVN8opendnp314FunctorVisitorINS_7IndexedINS_15DoubleBitBinaryEEEZN8asiodnp318PrintingSOEHandler8PrintAllIS2_EEvRKNS_10HeaderInfoERKNS_11ICollectionINS1_IT_EEEEEUlRKS3_E_EE:
	.quad	0
	.quad	_ZTIN8opendnp314FunctorVisitorINS_7IndexedINS_15DoubleBitBinaryEEEZN8asiodnp318PrintingSOEHandler8PrintAllIS2_EEvRKNS_10HeaderInfoERKNS_11ICollectionINS1_IT_EEEEEUlRKS3_E_EE
	.quad	_ZN8opendnp314FunctorVisitorINS_7IndexedINS_15DoubleBitBinaryEEEZN8asiodnp318PrintingSOEHandler8PrintAllIS2_EEvRKNS_10HeaderInfoERKNS_11ICollectionINS1_IT_EEEEEUlRKS3_E_E7OnValueESH_
	.weak	_ZTVN8opendnp314FunctorVisitorINS_7IndexedINS_6AnalogEEEZN8asiodnp318PrintingSOEHandler8PrintAllIS2_EEvRKNS_10HeaderInfoERKNS_11ICollectionINS1_IT_EEEEEUlRKS3_E_EE
	.section	.data.rel.ro._ZTVN8opendnp314FunctorVisitorINS_7IndexedINS_6AnalogEEEZN8asiodnp318PrintingSOEHandler8PrintAllIS2_EEvRKNS_10HeaderInfoERKNS_11ICollectionINS1_IT_EEEEEUlRKS3_E_EE,"awG",@progbits,_ZTVN8opendnp314FunctorVisitorINS_7IndexedINS_6AnalogEEEZN8asiodnp318PrintingSOEHandler8PrintAllIS2_EEvRKNS_10HeaderInfoERKNS_11ICollectionINS1_IT_EEEEEUlRKS3_E_EE,comdat
	.align 8
	.type	_ZTVN8opendnp314FunctorVisitorINS_7IndexedINS_6AnalogEEEZN8asiodnp318PrintingSOEHandler8PrintAllIS2_EEvRKNS_10HeaderInfoERKNS_11ICollectionINS1_IT_EEEEEUlRKS3_E_EE, @object
	.size	_ZTVN8opendnp314FunctorVisitorINS_7IndexedINS_6AnalogEEEZN8asiodnp318PrintingSOEHandler8PrintAllIS2_EEvRKNS_10HeaderInfoERKNS_11ICollectionINS1_IT_EEEEEUlRKS3_E_EE, 24
_ZTVN8opendnp314FunctorVisitorINS_7IndexedINS_6AnalogEEEZN8asiodnp318PrintingSOEHandler8PrintAllIS2_EEvRKNS_10HeaderInfoERKNS_11ICollectionINS1_IT_EEEEEUlRKS3_E_EE:
	.quad	0
	.quad	_ZTIN8opendnp314FunctorVisitorINS_7IndexedINS_6AnalogEEEZN8asiodnp318PrintingSOEHandler8PrintAllIS2_EEvRKNS_10HeaderInfoERKNS_11ICollectionINS1_IT_EEEEEUlRKS3_E_EE
	.quad	_ZN8opendnp314FunctorVisitorINS_7IndexedINS_6AnalogEEEZN8asiodnp318PrintingSOEHandler8PrintAllIS2_EEvRKNS_10HeaderInfoERKNS_11ICollectionINS1_IT_EEEEEUlRKS3_E_E7OnValueESH_
	.weak	_ZTVN8opendnp314FunctorVisitorINS_7IndexedINS_7CounterEEEZN8asiodnp318PrintingSOEHandler8PrintAllIS2_EEvRKNS_10HeaderInfoERKNS_11ICollectionINS1_IT_EEEEEUlRKS3_E_EE
	.section	.data.rel.ro._ZTVN8opendnp314FunctorVisitorINS_7IndexedINS_7CounterEEEZN8asiodnp318PrintingSOEHandler8PrintAllIS2_EEvRKNS_10HeaderInfoERKNS_11ICollectionINS1_IT_EEEEEUlRKS3_E_EE,"awG",@progbits,_ZTVN8opendnp314FunctorVisitorINS_7IndexedINS_7CounterEEEZN8asiodnp318PrintingSOEHandler8PrintAllIS2_EEvRKNS_10HeaderInfoERKNS_11ICollectionINS1_IT_EEEEEUlRKS3_E_EE,comdat
	.align 8
	.type	_ZTVN8opendnp314FunctorVisitorINS_7IndexedINS_7CounterEEEZN8asiodnp318PrintingSOEHandler8PrintAllIS2_EEvRKNS_10HeaderInfoERKNS_11ICollectionINS1_IT_EEEEEUlRKS3_E_EE, @object
	.size	_ZTVN8opendnp314FunctorVisitorINS_7IndexedINS_7CounterEEEZN8asiodnp318PrintingSOEHandler8PrintAllIS2_EEvRKNS_10HeaderInfoERKNS_11ICollectionINS1_IT_EEEEEUlRKS3_E_EE, 24
_ZTVN8opendnp314FunctorVisitorINS_7IndexedINS_7CounterEEEZN8asiodnp318PrintingSOEHandler8PrintAllIS2_EEvRKNS_10HeaderInfoERKNS_11ICollectionINS1_IT_EEEEEUlRKS3_E_EE:
	.quad	0
	.quad	_ZTIN8opendnp314FunctorVisitorINS_7IndexedINS_7CounterEEEZN8asiodnp318PrintingSOEHandler8PrintAllIS2_EEvRKNS_10HeaderInfoERKNS_11ICollectionINS1_IT_EEEEEUlRKS3_E_EE
	.quad	_ZN8opendnp314FunctorVisitorINS_7IndexedINS_7CounterEEEZN8asiodnp318PrintingSOEHandler8PrintAllIS2_EEvRKNS_10HeaderInfoERKNS_11ICollectionINS1_IT_EEEEEUlRKS3_E_E7OnValueESH_
	.weak	_ZTVN8opendnp314FunctorVisitorINS_7IndexedINS_13FrozenCounterEEEZN8asiodnp318PrintingSOEHandler8PrintAllIS2_EEvRKNS_10HeaderInfoERKNS_11ICollectionINS1_IT_EEEEEUlRKS3_E_EE
	.section	.data.rel.ro._ZTVN8opendnp314FunctorVisitorINS_7IndexedINS_13FrozenCounterEEEZN8asiodnp318PrintingSOEHandler8PrintAllIS2_EEvRKNS_10HeaderInfoERKNS_11ICollectionINS1_IT_EEEEEUlRKS3_E_EE,"awG",@progbits,_ZTVN8opendnp314FunctorVisitorINS_7IndexedINS_13FrozenCounterEEEZN8asiodnp318PrintingSOEHandler8PrintAllIS2_EEvRKNS_10HeaderInfoERKNS_11ICollectionINS1_IT_EEEEEUlRKS3_E_EE,comdat
	.align 8
	.type	_ZTVN8opendnp314FunctorVisitorINS_7IndexedINS_13FrozenCounterEEEZN8asiodnp318PrintingSOEHandler8PrintAllIS2_EEvRKNS_10HeaderInfoERKNS_11ICollectionINS1_IT_EEEEEUlRKS3_E_EE, @object
	.size	_ZTVN8opendnp314FunctorVisitorINS_7IndexedINS_13FrozenCounterEEEZN8asiodnp318PrintingSOEHandler8PrintAllIS2_EEvRKNS_10HeaderInfoERKNS_11ICollectionINS1_IT_EEEEEUlRKS3_E_EE, 24
_ZTVN8opendnp314FunctorVisitorINS_7IndexedINS_13FrozenCounterEEEZN8asiodnp318PrintingSOEHandler8PrintAllIS2_EEvRKNS_10HeaderInfoERKNS_11ICollectionINS1_IT_EEEEEUlRKS3_E_EE:
	.quad	0
	.quad	_ZTIN8opendnp314FunctorVisitorINS_7IndexedINS_13FrozenCounterEEEZN8asiodnp318PrintingSOEHandler8PrintAllIS2_EEvRKNS_10HeaderInfoERKNS_11ICollectionINS1_IT_EEEEEUlRKS3_E_EE
	.quad	_ZN8opendnp314FunctorVisitorINS_7IndexedINS_13FrozenCounterEEEZN8asiodnp318PrintingSOEHandler8PrintAllIS2_EEvRKNS_10HeaderInfoERKNS_11ICollectionINS1_IT_EEEEEUlRKS3_E_E7OnValueESH_
	.weak	_ZTVN8opendnp314FunctorVisitorINS_7IndexedINS_18BinaryOutputStatusEEEZN8asiodnp318PrintingSOEHandler8PrintAllIS2_EEvRKNS_10HeaderInfoERKNS_11ICollectionINS1_IT_EEEEEUlRKS3_E_EE
	.section	.data.rel.ro._ZTVN8opendnp314FunctorVisitorINS_7IndexedINS_18BinaryOutputStatusEEEZN8asiodnp318PrintingSOEHandler8PrintAllIS2_EEvRKNS_10HeaderInfoERKNS_11ICollectionINS1_IT_EEEEEUlRKS3_E_EE,"awG",@progbits,_ZTVN8opendnp314FunctorVisitorINS_7IndexedINS_18BinaryOutputStatusEEEZN8asiodnp318PrintingSOEHandler8PrintAllIS2_EEvRKNS_10HeaderInfoERKNS_11ICollectionINS1_IT_EEEEEUlRKS3_E_EE,comdat
	.align 8
	.type	_ZTVN8opendnp314FunctorVisitorINS_7IndexedINS_18BinaryOutputStatusEEEZN8asiodnp318PrintingSOEHandler8PrintAllIS2_EEvRKNS_10HeaderInfoERKNS_11ICollectionINS1_IT_EEEEEUlRKS3_E_EE, @object
	.size	_ZTVN8opendnp314FunctorVisitorINS_7IndexedINS_18BinaryOutputStatusEEEZN8asiodnp318PrintingSOEHandler8PrintAllIS2_EEvRKNS_10HeaderInfoERKNS_11ICollectionINS1_IT_EEEEEUlRKS3_E_EE, 24
_ZTVN8opendnp314FunctorVisitorINS_7IndexedINS_18BinaryOutputStatusEEEZN8asiodnp318PrintingSOEHandler8PrintAllIS2_EEvRKNS_10HeaderInfoERKNS_11ICollectionINS1_IT_EEEEEUlRKS3_E_EE:
	.quad	0
	.quad	_ZTIN8opendnp314FunctorVisitorINS_7IndexedINS_18BinaryOutputStatusEEEZN8asiodnp318PrintingSOEHandler8PrintAllIS2_EEvRKNS_10HeaderInfoERKNS_11ICollectionINS1_IT_EEEEEUlRKS3_E_EE
	.quad	_ZN8opendnp314FunctorVisitorINS_7IndexedINS_18BinaryOutputStatusEEEZN8asiodnp318PrintingSOEHandler8PrintAllIS2_EEvRKNS_10HeaderInfoERKNS_11ICollectionINS1_IT_EEEEEUlRKS3_E_E7OnValueESH_
	.weak	_ZTVN8opendnp314FunctorVisitorINS_7IndexedINS_18AnalogOutputStatusEEEZN8asiodnp318PrintingSOEHandler8PrintAllIS2_EEvRKNS_10HeaderInfoERKNS_11ICollectionINS1_IT_EEEEEUlRKS3_E_EE
	.section	.data.rel.ro._ZTVN8opendnp314FunctorVisitorINS_7IndexedINS_18AnalogOutputStatusEEEZN8asiodnp318PrintingSOEHandler8PrintAllIS2_EEvRKNS_10HeaderInfoERKNS_11ICollectionINS1_IT_EEEEEUlRKS3_E_EE,"awG",@progbits,_ZTVN8opendnp314FunctorVisitorINS_7IndexedINS_18AnalogOutputStatusEEEZN8asiodnp318PrintingSOEHandler8PrintAllIS2_EEvRKNS_10HeaderInfoERKNS_11ICollectionINS1_IT_EEEEEUlRKS3_E_EE,comdat
	.align 8
	.type	_ZTVN8opendnp314FunctorVisitorINS_7IndexedINS_18AnalogOutputStatusEEEZN8asiodnp318PrintingSOEHandler8PrintAllIS2_EEvRKNS_10HeaderInfoERKNS_11ICollectionINS1_IT_EEEEEUlRKS3_E_EE, @object
	.size	_ZTVN8opendnp314FunctorVisitorINS_7IndexedINS_18AnalogOutputStatusEEEZN8asiodnp318PrintingSOEHandler8PrintAllIS2_EEvRKNS_10HeaderInfoERKNS_11ICollectionINS1_IT_EEEEEUlRKS3_E_EE, 24
_ZTVN8opendnp314FunctorVisitorINS_7IndexedINS_18AnalogOutputStatusEEEZN8asiodnp318PrintingSOEHandler8PrintAllIS2_EEvRKNS_10HeaderInfoERKNS_11ICollectionINS1_IT_EEEEEUlRKS3_E_EE:
	.quad	0
	.quad	_ZTIN8opendnp314FunctorVisitorINS_7IndexedINS_18AnalogOutputStatusEEEZN8asiodnp318PrintingSOEHandler8PrintAllIS2_EEvRKNS_10HeaderInfoERKNS_11ICollectionINS1_IT_EEEEEUlRKS3_E_EE
	.quad	_ZN8opendnp314FunctorVisitorINS_7IndexedINS_18AnalogOutputStatusEEEZN8asiodnp318PrintingSOEHandler8PrintAllIS2_EEvRKNS_10HeaderInfoERKNS_11ICollectionINS1_IT_EEEEEUlRKS3_E_E7OnValueESH_
	.local	_ZStL8__ioinit
	.comm	_ZStL8__ioinit,1,1
	.hidden	DW.ref.__gxx_personality_v0
	.weak	DW.ref.__gxx_personality_v0
	.section	.data.rel.local.DW.ref.__gxx_personality_v0,"awG",@progbits,DW.ref.__gxx_personality_v0,comdat
	.align 8
	.type	DW.ref.__gxx_personality_v0, @object
	.size	DW.ref.__gxx_personality_v0, 8
DW.ref.__gxx_personality_v0:
	.quad	__gxx_personality_v0
	.hidden	__dso_handle
	.ident	"GCC: (Ubuntu 7.5.0-3ubuntu1~18.04) 7.5.0"
	.section	.note.GNU-stack,"",@progbits
