	.file	"RangeParser.cpp"
	.text
	.section	.text._ZN7openpal12StaticBufferILj255EED2Ev,"axG",@progbits,_ZN7openpal12StaticBufferILj255EED5Ev,comdat
	.align 2
	.p2align 4,,15
	.weak	_ZN7openpal12StaticBufferILj255EED2Ev
	.type	_ZN7openpal12StaticBufferILj255EED2Ev, @function
_ZN7openpal12StaticBufferILj255EED2Ev:
.LFB2656:
	.cfi_startproc
	rep ret
	.cfi_endproc
.LFE2656:
	.size	_ZN7openpal12StaticBufferILj255EED2Ev, .-_ZN7openpal12StaticBufferILj255EED2Ev
	.weak	_ZN7openpal12StaticBufferILj255EED1Ev
	.set	_ZN7openpal12StaticBufferILj255EED1Ev,_ZN7openpal12StaticBufferILj255EED2Ev
	.section	.text._ZNK8opendnp318BufferedCollectionINS_7IndexedINS_12Group121Var1EEEZNS_11RangeParser17InvokeRangeOfTypeIS2_EEvRKNS_12HeaderRecordERKNS_5RangeERKN7openpal6RSliceERNS_12IAPDUHandlerEEUlRSD_jE_E5CountEv,"axG",@progbits,_ZNK8opendnp318BufferedCollectionINS_7IndexedINS_12Group121Var1EEEZNS_11RangeParser17InvokeRangeOfTypeIS2_EEvRKNS_12HeaderRecordERKNS_5RangeERKN7openpal6RSliceERNS_12IAPDUHandlerEEUlRSD_jE_E5CountEv,comdat
	.align 2
	.p2align 4,,15
	.weak	_ZNK8opendnp318BufferedCollectionINS_7IndexedINS_12Group121Var1EEEZNS_11RangeParser17InvokeRangeOfTypeIS2_EEvRKNS_12HeaderRecordERKNS_5RangeERKN7openpal6RSliceERNS_12IAPDUHandlerEEUlRSD_jE_E5CountEv
	.type	_ZNK8opendnp318BufferedCollectionINS_7IndexedINS_12Group121Var1EEEZNS_11RangeParser17InvokeRangeOfTypeIS2_EEvRKNS_12HeaderRecordERKNS_5RangeERKN7openpal6RSliceERNS_12IAPDUHandlerEEUlRSD_jE_E5CountEv, @function
_ZNK8opendnp318BufferedCollectionINS_7IndexedINS_12Group121Var1EEEZNS_11RangeParser17InvokeRangeOfTypeIS2_EEvRKNS_12HeaderRecordERKNS_5RangeERKN7openpal6RSliceERNS_12IAPDUHandlerEEUlRSD_jE_E5CountEv:
.LFB3498:
	.cfi_startproc
	movq	24(%rdi), %rax
	ret
	.cfi_endproc
.LFE3498:
	.size	_ZNK8opendnp318BufferedCollectionINS_7IndexedINS_12Group121Var1EEEZNS_11RangeParser17InvokeRangeOfTypeIS2_EEvRKNS_12HeaderRecordERKNS_5RangeERKN7openpal6RSliceERNS_12IAPDUHandlerEEUlRSD_jE_E5CountEv, .-_ZNK8opendnp318BufferedCollectionINS_7IndexedINS_12Group121Var1EEEZNS_11RangeParser17InvokeRangeOfTypeIS2_EEvRKNS_12HeaderRecordERKNS_5RangeERKN7openpal6RSliceERNS_12IAPDUHandlerEEUlRSD_jE_E5CountEv
	.section	.text._ZNK8opendnp318BufferedCollectionINS_7IndexedINS_8IINValueEEEZNS_11RangeParser23InvokeRangeBitfieldTypeIS2_EEvRKNS_12HeaderRecordERKNS_5RangeERKN7openpal6RSliceERNS_12IAPDUHandlerEEUlRSD_jE_E5CountEv,"axG",@progbits,_ZNK8opendnp318BufferedCollectionINS_7IndexedINS_8IINValueEEEZNS_11RangeParser23InvokeRangeBitfieldTypeIS2_EEvRKNS_12HeaderRecordERKNS_5RangeERKN7openpal6RSliceERNS_12IAPDUHandlerEEUlRSD_jE_E5CountEv,comdat
	.align 2
	.p2align 4,,15
	.weak	_ZNK8opendnp318BufferedCollectionINS_7IndexedINS_8IINValueEEEZNS_11RangeParser23InvokeRangeBitfieldTypeIS2_EEvRKNS_12HeaderRecordERKNS_5RangeERKN7openpal6RSliceERNS_12IAPDUHandlerEEUlRSD_jE_E5CountEv
	.type	_ZNK8opendnp318BufferedCollectionINS_7IndexedINS_8IINValueEEEZNS_11RangeParser23InvokeRangeBitfieldTypeIS2_EEvRKNS_12HeaderRecordERKNS_5RangeERKN7openpal6RSliceERNS_12IAPDUHandlerEEUlRSD_jE_E5CountEv, @function
_ZNK8opendnp318BufferedCollectionINS_7IndexedINS_8IINValueEEEZNS_11RangeParser23InvokeRangeBitfieldTypeIS2_EEvRKNS_12HeaderRecordERKNS_5RangeERKN7openpal6RSliceERNS_12IAPDUHandlerEEUlRSD_jE_E5CountEv:
.LFB3500:
	.cfi_startproc
	movq	24(%rdi), %rax
	ret
	.cfi_endproc
.LFE3500:
	.size	_ZNK8opendnp318BufferedCollectionINS_7IndexedINS_8IINValueEEEZNS_11RangeParser23InvokeRangeBitfieldTypeIS2_EEvRKNS_12HeaderRecordERKNS_5RangeERKN7openpal6RSliceERNS_12IAPDUHandlerEEUlRSD_jE_E5CountEv, .-_ZNK8opendnp318BufferedCollectionINS_7IndexedINS_8IINValueEEEZNS_11RangeParser23InvokeRangeBitfieldTypeIS2_EEvRKNS_12HeaderRecordERKNS_5RangeERKN7openpal6RSliceERNS_12IAPDUHandlerEEUlRSD_jE_E5CountEv
	.section	.text._ZNK8opendnp318BufferedCollectionINS_7IndexedINS_15TimeAndIntervalEEEZNS_11RangeParser13InvokeRangeOfINS_11Group50Var4EEEvRKNS_12HeaderRecordERKNS_5RangeERKN7openpal6RSliceERNS_12IAPDUHandlerEEUlRSE_jE_E5CountEv,"axG",@progbits,_ZNK8opendnp318BufferedCollectionINS_7IndexedINS_15TimeAndIntervalEEEZNS_11RangeParser13InvokeRangeOfINS_11Group50Var4EEEvRKNS_12HeaderRecordERKNS_5RangeERKN7openpal6RSliceERNS_12IAPDUHandlerEEUlRSE_jE_E5CountEv,comdat
	.align 2
	.p2align 4,,15
	.weak	_ZNK8opendnp318BufferedCollectionINS_7IndexedINS_15TimeAndIntervalEEEZNS_11RangeParser13InvokeRangeOfINS_11Group50Var4EEEvRKNS_12HeaderRecordERKNS_5RangeERKN7openpal6RSliceERNS_12IAPDUHandlerEEUlRSE_jE_E5CountEv
	.type	_ZNK8opendnp318BufferedCollectionINS_7IndexedINS_15TimeAndIntervalEEEZNS_11RangeParser13InvokeRangeOfINS_11Group50Var4EEEvRKNS_12HeaderRecordERKNS_5RangeERKN7openpal6RSliceERNS_12IAPDUHandlerEEUlRSE_jE_E5CountEv, @function
_ZNK8opendnp318BufferedCollectionINS_7IndexedINS_15TimeAndIntervalEEEZNS_11RangeParser13InvokeRangeOfINS_11Group50Var4EEEvRKNS_12HeaderRecordERKNS_5RangeERKN7openpal6RSliceERNS_12IAPDUHandlerEEUlRSE_jE_E5CountEv:
.LFB3502:
	.cfi_startproc
	movq	24(%rdi), %rax
	ret
	.cfi_endproc
.LFE3502:
	.size	_ZNK8opendnp318BufferedCollectionINS_7IndexedINS_15TimeAndIntervalEEEZNS_11RangeParser13InvokeRangeOfINS_11Group50Var4EEEvRKNS_12HeaderRecordERKNS_5RangeERKN7openpal6RSliceERNS_12IAPDUHandlerEEUlRSE_jE_E5CountEv, .-_ZNK8opendnp318BufferedCollectionINS_7IndexedINS_15TimeAndIntervalEEEZNS_11RangeParser13InvokeRangeOfINS_11Group50Var4EEEvRKNS_12HeaderRecordERKNS_5RangeERKN7openpal6RSliceERNS_12IAPDUHandlerEEUlRSE_jE_E5CountEv
	.section	.text._ZNK8opendnp318BufferedCollectionINS_7IndexedINS_18AnalogOutputStatusEEEZNS_11RangeParser13InvokeRangeOfINS_11Group40Var4EEEvRKNS_12HeaderRecordERKNS_5RangeERKN7openpal6RSliceERNS_12IAPDUHandlerEEUlRSE_jE_E5CountEv,"axG",@progbits,_ZNK8opendnp318BufferedCollectionINS_7IndexedINS_18AnalogOutputStatusEEEZNS_11RangeParser13InvokeRangeOfINS_11Group40Var4EEEvRKNS_12HeaderRecordERKNS_5RangeERKN7openpal6RSliceERNS_12IAPDUHandlerEEUlRSE_jE_E5CountEv,comdat
	.align 2
	.p2align 4,,15
	.weak	_ZNK8opendnp318BufferedCollectionINS_7IndexedINS_18AnalogOutputStatusEEEZNS_11RangeParser13InvokeRangeOfINS_11Group40Var4EEEvRKNS_12HeaderRecordERKNS_5RangeERKN7openpal6RSliceERNS_12IAPDUHandlerEEUlRSE_jE_E5CountEv
	.type	_ZNK8opendnp318BufferedCollectionINS_7IndexedINS_18AnalogOutputStatusEEEZNS_11RangeParser13InvokeRangeOfINS_11Group40Var4EEEvRKNS_12HeaderRecordERKNS_5RangeERKN7openpal6RSliceERNS_12IAPDUHandlerEEUlRSE_jE_E5CountEv, @function
_ZNK8opendnp318BufferedCollectionINS_7IndexedINS_18AnalogOutputStatusEEEZNS_11RangeParser13InvokeRangeOfINS_11Group40Var4EEEvRKNS_12HeaderRecordERKNS_5RangeERKN7openpal6RSliceERNS_12IAPDUHandlerEEUlRSE_jE_E5CountEv:
.LFB3504:
	.cfi_startproc
	movq	24(%rdi), %rax
	ret
	.cfi_endproc
.LFE3504:
	.size	_ZNK8opendnp318BufferedCollectionINS_7IndexedINS_18AnalogOutputStatusEEEZNS_11RangeParser13InvokeRangeOfINS_11Group40Var4EEEvRKNS_12HeaderRecordERKNS_5RangeERKN7openpal6RSliceERNS_12IAPDUHandlerEEUlRSE_jE_E5CountEv, .-_ZNK8opendnp318BufferedCollectionINS_7IndexedINS_18AnalogOutputStatusEEEZNS_11RangeParser13InvokeRangeOfINS_11Group40Var4EEEvRKNS_12HeaderRecordERKNS_5RangeERKN7openpal6RSliceERNS_12IAPDUHandlerEEUlRSE_jE_E5CountEv
	.section	.text._ZNK8opendnp318BufferedCollectionINS_7IndexedINS_18AnalogOutputStatusEEEZNS_11RangeParser13InvokeRangeOfINS_11Group40Var3EEEvRKNS_12HeaderRecordERKNS_5RangeERKN7openpal6RSliceERNS_12IAPDUHandlerEEUlRSE_jE_E5CountEv,"axG",@progbits,_ZNK8opendnp318BufferedCollectionINS_7IndexedINS_18AnalogOutputStatusEEEZNS_11RangeParser13InvokeRangeOfINS_11Group40Var3EEEvRKNS_12HeaderRecordERKNS_5RangeERKN7openpal6RSliceERNS_12IAPDUHandlerEEUlRSE_jE_E5CountEv,comdat
	.align 2
	.p2align 4,,15
	.weak	_ZNK8opendnp318BufferedCollectionINS_7IndexedINS_18AnalogOutputStatusEEEZNS_11RangeParser13InvokeRangeOfINS_11Group40Var3EEEvRKNS_12HeaderRecordERKNS_5RangeERKN7openpal6RSliceERNS_12IAPDUHandlerEEUlRSE_jE_E5CountEv
	.type	_ZNK8opendnp318BufferedCollectionINS_7IndexedINS_18AnalogOutputStatusEEEZNS_11RangeParser13InvokeRangeOfINS_11Group40Var3EEEvRKNS_12HeaderRecordERKNS_5RangeERKN7openpal6RSliceERNS_12IAPDUHandlerEEUlRSE_jE_E5CountEv, @function
_ZNK8opendnp318BufferedCollectionINS_7IndexedINS_18AnalogOutputStatusEEEZNS_11RangeParser13InvokeRangeOfINS_11Group40Var3EEEvRKNS_12HeaderRecordERKNS_5RangeERKN7openpal6RSliceERNS_12IAPDUHandlerEEUlRSE_jE_E5CountEv:
.LFB3506:
	.cfi_startproc
	movq	24(%rdi), %rax
	ret
	.cfi_endproc
.LFE3506:
	.size	_ZNK8opendnp318BufferedCollectionINS_7IndexedINS_18AnalogOutputStatusEEEZNS_11RangeParser13InvokeRangeOfINS_11Group40Var3EEEvRKNS_12HeaderRecordERKNS_5RangeERKN7openpal6RSliceERNS_12IAPDUHandlerEEUlRSE_jE_E5CountEv, .-_ZNK8opendnp318BufferedCollectionINS_7IndexedINS_18AnalogOutputStatusEEEZNS_11RangeParser13InvokeRangeOfINS_11Group40Var3EEEvRKNS_12HeaderRecordERKNS_5RangeERKN7openpal6RSliceERNS_12IAPDUHandlerEEUlRSE_jE_E5CountEv
	.section	.text._ZNK8opendnp318BufferedCollectionINS_7IndexedINS_18AnalogOutputStatusEEEZNS_11RangeParser13InvokeRangeOfINS_11Group40Var2EEEvRKNS_12HeaderRecordERKNS_5RangeERKN7openpal6RSliceERNS_12IAPDUHandlerEEUlRSE_jE_E5CountEv,"axG",@progbits,_ZNK8opendnp318BufferedCollectionINS_7IndexedINS_18AnalogOutputStatusEEEZNS_11RangeParser13InvokeRangeOfINS_11Group40Var2EEEvRKNS_12HeaderRecordERKNS_5RangeERKN7openpal6RSliceERNS_12IAPDUHandlerEEUlRSE_jE_E5CountEv,comdat
	.align 2
	.p2align 4,,15
	.weak	_ZNK8opendnp318BufferedCollectionINS_7IndexedINS_18AnalogOutputStatusEEEZNS_11RangeParser13InvokeRangeOfINS_11Group40Var2EEEvRKNS_12HeaderRecordERKNS_5RangeERKN7openpal6RSliceERNS_12IAPDUHandlerEEUlRSE_jE_E5CountEv
	.type	_ZNK8opendnp318BufferedCollectionINS_7IndexedINS_18AnalogOutputStatusEEEZNS_11RangeParser13InvokeRangeOfINS_11Group40Var2EEEvRKNS_12HeaderRecordERKNS_5RangeERKN7openpal6RSliceERNS_12IAPDUHandlerEEUlRSE_jE_E5CountEv, @function
_ZNK8opendnp318BufferedCollectionINS_7IndexedINS_18AnalogOutputStatusEEEZNS_11RangeParser13InvokeRangeOfINS_11Group40Var2EEEvRKNS_12HeaderRecordERKNS_5RangeERKN7openpal6RSliceERNS_12IAPDUHandlerEEUlRSE_jE_E5CountEv:
.LFB3508:
	.cfi_startproc
	movq	24(%rdi), %rax
	ret
	.cfi_endproc
.LFE3508:
	.size	_ZNK8opendnp318BufferedCollectionINS_7IndexedINS_18AnalogOutputStatusEEEZNS_11RangeParser13InvokeRangeOfINS_11Group40Var2EEEvRKNS_12HeaderRecordERKNS_5RangeERKN7openpal6RSliceERNS_12IAPDUHandlerEEUlRSE_jE_E5CountEv, .-_ZNK8opendnp318BufferedCollectionINS_7IndexedINS_18AnalogOutputStatusEEEZNS_11RangeParser13InvokeRangeOfINS_11Group40Var2EEEvRKNS_12HeaderRecordERKNS_5RangeERKN7openpal6RSliceERNS_12IAPDUHandlerEEUlRSE_jE_E5CountEv
	.section	.text._ZNK8opendnp318BufferedCollectionINS_7IndexedINS_18AnalogOutputStatusEEEZNS_11RangeParser13InvokeRangeOfINS_11Group40Var1EEEvRKNS_12HeaderRecordERKNS_5RangeERKN7openpal6RSliceERNS_12IAPDUHandlerEEUlRSE_jE_E5CountEv,"axG",@progbits,_ZNK8opendnp318BufferedCollectionINS_7IndexedINS_18AnalogOutputStatusEEEZNS_11RangeParser13InvokeRangeOfINS_11Group40Var1EEEvRKNS_12HeaderRecordERKNS_5RangeERKN7openpal6RSliceERNS_12IAPDUHandlerEEUlRSE_jE_E5CountEv,comdat
	.align 2
	.p2align 4,,15
	.weak	_ZNK8opendnp318BufferedCollectionINS_7IndexedINS_18AnalogOutputStatusEEEZNS_11RangeParser13InvokeRangeOfINS_11Group40Var1EEEvRKNS_12HeaderRecordERKNS_5RangeERKN7openpal6RSliceERNS_12IAPDUHandlerEEUlRSE_jE_E5CountEv
	.type	_ZNK8opendnp318BufferedCollectionINS_7IndexedINS_18AnalogOutputStatusEEEZNS_11RangeParser13InvokeRangeOfINS_11Group40Var1EEEvRKNS_12HeaderRecordERKNS_5RangeERKN7openpal6RSliceERNS_12IAPDUHandlerEEUlRSE_jE_E5CountEv, @function
_ZNK8opendnp318BufferedCollectionINS_7IndexedINS_18AnalogOutputStatusEEEZNS_11RangeParser13InvokeRangeOfINS_11Group40Var1EEEvRKNS_12HeaderRecordERKNS_5RangeERKN7openpal6RSliceERNS_12IAPDUHandlerEEUlRSE_jE_E5CountEv:
.LFB3510:
	.cfi_startproc
	movq	24(%rdi), %rax
	ret
	.cfi_endproc
.LFE3510:
	.size	_ZNK8opendnp318BufferedCollectionINS_7IndexedINS_18AnalogOutputStatusEEEZNS_11RangeParser13InvokeRangeOfINS_11Group40Var1EEEvRKNS_12HeaderRecordERKNS_5RangeERKN7openpal6RSliceERNS_12IAPDUHandlerEEUlRSE_jE_E5CountEv, .-_ZNK8opendnp318BufferedCollectionINS_7IndexedINS_18AnalogOutputStatusEEEZNS_11RangeParser13InvokeRangeOfINS_11Group40Var1EEEvRKNS_12HeaderRecordERKNS_5RangeERKN7openpal6RSliceERNS_12IAPDUHandlerEEUlRSE_jE_E5CountEv
	.section	.text._ZNK8opendnp318BufferedCollectionINS_7IndexedINS_6AnalogEEEZNS_11RangeParser13InvokeRangeOfINS_11Group30Var6EEEvRKNS_12HeaderRecordERKNS_5RangeERKN7openpal6RSliceERNS_12IAPDUHandlerEEUlRSE_jE_E5CountEv,"axG",@progbits,_ZNK8opendnp318BufferedCollectionINS_7IndexedINS_6AnalogEEEZNS_11RangeParser13InvokeRangeOfINS_11Group30Var6EEEvRKNS_12HeaderRecordERKNS_5RangeERKN7openpal6RSliceERNS_12IAPDUHandlerEEUlRSE_jE_E5CountEv,comdat
	.align 2
	.p2align 4,,15
	.weak	_ZNK8opendnp318BufferedCollectionINS_7IndexedINS_6AnalogEEEZNS_11RangeParser13InvokeRangeOfINS_11Group30Var6EEEvRKNS_12HeaderRecordERKNS_5RangeERKN7openpal6RSliceERNS_12IAPDUHandlerEEUlRSE_jE_E5CountEv
	.type	_ZNK8opendnp318BufferedCollectionINS_7IndexedINS_6AnalogEEEZNS_11RangeParser13InvokeRangeOfINS_11Group30Var6EEEvRKNS_12HeaderRecordERKNS_5RangeERKN7openpal6RSliceERNS_12IAPDUHandlerEEUlRSE_jE_E5CountEv, @function
_ZNK8opendnp318BufferedCollectionINS_7IndexedINS_6AnalogEEEZNS_11RangeParser13InvokeRangeOfINS_11Group30Var6EEEvRKNS_12HeaderRecordERKNS_5RangeERKN7openpal6RSliceERNS_12IAPDUHandlerEEUlRSE_jE_E5CountEv:
.LFB3512:
	.cfi_startproc
	movq	24(%rdi), %rax
	ret
	.cfi_endproc
.LFE3512:
	.size	_ZNK8opendnp318BufferedCollectionINS_7IndexedINS_6AnalogEEEZNS_11RangeParser13InvokeRangeOfINS_11Group30Var6EEEvRKNS_12HeaderRecordERKNS_5RangeERKN7openpal6RSliceERNS_12IAPDUHandlerEEUlRSE_jE_E5CountEv, .-_ZNK8opendnp318BufferedCollectionINS_7IndexedINS_6AnalogEEEZNS_11RangeParser13InvokeRangeOfINS_11Group30Var6EEEvRKNS_12HeaderRecordERKNS_5RangeERKN7openpal6RSliceERNS_12IAPDUHandlerEEUlRSE_jE_E5CountEv
	.section	.text._ZNK8opendnp318BufferedCollectionINS_7IndexedINS_6AnalogEEEZNS_11RangeParser13InvokeRangeOfINS_11Group30Var5EEEvRKNS_12HeaderRecordERKNS_5RangeERKN7openpal6RSliceERNS_12IAPDUHandlerEEUlRSE_jE_E5CountEv,"axG",@progbits,_ZNK8opendnp318BufferedCollectionINS_7IndexedINS_6AnalogEEEZNS_11RangeParser13InvokeRangeOfINS_11Group30Var5EEEvRKNS_12HeaderRecordERKNS_5RangeERKN7openpal6RSliceERNS_12IAPDUHandlerEEUlRSE_jE_E5CountEv,comdat
	.align 2
	.p2align 4,,15
	.weak	_ZNK8opendnp318BufferedCollectionINS_7IndexedINS_6AnalogEEEZNS_11RangeParser13InvokeRangeOfINS_11Group30Var5EEEvRKNS_12HeaderRecordERKNS_5RangeERKN7openpal6RSliceERNS_12IAPDUHandlerEEUlRSE_jE_E5CountEv
	.type	_ZNK8opendnp318BufferedCollectionINS_7IndexedINS_6AnalogEEEZNS_11RangeParser13InvokeRangeOfINS_11Group30Var5EEEvRKNS_12HeaderRecordERKNS_5RangeERKN7openpal6RSliceERNS_12IAPDUHandlerEEUlRSE_jE_E5CountEv, @function
_ZNK8opendnp318BufferedCollectionINS_7IndexedINS_6AnalogEEEZNS_11RangeParser13InvokeRangeOfINS_11Group30Var5EEEvRKNS_12HeaderRecordERKNS_5RangeERKN7openpal6RSliceERNS_12IAPDUHandlerEEUlRSE_jE_E5CountEv:
.LFB3514:
	.cfi_startproc
	movq	24(%rdi), %rax
	ret
	.cfi_endproc
.LFE3514:
	.size	_ZNK8opendnp318BufferedCollectionINS_7IndexedINS_6AnalogEEEZNS_11RangeParser13InvokeRangeOfINS_11Group30Var5EEEvRKNS_12HeaderRecordERKNS_5RangeERKN7openpal6RSliceERNS_12IAPDUHandlerEEUlRSE_jE_E5CountEv, .-_ZNK8opendnp318BufferedCollectionINS_7IndexedINS_6AnalogEEEZNS_11RangeParser13InvokeRangeOfINS_11Group30Var5EEEvRKNS_12HeaderRecordERKNS_5RangeERKN7openpal6RSliceERNS_12IAPDUHandlerEEUlRSE_jE_E5CountEv
	.section	.text._ZNK8opendnp318BufferedCollectionINS_7IndexedINS_6AnalogEEEZNS_11RangeParser13InvokeRangeOfINS_11Group30Var4EEEvRKNS_12HeaderRecordERKNS_5RangeERKN7openpal6RSliceERNS_12IAPDUHandlerEEUlRSE_jE_E5CountEv,"axG",@progbits,_ZNK8opendnp318BufferedCollectionINS_7IndexedINS_6AnalogEEEZNS_11RangeParser13InvokeRangeOfINS_11Group30Var4EEEvRKNS_12HeaderRecordERKNS_5RangeERKN7openpal6RSliceERNS_12IAPDUHandlerEEUlRSE_jE_E5CountEv,comdat
	.align 2
	.p2align 4,,15
	.weak	_ZNK8opendnp318BufferedCollectionINS_7IndexedINS_6AnalogEEEZNS_11RangeParser13InvokeRangeOfINS_11Group30Var4EEEvRKNS_12HeaderRecordERKNS_5RangeERKN7openpal6RSliceERNS_12IAPDUHandlerEEUlRSE_jE_E5CountEv
	.type	_ZNK8opendnp318BufferedCollectionINS_7IndexedINS_6AnalogEEEZNS_11RangeParser13InvokeRangeOfINS_11Group30Var4EEEvRKNS_12HeaderRecordERKNS_5RangeERKN7openpal6RSliceERNS_12IAPDUHandlerEEUlRSE_jE_E5CountEv, @function
_ZNK8opendnp318BufferedCollectionINS_7IndexedINS_6AnalogEEEZNS_11RangeParser13InvokeRangeOfINS_11Group30Var4EEEvRKNS_12HeaderRecordERKNS_5RangeERKN7openpal6RSliceERNS_12IAPDUHandlerEEUlRSE_jE_E5CountEv:
.LFB3516:
	.cfi_startproc
	movq	24(%rdi), %rax
	ret
	.cfi_endproc
.LFE3516:
	.size	_ZNK8opendnp318BufferedCollectionINS_7IndexedINS_6AnalogEEEZNS_11RangeParser13InvokeRangeOfINS_11Group30Var4EEEvRKNS_12HeaderRecordERKNS_5RangeERKN7openpal6RSliceERNS_12IAPDUHandlerEEUlRSE_jE_E5CountEv, .-_ZNK8opendnp318BufferedCollectionINS_7IndexedINS_6AnalogEEEZNS_11RangeParser13InvokeRangeOfINS_11Group30Var4EEEvRKNS_12HeaderRecordERKNS_5RangeERKN7openpal6RSliceERNS_12IAPDUHandlerEEUlRSE_jE_E5CountEv
	.section	.text._ZNK8opendnp318BufferedCollectionINS_7IndexedINS_6AnalogEEEZNS_11RangeParser13InvokeRangeOfINS_11Group30Var3EEEvRKNS_12HeaderRecordERKNS_5RangeERKN7openpal6RSliceERNS_12IAPDUHandlerEEUlRSE_jE_E5CountEv,"axG",@progbits,_ZNK8opendnp318BufferedCollectionINS_7IndexedINS_6AnalogEEEZNS_11RangeParser13InvokeRangeOfINS_11Group30Var3EEEvRKNS_12HeaderRecordERKNS_5RangeERKN7openpal6RSliceERNS_12IAPDUHandlerEEUlRSE_jE_E5CountEv,comdat
	.align 2
	.p2align 4,,15
	.weak	_ZNK8opendnp318BufferedCollectionINS_7IndexedINS_6AnalogEEEZNS_11RangeParser13InvokeRangeOfINS_11Group30Var3EEEvRKNS_12HeaderRecordERKNS_5RangeERKN7openpal6RSliceERNS_12IAPDUHandlerEEUlRSE_jE_E5CountEv
	.type	_ZNK8opendnp318BufferedCollectionINS_7IndexedINS_6AnalogEEEZNS_11RangeParser13InvokeRangeOfINS_11Group30Var3EEEvRKNS_12HeaderRecordERKNS_5RangeERKN7openpal6RSliceERNS_12IAPDUHandlerEEUlRSE_jE_E5CountEv, @function
_ZNK8opendnp318BufferedCollectionINS_7IndexedINS_6AnalogEEEZNS_11RangeParser13InvokeRangeOfINS_11Group30Var3EEEvRKNS_12HeaderRecordERKNS_5RangeERKN7openpal6RSliceERNS_12IAPDUHandlerEEUlRSE_jE_E5CountEv:
.LFB3518:
	.cfi_startproc
	movq	24(%rdi), %rax
	ret
	.cfi_endproc
.LFE3518:
	.size	_ZNK8opendnp318BufferedCollectionINS_7IndexedINS_6AnalogEEEZNS_11RangeParser13InvokeRangeOfINS_11Group30Var3EEEvRKNS_12HeaderRecordERKNS_5RangeERKN7openpal6RSliceERNS_12IAPDUHandlerEEUlRSE_jE_E5CountEv, .-_ZNK8opendnp318BufferedCollectionINS_7IndexedINS_6AnalogEEEZNS_11RangeParser13InvokeRangeOfINS_11Group30Var3EEEvRKNS_12HeaderRecordERKNS_5RangeERKN7openpal6RSliceERNS_12IAPDUHandlerEEUlRSE_jE_E5CountEv
	.section	.text._ZNK8opendnp318BufferedCollectionINS_7IndexedINS_6AnalogEEEZNS_11RangeParser13InvokeRangeOfINS_11Group30Var2EEEvRKNS_12HeaderRecordERKNS_5RangeERKN7openpal6RSliceERNS_12IAPDUHandlerEEUlRSE_jE_E5CountEv,"axG",@progbits,_ZNK8opendnp318BufferedCollectionINS_7IndexedINS_6AnalogEEEZNS_11RangeParser13InvokeRangeOfINS_11Group30Var2EEEvRKNS_12HeaderRecordERKNS_5RangeERKN7openpal6RSliceERNS_12IAPDUHandlerEEUlRSE_jE_E5CountEv,comdat
	.align 2
	.p2align 4,,15
	.weak	_ZNK8opendnp318BufferedCollectionINS_7IndexedINS_6AnalogEEEZNS_11RangeParser13InvokeRangeOfINS_11Group30Var2EEEvRKNS_12HeaderRecordERKNS_5RangeERKN7openpal6RSliceERNS_12IAPDUHandlerEEUlRSE_jE_E5CountEv
	.type	_ZNK8opendnp318BufferedCollectionINS_7IndexedINS_6AnalogEEEZNS_11RangeParser13InvokeRangeOfINS_11Group30Var2EEEvRKNS_12HeaderRecordERKNS_5RangeERKN7openpal6RSliceERNS_12IAPDUHandlerEEUlRSE_jE_E5CountEv, @function
_ZNK8opendnp318BufferedCollectionINS_7IndexedINS_6AnalogEEEZNS_11RangeParser13InvokeRangeOfINS_11Group30Var2EEEvRKNS_12HeaderRecordERKNS_5RangeERKN7openpal6RSliceERNS_12IAPDUHandlerEEUlRSE_jE_E5CountEv:
.LFB3520:
	.cfi_startproc
	movq	24(%rdi), %rax
	ret
	.cfi_endproc
.LFE3520:
	.size	_ZNK8opendnp318BufferedCollectionINS_7IndexedINS_6AnalogEEEZNS_11RangeParser13InvokeRangeOfINS_11Group30Var2EEEvRKNS_12HeaderRecordERKNS_5RangeERKN7openpal6RSliceERNS_12IAPDUHandlerEEUlRSE_jE_E5CountEv, .-_ZNK8opendnp318BufferedCollectionINS_7IndexedINS_6AnalogEEEZNS_11RangeParser13InvokeRangeOfINS_11Group30Var2EEEvRKNS_12HeaderRecordERKNS_5RangeERKN7openpal6RSliceERNS_12IAPDUHandlerEEUlRSE_jE_E5CountEv
	.section	.text._ZNK8opendnp318BufferedCollectionINS_7IndexedINS_6AnalogEEEZNS_11RangeParser13InvokeRangeOfINS_11Group30Var1EEEvRKNS_12HeaderRecordERKNS_5RangeERKN7openpal6RSliceERNS_12IAPDUHandlerEEUlRSE_jE_E5CountEv,"axG",@progbits,_ZNK8opendnp318BufferedCollectionINS_7IndexedINS_6AnalogEEEZNS_11RangeParser13InvokeRangeOfINS_11Group30Var1EEEvRKNS_12HeaderRecordERKNS_5RangeERKN7openpal6RSliceERNS_12IAPDUHandlerEEUlRSE_jE_E5CountEv,comdat
	.align 2
	.p2align 4,,15
	.weak	_ZNK8opendnp318BufferedCollectionINS_7IndexedINS_6AnalogEEEZNS_11RangeParser13InvokeRangeOfINS_11Group30Var1EEEvRKNS_12HeaderRecordERKNS_5RangeERKN7openpal6RSliceERNS_12IAPDUHandlerEEUlRSE_jE_E5CountEv
	.type	_ZNK8opendnp318BufferedCollectionINS_7IndexedINS_6AnalogEEEZNS_11RangeParser13InvokeRangeOfINS_11Group30Var1EEEvRKNS_12HeaderRecordERKNS_5RangeERKN7openpal6RSliceERNS_12IAPDUHandlerEEUlRSE_jE_E5CountEv, @function
_ZNK8opendnp318BufferedCollectionINS_7IndexedINS_6AnalogEEEZNS_11RangeParser13InvokeRangeOfINS_11Group30Var1EEEvRKNS_12HeaderRecordERKNS_5RangeERKN7openpal6RSliceERNS_12IAPDUHandlerEEUlRSE_jE_E5CountEv:
.LFB3522:
	.cfi_startproc
	movq	24(%rdi), %rax
	ret
	.cfi_endproc
.LFE3522:
	.size	_ZNK8opendnp318BufferedCollectionINS_7IndexedINS_6AnalogEEEZNS_11RangeParser13InvokeRangeOfINS_11Group30Var1EEEvRKNS_12HeaderRecordERKNS_5RangeERKN7openpal6RSliceERNS_12IAPDUHandlerEEUlRSE_jE_E5CountEv, .-_ZNK8opendnp318BufferedCollectionINS_7IndexedINS_6AnalogEEEZNS_11RangeParser13InvokeRangeOfINS_11Group30Var1EEEvRKNS_12HeaderRecordERKNS_5RangeERKN7openpal6RSliceERNS_12IAPDUHandlerEEUlRSE_jE_E5CountEv
	.section	.text._ZNK8opendnp318BufferedCollectionINS_7IndexedINS_13FrozenCounterEEEZNS_11RangeParser13InvokeRangeOfINS_12Group21Var10EEEvRKNS_12HeaderRecordERKNS_5RangeERKN7openpal6RSliceERNS_12IAPDUHandlerEEUlRSE_jE_E5CountEv,"axG",@progbits,_ZNK8opendnp318BufferedCollectionINS_7IndexedINS_13FrozenCounterEEEZNS_11RangeParser13InvokeRangeOfINS_12Group21Var10EEEvRKNS_12HeaderRecordERKNS_5RangeERKN7openpal6RSliceERNS_12IAPDUHandlerEEUlRSE_jE_E5CountEv,comdat
	.align 2
	.p2align 4,,15
	.weak	_ZNK8opendnp318BufferedCollectionINS_7IndexedINS_13FrozenCounterEEEZNS_11RangeParser13InvokeRangeOfINS_12Group21Var10EEEvRKNS_12HeaderRecordERKNS_5RangeERKN7openpal6RSliceERNS_12IAPDUHandlerEEUlRSE_jE_E5CountEv
	.type	_ZNK8opendnp318BufferedCollectionINS_7IndexedINS_13FrozenCounterEEEZNS_11RangeParser13InvokeRangeOfINS_12Group21Var10EEEvRKNS_12HeaderRecordERKNS_5RangeERKN7openpal6RSliceERNS_12IAPDUHandlerEEUlRSE_jE_E5CountEv, @function
_ZNK8opendnp318BufferedCollectionINS_7IndexedINS_13FrozenCounterEEEZNS_11RangeParser13InvokeRangeOfINS_12Group21Var10EEEvRKNS_12HeaderRecordERKNS_5RangeERKN7openpal6RSliceERNS_12IAPDUHandlerEEUlRSE_jE_E5CountEv:
.LFB3524:
	.cfi_startproc
	movq	24(%rdi), %rax
	ret
	.cfi_endproc
.LFE3524:
	.size	_ZNK8opendnp318BufferedCollectionINS_7IndexedINS_13FrozenCounterEEEZNS_11RangeParser13InvokeRangeOfINS_12Group21Var10EEEvRKNS_12HeaderRecordERKNS_5RangeERKN7openpal6RSliceERNS_12IAPDUHandlerEEUlRSE_jE_E5CountEv, .-_ZNK8opendnp318BufferedCollectionINS_7IndexedINS_13FrozenCounterEEEZNS_11RangeParser13InvokeRangeOfINS_12Group21Var10EEEvRKNS_12HeaderRecordERKNS_5RangeERKN7openpal6RSliceERNS_12IAPDUHandlerEEUlRSE_jE_E5CountEv
	.section	.text._ZNK8opendnp318BufferedCollectionINS_7IndexedINS_13FrozenCounterEEEZNS_11RangeParser13InvokeRangeOfINS_11Group21Var9EEEvRKNS_12HeaderRecordERKNS_5RangeERKN7openpal6RSliceERNS_12IAPDUHandlerEEUlRSE_jE_E5CountEv,"axG",@progbits,_ZNK8opendnp318BufferedCollectionINS_7IndexedINS_13FrozenCounterEEEZNS_11RangeParser13InvokeRangeOfINS_11Group21Var9EEEvRKNS_12HeaderRecordERKNS_5RangeERKN7openpal6RSliceERNS_12IAPDUHandlerEEUlRSE_jE_E5CountEv,comdat
	.align 2
	.p2align 4,,15
	.weak	_ZNK8opendnp318BufferedCollectionINS_7IndexedINS_13FrozenCounterEEEZNS_11RangeParser13InvokeRangeOfINS_11Group21Var9EEEvRKNS_12HeaderRecordERKNS_5RangeERKN7openpal6RSliceERNS_12IAPDUHandlerEEUlRSE_jE_E5CountEv
	.type	_ZNK8opendnp318BufferedCollectionINS_7IndexedINS_13FrozenCounterEEEZNS_11RangeParser13InvokeRangeOfINS_11Group21Var9EEEvRKNS_12HeaderRecordERKNS_5RangeERKN7openpal6RSliceERNS_12IAPDUHandlerEEUlRSE_jE_E5CountEv, @function
_ZNK8opendnp318BufferedCollectionINS_7IndexedINS_13FrozenCounterEEEZNS_11RangeParser13InvokeRangeOfINS_11Group21Var9EEEvRKNS_12HeaderRecordERKNS_5RangeERKN7openpal6RSliceERNS_12IAPDUHandlerEEUlRSE_jE_E5CountEv:
.LFB3526:
	.cfi_startproc
	movq	24(%rdi), %rax
	ret
	.cfi_endproc
.LFE3526:
	.size	_ZNK8opendnp318BufferedCollectionINS_7IndexedINS_13FrozenCounterEEEZNS_11RangeParser13InvokeRangeOfINS_11Group21Var9EEEvRKNS_12HeaderRecordERKNS_5RangeERKN7openpal6RSliceERNS_12IAPDUHandlerEEUlRSE_jE_E5CountEv, .-_ZNK8opendnp318BufferedCollectionINS_7IndexedINS_13FrozenCounterEEEZNS_11RangeParser13InvokeRangeOfINS_11Group21Var9EEEvRKNS_12HeaderRecordERKNS_5RangeERKN7openpal6RSliceERNS_12IAPDUHandlerEEUlRSE_jE_E5CountEv
	.section	.text._ZNK8opendnp318BufferedCollectionINS_7IndexedINS_13FrozenCounterEEEZNS_11RangeParser13InvokeRangeOfINS_11Group21Var6EEEvRKNS_12HeaderRecordERKNS_5RangeERKN7openpal6RSliceERNS_12IAPDUHandlerEEUlRSE_jE_E5CountEv,"axG",@progbits,_ZNK8opendnp318BufferedCollectionINS_7IndexedINS_13FrozenCounterEEEZNS_11RangeParser13InvokeRangeOfINS_11Group21Var6EEEvRKNS_12HeaderRecordERKNS_5RangeERKN7openpal6RSliceERNS_12IAPDUHandlerEEUlRSE_jE_E5CountEv,comdat
	.align 2
	.p2align 4,,15
	.weak	_ZNK8opendnp318BufferedCollectionINS_7IndexedINS_13FrozenCounterEEEZNS_11RangeParser13InvokeRangeOfINS_11Group21Var6EEEvRKNS_12HeaderRecordERKNS_5RangeERKN7openpal6RSliceERNS_12IAPDUHandlerEEUlRSE_jE_E5CountEv
	.type	_ZNK8opendnp318BufferedCollectionINS_7IndexedINS_13FrozenCounterEEEZNS_11RangeParser13InvokeRangeOfINS_11Group21Var6EEEvRKNS_12HeaderRecordERKNS_5RangeERKN7openpal6RSliceERNS_12IAPDUHandlerEEUlRSE_jE_E5CountEv, @function
_ZNK8opendnp318BufferedCollectionINS_7IndexedINS_13FrozenCounterEEEZNS_11RangeParser13InvokeRangeOfINS_11Group21Var6EEEvRKNS_12HeaderRecordERKNS_5RangeERKN7openpal6RSliceERNS_12IAPDUHandlerEEUlRSE_jE_E5CountEv:
.LFB3528:
	.cfi_startproc
	movq	24(%rdi), %rax
	ret
	.cfi_endproc
.LFE3528:
	.size	_ZNK8opendnp318BufferedCollectionINS_7IndexedINS_13FrozenCounterEEEZNS_11RangeParser13InvokeRangeOfINS_11Group21Var6EEEvRKNS_12HeaderRecordERKNS_5RangeERKN7openpal6RSliceERNS_12IAPDUHandlerEEUlRSE_jE_E5CountEv, .-_ZNK8opendnp318BufferedCollectionINS_7IndexedINS_13FrozenCounterEEEZNS_11RangeParser13InvokeRangeOfINS_11Group21Var6EEEvRKNS_12HeaderRecordERKNS_5RangeERKN7openpal6RSliceERNS_12IAPDUHandlerEEUlRSE_jE_E5CountEv
	.section	.text._ZNK8opendnp318BufferedCollectionINS_7IndexedINS_13FrozenCounterEEEZNS_11RangeParser13InvokeRangeOfINS_11Group21Var5EEEvRKNS_12HeaderRecordERKNS_5RangeERKN7openpal6RSliceERNS_12IAPDUHandlerEEUlRSE_jE_E5CountEv,"axG",@progbits,_ZNK8opendnp318BufferedCollectionINS_7IndexedINS_13FrozenCounterEEEZNS_11RangeParser13InvokeRangeOfINS_11Group21Var5EEEvRKNS_12HeaderRecordERKNS_5RangeERKN7openpal6RSliceERNS_12IAPDUHandlerEEUlRSE_jE_E5CountEv,comdat
	.align 2
	.p2align 4,,15
	.weak	_ZNK8opendnp318BufferedCollectionINS_7IndexedINS_13FrozenCounterEEEZNS_11RangeParser13InvokeRangeOfINS_11Group21Var5EEEvRKNS_12HeaderRecordERKNS_5RangeERKN7openpal6RSliceERNS_12IAPDUHandlerEEUlRSE_jE_E5CountEv
	.type	_ZNK8opendnp318BufferedCollectionINS_7IndexedINS_13FrozenCounterEEEZNS_11RangeParser13InvokeRangeOfINS_11Group21Var5EEEvRKNS_12HeaderRecordERKNS_5RangeERKN7openpal6RSliceERNS_12IAPDUHandlerEEUlRSE_jE_E5CountEv, @function
_ZNK8opendnp318BufferedCollectionINS_7IndexedINS_13FrozenCounterEEEZNS_11RangeParser13InvokeRangeOfINS_11Group21Var5EEEvRKNS_12HeaderRecordERKNS_5RangeERKN7openpal6RSliceERNS_12IAPDUHandlerEEUlRSE_jE_E5CountEv:
.LFB3530:
	.cfi_startproc
	movq	24(%rdi), %rax
	ret
	.cfi_endproc
.LFE3530:
	.size	_ZNK8opendnp318BufferedCollectionINS_7IndexedINS_13FrozenCounterEEEZNS_11RangeParser13InvokeRangeOfINS_11Group21Var5EEEvRKNS_12HeaderRecordERKNS_5RangeERKN7openpal6RSliceERNS_12IAPDUHandlerEEUlRSE_jE_E5CountEv, .-_ZNK8opendnp318BufferedCollectionINS_7IndexedINS_13FrozenCounterEEEZNS_11RangeParser13InvokeRangeOfINS_11Group21Var5EEEvRKNS_12HeaderRecordERKNS_5RangeERKN7openpal6RSliceERNS_12IAPDUHandlerEEUlRSE_jE_E5CountEv
	.section	.text._ZNK8opendnp318BufferedCollectionINS_7IndexedINS_13FrozenCounterEEEZNS_11RangeParser13InvokeRangeOfINS_11Group21Var2EEEvRKNS_12HeaderRecordERKNS_5RangeERKN7openpal6RSliceERNS_12IAPDUHandlerEEUlRSE_jE_E5CountEv,"axG",@progbits,_ZNK8opendnp318BufferedCollectionINS_7IndexedINS_13FrozenCounterEEEZNS_11RangeParser13InvokeRangeOfINS_11Group21Var2EEEvRKNS_12HeaderRecordERKNS_5RangeERKN7openpal6RSliceERNS_12IAPDUHandlerEEUlRSE_jE_E5CountEv,comdat
	.align 2
	.p2align 4,,15
	.weak	_ZNK8opendnp318BufferedCollectionINS_7IndexedINS_13FrozenCounterEEEZNS_11RangeParser13InvokeRangeOfINS_11Group21Var2EEEvRKNS_12HeaderRecordERKNS_5RangeERKN7openpal6RSliceERNS_12IAPDUHandlerEEUlRSE_jE_E5CountEv
	.type	_ZNK8opendnp318BufferedCollectionINS_7IndexedINS_13FrozenCounterEEEZNS_11RangeParser13InvokeRangeOfINS_11Group21Var2EEEvRKNS_12HeaderRecordERKNS_5RangeERKN7openpal6RSliceERNS_12IAPDUHandlerEEUlRSE_jE_E5CountEv, @function
_ZNK8opendnp318BufferedCollectionINS_7IndexedINS_13FrozenCounterEEEZNS_11RangeParser13InvokeRangeOfINS_11Group21Var2EEEvRKNS_12HeaderRecordERKNS_5RangeERKN7openpal6RSliceERNS_12IAPDUHandlerEEUlRSE_jE_E5CountEv:
.LFB3532:
	.cfi_startproc
	movq	24(%rdi), %rax
	ret
	.cfi_endproc
.LFE3532:
	.size	_ZNK8opendnp318BufferedCollectionINS_7IndexedINS_13FrozenCounterEEEZNS_11RangeParser13InvokeRangeOfINS_11Group21Var2EEEvRKNS_12HeaderRecordERKNS_5RangeERKN7openpal6RSliceERNS_12IAPDUHandlerEEUlRSE_jE_E5CountEv, .-_ZNK8opendnp318BufferedCollectionINS_7IndexedINS_13FrozenCounterEEEZNS_11RangeParser13InvokeRangeOfINS_11Group21Var2EEEvRKNS_12HeaderRecordERKNS_5RangeERKN7openpal6RSliceERNS_12IAPDUHandlerEEUlRSE_jE_E5CountEv
	.section	.text._ZNK8opendnp318BufferedCollectionINS_7IndexedINS_13FrozenCounterEEEZNS_11RangeParser13InvokeRangeOfINS_11Group21Var1EEEvRKNS_12HeaderRecordERKNS_5RangeERKN7openpal6RSliceERNS_12IAPDUHandlerEEUlRSE_jE_E5CountEv,"axG",@progbits,_ZNK8opendnp318BufferedCollectionINS_7IndexedINS_13FrozenCounterEEEZNS_11RangeParser13InvokeRangeOfINS_11Group21Var1EEEvRKNS_12HeaderRecordERKNS_5RangeERKN7openpal6RSliceERNS_12IAPDUHandlerEEUlRSE_jE_E5CountEv,comdat
	.align 2
	.p2align 4,,15
	.weak	_ZNK8opendnp318BufferedCollectionINS_7IndexedINS_13FrozenCounterEEEZNS_11RangeParser13InvokeRangeOfINS_11Group21Var1EEEvRKNS_12HeaderRecordERKNS_5RangeERKN7openpal6RSliceERNS_12IAPDUHandlerEEUlRSE_jE_E5CountEv
	.type	_ZNK8opendnp318BufferedCollectionINS_7IndexedINS_13FrozenCounterEEEZNS_11RangeParser13InvokeRangeOfINS_11Group21Var1EEEvRKNS_12HeaderRecordERKNS_5RangeERKN7openpal6RSliceERNS_12IAPDUHandlerEEUlRSE_jE_E5CountEv, @function
_ZNK8opendnp318BufferedCollectionINS_7IndexedINS_13FrozenCounterEEEZNS_11RangeParser13InvokeRangeOfINS_11Group21Var1EEEvRKNS_12HeaderRecordERKNS_5RangeERKN7openpal6RSliceERNS_12IAPDUHandlerEEUlRSE_jE_E5CountEv:
.LFB3534:
	.cfi_startproc
	movq	24(%rdi), %rax
	ret
	.cfi_endproc
.LFE3534:
	.size	_ZNK8opendnp318BufferedCollectionINS_7IndexedINS_13FrozenCounterEEEZNS_11RangeParser13InvokeRangeOfINS_11Group21Var1EEEvRKNS_12HeaderRecordERKNS_5RangeERKN7openpal6RSliceERNS_12IAPDUHandlerEEUlRSE_jE_E5CountEv, .-_ZNK8opendnp318BufferedCollectionINS_7IndexedINS_13FrozenCounterEEEZNS_11RangeParser13InvokeRangeOfINS_11Group21Var1EEEvRKNS_12HeaderRecordERKNS_5RangeERKN7openpal6RSliceERNS_12IAPDUHandlerEEUlRSE_jE_E5CountEv
	.section	.text._ZNK8opendnp318BufferedCollectionINS_7IndexedINS_7CounterEEEZNS_11RangeParser13InvokeRangeOfINS_11Group20Var6EEEvRKNS_12HeaderRecordERKNS_5RangeERKN7openpal6RSliceERNS_12IAPDUHandlerEEUlRSE_jE_E5CountEv,"axG",@progbits,_ZNK8opendnp318BufferedCollectionINS_7IndexedINS_7CounterEEEZNS_11RangeParser13InvokeRangeOfINS_11Group20Var6EEEvRKNS_12HeaderRecordERKNS_5RangeERKN7openpal6RSliceERNS_12IAPDUHandlerEEUlRSE_jE_E5CountEv,comdat
	.align 2
	.p2align 4,,15
	.weak	_ZNK8opendnp318BufferedCollectionINS_7IndexedINS_7CounterEEEZNS_11RangeParser13InvokeRangeOfINS_11Group20Var6EEEvRKNS_12HeaderRecordERKNS_5RangeERKN7openpal6RSliceERNS_12IAPDUHandlerEEUlRSE_jE_E5CountEv
	.type	_ZNK8opendnp318BufferedCollectionINS_7IndexedINS_7CounterEEEZNS_11RangeParser13InvokeRangeOfINS_11Group20Var6EEEvRKNS_12HeaderRecordERKNS_5RangeERKN7openpal6RSliceERNS_12IAPDUHandlerEEUlRSE_jE_E5CountEv, @function
_ZNK8opendnp318BufferedCollectionINS_7IndexedINS_7CounterEEEZNS_11RangeParser13InvokeRangeOfINS_11Group20Var6EEEvRKNS_12HeaderRecordERKNS_5RangeERKN7openpal6RSliceERNS_12IAPDUHandlerEEUlRSE_jE_E5CountEv:
.LFB3536:
	.cfi_startproc
	movq	24(%rdi), %rax
	ret
	.cfi_endproc
.LFE3536:
	.size	_ZNK8opendnp318BufferedCollectionINS_7IndexedINS_7CounterEEEZNS_11RangeParser13InvokeRangeOfINS_11Group20Var6EEEvRKNS_12HeaderRecordERKNS_5RangeERKN7openpal6RSliceERNS_12IAPDUHandlerEEUlRSE_jE_E5CountEv, .-_ZNK8opendnp318BufferedCollectionINS_7IndexedINS_7CounterEEEZNS_11RangeParser13InvokeRangeOfINS_11Group20Var6EEEvRKNS_12HeaderRecordERKNS_5RangeERKN7openpal6RSliceERNS_12IAPDUHandlerEEUlRSE_jE_E5CountEv
	.section	.text._ZNK8opendnp318BufferedCollectionINS_7IndexedINS_7CounterEEEZNS_11RangeParser13InvokeRangeOfINS_11Group20Var5EEEvRKNS_12HeaderRecordERKNS_5RangeERKN7openpal6RSliceERNS_12IAPDUHandlerEEUlRSE_jE_E5CountEv,"axG",@progbits,_ZNK8opendnp318BufferedCollectionINS_7IndexedINS_7CounterEEEZNS_11RangeParser13InvokeRangeOfINS_11Group20Var5EEEvRKNS_12HeaderRecordERKNS_5RangeERKN7openpal6RSliceERNS_12IAPDUHandlerEEUlRSE_jE_E5CountEv,comdat
	.align 2
	.p2align 4,,15
	.weak	_ZNK8opendnp318BufferedCollectionINS_7IndexedINS_7CounterEEEZNS_11RangeParser13InvokeRangeOfINS_11Group20Var5EEEvRKNS_12HeaderRecordERKNS_5RangeERKN7openpal6RSliceERNS_12IAPDUHandlerEEUlRSE_jE_E5CountEv
	.type	_ZNK8opendnp318BufferedCollectionINS_7IndexedINS_7CounterEEEZNS_11RangeParser13InvokeRangeOfINS_11Group20Var5EEEvRKNS_12HeaderRecordERKNS_5RangeERKN7openpal6RSliceERNS_12IAPDUHandlerEEUlRSE_jE_E5CountEv, @function
_ZNK8opendnp318BufferedCollectionINS_7IndexedINS_7CounterEEEZNS_11RangeParser13InvokeRangeOfINS_11Group20Var5EEEvRKNS_12HeaderRecordERKNS_5RangeERKN7openpal6RSliceERNS_12IAPDUHandlerEEUlRSE_jE_E5CountEv:
.LFB3538:
	.cfi_startproc
	movq	24(%rdi), %rax
	ret
	.cfi_endproc
.LFE3538:
	.size	_ZNK8opendnp318BufferedCollectionINS_7IndexedINS_7CounterEEEZNS_11RangeParser13InvokeRangeOfINS_11Group20Var5EEEvRKNS_12HeaderRecordERKNS_5RangeERKN7openpal6RSliceERNS_12IAPDUHandlerEEUlRSE_jE_E5CountEv, .-_ZNK8opendnp318BufferedCollectionINS_7IndexedINS_7CounterEEEZNS_11RangeParser13InvokeRangeOfINS_11Group20Var5EEEvRKNS_12HeaderRecordERKNS_5RangeERKN7openpal6RSliceERNS_12IAPDUHandlerEEUlRSE_jE_E5CountEv
	.section	.text._ZNK8opendnp318BufferedCollectionINS_7IndexedINS_7CounterEEEZNS_11RangeParser13InvokeRangeOfINS_11Group20Var2EEEvRKNS_12HeaderRecordERKNS_5RangeERKN7openpal6RSliceERNS_12IAPDUHandlerEEUlRSE_jE_E5CountEv,"axG",@progbits,_ZNK8opendnp318BufferedCollectionINS_7IndexedINS_7CounterEEEZNS_11RangeParser13InvokeRangeOfINS_11Group20Var2EEEvRKNS_12HeaderRecordERKNS_5RangeERKN7openpal6RSliceERNS_12IAPDUHandlerEEUlRSE_jE_E5CountEv,comdat
	.align 2
	.p2align 4,,15
	.weak	_ZNK8opendnp318BufferedCollectionINS_7IndexedINS_7CounterEEEZNS_11RangeParser13InvokeRangeOfINS_11Group20Var2EEEvRKNS_12HeaderRecordERKNS_5RangeERKN7openpal6RSliceERNS_12IAPDUHandlerEEUlRSE_jE_E5CountEv
	.type	_ZNK8opendnp318BufferedCollectionINS_7IndexedINS_7CounterEEEZNS_11RangeParser13InvokeRangeOfINS_11Group20Var2EEEvRKNS_12HeaderRecordERKNS_5RangeERKN7openpal6RSliceERNS_12IAPDUHandlerEEUlRSE_jE_E5CountEv, @function
_ZNK8opendnp318BufferedCollectionINS_7IndexedINS_7CounterEEEZNS_11RangeParser13InvokeRangeOfINS_11Group20Var2EEEvRKNS_12HeaderRecordERKNS_5RangeERKN7openpal6RSliceERNS_12IAPDUHandlerEEUlRSE_jE_E5CountEv:
.LFB3540:
	.cfi_startproc
	movq	24(%rdi), %rax
	ret
	.cfi_endproc
.LFE3540:
	.size	_ZNK8opendnp318BufferedCollectionINS_7IndexedINS_7CounterEEEZNS_11RangeParser13InvokeRangeOfINS_11Group20Var2EEEvRKNS_12HeaderRecordERKNS_5RangeERKN7openpal6RSliceERNS_12IAPDUHandlerEEUlRSE_jE_E5CountEv, .-_ZNK8opendnp318BufferedCollectionINS_7IndexedINS_7CounterEEEZNS_11RangeParser13InvokeRangeOfINS_11Group20Var2EEEvRKNS_12HeaderRecordERKNS_5RangeERKN7openpal6RSliceERNS_12IAPDUHandlerEEUlRSE_jE_E5CountEv
	.section	.text._ZNK8opendnp318BufferedCollectionINS_7IndexedINS_7CounterEEEZNS_11RangeParser13InvokeRangeOfINS_11Group20Var1EEEvRKNS_12HeaderRecordERKNS_5RangeERKN7openpal6RSliceERNS_12IAPDUHandlerEEUlRSE_jE_E5CountEv,"axG",@progbits,_ZNK8opendnp318BufferedCollectionINS_7IndexedINS_7CounterEEEZNS_11RangeParser13InvokeRangeOfINS_11Group20Var1EEEvRKNS_12HeaderRecordERKNS_5RangeERKN7openpal6RSliceERNS_12IAPDUHandlerEEUlRSE_jE_E5CountEv,comdat
	.align 2
	.p2align 4,,15
	.weak	_ZNK8opendnp318BufferedCollectionINS_7IndexedINS_7CounterEEEZNS_11RangeParser13InvokeRangeOfINS_11Group20Var1EEEvRKNS_12HeaderRecordERKNS_5RangeERKN7openpal6RSliceERNS_12IAPDUHandlerEEUlRSE_jE_E5CountEv
	.type	_ZNK8opendnp318BufferedCollectionINS_7IndexedINS_7CounterEEEZNS_11RangeParser13InvokeRangeOfINS_11Group20Var1EEEvRKNS_12HeaderRecordERKNS_5RangeERKN7openpal6RSliceERNS_12IAPDUHandlerEEUlRSE_jE_E5CountEv, @function
_ZNK8opendnp318BufferedCollectionINS_7IndexedINS_7CounterEEEZNS_11RangeParser13InvokeRangeOfINS_11Group20Var1EEEvRKNS_12HeaderRecordERKNS_5RangeERKN7openpal6RSliceERNS_12IAPDUHandlerEEUlRSE_jE_E5CountEv:
.LFB3542:
	.cfi_startproc
	movq	24(%rdi), %rax
	ret
	.cfi_endproc
.LFE3542:
	.size	_ZNK8opendnp318BufferedCollectionINS_7IndexedINS_7CounterEEEZNS_11RangeParser13InvokeRangeOfINS_11Group20Var1EEEvRKNS_12HeaderRecordERKNS_5RangeERKN7openpal6RSliceERNS_12IAPDUHandlerEEUlRSE_jE_E5CountEv, .-_ZNK8opendnp318BufferedCollectionINS_7IndexedINS_7CounterEEEZNS_11RangeParser13InvokeRangeOfINS_11Group20Var1EEEvRKNS_12HeaderRecordERKNS_5RangeERKN7openpal6RSliceERNS_12IAPDUHandlerEEUlRSE_jE_E5CountEv
	.section	.text._ZNK8opendnp318BufferedCollectionINS_7IndexedINS_18BinaryOutputStatusEEEZNS_11RangeParser13InvokeRangeOfINS_11Group10Var2EEEvRKNS_12HeaderRecordERKNS_5RangeERKN7openpal6RSliceERNS_12IAPDUHandlerEEUlRSE_jE_E5CountEv,"axG",@progbits,_ZNK8opendnp318BufferedCollectionINS_7IndexedINS_18BinaryOutputStatusEEEZNS_11RangeParser13InvokeRangeOfINS_11Group10Var2EEEvRKNS_12HeaderRecordERKNS_5RangeERKN7openpal6RSliceERNS_12IAPDUHandlerEEUlRSE_jE_E5CountEv,comdat
	.align 2
	.p2align 4,,15
	.weak	_ZNK8opendnp318BufferedCollectionINS_7IndexedINS_18BinaryOutputStatusEEEZNS_11RangeParser13InvokeRangeOfINS_11Group10Var2EEEvRKNS_12HeaderRecordERKNS_5RangeERKN7openpal6RSliceERNS_12IAPDUHandlerEEUlRSE_jE_E5CountEv
	.type	_ZNK8opendnp318BufferedCollectionINS_7IndexedINS_18BinaryOutputStatusEEEZNS_11RangeParser13InvokeRangeOfINS_11Group10Var2EEEvRKNS_12HeaderRecordERKNS_5RangeERKN7openpal6RSliceERNS_12IAPDUHandlerEEUlRSE_jE_E5CountEv, @function
_ZNK8opendnp318BufferedCollectionINS_7IndexedINS_18BinaryOutputStatusEEEZNS_11RangeParser13InvokeRangeOfINS_11Group10Var2EEEvRKNS_12HeaderRecordERKNS_5RangeERKN7openpal6RSliceERNS_12IAPDUHandlerEEUlRSE_jE_E5CountEv:
.LFB3544:
	.cfi_startproc
	movq	24(%rdi), %rax
	ret
	.cfi_endproc
.LFE3544:
	.size	_ZNK8opendnp318BufferedCollectionINS_7IndexedINS_18BinaryOutputStatusEEEZNS_11RangeParser13InvokeRangeOfINS_11Group10Var2EEEvRKNS_12HeaderRecordERKNS_5RangeERKN7openpal6RSliceERNS_12IAPDUHandlerEEUlRSE_jE_E5CountEv, .-_ZNK8opendnp318BufferedCollectionINS_7IndexedINS_18BinaryOutputStatusEEEZNS_11RangeParser13InvokeRangeOfINS_11Group10Var2EEEvRKNS_12HeaderRecordERKNS_5RangeERKN7openpal6RSliceERNS_12IAPDUHandlerEEUlRSE_jE_E5CountEv
	.section	.text._ZNK8opendnp318BufferedCollectionINS_7IndexedINS_15DoubleBitBinaryEEEZNS_11RangeParser13InvokeRangeOfINS_10Group3Var2EEEvRKNS_12HeaderRecordERKNS_5RangeERKN7openpal6RSliceERNS_12IAPDUHandlerEEUlRSE_jE_E5CountEv,"axG",@progbits,_ZNK8opendnp318BufferedCollectionINS_7IndexedINS_15DoubleBitBinaryEEEZNS_11RangeParser13InvokeRangeOfINS_10Group3Var2EEEvRKNS_12HeaderRecordERKNS_5RangeERKN7openpal6RSliceERNS_12IAPDUHandlerEEUlRSE_jE_E5CountEv,comdat
	.align 2
	.p2align 4,,15
	.weak	_ZNK8opendnp318BufferedCollectionINS_7IndexedINS_15DoubleBitBinaryEEEZNS_11RangeParser13InvokeRangeOfINS_10Group3Var2EEEvRKNS_12HeaderRecordERKNS_5RangeERKN7openpal6RSliceERNS_12IAPDUHandlerEEUlRSE_jE_E5CountEv
	.type	_ZNK8opendnp318BufferedCollectionINS_7IndexedINS_15DoubleBitBinaryEEEZNS_11RangeParser13InvokeRangeOfINS_10Group3Var2EEEvRKNS_12HeaderRecordERKNS_5RangeERKN7openpal6RSliceERNS_12IAPDUHandlerEEUlRSE_jE_E5CountEv, @function
_ZNK8opendnp318BufferedCollectionINS_7IndexedINS_15DoubleBitBinaryEEEZNS_11RangeParser13InvokeRangeOfINS_10Group3Var2EEEvRKNS_12HeaderRecordERKNS_5RangeERKN7openpal6RSliceERNS_12IAPDUHandlerEEUlRSE_jE_E5CountEv:
.LFB3546:
	.cfi_startproc
	movq	24(%rdi), %rax
	ret
	.cfi_endproc
.LFE3546:
	.size	_ZNK8opendnp318BufferedCollectionINS_7IndexedINS_15DoubleBitBinaryEEEZNS_11RangeParser13InvokeRangeOfINS_10Group3Var2EEEvRKNS_12HeaderRecordERKNS_5RangeERKN7openpal6RSliceERNS_12IAPDUHandlerEEUlRSE_jE_E5CountEv, .-_ZNK8opendnp318BufferedCollectionINS_7IndexedINS_15DoubleBitBinaryEEEZNS_11RangeParser13InvokeRangeOfINS_10Group3Var2EEEvRKNS_12HeaderRecordERKNS_5RangeERKN7openpal6RSliceERNS_12IAPDUHandlerEEUlRSE_jE_E5CountEv
	.section	.text._ZNK8opendnp318BufferedCollectionINS_7IndexedINS_18BinaryOutputStatusEEEZNS_11RangeParser23InvokeRangeBitfieldTypeIS2_EEvRKNS_12HeaderRecordERKNS_5RangeERKN7openpal6RSliceERNS_12IAPDUHandlerEEUlRSD_jE_E5CountEv,"axG",@progbits,_ZNK8opendnp318BufferedCollectionINS_7IndexedINS_18BinaryOutputStatusEEEZNS_11RangeParser23InvokeRangeBitfieldTypeIS2_EEvRKNS_12HeaderRecordERKNS_5RangeERKN7openpal6RSliceERNS_12IAPDUHandlerEEUlRSD_jE_E5CountEv,comdat
	.align 2
	.p2align 4,,15
	.weak	_ZNK8opendnp318BufferedCollectionINS_7IndexedINS_18BinaryOutputStatusEEEZNS_11RangeParser23InvokeRangeBitfieldTypeIS2_EEvRKNS_12HeaderRecordERKNS_5RangeERKN7openpal6RSliceERNS_12IAPDUHandlerEEUlRSD_jE_E5CountEv
	.type	_ZNK8opendnp318BufferedCollectionINS_7IndexedINS_18BinaryOutputStatusEEEZNS_11RangeParser23InvokeRangeBitfieldTypeIS2_EEvRKNS_12HeaderRecordERKNS_5RangeERKN7openpal6RSliceERNS_12IAPDUHandlerEEUlRSD_jE_E5CountEv, @function
_ZNK8opendnp318BufferedCollectionINS_7IndexedINS_18BinaryOutputStatusEEEZNS_11RangeParser23InvokeRangeBitfieldTypeIS2_EEvRKNS_12HeaderRecordERKNS_5RangeERKN7openpal6RSliceERNS_12IAPDUHandlerEEUlRSD_jE_E5CountEv:
.LFB3548:
	.cfi_startproc
	movq	24(%rdi), %rax
	ret
	.cfi_endproc
.LFE3548:
	.size	_ZNK8opendnp318BufferedCollectionINS_7IndexedINS_18BinaryOutputStatusEEEZNS_11RangeParser23InvokeRangeBitfieldTypeIS2_EEvRKNS_12HeaderRecordERKNS_5RangeERKN7openpal6RSliceERNS_12IAPDUHandlerEEUlRSD_jE_E5CountEv, .-_ZNK8opendnp318BufferedCollectionINS_7IndexedINS_18BinaryOutputStatusEEEZNS_11RangeParser23InvokeRangeBitfieldTypeIS2_EEvRKNS_12HeaderRecordERKNS_5RangeERKN7openpal6RSliceERNS_12IAPDUHandlerEEUlRSD_jE_E5CountEv
	.section	.text._ZNK8opendnp318BufferedCollectionINS_7IndexedINS_15DoubleBitBinaryEEEZNS_11RangeParser29InvokeRangeDoubleBitfieldTypeIS2_EEvRKNS_12HeaderRecordERKNS_5RangeERKN7openpal6RSliceERNS_12IAPDUHandlerEEUlRSD_jE_E5CountEv,"axG",@progbits,_ZNK8opendnp318BufferedCollectionINS_7IndexedINS_15DoubleBitBinaryEEEZNS_11RangeParser29InvokeRangeDoubleBitfieldTypeIS2_EEvRKNS_12HeaderRecordERKNS_5RangeERKN7openpal6RSliceERNS_12IAPDUHandlerEEUlRSD_jE_E5CountEv,comdat
	.align 2
	.p2align 4,,15
	.weak	_ZNK8opendnp318BufferedCollectionINS_7IndexedINS_15DoubleBitBinaryEEEZNS_11RangeParser29InvokeRangeDoubleBitfieldTypeIS2_EEvRKNS_12HeaderRecordERKNS_5RangeERKN7openpal6RSliceERNS_12IAPDUHandlerEEUlRSD_jE_E5CountEv
	.type	_ZNK8opendnp318BufferedCollectionINS_7IndexedINS_15DoubleBitBinaryEEEZNS_11RangeParser29InvokeRangeDoubleBitfieldTypeIS2_EEvRKNS_12HeaderRecordERKNS_5RangeERKN7openpal6RSliceERNS_12IAPDUHandlerEEUlRSD_jE_E5CountEv, @function
_ZNK8opendnp318BufferedCollectionINS_7IndexedINS_15DoubleBitBinaryEEEZNS_11RangeParser29InvokeRangeDoubleBitfieldTypeIS2_EEvRKNS_12HeaderRecordERKNS_5RangeERKN7openpal6RSliceERNS_12IAPDUHandlerEEUlRSD_jE_E5CountEv:
.LFB3550:
	.cfi_startproc
	movq	24(%rdi), %rax
	ret
	.cfi_endproc
.LFE3550:
	.size	_ZNK8opendnp318BufferedCollectionINS_7IndexedINS_15DoubleBitBinaryEEEZNS_11RangeParser29InvokeRangeDoubleBitfieldTypeIS2_EEvRKNS_12HeaderRecordERKNS_5RangeERKN7openpal6RSliceERNS_12IAPDUHandlerEEUlRSD_jE_E5CountEv, .-_ZNK8opendnp318BufferedCollectionINS_7IndexedINS_15DoubleBitBinaryEEEZNS_11RangeParser29InvokeRangeDoubleBitfieldTypeIS2_EEvRKNS_12HeaderRecordERKNS_5RangeERKN7openpal6RSliceERNS_12IAPDUHandlerEEUlRSD_jE_E5CountEv
	.section	.text._ZNK8opendnp318BufferedCollectionINS_7IndexedINS_6BinaryEEEZNS_11RangeParser13InvokeRangeOfINS_10Group1Var2EEEvRKNS_12HeaderRecordERKNS_5RangeERKN7openpal6RSliceERNS_12IAPDUHandlerEEUlRSE_jE_E5CountEv,"axG",@progbits,_ZNK8opendnp318BufferedCollectionINS_7IndexedINS_6BinaryEEEZNS_11RangeParser13InvokeRangeOfINS_10Group1Var2EEEvRKNS_12HeaderRecordERKNS_5RangeERKN7openpal6RSliceERNS_12IAPDUHandlerEEUlRSE_jE_E5CountEv,comdat
	.align 2
	.p2align 4,,15
	.weak	_ZNK8opendnp318BufferedCollectionINS_7IndexedINS_6BinaryEEEZNS_11RangeParser13InvokeRangeOfINS_10Group1Var2EEEvRKNS_12HeaderRecordERKNS_5RangeERKN7openpal6RSliceERNS_12IAPDUHandlerEEUlRSE_jE_E5CountEv
	.type	_ZNK8opendnp318BufferedCollectionINS_7IndexedINS_6BinaryEEEZNS_11RangeParser13InvokeRangeOfINS_10Group1Var2EEEvRKNS_12HeaderRecordERKNS_5RangeERKN7openpal6RSliceERNS_12IAPDUHandlerEEUlRSE_jE_E5CountEv, @function
_ZNK8opendnp318BufferedCollectionINS_7IndexedINS_6BinaryEEEZNS_11RangeParser13InvokeRangeOfINS_10Group1Var2EEEvRKNS_12HeaderRecordERKNS_5RangeERKN7openpal6RSliceERNS_12IAPDUHandlerEEUlRSE_jE_E5CountEv:
.LFB3552:
	.cfi_startproc
	movq	24(%rdi), %rax
	ret
	.cfi_endproc
.LFE3552:
	.size	_ZNK8opendnp318BufferedCollectionINS_7IndexedINS_6BinaryEEEZNS_11RangeParser13InvokeRangeOfINS_10Group1Var2EEEvRKNS_12HeaderRecordERKNS_5RangeERKN7openpal6RSliceERNS_12IAPDUHandlerEEUlRSE_jE_E5CountEv, .-_ZNK8opendnp318BufferedCollectionINS_7IndexedINS_6BinaryEEEZNS_11RangeParser13InvokeRangeOfINS_10Group1Var2EEEvRKNS_12HeaderRecordERKNS_5RangeERKN7openpal6RSliceERNS_12IAPDUHandlerEEUlRSE_jE_E5CountEv
	.section	.text._ZNK8opendnp318BufferedCollectionINS_7IndexedINS_6BinaryEEEZNS_11RangeParser23InvokeRangeBitfieldTypeIS2_EEvRKNS_12HeaderRecordERKNS_5RangeERKN7openpal6RSliceERNS_12IAPDUHandlerEEUlRSD_jE_E5CountEv,"axG",@progbits,_ZNK8opendnp318BufferedCollectionINS_7IndexedINS_6BinaryEEEZNS_11RangeParser23InvokeRangeBitfieldTypeIS2_EEvRKNS_12HeaderRecordERKNS_5RangeERKN7openpal6RSliceERNS_12IAPDUHandlerEEUlRSD_jE_E5CountEv,comdat
	.align 2
	.p2align 4,,15
	.weak	_ZNK8opendnp318BufferedCollectionINS_7IndexedINS_6BinaryEEEZNS_11RangeParser23InvokeRangeBitfieldTypeIS2_EEvRKNS_12HeaderRecordERKNS_5RangeERKN7openpal6RSliceERNS_12IAPDUHandlerEEUlRSD_jE_E5CountEv
	.type	_ZNK8opendnp318BufferedCollectionINS_7IndexedINS_6BinaryEEEZNS_11RangeParser23InvokeRangeBitfieldTypeIS2_EEvRKNS_12HeaderRecordERKNS_5RangeERKN7openpal6RSliceERNS_12IAPDUHandlerEEUlRSD_jE_E5CountEv, @function
_ZNK8opendnp318BufferedCollectionINS_7IndexedINS_6BinaryEEEZNS_11RangeParser23InvokeRangeBitfieldTypeIS2_EEvRKNS_12HeaderRecordERKNS_5RangeERKN7openpal6RSliceERNS_12IAPDUHandlerEEUlRSD_jE_E5CountEv:
.LFB3554:
	.cfi_startproc
	movq	24(%rdi), %rax
	ret
	.cfi_endproc
.LFE3554:
	.size	_ZNK8opendnp318BufferedCollectionINS_7IndexedINS_6BinaryEEEZNS_11RangeParser23InvokeRangeBitfieldTypeIS2_EEvRKNS_12HeaderRecordERKNS_5RangeERKN7openpal6RSliceERNS_12IAPDUHandlerEEUlRSD_jE_E5CountEv, .-_ZNK8opendnp318BufferedCollectionINS_7IndexedINS_6BinaryEEEZNS_11RangeParser23InvokeRangeBitfieldTypeIS2_EEvRKNS_12HeaderRecordERKNS_5RangeERKN7openpal6RSliceERNS_12IAPDUHandlerEEUlRSD_jE_E5CountEv
	.text
	.align 2
	.p2align 4,,15
	.type	_ZNK8opendnp318BufferedCollectionINS_7IndexedINS_11OctetStringEEEZNS_11RangeParser21ParseRangeOfOctetDataERN7openpal6RSliceERKNS_12HeaderRecordERKNS_5RangeEPNS5_6LoggerEPNS_12IAPDUHandlerEEUlS7_jE_E5CountEv, @function
_ZNK8opendnp318BufferedCollectionINS_7IndexedINS_11OctetStringEEEZNS_11RangeParser21ParseRangeOfOctetDataERN7openpal6RSliceERKNS_12HeaderRecordERKNS_5RangeEPNS5_6LoggerEPNS_12IAPDUHandlerEEUlS7_jE_E5CountEv:
.LFB3556:
	.cfi_startproc
	movq	24(%rdi), %rax
	ret
	.cfi_endproc
.LFE3556:
	.size	_ZNK8opendnp318BufferedCollectionINS_7IndexedINS_11OctetStringEEEZNS_11RangeParser21ParseRangeOfOctetDataERN7openpal6RSliceERKNS_12HeaderRecordERKNS_5RangeEPNS5_6LoggerEPNS_12IAPDUHandlerEEUlS7_jE_E5CountEv, .-_ZNK8opendnp318BufferedCollectionINS_7IndexedINS_11OctetStringEEEZNS_11RangeParser21ParseRangeOfOctetDataERN7openpal6RSliceERKNS_12HeaderRecordERKNS_5RangeEPNS5_6LoggerEPNS_12IAPDUHandlerEEUlS7_jE_E5CountEv
	.section	.text._ZN8opendnp311RangeParser23InvokeRangeBitfieldTypeINS_6BinaryEEEvRKNS_12HeaderRecordERKNS_5RangeERKN7openpal6RSliceERNS_12IAPDUHandlerE,"axG",@progbits,_ZN8opendnp311RangeParser23InvokeRangeBitfieldTypeINS_6BinaryEEEvRKNS_12HeaderRecordERKNS_5RangeERKN7openpal6RSliceERNS_12IAPDUHandlerE,comdat
	.align 2
	.p2align 4,,15
	.weak	_ZN8opendnp311RangeParser23InvokeRangeBitfieldTypeINS_6BinaryEEEvRKNS_12HeaderRecordERKNS_5RangeERKN7openpal6RSliceERNS_12IAPDUHandlerE
	.type	_ZN8opendnp311RangeParser23InvokeRangeBitfieldTypeINS_6BinaryEEEvRKNS_12HeaderRecordERKNS_5RangeERKN7openpal6RSliceERNS_12IAPDUHandlerE, @function
_ZN8opendnp311RangeParser23InvokeRangeBitfieldTypeINS_6BinaryEEEvRKNS_12HeaderRecordERKNS_5RangeERKN7openpal6RSliceERNS_12IAPDUHandlerE:
.LFB2878:
	.cfi_startproc
	subq	$88, %rsp
	.cfi_def_cfa_offset 96
	movzwl	(%rsi), %r9d
	movzwl	2(%rsi), %r8d
	movq	%fs:40, %rax
	movq	%rax, 72(%rsp)
	xorl	%eax, %eax
	cmpw	%r8w, %r9w
	ja	.L34
	movzwl	%r8w, %eax
	movzwl	%r9w, %r10d
	addl	$1, %eax
	subl	%r10d, %eax
.L34:
	movdqu	(%rdx), %xmm0
	leaq	32(%rsp), %rdx
	movq	_ZTVN8opendnp318BufferedCollectionINS_7IndexedINS_6BinaryEEEZNS_11RangeParser23InvokeRangeBitfieldTypeIS2_EEvRKNS_12HeaderRecordERKNS_5RangeERKN7openpal6RSliceERNS_12IAPDUHandlerEEUlRSD_jE_EE@GOTPCREL(%rip), %r10
	movq	%rax, 56(%rsp)
	movl	(%rsi), %eax
	movq	%rsp, %rsi
	movw	%r9w, 64(%rsp)
	movups	%xmm0, 40(%rsp)
	addq	$16, %r10
	movw	%r8w, 66(%rsp)
	movdqu	(%rdi), %xmm0
	movq	%rcx, %rdi
	movl	%eax, 16(%rsp)
	movq	%r10, 32(%rsp)
	movaps	%xmm0, (%rsp)
	call	_ZN8opendnp312IAPDUHandler8OnHeaderERKNS_11RangeHeaderERKNS_11ICollectionINS_7IndexedINS_6BinaryEEEEE@PLT
	movq	72(%rsp), %rax
	xorq	%fs:40, %rax
	jne	.L38
	addq	$88, %rsp
	.cfi_remember_state
	.cfi_def_cfa_offset 8
	ret
.L38:
	.cfi_restore_state
	call	__stack_chk_fail@PLT
	.cfi_endproc
.LFE2878:
	.size	_ZN8opendnp311RangeParser23InvokeRangeBitfieldTypeINS_6BinaryEEEvRKNS_12HeaderRecordERKNS_5RangeERKN7openpal6RSliceERNS_12IAPDUHandlerE, .-_ZN8opendnp311RangeParser23InvokeRangeBitfieldTypeINS_6BinaryEEEvRKNS_12HeaderRecordERKNS_5RangeERKN7openpal6RSliceERNS_12IAPDUHandlerE
	.section	.text._ZN8opendnp311RangeParser13InvokeRangeOfINS_10Group1Var2EEEvRKNS_12HeaderRecordERKNS_5RangeERKN7openpal6RSliceERNS_12IAPDUHandlerE,"axG",@progbits,_ZN8opendnp311RangeParser13InvokeRangeOfINS_10Group1Var2EEEvRKNS_12HeaderRecordERKNS_5RangeERKN7openpal6RSliceERNS_12IAPDUHandlerE,comdat
	.align 2
	.p2align 4,,15
	.weak	_ZN8opendnp311RangeParser13InvokeRangeOfINS_10Group1Var2EEEvRKNS_12HeaderRecordERKNS_5RangeERKN7openpal6RSliceERNS_12IAPDUHandlerE
	.type	_ZN8opendnp311RangeParser13InvokeRangeOfINS_10Group1Var2EEEvRKNS_12HeaderRecordERKNS_5RangeERKN7openpal6RSliceERNS_12IAPDUHandlerE, @function
_ZN8opendnp311RangeParser13InvokeRangeOfINS_10Group1Var2EEEvRKNS_12HeaderRecordERKNS_5RangeERKN7openpal6RSliceERNS_12IAPDUHandlerE:
.LFB2886:
	.cfi_startproc
	subq	$88, %rsp
	.cfi_def_cfa_offset 96
	movzwl	(%rsi), %r9d
	movzwl	2(%rsi), %r8d
	movq	%fs:40, %rax
	movq	%rax, 72(%rsp)
	xorl	%eax, %eax
	cmpw	%r8w, %r9w
	ja	.L40
	movzwl	%r8w, %eax
	movzwl	%r9w, %r10d
	addl	$1, %eax
	subl	%r10d, %eax
.L40:
	movdqu	(%rdx), %xmm0
	leaq	32(%rsp), %rdx
	movq	_ZTVN8opendnp318BufferedCollectionINS_7IndexedINS_6BinaryEEEZNS_11RangeParser13InvokeRangeOfINS_10Group1Var2EEEvRKNS_12HeaderRecordERKNS_5RangeERKN7openpal6RSliceERNS_12IAPDUHandlerEEUlRSE_jE_EE@GOTPCREL(%rip), %r10
	movq	%rax, 56(%rsp)
	movl	(%rsi), %eax
	movq	%rsp, %rsi
	movw	%r9w, 64(%rsp)
	movups	%xmm0, 40(%rsp)
	addq	$16, %r10
	movw	%r8w, 66(%rsp)
	movdqu	(%rdi), %xmm0
	movq	%rcx, %rdi
	movl	%eax, 16(%rsp)
	movq	%r10, 32(%rsp)
	movaps	%xmm0, (%rsp)
	call	_ZN8opendnp312IAPDUHandler8OnHeaderERKNS_11RangeHeaderERKNS_11ICollectionINS_7IndexedINS_6BinaryEEEEE@PLT
	movq	72(%rsp), %rax
	xorq	%fs:40, %rax
	jne	.L44
	addq	$88, %rsp
	.cfi_remember_state
	.cfi_def_cfa_offset 8
	ret
.L44:
	.cfi_restore_state
	call	__stack_chk_fail@PLT
	.cfi_endproc
.LFE2886:
	.size	_ZN8opendnp311RangeParser13InvokeRangeOfINS_10Group1Var2EEEvRKNS_12HeaderRecordERKNS_5RangeERKN7openpal6RSliceERNS_12IAPDUHandlerE, .-_ZN8opendnp311RangeParser13InvokeRangeOfINS_10Group1Var2EEEvRKNS_12HeaderRecordERKNS_5RangeERKN7openpal6RSliceERNS_12IAPDUHandlerE
	.section	.text._ZNK8opendnp318BufferedCollectionINS_7IndexedINS_8IINValueEEEZNS_11RangeParser23InvokeRangeBitfieldTypeIS2_EEvRKNS_12HeaderRecordERKNS_5RangeERKN7openpal6RSliceERNS_12IAPDUHandlerEEUlRSD_jE_E7ForeachERNS_8IVisitorIS3_EE,"axG",@progbits,_ZNK8opendnp318BufferedCollectionINS_7IndexedINS_8IINValueEEEZNS_11RangeParser23InvokeRangeBitfieldTypeIS2_EEvRKNS_12HeaderRecordERKNS_5RangeERKN7openpal6RSliceERNS_12IAPDUHandlerEEUlRSD_jE_E7ForeachERNS_8IVisitorIS3_EE,comdat
	.align 2
	.p2align 4,,15
	.weak	_ZNK8opendnp318BufferedCollectionINS_7IndexedINS_8IINValueEEEZNS_11RangeParser23InvokeRangeBitfieldTypeIS2_EEvRKNS_12HeaderRecordERKNS_5RangeERKN7openpal6RSliceERNS_12IAPDUHandlerEEUlRSD_jE_E7ForeachERNS_8IVisitorIS3_EE
	.type	_ZNK8opendnp318BufferedCollectionINS_7IndexedINS_8IINValueEEEZNS_11RangeParser23InvokeRangeBitfieldTypeIS2_EEvRKNS_12HeaderRecordERKNS_5RangeERKN7openpal6RSliceERNS_12IAPDUHandlerEEUlRSD_jE_E7ForeachERNS_8IVisitorIS3_EE, @function
_ZNK8opendnp318BufferedCollectionINS_7IndexedINS_8IINValueEEEZNS_11RangeParser23InvokeRangeBitfieldTypeIS2_EEvRKNS_12HeaderRecordERKNS_5RangeERKN7openpal6RSliceERNS_12IAPDUHandlerEEUlRSD_jE_E7ForeachERNS_8IVisitorIS3_EE:
.LFB3501:
	.cfi_startproc
	pushq	%r15
	.cfi_def_cfa_offset 16
	.cfi_offset 15, -16
	pushq	%r14
	.cfi_def_cfa_offset 24
	.cfi_offset 14, -24
	pushq	%r13
	.cfi_def_cfa_offset 32
	.cfi_offset 13, -32
	pushq	%r12
	.cfi_def_cfa_offset 40
	.cfi_offset 12, -40
	pushq	%rbp
	.cfi_def_cfa_offset 48
	.cfi_offset 6, -48
	pushq	%rbx
	.cfi_def_cfa_offset 56
	.cfi_offset 3, -56
	subq	$56, %rsp
	.cfi_def_cfa_offset 112
	movq	%fs:40, %rax
	movq	%rax, 40(%rsp)
	xorl	%eax, %eax
	cmpq	$0, 24(%rdi)
	movdqu	8(%rdi), %xmm0
	movaps	%xmm0, 16(%rsp)
	je	.L45
	leaq	16(%rsp), %r14
	leaq	12(%rsp), %r13
	movq	%rdi, %rbp
	movq	%rsi, %r12
	xorl	%ebx, %ebx
	.p2align 4,,10
	.p2align 3
.L47:
	movq	(%r12), %rax
	movl	%ebx, %esi
	movq	%r14, %rdi
	movq	(%rax), %r15
	call	_ZN8opendnp36GetBitERKN7openpal6RSliceEj@PLT
	movzwl	32(%rbp), %edx
	movb	%al, 12(%rsp)
	movq	%r13, %rsi
	movq	%r12, %rdi
	addl	%ebx, %edx
	movw	%dx, 14(%rsp)
	call	*%r15
	leal	1(%rbx), %eax
	cmpq	24(%rbp), %rax
	movq	%rax, %rbx
	jb	.L47
.L45:
	movq	40(%rsp), %rax
	xorq	%fs:40, %rax
	jne	.L51
	addq	$56, %rsp
	.cfi_remember_state
	.cfi_def_cfa_offset 56
	popq	%rbx
	.cfi_def_cfa_offset 48
	popq	%rbp
	.cfi_def_cfa_offset 40
	popq	%r12
	.cfi_def_cfa_offset 32
	popq	%r13
	.cfi_def_cfa_offset 24
	popq	%r14
	.cfi_def_cfa_offset 16
	popq	%r15
	.cfi_def_cfa_offset 8
	ret
.L51:
	.cfi_restore_state
	call	__stack_chk_fail@PLT
	.cfi_endproc
.LFE3501:
	.size	_ZNK8opendnp318BufferedCollectionINS_7IndexedINS_8IINValueEEEZNS_11RangeParser23InvokeRangeBitfieldTypeIS2_EEvRKNS_12HeaderRecordERKNS_5RangeERKN7openpal6RSliceERNS_12IAPDUHandlerEEUlRSD_jE_E7ForeachERNS_8IVisitorIS3_EE, .-_ZNK8opendnp318BufferedCollectionINS_7IndexedINS_8IINValueEEEZNS_11RangeParser23InvokeRangeBitfieldTypeIS2_EEvRKNS_12HeaderRecordERKNS_5RangeERKN7openpal6RSliceERNS_12IAPDUHandlerEEUlRSD_jE_E7ForeachERNS_8IVisitorIS3_EE
	.section	.text._ZNK8opendnp318BufferedCollectionINS_7IndexedINS_6BinaryEEEZNS_11RangeParser23InvokeRangeBitfieldTypeIS2_EEvRKNS_12HeaderRecordERKNS_5RangeERKN7openpal6RSliceERNS_12IAPDUHandlerEEUlRSD_jE_E7ForeachERNS_8IVisitorIS3_EE,"axG",@progbits,_ZNK8opendnp318BufferedCollectionINS_7IndexedINS_6BinaryEEEZNS_11RangeParser23InvokeRangeBitfieldTypeIS2_EEvRKNS_12HeaderRecordERKNS_5RangeERKN7openpal6RSliceERNS_12IAPDUHandlerEEUlRSD_jE_E7ForeachERNS_8IVisitorIS3_EE,comdat
	.align 2
	.p2align 4,,15
	.weak	_ZNK8opendnp318BufferedCollectionINS_7IndexedINS_6BinaryEEEZNS_11RangeParser23InvokeRangeBitfieldTypeIS2_EEvRKNS_12HeaderRecordERKNS_5RangeERKN7openpal6RSliceERNS_12IAPDUHandlerEEUlRSD_jE_E7ForeachERNS_8IVisitorIS3_EE
	.type	_ZNK8opendnp318BufferedCollectionINS_7IndexedINS_6BinaryEEEZNS_11RangeParser23InvokeRangeBitfieldTypeIS2_EEvRKNS_12HeaderRecordERKNS_5RangeERKN7openpal6RSliceERNS_12IAPDUHandlerEEUlRSD_jE_E7ForeachERNS_8IVisitorIS3_EE, @function
_ZNK8opendnp318BufferedCollectionINS_7IndexedINS_6BinaryEEEZNS_11RangeParser23InvokeRangeBitfieldTypeIS2_EEvRKNS_12HeaderRecordERKNS_5RangeERKN7openpal6RSliceERNS_12IAPDUHandlerEEUlRSD_jE_E7ForeachERNS_8IVisitorIS3_EE:
.LFB3555:
	.cfi_startproc
	pushq	%r15
	.cfi_def_cfa_offset 16
	.cfi_offset 15, -16
	pushq	%r14
	.cfi_def_cfa_offset 24
	.cfi_offset 14, -24
	pushq	%r13
	.cfi_def_cfa_offset 32
	.cfi_offset 13, -32
	pushq	%r12
	.cfi_def_cfa_offset 40
	.cfi_offset 12, -40
	pushq	%rbp
	.cfi_def_cfa_offset 48
	.cfi_offset 6, -48
	pushq	%rbx
	.cfi_def_cfa_offset 56
	.cfi_offset 3, -56
	subq	$120, %rsp
	.cfi_def_cfa_offset 176
	movq	%fs:40, %rax
	movq	%rax, 104(%rsp)
	xorl	%eax, %eax
	cmpq	$0, 24(%rdi)
	movdqu	8(%rdi), %xmm0
	movaps	%xmm0, 16(%rsp)
	je	.L52
	leaq	64(%rsp), %rax
	leaq	16(%rsp), %r15
	leaq	32(%rsp), %r14
	movq	%rdi, %rbp
	movq	%rsi, %r12
	xorl	%ebx, %ebx
	movq	%rax, 8(%rsp)
	.p2align 4,,10
	.p2align 3
.L54:
	movq	(%r12), %rax
	movl	%ebx, %esi
	movq	%r15, %rdi
	movq	(%rax), %r13
	call	_ZN8opendnp36GetBitERKN7openpal6RSliceEj@PLT
	movq	%r14, %rdi
	movzbl	%al, %esi
	call	_ZN8opendnp36BinaryC1Eb@PLT
	movzwl	32(%rbp), %eax
	movq	48(%rsp), %rcx
	movq	%r12, %rdi
	movdqa	32(%rsp), %xmm0
	movq	8(%rsp), %rsi
	movaps	%xmm0, 64(%rsp)
	addl	%ebx, %eax
	movq	%rcx, 80(%rsp)
	movw	%ax, 88(%rsp)
	call	*%r13
	leal	1(%rbx), %eax
	cmpq	24(%rbp), %rax
	movq	%rax, %rbx
	jb	.L54
.L52:
	movq	104(%rsp), %rax
	xorq	%fs:40, %rax
	jne	.L58
	addq	$120, %rsp
	.cfi_remember_state
	.cfi_def_cfa_offset 56
	popq	%rbx
	.cfi_def_cfa_offset 48
	popq	%rbp
	.cfi_def_cfa_offset 40
	popq	%r12
	.cfi_def_cfa_offset 32
	popq	%r13
	.cfi_def_cfa_offset 24
	popq	%r14
	.cfi_def_cfa_offset 16
	popq	%r15
	.cfi_def_cfa_offset 8
	ret
.L58:
	.cfi_restore_state
	call	__stack_chk_fail@PLT
	.cfi_endproc
.LFE3555:
	.size	_ZNK8opendnp318BufferedCollectionINS_7IndexedINS_6BinaryEEEZNS_11RangeParser23InvokeRangeBitfieldTypeIS2_EEvRKNS_12HeaderRecordERKNS_5RangeERKN7openpal6RSliceERNS_12IAPDUHandlerEEUlRSD_jE_E7ForeachERNS_8IVisitorIS3_EE, .-_ZNK8opendnp318BufferedCollectionINS_7IndexedINS_6BinaryEEEZNS_11RangeParser23InvokeRangeBitfieldTypeIS2_EEvRKNS_12HeaderRecordERKNS_5RangeERKN7openpal6RSliceERNS_12IAPDUHandlerEEUlRSD_jE_E7ForeachERNS_8IVisitorIS3_EE
	.section	.text._ZNK8opendnp318BufferedCollectionINS_7IndexedINS_6BinaryEEEZNS_11RangeParser13InvokeRangeOfINS_10Group1Var2EEEvRKNS_12HeaderRecordERKNS_5RangeERKN7openpal6RSliceERNS_12IAPDUHandlerEEUlRSE_jE_E7ForeachERNS_8IVisitorIS3_EE,"axG",@progbits,_ZNK8opendnp318BufferedCollectionINS_7IndexedINS_6BinaryEEEZNS_11RangeParser13InvokeRangeOfINS_10Group1Var2EEEvRKNS_12HeaderRecordERKNS_5RangeERKN7openpal6RSliceERNS_12IAPDUHandlerEEUlRSE_jE_E7ForeachERNS_8IVisitorIS3_EE,comdat
	.align 2
	.p2align 4,,15
	.weak	_ZNK8opendnp318BufferedCollectionINS_7IndexedINS_6BinaryEEEZNS_11RangeParser13InvokeRangeOfINS_10Group1Var2EEEvRKNS_12HeaderRecordERKNS_5RangeERKN7openpal6RSliceERNS_12IAPDUHandlerEEUlRSE_jE_E7ForeachERNS_8IVisitorIS3_EE
	.type	_ZNK8opendnp318BufferedCollectionINS_7IndexedINS_6BinaryEEEZNS_11RangeParser13InvokeRangeOfINS_10Group1Var2EEEvRKNS_12HeaderRecordERKNS_5RangeERKN7openpal6RSliceERNS_12IAPDUHandlerEEUlRSE_jE_E7ForeachERNS_8IVisitorIS3_EE, @function
_ZNK8opendnp318BufferedCollectionINS_7IndexedINS_6BinaryEEEZNS_11RangeParser13InvokeRangeOfINS_10Group1Var2EEEvRKNS_12HeaderRecordERKNS_5RangeERKN7openpal6RSliceERNS_12IAPDUHandlerEEUlRSE_jE_E7ForeachERNS_8IVisitorIS3_EE:
.LFB3553:
	.cfi_startproc
	pushq	%r15
	.cfi_def_cfa_offset 16
	.cfi_offset 15, -16
	pushq	%r14
	.cfi_def_cfa_offset 24
	.cfi_offset 14, -24
	pushq	%r13
	.cfi_def_cfa_offset 32
	.cfi_offset 13, -32
	pushq	%r12
	.cfi_def_cfa_offset 40
	.cfi_offset 12, -40
	pushq	%rbp
	.cfi_def_cfa_offset 48
	.cfi_offset 6, -48
	pushq	%rbx
	.cfi_def_cfa_offset 56
	.cfi_offset 3, -56
	subq	$120, %rsp
	.cfi_def_cfa_offset 176
	movq	%fs:40, %rax
	movq	%rax, 104(%rsp)
	xorl	%eax, %eax
	cmpq	$0, 24(%rdi)
	movdqu	8(%rdi), %xmm0
	movaps	%xmm0, 16(%rsp)
	je	.L59
	leaq	64(%rsp), %rax
	leaq	32(%rsp), %r13
	leaq	16(%rsp), %r15
	movq	%rdi, %rbp
	movq	%rsi, %r12
	xorl	%ebx, %ebx
	movq	%rax, 8(%rsp)
	.p2align 4,,10
	.p2align 3
.L61:
	movq	(%r12), %rax
	movq	%r13, %rdi
	movq	(%rax), %r14
	call	_ZN8opendnp36BinaryC1Ev@PLT
	movq	%r13, %rsi
	movq	%r15, %rdi
	call	_ZN8opendnp310Group1Var210ReadTargetERN7openpal6RSliceERNS_6BinaryE@PLT
	movzwl	32(%rbp), %eax
	movq	48(%rsp), %rcx
	movq	%r12, %rdi
	movdqa	32(%rsp), %xmm0
	movq	8(%rsp), %rsi
	movaps	%xmm0, 64(%rsp)
	addl	%ebx, %eax
	movq	%rcx, 80(%rsp)
	movw	%ax, 88(%rsp)
	call	*%r14
	leal	1(%rbx), %eax
	cmpq	24(%rbp), %rax
	movq	%rax, %rbx
	jb	.L61
.L59:
	movq	104(%rsp), %rax
	xorq	%fs:40, %rax
	jne	.L65
	addq	$120, %rsp
	.cfi_remember_state
	.cfi_def_cfa_offset 56
	popq	%rbx
	.cfi_def_cfa_offset 48
	popq	%rbp
	.cfi_def_cfa_offset 40
	popq	%r12
	.cfi_def_cfa_offset 32
	popq	%r13
	.cfi_def_cfa_offset 24
	popq	%r14
	.cfi_def_cfa_offset 16
	popq	%r15
	.cfi_def_cfa_offset 8
	ret
.L65:
	.cfi_restore_state
	call	__stack_chk_fail@PLT
	.cfi_endproc
.LFE3553:
	.size	_ZNK8opendnp318BufferedCollectionINS_7IndexedINS_6BinaryEEEZNS_11RangeParser13InvokeRangeOfINS_10Group1Var2EEEvRKNS_12HeaderRecordERKNS_5RangeERKN7openpal6RSliceERNS_12IAPDUHandlerEEUlRSE_jE_E7ForeachERNS_8IVisitorIS3_EE, .-_ZNK8opendnp318BufferedCollectionINS_7IndexedINS_6BinaryEEEZNS_11RangeParser13InvokeRangeOfINS_10Group1Var2EEEvRKNS_12HeaderRecordERKNS_5RangeERKN7openpal6RSliceERNS_12IAPDUHandlerEEUlRSE_jE_E7ForeachERNS_8IVisitorIS3_EE
	.section	.text._ZN8opendnp311RangeParser29InvokeRangeDoubleBitfieldTypeINS_15DoubleBitBinaryEEEvRKNS_12HeaderRecordERKNS_5RangeERKN7openpal6RSliceERNS_12IAPDUHandlerE,"axG",@progbits,_ZN8opendnp311RangeParser29InvokeRangeDoubleBitfieldTypeINS_15DoubleBitBinaryEEEvRKNS_12HeaderRecordERKNS_5RangeERKN7openpal6RSliceERNS_12IAPDUHandlerE,comdat
	.align 2
	.p2align 4,,15
	.weak	_ZN8opendnp311RangeParser29InvokeRangeDoubleBitfieldTypeINS_15DoubleBitBinaryEEEvRKNS_12HeaderRecordERKNS_5RangeERKN7openpal6RSliceERNS_12IAPDUHandlerE
	.type	_ZN8opendnp311RangeParser29InvokeRangeDoubleBitfieldTypeINS_15DoubleBitBinaryEEEvRKNS_12HeaderRecordERKNS_5RangeERKN7openpal6RSliceERNS_12IAPDUHandlerE, @function
_ZN8opendnp311RangeParser29InvokeRangeDoubleBitfieldTypeINS_15DoubleBitBinaryEEEvRKNS_12HeaderRecordERKNS_5RangeERKN7openpal6RSliceERNS_12IAPDUHandlerE:
.LFB2891:
	.cfi_startproc
	subq	$88, %rsp
	.cfi_def_cfa_offset 96
	movzwl	(%rsi), %r9d
	movzwl	2(%rsi), %r8d
	movq	%fs:40, %rax
	movq	%rax, 72(%rsp)
	xorl	%eax, %eax
	cmpw	%r8w, %r9w
	ja	.L67
	movzwl	%r8w, %eax
	movzwl	%r9w, %r10d
	addl	$1, %eax
	subl	%r10d, %eax
.L67:
	movdqu	(%rdx), %xmm0
	leaq	32(%rsp), %rdx
	movq	_ZTVN8opendnp318BufferedCollectionINS_7IndexedINS_15DoubleBitBinaryEEEZNS_11RangeParser29InvokeRangeDoubleBitfieldTypeIS2_EEvRKNS_12HeaderRecordERKNS_5RangeERKN7openpal6RSliceERNS_12IAPDUHandlerEEUlRSD_jE_EE@GOTPCREL(%rip), %r10
	movq	%rax, 56(%rsp)
	movl	(%rsi), %eax
	movq	%rsp, %rsi
	movw	%r9w, 64(%rsp)
	movups	%xmm0, 40(%rsp)
	addq	$16, %r10
	movw	%r8w, 66(%rsp)
	movdqu	(%rdi), %xmm0
	movq	%rcx, %rdi
	movl	%eax, 16(%rsp)
	movq	%r10, 32(%rsp)
	movaps	%xmm0, (%rsp)
	call	_ZN8opendnp312IAPDUHandler8OnHeaderERKNS_11RangeHeaderERKNS_11ICollectionINS_7IndexedINS_15DoubleBitBinaryEEEEE@PLT
	movq	72(%rsp), %rax
	xorq	%fs:40, %rax
	jne	.L71
	addq	$88, %rsp
	.cfi_remember_state
	.cfi_def_cfa_offset 8
	ret
.L71:
	.cfi_restore_state
	call	__stack_chk_fail@PLT
	.cfi_endproc
.LFE2891:
	.size	_ZN8opendnp311RangeParser29InvokeRangeDoubleBitfieldTypeINS_15DoubleBitBinaryEEEvRKNS_12HeaderRecordERKNS_5RangeERKN7openpal6RSliceERNS_12IAPDUHandlerE, .-_ZN8opendnp311RangeParser29InvokeRangeDoubleBitfieldTypeINS_15DoubleBitBinaryEEEvRKNS_12HeaderRecordERKNS_5RangeERKN7openpal6RSliceERNS_12IAPDUHandlerE
	.section	.text._ZN8opendnp311RangeParser13InvokeRangeOfINS_10Group3Var2EEEvRKNS_12HeaderRecordERKNS_5RangeERKN7openpal6RSliceERNS_12IAPDUHandlerE,"axG",@progbits,_ZN8opendnp311RangeParser13InvokeRangeOfINS_10Group3Var2EEEvRKNS_12HeaderRecordERKNS_5RangeERKN7openpal6RSliceERNS_12IAPDUHandlerE,comdat
	.align 2
	.p2align 4,,15
	.weak	_ZN8opendnp311RangeParser13InvokeRangeOfINS_10Group3Var2EEEvRKNS_12HeaderRecordERKNS_5RangeERKN7openpal6RSliceERNS_12IAPDUHandlerE
	.type	_ZN8opendnp311RangeParser13InvokeRangeOfINS_10Group3Var2EEEvRKNS_12HeaderRecordERKNS_5RangeERKN7openpal6RSliceERNS_12IAPDUHandlerE, @function
_ZN8opendnp311RangeParser13InvokeRangeOfINS_10Group3Var2EEEvRKNS_12HeaderRecordERKNS_5RangeERKN7openpal6RSliceERNS_12IAPDUHandlerE:
.LFB2907:
	.cfi_startproc
	subq	$88, %rsp
	.cfi_def_cfa_offset 96
	movzwl	(%rsi), %r9d
	movzwl	2(%rsi), %r8d
	movq	%fs:40, %rax
	movq	%rax, 72(%rsp)
	xorl	%eax, %eax
	cmpw	%r8w, %r9w
	ja	.L73
	movzwl	%r8w, %eax
	movzwl	%r9w, %r10d
	addl	$1, %eax
	subl	%r10d, %eax
.L73:
	movdqu	(%rdx), %xmm0
	leaq	32(%rsp), %rdx
	movq	_ZTVN8opendnp318BufferedCollectionINS_7IndexedINS_15DoubleBitBinaryEEEZNS_11RangeParser13InvokeRangeOfINS_10Group3Var2EEEvRKNS_12HeaderRecordERKNS_5RangeERKN7openpal6RSliceERNS_12IAPDUHandlerEEUlRSE_jE_EE@GOTPCREL(%rip), %r10
	movq	%rax, 56(%rsp)
	movl	(%rsi), %eax
	movq	%rsp, %rsi
	movw	%r9w, 64(%rsp)
	movups	%xmm0, 40(%rsp)
	addq	$16, %r10
	movw	%r8w, 66(%rsp)
	movdqu	(%rdi), %xmm0
	movq	%rcx, %rdi
	movl	%eax, 16(%rsp)
	movq	%r10, 32(%rsp)
	movaps	%xmm0, (%rsp)
	call	_ZN8opendnp312IAPDUHandler8OnHeaderERKNS_11RangeHeaderERKNS_11ICollectionINS_7IndexedINS_15DoubleBitBinaryEEEEE@PLT
	movq	72(%rsp), %rax
	xorq	%fs:40, %rax
	jne	.L77
	addq	$88, %rsp
	.cfi_remember_state
	.cfi_def_cfa_offset 8
	ret
.L77:
	.cfi_restore_state
	call	__stack_chk_fail@PLT
	.cfi_endproc
.LFE2907:
	.size	_ZN8opendnp311RangeParser13InvokeRangeOfINS_10Group3Var2EEEvRKNS_12HeaderRecordERKNS_5RangeERKN7openpal6RSliceERNS_12IAPDUHandlerE, .-_ZN8opendnp311RangeParser13InvokeRangeOfINS_10Group3Var2EEEvRKNS_12HeaderRecordERKNS_5RangeERKN7openpal6RSliceERNS_12IAPDUHandlerE
	.section	.text._ZNK8opendnp318BufferedCollectionINS_7IndexedINS_15DoubleBitBinaryEEEZNS_11RangeParser29InvokeRangeDoubleBitfieldTypeIS2_EEvRKNS_12HeaderRecordERKNS_5RangeERKN7openpal6RSliceERNS_12IAPDUHandlerEEUlRSD_jE_E7ForeachERNS_8IVisitorIS3_EE,"axG",@progbits,_ZNK8opendnp318BufferedCollectionINS_7IndexedINS_15DoubleBitBinaryEEEZNS_11RangeParser29InvokeRangeDoubleBitfieldTypeIS2_EEvRKNS_12HeaderRecordERKNS_5RangeERKN7openpal6RSliceERNS_12IAPDUHandlerEEUlRSD_jE_E7ForeachERNS_8IVisitorIS3_EE,comdat
	.align 2
	.p2align 4,,15
	.weak	_ZNK8opendnp318BufferedCollectionINS_7IndexedINS_15DoubleBitBinaryEEEZNS_11RangeParser29InvokeRangeDoubleBitfieldTypeIS2_EEvRKNS_12HeaderRecordERKNS_5RangeERKN7openpal6RSliceERNS_12IAPDUHandlerEEUlRSD_jE_E7ForeachERNS_8IVisitorIS3_EE
	.type	_ZNK8opendnp318BufferedCollectionINS_7IndexedINS_15DoubleBitBinaryEEEZNS_11RangeParser29InvokeRangeDoubleBitfieldTypeIS2_EEvRKNS_12HeaderRecordERKNS_5RangeERKN7openpal6RSliceERNS_12IAPDUHandlerEEUlRSD_jE_E7ForeachERNS_8IVisitorIS3_EE, @function
_ZNK8opendnp318BufferedCollectionINS_7IndexedINS_15DoubleBitBinaryEEEZNS_11RangeParser29InvokeRangeDoubleBitfieldTypeIS2_EEvRKNS_12HeaderRecordERKNS_5RangeERKN7openpal6RSliceERNS_12IAPDUHandlerEEUlRSD_jE_E7ForeachERNS_8IVisitorIS3_EE:
.LFB3551:
	.cfi_startproc
	pushq	%r15
	.cfi_def_cfa_offset 16
	.cfi_offset 15, -16
	pushq	%r14
	.cfi_def_cfa_offset 24
	.cfi_offset 14, -24
	pushq	%r13
	.cfi_def_cfa_offset 32
	.cfi_offset 13, -32
	pushq	%r12
	.cfi_def_cfa_offset 40
	.cfi_offset 12, -40
	pushq	%rbp
	.cfi_def_cfa_offset 48
	.cfi_offset 6, -48
	pushq	%rbx
	.cfi_def_cfa_offset 56
	.cfi_offset 3, -56
	subq	$120, %rsp
	.cfi_def_cfa_offset 176
	movq	%fs:40, %rax
	movq	%rax, 104(%rsp)
	xorl	%eax, %eax
	cmpq	$0, 24(%rdi)
	movdqu	8(%rdi), %xmm0
	movaps	%xmm0, 16(%rsp)
	je	.L78
	leaq	64(%rsp), %rax
	leaq	16(%rsp), %r15
	leaq	32(%rsp), %r14
	movq	%rdi, %rbp
	movq	%rsi, %r12
	xorl	%ebx, %ebx
	movq	%rax, 8(%rsp)
	.p2align 4,,10
	.p2align 3
.L80:
	movq	(%r12), %rax
	movl	%ebx, %esi
	movq	%r15, %rdi
	movq	(%rax), %r13
	call	_ZN8opendnp312GetDoubleBitERKN7openpal6RSliceEj@PLT
	movq	%r14, %rdi
	movl	%eax, %esi
	call	_ZN8opendnp315DoubleBitBinaryC1ENS_9DoubleBitE@PLT
	movzwl	32(%rbp), %eax
	movq	48(%rsp), %rcx
	movq	%r12, %rdi
	movdqa	32(%rsp), %xmm0
	movq	8(%rsp), %rsi
	movaps	%xmm0, 64(%rsp)
	addl	%ebx, %eax
	movq	%rcx, 80(%rsp)
	movw	%ax, 88(%rsp)
	call	*%r13
	leal	1(%rbx), %eax
	cmpq	24(%rbp), %rax
	movq	%rax, %rbx
	jb	.L80
.L78:
	movq	104(%rsp), %rax
	xorq	%fs:40, %rax
	jne	.L84
	addq	$120, %rsp
	.cfi_remember_state
	.cfi_def_cfa_offset 56
	popq	%rbx
	.cfi_def_cfa_offset 48
	popq	%rbp
	.cfi_def_cfa_offset 40
	popq	%r12
	.cfi_def_cfa_offset 32
	popq	%r13
	.cfi_def_cfa_offset 24
	popq	%r14
	.cfi_def_cfa_offset 16
	popq	%r15
	.cfi_def_cfa_offset 8
	ret
.L84:
	.cfi_restore_state
	call	__stack_chk_fail@PLT
	.cfi_endproc
.LFE3551:
	.size	_ZNK8opendnp318BufferedCollectionINS_7IndexedINS_15DoubleBitBinaryEEEZNS_11RangeParser29InvokeRangeDoubleBitfieldTypeIS2_EEvRKNS_12HeaderRecordERKNS_5RangeERKN7openpal6RSliceERNS_12IAPDUHandlerEEUlRSD_jE_E7ForeachERNS_8IVisitorIS3_EE, .-_ZNK8opendnp318BufferedCollectionINS_7IndexedINS_15DoubleBitBinaryEEEZNS_11RangeParser29InvokeRangeDoubleBitfieldTypeIS2_EEvRKNS_12HeaderRecordERKNS_5RangeERKN7openpal6RSliceERNS_12IAPDUHandlerEEUlRSD_jE_E7ForeachERNS_8IVisitorIS3_EE
	.section	.text._ZN8opendnp311RangeParser23InvokeRangeBitfieldTypeINS_18BinaryOutputStatusEEEvRKNS_12HeaderRecordERKNS_5RangeERKN7openpal6RSliceERNS_12IAPDUHandlerE,"axG",@progbits,_ZN8opendnp311RangeParser23InvokeRangeBitfieldTypeINS_18BinaryOutputStatusEEEvRKNS_12HeaderRecordERKNS_5RangeERKN7openpal6RSliceERNS_12IAPDUHandlerE,comdat
	.align 2
	.p2align 4,,15
	.weak	_ZN8opendnp311RangeParser23InvokeRangeBitfieldTypeINS_18BinaryOutputStatusEEEvRKNS_12HeaderRecordERKNS_5RangeERKN7openpal6RSliceERNS_12IAPDUHandlerE
	.type	_ZN8opendnp311RangeParser23InvokeRangeBitfieldTypeINS_18BinaryOutputStatusEEEvRKNS_12HeaderRecordERKNS_5RangeERKN7openpal6RSliceERNS_12IAPDUHandlerE, @function
_ZN8opendnp311RangeParser23InvokeRangeBitfieldTypeINS_18BinaryOutputStatusEEEvRKNS_12HeaderRecordERKNS_5RangeERKN7openpal6RSliceERNS_12IAPDUHandlerE:
.LFB2899:
	.cfi_startproc
	subq	$88, %rsp
	.cfi_def_cfa_offset 96
	movzwl	(%rsi), %r9d
	movzwl	2(%rsi), %r8d
	movq	%fs:40, %rax
	movq	%rax, 72(%rsp)
	xorl	%eax, %eax
	cmpw	%r8w, %r9w
	ja	.L86
	movzwl	%r8w, %eax
	movzwl	%r9w, %r10d
	addl	$1, %eax
	subl	%r10d, %eax
.L86:
	movdqu	(%rdx), %xmm0
	leaq	32(%rsp), %rdx
	movq	_ZTVN8opendnp318BufferedCollectionINS_7IndexedINS_18BinaryOutputStatusEEEZNS_11RangeParser23InvokeRangeBitfieldTypeIS2_EEvRKNS_12HeaderRecordERKNS_5RangeERKN7openpal6RSliceERNS_12IAPDUHandlerEEUlRSD_jE_EE@GOTPCREL(%rip), %r10
	movq	%rax, 56(%rsp)
	movl	(%rsi), %eax
	movq	%rsp, %rsi
	movw	%r9w, 64(%rsp)
	movups	%xmm0, 40(%rsp)
	addq	$16, %r10
	movw	%r8w, 66(%rsp)
	movdqu	(%rdi), %xmm0
	movq	%rcx, %rdi
	movl	%eax, 16(%rsp)
	movq	%r10, 32(%rsp)
	movaps	%xmm0, (%rsp)
	call	_ZN8opendnp312IAPDUHandler8OnHeaderERKNS_11RangeHeaderERKNS_11ICollectionINS_7IndexedINS_18BinaryOutputStatusEEEEE@PLT
	movq	72(%rsp), %rax
	xorq	%fs:40, %rax
	jne	.L90
	addq	$88, %rsp
	.cfi_remember_state
	.cfi_def_cfa_offset 8
	ret
.L90:
	.cfi_restore_state
	call	__stack_chk_fail@PLT
	.cfi_endproc
.LFE2899:
	.size	_ZN8opendnp311RangeParser23InvokeRangeBitfieldTypeINS_18BinaryOutputStatusEEEvRKNS_12HeaderRecordERKNS_5RangeERKN7openpal6RSliceERNS_12IAPDUHandlerE, .-_ZN8opendnp311RangeParser23InvokeRangeBitfieldTypeINS_18BinaryOutputStatusEEEvRKNS_12HeaderRecordERKNS_5RangeERKN7openpal6RSliceERNS_12IAPDUHandlerE
	.section	.text._ZN8opendnp311RangeParser13InvokeRangeOfINS_11Group10Var2EEEvRKNS_12HeaderRecordERKNS_5RangeERKN7openpal6RSliceERNS_12IAPDUHandlerE,"axG",@progbits,_ZN8opendnp311RangeParser13InvokeRangeOfINS_11Group10Var2EEEvRKNS_12HeaderRecordERKNS_5RangeERKN7openpal6RSliceERNS_12IAPDUHandlerE,comdat
	.align 2
	.p2align 4,,15
	.weak	_ZN8opendnp311RangeParser13InvokeRangeOfINS_11Group10Var2EEEvRKNS_12HeaderRecordERKNS_5RangeERKN7openpal6RSliceERNS_12IAPDUHandlerE
	.type	_ZN8opendnp311RangeParser13InvokeRangeOfINS_11Group10Var2EEEvRKNS_12HeaderRecordERKNS_5RangeERKN7openpal6RSliceERNS_12IAPDUHandlerE, @function
_ZN8opendnp311RangeParser13InvokeRangeOfINS_11Group10Var2EEEvRKNS_12HeaderRecordERKNS_5RangeERKN7openpal6RSliceERNS_12IAPDUHandlerE:
.LFB2912:
	.cfi_startproc
	subq	$88, %rsp
	.cfi_def_cfa_offset 96
	movzwl	(%rsi), %r9d
	movzwl	2(%rsi), %r8d
	movq	%fs:40, %rax
	movq	%rax, 72(%rsp)
	xorl	%eax, %eax
	cmpw	%r8w, %r9w
	ja	.L92
	movzwl	%r8w, %eax
	movzwl	%r9w, %r10d
	addl	$1, %eax
	subl	%r10d, %eax
.L92:
	movdqu	(%rdx), %xmm0
	leaq	32(%rsp), %rdx
	movq	_ZTVN8opendnp318BufferedCollectionINS_7IndexedINS_18BinaryOutputStatusEEEZNS_11RangeParser13InvokeRangeOfINS_11Group10Var2EEEvRKNS_12HeaderRecordERKNS_5RangeERKN7openpal6RSliceERNS_12IAPDUHandlerEEUlRSE_jE_EE@GOTPCREL(%rip), %r10
	movq	%rax, 56(%rsp)
	movl	(%rsi), %eax
	movq	%rsp, %rsi
	movw	%r9w, 64(%rsp)
	movups	%xmm0, 40(%rsp)
	addq	$16, %r10
	movw	%r8w, 66(%rsp)
	movdqu	(%rdi), %xmm0
	movq	%rcx, %rdi
	movl	%eax, 16(%rsp)
	movq	%r10, 32(%rsp)
	movaps	%xmm0, (%rsp)
	call	_ZN8opendnp312IAPDUHandler8OnHeaderERKNS_11RangeHeaderERKNS_11ICollectionINS_7IndexedINS_18BinaryOutputStatusEEEEE@PLT
	movq	72(%rsp), %rax
	xorq	%fs:40, %rax
	jne	.L96
	addq	$88, %rsp
	.cfi_remember_state
	.cfi_def_cfa_offset 8
	ret
.L96:
	.cfi_restore_state
	call	__stack_chk_fail@PLT
	.cfi_endproc
.LFE2912:
	.size	_ZN8opendnp311RangeParser13InvokeRangeOfINS_11Group10Var2EEEvRKNS_12HeaderRecordERKNS_5RangeERKN7openpal6RSliceERNS_12IAPDUHandlerE, .-_ZN8opendnp311RangeParser13InvokeRangeOfINS_11Group10Var2EEEvRKNS_12HeaderRecordERKNS_5RangeERKN7openpal6RSliceERNS_12IAPDUHandlerE
	.section	.text._ZNK8opendnp318BufferedCollectionINS_7IndexedINS_18BinaryOutputStatusEEEZNS_11RangeParser23InvokeRangeBitfieldTypeIS2_EEvRKNS_12HeaderRecordERKNS_5RangeERKN7openpal6RSliceERNS_12IAPDUHandlerEEUlRSD_jE_E7ForeachERNS_8IVisitorIS3_EE,"axG",@progbits,_ZNK8opendnp318BufferedCollectionINS_7IndexedINS_18BinaryOutputStatusEEEZNS_11RangeParser23InvokeRangeBitfieldTypeIS2_EEvRKNS_12HeaderRecordERKNS_5RangeERKN7openpal6RSliceERNS_12IAPDUHandlerEEUlRSD_jE_E7ForeachERNS_8IVisitorIS3_EE,comdat
	.align 2
	.p2align 4,,15
	.weak	_ZNK8opendnp318BufferedCollectionINS_7IndexedINS_18BinaryOutputStatusEEEZNS_11RangeParser23InvokeRangeBitfieldTypeIS2_EEvRKNS_12HeaderRecordERKNS_5RangeERKN7openpal6RSliceERNS_12IAPDUHandlerEEUlRSD_jE_E7ForeachERNS_8IVisitorIS3_EE
	.type	_ZNK8opendnp318BufferedCollectionINS_7IndexedINS_18BinaryOutputStatusEEEZNS_11RangeParser23InvokeRangeBitfieldTypeIS2_EEvRKNS_12HeaderRecordERKNS_5RangeERKN7openpal6RSliceERNS_12IAPDUHandlerEEUlRSD_jE_E7ForeachERNS_8IVisitorIS3_EE, @function
_ZNK8opendnp318BufferedCollectionINS_7IndexedINS_18BinaryOutputStatusEEEZNS_11RangeParser23InvokeRangeBitfieldTypeIS2_EEvRKNS_12HeaderRecordERKNS_5RangeERKN7openpal6RSliceERNS_12IAPDUHandlerEEUlRSD_jE_E7ForeachERNS_8IVisitorIS3_EE:
.LFB3549:
	.cfi_startproc
	pushq	%r15
	.cfi_def_cfa_offset 16
	.cfi_offset 15, -16
	pushq	%r14
	.cfi_def_cfa_offset 24
	.cfi_offset 14, -24
	pushq	%r13
	.cfi_def_cfa_offset 32
	.cfi_offset 13, -32
	pushq	%r12
	.cfi_def_cfa_offset 40
	.cfi_offset 12, -40
	pushq	%rbp
	.cfi_def_cfa_offset 48
	.cfi_offset 6, -48
	pushq	%rbx
	.cfi_def_cfa_offset 56
	.cfi_offset 3, -56
	subq	$120, %rsp
	.cfi_def_cfa_offset 176
	movq	%fs:40, %rax
	movq	%rax, 104(%rsp)
	xorl	%eax, %eax
	cmpq	$0, 24(%rdi)
	movdqu	8(%rdi), %xmm0
	movaps	%xmm0, 16(%rsp)
	je	.L97
	leaq	64(%rsp), %rax
	leaq	16(%rsp), %r15
	leaq	32(%rsp), %r14
	movq	%rdi, %rbp
	movq	%rsi, %r12
	xorl	%ebx, %ebx
	movq	%rax, 8(%rsp)
	.p2align 4,,10
	.p2align 3
.L99:
	movq	(%r12), %rax
	movl	%ebx, %esi
	movq	%r15, %rdi
	movq	(%rax), %r13
	call	_ZN8opendnp36GetBitERKN7openpal6RSliceEj@PLT
	movq	%r14, %rdi
	movzbl	%al, %esi
	call	_ZN8opendnp318BinaryOutputStatusC1Eb@PLT
	movzwl	32(%rbp), %eax
	movq	48(%rsp), %rcx
	movq	%r12, %rdi
	movdqa	32(%rsp), %xmm0
	movq	8(%rsp), %rsi
	movaps	%xmm0, 64(%rsp)
	addl	%ebx, %eax
	movq	%rcx, 80(%rsp)
	movw	%ax, 88(%rsp)
	call	*%r13
	leal	1(%rbx), %eax
	cmpq	24(%rbp), %rax
	movq	%rax, %rbx
	jb	.L99
.L97:
	movq	104(%rsp), %rax
	xorq	%fs:40, %rax
	jne	.L103
	addq	$120, %rsp
	.cfi_remember_state
	.cfi_def_cfa_offset 56
	popq	%rbx
	.cfi_def_cfa_offset 48
	popq	%rbp
	.cfi_def_cfa_offset 40
	popq	%r12
	.cfi_def_cfa_offset 32
	popq	%r13
	.cfi_def_cfa_offset 24
	popq	%r14
	.cfi_def_cfa_offset 16
	popq	%r15
	.cfi_def_cfa_offset 8
	ret
.L103:
	.cfi_restore_state
	call	__stack_chk_fail@PLT
	.cfi_endproc
.LFE3549:
	.size	_ZNK8opendnp318BufferedCollectionINS_7IndexedINS_18BinaryOutputStatusEEEZNS_11RangeParser23InvokeRangeBitfieldTypeIS2_EEvRKNS_12HeaderRecordERKNS_5RangeERKN7openpal6RSliceERNS_12IAPDUHandlerEEUlRSD_jE_E7ForeachERNS_8IVisitorIS3_EE, .-_ZNK8opendnp318BufferedCollectionINS_7IndexedINS_18BinaryOutputStatusEEEZNS_11RangeParser23InvokeRangeBitfieldTypeIS2_EEvRKNS_12HeaderRecordERKNS_5RangeERKN7openpal6RSliceERNS_12IAPDUHandlerEEUlRSD_jE_E7ForeachERNS_8IVisitorIS3_EE
	.section	.text._ZNK8opendnp318BufferedCollectionINS_7IndexedINS_15DoubleBitBinaryEEEZNS_11RangeParser13InvokeRangeOfINS_10Group3Var2EEEvRKNS_12HeaderRecordERKNS_5RangeERKN7openpal6RSliceERNS_12IAPDUHandlerEEUlRSE_jE_E7ForeachERNS_8IVisitorIS3_EE,"axG",@progbits,_ZNK8opendnp318BufferedCollectionINS_7IndexedINS_15DoubleBitBinaryEEEZNS_11RangeParser13InvokeRangeOfINS_10Group3Var2EEEvRKNS_12HeaderRecordERKNS_5RangeERKN7openpal6RSliceERNS_12IAPDUHandlerEEUlRSE_jE_E7ForeachERNS_8IVisitorIS3_EE,comdat
	.align 2
	.p2align 4,,15
	.weak	_ZNK8opendnp318BufferedCollectionINS_7IndexedINS_15DoubleBitBinaryEEEZNS_11RangeParser13InvokeRangeOfINS_10Group3Var2EEEvRKNS_12HeaderRecordERKNS_5RangeERKN7openpal6RSliceERNS_12IAPDUHandlerEEUlRSE_jE_E7ForeachERNS_8IVisitorIS3_EE
	.type	_ZNK8opendnp318BufferedCollectionINS_7IndexedINS_15DoubleBitBinaryEEEZNS_11RangeParser13InvokeRangeOfINS_10Group3Var2EEEvRKNS_12HeaderRecordERKNS_5RangeERKN7openpal6RSliceERNS_12IAPDUHandlerEEUlRSE_jE_E7ForeachERNS_8IVisitorIS3_EE, @function
_ZNK8opendnp318BufferedCollectionINS_7IndexedINS_15DoubleBitBinaryEEEZNS_11RangeParser13InvokeRangeOfINS_10Group3Var2EEEvRKNS_12HeaderRecordERKNS_5RangeERKN7openpal6RSliceERNS_12IAPDUHandlerEEUlRSE_jE_E7ForeachERNS_8IVisitorIS3_EE:
.LFB3547:
	.cfi_startproc
	pushq	%r15
	.cfi_def_cfa_offset 16
	.cfi_offset 15, -16
	pushq	%r14
	.cfi_def_cfa_offset 24
	.cfi_offset 14, -24
	pushq	%r13
	.cfi_def_cfa_offset 32
	.cfi_offset 13, -32
	pushq	%r12
	.cfi_def_cfa_offset 40
	.cfi_offset 12, -40
	pushq	%rbp
	.cfi_def_cfa_offset 48
	.cfi_offset 6, -48
	pushq	%rbx
	.cfi_def_cfa_offset 56
	.cfi_offset 3, -56
	subq	$120, %rsp
	.cfi_def_cfa_offset 176
	movq	%fs:40, %rax
	movq	%rax, 104(%rsp)
	xorl	%eax, %eax
	cmpq	$0, 24(%rdi)
	movdqu	8(%rdi), %xmm0
	movaps	%xmm0, 16(%rsp)
	je	.L104
	leaq	64(%rsp), %rax
	leaq	32(%rsp), %r13
	leaq	16(%rsp), %r15
	movq	%rdi, %rbp
	movq	%rsi, %r12
	xorl	%ebx, %ebx
	movq	%rax, 8(%rsp)
	.p2align 4,,10
	.p2align 3
.L106:
	movq	(%r12), %rax
	movq	%r13, %rdi
	movq	(%rax), %r14
	call	_ZN8opendnp315DoubleBitBinaryC1Ev@PLT
	movq	%r13, %rsi
	movq	%r15, %rdi
	call	_ZN8opendnp310Group3Var210ReadTargetERN7openpal6RSliceERNS_15DoubleBitBinaryE@PLT
	movzwl	32(%rbp), %eax
	movq	48(%rsp), %rcx
	movq	%r12, %rdi
	movdqa	32(%rsp), %xmm0
	movq	8(%rsp), %rsi
	movaps	%xmm0, 64(%rsp)
	addl	%ebx, %eax
	movq	%rcx, 80(%rsp)
	movw	%ax, 88(%rsp)
	call	*%r14
	leal	1(%rbx), %eax
	cmpq	24(%rbp), %rax
	movq	%rax, %rbx
	jb	.L106
.L104:
	movq	104(%rsp), %rax
	xorq	%fs:40, %rax
	jne	.L110
	addq	$120, %rsp
	.cfi_remember_state
	.cfi_def_cfa_offset 56
	popq	%rbx
	.cfi_def_cfa_offset 48
	popq	%rbp
	.cfi_def_cfa_offset 40
	popq	%r12
	.cfi_def_cfa_offset 32
	popq	%r13
	.cfi_def_cfa_offset 24
	popq	%r14
	.cfi_def_cfa_offset 16
	popq	%r15
	.cfi_def_cfa_offset 8
	ret
.L110:
	.cfi_restore_state
	call	__stack_chk_fail@PLT
	.cfi_endproc
.LFE3547:
	.size	_ZNK8opendnp318BufferedCollectionINS_7IndexedINS_15DoubleBitBinaryEEEZNS_11RangeParser13InvokeRangeOfINS_10Group3Var2EEEvRKNS_12HeaderRecordERKNS_5RangeERKN7openpal6RSliceERNS_12IAPDUHandlerEEUlRSE_jE_E7ForeachERNS_8IVisitorIS3_EE, .-_ZNK8opendnp318BufferedCollectionINS_7IndexedINS_15DoubleBitBinaryEEEZNS_11RangeParser13InvokeRangeOfINS_10Group3Var2EEEvRKNS_12HeaderRecordERKNS_5RangeERKN7openpal6RSliceERNS_12IAPDUHandlerEEUlRSE_jE_E7ForeachERNS_8IVisitorIS3_EE
	.section	.text._ZNK8opendnp318BufferedCollectionINS_7IndexedINS_18BinaryOutputStatusEEEZNS_11RangeParser13InvokeRangeOfINS_11Group10Var2EEEvRKNS_12HeaderRecordERKNS_5RangeERKN7openpal6RSliceERNS_12IAPDUHandlerEEUlRSE_jE_E7ForeachERNS_8IVisitorIS3_EE,"axG",@progbits,_ZNK8opendnp318BufferedCollectionINS_7IndexedINS_18BinaryOutputStatusEEEZNS_11RangeParser13InvokeRangeOfINS_11Group10Var2EEEvRKNS_12HeaderRecordERKNS_5RangeERKN7openpal6RSliceERNS_12IAPDUHandlerEEUlRSE_jE_E7ForeachERNS_8IVisitorIS3_EE,comdat
	.align 2
	.p2align 4,,15
	.weak	_ZNK8opendnp318BufferedCollectionINS_7IndexedINS_18BinaryOutputStatusEEEZNS_11RangeParser13InvokeRangeOfINS_11Group10Var2EEEvRKNS_12HeaderRecordERKNS_5RangeERKN7openpal6RSliceERNS_12IAPDUHandlerEEUlRSE_jE_E7ForeachERNS_8IVisitorIS3_EE
	.type	_ZNK8opendnp318BufferedCollectionINS_7IndexedINS_18BinaryOutputStatusEEEZNS_11RangeParser13InvokeRangeOfINS_11Group10Var2EEEvRKNS_12HeaderRecordERKNS_5RangeERKN7openpal6RSliceERNS_12IAPDUHandlerEEUlRSE_jE_E7ForeachERNS_8IVisitorIS3_EE, @function
_ZNK8opendnp318BufferedCollectionINS_7IndexedINS_18BinaryOutputStatusEEEZNS_11RangeParser13InvokeRangeOfINS_11Group10Var2EEEvRKNS_12HeaderRecordERKNS_5RangeERKN7openpal6RSliceERNS_12IAPDUHandlerEEUlRSE_jE_E7ForeachERNS_8IVisitorIS3_EE:
.LFB3545:
	.cfi_startproc
	pushq	%r15
	.cfi_def_cfa_offset 16
	.cfi_offset 15, -16
	pushq	%r14
	.cfi_def_cfa_offset 24
	.cfi_offset 14, -24
	pushq	%r13
	.cfi_def_cfa_offset 32
	.cfi_offset 13, -32
	pushq	%r12
	.cfi_def_cfa_offset 40
	.cfi_offset 12, -40
	pushq	%rbp
	.cfi_def_cfa_offset 48
	.cfi_offset 6, -48
	pushq	%rbx
	.cfi_def_cfa_offset 56
	.cfi_offset 3, -56
	subq	$120, %rsp
	.cfi_def_cfa_offset 176
	movq	%fs:40, %rax
	movq	%rax, 104(%rsp)
	xorl	%eax, %eax
	cmpq	$0, 24(%rdi)
	movdqu	8(%rdi), %xmm0
	movaps	%xmm0, 16(%rsp)
	je	.L111
	leaq	64(%rsp), %rax
	leaq	32(%rsp), %r13
	leaq	16(%rsp), %r15
	movq	%rdi, %rbp
	movq	%rsi, %r12
	xorl	%ebx, %ebx
	movq	%rax, 8(%rsp)
	.p2align 4,,10
	.p2align 3
.L113:
	movq	(%r12), %rax
	movq	%r13, %rdi
	movq	(%rax), %r14
	call	_ZN8opendnp318BinaryOutputStatusC1Ev@PLT
	movq	%r13, %rsi
	movq	%r15, %rdi
	call	_ZN8opendnp311Group10Var210ReadTargetERN7openpal6RSliceERNS_18BinaryOutputStatusE@PLT
	movzwl	32(%rbp), %eax
	movq	48(%rsp), %rcx
	movq	%r12, %rdi
	movdqa	32(%rsp), %xmm0
	movq	8(%rsp), %rsi
	movaps	%xmm0, 64(%rsp)
	addl	%ebx, %eax
	movq	%rcx, 80(%rsp)
	movw	%ax, 88(%rsp)
	call	*%r14
	leal	1(%rbx), %eax
	cmpq	24(%rbp), %rax
	movq	%rax, %rbx
	jb	.L113
.L111:
	movq	104(%rsp), %rax
	xorq	%fs:40, %rax
	jne	.L117
	addq	$120, %rsp
	.cfi_remember_state
	.cfi_def_cfa_offset 56
	popq	%rbx
	.cfi_def_cfa_offset 48
	popq	%rbp
	.cfi_def_cfa_offset 40
	popq	%r12
	.cfi_def_cfa_offset 32
	popq	%r13
	.cfi_def_cfa_offset 24
	popq	%r14
	.cfi_def_cfa_offset 16
	popq	%r15
	.cfi_def_cfa_offset 8
	ret
.L117:
	.cfi_restore_state
	call	__stack_chk_fail@PLT
	.cfi_endproc
.LFE3545:
	.size	_ZNK8opendnp318BufferedCollectionINS_7IndexedINS_18BinaryOutputStatusEEEZNS_11RangeParser13InvokeRangeOfINS_11Group10Var2EEEvRKNS_12HeaderRecordERKNS_5RangeERKN7openpal6RSliceERNS_12IAPDUHandlerEEUlRSE_jE_E7ForeachERNS_8IVisitorIS3_EE, .-_ZNK8opendnp318BufferedCollectionINS_7IndexedINS_18BinaryOutputStatusEEEZNS_11RangeParser13InvokeRangeOfINS_11Group10Var2EEEvRKNS_12HeaderRecordERKNS_5RangeERKN7openpal6RSliceERNS_12IAPDUHandlerEEUlRSE_jE_E7ForeachERNS_8IVisitorIS3_EE
	.section	.text._ZN8opendnp311RangeParser13InvokeRangeOfINS_11Group20Var1EEEvRKNS_12HeaderRecordERKNS_5RangeERKN7openpal6RSliceERNS_12IAPDUHandlerE,"axG",@progbits,_ZN8opendnp311RangeParser13InvokeRangeOfINS_11Group20Var1EEEvRKNS_12HeaderRecordERKNS_5RangeERKN7openpal6RSliceERNS_12IAPDUHandlerE,comdat
	.align 2
	.p2align 4,,15
	.weak	_ZN8opendnp311RangeParser13InvokeRangeOfINS_11Group20Var1EEEvRKNS_12HeaderRecordERKNS_5RangeERKN7openpal6RSliceERNS_12IAPDUHandlerE
	.type	_ZN8opendnp311RangeParser13InvokeRangeOfINS_11Group20Var1EEEvRKNS_12HeaderRecordERKNS_5RangeERKN7openpal6RSliceERNS_12IAPDUHandlerE, @function
_ZN8opendnp311RangeParser13InvokeRangeOfINS_11Group20Var1EEEvRKNS_12HeaderRecordERKNS_5RangeERKN7openpal6RSliceERNS_12IAPDUHandlerE:
.LFB2917:
	.cfi_startproc
	subq	$88, %rsp
	.cfi_def_cfa_offset 96
	movzwl	(%rsi), %r9d
	movzwl	2(%rsi), %r8d
	movq	%fs:40, %rax
	movq	%rax, 72(%rsp)
	xorl	%eax, %eax
	cmpw	%r8w, %r9w
	ja	.L119
	movzwl	%r8w, %eax
	movzwl	%r9w, %r10d
	addl	$1, %eax
	subl	%r10d, %eax
.L119:
	movdqu	(%rdx), %xmm0
	leaq	32(%rsp), %rdx
	movq	_ZTVN8opendnp318BufferedCollectionINS_7IndexedINS_7CounterEEEZNS_11RangeParser13InvokeRangeOfINS_11Group20Var1EEEvRKNS_12HeaderRecordERKNS_5RangeERKN7openpal6RSliceERNS_12IAPDUHandlerEEUlRSE_jE_EE@GOTPCREL(%rip), %r10
	movq	%rax, 56(%rsp)
	movl	(%rsi), %eax
	movq	%rsp, %rsi
	movw	%r9w, 64(%rsp)
	movups	%xmm0, 40(%rsp)
	addq	$16, %r10
	movw	%r8w, 66(%rsp)
	movdqu	(%rdi), %xmm0
	movq	%rcx, %rdi
	movl	%eax, 16(%rsp)
	movq	%r10, 32(%rsp)
	movaps	%xmm0, (%rsp)
	call	_ZN8opendnp312IAPDUHandler8OnHeaderERKNS_11RangeHeaderERKNS_11ICollectionINS_7IndexedINS_7CounterEEEEE@PLT
	movq	72(%rsp), %rax
	xorq	%fs:40, %rax
	jne	.L123
	addq	$88, %rsp
	.cfi_remember_state
	.cfi_def_cfa_offset 8
	ret
.L123:
	.cfi_restore_state
	call	__stack_chk_fail@PLT
	.cfi_endproc
.LFE2917:
	.size	_ZN8opendnp311RangeParser13InvokeRangeOfINS_11Group20Var1EEEvRKNS_12HeaderRecordERKNS_5RangeERKN7openpal6RSliceERNS_12IAPDUHandlerE, .-_ZN8opendnp311RangeParser13InvokeRangeOfINS_11Group20Var1EEEvRKNS_12HeaderRecordERKNS_5RangeERKN7openpal6RSliceERNS_12IAPDUHandlerE
	.section	.text._ZN8opendnp311RangeParser13InvokeRangeOfINS_11Group20Var2EEEvRKNS_12HeaderRecordERKNS_5RangeERKN7openpal6RSliceERNS_12IAPDUHandlerE,"axG",@progbits,_ZN8opendnp311RangeParser13InvokeRangeOfINS_11Group20Var2EEEvRKNS_12HeaderRecordERKNS_5RangeERKN7openpal6RSliceERNS_12IAPDUHandlerE,comdat
	.align 2
	.p2align 4,,15
	.weak	_ZN8opendnp311RangeParser13InvokeRangeOfINS_11Group20Var2EEEvRKNS_12HeaderRecordERKNS_5RangeERKN7openpal6RSliceERNS_12IAPDUHandlerE
	.type	_ZN8opendnp311RangeParser13InvokeRangeOfINS_11Group20Var2EEEvRKNS_12HeaderRecordERKNS_5RangeERKN7openpal6RSliceERNS_12IAPDUHandlerE, @function
_ZN8opendnp311RangeParser13InvokeRangeOfINS_11Group20Var2EEEvRKNS_12HeaderRecordERKNS_5RangeERKN7openpal6RSliceERNS_12IAPDUHandlerE:
.LFB2925:
	.cfi_startproc
	subq	$88, %rsp
	.cfi_def_cfa_offset 96
	movzwl	(%rsi), %r9d
	movzwl	2(%rsi), %r8d
	movq	%fs:40, %rax
	movq	%rax, 72(%rsp)
	xorl	%eax, %eax
	cmpw	%r8w, %r9w
	ja	.L125
	movzwl	%r8w, %eax
	movzwl	%r9w, %r10d
	addl	$1, %eax
	subl	%r10d, %eax
.L125:
	movdqu	(%rdx), %xmm0
	leaq	32(%rsp), %rdx
	movq	_ZTVN8opendnp318BufferedCollectionINS_7IndexedINS_7CounterEEEZNS_11RangeParser13InvokeRangeOfINS_11Group20Var2EEEvRKNS_12HeaderRecordERKNS_5RangeERKN7openpal6RSliceERNS_12IAPDUHandlerEEUlRSE_jE_EE@GOTPCREL(%rip), %r10
	movq	%rax, 56(%rsp)
	movl	(%rsi), %eax
	movq	%rsp, %rsi
	movw	%r9w, 64(%rsp)
	movups	%xmm0, 40(%rsp)
	addq	$16, %r10
	movw	%r8w, 66(%rsp)
	movdqu	(%rdi), %xmm0
	movq	%rcx, %rdi
	movl	%eax, 16(%rsp)
	movq	%r10, 32(%rsp)
	movaps	%xmm0, (%rsp)
	call	_ZN8opendnp312IAPDUHandler8OnHeaderERKNS_11RangeHeaderERKNS_11ICollectionINS_7IndexedINS_7CounterEEEEE@PLT
	movq	72(%rsp), %rax
	xorq	%fs:40, %rax
	jne	.L129
	addq	$88, %rsp
	.cfi_remember_state
	.cfi_def_cfa_offset 8
	ret
.L129:
	.cfi_restore_state
	call	__stack_chk_fail@PLT
	.cfi_endproc
.LFE2925:
	.size	_ZN8opendnp311RangeParser13InvokeRangeOfINS_11Group20Var2EEEvRKNS_12HeaderRecordERKNS_5RangeERKN7openpal6RSliceERNS_12IAPDUHandlerE, .-_ZN8opendnp311RangeParser13InvokeRangeOfINS_11Group20Var2EEEvRKNS_12HeaderRecordERKNS_5RangeERKN7openpal6RSliceERNS_12IAPDUHandlerE
	.section	.text._ZN8opendnp311RangeParser13InvokeRangeOfINS_11Group20Var5EEEvRKNS_12HeaderRecordERKNS_5RangeERKN7openpal6RSliceERNS_12IAPDUHandlerE,"axG",@progbits,_ZN8opendnp311RangeParser13InvokeRangeOfINS_11Group20Var5EEEvRKNS_12HeaderRecordERKNS_5RangeERKN7openpal6RSliceERNS_12IAPDUHandlerE,comdat
	.align 2
	.p2align 4,,15
	.weak	_ZN8opendnp311RangeParser13InvokeRangeOfINS_11Group20Var5EEEvRKNS_12HeaderRecordERKNS_5RangeERKN7openpal6RSliceERNS_12IAPDUHandlerE
	.type	_ZN8opendnp311RangeParser13InvokeRangeOfINS_11Group20Var5EEEvRKNS_12HeaderRecordERKNS_5RangeERKN7openpal6RSliceERNS_12IAPDUHandlerE, @function
_ZN8opendnp311RangeParser13InvokeRangeOfINS_11Group20Var5EEEvRKNS_12HeaderRecordERKNS_5RangeERKN7openpal6RSliceERNS_12IAPDUHandlerE:
.LFB2930:
	.cfi_startproc
	subq	$88, %rsp
	.cfi_def_cfa_offset 96
	movzwl	(%rsi), %r9d
	movzwl	2(%rsi), %r8d
	movq	%fs:40, %rax
	movq	%rax, 72(%rsp)
	xorl	%eax, %eax
	cmpw	%r8w, %r9w
	ja	.L131
	movzwl	%r8w, %eax
	movzwl	%r9w, %r10d
	addl	$1, %eax
	subl	%r10d, %eax
.L131:
	movdqu	(%rdx), %xmm0
	leaq	32(%rsp), %rdx
	movq	_ZTVN8opendnp318BufferedCollectionINS_7IndexedINS_7CounterEEEZNS_11RangeParser13InvokeRangeOfINS_11Group20Var5EEEvRKNS_12HeaderRecordERKNS_5RangeERKN7openpal6RSliceERNS_12IAPDUHandlerEEUlRSE_jE_EE@GOTPCREL(%rip), %r10
	movq	%rax, 56(%rsp)
	movl	(%rsi), %eax
	movq	%rsp, %rsi
	movw	%r9w, 64(%rsp)
	movups	%xmm0, 40(%rsp)
	addq	$16, %r10
	movw	%r8w, 66(%rsp)
	movdqu	(%rdi), %xmm0
	movq	%rcx, %rdi
	movl	%eax, 16(%rsp)
	movq	%r10, 32(%rsp)
	movaps	%xmm0, (%rsp)
	call	_ZN8opendnp312IAPDUHandler8OnHeaderERKNS_11RangeHeaderERKNS_11ICollectionINS_7IndexedINS_7CounterEEEEE@PLT
	movq	72(%rsp), %rax
	xorq	%fs:40, %rax
	jne	.L135
	addq	$88, %rsp
	.cfi_remember_state
	.cfi_def_cfa_offset 8
	ret
.L135:
	.cfi_restore_state
	call	__stack_chk_fail@PLT
	.cfi_endproc
.LFE2930:
	.size	_ZN8opendnp311RangeParser13InvokeRangeOfINS_11Group20Var5EEEvRKNS_12HeaderRecordERKNS_5RangeERKN7openpal6RSliceERNS_12IAPDUHandlerE, .-_ZN8opendnp311RangeParser13InvokeRangeOfINS_11Group20Var5EEEvRKNS_12HeaderRecordERKNS_5RangeERKN7openpal6RSliceERNS_12IAPDUHandlerE
	.section	.text._ZN8opendnp311RangeParser13InvokeRangeOfINS_11Group20Var6EEEvRKNS_12HeaderRecordERKNS_5RangeERKN7openpal6RSliceERNS_12IAPDUHandlerE,"axG",@progbits,_ZN8opendnp311RangeParser13InvokeRangeOfINS_11Group20Var6EEEvRKNS_12HeaderRecordERKNS_5RangeERKN7openpal6RSliceERNS_12IAPDUHandlerE,comdat
	.align 2
	.p2align 4,,15
	.weak	_ZN8opendnp311RangeParser13InvokeRangeOfINS_11Group20Var6EEEvRKNS_12HeaderRecordERKNS_5RangeERKN7openpal6RSliceERNS_12IAPDUHandlerE
	.type	_ZN8opendnp311RangeParser13InvokeRangeOfINS_11Group20Var6EEEvRKNS_12HeaderRecordERKNS_5RangeERKN7openpal6RSliceERNS_12IAPDUHandlerE, @function
_ZN8opendnp311RangeParser13InvokeRangeOfINS_11Group20Var6EEEvRKNS_12HeaderRecordERKNS_5RangeERKN7openpal6RSliceERNS_12IAPDUHandlerE:
.LFB2935:
	.cfi_startproc
	subq	$88, %rsp
	.cfi_def_cfa_offset 96
	movzwl	(%rsi), %r9d
	movzwl	2(%rsi), %r8d
	movq	%fs:40, %rax
	movq	%rax, 72(%rsp)
	xorl	%eax, %eax
	cmpw	%r8w, %r9w
	ja	.L137
	movzwl	%r8w, %eax
	movzwl	%r9w, %r10d
	addl	$1, %eax
	subl	%r10d, %eax
.L137:
	movdqu	(%rdx), %xmm0
	leaq	32(%rsp), %rdx
	movq	_ZTVN8opendnp318BufferedCollectionINS_7IndexedINS_7CounterEEEZNS_11RangeParser13InvokeRangeOfINS_11Group20Var6EEEvRKNS_12HeaderRecordERKNS_5RangeERKN7openpal6RSliceERNS_12IAPDUHandlerEEUlRSE_jE_EE@GOTPCREL(%rip), %r10
	movq	%rax, 56(%rsp)
	movl	(%rsi), %eax
	movq	%rsp, %rsi
	movw	%r9w, 64(%rsp)
	movups	%xmm0, 40(%rsp)
	addq	$16, %r10
	movw	%r8w, 66(%rsp)
	movdqu	(%rdi), %xmm0
	movq	%rcx, %rdi
	movl	%eax, 16(%rsp)
	movq	%r10, 32(%rsp)
	movaps	%xmm0, (%rsp)
	call	_ZN8opendnp312IAPDUHandler8OnHeaderERKNS_11RangeHeaderERKNS_11ICollectionINS_7IndexedINS_7CounterEEEEE@PLT
	movq	72(%rsp), %rax
	xorq	%fs:40, %rax
	jne	.L141
	addq	$88, %rsp
	.cfi_remember_state
	.cfi_def_cfa_offset 8
	ret
.L141:
	.cfi_restore_state
	call	__stack_chk_fail@PLT
	.cfi_endproc
.LFE2935:
	.size	_ZN8opendnp311RangeParser13InvokeRangeOfINS_11Group20Var6EEEvRKNS_12HeaderRecordERKNS_5RangeERKN7openpal6RSliceERNS_12IAPDUHandlerE, .-_ZN8opendnp311RangeParser13InvokeRangeOfINS_11Group20Var6EEEvRKNS_12HeaderRecordERKNS_5RangeERKN7openpal6RSliceERNS_12IAPDUHandlerE
	.section	.text._ZNK8opendnp318BufferedCollectionINS_7IndexedINS_7CounterEEEZNS_11RangeParser13InvokeRangeOfINS_11Group20Var1EEEvRKNS_12HeaderRecordERKNS_5RangeERKN7openpal6RSliceERNS_12IAPDUHandlerEEUlRSE_jE_E7ForeachERNS_8IVisitorIS3_EE,"axG",@progbits,_ZNK8opendnp318BufferedCollectionINS_7IndexedINS_7CounterEEEZNS_11RangeParser13InvokeRangeOfINS_11Group20Var1EEEvRKNS_12HeaderRecordERKNS_5RangeERKN7openpal6RSliceERNS_12IAPDUHandlerEEUlRSE_jE_E7ForeachERNS_8IVisitorIS3_EE,comdat
	.align 2
	.p2align 4,,15
	.weak	_ZNK8opendnp318BufferedCollectionINS_7IndexedINS_7CounterEEEZNS_11RangeParser13InvokeRangeOfINS_11Group20Var1EEEvRKNS_12HeaderRecordERKNS_5RangeERKN7openpal6RSliceERNS_12IAPDUHandlerEEUlRSE_jE_E7ForeachERNS_8IVisitorIS3_EE
	.type	_ZNK8opendnp318BufferedCollectionINS_7IndexedINS_7CounterEEEZNS_11RangeParser13InvokeRangeOfINS_11Group20Var1EEEvRKNS_12HeaderRecordERKNS_5RangeERKN7openpal6RSliceERNS_12IAPDUHandlerEEUlRSE_jE_E7ForeachERNS_8IVisitorIS3_EE, @function
_ZNK8opendnp318BufferedCollectionINS_7IndexedINS_7CounterEEEZNS_11RangeParser13InvokeRangeOfINS_11Group20Var1EEEvRKNS_12HeaderRecordERKNS_5RangeERKN7openpal6RSliceERNS_12IAPDUHandlerEEUlRSE_jE_E7ForeachERNS_8IVisitorIS3_EE:
.LFB3543:
	.cfi_startproc
	pushq	%r15
	.cfi_def_cfa_offset 16
	.cfi_offset 15, -16
	pushq	%r14
	.cfi_def_cfa_offset 24
	.cfi_offset 14, -24
	pushq	%r13
	.cfi_def_cfa_offset 32
	.cfi_offset 13, -32
	pushq	%r12
	.cfi_def_cfa_offset 40
	.cfi_offset 12, -40
	pushq	%rbp
	.cfi_def_cfa_offset 48
	.cfi_offset 6, -48
	pushq	%rbx
	.cfi_def_cfa_offset 56
	.cfi_offset 3, -56
	subq	$120, %rsp
	.cfi_def_cfa_offset 176
	movq	%fs:40, %rax
	movq	%rax, 104(%rsp)
	xorl	%eax, %eax
	cmpq	$0, 24(%rdi)
	movdqu	8(%rdi), %xmm0
	movaps	%xmm0, 16(%rsp)
	je	.L142
	leaq	64(%rsp), %rax
	leaq	32(%rsp), %r13
	leaq	16(%rsp), %r15
	movq	%rdi, %rbp
	movq	%rsi, %r12
	xorl	%ebx, %ebx
	movq	%rax, 8(%rsp)
	.p2align 4,,10
	.p2align 3
.L144:
	movq	(%r12), %rax
	movq	%r13, %rdi
	movq	(%rax), %r14
	call	_ZN8opendnp37CounterC1Ev@PLT
	movq	%r13, %rsi
	movq	%r15, %rdi
	call	_ZN8opendnp311Group20Var110ReadTargetERN7openpal6RSliceERNS_7CounterE@PLT
	movzwl	32(%rbp), %eax
	movq	48(%rsp), %rcx
	movq	%r12, %rdi
	movdqa	32(%rsp), %xmm0
	movq	8(%rsp), %rsi
	movaps	%xmm0, 64(%rsp)
	addl	%ebx, %eax
	movq	%rcx, 80(%rsp)
	movw	%ax, 88(%rsp)
	call	*%r14
	leal	1(%rbx), %eax
	cmpq	24(%rbp), %rax
	movq	%rax, %rbx
	jb	.L144
.L142:
	movq	104(%rsp), %rax
	xorq	%fs:40, %rax
	jne	.L148
	addq	$120, %rsp
	.cfi_remember_state
	.cfi_def_cfa_offset 56
	popq	%rbx
	.cfi_def_cfa_offset 48
	popq	%rbp
	.cfi_def_cfa_offset 40
	popq	%r12
	.cfi_def_cfa_offset 32
	popq	%r13
	.cfi_def_cfa_offset 24
	popq	%r14
	.cfi_def_cfa_offset 16
	popq	%r15
	.cfi_def_cfa_offset 8
	ret
.L148:
	.cfi_restore_state
	call	__stack_chk_fail@PLT
	.cfi_endproc
.LFE3543:
	.size	_ZNK8opendnp318BufferedCollectionINS_7IndexedINS_7CounterEEEZNS_11RangeParser13InvokeRangeOfINS_11Group20Var1EEEvRKNS_12HeaderRecordERKNS_5RangeERKN7openpal6RSliceERNS_12IAPDUHandlerEEUlRSE_jE_E7ForeachERNS_8IVisitorIS3_EE, .-_ZNK8opendnp318BufferedCollectionINS_7IndexedINS_7CounterEEEZNS_11RangeParser13InvokeRangeOfINS_11Group20Var1EEEvRKNS_12HeaderRecordERKNS_5RangeERKN7openpal6RSliceERNS_12IAPDUHandlerEEUlRSE_jE_E7ForeachERNS_8IVisitorIS3_EE
	.section	.text._ZNK8opendnp318BufferedCollectionINS_7IndexedINS_7CounterEEEZNS_11RangeParser13InvokeRangeOfINS_11Group20Var2EEEvRKNS_12HeaderRecordERKNS_5RangeERKN7openpal6RSliceERNS_12IAPDUHandlerEEUlRSE_jE_E7ForeachERNS_8IVisitorIS3_EE,"axG",@progbits,_ZNK8opendnp318BufferedCollectionINS_7IndexedINS_7CounterEEEZNS_11RangeParser13InvokeRangeOfINS_11Group20Var2EEEvRKNS_12HeaderRecordERKNS_5RangeERKN7openpal6RSliceERNS_12IAPDUHandlerEEUlRSE_jE_E7ForeachERNS_8IVisitorIS3_EE,comdat
	.align 2
	.p2align 4,,15
	.weak	_ZNK8opendnp318BufferedCollectionINS_7IndexedINS_7CounterEEEZNS_11RangeParser13InvokeRangeOfINS_11Group20Var2EEEvRKNS_12HeaderRecordERKNS_5RangeERKN7openpal6RSliceERNS_12IAPDUHandlerEEUlRSE_jE_E7ForeachERNS_8IVisitorIS3_EE
	.type	_ZNK8opendnp318BufferedCollectionINS_7IndexedINS_7CounterEEEZNS_11RangeParser13InvokeRangeOfINS_11Group20Var2EEEvRKNS_12HeaderRecordERKNS_5RangeERKN7openpal6RSliceERNS_12IAPDUHandlerEEUlRSE_jE_E7ForeachERNS_8IVisitorIS3_EE, @function
_ZNK8opendnp318BufferedCollectionINS_7IndexedINS_7CounterEEEZNS_11RangeParser13InvokeRangeOfINS_11Group20Var2EEEvRKNS_12HeaderRecordERKNS_5RangeERKN7openpal6RSliceERNS_12IAPDUHandlerEEUlRSE_jE_E7ForeachERNS_8IVisitorIS3_EE:
.LFB3541:
	.cfi_startproc
	pushq	%r15
	.cfi_def_cfa_offset 16
	.cfi_offset 15, -16
	pushq	%r14
	.cfi_def_cfa_offset 24
	.cfi_offset 14, -24
	pushq	%r13
	.cfi_def_cfa_offset 32
	.cfi_offset 13, -32
	pushq	%r12
	.cfi_def_cfa_offset 40
	.cfi_offset 12, -40
	pushq	%rbp
	.cfi_def_cfa_offset 48
	.cfi_offset 6, -48
	pushq	%rbx
	.cfi_def_cfa_offset 56
	.cfi_offset 3, -56
	subq	$120, %rsp
	.cfi_def_cfa_offset 176
	movq	%fs:40, %rax
	movq	%rax, 104(%rsp)
	xorl	%eax, %eax
	cmpq	$0, 24(%rdi)
	movdqu	8(%rdi), %xmm0
	movaps	%xmm0, 16(%rsp)
	je	.L149
	leaq	64(%rsp), %rax
	leaq	32(%rsp), %r13
	leaq	16(%rsp), %r15
	movq	%rdi, %rbp
	movq	%rsi, %r12
	xorl	%ebx, %ebx
	movq	%rax, 8(%rsp)
	.p2align 4,,10
	.p2align 3
.L151:
	movq	(%r12), %rax
	movq	%r13, %rdi
	movq	(%rax), %r14
	call	_ZN8opendnp37CounterC1Ev@PLT
	movq	%r13, %rsi
	movq	%r15, %rdi
	call	_ZN8opendnp311Group20Var210ReadTargetERN7openpal6RSliceERNS_7CounterE@PLT
	movzwl	32(%rbp), %eax
	movq	48(%rsp), %rcx
	movq	%r12, %rdi
	movdqa	32(%rsp), %xmm0
	movq	8(%rsp), %rsi
	movaps	%xmm0, 64(%rsp)
	addl	%ebx, %eax
	movq	%rcx, 80(%rsp)
	movw	%ax, 88(%rsp)
	call	*%r14
	leal	1(%rbx), %eax
	cmpq	24(%rbp), %rax
	movq	%rax, %rbx
	jb	.L151
.L149:
	movq	104(%rsp), %rax
	xorq	%fs:40, %rax
	jne	.L155
	addq	$120, %rsp
	.cfi_remember_state
	.cfi_def_cfa_offset 56
	popq	%rbx
	.cfi_def_cfa_offset 48
	popq	%rbp
	.cfi_def_cfa_offset 40
	popq	%r12
	.cfi_def_cfa_offset 32
	popq	%r13
	.cfi_def_cfa_offset 24
	popq	%r14
	.cfi_def_cfa_offset 16
	popq	%r15
	.cfi_def_cfa_offset 8
	ret
.L155:
	.cfi_restore_state
	call	__stack_chk_fail@PLT
	.cfi_endproc
.LFE3541:
	.size	_ZNK8opendnp318BufferedCollectionINS_7IndexedINS_7CounterEEEZNS_11RangeParser13InvokeRangeOfINS_11Group20Var2EEEvRKNS_12HeaderRecordERKNS_5RangeERKN7openpal6RSliceERNS_12IAPDUHandlerEEUlRSE_jE_E7ForeachERNS_8IVisitorIS3_EE, .-_ZNK8opendnp318BufferedCollectionINS_7IndexedINS_7CounterEEEZNS_11RangeParser13InvokeRangeOfINS_11Group20Var2EEEvRKNS_12HeaderRecordERKNS_5RangeERKN7openpal6RSliceERNS_12IAPDUHandlerEEUlRSE_jE_E7ForeachERNS_8IVisitorIS3_EE
	.section	.text._ZNK8opendnp318BufferedCollectionINS_7IndexedINS_7CounterEEEZNS_11RangeParser13InvokeRangeOfINS_11Group20Var5EEEvRKNS_12HeaderRecordERKNS_5RangeERKN7openpal6RSliceERNS_12IAPDUHandlerEEUlRSE_jE_E7ForeachERNS_8IVisitorIS3_EE,"axG",@progbits,_ZNK8opendnp318BufferedCollectionINS_7IndexedINS_7CounterEEEZNS_11RangeParser13InvokeRangeOfINS_11Group20Var5EEEvRKNS_12HeaderRecordERKNS_5RangeERKN7openpal6RSliceERNS_12IAPDUHandlerEEUlRSE_jE_E7ForeachERNS_8IVisitorIS3_EE,comdat
	.align 2
	.p2align 4,,15
	.weak	_ZNK8opendnp318BufferedCollectionINS_7IndexedINS_7CounterEEEZNS_11RangeParser13InvokeRangeOfINS_11Group20Var5EEEvRKNS_12HeaderRecordERKNS_5RangeERKN7openpal6RSliceERNS_12IAPDUHandlerEEUlRSE_jE_E7ForeachERNS_8IVisitorIS3_EE
	.type	_ZNK8opendnp318BufferedCollectionINS_7IndexedINS_7CounterEEEZNS_11RangeParser13InvokeRangeOfINS_11Group20Var5EEEvRKNS_12HeaderRecordERKNS_5RangeERKN7openpal6RSliceERNS_12IAPDUHandlerEEUlRSE_jE_E7ForeachERNS_8IVisitorIS3_EE, @function
_ZNK8opendnp318BufferedCollectionINS_7IndexedINS_7CounterEEEZNS_11RangeParser13InvokeRangeOfINS_11Group20Var5EEEvRKNS_12HeaderRecordERKNS_5RangeERKN7openpal6RSliceERNS_12IAPDUHandlerEEUlRSE_jE_E7ForeachERNS_8IVisitorIS3_EE:
.LFB3539:
	.cfi_startproc
	pushq	%r15
	.cfi_def_cfa_offset 16
	.cfi_offset 15, -16
	pushq	%r14
	.cfi_def_cfa_offset 24
	.cfi_offset 14, -24
	pushq	%r13
	.cfi_def_cfa_offset 32
	.cfi_offset 13, -32
	pushq	%r12
	.cfi_def_cfa_offset 40
	.cfi_offset 12, -40
	pushq	%rbp
	.cfi_def_cfa_offset 48
	.cfi_offset 6, -48
	pushq	%rbx
	.cfi_def_cfa_offset 56
	.cfi_offset 3, -56
	subq	$120, %rsp
	.cfi_def_cfa_offset 176
	movq	%fs:40, %rax
	movq	%rax, 104(%rsp)
	xorl	%eax, %eax
	cmpq	$0, 24(%rdi)
	movdqu	8(%rdi), %xmm0
	movaps	%xmm0, 16(%rsp)
	je	.L156
	leaq	64(%rsp), %rax
	leaq	32(%rsp), %r13
	leaq	16(%rsp), %r15
	movq	%rdi, %rbp
	movq	%rsi, %r12
	xorl	%ebx, %ebx
	movq	%rax, 8(%rsp)
	.p2align 4,,10
	.p2align 3
.L158:
	movq	(%r12), %rax
	movq	%r13, %rdi
	movq	(%rax), %r14
	call	_ZN8opendnp37CounterC1Ev@PLT
	movq	%r13, %rsi
	movq	%r15, %rdi
	call	_ZN8opendnp311Group20Var510ReadTargetERN7openpal6RSliceERNS_7CounterE@PLT
	movzwl	32(%rbp), %eax
	movq	48(%rsp), %rcx
	movq	%r12, %rdi
	movdqa	32(%rsp), %xmm0
	movq	8(%rsp), %rsi
	movaps	%xmm0, 64(%rsp)
	addl	%ebx, %eax
	movq	%rcx, 80(%rsp)
	movw	%ax, 88(%rsp)
	call	*%r14
	leal	1(%rbx), %eax
	cmpq	24(%rbp), %rax
	movq	%rax, %rbx
	jb	.L158
.L156:
	movq	104(%rsp), %rax
	xorq	%fs:40, %rax
	jne	.L162
	addq	$120, %rsp
	.cfi_remember_state
	.cfi_def_cfa_offset 56
	popq	%rbx
	.cfi_def_cfa_offset 48
	popq	%rbp
	.cfi_def_cfa_offset 40
	popq	%r12
	.cfi_def_cfa_offset 32
	popq	%r13
	.cfi_def_cfa_offset 24
	popq	%r14
	.cfi_def_cfa_offset 16
	popq	%r15
	.cfi_def_cfa_offset 8
	ret
.L162:
	.cfi_restore_state
	call	__stack_chk_fail@PLT
	.cfi_endproc
.LFE3539:
	.size	_ZNK8opendnp318BufferedCollectionINS_7IndexedINS_7CounterEEEZNS_11RangeParser13InvokeRangeOfINS_11Group20Var5EEEvRKNS_12HeaderRecordERKNS_5RangeERKN7openpal6RSliceERNS_12IAPDUHandlerEEUlRSE_jE_E7ForeachERNS_8IVisitorIS3_EE, .-_ZNK8opendnp318BufferedCollectionINS_7IndexedINS_7CounterEEEZNS_11RangeParser13InvokeRangeOfINS_11Group20Var5EEEvRKNS_12HeaderRecordERKNS_5RangeERKN7openpal6RSliceERNS_12IAPDUHandlerEEUlRSE_jE_E7ForeachERNS_8IVisitorIS3_EE
	.section	.text._ZNK8opendnp318BufferedCollectionINS_7IndexedINS_7CounterEEEZNS_11RangeParser13InvokeRangeOfINS_11Group20Var6EEEvRKNS_12HeaderRecordERKNS_5RangeERKN7openpal6RSliceERNS_12IAPDUHandlerEEUlRSE_jE_E7ForeachERNS_8IVisitorIS3_EE,"axG",@progbits,_ZNK8opendnp318BufferedCollectionINS_7IndexedINS_7CounterEEEZNS_11RangeParser13InvokeRangeOfINS_11Group20Var6EEEvRKNS_12HeaderRecordERKNS_5RangeERKN7openpal6RSliceERNS_12IAPDUHandlerEEUlRSE_jE_E7ForeachERNS_8IVisitorIS3_EE,comdat
	.align 2
	.p2align 4,,15
	.weak	_ZNK8opendnp318BufferedCollectionINS_7IndexedINS_7CounterEEEZNS_11RangeParser13InvokeRangeOfINS_11Group20Var6EEEvRKNS_12HeaderRecordERKNS_5RangeERKN7openpal6RSliceERNS_12IAPDUHandlerEEUlRSE_jE_E7ForeachERNS_8IVisitorIS3_EE
	.type	_ZNK8opendnp318BufferedCollectionINS_7IndexedINS_7CounterEEEZNS_11RangeParser13InvokeRangeOfINS_11Group20Var6EEEvRKNS_12HeaderRecordERKNS_5RangeERKN7openpal6RSliceERNS_12IAPDUHandlerEEUlRSE_jE_E7ForeachERNS_8IVisitorIS3_EE, @function
_ZNK8opendnp318BufferedCollectionINS_7IndexedINS_7CounterEEEZNS_11RangeParser13InvokeRangeOfINS_11Group20Var6EEEvRKNS_12HeaderRecordERKNS_5RangeERKN7openpal6RSliceERNS_12IAPDUHandlerEEUlRSE_jE_E7ForeachERNS_8IVisitorIS3_EE:
.LFB3537:
	.cfi_startproc
	pushq	%r15
	.cfi_def_cfa_offset 16
	.cfi_offset 15, -16
	pushq	%r14
	.cfi_def_cfa_offset 24
	.cfi_offset 14, -24
	pushq	%r13
	.cfi_def_cfa_offset 32
	.cfi_offset 13, -32
	pushq	%r12
	.cfi_def_cfa_offset 40
	.cfi_offset 12, -40
	pushq	%rbp
	.cfi_def_cfa_offset 48
	.cfi_offset 6, -48
	pushq	%rbx
	.cfi_def_cfa_offset 56
	.cfi_offset 3, -56
	subq	$120, %rsp
	.cfi_def_cfa_offset 176
	movq	%fs:40, %rax
	movq	%rax, 104(%rsp)
	xorl	%eax, %eax
	cmpq	$0, 24(%rdi)
	movdqu	8(%rdi), %xmm0
	movaps	%xmm0, 16(%rsp)
	je	.L163
	leaq	64(%rsp), %rax
	leaq	32(%rsp), %r13
	leaq	16(%rsp), %r15
	movq	%rdi, %rbp
	movq	%rsi, %r12
	xorl	%ebx, %ebx
	movq	%rax, 8(%rsp)
	.p2align 4,,10
	.p2align 3
.L165:
	movq	(%r12), %rax
	movq	%r13, %rdi
	movq	(%rax), %r14
	call	_ZN8opendnp37CounterC1Ev@PLT
	movq	%r13, %rsi
	movq	%r15, %rdi
	call	_ZN8opendnp311Group20Var610ReadTargetERN7openpal6RSliceERNS_7CounterE@PLT
	movzwl	32(%rbp), %eax
	movq	48(%rsp), %rcx
	movq	%r12, %rdi
	movdqa	32(%rsp), %xmm0
	movq	8(%rsp), %rsi
	movaps	%xmm0, 64(%rsp)
	addl	%ebx, %eax
	movq	%rcx, 80(%rsp)
	movw	%ax, 88(%rsp)
	call	*%r14
	leal	1(%rbx), %eax
	cmpq	24(%rbp), %rax
	movq	%rax, %rbx
	jb	.L165
.L163:
	movq	104(%rsp), %rax
	xorq	%fs:40, %rax
	jne	.L169
	addq	$120, %rsp
	.cfi_remember_state
	.cfi_def_cfa_offset 56
	popq	%rbx
	.cfi_def_cfa_offset 48
	popq	%rbp
	.cfi_def_cfa_offset 40
	popq	%r12
	.cfi_def_cfa_offset 32
	popq	%r13
	.cfi_def_cfa_offset 24
	popq	%r14
	.cfi_def_cfa_offset 16
	popq	%r15
	.cfi_def_cfa_offset 8
	ret
.L169:
	.cfi_restore_state
	call	__stack_chk_fail@PLT
	.cfi_endproc
.LFE3537:
	.size	_ZNK8opendnp318BufferedCollectionINS_7IndexedINS_7CounterEEEZNS_11RangeParser13InvokeRangeOfINS_11Group20Var6EEEvRKNS_12HeaderRecordERKNS_5RangeERKN7openpal6RSliceERNS_12IAPDUHandlerEEUlRSE_jE_E7ForeachERNS_8IVisitorIS3_EE, .-_ZNK8opendnp318BufferedCollectionINS_7IndexedINS_7CounterEEEZNS_11RangeParser13InvokeRangeOfINS_11Group20Var6EEEvRKNS_12HeaderRecordERKNS_5RangeERKN7openpal6RSliceERNS_12IAPDUHandlerEEUlRSE_jE_E7ForeachERNS_8IVisitorIS3_EE
	.section	.text._ZN8opendnp311RangeParser13InvokeRangeOfINS_11Group21Var1EEEvRKNS_12HeaderRecordERKNS_5RangeERKN7openpal6RSliceERNS_12IAPDUHandlerE,"axG",@progbits,_ZN8opendnp311RangeParser13InvokeRangeOfINS_11Group21Var1EEEvRKNS_12HeaderRecordERKNS_5RangeERKN7openpal6RSliceERNS_12IAPDUHandlerE,comdat
	.align 2
	.p2align 4,,15
	.weak	_ZN8opendnp311RangeParser13InvokeRangeOfINS_11Group21Var1EEEvRKNS_12HeaderRecordERKNS_5RangeERKN7openpal6RSliceERNS_12IAPDUHandlerE
	.type	_ZN8opendnp311RangeParser13InvokeRangeOfINS_11Group21Var1EEEvRKNS_12HeaderRecordERKNS_5RangeERKN7openpal6RSliceERNS_12IAPDUHandlerE, @function
_ZN8opendnp311RangeParser13InvokeRangeOfINS_11Group21Var1EEEvRKNS_12HeaderRecordERKNS_5RangeERKN7openpal6RSliceERNS_12IAPDUHandlerE:
.LFB2940:
	.cfi_startproc
	subq	$88, %rsp
	.cfi_def_cfa_offset 96
	movzwl	(%rsi), %r9d
	movzwl	2(%rsi), %r8d
	movq	%fs:40, %rax
	movq	%rax, 72(%rsp)
	xorl	%eax, %eax
	cmpw	%r8w, %r9w
	ja	.L171
	movzwl	%r8w, %eax
	movzwl	%r9w, %r10d
	addl	$1, %eax
	subl	%r10d, %eax
.L171:
	movdqu	(%rdx), %xmm0
	leaq	32(%rsp), %rdx
	movq	_ZTVN8opendnp318BufferedCollectionINS_7IndexedINS_13FrozenCounterEEEZNS_11RangeParser13InvokeRangeOfINS_11Group21Var1EEEvRKNS_12HeaderRecordERKNS_5RangeERKN7openpal6RSliceERNS_12IAPDUHandlerEEUlRSE_jE_EE@GOTPCREL(%rip), %r10
	movq	%rax, 56(%rsp)
	movl	(%rsi), %eax
	movq	%rsp, %rsi
	movw	%r9w, 64(%rsp)
	movups	%xmm0, 40(%rsp)
	addq	$16, %r10
	movw	%r8w, 66(%rsp)
	movdqu	(%rdi), %xmm0
	movq	%rcx, %rdi
	movl	%eax, 16(%rsp)
	movq	%r10, 32(%rsp)
	movaps	%xmm0, (%rsp)
	call	_ZN8opendnp312IAPDUHandler8OnHeaderERKNS_11RangeHeaderERKNS_11ICollectionINS_7IndexedINS_13FrozenCounterEEEEE@PLT
	movq	72(%rsp), %rax
	xorq	%fs:40, %rax
	jne	.L175
	addq	$88, %rsp
	.cfi_remember_state
	.cfi_def_cfa_offset 8
	ret
.L175:
	.cfi_restore_state
	call	__stack_chk_fail@PLT
	.cfi_endproc
.LFE2940:
	.size	_ZN8opendnp311RangeParser13InvokeRangeOfINS_11Group21Var1EEEvRKNS_12HeaderRecordERKNS_5RangeERKN7openpal6RSliceERNS_12IAPDUHandlerE, .-_ZN8opendnp311RangeParser13InvokeRangeOfINS_11Group21Var1EEEvRKNS_12HeaderRecordERKNS_5RangeERKN7openpal6RSliceERNS_12IAPDUHandlerE
	.section	.text._ZN8opendnp311RangeParser13InvokeRangeOfINS_11Group21Var2EEEvRKNS_12HeaderRecordERKNS_5RangeERKN7openpal6RSliceERNS_12IAPDUHandlerE,"axG",@progbits,_ZN8opendnp311RangeParser13InvokeRangeOfINS_11Group21Var2EEEvRKNS_12HeaderRecordERKNS_5RangeERKN7openpal6RSliceERNS_12IAPDUHandlerE,comdat
	.align 2
	.p2align 4,,15
	.weak	_ZN8opendnp311RangeParser13InvokeRangeOfINS_11Group21Var2EEEvRKNS_12HeaderRecordERKNS_5RangeERKN7openpal6RSliceERNS_12IAPDUHandlerE
	.type	_ZN8opendnp311RangeParser13InvokeRangeOfINS_11Group21Var2EEEvRKNS_12HeaderRecordERKNS_5RangeERKN7openpal6RSliceERNS_12IAPDUHandlerE, @function
_ZN8opendnp311RangeParser13InvokeRangeOfINS_11Group21Var2EEEvRKNS_12HeaderRecordERKNS_5RangeERKN7openpal6RSliceERNS_12IAPDUHandlerE:
.LFB2948:
	.cfi_startproc
	subq	$88, %rsp
	.cfi_def_cfa_offset 96
	movzwl	(%rsi), %r9d
	movzwl	2(%rsi), %r8d
	movq	%fs:40, %rax
	movq	%rax, 72(%rsp)
	xorl	%eax, %eax
	cmpw	%r8w, %r9w
	ja	.L177
	movzwl	%r8w, %eax
	movzwl	%r9w, %r10d
	addl	$1, %eax
	subl	%r10d, %eax
.L177:
	movdqu	(%rdx), %xmm0
	leaq	32(%rsp), %rdx
	movq	_ZTVN8opendnp318BufferedCollectionINS_7IndexedINS_13FrozenCounterEEEZNS_11RangeParser13InvokeRangeOfINS_11Group21Var2EEEvRKNS_12HeaderRecordERKNS_5RangeERKN7openpal6RSliceERNS_12IAPDUHandlerEEUlRSE_jE_EE@GOTPCREL(%rip), %r10
	movq	%rax, 56(%rsp)
	movl	(%rsi), %eax
	movq	%rsp, %rsi
	movw	%r9w, 64(%rsp)
	movups	%xmm0, 40(%rsp)
	addq	$16, %r10
	movw	%r8w, 66(%rsp)
	movdqu	(%rdi), %xmm0
	movq	%rcx, %rdi
	movl	%eax, 16(%rsp)
	movq	%r10, 32(%rsp)
	movaps	%xmm0, (%rsp)
	call	_ZN8opendnp312IAPDUHandler8OnHeaderERKNS_11RangeHeaderERKNS_11ICollectionINS_7IndexedINS_13FrozenCounterEEEEE@PLT
	movq	72(%rsp), %rax
	xorq	%fs:40, %rax
	jne	.L181
	addq	$88, %rsp
	.cfi_remember_state
	.cfi_def_cfa_offset 8
	ret
.L181:
	.cfi_restore_state
	call	__stack_chk_fail@PLT
	.cfi_endproc
.LFE2948:
	.size	_ZN8opendnp311RangeParser13InvokeRangeOfINS_11Group21Var2EEEvRKNS_12HeaderRecordERKNS_5RangeERKN7openpal6RSliceERNS_12IAPDUHandlerE, .-_ZN8opendnp311RangeParser13InvokeRangeOfINS_11Group21Var2EEEvRKNS_12HeaderRecordERKNS_5RangeERKN7openpal6RSliceERNS_12IAPDUHandlerE
	.section	.text._ZN8opendnp311RangeParser13InvokeRangeOfINS_11Group21Var5EEEvRKNS_12HeaderRecordERKNS_5RangeERKN7openpal6RSliceERNS_12IAPDUHandlerE,"axG",@progbits,_ZN8opendnp311RangeParser13InvokeRangeOfINS_11Group21Var5EEEvRKNS_12HeaderRecordERKNS_5RangeERKN7openpal6RSliceERNS_12IAPDUHandlerE,comdat
	.align 2
	.p2align 4,,15
	.weak	_ZN8opendnp311RangeParser13InvokeRangeOfINS_11Group21Var5EEEvRKNS_12HeaderRecordERKNS_5RangeERKN7openpal6RSliceERNS_12IAPDUHandlerE
	.type	_ZN8opendnp311RangeParser13InvokeRangeOfINS_11Group21Var5EEEvRKNS_12HeaderRecordERKNS_5RangeERKN7openpal6RSliceERNS_12IAPDUHandlerE, @function
_ZN8opendnp311RangeParser13InvokeRangeOfINS_11Group21Var5EEEvRKNS_12HeaderRecordERKNS_5RangeERKN7openpal6RSliceERNS_12IAPDUHandlerE:
.LFB2953:
	.cfi_startproc
	subq	$88, %rsp
	.cfi_def_cfa_offset 96
	movzwl	(%rsi), %r9d
	movzwl	2(%rsi), %r8d
	movq	%fs:40, %rax
	movq	%rax, 72(%rsp)
	xorl	%eax, %eax
	cmpw	%r8w, %r9w
	ja	.L183
	movzwl	%r8w, %eax
	movzwl	%r9w, %r10d
	addl	$1, %eax
	subl	%r10d, %eax
.L183:
	movdqu	(%rdx), %xmm0
	leaq	32(%rsp), %rdx
	movq	_ZTVN8opendnp318BufferedCollectionINS_7IndexedINS_13FrozenCounterEEEZNS_11RangeParser13InvokeRangeOfINS_11Group21Var5EEEvRKNS_12HeaderRecordERKNS_5RangeERKN7openpal6RSliceERNS_12IAPDUHandlerEEUlRSE_jE_EE@GOTPCREL(%rip), %r10
	movq	%rax, 56(%rsp)
	movl	(%rsi), %eax
	movq	%rsp, %rsi
	movw	%r9w, 64(%rsp)
	movups	%xmm0, 40(%rsp)
	addq	$16, %r10
	movw	%r8w, 66(%rsp)
	movdqu	(%rdi), %xmm0
	movq	%rcx, %rdi
	movl	%eax, 16(%rsp)
	movq	%r10, 32(%rsp)
	movaps	%xmm0, (%rsp)
	call	_ZN8opendnp312IAPDUHandler8OnHeaderERKNS_11RangeHeaderERKNS_11ICollectionINS_7IndexedINS_13FrozenCounterEEEEE@PLT
	movq	72(%rsp), %rax
	xorq	%fs:40, %rax
	jne	.L187
	addq	$88, %rsp
	.cfi_remember_state
	.cfi_def_cfa_offset 8
	ret
.L187:
	.cfi_restore_state
	call	__stack_chk_fail@PLT
	.cfi_endproc
.LFE2953:
	.size	_ZN8opendnp311RangeParser13InvokeRangeOfINS_11Group21Var5EEEvRKNS_12HeaderRecordERKNS_5RangeERKN7openpal6RSliceERNS_12IAPDUHandlerE, .-_ZN8opendnp311RangeParser13InvokeRangeOfINS_11Group21Var5EEEvRKNS_12HeaderRecordERKNS_5RangeERKN7openpal6RSliceERNS_12IAPDUHandlerE
	.section	.text._ZN8opendnp311RangeParser13InvokeRangeOfINS_11Group21Var6EEEvRKNS_12HeaderRecordERKNS_5RangeERKN7openpal6RSliceERNS_12IAPDUHandlerE,"axG",@progbits,_ZN8opendnp311RangeParser13InvokeRangeOfINS_11Group21Var6EEEvRKNS_12HeaderRecordERKNS_5RangeERKN7openpal6RSliceERNS_12IAPDUHandlerE,comdat
	.align 2
	.p2align 4,,15
	.weak	_ZN8opendnp311RangeParser13InvokeRangeOfINS_11Group21Var6EEEvRKNS_12HeaderRecordERKNS_5RangeERKN7openpal6RSliceERNS_12IAPDUHandlerE
	.type	_ZN8opendnp311RangeParser13InvokeRangeOfINS_11Group21Var6EEEvRKNS_12HeaderRecordERKNS_5RangeERKN7openpal6RSliceERNS_12IAPDUHandlerE, @function
_ZN8opendnp311RangeParser13InvokeRangeOfINS_11Group21Var6EEEvRKNS_12HeaderRecordERKNS_5RangeERKN7openpal6RSliceERNS_12IAPDUHandlerE:
.LFB2958:
	.cfi_startproc
	subq	$88, %rsp
	.cfi_def_cfa_offset 96
	movzwl	(%rsi), %r9d
	movzwl	2(%rsi), %r8d
	movq	%fs:40, %rax
	movq	%rax, 72(%rsp)
	xorl	%eax, %eax
	cmpw	%r8w, %r9w
	ja	.L189
	movzwl	%r8w, %eax
	movzwl	%r9w, %r10d
	addl	$1, %eax
	subl	%r10d, %eax
.L189:
	movdqu	(%rdx), %xmm0
	leaq	32(%rsp), %rdx
	movq	_ZTVN8opendnp318BufferedCollectionINS_7IndexedINS_13FrozenCounterEEEZNS_11RangeParser13InvokeRangeOfINS_11Group21Var6EEEvRKNS_12HeaderRecordERKNS_5RangeERKN7openpal6RSliceERNS_12IAPDUHandlerEEUlRSE_jE_EE@GOTPCREL(%rip), %r10
	movq	%rax, 56(%rsp)
	movl	(%rsi), %eax
	movq	%rsp, %rsi
	movw	%r9w, 64(%rsp)
	movups	%xmm0, 40(%rsp)
	addq	$16, %r10
	movw	%r8w, 66(%rsp)
	movdqu	(%rdi), %xmm0
	movq	%rcx, %rdi
	movl	%eax, 16(%rsp)
	movq	%r10, 32(%rsp)
	movaps	%xmm0, (%rsp)
	call	_ZN8opendnp312IAPDUHandler8OnHeaderERKNS_11RangeHeaderERKNS_11ICollectionINS_7IndexedINS_13FrozenCounterEEEEE@PLT
	movq	72(%rsp), %rax
	xorq	%fs:40, %rax
	jne	.L193
	addq	$88, %rsp
	.cfi_remember_state
	.cfi_def_cfa_offset 8
	ret
.L193:
	.cfi_restore_state
	call	__stack_chk_fail@PLT
	.cfi_endproc
.LFE2958:
	.size	_ZN8opendnp311RangeParser13InvokeRangeOfINS_11Group21Var6EEEvRKNS_12HeaderRecordERKNS_5RangeERKN7openpal6RSliceERNS_12IAPDUHandlerE, .-_ZN8opendnp311RangeParser13InvokeRangeOfINS_11Group21Var6EEEvRKNS_12HeaderRecordERKNS_5RangeERKN7openpal6RSliceERNS_12IAPDUHandlerE
	.section	.text._ZN8opendnp311RangeParser13InvokeRangeOfINS_11Group21Var9EEEvRKNS_12HeaderRecordERKNS_5RangeERKN7openpal6RSliceERNS_12IAPDUHandlerE,"axG",@progbits,_ZN8opendnp311RangeParser13InvokeRangeOfINS_11Group21Var9EEEvRKNS_12HeaderRecordERKNS_5RangeERKN7openpal6RSliceERNS_12IAPDUHandlerE,comdat
	.align 2
	.p2align 4,,15
	.weak	_ZN8opendnp311RangeParser13InvokeRangeOfINS_11Group21Var9EEEvRKNS_12HeaderRecordERKNS_5RangeERKN7openpal6RSliceERNS_12IAPDUHandlerE
	.type	_ZN8opendnp311RangeParser13InvokeRangeOfINS_11Group21Var9EEEvRKNS_12HeaderRecordERKNS_5RangeERKN7openpal6RSliceERNS_12IAPDUHandlerE, @function
_ZN8opendnp311RangeParser13InvokeRangeOfINS_11Group21Var9EEEvRKNS_12HeaderRecordERKNS_5RangeERKN7openpal6RSliceERNS_12IAPDUHandlerE:
.LFB2963:
	.cfi_startproc
	subq	$88, %rsp
	.cfi_def_cfa_offset 96
	movzwl	(%rsi), %r9d
	movzwl	2(%rsi), %r8d
	movq	%fs:40, %rax
	movq	%rax, 72(%rsp)
	xorl	%eax, %eax
	cmpw	%r8w, %r9w
	ja	.L195
	movzwl	%r8w, %eax
	movzwl	%r9w, %r10d
	addl	$1, %eax
	subl	%r10d, %eax
.L195:
	movdqu	(%rdx), %xmm0
	leaq	32(%rsp), %rdx
	movq	_ZTVN8opendnp318BufferedCollectionINS_7IndexedINS_13FrozenCounterEEEZNS_11RangeParser13InvokeRangeOfINS_11Group21Var9EEEvRKNS_12HeaderRecordERKNS_5RangeERKN7openpal6RSliceERNS_12IAPDUHandlerEEUlRSE_jE_EE@GOTPCREL(%rip), %r10
	movq	%rax, 56(%rsp)
	movl	(%rsi), %eax
	movq	%rsp, %rsi
	movw	%r9w, 64(%rsp)
	movups	%xmm0, 40(%rsp)
	addq	$16, %r10
	movw	%r8w, 66(%rsp)
	movdqu	(%rdi), %xmm0
	movq	%rcx, %rdi
	movl	%eax, 16(%rsp)
	movq	%r10, 32(%rsp)
	movaps	%xmm0, (%rsp)
	call	_ZN8opendnp312IAPDUHandler8OnHeaderERKNS_11RangeHeaderERKNS_11ICollectionINS_7IndexedINS_13FrozenCounterEEEEE@PLT
	movq	72(%rsp), %rax
	xorq	%fs:40, %rax
	jne	.L199
	addq	$88, %rsp
	.cfi_remember_state
	.cfi_def_cfa_offset 8
	ret
.L199:
	.cfi_restore_state
	call	__stack_chk_fail@PLT
	.cfi_endproc
.LFE2963:
	.size	_ZN8opendnp311RangeParser13InvokeRangeOfINS_11Group21Var9EEEvRKNS_12HeaderRecordERKNS_5RangeERKN7openpal6RSliceERNS_12IAPDUHandlerE, .-_ZN8opendnp311RangeParser13InvokeRangeOfINS_11Group21Var9EEEvRKNS_12HeaderRecordERKNS_5RangeERKN7openpal6RSliceERNS_12IAPDUHandlerE
	.section	.text._ZN8opendnp311RangeParser13InvokeRangeOfINS_12Group21Var10EEEvRKNS_12HeaderRecordERKNS_5RangeERKN7openpal6RSliceERNS_12IAPDUHandlerE,"axG",@progbits,_ZN8opendnp311RangeParser13InvokeRangeOfINS_12Group21Var10EEEvRKNS_12HeaderRecordERKNS_5RangeERKN7openpal6RSliceERNS_12IAPDUHandlerE,comdat
	.align 2
	.p2align 4,,15
	.weak	_ZN8opendnp311RangeParser13InvokeRangeOfINS_12Group21Var10EEEvRKNS_12HeaderRecordERKNS_5RangeERKN7openpal6RSliceERNS_12IAPDUHandlerE
	.type	_ZN8opendnp311RangeParser13InvokeRangeOfINS_12Group21Var10EEEvRKNS_12HeaderRecordERKNS_5RangeERKN7openpal6RSliceERNS_12IAPDUHandlerE, @function
_ZN8opendnp311RangeParser13InvokeRangeOfINS_12Group21Var10EEEvRKNS_12HeaderRecordERKNS_5RangeERKN7openpal6RSliceERNS_12IAPDUHandlerE:
.LFB2968:
	.cfi_startproc
	subq	$88, %rsp
	.cfi_def_cfa_offset 96
	movzwl	(%rsi), %r9d
	movzwl	2(%rsi), %r8d
	movq	%fs:40, %rax
	movq	%rax, 72(%rsp)
	xorl	%eax, %eax
	cmpw	%r8w, %r9w
	ja	.L201
	movzwl	%r8w, %eax
	movzwl	%r9w, %r10d
	addl	$1, %eax
	subl	%r10d, %eax
.L201:
	movdqu	(%rdx), %xmm0
	leaq	32(%rsp), %rdx
	movq	_ZTVN8opendnp318BufferedCollectionINS_7IndexedINS_13FrozenCounterEEEZNS_11RangeParser13InvokeRangeOfINS_12Group21Var10EEEvRKNS_12HeaderRecordERKNS_5RangeERKN7openpal6RSliceERNS_12IAPDUHandlerEEUlRSE_jE_EE@GOTPCREL(%rip), %r10
	movq	%rax, 56(%rsp)
	movl	(%rsi), %eax
	movq	%rsp, %rsi
	movw	%r9w, 64(%rsp)
	movups	%xmm0, 40(%rsp)
	addq	$16, %r10
	movw	%r8w, 66(%rsp)
	movdqu	(%rdi), %xmm0
	movq	%rcx, %rdi
	movl	%eax, 16(%rsp)
	movq	%r10, 32(%rsp)
	movaps	%xmm0, (%rsp)
	call	_ZN8opendnp312IAPDUHandler8OnHeaderERKNS_11RangeHeaderERKNS_11ICollectionINS_7IndexedINS_13FrozenCounterEEEEE@PLT
	movq	72(%rsp), %rax
	xorq	%fs:40, %rax
	jne	.L205
	addq	$88, %rsp
	.cfi_remember_state
	.cfi_def_cfa_offset 8
	ret
.L205:
	.cfi_restore_state
	call	__stack_chk_fail@PLT
	.cfi_endproc
.LFE2968:
	.size	_ZN8opendnp311RangeParser13InvokeRangeOfINS_12Group21Var10EEEvRKNS_12HeaderRecordERKNS_5RangeERKN7openpal6RSliceERNS_12IAPDUHandlerE, .-_ZN8opendnp311RangeParser13InvokeRangeOfINS_12Group21Var10EEEvRKNS_12HeaderRecordERKNS_5RangeERKN7openpal6RSliceERNS_12IAPDUHandlerE
	.section	.text._ZNK8opendnp318BufferedCollectionINS_7IndexedINS_13FrozenCounterEEEZNS_11RangeParser13InvokeRangeOfINS_11Group21Var1EEEvRKNS_12HeaderRecordERKNS_5RangeERKN7openpal6RSliceERNS_12IAPDUHandlerEEUlRSE_jE_E7ForeachERNS_8IVisitorIS3_EE,"axG",@progbits,_ZNK8opendnp318BufferedCollectionINS_7IndexedINS_13FrozenCounterEEEZNS_11RangeParser13InvokeRangeOfINS_11Group21Var1EEEvRKNS_12HeaderRecordERKNS_5RangeERKN7openpal6RSliceERNS_12IAPDUHandlerEEUlRSE_jE_E7ForeachERNS_8IVisitorIS3_EE,comdat
	.align 2
	.p2align 4,,15
	.weak	_ZNK8opendnp318BufferedCollectionINS_7IndexedINS_13FrozenCounterEEEZNS_11RangeParser13InvokeRangeOfINS_11Group21Var1EEEvRKNS_12HeaderRecordERKNS_5RangeERKN7openpal6RSliceERNS_12IAPDUHandlerEEUlRSE_jE_E7ForeachERNS_8IVisitorIS3_EE
	.type	_ZNK8opendnp318BufferedCollectionINS_7IndexedINS_13FrozenCounterEEEZNS_11RangeParser13InvokeRangeOfINS_11Group21Var1EEEvRKNS_12HeaderRecordERKNS_5RangeERKN7openpal6RSliceERNS_12IAPDUHandlerEEUlRSE_jE_E7ForeachERNS_8IVisitorIS3_EE, @function
_ZNK8opendnp318BufferedCollectionINS_7IndexedINS_13FrozenCounterEEEZNS_11RangeParser13InvokeRangeOfINS_11Group21Var1EEEvRKNS_12HeaderRecordERKNS_5RangeERKN7openpal6RSliceERNS_12IAPDUHandlerEEUlRSE_jE_E7ForeachERNS_8IVisitorIS3_EE:
.LFB3535:
	.cfi_startproc
	pushq	%r15
	.cfi_def_cfa_offset 16
	.cfi_offset 15, -16
	pushq	%r14
	.cfi_def_cfa_offset 24
	.cfi_offset 14, -24
	pushq	%r13
	.cfi_def_cfa_offset 32
	.cfi_offset 13, -32
	pushq	%r12
	.cfi_def_cfa_offset 40
	.cfi_offset 12, -40
	pushq	%rbp
	.cfi_def_cfa_offset 48
	.cfi_offset 6, -48
	pushq	%rbx
	.cfi_def_cfa_offset 56
	.cfi_offset 3, -56
	subq	$120, %rsp
	.cfi_def_cfa_offset 176
	movq	%fs:40, %rax
	movq	%rax, 104(%rsp)
	xorl	%eax, %eax
	cmpq	$0, 24(%rdi)
	movdqu	8(%rdi), %xmm0
	movaps	%xmm0, 16(%rsp)
	je	.L206
	leaq	64(%rsp), %rax
	leaq	32(%rsp), %r13
	leaq	16(%rsp), %r15
	movq	%rdi, %rbp
	movq	%rsi, %r12
	xorl	%ebx, %ebx
	movq	%rax, 8(%rsp)
	.p2align 4,,10
	.p2align 3
.L208:
	movq	(%r12), %rax
	movq	%r13, %rdi
	movq	(%rax), %r14
	call	_ZN8opendnp313FrozenCounterC1Ev@PLT
	movq	%r13, %rsi
	movq	%r15, %rdi
	call	_ZN8opendnp311Group21Var110ReadTargetERN7openpal6RSliceERNS_13FrozenCounterE@PLT
	movzwl	32(%rbp), %eax
	movq	48(%rsp), %rcx
	movq	%r12, %rdi
	movdqa	32(%rsp), %xmm0
	movq	8(%rsp), %rsi
	movaps	%xmm0, 64(%rsp)
	addl	%ebx, %eax
	movq	%rcx, 80(%rsp)
	movw	%ax, 88(%rsp)
	call	*%r14
	leal	1(%rbx), %eax
	cmpq	24(%rbp), %rax
	movq	%rax, %rbx
	jb	.L208
.L206:
	movq	104(%rsp), %rax
	xorq	%fs:40, %rax
	jne	.L212
	addq	$120, %rsp
	.cfi_remember_state
	.cfi_def_cfa_offset 56
	popq	%rbx
	.cfi_def_cfa_offset 48
	popq	%rbp
	.cfi_def_cfa_offset 40
	popq	%r12
	.cfi_def_cfa_offset 32
	popq	%r13
	.cfi_def_cfa_offset 24
	popq	%r14
	.cfi_def_cfa_offset 16
	popq	%r15
	.cfi_def_cfa_offset 8
	ret
.L212:
	.cfi_restore_state
	call	__stack_chk_fail@PLT
	.cfi_endproc
.LFE3535:
	.size	_ZNK8opendnp318BufferedCollectionINS_7IndexedINS_13FrozenCounterEEEZNS_11RangeParser13InvokeRangeOfINS_11Group21Var1EEEvRKNS_12HeaderRecordERKNS_5RangeERKN7openpal6RSliceERNS_12IAPDUHandlerEEUlRSE_jE_E7ForeachERNS_8IVisitorIS3_EE, .-_ZNK8opendnp318BufferedCollectionINS_7IndexedINS_13FrozenCounterEEEZNS_11RangeParser13InvokeRangeOfINS_11Group21Var1EEEvRKNS_12HeaderRecordERKNS_5RangeERKN7openpal6RSliceERNS_12IAPDUHandlerEEUlRSE_jE_E7ForeachERNS_8IVisitorIS3_EE
	.section	.text._ZNK8opendnp318BufferedCollectionINS_7IndexedINS_13FrozenCounterEEEZNS_11RangeParser13InvokeRangeOfINS_11Group21Var2EEEvRKNS_12HeaderRecordERKNS_5RangeERKN7openpal6RSliceERNS_12IAPDUHandlerEEUlRSE_jE_E7ForeachERNS_8IVisitorIS3_EE,"axG",@progbits,_ZNK8opendnp318BufferedCollectionINS_7IndexedINS_13FrozenCounterEEEZNS_11RangeParser13InvokeRangeOfINS_11Group21Var2EEEvRKNS_12HeaderRecordERKNS_5RangeERKN7openpal6RSliceERNS_12IAPDUHandlerEEUlRSE_jE_E7ForeachERNS_8IVisitorIS3_EE,comdat
	.align 2
	.p2align 4,,15
	.weak	_ZNK8opendnp318BufferedCollectionINS_7IndexedINS_13FrozenCounterEEEZNS_11RangeParser13InvokeRangeOfINS_11Group21Var2EEEvRKNS_12HeaderRecordERKNS_5RangeERKN7openpal6RSliceERNS_12IAPDUHandlerEEUlRSE_jE_E7ForeachERNS_8IVisitorIS3_EE
	.type	_ZNK8opendnp318BufferedCollectionINS_7IndexedINS_13FrozenCounterEEEZNS_11RangeParser13InvokeRangeOfINS_11Group21Var2EEEvRKNS_12HeaderRecordERKNS_5RangeERKN7openpal6RSliceERNS_12IAPDUHandlerEEUlRSE_jE_E7ForeachERNS_8IVisitorIS3_EE, @function
_ZNK8opendnp318BufferedCollectionINS_7IndexedINS_13FrozenCounterEEEZNS_11RangeParser13InvokeRangeOfINS_11Group21Var2EEEvRKNS_12HeaderRecordERKNS_5RangeERKN7openpal6RSliceERNS_12IAPDUHandlerEEUlRSE_jE_E7ForeachERNS_8IVisitorIS3_EE:
.LFB3533:
	.cfi_startproc
	pushq	%r15
	.cfi_def_cfa_offset 16
	.cfi_offset 15, -16
	pushq	%r14
	.cfi_def_cfa_offset 24
	.cfi_offset 14, -24
	pushq	%r13
	.cfi_def_cfa_offset 32
	.cfi_offset 13, -32
	pushq	%r12
	.cfi_def_cfa_offset 40
	.cfi_offset 12, -40
	pushq	%rbp
	.cfi_def_cfa_offset 48
	.cfi_offset 6, -48
	pushq	%rbx
	.cfi_def_cfa_offset 56
	.cfi_offset 3, -56
	subq	$120, %rsp
	.cfi_def_cfa_offset 176
	movq	%fs:40, %rax
	movq	%rax, 104(%rsp)
	xorl	%eax, %eax
	cmpq	$0, 24(%rdi)
	movdqu	8(%rdi), %xmm0
	movaps	%xmm0, 16(%rsp)
	je	.L213
	leaq	64(%rsp), %rax
	leaq	32(%rsp), %r13
	leaq	16(%rsp), %r15
	movq	%rdi, %rbp
	movq	%rsi, %r12
	xorl	%ebx, %ebx
	movq	%rax, 8(%rsp)
	.p2align 4,,10
	.p2align 3
.L215:
	movq	(%r12), %rax
	movq	%r13, %rdi
	movq	(%rax), %r14
	call	_ZN8opendnp313FrozenCounterC1Ev@PLT
	movq	%r13, %rsi
	movq	%r15, %rdi
	call	_ZN8opendnp311Group21Var210ReadTargetERN7openpal6RSliceERNS_13FrozenCounterE@PLT
	movzwl	32(%rbp), %eax
	movq	48(%rsp), %rcx
	movq	%r12, %rdi
	movdqa	32(%rsp), %xmm0
	movq	8(%rsp), %rsi
	movaps	%xmm0, 64(%rsp)
	addl	%ebx, %eax
	movq	%rcx, 80(%rsp)
	movw	%ax, 88(%rsp)
	call	*%r14
	leal	1(%rbx), %eax
	cmpq	24(%rbp), %rax
	movq	%rax, %rbx
	jb	.L215
.L213:
	movq	104(%rsp), %rax
	xorq	%fs:40, %rax
	jne	.L219
	addq	$120, %rsp
	.cfi_remember_state
	.cfi_def_cfa_offset 56
	popq	%rbx
	.cfi_def_cfa_offset 48
	popq	%rbp
	.cfi_def_cfa_offset 40
	popq	%r12
	.cfi_def_cfa_offset 32
	popq	%r13
	.cfi_def_cfa_offset 24
	popq	%r14
	.cfi_def_cfa_offset 16
	popq	%r15
	.cfi_def_cfa_offset 8
	ret
.L219:
	.cfi_restore_state
	call	__stack_chk_fail@PLT
	.cfi_endproc
.LFE3533:
	.size	_ZNK8opendnp318BufferedCollectionINS_7IndexedINS_13FrozenCounterEEEZNS_11RangeParser13InvokeRangeOfINS_11Group21Var2EEEvRKNS_12HeaderRecordERKNS_5RangeERKN7openpal6RSliceERNS_12IAPDUHandlerEEUlRSE_jE_E7ForeachERNS_8IVisitorIS3_EE, .-_ZNK8opendnp318BufferedCollectionINS_7IndexedINS_13FrozenCounterEEEZNS_11RangeParser13InvokeRangeOfINS_11Group21Var2EEEvRKNS_12HeaderRecordERKNS_5RangeERKN7openpal6RSliceERNS_12IAPDUHandlerEEUlRSE_jE_E7ForeachERNS_8IVisitorIS3_EE
	.section	.text._ZNK8opendnp318BufferedCollectionINS_7IndexedINS_13FrozenCounterEEEZNS_11RangeParser13InvokeRangeOfINS_11Group21Var5EEEvRKNS_12HeaderRecordERKNS_5RangeERKN7openpal6RSliceERNS_12IAPDUHandlerEEUlRSE_jE_E7ForeachERNS_8IVisitorIS3_EE,"axG",@progbits,_ZNK8opendnp318BufferedCollectionINS_7IndexedINS_13FrozenCounterEEEZNS_11RangeParser13InvokeRangeOfINS_11Group21Var5EEEvRKNS_12HeaderRecordERKNS_5RangeERKN7openpal6RSliceERNS_12IAPDUHandlerEEUlRSE_jE_E7ForeachERNS_8IVisitorIS3_EE,comdat
	.align 2
	.p2align 4,,15
	.weak	_ZNK8opendnp318BufferedCollectionINS_7IndexedINS_13FrozenCounterEEEZNS_11RangeParser13InvokeRangeOfINS_11Group21Var5EEEvRKNS_12HeaderRecordERKNS_5RangeERKN7openpal6RSliceERNS_12IAPDUHandlerEEUlRSE_jE_E7ForeachERNS_8IVisitorIS3_EE
	.type	_ZNK8opendnp318BufferedCollectionINS_7IndexedINS_13FrozenCounterEEEZNS_11RangeParser13InvokeRangeOfINS_11Group21Var5EEEvRKNS_12HeaderRecordERKNS_5RangeERKN7openpal6RSliceERNS_12IAPDUHandlerEEUlRSE_jE_E7ForeachERNS_8IVisitorIS3_EE, @function
_ZNK8opendnp318BufferedCollectionINS_7IndexedINS_13FrozenCounterEEEZNS_11RangeParser13InvokeRangeOfINS_11Group21Var5EEEvRKNS_12HeaderRecordERKNS_5RangeERKN7openpal6RSliceERNS_12IAPDUHandlerEEUlRSE_jE_E7ForeachERNS_8IVisitorIS3_EE:
.LFB3531:
	.cfi_startproc
	pushq	%r15
	.cfi_def_cfa_offset 16
	.cfi_offset 15, -16
	pushq	%r14
	.cfi_def_cfa_offset 24
	.cfi_offset 14, -24
	pushq	%r13
	.cfi_def_cfa_offset 32
	.cfi_offset 13, -32
	pushq	%r12
	.cfi_def_cfa_offset 40
	.cfi_offset 12, -40
	pushq	%rbp
	.cfi_def_cfa_offset 48
	.cfi_offset 6, -48
	pushq	%rbx
	.cfi_def_cfa_offset 56
	.cfi_offset 3, -56
	subq	$120, %rsp
	.cfi_def_cfa_offset 176
	movq	%fs:40, %rax
	movq	%rax, 104(%rsp)
	xorl	%eax, %eax
	cmpq	$0, 24(%rdi)
	movdqu	8(%rdi), %xmm0
	movaps	%xmm0, 16(%rsp)
	je	.L220
	leaq	64(%rsp), %rax
	leaq	32(%rsp), %r13
	leaq	16(%rsp), %r15
	movq	%rdi, %rbp
	movq	%rsi, %r12
	xorl	%ebx, %ebx
	movq	%rax, 8(%rsp)
	.p2align 4,,10
	.p2align 3
.L222:
	movq	(%r12), %rax
	movq	%r13, %rdi
	movq	(%rax), %r14
	call	_ZN8opendnp313FrozenCounterC1Ev@PLT
	movq	%r13, %rsi
	movq	%r15, %rdi
	call	_ZN8opendnp311Group21Var510ReadTargetERN7openpal6RSliceERNS_13FrozenCounterE@PLT
	movzwl	32(%rbp), %eax
	movq	48(%rsp), %rcx
	movq	%r12, %rdi
	movdqa	32(%rsp), %xmm0
	movq	8(%rsp), %rsi
	movaps	%xmm0, 64(%rsp)
	addl	%ebx, %eax
	movq	%rcx, 80(%rsp)
	movw	%ax, 88(%rsp)
	call	*%r14
	leal	1(%rbx), %eax
	cmpq	24(%rbp), %rax
	movq	%rax, %rbx
	jb	.L222
.L220:
	movq	104(%rsp), %rax
	xorq	%fs:40, %rax
	jne	.L226
	addq	$120, %rsp
	.cfi_remember_state
	.cfi_def_cfa_offset 56
	popq	%rbx
	.cfi_def_cfa_offset 48
	popq	%rbp
	.cfi_def_cfa_offset 40
	popq	%r12
	.cfi_def_cfa_offset 32
	popq	%r13
	.cfi_def_cfa_offset 24
	popq	%r14
	.cfi_def_cfa_offset 16
	popq	%r15
	.cfi_def_cfa_offset 8
	ret
.L226:
	.cfi_restore_state
	call	__stack_chk_fail@PLT
	.cfi_endproc
.LFE3531:
	.size	_ZNK8opendnp318BufferedCollectionINS_7IndexedINS_13FrozenCounterEEEZNS_11RangeParser13InvokeRangeOfINS_11Group21Var5EEEvRKNS_12HeaderRecordERKNS_5RangeERKN7openpal6RSliceERNS_12IAPDUHandlerEEUlRSE_jE_E7ForeachERNS_8IVisitorIS3_EE, .-_ZNK8opendnp318BufferedCollectionINS_7IndexedINS_13FrozenCounterEEEZNS_11RangeParser13InvokeRangeOfINS_11Group21Var5EEEvRKNS_12HeaderRecordERKNS_5RangeERKN7openpal6RSliceERNS_12IAPDUHandlerEEUlRSE_jE_E7ForeachERNS_8IVisitorIS3_EE
	.section	.text._ZNK8opendnp318BufferedCollectionINS_7IndexedINS_13FrozenCounterEEEZNS_11RangeParser13InvokeRangeOfINS_11Group21Var6EEEvRKNS_12HeaderRecordERKNS_5RangeERKN7openpal6RSliceERNS_12IAPDUHandlerEEUlRSE_jE_E7ForeachERNS_8IVisitorIS3_EE,"axG",@progbits,_ZNK8opendnp318BufferedCollectionINS_7IndexedINS_13FrozenCounterEEEZNS_11RangeParser13InvokeRangeOfINS_11Group21Var6EEEvRKNS_12HeaderRecordERKNS_5RangeERKN7openpal6RSliceERNS_12IAPDUHandlerEEUlRSE_jE_E7ForeachERNS_8IVisitorIS3_EE,comdat
	.align 2
	.p2align 4,,15
	.weak	_ZNK8opendnp318BufferedCollectionINS_7IndexedINS_13FrozenCounterEEEZNS_11RangeParser13InvokeRangeOfINS_11Group21Var6EEEvRKNS_12HeaderRecordERKNS_5RangeERKN7openpal6RSliceERNS_12IAPDUHandlerEEUlRSE_jE_E7ForeachERNS_8IVisitorIS3_EE
	.type	_ZNK8opendnp318BufferedCollectionINS_7IndexedINS_13FrozenCounterEEEZNS_11RangeParser13InvokeRangeOfINS_11Group21Var6EEEvRKNS_12HeaderRecordERKNS_5RangeERKN7openpal6RSliceERNS_12IAPDUHandlerEEUlRSE_jE_E7ForeachERNS_8IVisitorIS3_EE, @function
_ZNK8opendnp318BufferedCollectionINS_7IndexedINS_13FrozenCounterEEEZNS_11RangeParser13InvokeRangeOfINS_11Group21Var6EEEvRKNS_12HeaderRecordERKNS_5RangeERKN7openpal6RSliceERNS_12IAPDUHandlerEEUlRSE_jE_E7ForeachERNS_8IVisitorIS3_EE:
.LFB3529:
	.cfi_startproc
	pushq	%r15
	.cfi_def_cfa_offset 16
	.cfi_offset 15, -16
	pushq	%r14
	.cfi_def_cfa_offset 24
	.cfi_offset 14, -24
	pushq	%r13
	.cfi_def_cfa_offset 32
	.cfi_offset 13, -32
	pushq	%r12
	.cfi_def_cfa_offset 40
	.cfi_offset 12, -40
	pushq	%rbp
	.cfi_def_cfa_offset 48
	.cfi_offset 6, -48
	pushq	%rbx
	.cfi_def_cfa_offset 56
	.cfi_offset 3, -56
	subq	$120, %rsp
	.cfi_def_cfa_offset 176
	movq	%fs:40, %rax
	movq	%rax, 104(%rsp)
	xorl	%eax, %eax
	cmpq	$0, 24(%rdi)
	movdqu	8(%rdi), %xmm0
	movaps	%xmm0, 16(%rsp)
	je	.L227
	leaq	64(%rsp), %rax
	leaq	32(%rsp), %r13
	leaq	16(%rsp), %r15
	movq	%rdi, %rbp
	movq	%rsi, %r12
	xorl	%ebx, %ebx
	movq	%rax, 8(%rsp)
	.p2align 4,,10
	.p2align 3
.L229:
	movq	(%r12), %rax
	movq	%r13, %rdi
	movq	(%rax), %r14
	call	_ZN8opendnp313FrozenCounterC1Ev@PLT
	movq	%r13, %rsi
	movq	%r15, %rdi
	call	_ZN8opendnp311Group21Var610ReadTargetERN7openpal6RSliceERNS_13FrozenCounterE@PLT
	movzwl	32(%rbp), %eax
	movq	48(%rsp), %rcx
	movq	%r12, %rdi
	movdqa	32(%rsp), %xmm0
	movq	8(%rsp), %rsi
	movaps	%xmm0, 64(%rsp)
	addl	%ebx, %eax
	movq	%rcx, 80(%rsp)
	movw	%ax, 88(%rsp)
	call	*%r14
	leal	1(%rbx), %eax
	cmpq	24(%rbp), %rax
	movq	%rax, %rbx
	jb	.L229
.L227:
	movq	104(%rsp), %rax
	xorq	%fs:40, %rax
	jne	.L233
	addq	$120, %rsp
	.cfi_remember_state
	.cfi_def_cfa_offset 56
	popq	%rbx
	.cfi_def_cfa_offset 48
	popq	%rbp
	.cfi_def_cfa_offset 40
	popq	%r12
	.cfi_def_cfa_offset 32
	popq	%r13
	.cfi_def_cfa_offset 24
	popq	%r14
	.cfi_def_cfa_offset 16
	popq	%r15
	.cfi_def_cfa_offset 8
	ret
.L233:
	.cfi_restore_state
	call	__stack_chk_fail@PLT
	.cfi_endproc
.LFE3529:
	.size	_ZNK8opendnp318BufferedCollectionINS_7IndexedINS_13FrozenCounterEEEZNS_11RangeParser13InvokeRangeOfINS_11Group21Var6EEEvRKNS_12HeaderRecordERKNS_5RangeERKN7openpal6RSliceERNS_12IAPDUHandlerEEUlRSE_jE_E7ForeachERNS_8IVisitorIS3_EE, .-_ZNK8opendnp318BufferedCollectionINS_7IndexedINS_13FrozenCounterEEEZNS_11RangeParser13InvokeRangeOfINS_11Group21Var6EEEvRKNS_12HeaderRecordERKNS_5RangeERKN7openpal6RSliceERNS_12IAPDUHandlerEEUlRSE_jE_E7ForeachERNS_8IVisitorIS3_EE
	.section	.text._ZNK8opendnp318BufferedCollectionINS_7IndexedINS_13FrozenCounterEEEZNS_11RangeParser13InvokeRangeOfINS_11Group21Var9EEEvRKNS_12HeaderRecordERKNS_5RangeERKN7openpal6RSliceERNS_12IAPDUHandlerEEUlRSE_jE_E7ForeachERNS_8IVisitorIS3_EE,"axG",@progbits,_ZNK8opendnp318BufferedCollectionINS_7IndexedINS_13FrozenCounterEEEZNS_11RangeParser13InvokeRangeOfINS_11Group21Var9EEEvRKNS_12HeaderRecordERKNS_5RangeERKN7openpal6RSliceERNS_12IAPDUHandlerEEUlRSE_jE_E7ForeachERNS_8IVisitorIS3_EE,comdat
	.align 2
	.p2align 4,,15
	.weak	_ZNK8opendnp318BufferedCollectionINS_7IndexedINS_13FrozenCounterEEEZNS_11RangeParser13InvokeRangeOfINS_11Group21Var9EEEvRKNS_12HeaderRecordERKNS_5RangeERKN7openpal6RSliceERNS_12IAPDUHandlerEEUlRSE_jE_E7ForeachERNS_8IVisitorIS3_EE
	.type	_ZNK8opendnp318BufferedCollectionINS_7IndexedINS_13FrozenCounterEEEZNS_11RangeParser13InvokeRangeOfINS_11Group21Var9EEEvRKNS_12HeaderRecordERKNS_5RangeERKN7openpal6RSliceERNS_12IAPDUHandlerEEUlRSE_jE_E7ForeachERNS_8IVisitorIS3_EE, @function
_ZNK8opendnp318BufferedCollectionINS_7IndexedINS_13FrozenCounterEEEZNS_11RangeParser13InvokeRangeOfINS_11Group21Var9EEEvRKNS_12HeaderRecordERKNS_5RangeERKN7openpal6RSliceERNS_12IAPDUHandlerEEUlRSE_jE_E7ForeachERNS_8IVisitorIS3_EE:
.LFB3527:
	.cfi_startproc
	pushq	%r15
	.cfi_def_cfa_offset 16
	.cfi_offset 15, -16
	pushq	%r14
	.cfi_def_cfa_offset 24
	.cfi_offset 14, -24
	pushq	%r13
	.cfi_def_cfa_offset 32
	.cfi_offset 13, -32
	pushq	%r12
	.cfi_def_cfa_offset 40
	.cfi_offset 12, -40
	pushq	%rbp
	.cfi_def_cfa_offset 48
	.cfi_offset 6, -48
	pushq	%rbx
	.cfi_def_cfa_offset 56
	.cfi_offset 3, -56
	subq	$120, %rsp
	.cfi_def_cfa_offset 176
	movq	%fs:40, %rax
	movq	%rax, 104(%rsp)
	xorl	%eax, %eax
	cmpq	$0, 24(%rdi)
	movdqu	8(%rdi), %xmm0
	movaps	%xmm0, 16(%rsp)
	je	.L234
	leaq	64(%rsp), %rax
	leaq	32(%rsp), %r13
	leaq	16(%rsp), %r15
	movq	%rdi, %rbp
	movq	%rsi, %r12
	xorl	%ebx, %ebx
	movq	%rax, 8(%rsp)
	.p2align 4,,10
	.p2align 3
.L236:
	movq	(%r12), %rax
	movq	%r13, %rdi
	movq	(%rax), %r14
	call	_ZN8opendnp313FrozenCounterC1Ev@PLT
	movq	%r13, %rsi
	movq	%r15, %rdi
	call	_ZN8opendnp311Group21Var910ReadTargetERN7openpal6RSliceERNS_13FrozenCounterE@PLT
	movzwl	32(%rbp), %eax
	movq	48(%rsp), %rcx
	movq	%r12, %rdi
	movdqa	32(%rsp), %xmm0
	movq	8(%rsp), %rsi
	movaps	%xmm0, 64(%rsp)
	addl	%ebx, %eax
	movq	%rcx, 80(%rsp)
	movw	%ax, 88(%rsp)
	call	*%r14
	leal	1(%rbx), %eax
	cmpq	24(%rbp), %rax
	movq	%rax, %rbx
	jb	.L236
.L234:
	movq	104(%rsp), %rax
	xorq	%fs:40, %rax
	jne	.L240
	addq	$120, %rsp
	.cfi_remember_state
	.cfi_def_cfa_offset 56
	popq	%rbx
	.cfi_def_cfa_offset 48
	popq	%rbp
	.cfi_def_cfa_offset 40
	popq	%r12
	.cfi_def_cfa_offset 32
	popq	%r13
	.cfi_def_cfa_offset 24
	popq	%r14
	.cfi_def_cfa_offset 16
	popq	%r15
	.cfi_def_cfa_offset 8
	ret
.L240:
	.cfi_restore_state
	call	__stack_chk_fail@PLT
	.cfi_endproc
.LFE3527:
	.size	_ZNK8opendnp318BufferedCollectionINS_7IndexedINS_13FrozenCounterEEEZNS_11RangeParser13InvokeRangeOfINS_11Group21Var9EEEvRKNS_12HeaderRecordERKNS_5RangeERKN7openpal6RSliceERNS_12IAPDUHandlerEEUlRSE_jE_E7ForeachERNS_8IVisitorIS3_EE, .-_ZNK8opendnp318BufferedCollectionINS_7IndexedINS_13FrozenCounterEEEZNS_11RangeParser13InvokeRangeOfINS_11Group21Var9EEEvRKNS_12HeaderRecordERKNS_5RangeERKN7openpal6RSliceERNS_12IAPDUHandlerEEUlRSE_jE_E7ForeachERNS_8IVisitorIS3_EE
	.section	.text._ZNK8opendnp318BufferedCollectionINS_7IndexedINS_13FrozenCounterEEEZNS_11RangeParser13InvokeRangeOfINS_12Group21Var10EEEvRKNS_12HeaderRecordERKNS_5RangeERKN7openpal6RSliceERNS_12IAPDUHandlerEEUlRSE_jE_E7ForeachERNS_8IVisitorIS3_EE,"axG",@progbits,_ZNK8opendnp318BufferedCollectionINS_7IndexedINS_13FrozenCounterEEEZNS_11RangeParser13InvokeRangeOfINS_12Group21Var10EEEvRKNS_12HeaderRecordERKNS_5RangeERKN7openpal6RSliceERNS_12IAPDUHandlerEEUlRSE_jE_E7ForeachERNS_8IVisitorIS3_EE,comdat
	.align 2
	.p2align 4,,15
	.weak	_ZNK8opendnp318BufferedCollectionINS_7IndexedINS_13FrozenCounterEEEZNS_11RangeParser13InvokeRangeOfINS_12Group21Var10EEEvRKNS_12HeaderRecordERKNS_5RangeERKN7openpal6RSliceERNS_12IAPDUHandlerEEUlRSE_jE_E7ForeachERNS_8IVisitorIS3_EE
	.type	_ZNK8opendnp318BufferedCollectionINS_7IndexedINS_13FrozenCounterEEEZNS_11RangeParser13InvokeRangeOfINS_12Group21Var10EEEvRKNS_12HeaderRecordERKNS_5RangeERKN7openpal6RSliceERNS_12IAPDUHandlerEEUlRSE_jE_E7ForeachERNS_8IVisitorIS3_EE, @function
_ZNK8opendnp318BufferedCollectionINS_7IndexedINS_13FrozenCounterEEEZNS_11RangeParser13InvokeRangeOfINS_12Group21Var10EEEvRKNS_12HeaderRecordERKNS_5RangeERKN7openpal6RSliceERNS_12IAPDUHandlerEEUlRSE_jE_E7ForeachERNS_8IVisitorIS3_EE:
.LFB3525:
	.cfi_startproc
	pushq	%r15
	.cfi_def_cfa_offset 16
	.cfi_offset 15, -16
	pushq	%r14
	.cfi_def_cfa_offset 24
	.cfi_offset 14, -24
	pushq	%r13
	.cfi_def_cfa_offset 32
	.cfi_offset 13, -32
	pushq	%r12
	.cfi_def_cfa_offset 40
	.cfi_offset 12, -40
	pushq	%rbp
	.cfi_def_cfa_offset 48
	.cfi_offset 6, -48
	pushq	%rbx
	.cfi_def_cfa_offset 56
	.cfi_offset 3, -56
	subq	$120, %rsp
	.cfi_def_cfa_offset 176
	movq	%fs:40, %rax
	movq	%rax, 104(%rsp)
	xorl	%eax, %eax
	cmpq	$0, 24(%rdi)
	movdqu	8(%rdi), %xmm0
	movaps	%xmm0, 16(%rsp)
	je	.L241
	leaq	64(%rsp), %rax
	leaq	32(%rsp), %r13
	leaq	16(%rsp), %r15
	movq	%rdi, %rbp
	movq	%rsi, %r12
	xorl	%ebx, %ebx
	movq	%rax, 8(%rsp)
	.p2align 4,,10
	.p2align 3
.L243:
	movq	(%r12), %rax
	movq	%r13, %rdi
	movq	(%rax), %r14
	call	_ZN8opendnp313FrozenCounterC1Ev@PLT
	movq	%r13, %rsi
	movq	%r15, %rdi
	call	_ZN8opendnp312Group21Var1010ReadTargetERN7openpal6RSliceERNS_13FrozenCounterE@PLT
	movzwl	32(%rbp), %eax
	movq	48(%rsp), %rcx
	movq	%r12, %rdi
	movdqa	32(%rsp), %xmm0
	movq	8(%rsp), %rsi
	movaps	%xmm0, 64(%rsp)
	addl	%ebx, %eax
	movq	%rcx, 80(%rsp)
	movw	%ax, 88(%rsp)
	call	*%r14
	leal	1(%rbx), %eax
	cmpq	24(%rbp), %rax
	movq	%rax, %rbx
	jb	.L243
.L241:
	movq	104(%rsp), %rax
	xorq	%fs:40, %rax
	jne	.L247
	addq	$120, %rsp
	.cfi_remember_state
	.cfi_def_cfa_offset 56
	popq	%rbx
	.cfi_def_cfa_offset 48
	popq	%rbp
	.cfi_def_cfa_offset 40
	popq	%r12
	.cfi_def_cfa_offset 32
	popq	%r13
	.cfi_def_cfa_offset 24
	popq	%r14
	.cfi_def_cfa_offset 16
	popq	%r15
	.cfi_def_cfa_offset 8
	ret
.L247:
	.cfi_restore_state
	call	__stack_chk_fail@PLT
	.cfi_endproc
.LFE3525:
	.size	_ZNK8opendnp318BufferedCollectionINS_7IndexedINS_13FrozenCounterEEEZNS_11RangeParser13InvokeRangeOfINS_12Group21Var10EEEvRKNS_12HeaderRecordERKNS_5RangeERKN7openpal6RSliceERNS_12IAPDUHandlerEEUlRSE_jE_E7ForeachERNS_8IVisitorIS3_EE, .-_ZNK8opendnp318BufferedCollectionINS_7IndexedINS_13FrozenCounterEEEZNS_11RangeParser13InvokeRangeOfINS_12Group21Var10EEEvRKNS_12HeaderRecordERKNS_5RangeERKN7openpal6RSliceERNS_12IAPDUHandlerEEUlRSE_jE_E7ForeachERNS_8IVisitorIS3_EE
	.section	.text._ZN8opendnp311RangeParser13InvokeRangeOfINS_11Group30Var1EEEvRKNS_12HeaderRecordERKNS_5RangeERKN7openpal6RSliceERNS_12IAPDUHandlerE,"axG",@progbits,_ZN8opendnp311RangeParser13InvokeRangeOfINS_11Group30Var1EEEvRKNS_12HeaderRecordERKNS_5RangeERKN7openpal6RSliceERNS_12IAPDUHandlerE,comdat
	.align 2
	.p2align 4,,15
	.weak	_ZN8opendnp311RangeParser13InvokeRangeOfINS_11Group30Var1EEEvRKNS_12HeaderRecordERKNS_5RangeERKN7openpal6RSliceERNS_12IAPDUHandlerE
	.type	_ZN8opendnp311RangeParser13InvokeRangeOfINS_11Group30Var1EEEvRKNS_12HeaderRecordERKNS_5RangeERKN7openpal6RSliceERNS_12IAPDUHandlerE, @function
_ZN8opendnp311RangeParser13InvokeRangeOfINS_11Group30Var1EEEvRKNS_12HeaderRecordERKNS_5RangeERKN7openpal6RSliceERNS_12IAPDUHandlerE:
.LFB2973:
	.cfi_startproc
	subq	$88, %rsp
	.cfi_def_cfa_offset 96
	movzwl	(%rsi), %r9d
	movzwl	2(%rsi), %r8d
	movq	%fs:40, %rax
	movq	%rax, 72(%rsp)
	xorl	%eax, %eax
	cmpw	%r8w, %r9w
	ja	.L249
	movzwl	%r8w, %eax
	movzwl	%r9w, %r10d
	addl	$1, %eax
	subl	%r10d, %eax
.L249:
	movdqu	(%rdx), %xmm0
	leaq	32(%rsp), %rdx
	movq	_ZTVN8opendnp318BufferedCollectionINS_7IndexedINS_6AnalogEEEZNS_11RangeParser13InvokeRangeOfINS_11Group30Var1EEEvRKNS_12HeaderRecordERKNS_5RangeERKN7openpal6RSliceERNS_12IAPDUHandlerEEUlRSE_jE_EE@GOTPCREL(%rip), %r10
	movq	%rax, 56(%rsp)
	movl	(%rsi), %eax
	movq	%rsp, %rsi
	movw	%r9w, 64(%rsp)
	movups	%xmm0, 40(%rsp)
	addq	$16, %r10
	movw	%r8w, 66(%rsp)
	movdqu	(%rdi), %xmm0
	movq	%rcx, %rdi
	movl	%eax, 16(%rsp)
	movq	%r10, 32(%rsp)
	movaps	%xmm0, (%rsp)
	call	_ZN8opendnp312IAPDUHandler8OnHeaderERKNS_11RangeHeaderERKNS_11ICollectionINS_7IndexedINS_6AnalogEEEEE@PLT
	movq	72(%rsp), %rax
	xorq	%fs:40, %rax
	jne	.L253
	addq	$88, %rsp
	.cfi_remember_state
	.cfi_def_cfa_offset 8
	ret
.L253:
	.cfi_restore_state
	call	__stack_chk_fail@PLT
	.cfi_endproc
.LFE2973:
	.size	_ZN8opendnp311RangeParser13InvokeRangeOfINS_11Group30Var1EEEvRKNS_12HeaderRecordERKNS_5RangeERKN7openpal6RSliceERNS_12IAPDUHandlerE, .-_ZN8opendnp311RangeParser13InvokeRangeOfINS_11Group30Var1EEEvRKNS_12HeaderRecordERKNS_5RangeERKN7openpal6RSliceERNS_12IAPDUHandlerE
	.section	.text._ZN8opendnp311RangeParser13InvokeRangeOfINS_11Group30Var2EEEvRKNS_12HeaderRecordERKNS_5RangeERKN7openpal6RSliceERNS_12IAPDUHandlerE,"axG",@progbits,_ZN8opendnp311RangeParser13InvokeRangeOfINS_11Group30Var2EEEvRKNS_12HeaderRecordERKNS_5RangeERKN7openpal6RSliceERNS_12IAPDUHandlerE,comdat
	.align 2
	.p2align 4,,15
	.weak	_ZN8opendnp311RangeParser13InvokeRangeOfINS_11Group30Var2EEEvRKNS_12HeaderRecordERKNS_5RangeERKN7openpal6RSliceERNS_12IAPDUHandlerE
	.type	_ZN8opendnp311RangeParser13InvokeRangeOfINS_11Group30Var2EEEvRKNS_12HeaderRecordERKNS_5RangeERKN7openpal6RSliceERNS_12IAPDUHandlerE, @function
_ZN8opendnp311RangeParser13InvokeRangeOfINS_11Group30Var2EEEvRKNS_12HeaderRecordERKNS_5RangeERKN7openpal6RSliceERNS_12IAPDUHandlerE:
.LFB2981:
	.cfi_startproc
	subq	$88, %rsp
	.cfi_def_cfa_offset 96
	movzwl	(%rsi), %r9d
	movzwl	2(%rsi), %r8d
	movq	%fs:40, %rax
	movq	%rax, 72(%rsp)
	xorl	%eax, %eax
	cmpw	%r8w, %r9w
	ja	.L255
	movzwl	%r8w, %eax
	movzwl	%r9w, %r10d
	addl	$1, %eax
	subl	%r10d, %eax
.L255:
	movdqu	(%rdx), %xmm0
	leaq	32(%rsp), %rdx
	movq	_ZTVN8opendnp318BufferedCollectionINS_7IndexedINS_6AnalogEEEZNS_11RangeParser13InvokeRangeOfINS_11Group30Var2EEEvRKNS_12HeaderRecordERKNS_5RangeERKN7openpal6RSliceERNS_12IAPDUHandlerEEUlRSE_jE_EE@GOTPCREL(%rip), %r10
	movq	%rax, 56(%rsp)
	movl	(%rsi), %eax
	movq	%rsp, %rsi
	movw	%r9w, 64(%rsp)
	movups	%xmm0, 40(%rsp)
	addq	$16, %r10
	movw	%r8w, 66(%rsp)
	movdqu	(%rdi), %xmm0
	movq	%rcx, %rdi
	movl	%eax, 16(%rsp)
	movq	%r10, 32(%rsp)
	movaps	%xmm0, (%rsp)
	call	_ZN8opendnp312IAPDUHandler8OnHeaderERKNS_11RangeHeaderERKNS_11ICollectionINS_7IndexedINS_6AnalogEEEEE@PLT
	movq	72(%rsp), %rax
	xorq	%fs:40, %rax
	jne	.L259
	addq	$88, %rsp
	.cfi_remember_state
	.cfi_def_cfa_offset 8
	ret
.L259:
	.cfi_restore_state
	call	__stack_chk_fail@PLT
	.cfi_endproc
.LFE2981:
	.size	_ZN8opendnp311RangeParser13InvokeRangeOfINS_11Group30Var2EEEvRKNS_12HeaderRecordERKNS_5RangeERKN7openpal6RSliceERNS_12IAPDUHandlerE, .-_ZN8opendnp311RangeParser13InvokeRangeOfINS_11Group30Var2EEEvRKNS_12HeaderRecordERKNS_5RangeERKN7openpal6RSliceERNS_12IAPDUHandlerE
	.section	.text._ZN8opendnp311RangeParser13InvokeRangeOfINS_11Group30Var3EEEvRKNS_12HeaderRecordERKNS_5RangeERKN7openpal6RSliceERNS_12IAPDUHandlerE,"axG",@progbits,_ZN8opendnp311RangeParser13InvokeRangeOfINS_11Group30Var3EEEvRKNS_12HeaderRecordERKNS_5RangeERKN7openpal6RSliceERNS_12IAPDUHandlerE,comdat
	.align 2
	.p2align 4,,15
	.weak	_ZN8opendnp311RangeParser13InvokeRangeOfINS_11Group30Var3EEEvRKNS_12HeaderRecordERKNS_5RangeERKN7openpal6RSliceERNS_12IAPDUHandlerE
	.type	_ZN8opendnp311RangeParser13InvokeRangeOfINS_11Group30Var3EEEvRKNS_12HeaderRecordERKNS_5RangeERKN7openpal6RSliceERNS_12IAPDUHandlerE, @function
_ZN8opendnp311RangeParser13InvokeRangeOfINS_11Group30Var3EEEvRKNS_12HeaderRecordERKNS_5RangeERKN7openpal6RSliceERNS_12IAPDUHandlerE:
.LFB2986:
	.cfi_startproc
	subq	$88, %rsp
	.cfi_def_cfa_offset 96
	movzwl	(%rsi), %r9d
	movzwl	2(%rsi), %r8d
	movq	%fs:40, %rax
	movq	%rax, 72(%rsp)
	xorl	%eax, %eax
	cmpw	%r8w, %r9w
	ja	.L261
	movzwl	%r8w, %eax
	movzwl	%r9w, %r10d
	addl	$1, %eax
	subl	%r10d, %eax
.L261:
	movdqu	(%rdx), %xmm0
	leaq	32(%rsp), %rdx
	movq	_ZTVN8opendnp318BufferedCollectionINS_7IndexedINS_6AnalogEEEZNS_11RangeParser13InvokeRangeOfINS_11Group30Var3EEEvRKNS_12HeaderRecordERKNS_5RangeERKN7openpal6RSliceERNS_12IAPDUHandlerEEUlRSE_jE_EE@GOTPCREL(%rip), %r10
	movq	%rax, 56(%rsp)
	movl	(%rsi), %eax
	movq	%rsp, %rsi
	movw	%r9w, 64(%rsp)
	movups	%xmm0, 40(%rsp)
	addq	$16, %r10
	movw	%r8w, 66(%rsp)
	movdqu	(%rdi), %xmm0
	movq	%rcx, %rdi
	movl	%eax, 16(%rsp)
	movq	%r10, 32(%rsp)
	movaps	%xmm0, (%rsp)
	call	_ZN8opendnp312IAPDUHandler8OnHeaderERKNS_11RangeHeaderERKNS_11ICollectionINS_7IndexedINS_6AnalogEEEEE@PLT
	movq	72(%rsp), %rax
	xorq	%fs:40, %rax
	jne	.L265
	addq	$88, %rsp
	.cfi_remember_state
	.cfi_def_cfa_offset 8
	ret
.L265:
	.cfi_restore_state
	call	__stack_chk_fail@PLT
	.cfi_endproc
.LFE2986:
	.size	_ZN8opendnp311RangeParser13InvokeRangeOfINS_11Group30Var3EEEvRKNS_12HeaderRecordERKNS_5RangeERKN7openpal6RSliceERNS_12IAPDUHandlerE, .-_ZN8opendnp311RangeParser13InvokeRangeOfINS_11Group30Var3EEEvRKNS_12HeaderRecordERKNS_5RangeERKN7openpal6RSliceERNS_12IAPDUHandlerE
	.section	.text._ZN8opendnp311RangeParser13InvokeRangeOfINS_11Group30Var4EEEvRKNS_12HeaderRecordERKNS_5RangeERKN7openpal6RSliceERNS_12IAPDUHandlerE,"axG",@progbits,_ZN8opendnp311RangeParser13InvokeRangeOfINS_11Group30Var4EEEvRKNS_12HeaderRecordERKNS_5RangeERKN7openpal6RSliceERNS_12IAPDUHandlerE,comdat
	.align 2
	.p2align 4,,15
	.weak	_ZN8opendnp311RangeParser13InvokeRangeOfINS_11Group30Var4EEEvRKNS_12HeaderRecordERKNS_5RangeERKN7openpal6RSliceERNS_12IAPDUHandlerE
	.type	_ZN8opendnp311RangeParser13InvokeRangeOfINS_11Group30Var4EEEvRKNS_12HeaderRecordERKNS_5RangeERKN7openpal6RSliceERNS_12IAPDUHandlerE, @function
_ZN8opendnp311RangeParser13InvokeRangeOfINS_11Group30Var4EEEvRKNS_12HeaderRecordERKNS_5RangeERKN7openpal6RSliceERNS_12IAPDUHandlerE:
.LFB2991:
	.cfi_startproc
	subq	$88, %rsp
	.cfi_def_cfa_offset 96
	movzwl	(%rsi), %r9d
	movzwl	2(%rsi), %r8d
	movq	%fs:40, %rax
	movq	%rax, 72(%rsp)
	xorl	%eax, %eax
	cmpw	%r8w, %r9w
	ja	.L267
	movzwl	%r8w, %eax
	movzwl	%r9w, %r10d
	addl	$1, %eax
	subl	%r10d, %eax
.L267:
	movdqu	(%rdx), %xmm0
	leaq	32(%rsp), %rdx
	movq	_ZTVN8opendnp318BufferedCollectionINS_7IndexedINS_6AnalogEEEZNS_11RangeParser13InvokeRangeOfINS_11Group30Var4EEEvRKNS_12HeaderRecordERKNS_5RangeERKN7openpal6RSliceERNS_12IAPDUHandlerEEUlRSE_jE_EE@GOTPCREL(%rip), %r10
	movq	%rax, 56(%rsp)
	movl	(%rsi), %eax
	movq	%rsp, %rsi
	movw	%r9w, 64(%rsp)
	movups	%xmm0, 40(%rsp)
	addq	$16, %r10
	movw	%r8w, 66(%rsp)
	movdqu	(%rdi), %xmm0
	movq	%rcx, %rdi
	movl	%eax, 16(%rsp)
	movq	%r10, 32(%rsp)
	movaps	%xmm0, (%rsp)
	call	_ZN8opendnp312IAPDUHandler8OnHeaderERKNS_11RangeHeaderERKNS_11ICollectionINS_7IndexedINS_6AnalogEEEEE@PLT
	movq	72(%rsp), %rax
	xorq	%fs:40, %rax
	jne	.L271
	addq	$88, %rsp
	.cfi_remember_state
	.cfi_def_cfa_offset 8
	ret
.L271:
	.cfi_restore_state
	call	__stack_chk_fail@PLT
	.cfi_endproc
.LFE2991:
	.size	_ZN8opendnp311RangeParser13InvokeRangeOfINS_11Group30Var4EEEvRKNS_12HeaderRecordERKNS_5RangeERKN7openpal6RSliceERNS_12IAPDUHandlerE, .-_ZN8opendnp311RangeParser13InvokeRangeOfINS_11Group30Var4EEEvRKNS_12HeaderRecordERKNS_5RangeERKN7openpal6RSliceERNS_12IAPDUHandlerE
	.section	.text._ZN8opendnp311RangeParser13InvokeRangeOfINS_11Group30Var5EEEvRKNS_12HeaderRecordERKNS_5RangeERKN7openpal6RSliceERNS_12IAPDUHandlerE,"axG",@progbits,_ZN8opendnp311RangeParser13InvokeRangeOfINS_11Group30Var5EEEvRKNS_12HeaderRecordERKNS_5RangeERKN7openpal6RSliceERNS_12IAPDUHandlerE,comdat
	.align 2
	.p2align 4,,15
	.weak	_ZN8opendnp311RangeParser13InvokeRangeOfINS_11Group30Var5EEEvRKNS_12HeaderRecordERKNS_5RangeERKN7openpal6RSliceERNS_12IAPDUHandlerE
	.type	_ZN8opendnp311RangeParser13InvokeRangeOfINS_11Group30Var5EEEvRKNS_12HeaderRecordERKNS_5RangeERKN7openpal6RSliceERNS_12IAPDUHandlerE, @function
_ZN8opendnp311RangeParser13InvokeRangeOfINS_11Group30Var5EEEvRKNS_12HeaderRecordERKNS_5RangeERKN7openpal6RSliceERNS_12IAPDUHandlerE:
.LFB2996:
	.cfi_startproc
	subq	$88, %rsp
	.cfi_def_cfa_offset 96
	movzwl	(%rsi), %r9d
	movzwl	2(%rsi), %r8d
	movq	%fs:40, %rax
	movq	%rax, 72(%rsp)
	xorl	%eax, %eax
	cmpw	%r8w, %r9w
	ja	.L273
	movzwl	%r8w, %eax
	movzwl	%r9w, %r10d
	addl	$1, %eax
	subl	%r10d, %eax
.L273:
	movdqu	(%rdx), %xmm0
	leaq	32(%rsp), %rdx
	movq	_ZTVN8opendnp318BufferedCollectionINS_7IndexedINS_6AnalogEEEZNS_11RangeParser13InvokeRangeOfINS_11Group30Var5EEEvRKNS_12HeaderRecordERKNS_5RangeERKN7openpal6RSliceERNS_12IAPDUHandlerEEUlRSE_jE_EE@GOTPCREL(%rip), %r10
	movq	%rax, 56(%rsp)
	movl	(%rsi), %eax
	movq	%rsp, %rsi
	movw	%r9w, 64(%rsp)
	movups	%xmm0, 40(%rsp)
	addq	$16, %r10
	movw	%r8w, 66(%rsp)
	movdqu	(%rdi), %xmm0
	movq	%rcx, %rdi
	movl	%eax, 16(%rsp)
	movq	%r10, 32(%rsp)
	movaps	%xmm0, (%rsp)
	call	_ZN8opendnp312IAPDUHandler8OnHeaderERKNS_11RangeHeaderERKNS_11ICollectionINS_7IndexedINS_6AnalogEEEEE@PLT
	movq	72(%rsp), %rax
	xorq	%fs:40, %rax
	jne	.L277
	addq	$88, %rsp
	.cfi_remember_state
	.cfi_def_cfa_offset 8
	ret
.L277:
	.cfi_restore_state
	call	__stack_chk_fail@PLT
	.cfi_endproc
.LFE2996:
	.size	_ZN8opendnp311RangeParser13InvokeRangeOfINS_11Group30Var5EEEvRKNS_12HeaderRecordERKNS_5RangeERKN7openpal6RSliceERNS_12IAPDUHandlerE, .-_ZN8opendnp311RangeParser13InvokeRangeOfINS_11Group30Var5EEEvRKNS_12HeaderRecordERKNS_5RangeERKN7openpal6RSliceERNS_12IAPDUHandlerE
	.section	.text._ZN8opendnp311RangeParser13InvokeRangeOfINS_11Group30Var6EEEvRKNS_12HeaderRecordERKNS_5RangeERKN7openpal6RSliceERNS_12IAPDUHandlerE,"axG",@progbits,_ZN8opendnp311RangeParser13InvokeRangeOfINS_11Group30Var6EEEvRKNS_12HeaderRecordERKNS_5RangeERKN7openpal6RSliceERNS_12IAPDUHandlerE,comdat
	.align 2
	.p2align 4,,15
	.weak	_ZN8opendnp311RangeParser13InvokeRangeOfINS_11Group30Var6EEEvRKNS_12HeaderRecordERKNS_5RangeERKN7openpal6RSliceERNS_12IAPDUHandlerE
	.type	_ZN8opendnp311RangeParser13InvokeRangeOfINS_11Group30Var6EEEvRKNS_12HeaderRecordERKNS_5RangeERKN7openpal6RSliceERNS_12IAPDUHandlerE, @function
_ZN8opendnp311RangeParser13InvokeRangeOfINS_11Group30Var6EEEvRKNS_12HeaderRecordERKNS_5RangeERKN7openpal6RSliceERNS_12IAPDUHandlerE:
.LFB3001:
	.cfi_startproc
	subq	$88, %rsp
	.cfi_def_cfa_offset 96
	movzwl	(%rsi), %r9d
	movzwl	2(%rsi), %r8d
	movq	%fs:40, %rax
	movq	%rax, 72(%rsp)
	xorl	%eax, %eax
	cmpw	%r8w, %r9w
	ja	.L279
	movzwl	%r8w, %eax
	movzwl	%r9w, %r10d
	addl	$1, %eax
	subl	%r10d, %eax
.L279:
	movdqu	(%rdx), %xmm0
	leaq	32(%rsp), %rdx
	movq	_ZTVN8opendnp318BufferedCollectionINS_7IndexedINS_6AnalogEEEZNS_11RangeParser13InvokeRangeOfINS_11Group30Var6EEEvRKNS_12HeaderRecordERKNS_5RangeERKN7openpal6RSliceERNS_12IAPDUHandlerEEUlRSE_jE_EE@GOTPCREL(%rip), %r10
	movq	%rax, 56(%rsp)
	movl	(%rsi), %eax
	movq	%rsp, %rsi
	movw	%r9w, 64(%rsp)
	movups	%xmm0, 40(%rsp)
	addq	$16, %r10
	movw	%r8w, 66(%rsp)
	movdqu	(%rdi), %xmm0
	movq	%rcx, %rdi
	movl	%eax, 16(%rsp)
	movq	%r10, 32(%rsp)
	movaps	%xmm0, (%rsp)
	call	_ZN8opendnp312IAPDUHandler8OnHeaderERKNS_11RangeHeaderERKNS_11ICollectionINS_7IndexedINS_6AnalogEEEEE@PLT
	movq	72(%rsp), %rax
	xorq	%fs:40, %rax
	jne	.L283
	addq	$88, %rsp
	.cfi_remember_state
	.cfi_def_cfa_offset 8
	ret
.L283:
	.cfi_restore_state
	call	__stack_chk_fail@PLT
	.cfi_endproc
.LFE3001:
	.size	_ZN8opendnp311RangeParser13InvokeRangeOfINS_11Group30Var6EEEvRKNS_12HeaderRecordERKNS_5RangeERKN7openpal6RSliceERNS_12IAPDUHandlerE, .-_ZN8opendnp311RangeParser13InvokeRangeOfINS_11Group30Var6EEEvRKNS_12HeaderRecordERKNS_5RangeERKN7openpal6RSliceERNS_12IAPDUHandlerE
	.section	.text._ZNK8opendnp318BufferedCollectionINS_7IndexedINS_6AnalogEEEZNS_11RangeParser13InvokeRangeOfINS_11Group30Var1EEEvRKNS_12HeaderRecordERKNS_5RangeERKN7openpal6RSliceERNS_12IAPDUHandlerEEUlRSE_jE_E7ForeachERNS_8IVisitorIS3_EE,"axG",@progbits,_ZNK8opendnp318BufferedCollectionINS_7IndexedINS_6AnalogEEEZNS_11RangeParser13InvokeRangeOfINS_11Group30Var1EEEvRKNS_12HeaderRecordERKNS_5RangeERKN7openpal6RSliceERNS_12IAPDUHandlerEEUlRSE_jE_E7ForeachERNS_8IVisitorIS3_EE,comdat
	.align 2
	.p2align 4,,15
	.weak	_ZNK8opendnp318BufferedCollectionINS_7IndexedINS_6AnalogEEEZNS_11RangeParser13InvokeRangeOfINS_11Group30Var1EEEvRKNS_12HeaderRecordERKNS_5RangeERKN7openpal6RSliceERNS_12IAPDUHandlerEEUlRSE_jE_E7ForeachERNS_8IVisitorIS3_EE
	.type	_ZNK8opendnp318BufferedCollectionINS_7IndexedINS_6AnalogEEEZNS_11RangeParser13InvokeRangeOfINS_11Group30Var1EEEvRKNS_12HeaderRecordERKNS_5RangeERKN7openpal6RSliceERNS_12IAPDUHandlerEEUlRSE_jE_E7ForeachERNS_8IVisitorIS3_EE, @function
_ZNK8opendnp318BufferedCollectionINS_7IndexedINS_6AnalogEEEZNS_11RangeParser13InvokeRangeOfINS_11Group30Var1EEEvRKNS_12HeaderRecordERKNS_5RangeERKN7openpal6RSliceERNS_12IAPDUHandlerEEUlRSE_jE_E7ForeachERNS_8IVisitorIS3_EE:
.LFB3523:
	.cfi_startproc
	pushq	%r15
	.cfi_def_cfa_offset 16
	.cfi_offset 15, -16
	pushq	%r14
	.cfi_def_cfa_offset 24
	.cfi_offset 14, -24
	pushq	%r13
	.cfi_def_cfa_offset 32
	.cfi_offset 13, -32
	pushq	%r12
	.cfi_def_cfa_offset 40
	.cfi_offset 12, -40
	pushq	%rbp
	.cfi_def_cfa_offset 48
	.cfi_offset 6, -48
	pushq	%rbx
	.cfi_def_cfa_offset 56
	.cfi_offset 3, -56
	subq	$120, %rsp
	.cfi_def_cfa_offset 176
	movq	%fs:40, %rax
	movq	%rax, 104(%rsp)
	xorl	%eax, %eax
	cmpq	$0, 24(%rdi)
	movdqu	8(%rdi), %xmm0
	movaps	%xmm0, 16(%rsp)
	je	.L284
	leaq	64(%rsp), %rax
	leaq	32(%rsp), %r13
	leaq	16(%rsp), %r15
	movq	%rdi, %rbp
	movq	%rsi, %r12
	xorl	%ebx, %ebx
	movq	%rax, 8(%rsp)
	.p2align 4,,10
	.p2align 3
.L286:
	movq	(%r12), %rax
	movq	%r13, %rdi
	movq	(%rax), %r14
	call	_ZN8opendnp36AnalogC1Ev@PLT
	movq	%r13, %rsi
	movq	%r15, %rdi
	call	_ZN8opendnp311Group30Var110ReadTargetERN7openpal6RSliceERNS_6AnalogE@PLT
	movzwl	32(%rbp), %eax
	movq	48(%rsp), %rcx
	movq	%r12, %rdi
	movdqa	32(%rsp), %xmm0
	movq	8(%rsp), %rsi
	movaps	%xmm0, 64(%rsp)
	addl	%ebx, %eax
	movq	%rcx, 80(%rsp)
	movw	%ax, 88(%rsp)
	call	*%r14
	leal	1(%rbx), %eax
	cmpq	24(%rbp), %rax
	movq	%rax, %rbx
	jb	.L286
.L284:
	movq	104(%rsp), %rax
	xorq	%fs:40, %rax
	jne	.L290
	addq	$120, %rsp
	.cfi_remember_state
	.cfi_def_cfa_offset 56
	popq	%rbx
	.cfi_def_cfa_offset 48
	popq	%rbp
	.cfi_def_cfa_offset 40
	popq	%r12
	.cfi_def_cfa_offset 32
	popq	%r13
	.cfi_def_cfa_offset 24
	popq	%r14
	.cfi_def_cfa_offset 16
	popq	%r15
	.cfi_def_cfa_offset 8
	ret
.L290:
	.cfi_restore_state
	call	__stack_chk_fail@PLT
	.cfi_endproc
.LFE3523:
	.size	_ZNK8opendnp318BufferedCollectionINS_7IndexedINS_6AnalogEEEZNS_11RangeParser13InvokeRangeOfINS_11Group30Var1EEEvRKNS_12HeaderRecordERKNS_5RangeERKN7openpal6RSliceERNS_12IAPDUHandlerEEUlRSE_jE_E7ForeachERNS_8IVisitorIS3_EE, .-_ZNK8opendnp318BufferedCollectionINS_7IndexedINS_6AnalogEEEZNS_11RangeParser13InvokeRangeOfINS_11Group30Var1EEEvRKNS_12HeaderRecordERKNS_5RangeERKN7openpal6RSliceERNS_12IAPDUHandlerEEUlRSE_jE_E7ForeachERNS_8IVisitorIS3_EE
	.section	.text._ZNK8opendnp318BufferedCollectionINS_7IndexedINS_6AnalogEEEZNS_11RangeParser13InvokeRangeOfINS_11Group30Var2EEEvRKNS_12HeaderRecordERKNS_5RangeERKN7openpal6RSliceERNS_12IAPDUHandlerEEUlRSE_jE_E7ForeachERNS_8IVisitorIS3_EE,"axG",@progbits,_ZNK8opendnp318BufferedCollectionINS_7IndexedINS_6AnalogEEEZNS_11RangeParser13InvokeRangeOfINS_11Group30Var2EEEvRKNS_12HeaderRecordERKNS_5RangeERKN7openpal6RSliceERNS_12IAPDUHandlerEEUlRSE_jE_E7ForeachERNS_8IVisitorIS3_EE,comdat
	.align 2
	.p2align 4,,15
	.weak	_ZNK8opendnp318BufferedCollectionINS_7IndexedINS_6AnalogEEEZNS_11RangeParser13InvokeRangeOfINS_11Group30Var2EEEvRKNS_12HeaderRecordERKNS_5RangeERKN7openpal6RSliceERNS_12IAPDUHandlerEEUlRSE_jE_E7ForeachERNS_8IVisitorIS3_EE
	.type	_ZNK8opendnp318BufferedCollectionINS_7IndexedINS_6AnalogEEEZNS_11RangeParser13InvokeRangeOfINS_11Group30Var2EEEvRKNS_12HeaderRecordERKNS_5RangeERKN7openpal6RSliceERNS_12IAPDUHandlerEEUlRSE_jE_E7ForeachERNS_8IVisitorIS3_EE, @function
_ZNK8opendnp318BufferedCollectionINS_7IndexedINS_6AnalogEEEZNS_11RangeParser13InvokeRangeOfINS_11Group30Var2EEEvRKNS_12HeaderRecordERKNS_5RangeERKN7openpal6RSliceERNS_12IAPDUHandlerEEUlRSE_jE_E7ForeachERNS_8IVisitorIS3_EE:
.LFB3521:
	.cfi_startproc
	pushq	%r15
	.cfi_def_cfa_offset 16
	.cfi_offset 15, -16
	pushq	%r14
	.cfi_def_cfa_offset 24
	.cfi_offset 14, -24
	pushq	%r13
	.cfi_def_cfa_offset 32
	.cfi_offset 13, -32
	pushq	%r12
	.cfi_def_cfa_offset 40
	.cfi_offset 12, -40
	pushq	%rbp
	.cfi_def_cfa_offset 48
	.cfi_offset 6, -48
	pushq	%rbx
	.cfi_def_cfa_offset 56
	.cfi_offset 3, -56
	subq	$120, %rsp
	.cfi_def_cfa_offset 176
	movq	%fs:40, %rax
	movq	%rax, 104(%rsp)
	xorl	%eax, %eax
	cmpq	$0, 24(%rdi)
	movdqu	8(%rdi), %xmm0
	movaps	%xmm0, 16(%rsp)
	je	.L291
	leaq	64(%rsp), %rax
	leaq	32(%rsp), %r13
	leaq	16(%rsp), %r15
	movq	%rdi, %rbp
	movq	%rsi, %r12
	xorl	%ebx, %ebx
	movq	%rax, 8(%rsp)
	.p2align 4,,10
	.p2align 3
.L293:
	movq	(%r12), %rax
	movq	%r13, %rdi
	movq	(%rax), %r14
	call	_ZN8opendnp36AnalogC1Ev@PLT
	movq	%r13, %rsi
	movq	%r15, %rdi
	call	_ZN8opendnp311Group30Var210ReadTargetERN7openpal6RSliceERNS_6AnalogE@PLT
	movzwl	32(%rbp), %eax
	movq	48(%rsp), %rcx
	movq	%r12, %rdi
	movdqa	32(%rsp), %xmm0
	movq	8(%rsp), %rsi
	movaps	%xmm0, 64(%rsp)
	addl	%ebx, %eax
	movq	%rcx, 80(%rsp)
	movw	%ax, 88(%rsp)
	call	*%r14
	leal	1(%rbx), %eax
	cmpq	24(%rbp), %rax
	movq	%rax, %rbx
	jb	.L293
.L291:
	movq	104(%rsp), %rax
	xorq	%fs:40, %rax
	jne	.L297
	addq	$120, %rsp
	.cfi_remember_state
	.cfi_def_cfa_offset 56
	popq	%rbx
	.cfi_def_cfa_offset 48
	popq	%rbp
	.cfi_def_cfa_offset 40
	popq	%r12
	.cfi_def_cfa_offset 32
	popq	%r13
	.cfi_def_cfa_offset 24
	popq	%r14
	.cfi_def_cfa_offset 16
	popq	%r15
	.cfi_def_cfa_offset 8
	ret
.L297:
	.cfi_restore_state
	call	__stack_chk_fail@PLT
	.cfi_endproc
.LFE3521:
	.size	_ZNK8opendnp318BufferedCollectionINS_7IndexedINS_6AnalogEEEZNS_11RangeParser13InvokeRangeOfINS_11Group30Var2EEEvRKNS_12HeaderRecordERKNS_5RangeERKN7openpal6RSliceERNS_12IAPDUHandlerEEUlRSE_jE_E7ForeachERNS_8IVisitorIS3_EE, .-_ZNK8opendnp318BufferedCollectionINS_7IndexedINS_6AnalogEEEZNS_11RangeParser13InvokeRangeOfINS_11Group30Var2EEEvRKNS_12HeaderRecordERKNS_5RangeERKN7openpal6RSliceERNS_12IAPDUHandlerEEUlRSE_jE_E7ForeachERNS_8IVisitorIS3_EE
	.section	.text._ZNK8opendnp318BufferedCollectionINS_7IndexedINS_6AnalogEEEZNS_11RangeParser13InvokeRangeOfINS_11Group30Var3EEEvRKNS_12HeaderRecordERKNS_5RangeERKN7openpal6RSliceERNS_12IAPDUHandlerEEUlRSE_jE_E7ForeachERNS_8IVisitorIS3_EE,"axG",@progbits,_ZNK8opendnp318BufferedCollectionINS_7IndexedINS_6AnalogEEEZNS_11RangeParser13InvokeRangeOfINS_11Group30Var3EEEvRKNS_12HeaderRecordERKNS_5RangeERKN7openpal6RSliceERNS_12IAPDUHandlerEEUlRSE_jE_E7ForeachERNS_8IVisitorIS3_EE,comdat
	.align 2
	.p2align 4,,15
	.weak	_ZNK8opendnp318BufferedCollectionINS_7IndexedINS_6AnalogEEEZNS_11RangeParser13InvokeRangeOfINS_11Group30Var3EEEvRKNS_12HeaderRecordERKNS_5RangeERKN7openpal6RSliceERNS_12IAPDUHandlerEEUlRSE_jE_E7ForeachERNS_8IVisitorIS3_EE
	.type	_ZNK8opendnp318BufferedCollectionINS_7IndexedINS_6AnalogEEEZNS_11RangeParser13InvokeRangeOfINS_11Group30Var3EEEvRKNS_12HeaderRecordERKNS_5RangeERKN7openpal6RSliceERNS_12IAPDUHandlerEEUlRSE_jE_E7ForeachERNS_8IVisitorIS3_EE, @function
_ZNK8opendnp318BufferedCollectionINS_7IndexedINS_6AnalogEEEZNS_11RangeParser13InvokeRangeOfINS_11Group30Var3EEEvRKNS_12HeaderRecordERKNS_5RangeERKN7openpal6RSliceERNS_12IAPDUHandlerEEUlRSE_jE_E7ForeachERNS_8IVisitorIS3_EE:
.LFB3519:
	.cfi_startproc
	pushq	%r15
	.cfi_def_cfa_offset 16
	.cfi_offset 15, -16
	pushq	%r14
	.cfi_def_cfa_offset 24
	.cfi_offset 14, -24
	pushq	%r13
	.cfi_def_cfa_offset 32
	.cfi_offset 13, -32
	pushq	%r12
	.cfi_def_cfa_offset 40
	.cfi_offset 12, -40
	pushq	%rbp
	.cfi_def_cfa_offset 48
	.cfi_offset 6, -48
	pushq	%rbx
	.cfi_def_cfa_offset 56
	.cfi_offset 3, -56
	subq	$120, %rsp
	.cfi_def_cfa_offset 176
	movq	%fs:40, %rax
	movq	%rax, 104(%rsp)
	xorl	%eax, %eax
	cmpq	$0, 24(%rdi)
	movdqu	8(%rdi), %xmm0
	movaps	%xmm0, 16(%rsp)
	je	.L298
	leaq	64(%rsp), %rax
	leaq	32(%rsp), %r13
	leaq	16(%rsp), %r15
	movq	%rdi, %rbp
	movq	%rsi, %r12
	xorl	%ebx, %ebx
	movq	%rax, 8(%rsp)
	.p2align 4,,10
	.p2align 3
.L300:
	movq	(%r12), %rax
	movq	%r13, %rdi
	movq	(%rax), %r14
	call	_ZN8opendnp36AnalogC1Ev@PLT
	movq	%r13, %rsi
	movq	%r15, %rdi
	call	_ZN8opendnp311Group30Var310ReadTargetERN7openpal6RSliceERNS_6AnalogE@PLT
	movzwl	32(%rbp), %eax
	movq	48(%rsp), %rcx
	movq	%r12, %rdi
	movdqa	32(%rsp), %xmm0
	movq	8(%rsp), %rsi
	movaps	%xmm0, 64(%rsp)
	addl	%ebx, %eax
	movq	%rcx, 80(%rsp)
	movw	%ax, 88(%rsp)
	call	*%r14
	leal	1(%rbx), %eax
	cmpq	24(%rbp), %rax
	movq	%rax, %rbx
	jb	.L300
.L298:
	movq	104(%rsp), %rax
	xorq	%fs:40, %rax
	jne	.L304
	addq	$120, %rsp
	.cfi_remember_state
	.cfi_def_cfa_offset 56
	popq	%rbx
	.cfi_def_cfa_offset 48
	popq	%rbp
	.cfi_def_cfa_offset 40
	popq	%r12
	.cfi_def_cfa_offset 32
	popq	%r13
	.cfi_def_cfa_offset 24
	popq	%r14
	.cfi_def_cfa_offset 16
	popq	%r15
	.cfi_def_cfa_offset 8
	ret
.L304:
	.cfi_restore_state
	call	__stack_chk_fail@PLT
	.cfi_endproc
.LFE3519:
	.size	_ZNK8opendnp318BufferedCollectionINS_7IndexedINS_6AnalogEEEZNS_11RangeParser13InvokeRangeOfINS_11Group30Var3EEEvRKNS_12HeaderRecordERKNS_5RangeERKN7openpal6RSliceERNS_12IAPDUHandlerEEUlRSE_jE_E7ForeachERNS_8IVisitorIS3_EE, .-_ZNK8opendnp318BufferedCollectionINS_7IndexedINS_6AnalogEEEZNS_11RangeParser13InvokeRangeOfINS_11Group30Var3EEEvRKNS_12HeaderRecordERKNS_5RangeERKN7openpal6RSliceERNS_12IAPDUHandlerEEUlRSE_jE_E7ForeachERNS_8IVisitorIS3_EE
	.section	.text._ZNK8opendnp318BufferedCollectionINS_7IndexedINS_6AnalogEEEZNS_11RangeParser13InvokeRangeOfINS_11Group30Var4EEEvRKNS_12HeaderRecordERKNS_5RangeERKN7openpal6RSliceERNS_12IAPDUHandlerEEUlRSE_jE_E7ForeachERNS_8IVisitorIS3_EE,"axG",@progbits,_ZNK8opendnp318BufferedCollectionINS_7IndexedINS_6AnalogEEEZNS_11RangeParser13InvokeRangeOfINS_11Group30Var4EEEvRKNS_12HeaderRecordERKNS_5RangeERKN7openpal6RSliceERNS_12IAPDUHandlerEEUlRSE_jE_E7ForeachERNS_8IVisitorIS3_EE,comdat
	.align 2
	.p2align 4,,15
	.weak	_ZNK8opendnp318BufferedCollectionINS_7IndexedINS_6AnalogEEEZNS_11RangeParser13InvokeRangeOfINS_11Group30Var4EEEvRKNS_12HeaderRecordERKNS_5RangeERKN7openpal6RSliceERNS_12IAPDUHandlerEEUlRSE_jE_E7ForeachERNS_8IVisitorIS3_EE
	.type	_ZNK8opendnp318BufferedCollectionINS_7IndexedINS_6AnalogEEEZNS_11RangeParser13InvokeRangeOfINS_11Group30Var4EEEvRKNS_12HeaderRecordERKNS_5RangeERKN7openpal6RSliceERNS_12IAPDUHandlerEEUlRSE_jE_E7ForeachERNS_8IVisitorIS3_EE, @function
_ZNK8opendnp318BufferedCollectionINS_7IndexedINS_6AnalogEEEZNS_11RangeParser13InvokeRangeOfINS_11Group30Var4EEEvRKNS_12HeaderRecordERKNS_5RangeERKN7openpal6RSliceERNS_12IAPDUHandlerEEUlRSE_jE_E7ForeachERNS_8IVisitorIS3_EE:
.LFB3517:
	.cfi_startproc
	pushq	%r15
	.cfi_def_cfa_offset 16
	.cfi_offset 15, -16
	pushq	%r14
	.cfi_def_cfa_offset 24
	.cfi_offset 14, -24
	pushq	%r13
	.cfi_def_cfa_offset 32
	.cfi_offset 13, -32
	pushq	%r12
	.cfi_def_cfa_offset 40
	.cfi_offset 12, -40
	pushq	%rbp
	.cfi_def_cfa_offset 48
	.cfi_offset 6, -48
	pushq	%rbx
	.cfi_def_cfa_offset 56
	.cfi_offset 3, -56
	subq	$120, %rsp
	.cfi_def_cfa_offset 176
	movq	%fs:40, %rax
	movq	%rax, 104(%rsp)
	xorl	%eax, %eax
	cmpq	$0, 24(%rdi)
	movdqu	8(%rdi), %xmm0
	movaps	%xmm0, 16(%rsp)
	je	.L305
	leaq	64(%rsp), %rax
	leaq	32(%rsp), %r13
	leaq	16(%rsp), %r15
	movq	%rdi, %rbp
	movq	%rsi, %r12
	xorl	%ebx, %ebx
	movq	%rax, 8(%rsp)
	.p2align 4,,10
	.p2align 3
.L307:
	movq	(%r12), %rax
	movq	%r13, %rdi
	movq	(%rax), %r14
	call	_ZN8opendnp36AnalogC1Ev@PLT
	movq	%r13, %rsi
	movq	%r15, %rdi
	call	_ZN8opendnp311Group30Var410ReadTargetERN7openpal6RSliceERNS_6AnalogE@PLT
	movzwl	32(%rbp), %eax
	movq	48(%rsp), %rcx
	movq	%r12, %rdi
	movdqa	32(%rsp), %xmm0
	movq	8(%rsp), %rsi
	movaps	%xmm0, 64(%rsp)
	addl	%ebx, %eax
	movq	%rcx, 80(%rsp)
	movw	%ax, 88(%rsp)
	call	*%r14
	leal	1(%rbx), %eax
	cmpq	24(%rbp), %rax
	movq	%rax, %rbx
	jb	.L307
.L305:
	movq	104(%rsp), %rax
	xorq	%fs:40, %rax
	jne	.L311
	addq	$120, %rsp
	.cfi_remember_state
	.cfi_def_cfa_offset 56
	popq	%rbx
	.cfi_def_cfa_offset 48
	popq	%rbp
	.cfi_def_cfa_offset 40
	popq	%r12
	.cfi_def_cfa_offset 32
	popq	%r13
	.cfi_def_cfa_offset 24
	popq	%r14
	.cfi_def_cfa_offset 16
	popq	%r15
	.cfi_def_cfa_offset 8
	ret
.L311:
	.cfi_restore_state
	call	__stack_chk_fail@PLT
	.cfi_endproc
.LFE3517:
	.size	_ZNK8opendnp318BufferedCollectionINS_7IndexedINS_6AnalogEEEZNS_11RangeParser13InvokeRangeOfINS_11Group30Var4EEEvRKNS_12HeaderRecordERKNS_5RangeERKN7openpal6RSliceERNS_12IAPDUHandlerEEUlRSE_jE_E7ForeachERNS_8IVisitorIS3_EE, .-_ZNK8opendnp318BufferedCollectionINS_7IndexedINS_6AnalogEEEZNS_11RangeParser13InvokeRangeOfINS_11Group30Var4EEEvRKNS_12HeaderRecordERKNS_5RangeERKN7openpal6RSliceERNS_12IAPDUHandlerEEUlRSE_jE_E7ForeachERNS_8IVisitorIS3_EE
	.section	.text._ZNK8opendnp318BufferedCollectionINS_7IndexedINS_6AnalogEEEZNS_11RangeParser13InvokeRangeOfINS_11Group30Var5EEEvRKNS_12HeaderRecordERKNS_5RangeERKN7openpal6RSliceERNS_12IAPDUHandlerEEUlRSE_jE_E7ForeachERNS_8IVisitorIS3_EE,"axG",@progbits,_ZNK8opendnp318BufferedCollectionINS_7IndexedINS_6AnalogEEEZNS_11RangeParser13InvokeRangeOfINS_11Group30Var5EEEvRKNS_12HeaderRecordERKNS_5RangeERKN7openpal6RSliceERNS_12IAPDUHandlerEEUlRSE_jE_E7ForeachERNS_8IVisitorIS3_EE,comdat
	.align 2
	.p2align 4,,15
	.weak	_ZNK8opendnp318BufferedCollectionINS_7IndexedINS_6AnalogEEEZNS_11RangeParser13InvokeRangeOfINS_11Group30Var5EEEvRKNS_12HeaderRecordERKNS_5RangeERKN7openpal6RSliceERNS_12IAPDUHandlerEEUlRSE_jE_E7ForeachERNS_8IVisitorIS3_EE
	.type	_ZNK8opendnp318BufferedCollectionINS_7IndexedINS_6AnalogEEEZNS_11RangeParser13InvokeRangeOfINS_11Group30Var5EEEvRKNS_12HeaderRecordERKNS_5RangeERKN7openpal6RSliceERNS_12IAPDUHandlerEEUlRSE_jE_E7ForeachERNS_8IVisitorIS3_EE, @function
_ZNK8opendnp318BufferedCollectionINS_7IndexedINS_6AnalogEEEZNS_11RangeParser13InvokeRangeOfINS_11Group30Var5EEEvRKNS_12HeaderRecordERKNS_5RangeERKN7openpal6RSliceERNS_12IAPDUHandlerEEUlRSE_jE_E7ForeachERNS_8IVisitorIS3_EE:
.LFB3515:
	.cfi_startproc
	pushq	%r15
	.cfi_def_cfa_offset 16
	.cfi_offset 15, -16
	pushq	%r14
	.cfi_def_cfa_offset 24
	.cfi_offset 14, -24
	pushq	%r13
	.cfi_def_cfa_offset 32
	.cfi_offset 13, -32
	pushq	%r12
	.cfi_def_cfa_offset 40
	.cfi_offset 12, -40
	pushq	%rbp
	.cfi_def_cfa_offset 48
	.cfi_offset 6, -48
	pushq	%rbx
	.cfi_def_cfa_offset 56
	.cfi_offset 3, -56
	subq	$120, %rsp
	.cfi_def_cfa_offset 176
	movq	%fs:40, %rax
	movq	%rax, 104(%rsp)
	xorl	%eax, %eax
	cmpq	$0, 24(%rdi)
	movdqu	8(%rdi), %xmm0
	movaps	%xmm0, 16(%rsp)
	je	.L312
	leaq	64(%rsp), %rax
	leaq	32(%rsp), %r13
	leaq	16(%rsp), %r15
	movq	%rdi, %rbp
	movq	%rsi, %r12
	xorl	%ebx, %ebx
	movq	%rax, 8(%rsp)
	.p2align 4,,10
	.p2align 3
.L314:
	movq	(%r12), %rax
	movq	%r13, %rdi
	movq	(%rax), %r14
	call	_ZN8opendnp36AnalogC1Ev@PLT
	movq	%r13, %rsi
	movq	%r15, %rdi
	call	_ZN8opendnp311Group30Var510ReadTargetERN7openpal6RSliceERNS_6AnalogE@PLT
	movzwl	32(%rbp), %eax
	movq	48(%rsp), %rcx
	movq	%r12, %rdi
	movdqa	32(%rsp), %xmm0
	movq	8(%rsp), %rsi
	movaps	%xmm0, 64(%rsp)
	addl	%ebx, %eax
	movq	%rcx, 80(%rsp)
	movw	%ax, 88(%rsp)
	call	*%r14
	leal	1(%rbx), %eax
	cmpq	24(%rbp), %rax
	movq	%rax, %rbx
	jb	.L314
.L312:
	movq	104(%rsp), %rax
	xorq	%fs:40, %rax
	jne	.L318
	addq	$120, %rsp
	.cfi_remember_state
	.cfi_def_cfa_offset 56
	popq	%rbx
	.cfi_def_cfa_offset 48
	popq	%rbp
	.cfi_def_cfa_offset 40
	popq	%r12
	.cfi_def_cfa_offset 32
	popq	%r13
	.cfi_def_cfa_offset 24
	popq	%r14
	.cfi_def_cfa_offset 16
	popq	%r15
	.cfi_def_cfa_offset 8
	ret
.L318:
	.cfi_restore_state
	call	__stack_chk_fail@PLT
	.cfi_endproc
.LFE3515:
	.size	_ZNK8opendnp318BufferedCollectionINS_7IndexedINS_6AnalogEEEZNS_11RangeParser13InvokeRangeOfINS_11Group30Var5EEEvRKNS_12HeaderRecordERKNS_5RangeERKN7openpal6RSliceERNS_12IAPDUHandlerEEUlRSE_jE_E7ForeachERNS_8IVisitorIS3_EE, .-_ZNK8opendnp318BufferedCollectionINS_7IndexedINS_6AnalogEEEZNS_11RangeParser13InvokeRangeOfINS_11Group30Var5EEEvRKNS_12HeaderRecordERKNS_5RangeERKN7openpal6RSliceERNS_12IAPDUHandlerEEUlRSE_jE_E7ForeachERNS_8IVisitorIS3_EE
	.section	.text._ZNK8opendnp318BufferedCollectionINS_7IndexedINS_6AnalogEEEZNS_11RangeParser13InvokeRangeOfINS_11Group30Var6EEEvRKNS_12HeaderRecordERKNS_5RangeERKN7openpal6RSliceERNS_12IAPDUHandlerEEUlRSE_jE_E7ForeachERNS_8IVisitorIS3_EE,"axG",@progbits,_ZNK8opendnp318BufferedCollectionINS_7IndexedINS_6AnalogEEEZNS_11RangeParser13InvokeRangeOfINS_11Group30Var6EEEvRKNS_12HeaderRecordERKNS_5RangeERKN7openpal6RSliceERNS_12IAPDUHandlerEEUlRSE_jE_E7ForeachERNS_8IVisitorIS3_EE,comdat
	.align 2
	.p2align 4,,15
	.weak	_ZNK8opendnp318BufferedCollectionINS_7IndexedINS_6AnalogEEEZNS_11RangeParser13InvokeRangeOfINS_11Group30Var6EEEvRKNS_12HeaderRecordERKNS_5RangeERKN7openpal6RSliceERNS_12IAPDUHandlerEEUlRSE_jE_E7ForeachERNS_8IVisitorIS3_EE
	.type	_ZNK8opendnp318BufferedCollectionINS_7IndexedINS_6AnalogEEEZNS_11RangeParser13InvokeRangeOfINS_11Group30Var6EEEvRKNS_12HeaderRecordERKNS_5RangeERKN7openpal6RSliceERNS_12IAPDUHandlerEEUlRSE_jE_E7ForeachERNS_8IVisitorIS3_EE, @function
_ZNK8opendnp318BufferedCollectionINS_7IndexedINS_6AnalogEEEZNS_11RangeParser13InvokeRangeOfINS_11Group30Var6EEEvRKNS_12HeaderRecordERKNS_5RangeERKN7openpal6RSliceERNS_12IAPDUHandlerEEUlRSE_jE_E7ForeachERNS_8IVisitorIS3_EE:
.LFB3513:
	.cfi_startproc
	pushq	%r15
	.cfi_def_cfa_offset 16
	.cfi_offset 15, -16
	pushq	%r14
	.cfi_def_cfa_offset 24
	.cfi_offset 14, -24
	pushq	%r13
	.cfi_def_cfa_offset 32
	.cfi_offset 13, -32
	pushq	%r12
	.cfi_def_cfa_offset 40
	.cfi_offset 12, -40
	pushq	%rbp
	.cfi_def_cfa_offset 48
	.cfi_offset 6, -48
	pushq	%rbx
	.cfi_def_cfa_offset 56
	.cfi_offset 3, -56
	subq	$120, %rsp
	.cfi_def_cfa_offset 176
	movq	%fs:40, %rax
	movq	%rax, 104(%rsp)
	xorl	%eax, %eax
	cmpq	$0, 24(%rdi)
	movdqu	8(%rdi), %xmm0
	movaps	%xmm0, 16(%rsp)
	je	.L319
	leaq	64(%rsp), %rax
	leaq	32(%rsp), %r13
	leaq	16(%rsp), %r15
	movq	%rdi, %rbp
	movq	%rsi, %r12
	xorl	%ebx, %ebx
	movq	%rax, 8(%rsp)
	.p2align 4,,10
	.p2align 3
.L321:
	movq	(%r12), %rax
	movq	%r13, %rdi
	movq	(%rax), %r14
	call	_ZN8opendnp36AnalogC1Ev@PLT
	movq	%r13, %rsi
	movq	%r15, %rdi
	call	_ZN8opendnp311Group30Var610ReadTargetERN7openpal6RSliceERNS_6AnalogE@PLT
	movzwl	32(%rbp), %eax
	movq	48(%rsp), %rcx
	movq	%r12, %rdi
	movdqa	32(%rsp), %xmm0
	movq	8(%rsp), %rsi
	movaps	%xmm0, 64(%rsp)
	addl	%ebx, %eax
	movq	%rcx, 80(%rsp)
	movw	%ax, 88(%rsp)
	call	*%r14
	leal	1(%rbx), %eax
	cmpq	24(%rbp), %rax
	movq	%rax, %rbx
	jb	.L321
.L319:
	movq	104(%rsp), %rax
	xorq	%fs:40, %rax
	jne	.L325
	addq	$120, %rsp
	.cfi_remember_state
	.cfi_def_cfa_offset 56
	popq	%rbx
	.cfi_def_cfa_offset 48
	popq	%rbp
	.cfi_def_cfa_offset 40
	popq	%r12
	.cfi_def_cfa_offset 32
	popq	%r13
	.cfi_def_cfa_offset 24
	popq	%r14
	.cfi_def_cfa_offset 16
	popq	%r15
	.cfi_def_cfa_offset 8
	ret
.L325:
	.cfi_restore_state
	call	__stack_chk_fail@PLT
	.cfi_endproc
.LFE3513:
	.size	_ZNK8opendnp318BufferedCollectionINS_7IndexedINS_6AnalogEEEZNS_11RangeParser13InvokeRangeOfINS_11Group30Var6EEEvRKNS_12HeaderRecordERKNS_5RangeERKN7openpal6RSliceERNS_12IAPDUHandlerEEUlRSE_jE_E7ForeachERNS_8IVisitorIS3_EE, .-_ZNK8opendnp318BufferedCollectionINS_7IndexedINS_6AnalogEEEZNS_11RangeParser13InvokeRangeOfINS_11Group30Var6EEEvRKNS_12HeaderRecordERKNS_5RangeERKN7openpal6RSliceERNS_12IAPDUHandlerEEUlRSE_jE_E7ForeachERNS_8IVisitorIS3_EE
	.section	.text._ZN8opendnp311RangeParser13InvokeRangeOfINS_11Group40Var1EEEvRKNS_12HeaderRecordERKNS_5RangeERKN7openpal6RSliceERNS_12IAPDUHandlerE,"axG",@progbits,_ZN8opendnp311RangeParser13InvokeRangeOfINS_11Group40Var1EEEvRKNS_12HeaderRecordERKNS_5RangeERKN7openpal6RSliceERNS_12IAPDUHandlerE,comdat
	.align 2
	.p2align 4,,15
	.weak	_ZN8opendnp311RangeParser13InvokeRangeOfINS_11Group40Var1EEEvRKNS_12HeaderRecordERKNS_5RangeERKN7openpal6RSliceERNS_12IAPDUHandlerE
	.type	_ZN8opendnp311RangeParser13InvokeRangeOfINS_11Group40Var1EEEvRKNS_12HeaderRecordERKNS_5RangeERKN7openpal6RSliceERNS_12IAPDUHandlerE, @function
_ZN8opendnp311RangeParser13InvokeRangeOfINS_11Group40Var1EEEvRKNS_12HeaderRecordERKNS_5RangeERKN7openpal6RSliceERNS_12IAPDUHandlerE:
.LFB3006:
	.cfi_startproc
	subq	$88, %rsp
	.cfi_def_cfa_offset 96
	movzwl	(%rsi), %r9d
	movzwl	2(%rsi), %r8d
	movq	%fs:40, %rax
	movq	%rax, 72(%rsp)
	xorl	%eax, %eax
	cmpw	%r8w, %r9w
	ja	.L327
	movzwl	%r8w, %eax
	movzwl	%r9w, %r10d
	addl	$1, %eax
	subl	%r10d, %eax
.L327:
	movdqu	(%rdx), %xmm0
	leaq	32(%rsp), %rdx
	movq	_ZTVN8opendnp318BufferedCollectionINS_7IndexedINS_18AnalogOutputStatusEEEZNS_11RangeParser13InvokeRangeOfINS_11Group40Var1EEEvRKNS_12HeaderRecordERKNS_5RangeERKN7openpal6RSliceERNS_12IAPDUHandlerEEUlRSE_jE_EE@GOTPCREL(%rip), %r10
	movq	%rax, 56(%rsp)
	movl	(%rsi), %eax
	movq	%rsp, %rsi
	movw	%r9w, 64(%rsp)
	movups	%xmm0, 40(%rsp)
	addq	$16, %r10
	movw	%r8w, 66(%rsp)
	movdqu	(%rdi), %xmm0
	movq	%rcx, %rdi
	movl	%eax, 16(%rsp)
	movq	%r10, 32(%rsp)
	movaps	%xmm0, (%rsp)
	call	_ZN8opendnp312IAPDUHandler8OnHeaderERKNS_11RangeHeaderERKNS_11ICollectionINS_7IndexedINS_18AnalogOutputStatusEEEEE@PLT
	movq	72(%rsp), %rax
	xorq	%fs:40, %rax
	jne	.L331
	addq	$88, %rsp
	.cfi_remember_state
	.cfi_def_cfa_offset 8
	ret
.L331:
	.cfi_restore_state
	call	__stack_chk_fail@PLT
	.cfi_endproc
.LFE3006:
	.size	_ZN8opendnp311RangeParser13InvokeRangeOfINS_11Group40Var1EEEvRKNS_12HeaderRecordERKNS_5RangeERKN7openpal6RSliceERNS_12IAPDUHandlerE, .-_ZN8opendnp311RangeParser13InvokeRangeOfINS_11Group40Var1EEEvRKNS_12HeaderRecordERKNS_5RangeERKN7openpal6RSliceERNS_12IAPDUHandlerE
	.section	.text._ZN8opendnp311RangeParser13InvokeRangeOfINS_11Group40Var2EEEvRKNS_12HeaderRecordERKNS_5RangeERKN7openpal6RSliceERNS_12IAPDUHandlerE,"axG",@progbits,_ZN8opendnp311RangeParser13InvokeRangeOfINS_11Group40Var2EEEvRKNS_12HeaderRecordERKNS_5RangeERKN7openpal6RSliceERNS_12IAPDUHandlerE,comdat
	.align 2
	.p2align 4,,15
	.weak	_ZN8opendnp311RangeParser13InvokeRangeOfINS_11Group40Var2EEEvRKNS_12HeaderRecordERKNS_5RangeERKN7openpal6RSliceERNS_12IAPDUHandlerE
	.type	_ZN8opendnp311RangeParser13InvokeRangeOfINS_11Group40Var2EEEvRKNS_12HeaderRecordERKNS_5RangeERKN7openpal6RSliceERNS_12IAPDUHandlerE, @function
_ZN8opendnp311RangeParser13InvokeRangeOfINS_11Group40Var2EEEvRKNS_12HeaderRecordERKNS_5RangeERKN7openpal6RSliceERNS_12IAPDUHandlerE:
.LFB3014:
	.cfi_startproc
	subq	$88, %rsp
	.cfi_def_cfa_offset 96
	movzwl	(%rsi), %r9d
	movzwl	2(%rsi), %r8d
	movq	%fs:40, %rax
	movq	%rax, 72(%rsp)
	xorl	%eax, %eax
	cmpw	%r8w, %r9w
	ja	.L333
	movzwl	%r8w, %eax
	movzwl	%r9w, %r10d
	addl	$1, %eax
	subl	%r10d, %eax
.L333:
	movdqu	(%rdx), %xmm0
	leaq	32(%rsp), %rdx
	movq	_ZTVN8opendnp318BufferedCollectionINS_7IndexedINS_18AnalogOutputStatusEEEZNS_11RangeParser13InvokeRangeOfINS_11Group40Var2EEEvRKNS_12HeaderRecordERKNS_5RangeERKN7openpal6RSliceERNS_12IAPDUHandlerEEUlRSE_jE_EE@GOTPCREL(%rip), %r10
	movq	%rax, 56(%rsp)
	movl	(%rsi), %eax
	movq	%rsp, %rsi
	movw	%r9w, 64(%rsp)
	movups	%xmm0, 40(%rsp)
	addq	$16, %r10
	movw	%r8w, 66(%rsp)
	movdqu	(%rdi), %xmm0
	movq	%rcx, %rdi
	movl	%eax, 16(%rsp)
	movq	%r10, 32(%rsp)
	movaps	%xmm0, (%rsp)
	call	_ZN8opendnp312IAPDUHandler8OnHeaderERKNS_11RangeHeaderERKNS_11ICollectionINS_7IndexedINS_18AnalogOutputStatusEEEEE@PLT
	movq	72(%rsp), %rax
	xorq	%fs:40, %rax
	jne	.L337
	addq	$88, %rsp
	.cfi_remember_state
	.cfi_def_cfa_offset 8
	ret
.L337:
	.cfi_restore_state
	call	__stack_chk_fail@PLT
	.cfi_endproc
.LFE3014:
	.size	_ZN8opendnp311RangeParser13InvokeRangeOfINS_11Group40Var2EEEvRKNS_12HeaderRecordERKNS_5RangeERKN7openpal6RSliceERNS_12IAPDUHandlerE, .-_ZN8opendnp311RangeParser13InvokeRangeOfINS_11Group40Var2EEEvRKNS_12HeaderRecordERKNS_5RangeERKN7openpal6RSliceERNS_12IAPDUHandlerE
	.section	.text._ZN8opendnp311RangeParser13InvokeRangeOfINS_11Group40Var3EEEvRKNS_12HeaderRecordERKNS_5RangeERKN7openpal6RSliceERNS_12IAPDUHandlerE,"axG",@progbits,_ZN8opendnp311RangeParser13InvokeRangeOfINS_11Group40Var3EEEvRKNS_12HeaderRecordERKNS_5RangeERKN7openpal6RSliceERNS_12IAPDUHandlerE,comdat
	.align 2
	.p2align 4,,15
	.weak	_ZN8opendnp311RangeParser13InvokeRangeOfINS_11Group40Var3EEEvRKNS_12HeaderRecordERKNS_5RangeERKN7openpal6RSliceERNS_12IAPDUHandlerE
	.type	_ZN8opendnp311RangeParser13InvokeRangeOfINS_11Group40Var3EEEvRKNS_12HeaderRecordERKNS_5RangeERKN7openpal6RSliceERNS_12IAPDUHandlerE, @function
_ZN8opendnp311RangeParser13InvokeRangeOfINS_11Group40Var3EEEvRKNS_12HeaderRecordERKNS_5RangeERKN7openpal6RSliceERNS_12IAPDUHandlerE:
.LFB3019:
	.cfi_startproc
	subq	$88, %rsp
	.cfi_def_cfa_offset 96
	movzwl	(%rsi), %r9d
	movzwl	2(%rsi), %r8d
	movq	%fs:40, %rax
	movq	%rax, 72(%rsp)
	xorl	%eax, %eax
	cmpw	%r8w, %r9w
	ja	.L339
	movzwl	%r8w, %eax
	movzwl	%r9w, %r10d
	addl	$1, %eax
	subl	%r10d, %eax
.L339:
	movdqu	(%rdx), %xmm0
	leaq	32(%rsp), %rdx
	movq	_ZTVN8opendnp318BufferedCollectionINS_7IndexedINS_18AnalogOutputStatusEEEZNS_11RangeParser13InvokeRangeOfINS_11Group40Var3EEEvRKNS_12HeaderRecordERKNS_5RangeERKN7openpal6RSliceERNS_12IAPDUHandlerEEUlRSE_jE_EE@GOTPCREL(%rip), %r10
	movq	%rax, 56(%rsp)
	movl	(%rsi), %eax
	movq	%rsp, %rsi
	movw	%r9w, 64(%rsp)
	movups	%xmm0, 40(%rsp)
	addq	$16, %r10
	movw	%r8w, 66(%rsp)
	movdqu	(%rdi), %xmm0
	movq	%rcx, %rdi
	movl	%eax, 16(%rsp)
	movq	%r10, 32(%rsp)
	movaps	%xmm0, (%rsp)
	call	_ZN8opendnp312IAPDUHandler8OnHeaderERKNS_11RangeHeaderERKNS_11ICollectionINS_7IndexedINS_18AnalogOutputStatusEEEEE@PLT
	movq	72(%rsp), %rax
	xorq	%fs:40, %rax
	jne	.L343
	addq	$88, %rsp
	.cfi_remember_state
	.cfi_def_cfa_offset 8
	ret
.L343:
	.cfi_restore_state
	call	__stack_chk_fail@PLT
	.cfi_endproc
.LFE3019:
	.size	_ZN8opendnp311RangeParser13InvokeRangeOfINS_11Group40Var3EEEvRKNS_12HeaderRecordERKNS_5RangeERKN7openpal6RSliceERNS_12IAPDUHandlerE, .-_ZN8opendnp311RangeParser13InvokeRangeOfINS_11Group40Var3EEEvRKNS_12HeaderRecordERKNS_5RangeERKN7openpal6RSliceERNS_12IAPDUHandlerE
	.section	.text._ZN8opendnp311RangeParser13InvokeRangeOfINS_11Group40Var4EEEvRKNS_12HeaderRecordERKNS_5RangeERKN7openpal6RSliceERNS_12IAPDUHandlerE,"axG",@progbits,_ZN8opendnp311RangeParser13InvokeRangeOfINS_11Group40Var4EEEvRKNS_12HeaderRecordERKNS_5RangeERKN7openpal6RSliceERNS_12IAPDUHandlerE,comdat
	.align 2
	.p2align 4,,15
	.weak	_ZN8opendnp311RangeParser13InvokeRangeOfINS_11Group40Var4EEEvRKNS_12HeaderRecordERKNS_5RangeERKN7openpal6RSliceERNS_12IAPDUHandlerE
	.type	_ZN8opendnp311RangeParser13InvokeRangeOfINS_11Group40Var4EEEvRKNS_12HeaderRecordERKNS_5RangeERKN7openpal6RSliceERNS_12IAPDUHandlerE, @function
_ZN8opendnp311RangeParser13InvokeRangeOfINS_11Group40Var4EEEvRKNS_12HeaderRecordERKNS_5RangeERKN7openpal6RSliceERNS_12IAPDUHandlerE:
.LFB3024:
	.cfi_startproc
	subq	$88, %rsp
	.cfi_def_cfa_offset 96
	movzwl	(%rsi), %r9d
	movzwl	2(%rsi), %r8d
	movq	%fs:40, %rax
	movq	%rax, 72(%rsp)
	xorl	%eax, %eax
	cmpw	%r8w, %r9w
	ja	.L345
	movzwl	%r8w, %eax
	movzwl	%r9w, %r10d
	addl	$1, %eax
	subl	%r10d, %eax
.L345:
	movdqu	(%rdx), %xmm0
	leaq	32(%rsp), %rdx
	movq	_ZTVN8opendnp318BufferedCollectionINS_7IndexedINS_18AnalogOutputStatusEEEZNS_11RangeParser13InvokeRangeOfINS_11Group40Var4EEEvRKNS_12HeaderRecordERKNS_5RangeERKN7openpal6RSliceERNS_12IAPDUHandlerEEUlRSE_jE_EE@GOTPCREL(%rip), %r10
	movq	%rax, 56(%rsp)
	movl	(%rsi), %eax
	movq	%rsp, %rsi
	movw	%r9w, 64(%rsp)
	movups	%xmm0, 40(%rsp)
	addq	$16, %r10
	movw	%r8w, 66(%rsp)
	movdqu	(%rdi), %xmm0
	movq	%rcx, %rdi
	movl	%eax, 16(%rsp)
	movq	%r10, 32(%rsp)
	movaps	%xmm0, (%rsp)
	call	_ZN8opendnp312IAPDUHandler8OnHeaderERKNS_11RangeHeaderERKNS_11ICollectionINS_7IndexedINS_18AnalogOutputStatusEEEEE@PLT
	movq	72(%rsp), %rax
	xorq	%fs:40, %rax
	jne	.L349
	addq	$88, %rsp
	.cfi_remember_state
	.cfi_def_cfa_offset 8
	ret
.L349:
	.cfi_restore_state
	call	__stack_chk_fail@PLT
	.cfi_endproc
.LFE3024:
	.size	_ZN8opendnp311RangeParser13InvokeRangeOfINS_11Group40Var4EEEvRKNS_12HeaderRecordERKNS_5RangeERKN7openpal6RSliceERNS_12IAPDUHandlerE, .-_ZN8opendnp311RangeParser13InvokeRangeOfINS_11Group40Var4EEEvRKNS_12HeaderRecordERKNS_5RangeERKN7openpal6RSliceERNS_12IAPDUHandlerE
	.section	.text._ZNK8opendnp318BufferedCollectionINS_7IndexedINS_18AnalogOutputStatusEEEZNS_11RangeParser13InvokeRangeOfINS_11Group40Var1EEEvRKNS_12HeaderRecordERKNS_5RangeERKN7openpal6RSliceERNS_12IAPDUHandlerEEUlRSE_jE_E7ForeachERNS_8IVisitorIS3_EE,"axG",@progbits,_ZNK8opendnp318BufferedCollectionINS_7IndexedINS_18AnalogOutputStatusEEEZNS_11RangeParser13InvokeRangeOfINS_11Group40Var1EEEvRKNS_12HeaderRecordERKNS_5RangeERKN7openpal6RSliceERNS_12IAPDUHandlerEEUlRSE_jE_E7ForeachERNS_8IVisitorIS3_EE,comdat
	.align 2
	.p2align 4,,15
	.weak	_ZNK8opendnp318BufferedCollectionINS_7IndexedINS_18AnalogOutputStatusEEEZNS_11RangeParser13InvokeRangeOfINS_11Group40Var1EEEvRKNS_12HeaderRecordERKNS_5RangeERKN7openpal6RSliceERNS_12IAPDUHandlerEEUlRSE_jE_E7ForeachERNS_8IVisitorIS3_EE
	.type	_ZNK8opendnp318BufferedCollectionINS_7IndexedINS_18AnalogOutputStatusEEEZNS_11RangeParser13InvokeRangeOfINS_11Group40Var1EEEvRKNS_12HeaderRecordERKNS_5RangeERKN7openpal6RSliceERNS_12IAPDUHandlerEEUlRSE_jE_E7ForeachERNS_8IVisitorIS3_EE, @function
_ZNK8opendnp318BufferedCollectionINS_7IndexedINS_18AnalogOutputStatusEEEZNS_11RangeParser13InvokeRangeOfINS_11Group40Var1EEEvRKNS_12HeaderRecordERKNS_5RangeERKN7openpal6RSliceERNS_12IAPDUHandlerEEUlRSE_jE_E7ForeachERNS_8IVisitorIS3_EE:
.LFB3511:
	.cfi_startproc
	pushq	%r15
	.cfi_def_cfa_offset 16
	.cfi_offset 15, -16
	pushq	%r14
	.cfi_def_cfa_offset 24
	.cfi_offset 14, -24
	pushq	%r13
	.cfi_def_cfa_offset 32
	.cfi_offset 13, -32
	pushq	%r12
	.cfi_def_cfa_offset 40
	.cfi_offset 12, -40
	pushq	%rbp
	.cfi_def_cfa_offset 48
	.cfi_offset 6, -48
	pushq	%rbx
	.cfi_def_cfa_offset 56
	.cfi_offset 3, -56
	subq	$120, %rsp
	.cfi_def_cfa_offset 176
	movq	%fs:40, %rax
	movq	%rax, 104(%rsp)
	xorl	%eax, %eax
	cmpq	$0, 24(%rdi)
	movdqu	8(%rdi), %xmm0
	movaps	%xmm0, 16(%rsp)
	je	.L350
	leaq	64(%rsp), %rax
	leaq	32(%rsp), %r13
	leaq	16(%rsp), %r15
	movq	%rdi, %rbp
	movq	%rsi, %r12
	xorl	%ebx, %ebx
	movq	%rax, 8(%rsp)
	.p2align 4,,10
	.p2align 3
.L352:
	movq	(%r12), %rax
	movq	%r13, %rdi
	movq	(%rax), %r14
	call	_ZN8opendnp318AnalogOutputStatusC1Ev@PLT
	movq	%r13, %rsi
	movq	%r15, %rdi
	call	_ZN8opendnp311Group40Var110ReadTargetERN7openpal6RSliceERNS_18AnalogOutputStatusE@PLT
	movzwl	32(%rbp), %eax
	movq	48(%rsp), %rcx
	movq	%r12, %rdi
	movdqa	32(%rsp), %xmm0
	movq	8(%rsp), %rsi
	movaps	%xmm0, 64(%rsp)
	addl	%ebx, %eax
	movq	%rcx, 80(%rsp)
	movw	%ax, 88(%rsp)
	call	*%r14
	leal	1(%rbx), %eax
	cmpq	24(%rbp), %rax
	movq	%rax, %rbx
	jb	.L352
.L350:
	movq	104(%rsp), %rax
	xorq	%fs:40, %rax
	jne	.L356
	addq	$120, %rsp
	.cfi_remember_state
	.cfi_def_cfa_offset 56
	popq	%rbx
	.cfi_def_cfa_offset 48
	popq	%rbp
	.cfi_def_cfa_offset 40
	popq	%r12
	.cfi_def_cfa_offset 32
	popq	%r13
	.cfi_def_cfa_offset 24
	popq	%r14
	.cfi_def_cfa_offset 16
	popq	%r15
	.cfi_def_cfa_offset 8
	ret
.L356:
	.cfi_restore_state
	call	__stack_chk_fail@PLT
	.cfi_endproc
.LFE3511:
	.size	_ZNK8opendnp318BufferedCollectionINS_7IndexedINS_18AnalogOutputStatusEEEZNS_11RangeParser13InvokeRangeOfINS_11Group40Var1EEEvRKNS_12HeaderRecordERKNS_5RangeERKN7openpal6RSliceERNS_12IAPDUHandlerEEUlRSE_jE_E7ForeachERNS_8IVisitorIS3_EE, .-_ZNK8opendnp318BufferedCollectionINS_7IndexedINS_18AnalogOutputStatusEEEZNS_11RangeParser13InvokeRangeOfINS_11Group40Var1EEEvRKNS_12HeaderRecordERKNS_5RangeERKN7openpal6RSliceERNS_12IAPDUHandlerEEUlRSE_jE_E7ForeachERNS_8IVisitorIS3_EE
	.section	.text._ZNK8opendnp318BufferedCollectionINS_7IndexedINS_18AnalogOutputStatusEEEZNS_11RangeParser13InvokeRangeOfINS_11Group40Var2EEEvRKNS_12HeaderRecordERKNS_5RangeERKN7openpal6RSliceERNS_12IAPDUHandlerEEUlRSE_jE_E7ForeachERNS_8IVisitorIS3_EE,"axG",@progbits,_ZNK8opendnp318BufferedCollectionINS_7IndexedINS_18AnalogOutputStatusEEEZNS_11RangeParser13InvokeRangeOfINS_11Group40Var2EEEvRKNS_12HeaderRecordERKNS_5RangeERKN7openpal6RSliceERNS_12IAPDUHandlerEEUlRSE_jE_E7ForeachERNS_8IVisitorIS3_EE,comdat
	.align 2
	.p2align 4,,15
	.weak	_ZNK8opendnp318BufferedCollectionINS_7IndexedINS_18AnalogOutputStatusEEEZNS_11RangeParser13InvokeRangeOfINS_11Group40Var2EEEvRKNS_12HeaderRecordERKNS_5RangeERKN7openpal6RSliceERNS_12IAPDUHandlerEEUlRSE_jE_E7ForeachERNS_8IVisitorIS3_EE
	.type	_ZNK8opendnp318BufferedCollectionINS_7IndexedINS_18AnalogOutputStatusEEEZNS_11RangeParser13InvokeRangeOfINS_11Group40Var2EEEvRKNS_12HeaderRecordERKNS_5RangeERKN7openpal6RSliceERNS_12IAPDUHandlerEEUlRSE_jE_E7ForeachERNS_8IVisitorIS3_EE, @function
_ZNK8opendnp318BufferedCollectionINS_7IndexedINS_18AnalogOutputStatusEEEZNS_11RangeParser13InvokeRangeOfINS_11Group40Var2EEEvRKNS_12HeaderRecordERKNS_5RangeERKN7openpal6RSliceERNS_12IAPDUHandlerEEUlRSE_jE_E7ForeachERNS_8IVisitorIS3_EE:
.LFB3509:
	.cfi_startproc
	pushq	%r15
	.cfi_def_cfa_offset 16
	.cfi_offset 15, -16
	pushq	%r14
	.cfi_def_cfa_offset 24
	.cfi_offset 14, -24
	pushq	%r13
	.cfi_def_cfa_offset 32
	.cfi_offset 13, -32
	pushq	%r12
	.cfi_def_cfa_offset 40
	.cfi_offset 12, -40
	pushq	%rbp
	.cfi_def_cfa_offset 48
	.cfi_offset 6, -48
	pushq	%rbx
	.cfi_def_cfa_offset 56
	.cfi_offset 3, -56
	subq	$120, %rsp
	.cfi_def_cfa_offset 176
	movq	%fs:40, %rax
	movq	%rax, 104(%rsp)
	xorl	%eax, %eax
	cmpq	$0, 24(%rdi)
	movdqu	8(%rdi), %xmm0
	movaps	%xmm0, 16(%rsp)
	je	.L357
	leaq	64(%rsp), %rax
	leaq	32(%rsp), %r13
	leaq	16(%rsp), %r15
	movq	%rdi, %rbp
	movq	%rsi, %r12
	xorl	%ebx, %ebx
	movq	%rax, 8(%rsp)
	.p2align 4,,10
	.p2align 3
.L359:
	movq	(%r12), %rax
	movq	%r13, %rdi
	movq	(%rax), %r14
	call	_ZN8opendnp318AnalogOutputStatusC1Ev@PLT
	movq	%r13, %rsi
	movq	%r15, %rdi
	call	_ZN8opendnp311Group40Var210ReadTargetERN7openpal6RSliceERNS_18AnalogOutputStatusE@PLT
	movzwl	32(%rbp), %eax
	movq	48(%rsp), %rcx
	movq	%r12, %rdi
	movdqa	32(%rsp), %xmm0
	movq	8(%rsp), %rsi
	movaps	%xmm0, 64(%rsp)
	addl	%ebx, %eax
	movq	%rcx, 80(%rsp)
	movw	%ax, 88(%rsp)
	call	*%r14
	leal	1(%rbx), %eax
	cmpq	24(%rbp), %rax
	movq	%rax, %rbx
	jb	.L359
.L357:
	movq	104(%rsp), %rax
	xorq	%fs:40, %rax
	jne	.L363
	addq	$120, %rsp
	.cfi_remember_state
	.cfi_def_cfa_offset 56
	popq	%rbx
	.cfi_def_cfa_offset 48
	popq	%rbp
	.cfi_def_cfa_offset 40
	popq	%r12
	.cfi_def_cfa_offset 32
	popq	%r13
	.cfi_def_cfa_offset 24
	popq	%r14
	.cfi_def_cfa_offset 16
	popq	%r15
	.cfi_def_cfa_offset 8
	ret
.L363:
	.cfi_restore_state
	call	__stack_chk_fail@PLT
	.cfi_endproc
.LFE3509:
	.size	_ZNK8opendnp318BufferedCollectionINS_7IndexedINS_18AnalogOutputStatusEEEZNS_11RangeParser13InvokeRangeOfINS_11Group40Var2EEEvRKNS_12HeaderRecordERKNS_5RangeERKN7openpal6RSliceERNS_12IAPDUHandlerEEUlRSE_jE_E7ForeachERNS_8IVisitorIS3_EE, .-_ZNK8opendnp318BufferedCollectionINS_7IndexedINS_18AnalogOutputStatusEEEZNS_11RangeParser13InvokeRangeOfINS_11Group40Var2EEEvRKNS_12HeaderRecordERKNS_5RangeERKN7openpal6RSliceERNS_12IAPDUHandlerEEUlRSE_jE_E7ForeachERNS_8IVisitorIS3_EE
	.section	.text._ZNK8opendnp318BufferedCollectionINS_7IndexedINS_18AnalogOutputStatusEEEZNS_11RangeParser13InvokeRangeOfINS_11Group40Var3EEEvRKNS_12HeaderRecordERKNS_5RangeERKN7openpal6RSliceERNS_12IAPDUHandlerEEUlRSE_jE_E7ForeachERNS_8IVisitorIS3_EE,"axG",@progbits,_ZNK8opendnp318BufferedCollectionINS_7IndexedINS_18AnalogOutputStatusEEEZNS_11RangeParser13InvokeRangeOfINS_11Group40Var3EEEvRKNS_12HeaderRecordERKNS_5RangeERKN7openpal6RSliceERNS_12IAPDUHandlerEEUlRSE_jE_E7ForeachERNS_8IVisitorIS3_EE,comdat
	.align 2
	.p2align 4,,15
	.weak	_ZNK8opendnp318BufferedCollectionINS_7IndexedINS_18AnalogOutputStatusEEEZNS_11RangeParser13InvokeRangeOfINS_11Group40Var3EEEvRKNS_12HeaderRecordERKNS_5RangeERKN7openpal6RSliceERNS_12IAPDUHandlerEEUlRSE_jE_E7ForeachERNS_8IVisitorIS3_EE
	.type	_ZNK8opendnp318BufferedCollectionINS_7IndexedINS_18AnalogOutputStatusEEEZNS_11RangeParser13InvokeRangeOfINS_11Group40Var3EEEvRKNS_12HeaderRecordERKNS_5RangeERKN7openpal6RSliceERNS_12IAPDUHandlerEEUlRSE_jE_E7ForeachERNS_8IVisitorIS3_EE, @function
_ZNK8opendnp318BufferedCollectionINS_7IndexedINS_18AnalogOutputStatusEEEZNS_11RangeParser13InvokeRangeOfINS_11Group40Var3EEEvRKNS_12HeaderRecordERKNS_5RangeERKN7openpal6RSliceERNS_12IAPDUHandlerEEUlRSE_jE_E7ForeachERNS_8IVisitorIS3_EE:
.LFB3507:
	.cfi_startproc
	pushq	%r15
	.cfi_def_cfa_offset 16
	.cfi_offset 15, -16
	pushq	%r14
	.cfi_def_cfa_offset 24
	.cfi_offset 14, -24
	pushq	%r13
	.cfi_def_cfa_offset 32
	.cfi_offset 13, -32
	pushq	%r12
	.cfi_def_cfa_offset 40
	.cfi_offset 12, -40
	pushq	%rbp
	.cfi_def_cfa_offset 48
	.cfi_offset 6, -48
	pushq	%rbx
	.cfi_def_cfa_offset 56
	.cfi_offset 3, -56
	subq	$120, %rsp
	.cfi_def_cfa_offset 176
	movq	%fs:40, %rax
	movq	%rax, 104(%rsp)
	xorl	%eax, %eax
	cmpq	$0, 24(%rdi)
	movdqu	8(%rdi), %xmm0
	movaps	%xmm0, 16(%rsp)
	je	.L364
	leaq	64(%rsp), %rax
	leaq	32(%rsp), %r13
	leaq	16(%rsp), %r15
	movq	%rdi, %rbp
	movq	%rsi, %r12
	xorl	%ebx, %ebx
	movq	%rax, 8(%rsp)
	.p2align 4,,10
	.p2align 3
.L366:
	movq	(%r12), %rax
	movq	%r13, %rdi
	movq	(%rax), %r14
	call	_ZN8opendnp318AnalogOutputStatusC1Ev@PLT
	movq	%r13, %rsi
	movq	%r15, %rdi
	call	_ZN8opendnp311Group40Var310ReadTargetERN7openpal6RSliceERNS_18AnalogOutputStatusE@PLT
	movzwl	32(%rbp), %eax
	movq	48(%rsp), %rcx
	movq	%r12, %rdi
	movdqa	32(%rsp), %xmm0
	movq	8(%rsp), %rsi
	movaps	%xmm0, 64(%rsp)
	addl	%ebx, %eax
	movq	%rcx, 80(%rsp)
	movw	%ax, 88(%rsp)
	call	*%r14
	leal	1(%rbx), %eax
	cmpq	24(%rbp), %rax
	movq	%rax, %rbx
	jb	.L366
.L364:
	movq	104(%rsp), %rax
	xorq	%fs:40, %rax
	jne	.L370
	addq	$120, %rsp
	.cfi_remember_state
	.cfi_def_cfa_offset 56
	popq	%rbx
	.cfi_def_cfa_offset 48
	popq	%rbp
	.cfi_def_cfa_offset 40
	popq	%r12
	.cfi_def_cfa_offset 32
	popq	%r13
	.cfi_def_cfa_offset 24
	popq	%r14
	.cfi_def_cfa_offset 16
	popq	%r15
	.cfi_def_cfa_offset 8
	ret
.L370:
	.cfi_restore_state
	call	__stack_chk_fail@PLT
	.cfi_endproc
.LFE3507:
	.size	_ZNK8opendnp318BufferedCollectionINS_7IndexedINS_18AnalogOutputStatusEEEZNS_11RangeParser13InvokeRangeOfINS_11Group40Var3EEEvRKNS_12HeaderRecordERKNS_5RangeERKN7openpal6RSliceERNS_12IAPDUHandlerEEUlRSE_jE_E7ForeachERNS_8IVisitorIS3_EE, .-_ZNK8opendnp318BufferedCollectionINS_7IndexedINS_18AnalogOutputStatusEEEZNS_11RangeParser13InvokeRangeOfINS_11Group40Var3EEEvRKNS_12HeaderRecordERKNS_5RangeERKN7openpal6RSliceERNS_12IAPDUHandlerEEUlRSE_jE_E7ForeachERNS_8IVisitorIS3_EE
	.section	.text._ZNK8opendnp318BufferedCollectionINS_7IndexedINS_18AnalogOutputStatusEEEZNS_11RangeParser13InvokeRangeOfINS_11Group40Var4EEEvRKNS_12HeaderRecordERKNS_5RangeERKN7openpal6RSliceERNS_12IAPDUHandlerEEUlRSE_jE_E7ForeachERNS_8IVisitorIS3_EE,"axG",@progbits,_ZNK8opendnp318BufferedCollectionINS_7IndexedINS_18AnalogOutputStatusEEEZNS_11RangeParser13InvokeRangeOfINS_11Group40Var4EEEvRKNS_12HeaderRecordERKNS_5RangeERKN7openpal6RSliceERNS_12IAPDUHandlerEEUlRSE_jE_E7ForeachERNS_8IVisitorIS3_EE,comdat
	.align 2
	.p2align 4,,15
	.weak	_ZNK8opendnp318BufferedCollectionINS_7IndexedINS_18AnalogOutputStatusEEEZNS_11RangeParser13InvokeRangeOfINS_11Group40Var4EEEvRKNS_12HeaderRecordERKNS_5RangeERKN7openpal6RSliceERNS_12IAPDUHandlerEEUlRSE_jE_E7ForeachERNS_8IVisitorIS3_EE
	.type	_ZNK8opendnp318BufferedCollectionINS_7IndexedINS_18AnalogOutputStatusEEEZNS_11RangeParser13InvokeRangeOfINS_11Group40Var4EEEvRKNS_12HeaderRecordERKNS_5RangeERKN7openpal6RSliceERNS_12IAPDUHandlerEEUlRSE_jE_E7ForeachERNS_8IVisitorIS3_EE, @function
_ZNK8opendnp318BufferedCollectionINS_7IndexedINS_18AnalogOutputStatusEEEZNS_11RangeParser13InvokeRangeOfINS_11Group40Var4EEEvRKNS_12HeaderRecordERKNS_5RangeERKN7openpal6RSliceERNS_12IAPDUHandlerEEUlRSE_jE_E7ForeachERNS_8IVisitorIS3_EE:
.LFB3505:
	.cfi_startproc
	pushq	%r15
	.cfi_def_cfa_offset 16
	.cfi_offset 15, -16
	pushq	%r14
	.cfi_def_cfa_offset 24
	.cfi_offset 14, -24
	pushq	%r13
	.cfi_def_cfa_offset 32
	.cfi_offset 13, -32
	pushq	%r12
	.cfi_def_cfa_offset 40
	.cfi_offset 12, -40
	pushq	%rbp
	.cfi_def_cfa_offset 48
	.cfi_offset 6, -48
	pushq	%rbx
	.cfi_def_cfa_offset 56
	.cfi_offset 3, -56
	subq	$120, %rsp
	.cfi_def_cfa_offset 176
	movq	%fs:40, %rax
	movq	%rax, 104(%rsp)
	xorl	%eax, %eax
	cmpq	$0, 24(%rdi)
	movdqu	8(%rdi), %xmm0
	movaps	%xmm0, 16(%rsp)
	je	.L371
	leaq	64(%rsp), %rax
	leaq	32(%rsp), %r13
	leaq	16(%rsp), %r15
	movq	%rdi, %rbp
	movq	%rsi, %r12
	xorl	%ebx, %ebx
	movq	%rax, 8(%rsp)
	.p2align 4,,10
	.p2align 3
.L373:
	movq	(%r12), %rax
	movq	%r13, %rdi
	movq	(%rax), %r14
	call	_ZN8opendnp318AnalogOutputStatusC1Ev@PLT
	movq	%r13, %rsi
	movq	%r15, %rdi
	call	_ZN8opendnp311Group40Var410ReadTargetERN7openpal6RSliceERNS_18AnalogOutputStatusE@PLT
	movzwl	32(%rbp), %eax
	movq	48(%rsp), %rcx
	movq	%r12, %rdi
	movdqa	32(%rsp), %xmm0
	movq	8(%rsp), %rsi
	movaps	%xmm0, 64(%rsp)
	addl	%ebx, %eax
	movq	%rcx, 80(%rsp)
	movw	%ax, 88(%rsp)
	call	*%r14
	leal	1(%rbx), %eax
	cmpq	24(%rbp), %rax
	movq	%rax, %rbx
	jb	.L373
.L371:
	movq	104(%rsp), %rax
	xorq	%fs:40, %rax
	jne	.L377
	addq	$120, %rsp
	.cfi_remember_state
	.cfi_def_cfa_offset 56
	popq	%rbx
	.cfi_def_cfa_offset 48
	popq	%rbp
	.cfi_def_cfa_offset 40
	popq	%r12
	.cfi_def_cfa_offset 32
	popq	%r13
	.cfi_def_cfa_offset 24
	popq	%r14
	.cfi_def_cfa_offset 16
	popq	%r15
	.cfi_def_cfa_offset 8
	ret
.L377:
	.cfi_restore_state
	call	__stack_chk_fail@PLT
	.cfi_endproc
.LFE3505:
	.size	_ZNK8opendnp318BufferedCollectionINS_7IndexedINS_18AnalogOutputStatusEEEZNS_11RangeParser13InvokeRangeOfINS_11Group40Var4EEEvRKNS_12HeaderRecordERKNS_5RangeERKN7openpal6RSliceERNS_12IAPDUHandlerEEUlRSE_jE_E7ForeachERNS_8IVisitorIS3_EE, .-_ZNK8opendnp318BufferedCollectionINS_7IndexedINS_18AnalogOutputStatusEEEZNS_11RangeParser13InvokeRangeOfINS_11Group40Var4EEEvRKNS_12HeaderRecordERKNS_5RangeERKN7openpal6RSliceERNS_12IAPDUHandlerEEUlRSE_jE_E7ForeachERNS_8IVisitorIS3_EE
	.section	.text._ZN8opendnp311RangeParser13InvokeRangeOfINS_11Group50Var4EEEvRKNS_12HeaderRecordERKNS_5RangeERKN7openpal6RSliceERNS_12IAPDUHandlerE,"axG",@progbits,_ZN8opendnp311RangeParser13InvokeRangeOfINS_11Group50Var4EEEvRKNS_12HeaderRecordERKNS_5RangeERKN7openpal6RSliceERNS_12IAPDUHandlerE,comdat
	.align 2
	.p2align 4,,15
	.weak	_ZN8opendnp311RangeParser13InvokeRangeOfINS_11Group50Var4EEEvRKNS_12HeaderRecordERKNS_5RangeERKN7openpal6RSliceERNS_12IAPDUHandlerE
	.type	_ZN8opendnp311RangeParser13InvokeRangeOfINS_11Group50Var4EEEvRKNS_12HeaderRecordERKNS_5RangeERKN7openpal6RSliceERNS_12IAPDUHandlerE, @function
_ZN8opendnp311RangeParser13InvokeRangeOfINS_11Group50Var4EEEvRKNS_12HeaderRecordERKNS_5RangeERKN7openpal6RSliceERNS_12IAPDUHandlerE:
.LFB3029:
	.cfi_startproc
	subq	$88, %rsp
	.cfi_def_cfa_offset 96
	movzwl	(%rsi), %r9d
	movzwl	2(%rsi), %r8d
	movq	%fs:40, %rax
	movq	%rax, 72(%rsp)
	xorl	%eax, %eax
	cmpw	%r8w, %r9w
	ja	.L379
	movzwl	%r8w, %eax
	movzwl	%r9w, %r10d
	addl	$1, %eax
	subl	%r10d, %eax
.L379:
	movdqu	(%rdx), %xmm0
	leaq	32(%rsp), %rdx
	movq	_ZTVN8opendnp318BufferedCollectionINS_7IndexedINS_15TimeAndIntervalEEEZNS_11RangeParser13InvokeRangeOfINS_11Group50Var4EEEvRKNS_12HeaderRecordERKNS_5RangeERKN7openpal6RSliceERNS_12IAPDUHandlerEEUlRSE_jE_EE@GOTPCREL(%rip), %r10
	movq	%rax, 56(%rsp)
	movl	(%rsi), %eax
	movq	%rsp, %rsi
	movw	%r9w, 64(%rsp)
	movups	%xmm0, 40(%rsp)
	addq	$16, %r10
	movw	%r8w, 66(%rsp)
	movdqu	(%rdi), %xmm0
	movq	%rcx, %rdi
	movl	%eax, 16(%rsp)
	movq	%r10, 32(%rsp)
	movaps	%xmm0, (%rsp)
	call	_ZN8opendnp312IAPDUHandler8OnHeaderERKNS_11RangeHeaderERKNS_11ICollectionINS_7IndexedINS_15TimeAndIntervalEEEEE@PLT
	movq	72(%rsp), %rax
	xorq	%fs:40, %rax
	jne	.L383
	addq	$88, %rsp
	.cfi_remember_state
	.cfi_def_cfa_offset 8
	ret
.L383:
	.cfi_restore_state
	call	__stack_chk_fail@PLT
	.cfi_endproc
.LFE3029:
	.size	_ZN8opendnp311RangeParser13InvokeRangeOfINS_11Group50Var4EEEvRKNS_12HeaderRecordERKNS_5RangeERKN7openpal6RSliceERNS_12IAPDUHandlerE, .-_ZN8opendnp311RangeParser13InvokeRangeOfINS_11Group50Var4EEEvRKNS_12HeaderRecordERKNS_5RangeERKN7openpal6RSliceERNS_12IAPDUHandlerE
	.section	.text._ZNK8opendnp318BufferedCollectionINS_7IndexedINS_15TimeAndIntervalEEEZNS_11RangeParser13InvokeRangeOfINS_11Group50Var4EEEvRKNS_12HeaderRecordERKNS_5RangeERKN7openpal6RSliceERNS_12IAPDUHandlerEEUlRSE_jE_E7ForeachERNS_8IVisitorIS3_EE,"axG",@progbits,_ZNK8opendnp318BufferedCollectionINS_7IndexedINS_15TimeAndIntervalEEEZNS_11RangeParser13InvokeRangeOfINS_11Group50Var4EEEvRKNS_12HeaderRecordERKNS_5RangeERKN7openpal6RSliceERNS_12IAPDUHandlerEEUlRSE_jE_E7ForeachERNS_8IVisitorIS3_EE,comdat
	.align 2
	.p2align 4,,15
	.weak	_ZNK8opendnp318BufferedCollectionINS_7IndexedINS_15TimeAndIntervalEEEZNS_11RangeParser13InvokeRangeOfINS_11Group50Var4EEEvRKNS_12HeaderRecordERKNS_5RangeERKN7openpal6RSliceERNS_12IAPDUHandlerEEUlRSE_jE_E7ForeachERNS_8IVisitorIS3_EE
	.type	_ZNK8opendnp318BufferedCollectionINS_7IndexedINS_15TimeAndIntervalEEEZNS_11RangeParser13InvokeRangeOfINS_11Group50Var4EEEvRKNS_12HeaderRecordERKNS_5RangeERKN7openpal6RSliceERNS_12IAPDUHandlerEEUlRSE_jE_E7ForeachERNS_8IVisitorIS3_EE, @function
_ZNK8opendnp318BufferedCollectionINS_7IndexedINS_15TimeAndIntervalEEEZNS_11RangeParser13InvokeRangeOfINS_11Group50Var4EEEvRKNS_12HeaderRecordERKNS_5RangeERKN7openpal6RSliceERNS_12IAPDUHandlerEEUlRSE_jE_E7ForeachERNS_8IVisitorIS3_EE:
.LFB3503:
	.cfi_startproc
	pushq	%r15
	.cfi_def_cfa_offset 16
	.cfi_offset 15, -16
	pushq	%r14
	.cfi_def_cfa_offset 24
	.cfi_offset 14, -24
	pushq	%r13
	.cfi_def_cfa_offset 32
	.cfi_offset 13, -32
	pushq	%r12
	.cfi_def_cfa_offset 40
	.cfi_offset 12, -40
	pushq	%rbp
	.cfi_def_cfa_offset 48
	.cfi_offset 6, -48
	pushq	%rbx
	.cfi_def_cfa_offset 56
	.cfi_offset 3, -56
	subq	$88, %rsp
	.cfi_def_cfa_offset 144
	movq	%fs:40, %rax
	movq	%rax, 72(%rsp)
	xorl	%eax, %eax
	cmpq	$0, 24(%rdi)
	movdqu	8(%rdi), %xmm0
	movaps	%xmm0, 16(%rsp)
	je	.L384
	leaq	48(%rsp), %rax
	leaq	32(%rsp), %r13
	leaq	16(%rsp), %r15
	movq	%rdi, %rbp
	movq	%rsi, %r12
	xorl	%ebx, %ebx
	movq	%rax, 8(%rsp)
	.p2align 4,,10
	.p2align 3
.L386:
	movq	(%r12), %rax
	movq	%r13, %rdi
	movq	(%rax), %r14
	call	_ZN8opendnp315TimeAndIntervalC1Ev@PLT
	movq	%r13, %rsi
	movq	%r15, %rdi
	call	_ZN8opendnp311Group50Var410ReadTargetERN7openpal6RSliceERNS_15TimeAndIntervalE@PLT
	movzwl	32(%rbp), %eax
	movq	8(%rsp), %rsi
	movq	%r12, %rdi
	movdqa	32(%rsp), %xmm0
	movaps	%xmm0, 48(%rsp)
	addl	%ebx, %eax
	movw	%ax, 64(%rsp)
	call	*%r14
	leal	1(%rbx), %eax
	cmpq	24(%rbp), %rax
	movq	%rax, %rbx
	jb	.L386
.L384:
	movq	72(%rsp), %rax
	xorq	%fs:40, %rax
	jne	.L390
	addq	$88, %rsp
	.cfi_remember_state
	.cfi_def_cfa_offset 56
	popq	%rbx
	.cfi_def_cfa_offset 48
	popq	%rbp
	.cfi_def_cfa_offset 40
	popq	%r12
	.cfi_def_cfa_offset 32
	popq	%r13
	.cfi_def_cfa_offset 24
	popq	%r14
	.cfi_def_cfa_offset 16
	popq	%r15
	.cfi_def_cfa_offset 8
	ret
.L390:
	.cfi_restore_state
	call	__stack_chk_fail@PLT
	.cfi_endproc
.LFE3503:
	.size	_ZNK8opendnp318BufferedCollectionINS_7IndexedINS_15TimeAndIntervalEEEZNS_11RangeParser13InvokeRangeOfINS_11Group50Var4EEEvRKNS_12HeaderRecordERKNS_5RangeERKN7openpal6RSliceERNS_12IAPDUHandlerEEUlRSE_jE_E7ForeachERNS_8IVisitorIS3_EE, .-_ZNK8opendnp318BufferedCollectionINS_7IndexedINS_15TimeAndIntervalEEEZNS_11RangeParser13InvokeRangeOfINS_11Group50Var4EEEvRKNS_12HeaderRecordERKNS_5RangeERKN7openpal6RSliceERNS_12IAPDUHandlerEEUlRSE_jE_E7ForeachERNS_8IVisitorIS3_EE
	.section	.text._ZN8opendnp311RangeParser23InvokeRangeBitfieldTypeINS_8IINValueEEEvRKNS_12HeaderRecordERKNS_5RangeERKN7openpal6RSliceERNS_12IAPDUHandlerE,"axG",@progbits,_ZN8opendnp311RangeParser23InvokeRangeBitfieldTypeINS_8IINValueEEEvRKNS_12HeaderRecordERKNS_5RangeERKN7openpal6RSliceERNS_12IAPDUHandlerE,comdat
	.align 2
	.p2align 4,,15
	.weak	_ZN8opendnp311RangeParser23InvokeRangeBitfieldTypeINS_8IINValueEEEvRKNS_12HeaderRecordERKNS_5RangeERKN7openpal6RSliceERNS_12IAPDUHandlerE
	.type	_ZN8opendnp311RangeParser23InvokeRangeBitfieldTypeINS_8IINValueEEEvRKNS_12HeaderRecordERKNS_5RangeERKN7openpal6RSliceERNS_12IAPDUHandlerE, @function
_ZN8opendnp311RangeParser23InvokeRangeBitfieldTypeINS_8IINValueEEEvRKNS_12HeaderRecordERKNS_5RangeERKN7openpal6RSliceERNS_12IAPDUHandlerE:
.LFB3037:
	.cfi_startproc
	subq	$88, %rsp
	.cfi_def_cfa_offset 96
	movzwl	(%rsi), %r9d
	movzwl	2(%rsi), %r8d
	movq	%fs:40, %rax
	movq	%rax, 72(%rsp)
	xorl	%eax, %eax
	cmpw	%r8w, %r9w
	ja	.L392
	movzwl	%r8w, %eax
	movzwl	%r9w, %r10d
	addl	$1, %eax
	subl	%r10d, %eax
.L392:
	movdqu	(%rdx), %xmm0
	leaq	32(%rsp), %rdx
	movq	_ZTVN8opendnp318BufferedCollectionINS_7IndexedINS_8IINValueEEEZNS_11RangeParser23InvokeRangeBitfieldTypeIS2_EEvRKNS_12HeaderRecordERKNS_5RangeERKN7openpal6RSliceERNS_12IAPDUHandlerEEUlRSD_jE_EE@GOTPCREL(%rip), %r10
	movq	%rax, 56(%rsp)
	movl	(%rsi), %eax
	movq	%rsp, %rsi
	movw	%r9w, 64(%rsp)
	movups	%xmm0, 40(%rsp)
	addq	$16, %r10
	movw	%r8w, 66(%rsp)
	movdqu	(%rdi), %xmm0
	movq	%rcx, %rdi
	movl	%eax, 16(%rsp)
	movq	%r10, 32(%rsp)
	movaps	%xmm0, (%rsp)
	call	_ZN8opendnp312IAPDUHandler8OnHeaderERKNS_11RangeHeaderERKNS_11ICollectionINS_7IndexedINS_8IINValueEEEEE@PLT
	movq	72(%rsp), %rax
	xorq	%fs:40, %rax
	jne	.L396
	addq	$88, %rsp
	.cfi_remember_state
	.cfi_def_cfa_offset 8
	ret
.L396:
	.cfi_restore_state
	call	__stack_chk_fail@PLT
	.cfi_endproc
.LFE3037:
	.size	_ZN8opendnp311RangeParser23InvokeRangeBitfieldTypeINS_8IINValueEEEvRKNS_12HeaderRecordERKNS_5RangeERKN7openpal6RSliceERNS_12IAPDUHandlerE, .-_ZN8opendnp311RangeParser23InvokeRangeBitfieldTypeINS_8IINValueEEEvRKNS_12HeaderRecordERKNS_5RangeERKN7openpal6RSliceERNS_12IAPDUHandlerE
	.section	.text._ZN8opendnp311RangeParser17InvokeRangeOfTypeINS_12Group121Var1EEEvRKNS_12HeaderRecordERKNS_5RangeERKN7openpal6RSliceERNS_12IAPDUHandlerE,"axG",@progbits,_ZN8opendnp311RangeParser17InvokeRangeOfTypeINS_12Group121Var1EEEvRKNS_12HeaderRecordERKNS_5RangeERKN7openpal6RSliceERNS_12IAPDUHandlerE,comdat
	.align 2
	.p2align 4,,15
	.weak	_ZN8opendnp311RangeParser17InvokeRangeOfTypeINS_12Group121Var1EEEvRKNS_12HeaderRecordERKNS_5RangeERKN7openpal6RSliceERNS_12IAPDUHandlerE
	.type	_ZN8opendnp311RangeParser17InvokeRangeOfTypeINS_12Group121Var1EEEvRKNS_12HeaderRecordERKNS_5RangeERKN7openpal6RSliceERNS_12IAPDUHandlerE, @function
_ZN8opendnp311RangeParser17InvokeRangeOfTypeINS_12Group121Var1EEEvRKNS_12HeaderRecordERKNS_5RangeERKN7openpal6RSliceERNS_12IAPDUHandlerE:
.LFB3045:
	.cfi_startproc
	subq	$88, %rsp
	.cfi_def_cfa_offset 96
	movzwl	(%rsi), %r9d
	movzwl	2(%rsi), %r8d
	movq	%fs:40, %rax
	movq	%rax, 72(%rsp)
	xorl	%eax, %eax
	cmpw	%r8w, %r9w
	ja	.L398
	movzwl	%r8w, %eax
	movzwl	%r9w, %r10d
	addl	$1, %eax
	subl	%r10d, %eax
.L398:
	movdqu	(%rdx), %xmm0
	leaq	32(%rsp), %rdx
	movq	_ZTVN8opendnp318BufferedCollectionINS_7IndexedINS_12Group121Var1EEEZNS_11RangeParser17InvokeRangeOfTypeIS2_EEvRKNS_12HeaderRecordERKNS_5RangeERKN7openpal6RSliceERNS_12IAPDUHandlerEEUlRSD_jE_EE@GOTPCREL(%rip), %r10
	movq	%rax, 56(%rsp)
	movl	(%rsi), %eax
	movq	%rsp, %rsi
	movw	%r9w, 64(%rsp)
	movups	%xmm0, 40(%rsp)
	addq	$16, %r10
	movw	%r8w, 66(%rsp)
	movdqu	(%rdi), %xmm0
	movq	%rcx, %rdi
	movl	%eax, 16(%rsp)
	movq	%r10, 32(%rsp)
	movaps	%xmm0, (%rsp)
	call	_ZN8opendnp312IAPDUHandler8OnHeaderERKNS_11RangeHeaderERKNS_11ICollectionINS_7IndexedINS_12Group121Var1EEEEE@PLT
	movq	72(%rsp), %rax
	xorq	%fs:40, %rax
	jne	.L402
	addq	$88, %rsp
	.cfi_remember_state
	.cfi_def_cfa_offset 8
	ret
.L402:
	.cfi_restore_state
	call	__stack_chk_fail@PLT
	.cfi_endproc
.LFE3045:
	.size	_ZN8opendnp311RangeParser17InvokeRangeOfTypeINS_12Group121Var1EEEvRKNS_12HeaderRecordERKNS_5RangeERKN7openpal6RSliceERNS_12IAPDUHandlerE, .-_ZN8opendnp311RangeParser17InvokeRangeOfTypeINS_12Group121Var1EEEvRKNS_12HeaderRecordERKNS_5RangeERKN7openpal6RSliceERNS_12IAPDUHandlerE
	.section	.text._ZNK8opendnp318BufferedCollectionINS_7IndexedINS_12Group121Var1EEEZNS_11RangeParser17InvokeRangeOfTypeIS2_EEvRKNS_12HeaderRecordERKNS_5RangeERKN7openpal6RSliceERNS_12IAPDUHandlerEEUlRSD_jE_E7ForeachERNS_8IVisitorIS3_EE,"axG",@progbits,_ZNK8opendnp318BufferedCollectionINS_7IndexedINS_12Group121Var1EEEZNS_11RangeParser17InvokeRangeOfTypeIS2_EEvRKNS_12HeaderRecordERKNS_5RangeERKN7openpal6RSliceERNS_12IAPDUHandlerEEUlRSD_jE_E7ForeachERNS_8IVisitorIS3_EE,comdat
	.align 2
	.p2align 4,,15
	.weak	_ZNK8opendnp318BufferedCollectionINS_7IndexedINS_12Group121Var1EEEZNS_11RangeParser17InvokeRangeOfTypeIS2_EEvRKNS_12HeaderRecordERKNS_5RangeERKN7openpal6RSliceERNS_12IAPDUHandlerEEUlRSD_jE_E7ForeachERNS_8IVisitorIS3_EE
	.type	_ZNK8opendnp318BufferedCollectionINS_7IndexedINS_12Group121Var1EEEZNS_11RangeParser17InvokeRangeOfTypeIS2_EEvRKNS_12HeaderRecordERKNS_5RangeERKN7openpal6RSliceERNS_12IAPDUHandlerEEUlRSD_jE_E7ForeachERNS_8IVisitorIS3_EE, @function
_ZNK8opendnp318BufferedCollectionINS_7IndexedINS_12Group121Var1EEEZNS_11RangeParser17InvokeRangeOfTypeIS2_EEvRKNS_12HeaderRecordERKNS_5RangeERKN7openpal6RSliceERNS_12IAPDUHandlerEEUlRSD_jE_E7ForeachERNS_8IVisitorIS3_EE:
.LFB3499:
	.cfi_startproc
	pushq	%r15
	.cfi_def_cfa_offset 16
	.cfi_offset 15, -16
	pushq	%r14
	.cfi_def_cfa_offset 24
	.cfi_offset 14, -24
	pushq	%r13
	.cfi_def_cfa_offset 32
	.cfi_offset 13, -32
	pushq	%r12
	.cfi_def_cfa_offset 40
	.cfi_offset 12, -40
	pushq	%rbp
	.cfi_def_cfa_offset 48
	.cfi_offset 6, -48
	pushq	%rbx
	.cfi_def_cfa_offset 56
	.cfi_offset 3, -56
	subq	$56, %rsp
	.cfi_def_cfa_offset 112
	movq	%fs:40, %rax
	movq	%rax, 40(%rsp)
	xorl	%eax, %eax
	cmpq	$0, 24(%rdi)
	movdqu	8(%rdi), %xmm0
	movaps	%xmm0, 16(%rsp)
	je	.L403
	leaq	4(%rsp), %rbp
	leaq	16(%rsp), %r14
	movq	%rdi, %r12
	movq	%rsi, %r13
	xorl	%ebx, %ebx
	.p2align 4,,10
	.p2align 3
.L405:
	movq	0(%r13), %rax
	movq	%rbp, %rdi
	movq	(%rax), %r15
	call	_ZN8opendnp312Group121Var1C1Ev@PLT
	movq	%rbp, %rsi
	movq	%r14, %rdi
	call	_ZN8opendnp312Group121Var14ReadERN7openpal6RSliceERS0_@PLT
	movzwl	32(%r12), %eax
	movq	%rbp, %rsi
	movq	%r13, %rdi
	addl	%ebx, %eax
	movw	%ax, 12(%rsp)
	call	*%r15
	leal	1(%rbx), %eax
	cmpq	24(%r12), %rax
	movq	%rax, %rbx
	jb	.L405
.L403:
	movq	40(%rsp), %rax
	xorq	%fs:40, %rax
	jne	.L409
	addq	$56, %rsp
	.cfi_remember_state
	.cfi_def_cfa_offset 56
	popq	%rbx
	.cfi_def_cfa_offset 48
	popq	%rbp
	.cfi_def_cfa_offset 40
	popq	%r12
	.cfi_def_cfa_offset 32
	popq	%r13
	.cfi_def_cfa_offset 24
	popq	%r14
	.cfi_def_cfa_offset 16
	popq	%r15
	.cfi_def_cfa_offset 8
	ret
.L409:
	.cfi_restore_state
	call	__stack_chk_fail@PLT
	.cfi_endproc
.LFE3499:
	.size	_ZNK8opendnp318BufferedCollectionINS_7IndexedINS_12Group121Var1EEEZNS_11RangeParser17InvokeRangeOfTypeIS2_EEvRKNS_12HeaderRecordERKNS_5RangeERKN7openpal6RSliceERNS_12IAPDUHandlerEEUlRSD_jE_E7ForeachERNS_8IVisitorIS3_EE, .-_ZNK8opendnp318BufferedCollectionINS_7IndexedINS_12Group121Var1EEEZNS_11RangeParser17InvokeRangeOfTypeIS2_EEvRKNS_12HeaderRecordERKNS_5RangeERKN7openpal6RSliceERNS_12IAPDUHandlerEEUlRSD_jE_E7ForeachERNS_8IVisitorIS3_EE
	.section	.text._ZN7openpal12StaticBufferILj255EED0Ev,"axG",@progbits,_ZN7openpal12StaticBufferILj255EED5Ev,comdat
	.align 2
	.p2align 4,,15
	.weak	_ZN7openpal12StaticBufferILj255EED0Ev
	.type	_ZN7openpal12StaticBufferILj255EED0Ev, @function
_ZN7openpal12StaticBufferILj255EED0Ev:
.LFB2658:
	.cfi_startproc
	movl	$264, %esi
	jmp	_ZdlPvm@PLT
	.cfi_endproc
.LFE2658:
	.size	_ZN7openpal12StaticBufferILj255EED0Ev, .-_ZN7openpal12StaticBufferILj255EED0Ev
	.text
	.align 2
	.p2align 4,,15
	.type	_ZNK8opendnp318BufferedCollectionINS_7IndexedINS_11OctetStringEEEZNS_11RangeParser21ParseRangeOfOctetDataERN7openpal6RSliceERKNS_12HeaderRecordERKNS_5RangeEPNS5_6LoggerEPNS_12IAPDUHandlerEEUlS7_jE_E7ForeachERNS_8IVisitorIS3_EE, @function
_ZNK8opendnp318BufferedCollectionINS_7IndexedINS_11OctetStringEEEZNS_11RangeParser21ParseRangeOfOctetDataERN7openpal6RSliceERKNS_12HeaderRecordERKNS_5RangeEPNS5_6LoggerEPNS_12IAPDUHandlerEEUlS7_jE_E7ForeachERNS_8IVisitorIS3_EE:
.LFB3557:
	.cfi_startproc
	pushq	%r15
	.cfi_def_cfa_offset 16
	.cfi_offset 15, -16
	pushq	%r14
	.cfi_def_cfa_offset 24
	.cfi_offset 14, -24
	pushq	%r13
	.cfi_def_cfa_offset 32
	.cfi_offset 13, -32
	pushq	%r12
	.cfi_def_cfa_offset 40
	.cfi_offset 12, -40
	pushq	%rbp
	.cfi_def_cfa_offset 48
	.cfi_offset 6, -48
	pushq	%rbx
	.cfi_def_cfa_offset 56
	.cfi_offset 3, -56
	subq	$648, %rsp
	.cfi_def_cfa_offset 704
	movq	%fs:40, %rax
	movq	%rax, 632(%rsp)
	xorl	%eax, %eax
	cmpq	$0, 24(%rdi)
	movdqu	8(%rdi), %xmm0
	movaps	%xmm0, 48(%rsp)
	je	.L411
	leaq	64(%rsp), %rax
	leaq	48(%rsp), %r13
	movq	%rdi, %rbx
	movq	%rsi, %r12
	xorl	%ebp, %ebp
	movq	%rax, 40(%rsp)
	leaq	80(%rsp), %rax
	movq	%rax, 32(%rsp)
	leaq	360(%rsp), %rax
	movq	%rax, 8(%rsp)
	leaq	88(%rsp), %rax
	movq	%rax, 16(%rsp)
	leaq	352(%rsp), %rax
	movq	%rax, 24(%rsp)
	movq	_ZTVN7openpal12StaticBufferILj255EEE@GOTPCREL(%rip), %rax
	leaq	16(%rax), %r14
	.p2align 4,,10
	.p2align 3
.L413:
	movzbl	45(%rbx), %esi
	movq	(%r12), %rax
	movq	%r13, %rdi
	movq	(%rax), %r15
	call	_ZNK7openpal6RSlice4TakeEj@PLT
	movq	40(%rsp), %rsi
	movq	32(%rsp), %rdi
	movl	%eax, 64(%rsp)
	movq	%rdx, 72(%rsp)
	call	_ZN8opendnp39OctetDataC2ERKN7openpal6RSliceE@PLT
	movzbl	45(%rbx), %esi
	movq	%r13, %rdi
	call	_ZN7openpal6RSlice7AdvanceEj@PLT
	movq	8(%rsp), %rdi
	movq	16(%rsp), %rsi
	movl	$31, %ecx
	rep movsq
	movzwl	32(%rbx), %eax
	movq	%r14, 352(%rsp)
	addl	%ebp, %eax
	movl	(%rsi), %edx
	movl	%edx, (%rdi)
	movzwl	4(%rsi), %edx
	movw	%dx, 4(%rdi)
	movzbl	6(%rsi), %edx
	movq	24(%rsp), %rsi
	movb	%dl, 6(%rdi)
	movzbl	344(%rsp), %edx
	movq	%r12, %rdi
	movw	%ax, 624(%rsp)
	movb	%dl, 616(%rsp)
	call	*%r15
	leal	1(%rbp), %eax
	cmpq	24(%rbx), %rax
	movq	%rax, %rbp
	jb	.L413
.L411:
	movq	632(%rsp), %rax
	xorq	%fs:40, %rax
	jne	.L417
	addq	$648, %rsp
	.cfi_remember_state
	.cfi_def_cfa_offset 56
	popq	%rbx
	.cfi_def_cfa_offset 48
	popq	%rbp
	.cfi_def_cfa_offset 40
	popq	%r12
	.cfi_def_cfa_offset 32
	popq	%r13
	.cfi_def_cfa_offset 24
	popq	%r14
	.cfi_def_cfa_offset 16
	popq	%r15
	.cfi_def_cfa_offset 8
	ret
.L417:
	.cfi_restore_state
	call	__stack_chk_fail@PLT
	.cfi_endproc
.LFE3557:
	.size	_ZNK8opendnp318BufferedCollectionINS_7IndexedINS_11OctetStringEEEZNS_11RangeParser21ParseRangeOfOctetDataERN7openpal6RSliceERKNS_12HeaderRecordERKNS_5RangeEPNS5_6LoggerEPNS_12IAPDUHandlerEEUlS7_jE_E7ForeachERNS_8IVisitorIS3_EE, .-_ZNK8opendnp318BufferedCollectionINS_7IndexedINS_11OctetStringEEEZNS_11RangeParser21ParseRangeOfOctetDataERN7openpal6RSliceERKNS_12HeaderRecordERKNS_5RangeEPNS5_6LoggerEPNS_12IAPDUHandlerEEUlS7_jE_E7ForeachERNS_8IVisitorIS3_EE
	.align 2
	.p2align 4,,15
	.globl	_ZN8opendnp311RangeParserC2ERKNS_5RangeEjPFvRKNS_12HeaderRecordES3_RKN7openpal6RSliceERNS_12IAPDUHandlerEE
	.type	_ZN8opendnp311RangeParserC2ERKNS_5RangeEjPFvRKNS_12HeaderRecordES3_RKN7openpal6RSliceERNS_12IAPDUHandlerEE, @function
_ZN8opendnp311RangeParserC2ERKNS_5RangeEjPFvRKNS_12HeaderRecordES3_RKN7openpal6RSliceERNS_12IAPDUHandlerEE:
.LFB2357:
	.cfi_startproc
	movl	(%rsi), %eax
	movl	%edx, 4(%rdi)
	movq	%rcx, 8(%rdi)
	movl	%eax, (%rdi)
	ret
	.cfi_endproc
.LFE2357:
	.size	_ZN8opendnp311RangeParserC2ERKNS_5RangeEjPFvRKNS_12HeaderRecordES3_RKN7openpal6RSliceERNS_12IAPDUHandlerEE, .-_ZN8opendnp311RangeParserC2ERKNS_5RangeEjPFvRKNS_12HeaderRecordES3_RKN7openpal6RSliceERNS_12IAPDUHandlerEE
	.globl	_ZN8opendnp311RangeParserC1ERKNS_5RangeEjPFvRKNS_12HeaderRecordES3_RKN7openpal6RSliceERNS_12IAPDUHandlerEE
	.set	_ZN8opendnp311RangeParserC1ERKNS_5RangeEjPFvRKNS_12HeaderRecordES3_RKN7openpal6RSliceERNS_12IAPDUHandlerEE,_ZN8opendnp311RangeParserC2ERKNS_5RangeEjPFvRKNS_12HeaderRecordES3_RKN7openpal6RSliceERNS_12IAPDUHandlerEE
	.section	.rodata.str1.8,"aMS",@progbits,1
	.align 8
.LC0:
	.string	"Not enough data for specified objects"
	.align 8
.LC1:
	.string	"/home/raihan/OpenPLC_v3/utils/dnp3_src/cpp/libs/src/opendnp3/app/parsing/RangeParser.cpp(83)"
	.text
	.align 2
	.p2align 4,,15
	.globl	_ZNK8opendnp311RangeParser7ProcessERKNS_12HeaderRecordERN7openpal6RSliceEPNS_12IAPDUHandlerEPNS4_6LoggerE
	.type	_ZNK8opendnp311RangeParser7ProcessERKNS_12HeaderRecordERN7openpal6RSliceEPNS_12IAPDUHandlerEPNS4_6LoggerE, @function
_ZNK8opendnp311RangeParser7ProcessERKNS_12HeaderRecordERN7openpal6RSliceEPNS_12IAPDUHandlerEPNS4_6LoggerE:
.LFB2360:
	.cfi_startproc
	pushq	%rbp
	.cfi_def_cfa_offset 16
	.cfi_offset 6, -16
	pushq	%rbx
	.cfi_def_cfa_offset 24
	.cfi_offset 3, -24
	movq	%rdi, %rbx
	movq	%rsi, %rdi
	subq	$40, %rsp
	.cfi_def_cfa_offset 64
	movl	4(%rbx), %esi
	movq	%fs:40, %rax
	movq	%rax, 24(%rsp)
	xorl	%eax, %eax
	cmpl	(%rdx), %esi
	jbe	.L420
	testq	%r8, %r8
	je	.L421
	leaq	16(%rsp), %rsi
	movq	%r8, %rdi
	movq	%r8, 8(%rsp)
	movl	$4, 16(%rsp)
	call	_ZNK7openpal6Logger9IsEnabledERKNS_10LogFiltersE@PLT
	testb	%al, %al
	movq	8(%rsp), %r8
	jne	.L435
.L421:
	movl	$4, %eax
	jmp	.L419
	.p2align 4,,10
	.p2align 3
.L420:
	testq	%rcx, %rcx
	movq	%rdx, %rbp
	je	.L423
	movq	%rbx, %rsi
	call	*8(%rbx)
	movl	4(%rbx), %esi
.L423:
	movq	%rbp, %rdi
	call	_ZN7openpal6RSlice7AdvanceEj@PLT
	xorl	%eax, %eax
.L419:
	movq	24(%rsp), %rdx
	xorq	%fs:40, %rdx
	jne	.L436
	addq	$40, %rsp
	.cfi_remember_state
	.cfi_def_cfa_offset 24
	popq	%rbx
	.cfi_def_cfa_offset 16
	popq	%rbp
	.cfi_def_cfa_offset 8
	ret
	.p2align 4,,10
	.p2align 3
.L435:
	.cfi_restore_state
	leaq	20(%rsp), %rsi
	leaq	.LC0(%rip), %rcx
	leaq	.LC1(%rip), %rdx
	movq	%r8, %rdi
	movl	$4, 20(%rsp)
	call	_ZN7openpal6Logger3LogERKNS_10LogFiltersEPKcS5_@PLT
	movl	$4, %eax
	jmp	.L419
.L436:
	call	__stack_chk_fail@PLT
	.cfi_endproc
.LFE2360:
	.size	_ZNK8opendnp311RangeParser7ProcessERKNS_12HeaderRecordERN7openpal6RSliceEPNS_12IAPDUHandlerEPNS4_6LoggerE, .-_ZNK8opendnp311RangeParser7ProcessERKNS_12HeaderRecordERN7openpal6RSliceEPNS_12IAPDUHandlerEPNS4_6LoggerE
	.section	.rodata.str1.8
	.align 8
.LC2:
	.string	"Not enough data for specified octet objects"
	.align 8
.LC3:
	.string	"/home/raihan/OpenPLC_v3/utils/dnp3_src/cpp/libs/src/opendnp3/app/parsing/RangeParser.cpp(171)"
	.align 8
.LC4:
	.string	"Octet string variation 0 may only be used in requests"
	.align 8
.LC5:
	.string	"/home/raihan/OpenPLC_v3/utils/dnp3_src/cpp/libs/src/opendnp3/app/parsing/RangeParser.cpp(196)"
	.text
	.align 2
	.p2align 4,,15
	.globl	_ZN8opendnp311RangeParser21ParseRangeOfOctetDataERN7openpal6RSliceERKNS_12HeaderRecordERKNS_5RangeEPNS1_6LoggerEPNS_12IAPDUHandlerE
	.type	_ZN8opendnp311RangeParser21ParseRangeOfOctetDataERN7openpal6RSliceERKNS_12HeaderRecordERKNS_5RangeEPNS1_6LoggerEPNS_12IAPDUHandlerE, @function
_ZN8opendnp311RangeParser21ParseRangeOfOctetDataERN7openpal6RSliceERKNS_12HeaderRecordERKNS_5RangeEPNS1_6LoggerEPNS_12IAPDUHandlerE:
.LFB2362:
	.cfi_startproc
	pushq	%r14
	.cfi_def_cfa_offset 16
	.cfi_offset 14, -16
	pushq	%r12
	.cfi_def_cfa_offset 24
	.cfi_offset 12, -24
	pushq	%rbp
	.cfi_def_cfa_offset 32
	.cfi_offset 6, -32
	pushq	%rbx
	.cfi_def_cfa_offset 40
	.cfi_offset 3, -40
	movq	%rcx, %rbx
	subq	$104, %rsp
	.cfi_def_cfa_offset 144
	movq	%fs:40, %rax
	movq	%rax, 88(%rsp)
	xorl	%eax, %eax
	movzbl	9(%rsi), %eax
	testb	%al, %al
	je	.L438
	movzwl	(%rdx), %r10d
	movzwl	2(%rdx), %r9d
	movq	%rdi, %rbp
	cmpw	%r9w, %r10w
	ja	.L446
	movzwl	%r9w, %ecx
	movzwl	%r10w, %edi
	movzbl	%al, %r12d
	addl	$1, %ecx
	subl	%edi, %ecx
	imull	%ecx, %r12d
	cmpl	0(%rbp), %r12d
	jbe	.L439
	testq	%rbx, %rbx
	je	.L440
	leaq	32(%rsp), %rbp
	movq	%rbx, %rdi
	movl	$4, 32(%rsp)
	movq	%rbp, %rsi
	call	_ZNK7openpal6Logger9IsEnabledERKNS_10LogFiltersE@PLT
	testb	%al, %al
	jne	.L461
.L440:
	movl	$4, %eax
	jmp	.L437
	.p2align 4,,10
	.p2align 3
.L438:
	testq	%rcx, %rcx
	je	.L460
	leaq	32(%rsp), %rbp
	movq	%rcx, %rdi
	movl	$4, 32(%rsp)
	movq	%rbp, %rsi
	call	_ZNK7openpal6Logger9IsEnabledERKNS_10LogFiltersE@PLT
	testb	%al, %al
	jne	.L462
.L460:
	movl	$9, %eax
.L437:
	movq	88(%rsp), %rbx
	xorq	%fs:40, %rbx
	jne	.L463
	addq	$104, %rsp
	.cfi_remember_state
	.cfi_def_cfa_offset 40
	popq	%rbx
	.cfi_def_cfa_offset 32
	popq	%rbp
	.cfi_def_cfa_offset 24
	popq	%r12
	.cfi_def_cfa_offset 16
	popq	%r14
	.cfi_def_cfa_offset 8
	ret
	.p2align 4,,10
	.p2align 3
.L446:
	.cfi_restore_state
	xorl	%ecx, %ecx
	xorl	%r12d, %r12d
.L439:
	testq	%r8, %r8
	je	.L442
	movq	%rcx, 56(%rsp)
	movzwl	(%rsi), %ecx
	leaq	16+_ZTVN8opendnp318BufferedCollectionINS_7IndexedINS_11OctetStringEEEZNS_11RangeParser21ParseRangeOfOctetDataERN7openpal6RSliceERKNS_12HeaderRecordERKNS_5RangeEPNS5_6LoggerEPNS_12IAPDUHandlerEEUlS7_jE_EE(%rip), %r14
	movl	12(%rsi), %edi
	movzbl	8(%rsi), %ebx
	movzbl	10(%rsi), %r11d
	movb	%al, 77(%rsp)
	movdqu	0(%rbp), %xmm0
	movl	(%rdx), %eax
	movw	%cx, 68(%rsp)
	leaq	32(%rsp), %rdx
	movl	4(%rsi), %ecx
	movl	%edi, 80(%rsp)
	movq	%r8, %rdi
	movups	%xmm0, 40(%rsp)
	movq	%r14, 32(%rsp)
	movw	%r10w, 64(%rsp)
	movdqu	(%rsi), %xmm0
	movq	%rsp, %rsi
	movw	%r9w, 66(%rsp)
	movl	%ecx, 72(%rsp)
	movb	%bl, 76(%rsp)
	movb	%r11b, 78(%rsp)
	movaps	%xmm0, (%rsp)
	movl	%eax, 16(%rsp)
	call	_ZN8opendnp312IAPDUHandler8OnHeaderERKNS_11RangeHeaderERKNS_11ICollectionINS_7IndexedINS_11OctetStringEEEEE@PLT
.L442:
	movl	%r12d, %esi
	movq	%rbp, %rdi
	call	_ZN7openpal6RSlice7AdvanceEj@PLT
	xorl	%eax, %eax
	jmp	.L437
	.p2align 4,,10
	.p2align 3
.L462:
	leaq	.LC4(%rip), %rcx
	leaq	.LC5(%rip), %rdx
	movq	%rbp, %rsi
	movq	%rbx, %rdi
	movl	$4, 32(%rsp)
	call	_ZN7openpal6Logger3LogERKNS_10LogFiltersEPKcS5_@PLT
	jmp	.L460
	.p2align 4,,10
	.p2align 3
.L461:
	leaq	.LC2(%rip), %rcx
	leaq	.LC3(%rip), %rdx
	movq	%rbp, %rsi
	movq	%rbx, %rdi
	movl	$4, 32(%rsp)
	call	_ZN7openpal6Logger3LogERKNS_10LogFiltersEPKcS5_@PLT
	movl	$4, %eax
	jmp	.L437
.L463:
	call	__stack_chk_fail@PLT
	.cfi_endproc
.LFE2362:
	.size	_ZN8opendnp311RangeParser21ParseRangeOfOctetDataERN7openpal6RSliceERKNS_12HeaderRecordERKNS_5RangeEPNS1_6LoggerEPNS_12IAPDUHandlerE, .-_ZN8opendnp311RangeParser21ParseRangeOfOctetDataERN7openpal6RSliceERKNS_12HeaderRecordERKNS_5RangeEPNS1_6LoggerEPNS_12IAPDUHandlerE
	.section	.rodata.str1.8
	.align 8
.LC6:
	.string	"Unsupported qualifier/object - %s - %i / %i"
	.align 8
.LC7:
	.string	"/home/raihan/OpenPLC_v3/utils/dnp3_src/cpp/libs/src/opendnp3/app/parsing/RangeParser.cpp(157)"
	.text
	.align 2
	.p2align 4,,15
	.globl	_ZN8opendnp311RangeParser19ParseRangeOfObjectsERN7openpal6RSliceERKNS_12HeaderRecordERKNS_5RangeEPNS1_6LoggerEPNS_12IAPDUHandlerE
	.type	_ZN8opendnp311RangeParser19ParseRangeOfObjectsERN7openpal6RSliceERKNS_12HeaderRecordERKNS_5RangeEPNS1_6LoggerEPNS_12IAPDUHandlerE, @function
_ZN8opendnp311RangeParser19ParseRangeOfObjectsERN7openpal6RSliceERKNS_12HeaderRecordERKNS_5RangeEPNS1_6LoggerEPNS_12IAPDUHandlerE:
.LFB2361:
	.cfi_startproc
	pushq	%r14
	.cfi_def_cfa_offset 16
	.cfi_offset 14, -16
	pushq	%r13
	.cfi_def_cfa_offset 24
	.cfi_offset 13, -24
	movq	%r8, %r13
	pushq	%r12
	.cfi_def_cfa_offset 32
	.cfi_offset 12, -32
	pushq	%rbp
	.cfi_def_cfa_offset 40
	.cfi_offset 6, -40
	movq	%rdi, %r12
	pushq	%rbx
	.cfi_def_cfa_offset 48
	.cfi_offset 3, -48
	movq	%rsi, %rbx
	movq	%rcx, %rbp
	movq	%rdx, %rsi
	subq	$160, %rsp
	.cfi_def_cfa_offset 208
	movq	%fs:40, %rax
	movq	%rax, 152(%rsp)
	xorl	%eax, %eax
	movzwl	(%rbx), %eax
	cmpw	$5385, %ax
	je	.L466
	jbe	.L572
	cmpw	$10241, %ax
	je	.L485
	ja	.L486
	cmpw	$7683, %ax
	je	.L487
	jbe	.L573
	cmpw	$7685, %ax
	je	.L492
	jb	.L493
	cmpw	$7686, %ax
	jne	.L465
	movzwl	(%rdx), %ecx
	movzwl	2(%rdx), %eax
	xorl	%edx, %edx
	cmpw	%ax, %cx
	ja	.L525
	addl	$1, %eax
	subl	%ecx, %eax
	leal	(%rax,%rax,8), %edx
.L525:
	leaq	16(%rsp), %r14
	movq	_ZN8opendnp311RangeParser13InvokeRangeOfINS_11Group30Var6EEEvRKNS_12HeaderRecordERKNS_5RangeERKN7openpal6RSliceERNS_12IAPDUHandlerE@GOTPCREL(%rip), %rcx
	jmp	.L571
	.p2align 4,,10
	.p2align 3
.L572:
	cmpw	$5121, %ax
	je	.L468
	jbe	.L574
	cmpw	$5377, %ax
	je	.L477
	jbe	.L575
	cmpw	$5381, %ax
	je	.L482
	cmpw	$5382, %ax
	je	.L483
	cmpw	$5378, %ax
	je	.L576
.L465:
	testq	%rbp, %rbp
	je	.L533
	leaq	16(%rsp), %r12
	movq	%rbp, %rdi
	movl	$4, 16(%rsp)
	movq	%r12, %rsi
	call	_ZNK7openpal6Logger9IsEnabledERKNS_10LogFiltersE@PLT
	testb	%al, %al
	jne	.L577
.L533:
	movl	$8, %eax
	jmp	.L464
	.p2align 4,,10
	.p2align 3
.L486:
	cmpw	$12804, %ax
	je	.L495
	jbe	.L578
	cmpw	$28160, %ax
	je	.L500
	cmpw	$30977, %ax
	je	.L501
	cmpw	$20481, %ax
	jne	.L465
	movzwl	(%rdx), %eax
	movzwl	2(%rdx), %edx
	xorl	%edi, %edi
	cmpw	%dx, %ax
	ja	.L531
	movzwl	%dx, %edi
	addl	$1, %edi
	subl	%eax, %edi
.L531:
	movq	%rsi, 8(%rsp)
	leaq	16(%rsp), %r14
	call	_ZN8opendnp314NumBytesInBitsEj@PLT
	movq	_ZN8opendnp311RangeParser23InvokeRangeBitfieldTypeINS_8IINValueEEEvRKNS_12HeaderRecordERKNS_5RangeERKN7openpal6RSliceERNS_12IAPDUHandlerE@GOTPCREL(%rip), %rcx
	movl	%eax, %edx
	movq	8(%rsp), %rsi
	jmp	.L571
	.p2align 4,,10
	.p2align 3
.L574:
	cmpw	$769, %ax
	je	.L470
	jbe	.L579
	cmpw	$2561, %ax
	je	.L474
	cmpw	$2562, %ax
	je	.L475
	cmpw	$770, %ax
	jne	.L465
	movzwl	(%rdx), %eax
	movzwl	2(%rdx), %ecx
	xorl	%edx, %edx
	cmpw	%cx, %ax
	ja	.L508
	movzwl	%cx, %edx
	addl	$1, %edx
	subl	%eax, %edx
.L508:
	leaq	16(%rsp), %r14
	movq	_ZN8opendnp311RangeParser13InvokeRangeOfINS_10Group3Var2EEEvRKNS_12HeaderRecordERKNS_5RangeERKN7openpal6RSliceERNS_12IAPDUHandlerE@GOTPCREL(%rip), %rcx
	jmp	.L571
	.p2align 4,,10
	.p2align 3
.L578:
	cmpw	$10243, %ax
	je	.L497
	jb	.L498
	cmpw	$10244, %ax
	jne	.L465
	movzwl	(%rdx), %ecx
	movzwl	2(%rdx), %eax
	xorl	%edx, %edx
	cmpw	%ax, %cx
	ja	.L529
	addl	$1, %eax
	subl	%ecx, %eax
	leal	(%rax,%rax,8), %edx
.L529:
	leaq	16(%rsp), %r14
	movq	_ZN8opendnp311RangeParser13InvokeRangeOfINS_11Group40Var4EEEvRKNS_12HeaderRecordERKNS_5RangeERKN7openpal6RSliceERNS_12IAPDUHandlerE@GOTPCREL(%rip), %rcx
	jmp	.L571
	.p2align 4,,10
	.p2align 3
.L575:
	cmpw	$5125, %ax
	je	.L479
	cmpw	$5126, %ax
	je	.L480
	cmpw	$5122, %ax
	jne	.L465
	movzwl	(%rdx), %ecx
	movzwl	2(%rdx), %eax
	xorl	%edx, %edx
	cmpw	%ax, %cx
	ja	.L511
	addl	$1, %eax
	subl	%ecx, %eax
	leal	(%rax,%rax,2), %edx
.L511:
	leaq	16(%rsp), %r14
	movq	_ZN8opendnp311RangeParser13InvokeRangeOfINS_11Group20Var2EEEvRKNS_12HeaderRecordERKNS_5RangeERKN7openpal6RSliceERNS_12IAPDUHandlerE@GOTPCREL(%rip), %rcx
	jmp	.L571
	.p2align 4,,10
	.p2align 3
.L573:
	cmpw	$7681, %ax
	je	.L489
	ja	.L490
	cmpw	$5386, %ax
	jne	.L465
	movzwl	(%rdx), %ecx
	movzwl	2(%rdx), %eax
	xorl	%edx, %edx
	cmpw	%ax, %cx
	ja	.L519
	subl	%ecx, %eax
	leal	2(%rax,%rax), %edx
.L519:
	leaq	16(%rsp), %r14
	movq	_ZN8opendnp311RangeParser13InvokeRangeOfINS_12Group21Var10EEEvRKNS_12HeaderRecordERKNS_5RangeERKN7openpal6RSliceERNS_12IAPDUHandlerE@GOTPCREL(%rip), %rcx
	jmp	.L571
	.p2align 4,,10
	.p2align 3
.L579:
	cmpw	$257, %ax
	je	.L472
	cmpw	$258, %ax
	jne	.L465
	movzwl	(%rdx), %eax
	movzwl	2(%rdx), %ecx
	xorl	%edx, %edx
	cmpw	%cx, %ax
	ja	.L505
	movzwl	%cx, %edx
	addl	$1, %edx
	subl	%eax, %edx
.L505:
	movq	_ZN8opendnp311RangeParser13InvokeRangeOfINS_10Group1Var2EEEvRKNS_12HeaderRecordERKNS_5RangeERKN7openpal6RSliceERNS_12IAPDUHandlerE@GOTPCREL(%rip), %rcx
	leaq	16(%rsp), %r14
	.p2align 4,,10
	.p2align 3
.L571:
	movq	%r14, %rdi
	call	_ZN8opendnp311RangeParserC1ERKNS_5RangeEjPFvRKNS_12HeaderRecordES3_RKN7openpal6RSliceERNS_12IAPDUHandlerEE@PLT
	movq	%rbp, %r8
	movq	%r13, %rcx
	movq	%r12, %rdx
	movq	%rbx, %rsi
	movq	%r14, %rdi
	call	_ZNK8opendnp311RangeParser7ProcessERKNS_12HeaderRecordERN7openpal6RSliceEPNS_12IAPDUHandlerEPNS4_6LoggerE@PLT
.L464:
	movq	152(%rsp), %rbx
	xorq	%fs:40, %rbx
	jne	.L580
	addq	$160, %rsp
	.cfi_remember_state
	.cfi_def_cfa_offset 48
	popq	%rbx
	.cfi_def_cfa_offset 40
	popq	%rbp
	.cfi_def_cfa_offset 32
	popq	%r12
	.cfi_def_cfa_offset 24
	popq	%r13
	.cfi_def_cfa_offset 16
	popq	%r14
	.cfi_def_cfa_offset 8
	ret
	.p2align 4,,10
	.p2align 3
.L498:
	.cfi_restore_state
	movzwl	(%rdx), %ecx
	movzwl	2(%rdx), %eax
	xorl	%edx, %edx
	cmpw	%ax, %cx
	ja	.L527
	addl	$1, %eax
	subl	%ecx, %eax
	leal	(%rax,%rax,2), %edx
.L527:
	leaq	16(%rsp), %r14
	movq	_ZN8opendnp311RangeParser13InvokeRangeOfINS_11Group40Var2EEEvRKNS_12HeaderRecordERKNS_5RangeERKN7openpal6RSliceERNS_12IAPDUHandlerE@GOTPCREL(%rip), %rcx
	jmp	.L571
	.p2align 4,,10
	.p2align 3
.L483:
	movzwl	(%rdx), %ecx
	movzwl	2(%rdx), %eax
	xorl	%edx, %edx
	cmpw	%ax, %cx
	ja	.L517
	addl	$1, %eax
	subl	%ecx, %eax
	leal	(%rax,%rax,8), %edx
.L517:
	leaq	16(%rsp), %r14
	movq	_ZN8opendnp311RangeParser13InvokeRangeOfINS_11Group21Var6EEEvRKNS_12HeaderRecordERKNS_5RangeERKN7openpal6RSliceERNS_12IAPDUHandlerE@GOTPCREL(%rip), %rcx
	jmp	.L571
	.p2align 4,,10
	.p2align 3
.L490:
	movzwl	(%rdx), %ecx
	movzwl	2(%rdx), %eax
	xorl	%edx, %edx
	cmpw	%ax, %cx
	ja	.L521
	addl	$1, %eax
	subl	%ecx, %eax
	leal	(%rax,%rax,2), %edx
.L521:
	leaq	16(%rsp), %r14
	movq	_ZN8opendnp311RangeParser13InvokeRangeOfINS_11Group30Var2EEEvRKNS_12HeaderRecordERKNS_5RangeERKN7openpal6RSliceERNS_12IAPDUHandlerE@GOTPCREL(%rip), %rcx
	jmp	.L571
	.p2align 4,,10
	.p2align 3
.L472:
	movzwl	(%rdx), %eax
	movzwl	2(%rdx), %edx
	xorl	%edi, %edi
	cmpw	%dx, %ax
	ja	.L503
	movzwl	%dx, %edi
	addl	$1, %edi
	subl	%eax, %edi
.L503:
	movq	%rsi, 8(%rsp)
	leaq	16(%rsp), %r14
	call	_ZN8opendnp314NumBytesInBitsEj@PLT
	movq	_ZN8opendnp311RangeParser23InvokeRangeBitfieldTypeINS_6BinaryEEEvRKNS_12HeaderRecordERKNS_5RangeERKN7openpal6RSliceERNS_12IAPDUHandlerE@GOTPCREL(%rip), %rcx
	movl	%eax, %edx
	movq	8(%rsp), %rsi
	jmp	.L571
	.p2align 4,,10
	.p2align 3
.L493:
	movzwl	(%rdx), %ecx
	movzwl	2(%rdx), %eax
	xorl	%edx, %edx
	cmpw	%ax, %cx
	ja	.L523
	subl	%ecx, %eax
	leal	2(%rax,%rax), %edx
.L523:
	leaq	16(%rsp), %r14
	movq	_ZN8opendnp311RangeParser13InvokeRangeOfINS_11Group30Var4EEEvRKNS_12HeaderRecordERKNS_5RangeERKN7openpal6RSliceERNS_12IAPDUHandlerE@GOTPCREL(%rip), %rcx
	jmp	.L571
	.p2align 4,,10
	.p2align 3
.L470:
	movzwl	(%rdx), %eax
	movzwl	2(%rdx), %edx
	xorl	%edi, %edi
	cmpw	%dx, %ax
	ja	.L506
	movzwl	%dx, %edi
	addl	$1, %edi
	subl	%eax, %edi
.L506:
	movq	%rsi, 8(%rsp)
	leaq	16(%rsp), %r14
	call	_ZN8opendnp320NumBytesInDoubleBitsEj@PLT
	movq	_ZN8opendnp311RangeParser29InvokeRangeDoubleBitfieldTypeINS_15DoubleBitBinaryEEEvRKNS_12HeaderRecordERKNS_5RangeERKN7openpal6RSliceERNS_12IAPDUHandlerE@GOTPCREL(%rip), %rcx
	movl	%eax, %edx
	movq	8(%rsp), %rsi
	jmp	.L571
	.p2align 4,,10
	.p2align 3
.L501:
	movzwl	(%rdx), %ecx
	movzwl	2(%rdx), %eax
	xorl	%edx, %edx
	cmpw	%ax, %cx
	ja	.L532
	addl	$1, %eax
	subl	%ecx, %eax
	leal	0(,%rax,8), %edx
	subl	%eax, %edx
.L532:
	leaq	16(%rsp), %r14
	movq	_ZN8opendnp311RangeParser17InvokeRangeOfTypeINS_12Group121Var1EEEvRKNS_12HeaderRecordERKNS_5RangeERKN7openpal6RSliceERNS_12IAPDUHandlerE@GOTPCREL(%rip), %rcx
	jmp	.L571
	.p2align 4,,10
	.p2align 3
.L480:
	movzwl	(%rdx), %ecx
	movzwl	2(%rdx), %eax
	xorl	%edx, %edx
	cmpw	%ax, %cx
	ja	.L513
	subl	%ecx, %eax
	leal	2(%rax,%rax), %edx
.L513:
	leaq	16(%rsp), %r14
	movq	_ZN8opendnp311RangeParser13InvokeRangeOfINS_11Group20Var6EEEvRKNS_12HeaderRecordERKNS_5RangeERKN7openpal6RSliceERNS_12IAPDUHandlerE@GOTPCREL(%rip), %rcx
	jmp	.L571
	.p2align 4,,10
	.p2align 3
.L475:
	movzwl	(%rdx), %eax
	movzwl	2(%rdx), %ecx
	xorl	%edx, %edx
	cmpw	%cx, %ax
	ja	.L509
	movzwl	%cx, %edx
	addl	$1, %edx
	subl	%eax, %edx
.L509:
	leaq	16(%rsp), %r14
	movq	_ZN8opendnp311RangeParser13InvokeRangeOfINS_11Group10Var2EEEvRKNS_12HeaderRecordERKNS_5RangeERKN7openpal6RSliceERNS_12IAPDUHandlerE@GOTPCREL(%rip), %rcx
	jmp	.L571
	.p2align 4,,10
	.p2align 3
.L479:
	movzwl	(%rdx), %ecx
	movzwl	2(%rdx), %eax
	xorl	%edx, %edx
	cmpw	%ax, %cx
	ja	.L512
	subl	%ecx, %eax
	leal	4(,%rax,4), %edx
.L512:
	leaq	16(%rsp), %r14
	movq	_ZN8opendnp311RangeParser13InvokeRangeOfINS_11Group20Var5EEEvRKNS_12HeaderRecordERKNS_5RangeERKN7openpal6RSliceERNS_12IAPDUHandlerE@GOTPCREL(%rip), %rcx
	jmp	.L571
	.p2align 4,,10
	.p2align 3
.L474:
	movzwl	(%rdx), %eax
	movzwl	2(%rdx), %edx
	xorl	%edi, %edi
	cmpw	%dx, %ax
	ja	.L507
	movzwl	%dx, %edi
	addl	$1, %edi
	subl	%eax, %edi
.L507:
	movq	%rsi, 8(%rsp)
	leaq	16(%rsp), %r14
	call	_ZN8opendnp314NumBytesInBitsEj@PLT
	movq	_ZN8opendnp311RangeParser23InvokeRangeBitfieldTypeINS_18BinaryOutputStatusEEEvRKNS_12HeaderRecordERKNS_5RangeERKN7openpal6RSliceERNS_12IAPDUHandlerE@GOTPCREL(%rip), %rcx
	movl	%eax, %edx
	movq	8(%rsp), %rsi
	jmp	.L571
	.p2align 4,,10
	.p2align 3
.L466:
	movzwl	(%rdx), %ecx
	movzwl	2(%rdx), %eax
	xorl	%edx, %edx
	cmpw	%ax, %cx
	ja	.L518
	subl	%ecx, %eax
	leal	4(,%rax,4), %edx
.L518:
	leaq	16(%rsp), %r14
	movq	_ZN8opendnp311RangeParser13InvokeRangeOfINS_11Group21Var9EEEvRKNS_12HeaderRecordERKNS_5RangeERKN7openpal6RSliceERNS_12IAPDUHandlerE@GOTPCREL(%rip), %rcx
	jmp	.L571
	.p2align 4,,10
	.p2align 3
.L485:
	movzwl	(%rdx), %ecx
	movzwl	2(%rdx), %eax
	xorl	%edx, %edx
	cmpw	%ax, %cx
	ja	.L526
	addl	$1, %eax
	subl	%ecx, %eax
	leal	(%rax,%rax,4), %edx
.L526:
	leaq	16(%rsp), %r14
	movq	_ZN8opendnp311RangeParser13InvokeRangeOfINS_11Group40Var1EEEvRKNS_12HeaderRecordERKNS_5RangeERKN7openpal6RSliceERNS_12IAPDUHandlerE@GOTPCREL(%rip), %rcx
	jmp	.L571
	.p2align 4,,10
	.p2align 3
.L487:
	movzwl	(%rdx), %ecx
	movzwl	2(%rdx), %eax
	xorl	%edx, %edx
	cmpw	%ax, %cx
	ja	.L522
	subl	%ecx, %eax
	leal	4(,%rax,4), %edx
.L522:
	leaq	16(%rsp), %r14
	movq	_ZN8opendnp311RangeParser13InvokeRangeOfINS_11Group30Var3EEEvRKNS_12HeaderRecordERKNS_5RangeERKN7openpal6RSliceERNS_12IAPDUHandlerE@GOTPCREL(%rip), %rcx
	jmp	.L571
	.p2align 4,,10
	.p2align 3
.L468:
	movzwl	(%rdx), %ecx
	movzwl	2(%rdx), %eax
	xorl	%edx, %edx
	cmpw	%ax, %cx
	ja	.L510
	addl	$1, %eax
	subl	%ecx, %eax
	leal	(%rax,%rax,4), %edx
.L510:
	leaq	16(%rsp), %r14
	movq	_ZN8opendnp311RangeParser13InvokeRangeOfINS_11Group20Var1EEEvRKNS_12HeaderRecordERKNS_5RangeERKN7openpal6RSliceERNS_12IAPDUHandlerE@GOTPCREL(%rip), %rcx
	jmp	.L571
	.p2align 4,,10
	.p2align 3
.L477:
	movzwl	(%rdx), %ecx
	movzwl	2(%rdx), %eax
	xorl	%edx, %edx
	cmpw	%ax, %cx
	ja	.L514
	addl	$1, %eax
	subl	%ecx, %eax
	leal	(%rax,%rax,4), %edx
.L514:
	leaq	16(%rsp), %r14
	movq	_ZN8opendnp311RangeParser13InvokeRangeOfINS_11Group21Var1EEEvRKNS_12HeaderRecordERKNS_5RangeERKN7openpal6RSliceERNS_12IAPDUHandlerE@GOTPCREL(%rip), %rcx
	jmp	.L571
	.p2align 4,,10
	.p2align 3
.L495:
	movzwl	(%rdx), %ecx
	movzwl	2(%rdx), %eax
	xorl	%edx, %edx
	cmpw	%ax, %cx
	ja	.L530
	addl	$1, %eax
	subl	%ecx, %eax
	leal	(%rax,%rax,4), %edx
	leal	(%rax,%rdx,2), %edx
.L530:
	leaq	16(%rsp), %r14
	movq	_ZN8opendnp311RangeParser13InvokeRangeOfINS_11Group50Var4EEEvRKNS_12HeaderRecordERKNS_5RangeERKN7openpal6RSliceERNS_12IAPDUHandlerE@GOTPCREL(%rip), %rcx
	jmp	.L571
	.p2align 4,,10
	.p2align 3
.L489:
	movzwl	(%rdx), %ecx
	movzwl	2(%rdx), %eax
	xorl	%edx, %edx
	cmpw	%ax, %cx
	ja	.L520
	addl	$1, %eax
	subl	%ecx, %eax
	leal	(%rax,%rax,4), %edx
.L520:
	leaq	16(%rsp), %r14
	movq	_ZN8opendnp311RangeParser13InvokeRangeOfINS_11Group30Var1EEEvRKNS_12HeaderRecordERKNS_5RangeERKN7openpal6RSliceERNS_12IAPDUHandlerE@GOTPCREL(%rip), %rcx
	jmp	.L571
	.p2align 4,,10
	.p2align 3
.L492:
	movzwl	(%rdx), %ecx
	movzwl	2(%rdx), %eax
	xorl	%edx, %edx
	cmpw	%ax, %cx
	ja	.L524
	addl	$1, %eax
	subl	%ecx, %eax
	leal	(%rax,%rax,4), %edx
.L524:
	leaq	16(%rsp), %r14
	movq	_ZN8opendnp311RangeParser13InvokeRangeOfINS_11Group30Var5EEEvRKNS_12HeaderRecordERKNS_5RangeERKN7openpal6RSliceERNS_12IAPDUHandlerE@GOTPCREL(%rip), %rcx
	jmp	.L571
	.p2align 4,,10
	.p2align 3
.L500:
	movq	%rbx, %rsi
	call	_ZN8opendnp311RangeParser21ParseRangeOfOctetDataERN7openpal6RSliceERKNS_12HeaderRecordERKNS_5RangeEPNS1_6LoggerEPNS_12IAPDUHandlerE@PLT
	jmp	.L464
	.p2align 4,,10
	.p2align 3
.L497:
	movzwl	(%rdx), %ecx
	movzwl	2(%rdx), %eax
	xorl	%edx, %edx
	cmpw	%ax, %cx
	ja	.L528
	addl	$1, %eax
	subl	%ecx, %eax
	leal	(%rax,%rax,4), %edx
.L528:
	leaq	16(%rsp), %r14
	movq	_ZN8opendnp311RangeParser13InvokeRangeOfINS_11Group40Var3EEEvRKNS_12HeaderRecordERKNS_5RangeERKN7openpal6RSliceERNS_12IAPDUHandlerE@GOTPCREL(%rip), %rcx
	jmp	.L571
	.p2align 4,,10
	.p2align 3
.L482:
	movzwl	(%rdx), %ecx
	movzwl	2(%rdx), %eax
	xorl	%edx, %edx
	cmpw	%ax, %cx
	ja	.L516
	addl	$1, %eax
	subl	%ecx, %eax
	leal	(%rax,%rax,4), %edx
	leal	(%rax,%rdx,2), %edx
.L516:
	leaq	16(%rsp), %r14
	movq	_ZN8opendnp311RangeParser13InvokeRangeOfINS_11Group21Var5EEEvRKNS_12HeaderRecordERKNS_5RangeERKN7openpal6RSliceERNS_12IAPDUHandlerE@GOTPCREL(%rip), %rcx
	jmp	.L571
	.p2align 4,,10
	.p2align 3
.L576:
	movzwl	(%rdx), %ecx
	movzwl	2(%rdx), %eax
	xorl	%edx, %edx
	cmpw	%ax, %cx
	ja	.L515
	addl	$1, %eax
	subl	%ecx, %eax
	leal	(%rax,%rax,2), %edx
.L515:
	leaq	16(%rsp), %r14
	movq	_ZN8opendnp311RangeParser13InvokeRangeOfINS_11Group21Var2EEEvRKNS_12HeaderRecordERKNS_5RangeERKN7openpal6RSliceERNS_12IAPDUHandlerE@GOTPCREL(%rip), %rcx
	jmp	.L571
.L577:
	movzbl	9(%rbx), %r14d
	movzbl	8(%rbx), %r13d
	movq	%rbx, %rdi
	call	_ZNK8opendnp312HeaderRecord16GetQualifierCodeEv@PLT
	leaq	32(%rsp), %rbx
	movl	%eax, %edi
	call	_ZN8opendnp321QualifierCodeToStringENS_13QualifierCodeE@PLT
	pushq	%r14
	.cfi_def_cfa_offset 216
	leaq	.LC6(%rip), %r8
	pushq	%r13
	.cfi_def_cfa_offset 224
	movq	%rax, %r9
	movl	$120, %ecx
	movl	$1, %edx
	movl	$120, %esi
	movq	%rbx, %rdi
	xorl	%eax, %eax
	call	__snprintf_chk@PLT
	movl	$4, 32(%rsp)
	movq	%rbx, %rcx
	movq	%r12, %rsi
	popq	%rax
	.cfi_def_cfa_offset 216
	popq	%rdx
	.cfi_def_cfa_offset 208
	leaq	.LC7(%rip), %rdx
	movq	%rbp, %rdi
	call	_ZN7openpal6Logger3LogERKNS_10LogFiltersEPKcS5_@PLT
	movl	$8, %eax
	jmp	.L464
.L580:
	call	__stack_chk_fail@PLT
	.cfi_endproc
.LFE2361:
	.size	_ZN8opendnp311RangeParser19ParseRangeOfObjectsERN7openpal6RSliceERKNS_12HeaderRecordERKNS_5RangeEPNS1_6LoggerEPNS_12IAPDUHandlerE, .-_ZN8opendnp311RangeParser19ParseRangeOfObjectsERN7openpal6RSliceERKNS_12HeaderRecordERKNS_5RangeEPNS1_6LoggerEPNS_12IAPDUHandlerE
	.section	.rodata.str1.1,"aMS",@progbits,1
.LC8:
	.string	"%03u,%03u %s, %s [%u, %u]"
	.section	.rodata.str1.8
	.align 8
.LC9:
	.string	"/home/raihan/OpenPLC_v3/utils/dnp3_src/cpp/libs/src/opendnp3/app/parsing/RangeParser.cpp(63)"
	.text
	.align 2
	.p2align 4,,15
	.globl	_ZN8opendnp311RangeParser11ParseHeaderERN7openpal6RSliceERKNS_9NumParserERKNS_14ParserSettingsERKNS_12HeaderRecordEPNS1_6LoggerEPNS_12IAPDUHandlerE
	.type	_ZN8opendnp311RangeParser11ParseHeaderERN7openpal6RSliceERKNS_9NumParserERKNS_14ParserSettingsERKNS_12HeaderRecordEPNS1_6LoggerEPNS_12IAPDUHandlerE, @function
_ZN8opendnp311RangeParser11ParseHeaderERN7openpal6RSliceERKNS_9NumParserERKNS_14ParserSettingsERKNS_12HeaderRecordEPNS1_6LoggerEPNS_12IAPDUHandlerE:
.LFB2359:
	.cfi_startproc
	pushq	%r15
	.cfi_def_cfa_offset 16
	.cfi_offset 15, -16
	pushq	%r14
	.cfi_def_cfa_offset 24
	.cfi_offset 14, -24
	movq	%rcx, %r15
	pushq	%r13
	.cfi_def_cfa_offset 32
	.cfi_offset 13, -32
	pushq	%r12
	.cfi_def_cfa_offset 40
	.cfi_offset 12, -40
	movq	%rdx, %r13
	pushq	%rbp
	.cfi_def_cfa_offset 48
	.cfi_offset 6, -48
	pushq	%rbx
	.cfi_def_cfa_offset 56
	.cfi_offset 3, -56
	movq	%rdi, %rbp
	movq	%r8, %rcx
	movq	%rsi, %rdi
	movq	%rbp, %rsi
	subq	$216, %rsp
	.cfi_def_cfa_offset 272
	movq	%r8, %rbx
	movq	%r9, %r14
	leaq	44(%rsp), %r12
	movl	$1, 44(%rsp)
	movq	%fs:40, %rax
	movq	%rax, 200(%rsp)
	xorl	%eax, %eax
	movq	%r12, %rdx
	call	_ZNK8opendnp39NumParser10ParseRangeERN7openpal6RSliceERNS_5RangeEPNS1_6LoggerE@PLT
	testb	%al, %al
	movl	%eax, %r10d
	jne	.L581
	testq	%rbx, %rbx
	je	.L584
	movb	%al, (%rsp)
	movl	4(%r13), %eax
	movq	%rbx, %rdi
	movl	%eax, 48(%rsp)
	leaq	48(%rsp), %rax
	movq	%rax, %rsi
	movq	%rax, 8(%rsp)
	call	_ZNK7openpal6Logger9IsEnabledERKNS_10LogFiltersE@PLT
	testb	%al, %al
	movzbl	(%rsp), %r10d
	jne	.L597
.L584:
	cmpb	$0, 0(%r13)
	jne	.L598
	testq	%r14, %r14
	je	.L581
	movl	44(%rsp), %eax
	leaq	48(%rsp), %rsi
	movq	%r14, %rdi
	movdqu	(%r15), %xmm0
	movb	%r10b, (%rsp)
	movaps	%xmm0, 48(%rsp)
	movl	%eax, 64(%rsp)
	call	_ZN8opendnp312IAPDUHandler8OnHeaderERKNS_11RangeHeaderE@PLT
	movzbl	(%rsp), %r10d
.L581:
	movq	200(%rsp), %rdx
	xorq	%fs:40, %rdx
	movl	%r10d, %eax
	jne	.L599
	addq	$216, %rsp
	.cfi_remember_state
	.cfi_def_cfa_offset 56
	popq	%rbx
	.cfi_def_cfa_offset 48
	popq	%rbp
	.cfi_def_cfa_offset 40
	popq	%r12
	.cfi_def_cfa_offset 32
	popq	%r13
	.cfi_def_cfa_offset 24
	popq	%r14
	.cfi_def_cfa_offset 16
	popq	%r15
	.cfi_def_cfa_offset 8
	ret
	.p2align 4,,10
	.p2align 3
.L598:
	.cfi_restore_state
	movq	%r14, %r8
	movq	%rbx, %rcx
	movq	%r12, %rdx
	movq	%r15, %rsi
	movq	%rbp, %rdi
	call	_ZN8opendnp311RangeParser19ParseRangeOfObjectsERN7openpal6RSliceERKNS_12HeaderRecordERKNS_5RangeEPNS1_6LoggerEPNS_12IAPDUHandlerE@PLT
	movl	%eax, %r10d
	jmp	.L581
	.p2align 4,,10
	.p2align 3
.L597:
	movzwl	46(%rsp), %esi
	movzwl	44(%rsp), %ecx
	movq	%r15, %rdi
	movb	%r10b, 31(%rsp)
	movl	%esi, 24(%rsp)
	movl	%ecx, 20(%rsp)
	call	_ZNK8opendnp312HeaderRecord16GetQualifierCodeEv@PLT
	movl	%eax, %edi
	call	_ZN8opendnp321QualifierCodeToStringENS_13QualifierCodeE@PLT
	movzwl	(%r15), %edi
	movq	%rax, (%rsp)
	call	_ZN8opendnp322GroupVariationToStringENS_14GroupVariationE@PLT
	leaq	80(%rsp), %r11
	subq	$8, %rsp
	.cfi_def_cfa_offset 280
	movzbl	8(%r15), %r9d
	movl	32(%rsp), %esi
	leaq	.LC8(%rip), %r8
	movq	%r11, %rdi
	pushq	%rsi
	.cfi_def_cfa_offset 288
	movl	36(%rsp), %ecx
	movl	$120, %esi
	pushq	%rcx
	.cfi_def_cfa_offset 296
	movq	24(%rsp), %rdx
	movl	$120, %ecx
	pushq	%rdx
	.cfi_def_cfa_offset 304
	pushq	%rax
	.cfi_def_cfa_offset 312
	movl	$1, %edx
	movzbl	9(%r15), %eax
	pushq	%rax
	.cfi_def_cfa_offset 320
	xorl	%eax, %eax
	movq	%r11, 48(%rsp)
	call	__snprintf_chk@PLT
	movl	4(%r13), %eax
	leaq	.LC9(%rip), %rdx
	movq	%rbx, %rdi
	movl	%eax, 96(%rsp)
	addq	$48, %rsp
	.cfi_def_cfa_offset 272
	movq	(%rsp), %r11
	movq	8(%rsp), %rsi
	movq	%r11, %rcx
	call	_ZN7openpal6Logger3LogERKNS_10LogFiltersEPKcS5_@PLT
	movzbl	31(%rsp), %r10d
	jmp	.L584
.L599:
	call	__stack_chk_fail@PLT
	.cfi_endproc
.LFE2359:
	.size	_ZN8opendnp311RangeParser11ParseHeaderERN7openpal6RSliceERKNS_9NumParserERKNS_14ParserSettingsERKNS_12HeaderRecordEPNS1_6LoggerEPNS_12IAPDUHandlerE, .-_ZN8opendnp311RangeParser11ParseHeaderERN7openpal6RSliceERKNS_9NumParserERKNS_14ParserSettingsERKNS_12HeaderRecordEPNS1_6LoggerEPNS_12IAPDUHandlerE
	.weak	_ZTSN7openpal12StaticBufferILj255EEE
	.section	.rodata._ZTSN7openpal12StaticBufferILj255EEE,"aG",@progbits,_ZTSN7openpal12StaticBufferILj255EEE,comdat
	.align 32
	.type	_ZTSN7openpal12StaticBufferILj255EEE, @object
	.size	_ZTSN7openpal12StaticBufferILj255EEE, 33
_ZTSN7openpal12StaticBufferILj255EEE:
	.string	"N7openpal12StaticBufferILj255EEE"
	.weak	_ZTIN7openpal12StaticBufferILj255EEE
	.section	.data.rel.ro._ZTIN7openpal12StaticBufferILj255EEE,"awG",@progbits,_ZTIN7openpal12StaticBufferILj255EEE,comdat
	.align 8
	.type	_ZTIN7openpal12StaticBufferILj255EEE, @object
	.size	_ZTIN7openpal12StaticBufferILj255EEE, 16
_ZTIN7openpal12StaticBufferILj255EEE:
	.quad	_ZTVN10__cxxabiv117__class_type_infoE+16
	.quad	_ZTSN7openpal12StaticBufferILj255EEE
	.weak	_ZTSN8opendnp311ICollectionINS_7IndexedINS_11OctetStringEEEEE
	.section	.rodata._ZTSN8opendnp311ICollectionINS_7IndexedINS_11OctetStringEEEEE,"aG",@progbits,_ZTSN8opendnp311ICollectionINS_7IndexedINS_11OctetStringEEEEE,comdat
	.align 32
	.type	_ZTSN8opendnp311ICollectionINS_7IndexedINS_11OctetStringEEEEE, @object
	.size	_ZTSN8opendnp311ICollectionINS_7IndexedINS_11OctetStringEEEEE, 58
_ZTSN8opendnp311ICollectionINS_7IndexedINS_11OctetStringEEEEE:
	.string	"N8opendnp311ICollectionINS_7IndexedINS_11OctetStringEEEEE"
	.weak	_ZTIN8opendnp311ICollectionINS_7IndexedINS_11OctetStringEEEEE
	.section	.data.rel.ro._ZTIN8opendnp311ICollectionINS_7IndexedINS_11OctetStringEEEEE,"awG",@progbits,_ZTIN8opendnp311ICollectionINS_7IndexedINS_11OctetStringEEEEE,comdat
	.align 8
	.type	_ZTIN8opendnp311ICollectionINS_7IndexedINS_11OctetStringEEEEE, @object
	.size	_ZTIN8opendnp311ICollectionINS_7IndexedINS_11OctetStringEEEEE, 16
_ZTIN8opendnp311ICollectionINS_7IndexedINS_11OctetStringEEEEE:
	.quad	_ZTVN10__cxxabiv117__class_type_infoE+16
	.quad	_ZTSN8opendnp311ICollectionINS_7IndexedINS_11OctetStringEEEEE
	.section	.data.rel.ro,"aw",@progbits
	.align 8
	.type	_ZTIN8opendnp318BufferedCollectionINS_7IndexedINS_11OctetStringEEEZNS_11RangeParser21ParseRangeOfOctetDataERN7openpal6RSliceERKNS_12HeaderRecordERKNS_5RangeEPNS5_6LoggerEPNS_12IAPDUHandlerEEUlS7_jE_EE, @object
	.size	_ZTIN8opendnp318BufferedCollectionINS_7IndexedINS_11OctetStringEEEZNS_11RangeParser21ParseRangeOfOctetDataERN7openpal6RSliceERKNS_12HeaderRecordERKNS_5RangeEPNS5_6LoggerEPNS_12IAPDUHandlerEEUlS7_jE_EE, 24
_ZTIN8opendnp318BufferedCollectionINS_7IndexedINS_11OctetStringEEEZNS_11RangeParser21ParseRangeOfOctetDataERN7openpal6RSliceERKNS_12HeaderRecordERKNS_5RangeEPNS5_6LoggerEPNS_12IAPDUHandlerEEUlS7_jE_EE:
	.quad	_ZTVN10__cxxabiv120__si_class_type_infoE+16
	.quad	_ZTSN8opendnp318BufferedCollectionINS_7IndexedINS_11OctetStringEEEZNS_11RangeParser21ParseRangeOfOctetDataERN7openpal6RSliceERKNS_12HeaderRecordERKNS_5RangeEPNS5_6LoggerEPNS_12IAPDUHandlerEEUlS7_jE_EE
	.quad	_ZTIN8opendnp311ICollectionINS_7IndexedINS_11OctetStringEEEEE
	.section	.rodata
	.align 32
	.type	_ZTSN8opendnp318BufferedCollectionINS_7IndexedINS_11OctetStringEEEZNS_11RangeParser21ParseRangeOfOctetDataERN7openpal6RSliceERKNS_12HeaderRecordERKNS_5RangeEPNS5_6LoggerEPNS_12IAPDUHandlerEEUlS7_jE_EE, @object
	.size	_ZTSN8opendnp318BufferedCollectionINS_7IndexedINS_11OctetStringEEEZNS_11RangeParser21ParseRangeOfOctetDataERN7openpal6RSliceERKNS_12HeaderRecordERKNS_5RangeEPNS5_6LoggerEPNS_12IAPDUHandlerEEUlS7_jE_EE, 198
_ZTSN8opendnp318BufferedCollectionINS_7IndexedINS_11OctetStringEEEZNS_11RangeParser21ParseRangeOfOctetDataERN7openpal6RSliceERKNS_12HeaderRecordERKNS_5RangeEPNS5_6LoggerEPNS_12IAPDUHandlerEEUlS7_jE_EE:
	.string	"*N8opendnp318BufferedCollectionINS_7IndexedINS_11OctetStringEEEZNS_11RangeParser21ParseRangeOfOctetDataERN7openpal6RSliceERKNS_12HeaderRecordERKNS_5RangeEPNS5_6LoggerEPNS_12IAPDUHandlerEEUlS7_jE_EE"
	.weak	_ZTSN8opendnp311ICollectionINS_7IndexedINS_12Group121Var1EEEEE
	.section	.rodata._ZTSN8opendnp311ICollectionINS_7IndexedINS_12Group121Var1EEEEE,"aG",@progbits,_ZTSN8opendnp311ICollectionINS_7IndexedINS_12Group121Var1EEEEE,comdat
	.align 32
	.type	_ZTSN8opendnp311ICollectionINS_7IndexedINS_12Group121Var1EEEEE, @object
	.size	_ZTSN8opendnp311ICollectionINS_7IndexedINS_12Group121Var1EEEEE, 59
_ZTSN8opendnp311ICollectionINS_7IndexedINS_12Group121Var1EEEEE:
	.string	"N8opendnp311ICollectionINS_7IndexedINS_12Group121Var1EEEEE"
	.weak	_ZTIN8opendnp311ICollectionINS_7IndexedINS_12Group121Var1EEEEE
	.section	.data.rel.ro._ZTIN8opendnp311ICollectionINS_7IndexedINS_12Group121Var1EEEEE,"awG",@progbits,_ZTIN8opendnp311ICollectionINS_7IndexedINS_12Group121Var1EEEEE,comdat
	.align 8
	.type	_ZTIN8opendnp311ICollectionINS_7IndexedINS_12Group121Var1EEEEE, @object
	.size	_ZTIN8opendnp311ICollectionINS_7IndexedINS_12Group121Var1EEEEE, 16
_ZTIN8opendnp311ICollectionINS_7IndexedINS_12Group121Var1EEEEE:
	.quad	_ZTVN10__cxxabiv117__class_type_infoE+16
	.quad	_ZTSN8opendnp311ICollectionINS_7IndexedINS_12Group121Var1EEEEE
	.weak	_ZTSN8opendnp311ICollectionINS_7IndexedINS_15TimeAndIntervalEEEEE
	.section	.rodata._ZTSN8opendnp311ICollectionINS_7IndexedINS_15TimeAndIntervalEEEEE,"aG",@progbits,_ZTSN8opendnp311ICollectionINS_7IndexedINS_15TimeAndIntervalEEEEE,comdat
	.align 32
	.type	_ZTSN8opendnp311ICollectionINS_7IndexedINS_15TimeAndIntervalEEEEE, @object
	.size	_ZTSN8opendnp311ICollectionINS_7IndexedINS_15TimeAndIntervalEEEEE, 62
_ZTSN8opendnp311ICollectionINS_7IndexedINS_15TimeAndIntervalEEEEE:
	.string	"N8opendnp311ICollectionINS_7IndexedINS_15TimeAndIntervalEEEEE"
	.weak	_ZTIN8opendnp311ICollectionINS_7IndexedINS_15TimeAndIntervalEEEEE
	.section	.data.rel.ro._ZTIN8opendnp311ICollectionINS_7IndexedINS_15TimeAndIntervalEEEEE,"awG",@progbits,_ZTIN8opendnp311ICollectionINS_7IndexedINS_15TimeAndIntervalEEEEE,comdat
	.align 8
	.type	_ZTIN8opendnp311ICollectionINS_7IndexedINS_15TimeAndIntervalEEEEE, @object
	.size	_ZTIN8opendnp311ICollectionINS_7IndexedINS_15TimeAndIntervalEEEEE, 16
_ZTIN8opendnp311ICollectionINS_7IndexedINS_15TimeAndIntervalEEEEE:
	.quad	_ZTVN10__cxxabiv117__class_type_infoE+16
	.quad	_ZTSN8opendnp311ICollectionINS_7IndexedINS_15TimeAndIntervalEEEEE
	.weak	_ZTSN8opendnp311ICollectionINS_7IndexedINS_18AnalogOutputStatusEEEEE
	.section	.rodata._ZTSN8opendnp311ICollectionINS_7IndexedINS_18AnalogOutputStatusEEEEE,"aG",@progbits,_ZTSN8opendnp311ICollectionINS_7IndexedINS_18AnalogOutputStatusEEEEE,comdat
	.align 32
	.type	_ZTSN8opendnp311ICollectionINS_7IndexedINS_18AnalogOutputStatusEEEEE, @object
	.size	_ZTSN8opendnp311ICollectionINS_7IndexedINS_18AnalogOutputStatusEEEEE, 65
_ZTSN8opendnp311ICollectionINS_7IndexedINS_18AnalogOutputStatusEEEEE:
	.string	"N8opendnp311ICollectionINS_7IndexedINS_18AnalogOutputStatusEEEEE"
	.weak	_ZTIN8opendnp311ICollectionINS_7IndexedINS_18AnalogOutputStatusEEEEE
	.section	.data.rel.ro._ZTIN8opendnp311ICollectionINS_7IndexedINS_18AnalogOutputStatusEEEEE,"awG",@progbits,_ZTIN8opendnp311ICollectionINS_7IndexedINS_18AnalogOutputStatusEEEEE,comdat
	.align 8
	.type	_ZTIN8opendnp311ICollectionINS_7IndexedINS_18AnalogOutputStatusEEEEE, @object
	.size	_ZTIN8opendnp311ICollectionINS_7IndexedINS_18AnalogOutputStatusEEEEE, 16
_ZTIN8opendnp311ICollectionINS_7IndexedINS_18AnalogOutputStatusEEEEE:
	.quad	_ZTVN10__cxxabiv117__class_type_infoE+16
	.quad	_ZTSN8opendnp311ICollectionINS_7IndexedINS_18AnalogOutputStatusEEEEE
	.weak	_ZTSN8opendnp311ICollectionINS_7IndexedINS_6AnalogEEEEE
	.section	.rodata._ZTSN8opendnp311ICollectionINS_7IndexedINS_6AnalogEEEEE,"aG",@progbits,_ZTSN8opendnp311ICollectionINS_7IndexedINS_6AnalogEEEEE,comdat
	.align 32
	.type	_ZTSN8opendnp311ICollectionINS_7IndexedINS_6AnalogEEEEE, @object
	.size	_ZTSN8opendnp311ICollectionINS_7IndexedINS_6AnalogEEEEE, 52
_ZTSN8opendnp311ICollectionINS_7IndexedINS_6AnalogEEEEE:
	.string	"N8opendnp311ICollectionINS_7IndexedINS_6AnalogEEEEE"
	.weak	_ZTIN8opendnp311ICollectionINS_7IndexedINS_6AnalogEEEEE
	.section	.data.rel.ro._ZTIN8opendnp311ICollectionINS_7IndexedINS_6AnalogEEEEE,"awG",@progbits,_ZTIN8opendnp311ICollectionINS_7IndexedINS_6AnalogEEEEE,comdat
	.align 8
	.type	_ZTIN8opendnp311ICollectionINS_7IndexedINS_6AnalogEEEEE, @object
	.size	_ZTIN8opendnp311ICollectionINS_7IndexedINS_6AnalogEEEEE, 16
_ZTIN8opendnp311ICollectionINS_7IndexedINS_6AnalogEEEEE:
	.quad	_ZTVN10__cxxabiv117__class_type_infoE+16
	.quad	_ZTSN8opendnp311ICollectionINS_7IndexedINS_6AnalogEEEEE
	.weak	_ZTSN8opendnp311ICollectionINS_7IndexedINS_13FrozenCounterEEEEE
	.section	.rodata._ZTSN8opendnp311ICollectionINS_7IndexedINS_13FrozenCounterEEEEE,"aG",@progbits,_ZTSN8opendnp311ICollectionINS_7IndexedINS_13FrozenCounterEEEEE,comdat
	.align 32
	.type	_ZTSN8opendnp311ICollectionINS_7IndexedINS_13FrozenCounterEEEEE, @object
	.size	_ZTSN8opendnp311ICollectionINS_7IndexedINS_13FrozenCounterEEEEE, 60
_ZTSN8opendnp311ICollectionINS_7IndexedINS_13FrozenCounterEEEEE:
	.string	"N8opendnp311ICollectionINS_7IndexedINS_13FrozenCounterEEEEE"
	.weak	_ZTIN8opendnp311ICollectionINS_7IndexedINS_13FrozenCounterEEEEE
	.section	.data.rel.ro._ZTIN8opendnp311ICollectionINS_7IndexedINS_13FrozenCounterEEEEE,"awG",@progbits,_ZTIN8opendnp311ICollectionINS_7IndexedINS_13FrozenCounterEEEEE,comdat
	.align 8
	.type	_ZTIN8opendnp311ICollectionINS_7IndexedINS_13FrozenCounterEEEEE, @object
	.size	_ZTIN8opendnp311ICollectionINS_7IndexedINS_13FrozenCounterEEEEE, 16
_ZTIN8opendnp311ICollectionINS_7IndexedINS_13FrozenCounterEEEEE:
	.quad	_ZTVN10__cxxabiv117__class_type_infoE+16
	.quad	_ZTSN8opendnp311ICollectionINS_7IndexedINS_13FrozenCounterEEEEE
	.weak	_ZTSN8opendnp311ICollectionINS_7IndexedINS_7CounterEEEEE
	.section	.rodata._ZTSN8opendnp311ICollectionINS_7IndexedINS_7CounterEEEEE,"aG",@progbits,_ZTSN8opendnp311ICollectionINS_7IndexedINS_7CounterEEEEE,comdat
	.align 32
	.type	_ZTSN8opendnp311ICollectionINS_7IndexedINS_7CounterEEEEE, @object
	.size	_ZTSN8opendnp311ICollectionINS_7IndexedINS_7CounterEEEEE, 53
_ZTSN8opendnp311ICollectionINS_7IndexedINS_7CounterEEEEE:
	.string	"N8opendnp311ICollectionINS_7IndexedINS_7CounterEEEEE"
	.weak	_ZTIN8opendnp311ICollectionINS_7IndexedINS_7CounterEEEEE
	.section	.data.rel.ro._ZTIN8opendnp311ICollectionINS_7IndexedINS_7CounterEEEEE,"awG",@progbits,_ZTIN8opendnp311ICollectionINS_7IndexedINS_7CounterEEEEE,comdat
	.align 8
	.type	_ZTIN8opendnp311ICollectionINS_7IndexedINS_7CounterEEEEE, @object
	.size	_ZTIN8opendnp311ICollectionINS_7IndexedINS_7CounterEEEEE, 16
_ZTIN8opendnp311ICollectionINS_7IndexedINS_7CounterEEEEE:
	.quad	_ZTVN10__cxxabiv117__class_type_infoE+16
	.quad	_ZTSN8opendnp311ICollectionINS_7IndexedINS_7CounterEEEEE
	.weak	_ZTSN8opendnp311ICollectionINS_7IndexedINS_18BinaryOutputStatusEEEEE
	.section	.rodata._ZTSN8opendnp311ICollectionINS_7IndexedINS_18BinaryOutputStatusEEEEE,"aG",@progbits,_ZTSN8opendnp311ICollectionINS_7IndexedINS_18BinaryOutputStatusEEEEE,comdat
	.align 32
	.type	_ZTSN8opendnp311ICollectionINS_7IndexedINS_18BinaryOutputStatusEEEEE, @object
	.size	_ZTSN8opendnp311ICollectionINS_7IndexedINS_18BinaryOutputStatusEEEEE, 65
_ZTSN8opendnp311ICollectionINS_7IndexedINS_18BinaryOutputStatusEEEEE:
	.string	"N8opendnp311ICollectionINS_7IndexedINS_18BinaryOutputStatusEEEEE"
	.weak	_ZTIN8opendnp311ICollectionINS_7IndexedINS_18BinaryOutputStatusEEEEE
	.section	.data.rel.ro._ZTIN8opendnp311ICollectionINS_7IndexedINS_18BinaryOutputStatusEEEEE,"awG",@progbits,_ZTIN8opendnp311ICollectionINS_7IndexedINS_18BinaryOutputStatusEEEEE,comdat
	.align 8
	.type	_ZTIN8opendnp311ICollectionINS_7IndexedINS_18BinaryOutputStatusEEEEE, @object
	.size	_ZTIN8opendnp311ICollectionINS_7IndexedINS_18BinaryOutputStatusEEEEE, 16
_ZTIN8opendnp311ICollectionINS_7IndexedINS_18BinaryOutputStatusEEEEE:
	.quad	_ZTVN10__cxxabiv117__class_type_infoE+16
	.quad	_ZTSN8opendnp311ICollectionINS_7IndexedINS_18BinaryOutputStatusEEEEE
	.weak	_ZTSN8opendnp311ICollectionINS_7IndexedINS_15DoubleBitBinaryEEEEE
	.section	.rodata._ZTSN8opendnp311ICollectionINS_7IndexedINS_15DoubleBitBinaryEEEEE,"aG",@progbits,_ZTSN8opendnp311ICollectionINS_7IndexedINS_15DoubleBitBinaryEEEEE,comdat
	.align 32
	.type	_ZTSN8opendnp311ICollectionINS_7IndexedINS_15DoubleBitBinaryEEEEE, @object
	.size	_ZTSN8opendnp311ICollectionINS_7IndexedINS_15DoubleBitBinaryEEEEE, 62
_ZTSN8opendnp311ICollectionINS_7IndexedINS_15DoubleBitBinaryEEEEE:
	.string	"N8opendnp311ICollectionINS_7IndexedINS_15DoubleBitBinaryEEEEE"
	.weak	_ZTIN8opendnp311ICollectionINS_7IndexedINS_15DoubleBitBinaryEEEEE
	.section	.data.rel.ro._ZTIN8opendnp311ICollectionINS_7IndexedINS_15DoubleBitBinaryEEEEE,"awG",@progbits,_ZTIN8opendnp311ICollectionINS_7IndexedINS_15DoubleBitBinaryEEEEE,comdat
	.align 8
	.type	_ZTIN8opendnp311ICollectionINS_7IndexedINS_15DoubleBitBinaryEEEEE, @object
	.size	_ZTIN8opendnp311ICollectionINS_7IndexedINS_15DoubleBitBinaryEEEEE, 16
_ZTIN8opendnp311ICollectionINS_7IndexedINS_15DoubleBitBinaryEEEEE:
	.quad	_ZTVN10__cxxabiv117__class_type_infoE+16
	.quad	_ZTSN8opendnp311ICollectionINS_7IndexedINS_15DoubleBitBinaryEEEEE
	.weak	_ZTSN8opendnp311ICollectionINS_7IndexedINS_6BinaryEEEEE
	.section	.rodata._ZTSN8opendnp311ICollectionINS_7IndexedINS_6BinaryEEEEE,"aG",@progbits,_ZTSN8opendnp311ICollectionINS_7IndexedINS_6BinaryEEEEE,comdat
	.align 32
	.type	_ZTSN8opendnp311ICollectionINS_7IndexedINS_6BinaryEEEEE, @object
	.size	_ZTSN8opendnp311ICollectionINS_7IndexedINS_6BinaryEEEEE, 52
_ZTSN8opendnp311ICollectionINS_7IndexedINS_6BinaryEEEEE:
	.string	"N8opendnp311ICollectionINS_7IndexedINS_6BinaryEEEEE"
	.weak	_ZTIN8opendnp311ICollectionINS_7IndexedINS_6BinaryEEEEE
	.section	.data.rel.ro._ZTIN8opendnp311ICollectionINS_7IndexedINS_6BinaryEEEEE,"awG",@progbits,_ZTIN8opendnp311ICollectionINS_7IndexedINS_6BinaryEEEEE,comdat
	.align 8
	.type	_ZTIN8opendnp311ICollectionINS_7IndexedINS_6BinaryEEEEE, @object
	.size	_ZTIN8opendnp311ICollectionINS_7IndexedINS_6BinaryEEEEE, 16
_ZTIN8opendnp311ICollectionINS_7IndexedINS_6BinaryEEEEE:
	.quad	_ZTVN10__cxxabiv117__class_type_infoE+16
