	.file	"SerialChannel.cpp"
	.text
	.section	.rodata._ZNK4asio6detail15system_category4nameEv.str1.1,"aMS",@progbits,1
.LC0:
	.string	"asio.system"
	.section	.text._ZNK4asio6detail15system_category4nameEv,"axG",@progbits,_ZNK4asio6detail15system_category4nameEv,comdat
	.align 2
	.p2align 4,,15
	.weak	_ZNK4asio6detail15system_category4nameEv
	.type	_ZNK4asio6detail15system_category4nameEv, @function
_ZNK4asio6detail15system_category4nameEv:
.LFB2312:
	.cfi_startproc
	leaq	.LC0(%rip), %rax
	ret
	.cfi_endproc
.LFE2312:
	.size	_ZNK4asio6detail15system_category4nameEv, .-_ZNK4asio6detail15system_category4nameEv
	.section	.rodata._ZNK4asio5error6detail14netdb_category4nameEv.str1.1,"aMS",@progbits,1
.LC1:
	.string	"asio.netdb"
	.section	.text._ZNK4asio5error6detail14netdb_category4nameEv,"axG",@progbits,_ZNK4asio5error6detail14netdb_category4nameEv,comdat
	.align 2
	.p2align 4,,15
	.weak	_ZNK4asio5error6detail14netdb_category4nameEv
	.type	_ZNK4asio5error6detail14netdb_category4nameEv, @function
_ZNK4asio5error6detail14netdb_category4nameEv:
.LFB2352:
	.cfi_startproc
	leaq	.LC1(%rip), %rax
	ret
	.cfi_endproc
.LFE2352:
	.size	_ZNK4asio5error6detail14netdb_category4nameEv, .-_ZNK4asio5error6detail14netdb_category4nameEv
	.section	.rodata._ZNK4asio5error6detail17addrinfo_category4nameEv.str1.1,"aMS",@progbits,1
.LC2:
	.string	"asio.addrinfo"
	.section	.text._ZNK4asio5error6detail17addrinfo_category4nameEv,"axG",@progbits,_ZNK4asio5error6detail17addrinfo_category4nameEv,comdat
	.align 2
	.p2align 4,,15
	.weak	_ZNK4asio5error6detail17addrinfo_category4nameEv
	.type	_ZNK4asio5error6detail17addrinfo_category4nameEv, @function
_ZNK4asio5error6detail17addrinfo_category4nameEv:
.LFB2358:
	.cfi_startproc
	leaq	.LC2(%rip), %rax
	ret
	.cfi_endproc
.LFE2358:
	.size	_ZNK4asio5error6detail17addrinfo_category4nameEv, .-_ZNK4asio5error6detail17addrinfo_category4nameEv
	.section	.rodata._ZNK4asio5error6detail13misc_category4nameEv.str1.1,"aMS",@progbits,1
.LC3:
	.string	"asio.misc"
	.section	.text._ZNK4asio5error6detail13misc_category4nameEv,"axG",@progbits,_ZNK4asio5error6detail13misc_category4nameEv,comdat
	.align 2
	.p2align 4,,15
	.weak	_ZNK4asio5error6detail13misc_category4nameEv
	.type	_ZNK4asio5error6detail13misc_category4nameEv, @function
_ZNK4asio5error6detail13misc_category4nameEv:
.LFB2364:
	.cfi_startproc
	leaq	.LC3(%rip), %rax
	ret
	.cfi_endproc
.LFE2364:
	.size	_ZNK4asio5error6detail13misc_category4nameEv, .-_ZNK4asio5error6detail13misc_category4nameEv
	.section	.text._ZN4asio10io_service7service12fork_serviceENS0_10fork_eventE,"axG",@progbits,_ZN4asio10io_service7service12fork_serviceENS0_10fork_eventE,comdat
	.align 2
	.p2align 4,,15
	.weak	_ZN4asio10io_service7service12fork_serviceENS0_10fork_eventE
	.type	_ZN4asio10io_service7service12fork_serviceENS0_10fork_eventE, @function
_ZN4asio10io_service7service12fork_serviceENS0_10fork_eventE:
.LFB3315:
	.cfi_startproc
	rep ret
	.cfi_endproc
.LFE3315:
	.size	_ZN4asio10io_service7service12fork_serviceENS0_10fork_eventE, .-_ZN4asio10io_service7service12fork_serviceENS0_10fork_eventE
	.section	.text._ZN4asio19serial_port_service16shutdown_serviceEv,"axG",@progbits,_ZN4asio19serial_port_service16shutdown_serviceEv,comdat
	.align 2
	.p2align 4,,15
	.weak	_ZN4asio19serial_port_service16shutdown_serviceEv
	.type	_ZN4asio19serial_port_service16shutdown_serviceEv, @function
_ZN4asio19serial_port_service16shutdown_serviceEv:
.LFB4110:
	.cfi_startproc
	rep ret
	.cfi_endproc
.LFE4110:
	.size	_ZN4asio19serial_port_service16shutdown_serviceEv, .-_ZN4asio19serial_port_service16shutdown_serviceEv
	.section	.text._ZN4asio19serial_port_serviceD2Ev,"axG",@progbits,_ZN4asio19serial_port_serviceD5Ev,comdat
	.align 2
	.p2align 4,,15
	.weak	_ZN4asio19serial_port_serviceD2Ev
	.type	_ZN4asio19serial_port_serviceD2Ev, @function
_ZN4asio19serial_port_serviceD2Ev:
.LFB9239:
	.cfi_startproc
	rep ret
	.cfi_endproc
.LFE9239:
	.size	_ZN4asio19serial_port_serviceD2Ev, .-_ZN4asio19serial_port_serviceD2Ev
	.weak	_ZN4asio19serial_port_serviceD1Ev
	.set	_ZN4asio19serial_port_serviceD1Ev,_ZN4asio19serial_port_serviceD2Ev
	.section	.text._ZN4asio6detail7tss_ptrINS0_10call_stackINS0_15task_io_serviceENS0_27task_io_service_thread_infoEE7contextEED2Ev,"axG",@progbits,_ZN4asio6detail7tss_ptrINS0_10call_stackINS0_15task_io_serviceENS0_27task_io_service_thread_infoEE7contextEED5Ev,comdat
	.align 2
	.p2align 4,,15
	.weak	_ZN4asio6detail7tss_ptrINS0_10call_stackINS0_15task_io_serviceENS0_27task_io_service_thread_infoEE7contextEED2Ev
	.type	_ZN4asio6detail7tss_ptrINS0_10call_stackINS0_15task_io_serviceENS0_27task_io_service_thread_infoEE7contextEED2Ev, @function
_ZN4asio6detail7tss_ptrINS0_10call_stackINS0_15task_io_serviceENS0_27task_io_service_thread_infoEE7contextEED2Ev:
.LFB9288:
	.cfi_startproc
	rep ret
	.cfi_endproc
.LFE9288:
	.size	_ZN4asio6detail7tss_ptrINS0_10call_stackINS0_15task_io_serviceENS0_27task_io_service_thread_infoEE7contextEED2Ev, .-_ZN4asio6detail7tss_ptrINS0_10call_stackINS0_15task_io_serviceENS0_27task_io_service_thread_infoEE7contextEED2Ev
	.weak	_ZN4asio6detail7tss_ptrINS0_10call_stackINS0_15task_io_serviceENS0_27task_io_service_thread_infoEE7contextEED1Ev
	.set	_ZN4asio6detail7tss_ptrINS0_10call_stackINS0_15task_io_serviceENS0_27task_io_service_thread_infoEE7contextEED1Ev,_ZN4asio6detail7tss_ptrINS0_10call_stackINS0_15task_io_serviceENS0_27task_io_service_thread_infoEE7contextEED2Ev
	.section	.text._ZN4asio6detail10service_idINS0_13epoll_reactorEED2Ev,"axG",@progbits,_ZN4asio6detail10service_idINS0_13epoll_reactorEED5Ev,comdat
	.align 2
	.p2align 4,,15
	.weak	_ZN4asio6detail10service_idINS0_13epoll_reactorEED2Ev
	.type	_ZN4asio6detail10service_idINS0_13epoll_reactorEED2Ev, @function
_ZN4asio6detail10service_idINS0_13epoll_reactorEED2Ev:
.LFB9291:
	.cfi_startproc
	rep ret
	.cfi_endproc
.LFE9291:
	.size	_ZN4asio6detail10service_idINS0_13epoll_reactorEED2Ev, .-_ZN4asio6detail10service_idINS0_13epoll_reactorEED2Ev
	.weak	_ZN4asio6detail10service_idINS0_13epoll_reactorEED1Ev
	.set	_ZN4asio6detail10service_idINS0_13epoll_reactorEED1Ev,_ZN4asio6detail10service_idINS0_13epoll_reactorEED2Ev
	.section	.text._ZN4asio6detail10service_idINS0_15task_io_serviceEED2Ev,"axG",@progbits,_ZN4asio6detail10service_idINS0_15task_io_serviceEED5Ev,comdat
	.align 2
	.p2align 4,,15
	.weak	_ZN4asio6detail10service_idINS0_15task_io_serviceEED2Ev
	.type	_ZN4asio6detail10service_idINS0_15task_io_serviceEED2Ev, @function
_ZN4asio6detail10service_idINS0_15task_io_serviceEED2Ev:
.LFB9294:
	.cfi_startproc
	rep ret
	.cfi_endproc
.LFE9294:
	.size	_ZN4asio6detail10service_idINS0_15task_io_serviceEED2Ev, .-_ZN4asio6detail10service_idINS0_15task_io_serviceEED2Ev
	.weak	_ZN4asio6detail10service_idINS0_15task_io_serviceEED1Ev
	.set	_ZN4asio6detail10service_idINS0_15task_io_serviceEED1Ev,_ZN4asio6detail10service_idINS0_15task_io_serviceEED2Ev
	.section	.text._ZN4asio6detail7tss_ptrINS0_10call_stackINS0_14strand_service11strand_implEhE7contextEED2Ev,"axG",@progbits,_ZN4asio6detail7tss_ptrINS0_10call_stackINS0_14strand_service11strand_implEhE7contextEED5Ev,comdat
	.align 2
	.p2align 4,,15
	.weak	_ZN4asio6detail7tss_ptrINS0_10call_stackINS0_14strand_service11strand_implEhE7contextEED2Ev
	.type	_ZN4asio6detail7tss_ptrINS0_10call_stackINS0_14strand_service11strand_implEhE7contextEED2Ev, @function
_ZN4asio6detail7tss_ptrINS0_10call_stackINS0_14strand_service11strand_implEhE7contextEED2Ev:
.LFB9297:
	.cfi_startproc
	rep ret
	.cfi_endproc
.LFE9297:
	.size	_ZN4asio6detail7tss_ptrINS0_10call_stackINS0_14strand_service11strand_implEhE7contextEED2Ev, .-_ZN4asio6detail7tss_ptrINS0_10call_stackINS0_14strand_service11strand_implEhE7contextEED2Ev
	.weak	_ZN4asio6detail7tss_ptrINS0_10call_stackINS0_14strand_service11strand_implEhE7contextEED1Ev
	.set	_ZN4asio6detail7tss_ptrINS0_10call_stackINS0_14strand_service11strand_implEhE7contextEED1Ev,_ZN4asio6detail7tss_ptrINS0_10call_stackINS0_14strand_service11strand_implEhE7contextEED2Ev
	.section	.text._ZN4asio6detail10service_idINS0_14strand_serviceEED2Ev,"axG",@progbits,_ZN4asio6detail10service_idINS0_14strand_serviceEED5Ev,comdat
	.align 2
	.p2align 4,,15
	.weak	_ZN4asio6detail10service_idINS0_14strand_serviceEED2Ev
	.type	_ZN4asio6detail10service_idINS0_14strand_serviceEED2Ev, @function
_ZN4asio6detail10service_idINS0_14strand_serviceEED2Ev:
.LFB9300:
	.cfi_startproc
	rep ret
	.cfi_endproc
.LFE9300:
	.size	_ZN4asio6detail10service_idINS0_14strand_serviceEED2Ev, .-_ZN4asio6detail10service_idINS0_14strand_serviceEED2Ev
	.weak	_ZN4asio6detail10service_idINS0_14strand_serviceEED1Ev
	.set	_ZN4asio6detail10service_idINS0_14strand_serviceEED1Ev,_ZN4asio6detail10service_idINS0_14strand_serviceEED2Ev
	.section	.text._ZN4asio6detail10service_idINS_19serial_port_serviceEED2Ev,"axG",@progbits,_ZN4asio6detail10service_idINS_19serial_port_serviceEED5Ev,comdat
	.align 2
	.p2align 4,,15
	.weak	_ZN4asio6detail10service_idINS_19serial_port_serviceEED2Ev
	.type	_ZN4asio6detail10service_idINS_19serial_port_serviceEED2Ev, @function
_ZN4asio6detail10service_idINS_19serial_port_serviceEED2Ev:
.LFB9303:
	.cfi_startproc
	rep ret
	.cfi_endproc
.LFE9303:
	.size	_ZN4asio6detail10service_idINS_19serial_port_serviceEED2Ev, .-_ZN4asio6detail10service_idINS_19serial_port_serviceEED2Ev
	.weak	_ZN4asio6detail10service_idINS_19serial_port_serviceEED1Ev
	.set	_ZN4asio6detail10service_idINS_19serial_port_serviceEED1Ev,_ZN4asio6detail10service_idINS_19serial_port_serviceEED2Ev
	.section	.text._ZN4asio19serial_port_serviceD0Ev,"axG",@progbits,_ZN4asio19serial_port_serviceD5Ev,comdat
	.align 2
	.p2align 4,,15
	.weak	_ZN4asio19serial_port_serviceD0Ev
	.type	_ZN4asio19serial_port_serviceD0Ev, @function
_ZN4asio19serial_port_serviceD0Ev:
.LFB9241:
	.cfi_startproc
	movl	$48, %esi
	jmp	_ZdlPvm@PLT
	.cfi_endproc
.LFE9241:
	.size	_ZN4asio19serial_port_serviceD0Ev, .-_ZN4asio19serial_port_serviceD0Ev
	.section	.text._ZN4asio6detail15system_categoryD2Ev,"axG",@progbits,_ZN4asio6detail15system_categoryD5Ev,comdat
	.align 2
	.p2align 4,,15
	.weak	_ZN4asio6detail15system_categoryD2Ev
	.type	_ZN4asio6detail15system_categoryD2Ev, @function
_ZN4asio6detail15system_categoryD2Ev:
.LFB9267:
	.cfi_startproc
	movq	_ZTVN4asio6detail15system_categoryE@GOTPCREL(%rip), %rax
	addq	$16, %rax
	movq	%rax, (%rdi)
	jmp	_ZNSt3_V214error_categoryD2Ev@PLT
	.cfi_endproc
.LFE9267:
	.size	_ZN4asio6detail15system_categoryD2Ev, .-_ZN4asio6detail15system_categoryD2Ev
	.weak	_ZN4asio6detail15system_categoryD1Ev
	.set	_ZN4asio6detail15system_categoryD1Ev,_ZN4asio6detail15system_categoryD2Ev
	.section	.text._ZN4asio6detail15system_categoryD0Ev,"axG",@progbits,_ZN4asio6detail15system_categoryD5Ev,comdat
	.align 2
	.p2align 4,,15
	.weak	_ZN4asio6detail15system_categoryD0Ev
	.type	_ZN4asio6detail15system_categoryD0Ev, @function
_ZN4asio6detail15system_categoryD0Ev:
.LFB9269:
	.cfi_startproc
	movq	_ZTVN4asio6detail15system_categoryE@GOTPCREL(%rip), %rax
	pushq	%rbx
	.cfi_def_cfa_offset 16
	.cfi_offset 3, -16
	movq	%rdi, %rbx
	addq	$16, %rax
	movq	%rax, (%rdi)
	call	_ZNSt3_V214error_categoryD2Ev@PLT
	movq	%rbx, %rdi
	movl	$8, %esi
	popq	%rbx
	.cfi_def_cfa_offset 8
	jmp	_ZdlPvm@PLT
	.cfi_endproc
.LFE9269:
	.size	_ZN4asio6detail15system_categoryD0Ev, .-_ZN4asio6detail15system_categoryD0Ev
	.section	.text._ZN4asio5error6detail13misc_categoryD2Ev,"axG",@progbits,_ZN4asio5error6detail13misc_categoryD5Ev,comdat
	.align 2
	.p2align 4,,15
	.weak	_ZN4asio5error6detail13misc_categoryD2Ev
	.type	_ZN4asio5error6detail13misc_categoryD2Ev, @function
_ZN4asio5error6detail13misc_categoryD2Ev:
.LFB9247:
	.cfi_startproc
	movq	_ZTVN4asio5error6detail13misc_categoryE@GOTPCREL(%rip), %rax
	addq	$16, %rax
	movq	%rax, (%rdi)
	jmp	_ZNSt3_V214error_categoryD2Ev@PLT
	.cfi_endproc
.LFE9247:
	.size	_ZN4asio5error6detail13misc_categoryD2Ev, .-_ZN4asio5error6detail13misc_categoryD2Ev
	.weak	_ZN4asio5error6detail13misc_categoryD1Ev
	.set	_ZN4asio5error6detail13misc_categoryD1Ev,_ZN4asio5error6detail13misc_categoryD2Ev
	.section	.text._ZN4asio5error6detail13misc_categoryD0Ev,"axG",@progbits,_ZN4asio5error6detail13misc_categoryD5Ev,comdat
	.align 2
	.p2align 4,,15
	.weak	_ZN4asio5error6detail13misc_categoryD0Ev
	.type	_ZN4asio5error6detail13misc_categoryD0Ev, @function
_ZN4asio5error6detail13misc_categoryD0Ev:
.LFB9249:
	.cfi_startproc
	movq	_ZTVN4asio5error6detail13misc_categoryE@GOTPCREL(%rip), %rax
	pushq	%rbx
	.cfi_def_cfa_offset 16
	.cfi_offset 3, -16
	movq	%rdi, %rbx
	addq	$16, %rax
	movq	%rax, (%rdi)
	call	_ZNSt3_V214error_categoryD2Ev@PLT
	movq	%rbx, %rdi
	movl	$8, %esi
	popq	%rbx
	.cfi_def_cfa_offset 8
	jmp	_ZdlPvm@PLT
	.cfi_endproc
.LFE9249:
	.size	_ZN4asio5error6detail13misc_categoryD0Ev, .-_ZN4asio5error6detail13misc_categoryD0Ev
	.section	.text._ZN4asio5error6detail14netdb_categoryD2Ev,"axG",@progbits,_ZN4asio5error6detail14netdb_categoryD5Ev,comdat
	.align 2
	.p2align 4,,15
	.weak	_ZN4asio5error6detail14netdb_categoryD2Ev
	.type	_ZN4asio5error6detail14netdb_categoryD2Ev, @function
_ZN4asio5error6detail14netdb_categoryD2Ev:
.LFB9255:
	.cfi_startproc
	movq	_ZTVN4asio5error6detail14netdb_categoryE@GOTPCREL(%rip), %rax
	addq	$16, %rax
	movq	%rax, (%rdi)
	jmp	_ZNSt3_V214error_categoryD2Ev@PLT
	.cfi_endproc
.LFE9255:
	.size	_ZN4asio5error6detail14netdb_categoryD2Ev, .-_ZN4asio5error6detail14netdb_categoryD2Ev
	.weak	_ZN4asio5error6detail14netdb_categoryD1Ev
	.set	_ZN4asio5error6detail14netdb_categoryD1Ev,_ZN4asio5error6detail14netdb_categoryD2Ev
	.section	.text._ZN4asio5error6detail14netdb_categoryD0Ev,"axG",@progbits,_ZN4asio5error6detail14netdb_categoryD5Ev,comdat
	.align 2
	.p2align 4,,15
	.weak	_ZN4asio5error6detail14netdb_categoryD0Ev
	.type	_ZN4asio5error6detail14netdb_categoryD0Ev, @function
_ZN4asio5error6detail14netdb_categoryD0Ev:
.LFB9257:
	.cfi_startproc
	movq	_ZTVN4asio5error6detail14netdb_categoryE@GOTPCREL(%rip), %rax
	pushq	%rbx
	.cfi_def_cfa_offset 16
	.cfi_offset 3, -16
	movq	%rdi, %rbx
	addq	$16, %rax
	movq	%rax, (%rdi)
	call	_ZNSt3_V214error_categoryD2Ev@PLT
	movq	%rbx, %rdi
	movl	$8, %esi
	popq	%rbx
	.cfi_def_cfa_offset 8
	jmp	_ZdlPvm@PLT
	.cfi_endproc
.LFE9257:
	.size	_ZN4asio5error6detail14netdb_categoryD0Ev, .-_ZN4asio5error6detail14netdb_categoryD0Ev
	.section	.text._ZN4asio5error6detail17addrinfo_categoryD2Ev,"axG",@progbits,_ZN4asio5error6detail17addrinfo_categoryD5Ev,comdat
	.align 2
	.p2align 4,,15
	.weak	_ZN4asio5error6detail17addrinfo_categoryD2Ev
	.type	_ZN4asio5error6detail17addrinfo_categoryD2Ev, @function
_ZN4asio5error6detail17addrinfo_categoryD2Ev:
.LFB9251:
	.cfi_startproc
	movq	_ZTVN4asio5error6detail17addrinfo_categoryE@GOTPCREL(%rip), %rax
	addq	$16, %rax
	movq	%rax, (%rdi)
	jmp	_ZNSt3_V214error_categoryD2Ev@PLT
	.cfi_endproc
.LFE9251:
	.size	_ZN4asio5error6detail17addrinfo_categoryD2Ev, .-_ZN4asio5error6detail17addrinfo_categoryD2Ev
	.weak	_ZN4asio5error6detail17addrinfo_categoryD1Ev
	.set	_ZN4asio5error6detail17addrinfo_categoryD1Ev,_ZN4asio5error6detail17addrinfo_categoryD2Ev
	.section	.text._ZN4asio5error6detail17addrinfo_categoryD0Ev,"axG",@progbits,_ZN4asio5error6detail17addrinfo_categoryD5Ev,comdat
	.align 2
	.p2align 4,,15
	.weak	_ZN4asio5error6detail17addrinfo_categoryD0Ev
	.type	_ZN4asio5error6detail17addrinfo_categoryD0Ev, @function
_ZN4asio5error6detail17addrinfo_categoryD0Ev:
.LFB9253:
	.cfi_startproc
	movq	_ZTVN4asio5error6detail17addrinfo_categoryE@GOTPCREL(%rip), %rax
	pushq	%rbx
	.cfi_def_cfa_offset 16
	.cfi_offset 3, -16
	movq	%rdi, %rbx
	addq	$16, %rax
	movq	%rax, (%rdi)
	call	_ZNSt3_V214error_categoryD2Ev@PLT
	movq	%rbx, %rdi
	movl	$8, %esi
	popq	%rbx
	.cfi_def_cfa_offset 8
	jmp	_ZdlPvm@PLT
	.cfi_endproc
.LFE9253:
	.size	_ZN4asio5error6detail17addrinfo_categoryD0Ev, .-_ZN4asio5error6detail17addrinfo_categoryD0Ev
	.section	.text.unlikely,"ax",@progbits
	.align 2
	.type	_ZN4asio6detail19descriptor_write_opINS_15const_buffers_1ENS0_8write_opINS_17basic_serial_portINS_19serial_port_serviceEEES2_NS0_14transfer_all_tENS0_15wrapped_handlerINS_10io_service6strandEZN7asiopal13SerialChannel14BeginWriteImplERKN7openpal6RSliceEEUlRKSt10error_codemE_NS0_26is_continuation_if_runningEEEEEE3ptr5resetEv.isra.165, @function
_ZN4asio6detail19descriptor_write_opINS_15const_buffers_1ENS0_8write_opINS_17basic_serial_portINS_19serial_port_serviceEEES2_NS0_14transfer_all_tENS0_15wrapped_handlerINS_10io_service6strandEZN7asiopal13SerialChannel14BeginWriteImplERKN7openpal6RSliceEEUlRKSt10error_codemE_NS0_26is_continuation_if_runningEEEEEE3ptr5resetEv.isra.165:
.LFB9547:
	.cfi_startproc
	pushq	%rbp
	.cfi_def_cfa_offset 16
	.cfi_offset 6, -16
	pushq	%rbx
	.cfi_def_cfa_offset 24
	.cfi_offset 3, -24
	subq	$8, %rsp
	.cfi_def_cfa_offset 32
	cmpq	$0, (%rsi)
	je	.L29
	movq	$0, (%rsi)
.L29:
	movq	(%rdi), %rbx
	testq	%rbx, %rbx
	je	.L28
	movq	%rdi, %rbp
	.byte	0x66
	leaq	_ZN4asio6detail15keyword_tss_ptrINS0_10call_stackINS0_15task_io_serviceENS0_27task_io_service_thread_infoEE7contextEE6value_E@tlsgd(%rip), %rdi
	.value	0x6666
	rex64
	call	__tls_get_addr@PLT
	movq	(%rax), %rax
	testq	%rax, %rax
	je	.L31
	movq	8(%rax), %rax
	testq	%rax, %rax
	je	.L31
	cmpq	$0, (%rax)
	jne	.L31
	movb	144(%rbx), %dl
	movb	%dl, (%rbx)
	movq	%rbx, (%rax)
	jmp	.L32
.L31:
	movq	%rbx, %rdi
	call	_ZdlPv@PLT
.L32:
	movq	$0, 0(%rbp)
.L28:
	popq	%rax
	.cfi_def_cfa_offset 24
	popq	%rbx
	.cfi_def_cfa_offset 16
	popq	%rbp
	.cfi_def_cfa_offset 8
	ret
	.cfi_endproc
.LFE9547:
	.size	_ZN4asio6detail19descriptor_write_opINS_15const_buffers_1ENS0_8write_opINS_17basic_serial_portINS_19serial_port_serviceEEES2_NS0_14transfer_all_tENS0_15wrapped_handlerINS_10io_service6strandEZN7asiopal13SerialChannel14BeginWriteImplERKN7openpal6RSliceEEUlRKSt10error_codemE_NS0_26is_continuation_if_runningEEEEEE3ptr5resetEv.isra.165, .-_ZN4asio6detail19descriptor_write_opINS_15const_buffers_1ENS0_8write_opINS_17basic_serial_portINS_19serial_port_serviceEEES2_NS0_14transfer_all_tENS0_15wrapped_handlerINS_10io_service6strandEZN7asiopal13SerialChannel14BeginWriteImplERKN7openpal6RSliceEEUlRKSt10error_codemE_NS0_26is_continuation_if_runningEEEEEE3ptr5resetEv.isra.165
	.align 2
	.type	_ZN4asio6detail18completion_handlerINS0_7binder2IZN7asiopal13SerialChannel13BeginReadImplEN7openpal6WSliceEEUlRKSt10error_codemE_S7_mEEE3ptr5resetEv.isra.95, @function
_ZN4asio6detail18completion_handlerINS0_7binder2IZN7asiopal13SerialChannel13BeginReadImplEN7openpal6WSliceEEUlRKSt10error_codemE_S7_mEEE3ptr5resetEv.isra.95:
.LFB9477:
	.cfi_startproc
	pushq	%rbp
	.cfi_def_cfa_offset 16
	.cfi_offset 6, -16
	pushq	%rbx
	.cfi_def_cfa_offset 24
	.cfi_offset 3, -24
	subq	$8, %rsp
	.cfi_def_cfa_offset 32
	cmpq	$0, (%rsi)
	je	.L44
	movq	$0, (%rsi)
.L44:
	movq	(%rdi), %rbx
	testq	%rbx, %rbx
	je	.L43
	movq	%rdi, %rbp
	.byte	0x66
	leaq	_ZN4asio6detail15keyword_tss_ptrINS0_10call_stackINS0_15task_io_serviceENS0_27task_io_service_thread_infoEE7contextEE6value_E@tlsgd(%rip), %rdi
	.value	0x6666
	rex64
	call	__tls_get_addr@PLT
	movq	(%rax), %rax
	testq	%rax, %rax
	je	.L46
	movq	8(%rax), %rax
	testq	%rax, %rax
	je	.L46
	cmpq	$0, (%rax)
	jne	.L46
	movb	56(%rbx), %dl
	movb	%dl, (%rbx)
	movq	%rbx, (%rax)
	jmp	.L47
.L46:
	movq	%rbx, %rdi
	call	_ZdlPv@PLT
.L47:
	movq	$0, 0(%rbp)
.L43:
	popq	%rax
	.cfi_def_cfa_offset 24
	popq	%rbx
	.cfi_def_cfa_offset 16
	popq	%rbp
	.cfi_def_cfa_offset 8
	ret
	.cfi_endproc
.LFE9477:
	.size	_ZN4asio6detail18completion_handlerINS0_7binder2IZN7asiopal13SerialChannel13BeginReadImplEN7openpal6WSliceEEUlRKSt10error_codemE_S7_mEEE3ptr5resetEv.isra.95, .-_ZN4asio6detail18completion_handlerINS0_7binder2IZN7asiopal13SerialChannel13BeginReadImplEN7openpal6WSliceEEUlRKSt10error_codemE_S7_mEEE3ptr5resetEv.isra.95
	.align 2
	.type	_ZN4asio6detail18completion_handlerINS0_17rewrapped_handlerINS0_7binder2INS0_8write_opINS_17basic_serial_portINS_19serial_port_serviceEEENS_15const_buffers_1ENS0_14transfer_all_tENS0_15wrapped_handlerINS_10io_service6strandEZN7asiopal13SerialChannel14BeginWriteImplERKN7openpal6RSliceEEUlRKSt10error_codemE_NS0_26is_continuation_if_runningEEEEESJ_mEESM_EEE3ptr5resetEv.isra.106, @function
_ZN4asio6detail18completion_handlerINS0_17rewrapped_handlerINS0_7binder2INS0_8write_opINS_17basic_serial_portINS_19serial_port_serviceEEENS_15const_buffers_1ENS0_14transfer_all_tENS0_15wrapped_handlerINS_10io_service6strandEZN7asiopal13SerialChannel14BeginWriteImplERKN7openpal6RSliceEEUlRKSt10error_codemE_NS0_26is_continuation_if_runningEEEEESJ_mEESM_EEE3ptr5resetEv.isra.106:
.LFB9488:
	.cfi_startproc
	pushq	%rbp
	.cfi_def_cfa_offset 16
	.cfi_offset 6, -16
	pushq	%rbx
	.cfi_def_cfa_offset 24
	.cfi_offset 3, -24
	subq	$8, %rsp
	.cfi_def_cfa_offset 32
	cmpq	$0, (%rsi)
	je	.L59
	movq	$0, (%rsi)
.L59:
	movq	(%rdi), %rbx
	testq	%rbx, %rbx
	je	.L58
	movq	%rdi, %rbp
	.byte	0x66
	leaq	_ZN4asio6detail15keyword_tss_ptrINS0_10call_stackINS0_15task_io_serviceENS0_27task_io_service_thread_infoEE7contextEE6value_E@tlsgd(%rip), %rdi
	.value	0x6666
	rex64
	call	__tls_get_addr@PLT
	movq	(%rax), %rax
	testq	%rax, %rax
	je	.L61
	movq	8(%rax), %rax
	testq	%rax, %rax
	je	.L61
	cmpq	$0, (%rax)
	jne	.L61
	movb	120(%rbx), %dl
	movb	%dl, (%rbx)
	movq	%rbx, (%rax)
	jmp	.L62
.L61:
	movq	%rbx, %rdi
	call	_ZdlPv@PLT
.L62:
	movq	$0, 0(%rbp)
.L58:
	popq	%rax
	.cfi_def_cfa_offset 24
	popq	%rbx
	.cfi_def_cfa_offset 16
	popq	%rbp
	.cfi_def_cfa_offset 8
	ret
	.cfi_endproc
.LFE9488:
	.size	_ZN4asio6detail18completion_handlerINS0_17rewrapped_handlerINS0_7binder2INS0_8write_opINS_17basic_serial_portINS_19serial_port_serviceEEENS_15const_buffers_1ENS0_14transfer_all_tENS0_15wrapped_handlerINS_10io_service6strandEZN7asiopal13SerialChannel14BeginWriteImplERKN7openpal6RSliceEEUlRKSt10error_codemE_NS0_26is_continuation_if_runningEEEEESJ_mEESM_EEE3ptr5resetEv.isra.106, .-_ZN4asio6detail18completion_handlerINS0_17rewrapped_handlerINS0_7binder2INS0_8write_opINS_17basic_serial_portINS_19serial_port_serviceEEENS_15const_buffers_1ENS0_14transfer_all_tENS0_15wrapped_handlerINS_10io_service6strandEZN7asiopal13SerialChannel14BeginWriteImplERKN7openpal6RSliceEEUlRKSt10error_codemE_NS0_26is_continuation_if_runningEEEEESJ_mEESM_EEE3ptr5resetEv.isra.106
	.align 2
	.type	_ZN4asio6detail18completion_handlerINS0_7binder2IZN7asiopal13SerialChannel14BeginWriteImplERKN7openpal6RSliceEEUlRKSt10error_codemE_S9_mEEE3ptr5resetEv.isra.109, @function
_ZN4asio6detail18completion_handlerINS0_7binder2IZN7asiopal13SerialChannel14BeginWriteImplERKN7openpal6RSliceEEUlRKSt10error_codemE_S9_mEEE3ptr5resetEv.isra.109:
.LFB9491:
	.cfi_startproc
	pushq	%rbp
	.cfi_def_cfa_offset 16
	.cfi_offset 6, -16
	pushq	%rbx
	.cfi_def_cfa_offset 24
	.cfi_offset 3, -24
	subq	$8, %rsp
	.cfi_def_cfa_offset 32
	cmpq	$0, (%rsi)
	je	.L74
	movq	$0, (%rsi)
.L74:
	movq	(%rdi), %rbx
	testq	%rbx, %rbx
	je	.L73
	movq	%rdi, %rbp
	.byte	0x66
	leaq	_ZN4asio6detail15keyword_tss_ptrINS0_10call_stackINS0_15task_io_serviceENS0_27task_io_service_thread_infoEE7contextEE6value_E@tlsgd(%rip), %rdi
	.value	0x6666
	rex64
	call	__tls_get_addr@PLT
	movq	(%rax), %rax
	testq	%rax, %rax
	je	.L76
	movq	8(%rax), %rax
	testq	%rax, %rax
	je	.L76
	cmpq	$0, (%rax)
	jne	.L76
	movb	56(%rbx), %dl
	movb	%dl, (%rbx)
	movq	%rbx, (%rax)
	jmp	.L77
.L76:
	movq	%rbx, %rdi
	call	_ZdlPv@PLT
.L77:
	movq	$0, 0(%rbp)
.L73:
	popq	%rax
	.cfi_def_cfa_offset 24
	popq	%rbx
	.cfi_def_cfa_offset 16
	popq	%rbp
	.cfi_def_cfa_offset 8
	ret
	.cfi_endproc
.LFE9491:
	.size	_ZN4asio6detail18completion_handlerINS0_7binder2IZN7asiopal13SerialChannel14BeginWriteImplERKN7openpal6RSliceEEUlRKSt10error_codemE_S9_mEEE3ptr5resetEv.isra.109, .-_ZN4asio6detail18completion_handlerINS0_7binder2IZN7asiopal13SerialChannel14BeginWriteImplERKN7openpal6RSliceEEUlRKSt10error_codemE_S9_mEEE3ptr5resetEv.isra.109
	.align 2
	.type	_ZN4asio6detail18completion_handlerINS0_17rewrapped_handlerINS0_7binder2INS0_15wrapped_handlerINS_10io_service6strandEZN7asiopal13SerialChannel13BeginReadImplEN7openpal6WSliceEEUlRKSt10error_codemE_NS0_26is_continuation_if_runningEEESB_mEESE_EEE3ptr5resetEv.isra.98, @function
_ZN4asio6detail18completion_handlerINS0_17rewrapped_handlerINS0_7binder2INS0_15wrapped_handlerINS_10io_service6strandEZN7asiopal13SerialChannel13BeginReadImplEN7openpal6WSliceEEUlRKSt10error_codemE_NS0_26is_continuation_if_runningEEESB_mEESE_EEE3ptr5resetEv.isra.98:
.LFB9480:
	.cfi_startproc
	pushq	%rbp
	.cfi_def_cfa_offset 16
	.cfi_offset 6, -16
	pushq	%rbx
	.cfi_def_cfa_offset 24
	.cfi_offset 3, -24
	subq	$8, %rsp
	.cfi_def_cfa_offset 32
	cmpq	$0, (%rsi)
	je	.L89
	movq	$0, (%rsi)
.L89:
	movq	(%rdi), %rbx
	testq	%rbx, %rbx
	je	.L88
	movq	%rdi, %rbp
	.byte	0x66
	leaq	_ZN4asio6detail15keyword_tss_ptrINS0_10call_stackINS0_15task_io_serviceENS0_27task_io_service_thread_infoEE7contextEE6value_E@tlsgd(%rip), %rdi
	.value	0x6666
	rex64
	call	__tls_get_addr@PLT
	movq	(%rax), %rax
	testq	%rax, %rax
	je	.L91
	movq	8(%rax), %rax
	testq	%rax, %rax
	je	.L91
	cmpq	$0, (%rax)
	jne	.L91
	movb	80(%rbx), %dl
	movb	%dl, (%rbx)
	movq	%rbx, (%rax)
	jmp	.L92
.L91:
	movq	%rbx, %rdi
	call	_ZdlPv@PLT
.L92:
	movq	$0, 0(%rbp)
.L88:
	popq	%rax
	.cfi_def_cfa_offset 24
	popq	%rbx
	.cfi_def_cfa_offset 16
	popq	%rbp
	.cfi_def_cfa_offset 8
	ret
	.cfi_endproc
.LFE9480:
	.size	_ZN4asio6detail18completion_handlerINS0_17rewrapped_handlerINS0_7binder2INS0_15wrapped_handlerINS_10io_service6strandEZN7asiopal13SerialChannel13BeginReadImplEN7openpal6WSliceEEUlRKSt10error_codemE_NS0_26is_continuation_if_runningEEESB_mEESE_EEE3ptr5resetEv.isra.98, .-_ZN4asio6detail18completion_handlerINS0_17rewrapped_handlerINS0_7binder2INS0_15wrapped_handlerINS_10io_service6strandEZN7asiopal13SerialChannel13BeginReadImplEN7openpal6WSliceEEUlRKSt10error_codemE_NS0_26is_continuation_if_runningEEESB_mEESE_EEE3ptr5resetEv.isra.98
	.align 2
	.type	_ZN4asio6detail18descriptor_read_opINS_17mutable_buffers_1ENS0_15wrapped_handlerINS_10io_service6strandEZN7asiopal13SerialChannel13BeginReadImplEN7openpal6WSliceEEUlRKSt10error_codemE_NS0_26is_continuation_if_runningEEEE3ptr5resetEv.isra.162, @function
_ZN4asio6detail18descriptor_read_opINS_17mutable_buffers_1ENS0_15wrapped_handlerINS_10io_service6strandEZN7asiopal13SerialChannel13BeginReadImplEN7openpal6WSliceEEUlRKSt10error_codemE_NS0_26is_continuation_if_runningEEEE3ptr5resetEv.isra.162:
.LFB9544:
	.cfi_startproc
	pushq	%rbp
	.cfi_def_cfa_offset 16
	.cfi_offset 6, -16
	pushq	%rbx
	.cfi_def_cfa_offset 24
	.cfi_offset 3, -24
	subq	$8, %rsp
	.cfi_def_cfa_offset 32
	cmpq	$0, (%rsi)
	je	.L104
	movq	$0, (%rsi)
.L104:
	movq	(%rdi), %rbx
	testq	%rbx, %rbx
	je	.L103
	movq	%rdi, %rbp
	.byte	0x66
	leaq	_ZN4asio6detail15keyword_tss_ptrINS0_10call_stackINS0_15task_io_serviceENS0_27task_io_service_thread_infoEE7contextEE6value_E@tlsgd(%rip), %rdi
	.value	0x6666
	rex64
	call	__tls_get_addr@PLT
	movq	(%rax), %rax
	testq	%rax, %rax
	je	.L106
	movq	8(%rax), %rax
	testq	%rax, %rax
	je	.L106
	cmpq	$0, (%rax)
	jne	.L106
	movb	104(%rbx), %dl
	movb	%dl, (%rbx)
	movq	%rbx, (%rax)
	jmp	.L107
.L106:
	movq	%rbx, %rdi
	call	_ZdlPv@PLT
.L107:
	movq	$0, 0(%rbp)
.L103:
	popq	%rax
	.cfi_def_cfa_offset 24
	popq	%rbx
	.cfi_def_cfa_offset 16
	popq	%rbp
	.cfi_def_cfa_offset 8
	ret
	.cfi_endproc
.LFE9544:
	.size	_ZN4asio6detail18descriptor_read_opINS_17mutable_buffers_1ENS0_15wrapped_handlerINS_10io_service6strandEZN7asiopal13SerialChannel13BeginReadImplEN7openpal6WSliceEEUlRKSt10error_codemE_NS0_26is_continuation_if_runningEEEE3ptr5resetEv.isra.162, .-_ZN4asio6detail18descriptor_read_opINS_17mutable_buffers_1ENS0_15wrapped_handlerINS_10io_service6strandEZN7asiopal13SerialChannel13BeginReadImplEN7openpal6WSliceEEUlRKSt10error_codemE_NS0_26is_continuation_if_runningEEEE3ptr5resetEv.isra.162
	.section	.text._ZN4asio6detail13epoll_reactorD2Ev,"axG",@progbits,_ZN4asio6detail13epoll_reactorD5Ev,comdat
	.align 2
	.p2align 4,,15
	.weak	_ZN4asio6detail13epoll_reactorD2Ev
	.type	_ZN4asio6detail13epoll_reactorD2Ev, @function
_ZN4asio6detail13epoll_reactorD2Ev:
.LFB3192:
	.cfi_startproc
	.cfi_personality 0x9b,DW.ref.__gxx_personality_v0
	.cfi_lsda 0x1b,.LLSDA3192
	pushq	%r15
	.cfi_def_cfa_offset 16
	.cfi_offset 15, -16
	pushq	%r14
	.cfi_def_cfa_offset 24
	.cfi_offset 14, -24
	pushq	%r13
	.cfi_def_cfa_offset 32
	.cfi_offset 13, -32
	pushq	%r12
	.cfi_def_cfa_offset 40
	.cfi_offset 12, -40
	pushq	%rbp
	.cfi_def_cfa_offset 48
	.cfi_offset 6, -48
	pushq	%rbx
	.cfi_def_cfa_offset 56
	.cfi_offset 3, -56
	subq	$56, %rsp
	.cfi_def_cfa_offset 112
	movq	%fs:40, %rax
	movq	%rax, 40(%rsp)
	xorl	%eax, %eax
	movq	_ZTVN4asio6detail13epoll_reactorE@GOTPCREL(%rip), %rax
	movq	%rdi, 8(%rsp)
	addq	$16, %rax
	movq	%rax, (%rdi)
	movl	96(%rdi), %edi
	cmpl	$-1, %edi
	je	.L119
	call	close@PLT
.L119:
	movq	8(%rsp), %rax
	movl	100(%rax), %edi
	cmpl	$-1, %edi
	je	.L120
	call	close@PLT
	movq	8(%rsp), %rax
.L120:
	movq	160(%rax), %r12
	testq	%r12, %r12
	je	.L121
	leaq	16(%rsp), %rbp
	.p2align 4,,10
	.p2align 3
.L127:
	movq	24(%r12), %r15
	leaq	128(%r12), %r14
	leaq	80(%r12), %r13
.L126:
	movq	(%r14), %rsi
	testq	%rsi, %rsi
	movq	%rsi, (%rsp)
	je	.L122
	call	_ZNSt3_V215system_categoryEv@PLT
	movq	(%rsp), %rsi
	movq	%rax, %rbx
	jmp	.L123
	.p2align 4,,10
	.p2align 3
.L124:
	movq	$0, (%rsi)
	movq	8(%rsi), %rax
	xorl	%ecx, %ecx
	xorl	%edi, %edi
	movl	$0, 16(%rsp)
	movq	%rbx, 24(%rsp)
	movq	%rbp, %rdx
	call	*%rax
	movq	(%r14), %rsi
	testq	%rsi, %rsi
	je	.L122
.L123:
	movq	(%rsi), %rax
	testq	%rax, %rax
	movq	%rax, (%r14)
	jne	.L124
	movq	$0, 8(%r14)
	jmp	.L124
	.p2align 4,,10
	.p2align 3
.L122:
	subq	$16, %r14
	cmpq	%r13, %r14
	jne	.L126
	leaq	40(%r12), %rdi
	call	pthread_mutex_destroy@PLT
	movq	%r12, %rdi
	movl	$152, %esi
	movq	%r15, %r12
	call	_ZdlPvm@PLT
	testq	%r15, %r15
	jne	.L127
.L121:
	movq	8(%rsp), %rax
	movq	168(%rax), %r12
	testq	%r12, %r12
	je	.L128
	leaq	16(%rsp), %rbp
	.p2align 4,,10
	.p2align 3
.L134:
	movq	24(%r12), %r15
	leaq	128(%r12), %r14
	leaq	80(%r12), %r13
.L133:
	movq	(%r14), %rsi
	testq	%rsi, %rsi
	movq	%rsi, (%rsp)
	je	.L129
	call	_ZNSt3_V215system_categoryEv@PLT
	movq	(%rsp), %rsi
	movq	%rax, %rbx
	jmp	.L130
	.p2align 4,,10
	.p2align 3
.L131:
	movq	$0, (%rsi)
	movq	8(%rsi), %rax
	xorl	%ecx, %ecx
	xorl	%edi, %edi
	movl	$0, 16(%rsp)
	movq	%rbx, 24(%rsp)
	movq	%rbp, %rdx
	call	*%rax
	movq	(%r14), %rsi
	testq	%rsi, %rsi
	je	.L129
.L130:
	movq	(%rsi), %rax
	testq	%rax, %rax
	movq	%rax, (%r14)
	jne	.L131
	movq	$0, 8(%r14)
	jmp	.L131
	.p2align 4,,10
	.p2align 3
.L129:
	subq	$16, %r14
	cmpq	%r14, %r13
	jne	.L133
	leaq	40(%r12), %rdi
	call	pthread_mutex_destroy@PLT
	movq	%r12, %rdi
	movl	$152, %esi
	movq	%r15, %r12
	call	_ZdlPvm@PLT
	testq	%r15, %r15
	jne	.L134
.L128:
	movq	8(%rsp), %rbx
	leaq	120(%rbx), %rdi
	call	pthread_mutex_destroy@PLT
	movl	92(%rbx), %eax
	cmpl	$-1, %eax
	je	.L135
	movl	88(%rbx), %edi
	cmpl	%edi, %eax
	jne	.L176
.L136:
	call	close@PLT
.L137:
	movq	8(%rsp), %rdi
	addq	$48, %rdi
	call	pthread_mutex_destroy@PLT
	movq	40(%rsp), %rax
	xorq	%fs:40, %rax
	jne	.L177
	addq	$56, %rsp
	.cfi_remember_state
	.cfi_def_cfa_offset 56
	popq	%rbx
	.cfi_def_cfa_offset 48
	popq	%rbp
	.cfi_def_cfa_offset 40
	popq	%r12
	.cfi_def_cfa_offset 32
	popq	%r13
	.cfi_def_cfa_offset 24
	popq	%r14
	.cfi_def_cfa_offset 16
	popq	%r15
	.cfi_def_cfa_offset 8
	ret
.L176:
	.cfi_restore_state
	movl	%eax, %edi
	call	close@PLT
.L135:
	movq	8(%rsp), %rax
	movl	88(%rax), %edi
	cmpl	$-1, %edi
	je	.L137
	jmp	.L136
.L177:
	call	__stack_chk_fail@PLT
	.cfi_endproc
.LFE3192:
	.globl	__gxx_personality_v0
	.section	.gcc_except_table._ZN4asio6detail13epoll_reactorD2Ev,"aG",@progbits,_ZN4asio6detail13epoll_reactorD5Ev,comdat
.LLSDA3192:
	.byte	0xff
	.byte	0xff
	.byte	0x1
	.uleb128 .LLSDACSE3192-.LLSDACSB3192
.LLSDACSB3192:
.LLSDACSE3192:
	.section	.text._ZN4asio6detail13epoll_reactorD2Ev,"axG",@progbits,_ZN4asio6detail13epoll_reactorD5Ev,comdat
	.size	_ZN4asio6detail13epoll_reactorD2Ev, .-_ZN4asio6detail13epoll_reactorD2Ev
	.weak	_ZN4asio6detail13epoll_reactorD1Ev
	.set	_ZN4asio6detail13epoll_reactorD1Ev,_ZN4asio6detail13epoll_reactorD2Ev
	.section	.text._ZN4asio6detail13epoll_reactor16shutdown_serviceEv,"axG",@progbits,_ZN4asio6detail13epoll_reactor16shutdown_serviceEv,comdat
	.align 2
	.p2align 4,,15
	.weak	_ZN4asio6detail13epoll_reactor16shutdown_serviceEv
	.type	_ZN4asio6detail13epoll_reactor16shutdown_serviceEv, @function
_ZN4asio6detail13epoll_reactor16shutdown_serviceEv:
.LFB3195:
	.cfi_startproc
	.cfi_personality 0x9b,DW.ref.__gxx_personality_v0
	.cfi_lsda 0x1b,.LLSDA3195
	pushq	%r13
	.cfi_def_cfa_offset 16
	.cfi_offset 13, -16
	pushq	%r12
	.cfi_def_cfa_offset 24
	.cfi_offset 12, -24
	pushq	%rbp
	.cfi_def_cfa_offset 32
	.cfi_offset 6, -32
	leaq	48(%rdi), %rbp
	pushq	%rbx
	.cfi_def_cfa_offset 40
	.cfi_offset 3, -40
	movq	%rdi, %rbx
	subq	$72, %rsp
	.cfi_def_cfa_offset 112
	movq	%rbp, %rdi
	movq	%fs:40, %rax
	movq	%rax, 56(%rsp)
	xorl	%eax, %eax
	call	pthread_mutex_lock@PLT
	movb	$1, 112(%rbx)
	movq	%rbp, %rdi
	call	pthread_mutex_unlock@PLT
	movq	160(%rbx), %rax
	pxor	%xmm0, %xmm0
	testq	%rax, %rax
	movaps	%xmm0, 16(%rsp)
	je	.L180
	xorl	%edi, %edi
	xorl	%edx, %edx
	xorl	%r8d, %r8d
	xorl	%r9d, %r9d
	jmp	.L179
	.p2align 4,,10
	.p2align 3
.L190:
	movq	32(%rax), %rsi
	testq	%rsi, %rsi
	je	.L191
	movq	%rcx, 24(%rsi)
	movq	24(%rax), %rcx
.L191:
	testq	%rcx, %rcx
	je	.L192
	movq	32(%rax), %rsi
	movq	%rsi, 32(%rcx)
.L192:
	movq	168(%rbx), %rcx
	movq	$0, 32(%rax)
	movq	%rcx, 24(%rax)
	movq	%rax, 168(%rbx)
	movq	160(%rbx), %rax
	testq	%rax, %rax
	je	.L249
.L179:
	movq	96(%rax), %rcx
	testq	%rcx, %rcx
	je	.L181
	testq	%rdx, %rdx
	je	.L250
	movq	%rcx, (%rdx)
.L183:
	movq	104(%rax), %rdx
	movq	$0, 96(%rax)
	movl	$1, %edi
	movq	$0, 104(%rax)
.L181:
	movq	112(%rax), %rcx
	testq	%rcx, %rcx
	je	.L184
	testq	%rdx, %rdx
	je	.L251
	movq	%rcx, (%rdx)
.L186:
	movq	120(%rax), %rdx
	movq	$0, 112(%rax)
	movl	$1, %edi
	movq	$0, 120(%rax)
.L184:
	movq	128(%rax), %rcx
	testq	%rcx, %rcx
	je	.L187
	testq	%rdx, %rdx
	je	.L252
	movq	%rcx, (%rdx)
.L189:
	movq	136(%rax), %rdx
	movq	$0, 128(%rax)
	movl	$1, %edi
	movq	$0, 136(%rax)
.L187:
	movb	$1, 144(%rax)
	cmpq	160(%rbx), %rax
	movq	24(%rax), %rcx
	jne	.L190
	movq	%rcx, 160(%rbx)
	movq	24(%rax), %rcx
	jmp	.L190
	.p2align 4,,10
	.p2align 3
.L250:
	movq	%rcx, %r9
	movl	$1, %r8d
	jmp	.L183
	.p2align 4,,10
	.p2align 3
.L251:
	movq	%rcx, %r9
	movl	$1, %r8d
	jmp	.L186
	.p2align 4,,10
	.p2align 3
.L252:
	movq	%rcx, %r9
	movl	$1, %r8d
	jmp	.L189
	.p2align 4,,10
	.p2align 3
.L249:
	testb	%r8b, %r8b
	jne	.L253
.L195:
	testb	%dil, %dil
	jne	.L254
	.p2align 4,,10
	.p2align 3
.L180:
	movq	104(%rbx), %rbx
	testq	%rbx, %rbx
	je	.L197
	leaq	16(%rsp), %rbp
	.p2align 4,,10
	.p2align 3
.L198:
	movq	(%rbx), %rax
	movq	%rbp, %rsi
	movq	%rbx, %rdi
.LEHB0:
	call	*48(%rax)
.LEHE0:
	movq	8(%rbx), %rbx
	testq	%rbx, %rbx
	jne	.L198
.L197:
	movq	16(%rsp), %rsi
	testq	%rsi, %rsi
	movq	%rsi, 8(%rsp)
	je	.L178
	pxor	%xmm0, %xmm0
	leaq	32(%rsp), %rbx
	movaps	%xmm0, 16(%rsp)
	call	_ZNSt3_V215system_categoryEv@PLT
	movq	%rax, %r12
	movq	8(%rsp), %rsi
	.p2align 4,,10
	.p2align 3
.L200:
	movq	(%rsi), %rbp
	movq	8(%rsi), %rax
	xorl	%ecx, %ecx
	movq	$0, (%rsi)
	xorl	%edi, %edi
	movl	$0, 32(%rsp)
	movq	%r12, 40(%rsp)
	movq	%rbx, %rdx
	call	*%rax
	testq	%rbp, %rbp
	movq	%rbp, %rsi
	jne	.L200
	movq	16(%rsp), %rsi
	testq	%rsi, %rsi
	movq	%rsi, 8(%rsp)
	je	.L178
	call	_ZNSt3_V215system_categoryEv@PLT
	movq	8(%rsp), %rsi
	movq	%rax, %rbp
	jmp	.L202
	.p2align 4,,10
	.p2align 3
.L203:
	movq	$0, (%rsi)
	movq	8(%rsi), %rax
	xorl	%ecx, %ecx
	xorl	%edi, %edi
	movl	$0, 32(%rsp)
	movq	%rbp, 40(%rsp)
	movq	%rbx, %rdx
	call	*%rax
	movq	16(%rsp), %rsi
	testq	%rsi, %rsi
	je	.L178
.L202:
	movq	(%rsi), %rax
	testq	%rax, %rax
	movq	%rax, 16(%rsp)
	jne	.L203
	movq	$0, 24(%rsp)
	jmp	.L203
	.p2align 4,,10
	.p2align 3
.L178:
	movq	56(%rsp), %rax
	xorq	%fs:40, %rax
	jne	.L255
	addq	$72, %rsp
	.cfi_remember_state
	.cfi_def_cfa_offset 40
	popq	%rbx
	.cfi_def_cfa_offset 32
	popq	%rbp
	.cfi_def_cfa_offset 24
	popq	%r12
	.cfi_def_cfa_offset 16
	popq	%r13
	.cfi_def_cfa_offset 8
	ret
.L210:
	.cfi_restore_state
	leaq	32(%rsp), %r12
	movq	%rax, %rbp
.L205:
	movq	16(%rsp), %rbx
	testq	%rbx, %rbx
	je	.L206
	movq	(%rbx), %rax
	testq	%rax, %rax
	movq	%rax, 16(%rsp)
	jne	.L207
	movq	$0, 24(%rsp)
.L207:
	movq	$0, (%rbx)
	movq	8(%rbx), %r13
	movl	$0, 32(%rsp)
	call	_ZNSt3_V215system_categoryEv@PLT
	xorl	%ecx, %ecx
	movq	%rax, 40(%rsp)
	movq	%r12, %rdx
	movq	%rbx, %rsi
	xorl	%edi, %edi
	call	*%r13
	jmp	.L205
.L206:
	movq	%rbp, %rdi
.LEHB1:
	call	_Unwind_Resume@PLT
.LEHE1:
.L254:
	movq	%rdx, 24(%rsp)
	jmp	.L180
.L253:
	movq	%r9, 16(%rsp)
	jmp	.L195
.L255:
	call	__stack_chk_fail@PLT
	.cfi_endproc
.LFE3195:
	.section	.gcc_except_table._ZN4asio6detail13epoll_reactor16shutdown_serviceEv,"aG",@progbits,_ZN4asio6detail13epoll_reactor16shutdown_serviceEv,comdat
.LLSDA3195:
	.byte	0xff
	.byte	0xff
	.byte	0x1
	.uleb128 .LLSDACSE3195-.LLSDACSB3195
.LLSDACSB3195:
	.uleb128 .LEHB0-.LFB3195
	.uleb128 .LEHE0-.LEHB0
	.uleb128 .L210-.LFB3195
	.uleb128 0
	.uleb128 .LEHB1-.LFB3195
	.uleb128 .LEHE1-.LEHB1
	.uleb128 0
	.uleb128 0
.LLSDACSE3195:
	.section	.text._ZN4asio6detail13epoll_reactor16shutdown_serviceEv,"axG",@progbits,_ZN4asio6detail13epoll_reactor16shutdown_serviceEv,comdat
	.size	_ZN4asio6detail13epoll_reactor16shutdown_serviceEv, .-_ZN4asio6detail13epoll_reactor16shutdown_serviceEv
	.text
	.p2align 4,,15
	.type	_ZN4asio6detail18completion_handlerINS0_7binder2IZN7asiopal13SerialChannel13BeginReadImplEN7openpal6WSliceEEUlRKSt10error_codemE_S7_mEEE11do_completeEPNS0_15task_io_serviceEPNS0_25task_io_service_operationES9_m, @function
_ZN4asio6detail18completion_handlerINS0_7binder2IZN7asiopal13SerialChannel13BeginReadImplEN7openpal6WSliceEEUlRKSt10error_codemE_S7_mEEE11do_completeEPNS0_15task_io_serviceEPNS0_25task_io_service_operationES9_m:
.LFB9197:
	.cfi_startproc
	.cfi_personality 0x9b,DW.ref.__gxx_personality_v0
	.cfi_lsda 0x1b,.LLSDA9197
	pushq	%r12
	.cfi_def_cfa_offset 16
	.cfi_offset 12, -16
	pushq	%rbp
	.cfi_def_cfa_offset 24
	.cfi_offset 6, -24
	movq	%rdi, %r12
	pushq	%rbx
	.cfi_def_cfa_offset 32
	.cfi_offset 3, -32
	movq	%rsi, %rbx
	subq	$80, %rsp
	.cfi_def_cfa_offset 112
	movdqu	24(%rsi), %xmm0
	leaq	32(%rsp), %rbp
	movq	%fs:40, %rax
	movq	%rax, 72(%rsp)
	xorl	%eax, %eax
	movaps	%xmm0, 32(%rsp)
	movq	%rsi, 8(%rsp)
	movq	%rbp, (%rsp)
	movdqu	40(%rsi), %xmm0
	movq	$0, 16(%rsp)
	movaps	%xmm0, 48(%rsp)
	.byte	0x66
	leaq	_ZN4asio6detail15keyword_tss_ptrINS0_10call_stackINS0_15task_io_serviceENS0_27task_io_service_thread_infoEE7contextEE6value_E@tlsgd(%rip), %rdi
	.value	0x6666
	rex64
	call	__tls_get_addr@PLT
	movq	(%rax), %rax
	testq	%rax, %rax
	je	.L257
	movq	8(%rax), %rax
	testq	%rax, %rax
	je	.L257
	cmpq	$0, (%rax)
	je	.L288
.L257:
	movq	%rbx, %rdi
	call	_ZdlPv@PLT
.L258:
	testq	%r12, %r12
	movq	$0, 8(%rsp)
	je	.L256
	movq	32(%rsp), %rax
	movq	56(%rsp), %rdx
	movq	40(%rax), %rdi
	movb	$0, 57(%rax)
	testq	%rdi, %rdi
	je	.L263
	cmpb	$0, 56(%rax)
	je	.L289
.L263:
	sfence
	cmpq	$0, 16(%rsp)
	je	.L290
.L261:
	movq	8(%rsp), %rbx
	movq	$0, 16(%rsp)
.L264:
	testq	%rbx, %rbx
	je	.L256
	.byte	0x66
	leaq	_ZN4asio6detail15keyword_tss_ptrINS0_10call_stackINS0_15task_io_serviceENS0_27task_io_service_thread_infoEE7contextEE6value_E@tlsgd(%rip), %rdi
	.value	0x6666
	rex64
	call	__tls_get_addr@PLT
	movq	(%rax), %rax
	testq	%rax, %rax
	je	.L267
	movq	8(%rax), %rax
	testq	%rax, %rax
	je	.L267
	cmpq	$0, (%rax)
	je	.L291
.L267:
	movq	%rbx, %rdi
	call	_ZdlPv@PLT
.L256:
	movq	72(%rsp), %rax
	xorq	%fs:40, %rax
	jne	.L292
	addq	$80, %rsp
	.cfi_remember_state
	.cfi_def_cfa_offset 32
	popq	%rbx
	.cfi_def_cfa_offset 24
	popq	%rbp
	.cfi_def_cfa_offset 16
	popq	%r12
	.cfi_def_cfa_offset 8
	ret
	.p2align 4,,10
	.p2align 3
.L289:
	.cfi_restore_state
	movq	(%rdi), %rax
	leaq	8(%rbp), %rsi
.LEHB2:
	call	*16(%rax)
.LEHE2:
	sfence
	cmpq	$0, 16(%rsp)
	jne	.L261
.L290:
	movq	8(%rsp), %rbx
	jmp	.L264
	.p2align 4,,10
	.p2align 3
.L288:
	movzbl	56(%rbx), %edx
	movb	%dl, (%rbx)
	movq	%rbx, (%rax)
	jmp	.L258
	.p2align 4,,10
	.p2align 3
.L291:
	movzbl	56(%rbx), %edx
	movb	%dl, (%rbx)
	movq	%rbx, (%rax)
	jmp	.L256
.L292:
	call	__stack_chk_fail@PLT
.L270:
	movq	%rsp, %rdx
	movq	%rax, %rbx
	sfence
	leaq	8(%rdx), %rdi
	leaq	16(%rdx), %rsi
	call	_ZN4asio6detail18completion_handlerINS0_7binder2IZN7asiopal13SerialChannel13BeginReadImplEN7openpal6WSliceEEUlRKSt10error_codemE_S7_mEEE3ptr5resetEv.isra.95
	movq	%rbx, %rdi
.LEHB3:
	call	_Unwind_Resume@PLT
.LEHE3:
	.cfi_endproc
.LFE9197:
	.section	.gcc_except_table,"a",@progbits
.LLSDA9197:
	.byte	0xff
	.byte	0xff
	.byte	0x1
	.uleb128 .LLSDACSE9197-.LLSDACSB9197
.LLSDACSB9197:
	.uleb128 .LEHB2-.LFB9197
	.uleb128 .LEHE2-.LEHB2
	.uleb128 .L270-.LFB9197
	.uleb128 0
	.uleb128 .LEHB3-.LFB9197
	.uleb128 .LEHE3-.LEHB3
	.uleb128 0
	.uleb128 0
.LLSDACSE9197:
	.text
	.size	_ZN4asio6detail18completion_handlerINS0_7binder2IZN7asiopal13SerialChannel13BeginReadImplEN7openpal6WSliceEEUlRKSt10error_codemE_S7_mEEE11do_completeEPNS0_15task_io_serviceEPNS0_25task_io_service_operationES9_m, .-_ZN4asio6detail18completion_handlerINS0_7binder2IZN7asiopal13SerialChannel13BeginReadImplEN7openpal6WSliceEEUlRKSt10error_codemE_S7_mEEE11do_completeEPNS0_15task_io_serviceEPNS0_25task_io_service_operationES9_m
	.p2align 4,,15
	.type	_ZN4asio6detail18completion_handlerINS0_7binder2IZN7asiopal13SerialChannel14BeginWriteImplERKN7openpal6RSliceEEUlRKSt10error_codemE_S9_mEEE11do_completeEPNS0_15task_io_serviceEPNS0_25task_io_service_operationESB_m, @function
_ZN4asio6detail18completion_handlerINS0_7binder2IZN7asiopal13SerialChannel14BeginWriteImplERKN7openpal6RSliceEEUlRKSt10error_codemE_S9_mEEE11do_completeEPNS0_15task_io_serviceEPNS0_25task_io_service_operationESB_m:
.LFB8835:
	.cfi_startproc
	.cfi_personality 0x9b,DW.ref.__gxx_personality_v0
	.cfi_lsda 0x1b,.LLSDA8835
	pushq	%r12
	.cfi_def_cfa_offset 16
	.cfi_offset 12, -16
	pushq	%rbp
	.cfi_def_cfa_offset 24
	.cfi_offset 6, -24
	movq	%rdi, %r12
	pushq	%rbx
	.cfi_def_cfa_offset 32
	.cfi_offset 3, -32
	movq	%rsi, %rbx
	subq	$80, %rsp
	.cfi_def_cfa_offset 112
	movdqu	24(%rsi), %xmm0
	leaq	32(%rsp), %rbp
	movq	%fs:40, %rax
	movq	%rax, 72(%rsp)
	xorl	%eax, %eax
	movaps	%xmm0, 32(%rsp)
	movq	%rsi, 8(%rsp)
	movq	%rbp, (%rsp)
	movdqu	40(%rsi), %xmm0
	movq	$0, 16(%rsp)
	movaps	%xmm0, 48(%rsp)
	.byte	0x66
	leaq	_ZN4asio6detail15keyword_tss_ptrINS0_10call_stackINS0_15task_io_serviceENS0_27task_io_service_thread_infoEE7contextEE6value_E@tlsgd(%rip), %rdi
	.value	0x6666
	rex64
	call	__tls_get_addr@PLT
	movq	(%rax), %rax
	testq	%rax, %rax
	je	.L294
	movq	8(%rax), %rax
	testq	%rax, %rax
	je	.L294
	cmpq	$0, (%rax)
	je	.L325
.L294:
	movq	%rbx, %rdi
	call	_ZdlPv@PLT
.L295:
	testq	%r12, %r12
	movq	$0, 8(%rsp)
	je	.L293
	movq	32(%rsp), %rax
	movq	56(%rsp), %rdx
	movq	40(%rax), %rdi
	movb	$0, 58(%rax)
	testq	%rdi, %rdi
	je	.L300
	cmpb	$0, 56(%rax)
	je	.L326
.L300:
	sfence
	cmpq	$0, 16(%rsp)
	je	.L327
.L298:
	movq	8(%rsp), %rbx
	movq	$0, 16(%rsp)
.L301:
	testq	%rbx, %rbx
	je	.L293
	.byte	0x66
	leaq	_ZN4asio6detail15keyword_tss_ptrINS0_10call_stackINS0_15task_io_serviceENS0_27task_io_service_thread_infoEE7contextEE6value_E@tlsgd(%rip), %rdi
	.value	0x6666
	rex64
	call	__tls_get_addr@PLT
	movq	(%rax), %rax
	testq	%rax, %rax
	je	.L304
	movq	8(%rax), %rax
	testq	%rax, %rax
	je	.L304
	cmpq	$0, (%rax)
	je	.L328
.L304:
	movq	%rbx, %rdi
	call	_ZdlPv@PLT
.L293:
	movq	72(%rsp), %rax
	xorq	%fs:40, %rax
	jne	.L329
	addq	$80, %rsp
	.cfi_remember_state
	.cfi_def_cfa_offset 32
	popq	%rbx
	.cfi_def_cfa_offset 24
	popq	%rbp
	.cfi_def_cfa_offset 16
	popq	%r12
	.cfi_def_cfa_offset 8
	ret
	.p2align 4,,10
	.p2align 3
.L326:
	.cfi_restore_state
	movq	(%rdi), %rax
	leaq	8(%rbp), %rsi
.LEHB4:
	call	*24(%rax)
.LEHE4:
	sfence
	cmpq	$0, 16(%rsp)
	jne	.L298
.L327:
	movq	8(%rsp), %rbx
	jmp	.L301
	.p2align 4,,10
	.p2align 3
.L325:
	movzbl	56(%rbx), %edx
	movb	%dl, (%rbx)
	movq	%rbx, (%rax)
	jmp	.L295
	.p2align 4,,10
	.p2align 3
.L328:
	movzbl	56(%rbx), %edx
	movb	%dl, (%rbx)
	movq	%rbx, (%rax)
	jmp	.L293
.L329:
	call	__stack_chk_fail@PLT
.L307:
	movq	%rsp, %rdx
	movq	%rax, %rbx
	sfence
	leaq	8(%rdx), %rdi
	leaq	16(%rdx), %rsi
	call	_ZN4asio6detail18completion_handlerINS0_7binder2IZN7asiopal13SerialChannel14BeginWriteImplERKN7openpal6RSliceEEUlRKSt10error_codemE_S9_mEEE3ptr5resetEv.isra.109
	movq	%rbx, %rdi
.LEHB5:
	call	_Unwind_Resume@PLT
.LEHE5:
	.cfi_endproc
.LFE8835:
	.section	.gcc_except_table
.LLSDA8835:
	.byte	0xff
	.byte	0xff
	.byte	0x1
	.uleb128 .LLSDACSE8835-.LLSDACSB8835
.LLSDACSB8835:
	.uleb128 .LEHB4-.LFB8835
	.uleb128 .LEHE4-.LEHB4
	.uleb128 .L307-.LFB8835
	.uleb128 0
	.uleb128 .LEHB5-.LFB8835
	.uleb128 .LEHE5-.LEHB5
	.uleb128 0
	.uleb128 0
.LLSDACSE8835:
	.text
	.size	_ZN4asio6detail18completion_handlerINS0_7binder2IZN7asiopal13SerialChannel14BeginWriteImplERKN7openpal6RSliceEEUlRKSt10error_codemE_S9_mEEE11do_completeEPNS0_15task_io_serviceEPNS0_25task_io_service_operationESB_m, .-_ZN4asio6detail18completion_handlerINS0_7binder2IZN7asiopal13SerialChannel14BeginWriteImplERKN7openpal6RSliceEEUlRKSt10error_codemE_S9_mEEE11do_completeEPNS0_15task_io_serviceEPNS0_25task_io_service_operationESB_m
	.section	.text._ZN4asio6detail13epoll_reactorD0Ev,"axG",@progbits,_ZN4asio6detail13epoll_reactorD5Ev,comdat
	.align 2
	.p2align 4,,15
	.weak	_ZN4asio6detail13epoll_reactorD0Ev
	.type	_ZN4asio6detail13epoll_reactorD0Ev, @function
_ZN4asio6detail13epoll_reactorD0Ev:
.LFB3194:
	.cfi_startproc
	.cfi_personality 0x9b,DW.ref.__gxx_personality_v0
	.cfi_lsda 0x1b,.LLSDA3194
	pushq	%r15
	.cfi_def_cfa_offset 16
	.cfi_offset 15, -16
	pushq	%r14
	.cfi_def_cfa_offset 24
	.cfi_offset 14, -24
	movq	%rdi, %r15
	pushq	%r13
	.cfi_def_cfa_offset 32
	.cfi_offset 13, -32
	pushq	%r12
	.cfi_def_cfa_offset 40
	.cfi_offset 12, -40
	pushq	%rbp
	.cfi_def_cfa_offset 48
	.cfi_offset 6, -48
	pushq	%rbx
	.cfi_def_cfa_offset 56
	.cfi_offset 3, -56
	subq	$56, %rsp
	.cfi_def_cfa_offset 112
	movq	%fs:40, %rax
	movq	%rax, 40(%rsp)
	xorl	%eax, %eax
	movq	_ZTVN4asio6detail13epoll_reactorE@GOTPCREL(%rip), %rax
	addq	$16, %rax
	movq	%rax, (%rdi)
	movl	96(%rdi), %edi
	cmpl	$-1, %edi
	je	.L331
	call	close@PLT
.L331:
	movl	100(%r15), %edi
	cmpl	$-1, %edi
	je	.L332
	call	close@PLT
.L332:
	movq	160(%r15), %r12
	testq	%r12, %r12
	je	.L333
	leaq	16(%rsp), %rbp
	.p2align 4,,10
	.p2align 3
.L339:
	movq	24(%r12), %rax
	leaq	128(%r12), %r14
	leaq	80(%r12), %r13
	movq	%rax, 8(%rsp)
.L338:
	movq	(%r14), %rsi
	testq	%rsi, %rsi
	movq	%rsi, (%rsp)
	je	.L334
	call	_ZNSt3_V215system_categoryEv@PLT
	movq	(%rsp), %rsi
	movq	%rax, %rbx
	jmp	.L335
	.p2align 4,,10
	.p2align 3
.L336:
	movq	$0, (%rsi)
	movq	8(%rsi), %rax
	xorl	%ecx, %ecx
	xorl	%edi, %edi
	movl	$0, 16(%rsp)
	movq	%rbx, 24(%rsp)
	movq	%rbp, %rdx
	call	*%rax
	movq	(%r14), %rsi
	testq	%rsi, %rsi
	je	.L334
.L335:
	movq	(%rsi), %rax
	testq	%rax, %rax
	movq	%rax, (%r14)
	jne	.L336
	movq	$0, 8(%r14)
	jmp	.L336
	.p2align 4,,10
	.p2align 3
.L334:
	subq	$16, %r14
	cmpq	%r13, %r14
	jne	.L338
	leaq	40(%r12), %rdi
	call	pthread_mutex_destroy@PLT
	movq	%r12, %rdi
	movl	$152, %esi
	call	_ZdlPvm@PLT
	movq	8(%rsp), %r12
	testq	%r12, %r12
	jne	.L339
.L333:
	movq	168(%r15), %r12
	testq	%r12, %r12
	je	.L340
	leaq	16(%rsp), %rbp
	.p2align 4,,10
	.p2align 3
.L346:
	movq	24(%r12), %rax
	leaq	144(%r12), %r14
	leaq	96(%r12), %r13
	movq	%rax, 8(%rsp)
.L345:
	subq	$16, %r14
	movq	(%r14), %rsi
	testq	%rsi, %rsi
	movq	%rsi, (%rsp)
	je	.L341
	call	_ZNSt3_V215system_categoryEv@PLT
	movq	(%rsp), %rsi
	movq	%rax, %rbx
	jmp	.L342
	.p2align 4,,10
	.p2align 3
.L343:
	movq	$0, (%rsi)
	movq	8(%rsi), %rax
	xorl	%ecx, %ecx
	xorl	%edi, %edi
	movl	$0, 16(%rsp)
	movq	%rbx, 24(%rsp)
	movq	%rbp, %rdx
	call	*%rax
	movq	(%r14), %rsi
	testq	%rsi, %rsi
	je	.L341
.L342:
	movq	(%rsi), %rax
	testq	%rax, %rax
	movq	%rax, (%r14)
	jne	.L343
	movq	$0, 8(%r14)
	jmp	.L343
	.p2align 4,,10
	.p2align 3
.L341:
	cmpq	%r13, %r14
	jne	.L345
	leaq	40(%r12), %rdi
	call	pthread_mutex_destroy@PLT
	movq	%r12, %rdi
	movl	$152, %esi
	call	_ZdlPvm@PLT
	movq	8(%rsp), %r12
	testq	%r12, %r12
	jne	.L346
.L340:
	leaq	120(%r15), %rdi
	call	pthread_mutex_destroy@PLT
	movl	92(%r15), %eax
	cmpl	$-1, %eax
	je	.L347
	movl	88(%r15), %edi
	cmpl	%edi, %eax
	jne	.L388
.L348:
	call	close@PLT
.L349:
	leaq	48(%r15), %rdi
	call	pthread_mutex_destroy@PLT
	movl	$176, %esi
	movq	%r15, %rdi
	call	_ZdlPvm@PLT
	movq	40(%rsp), %rax
	xorq	%fs:40, %rax
	jne	.L389
	addq	$56, %rsp
	.cfi_remember_state
	.cfi_def_cfa_offset 56
	popq	%rbx
	.cfi_def_cfa_offset 48
	popq	%rbp
	.cfi_def_cfa_offset 40
	popq	%r12
	.cfi_def_cfa_offset 32
	popq	%r13
	.cfi_def_cfa_offset 24
	popq	%r14
	.cfi_def_cfa_offset 16
	popq	%r15
	.cfi_def_cfa_offset 8
	ret
.L388:
	.cfi_restore_state
	movl	%eax, %edi
	call	close@PLT
.L347:
	movl	88(%r15), %edi
	cmpl	$-1, %edi
	je	.L349
	jmp	.L348
.L389:
	call	__stack_chk_fail@PLT
	.cfi_endproc
.LFE3194:
	.section	.gcc_except_table
.LLSDA3194:
	.byte	0xff
	.byte	0xff
	.byte	0x1
	.uleb128 .LLSDACSE3194-.LLSDACSB3194
.LLSDACSB3194:
.LLSDACSE3194:
	.section	.text._ZN4asio6detail13epoll_reactorD0Ev,"axG",@progbits,_ZN4asio6detail13epoll_reactorD5Ev,comdat
	.size	_ZN4asio6detail13epoll_reactorD0Ev, .-_ZN4asio6detail13epoll_reactorD0Ev
	.section	.text._ZN4asio6detail24descriptor_write_op_baseINS_15const_buffers_1EE10do_performEPNS0_10reactor_opE,"axG",@progbits,_ZN4asio6detail24descriptor_write_op_baseINS_15const_buffers_1EE10do_performEPNS0_10reactor_opE,comdat
	.p2align 4,,15
	.weak	_ZN4asio6detail24descriptor_write_op_baseINS_15const_buffers_1EE10do_performEPNS0_10reactor_opE
	.type	_ZN4asio6detail24descriptor_write_op_baseINS_15const_buffers_1EE10do_performEPNS0_10reactor_opE, @function
_ZN4asio6detail24descriptor_write_op_baseINS_15const_buffers_1EE10do_performEPNS0_10reactor_opE:
.LFB9069:
	.cfi_startproc
	pushq	%r15
	.cfi_def_cfa_offset 16
	.cfi_offset 15, -16
	pushq	%r14
	.cfi_def_cfa_offset 24
	.cfi_offset 14, -24
	movq	%rdi, %r14
	pushq	%r13
	.cfi_def_cfa_offset 32
	.cfi_offset 13, -32
	pushq	%r12
	.cfi_def_cfa_offset 40
	.cfi_offset 12, -40
	pushq	%rbp
	.cfi_def_cfa_offset 48
	.cfi_offset 6, -48
	pushq	%rbx
	.cfi_def_cfa_offset 56
	.cfi_offset 3, -56
	subq	$56, %rsp
	.cfi_def_cfa_offset 112
	movq	64(%rdi), %rdx
	movl	56(%rdi), %r15d
	movq	%fs:40, %rax
	movq	%rax, 40(%rsp)
	xorl	%eax, %eax
	movq	72(%rdi), %rax
	movq	%rdx, 16(%rsp)
	movq	%rax, 24(%rsp)
	movq	%rax, 32(%rsp)
	call	__errno_location@PLT
	movq	_ZGVZN4asio15system_categoryEvE8instance@GOTPCREL(%rip), %rbx
	movq	%rax, %r12
	movq	_ZZN4asio15system_categoryEvE8instance@GOTPCREL(%rip), %rbp
	leaq	16(%rsp), %rax
	movq	%rax, 8(%rsp)
.L398:
	movq	8(%rsp), %rsi
	movl	$0, (%r12)
	movl	$1, %edx
	movl	%r15d, %edi
	call	writev@PLT
	movq	%rax, %r13
	movzbl	(%rbx), %eax
	testb	%al, %al
	je	.L426
.L392:
	movl	(%r12), %eax
	movq	%rbp, 32(%r14)
	movl	%eax, 24(%r14)
	movzbl	(%rbx), %eax
	testb	%al, %al
	je	.L427
.L395:
	cmpq	%rbp, 32(%r14)
	jne	.L397
	cmpl	$4, 24(%r14)
	je	.L398
.L397:
	movzbl	(%rbx), %eax
	testb	%al, %al
	je	.L428
.L400:
	cmpq	%rbp, 32(%r14)
	je	.L429
.L402:
	movzbl	(%rbx), %eax
	testb	%al, %al
	je	.L430
.L405:
	cmpq	%rbp, 32(%r14)
	je	.L431
.L407:
	testq	%r13, %r13
	js	.L409
	call	_ZNSt3_V215system_categoryEv@PLT
	movl	$0, 24(%r14)
	movq	%rax, 32(%r14)
	movl	$1, %eax
	movq	%r13, 40(%r14)
.L390:
	movq	40(%rsp), %rcx
	xorq	%fs:40, %rcx
	jne	.L432
	addq	$56, %rsp
	.cfi_remember_state
	.cfi_def_cfa_offset 56
	popq	%rbx
	.cfi_def_cfa_offset 48
	popq	%rbp
	.cfi_def_cfa_offset 40
	popq	%r12
	.cfi_def_cfa_offset 32
	popq	%r13
	.cfi_def_cfa_offset 24
	popq	%r14
	.cfi_def_cfa_offset 16
	popq	%r15
	.cfi_def_cfa_offset 8
	ret
	.p2align 4,,10
	.p2align 3
.L409:
	.cfi_restore_state
	movq	$0, 40(%r14)
	movl	$1, %eax
	jmp	.L390
	.p2align 4,,10
	.p2align 3
.L429:
	cmpl	$11, 24(%r14)
	jne	.L402
	xorl	%eax, %eax
	jmp	.L390
	.p2align 4,,10
	.p2align 3
.L426:
	movq	%rbx, %rdi
	call	__cxa_guard_acquire@PLT
	testl	%eax, %eax
	je	.L392
	movq	%rbx, %rdi
	call	__cxa_guard_release@PLT
	movq	_ZN4asio6detail15system_categoryD1Ev@GOTPCREL(%rip), %rdi
	leaq	__dso_handle(%rip), %rdx
	movq	%rbp, %rsi
	call	__cxa_atexit@PLT
	jmp	.L392
	.p2align 4,,10
	.p2align 3
.L427:
	movq	%rbx, %rdi
	call	__cxa_guard_acquire@PLT
	testl	%eax, %eax
	je	.L395
	movq	%rbx, %rdi
	call	__cxa_guard_release@PLT
	movq	_ZN4asio6detail15system_categoryD1Ev@GOTPCREL(%rip), %rdi
	leaq	__dso_handle(%rip), %rdx
	movq	%rbp, %rsi
	call	__cxa_atexit@PLT
	jmp	.L395
	.p2align 4,,10
	.p2align 3
.L428:
	movq	%rbx, %rdi
	call	__cxa_guard_acquire@PLT
	testl	%eax, %eax
	je	.L400
	movq	%rbx, %rdi
	call	__cxa_guard_release@PLT
	movq	_ZN4asio6detail15system_categoryD1Ev@GOTPCREL(%rip), %rdi
	leaq	__dso_handle(%rip), %rdx
	movq	%rbp, %rsi
	call	__cxa_atexit@PLT
	jmp	.L400
	.p2align 4,,10
	.p2align 3
.L430:
	movq	%rbx, %rdi
	call	__cxa_guard_acquire@PLT
	testl	%eax, %eax
	je	.L405
	movq	%rbx, %rdi
	call	__cxa_guard_release@PLT
	movq	_ZN4asio6detail15system_categoryD1Ev@GOTPCREL(%rip), %rdi
	leaq	__dso_handle(%rip), %rdx
	movq	%rbp, %rsi
	call	__cxa_atexit@PLT
	cmpq	%rbp, 32(%r14)
	jne	.L407
	.p2align 4,,10
	.p2align 3
.L431:
	cmpl	$11, 24(%r14)
	jne	.L407
	xorl	%eax, %eax
	jmp	.L390
.L432:
	call	__stack_chk_fail@PLT
	.cfi_endproc
.LFE9069:
	.size	_ZN4asio6detail24descriptor_write_op_baseINS_15const_buffers_1EE10do_performEPNS0_10reactor_opE, .-_ZN4asio6detail24descriptor_write_op_baseINS_15const_buffers_1EE10do_performEPNS0_10reactor_opE
	.section	.text._ZN4asio6detail23descriptor_read_op_baseINS_17mutable_buffers_1EE10do_performEPNS0_10reactor_opE,"axG",@progbits,_ZN4asio6detail23descriptor_read_op_baseINS_17mutable_buffers_1EE10do_performEPNS0_10reactor_opE,comdat
	.p2align 4,,15
	.weak	_ZN4asio6detail23descriptor_read_op_baseINS_17mutable_buffers_1EE10do_performEPNS0_10reactor_opE
	.type	_ZN4asio6detail23descriptor_read_op_baseINS_17mutable_buffers_1EE10do_performEPNS0_10reactor_opE, @function
_ZN4asio6detail23descriptor_read_op_baseINS_17mutable_buffers_1EE10do_performEPNS0_10reactor_opE:
.LFB8947:
	.cfi_startproc
	pushq	%r15
	.cfi_def_cfa_offset 16
	.cfi_offset 15, -16
	pushq	%r14
	.cfi_def_cfa_offset 24
	.cfi_offset 14, -24
	movq	%rdi, %r14
	pushq	%r13
	.cfi_def_cfa_offset 32
	.cfi_offset 13, -32
	pushq	%r12
	.cfi_def_cfa_offset 40
	.cfi_offset 12, -40
	pushq	%rbp
	.cfi_def_cfa_offset 48
	.cfi_offset 6, -48
	pushq	%rbx
	.cfi_def_cfa_offset 56
	.cfi_offset 3, -56
	subq	$56, %rsp
	.cfi_def_cfa_offset 112
	movq	64(%rdi), %rdx
	movl	56(%rdi), %r15d
	movq	%fs:40, %rax
	movq	%rax, 40(%rsp)
	xorl	%eax, %eax
	movq	72(%rdi), %rax
	movq	%rdx, 16(%rsp)
	movq	%rax, 24(%rsp)
	movq	%rax, 32(%rsp)
	call	__errno_location@PLT
	movq	_ZGVZN4asio15system_categoryEvE8instance@GOTPCREL(%rip), %rbx
	movq	%rax, %r13
	movq	_ZZN4asio15system_categoryEvE8instance@GOTPCREL(%rip), %rbp
	leaq	16(%rsp), %rax
	movq	%rax, 8(%rsp)
.L446:
	movq	8(%rsp), %rsi
	movl	$0, 0(%r13)
	movl	$1, %edx
	movl	%r15d, %edi
	call	readv@PLT
	movq	%rax, %r12
	movzbl	(%rbx), %eax
	testb	%al, %al
	je	.L477
.L435:
	movl	0(%r13), %eax
	testq	%r12, %r12
	movq	%rbp, 32(%r14)
	movl	%eax, 24(%r14)
	je	.L478
	movzbl	(%rbx), %eax
	testb	%al, %al
	je	.L479
.L443:
	cmpq	%rbp, 32(%r14)
	jne	.L445
	cmpl	$4, 24(%r14)
	je	.L446
.L445:
	movzbl	(%rbx), %eax
	testb	%al, %al
	je	.L480
.L448:
	cmpq	%rbp, 32(%r14)
	je	.L481
.L450:
	movzbl	(%rbx), %eax
	testb	%al, %al
	je	.L482
.L452:
	cmpq	%rbp, 32(%r14)
	je	.L483
.L454:
	testq	%r12, %r12
	jle	.L456
	call	_ZNSt3_V215system_categoryEv@PLT
	movl	$0, 24(%r14)
	movq	%rax, 32(%r14)
	movl	$1, %eax
	movq	%r12, 40(%r14)
.L433:
	movq	40(%rsp), %rcx
	xorq	%fs:40, %rcx
	jne	.L484
	addq	$56, %rsp
	.cfi_remember_state
	.cfi_def_cfa_offset 56
	popq	%rbx
	.cfi_def_cfa_offset 48
	popq	%rbp
	.cfi_def_cfa_offset 40
	popq	%r12
	.cfi_def_cfa_offset 32
	popq	%r13
	.cfi_def_cfa_offset 24
	popq	%r14
	.cfi_def_cfa_offset 16
	popq	%r15
	.cfi_def_cfa_offset 8
	ret
	.p2align 4,,10
	.p2align 3
.L456:
	.cfi_restore_state
	movq	$0, 40(%r14)
	movl	$1, %eax
	jmp	.L433
	.p2align 4,,10
	.p2align 3
.L477:
	movq	%rbx, %rdi
	call	__cxa_guard_acquire@PLT
	testl	%eax, %eax
	je	.L435
	movq	%rbx, %rdi
	call	__cxa_guard_release@PLT
	movq	_ZN4asio6detail15system_categoryD1Ev@GOTPCREL(%rip), %rdi
	leaq	__dso_handle(%rip), %rdx
	movq	%rbp, %rsi
	call	__cxa_atexit@PLT
	jmp	.L435
	.p2align 4,,10
	.p2align 3
.L481:
	cmpl	$11, 24(%r14)
	jne	.L450
	xorl	%eax, %eax
	jmp	.L433
	.p2align 4,,10
	.p2align 3
.L479:
	movq	%rbx, %rdi
	call	__cxa_guard_acquire@PLT
	testl	%eax, %eax
	je	.L443
	movq	%rbx, %rdi
	call	__cxa_guard_release@PLT
	movq	_ZN4asio6detail15system_categoryD1Ev@GOTPCREL(%rip), %rdi
	leaq	__dso_handle(%rip), %rdx
	movq	%rbp, %rsi
	call	__cxa_atexit@PLT
	jmp	.L443
	.p2align 4,,10
	.p2align 3
.L480:
	movq	%rbx, %rdi
	call	__cxa_guard_acquire@PLT
	testl	%eax, %eax
	je	.L448
	movq	%rbx, %rdi
	call	__cxa_guard_release@PLT
	movq	_ZN4asio6detail15system_categoryD1Ev@GOTPCREL(%rip), %rdi
	leaq	__dso_handle(%rip), %rdx
	movq	%rbp, %rsi
	call	__cxa_atexit@PLT
	jmp	.L448
	.p2align 4,,10
	.p2align 3
.L482:
	movq	%rbx, %rdi
	call	__cxa_guard_acquire@PLT
	testl	%eax, %eax
	je	.L452
	movq	%rbx, %rdi
	call	__cxa_guard_release@PLT
	movq	_ZN4asio6detail15system_categoryD1Ev@GOTPCREL(%rip), %rdi
	leaq	__dso_handle(%rip), %rdx
	movq	%rbp, %rsi
	call	__cxa_atexit@PLT
	cmpq	%rbp, 32(%r14)
	jne	.L454
	.p2align 4,,10
	.p2align 3
.L483:
	cmpl	$11, 24(%r14)
	jne	.L454
	xorl	%eax, %eax
	jmp	.L433
	.p2align 4,,10
	.p2align 3
.L478:
	movq	_ZGVZN4asio5error17get_misc_categoryEvE8instance@GOTPCREL(%rip), %rbx
	movzbl	(%rbx), %eax
	testb	%al, %al
	je	.L438
.L475:
	movq	_ZZN4asio5error17get_misc_categoryEvE8instance@GOTPCREL(%rip), %rbx
.L439:
	movl	$2, 24(%r14)
	movq	%rbx, 32(%r14)
	movl	$1, %eax
	jmp	.L433
	.p2align 4,,10
	.p2align 3
.L438:
	movq	%rbx, %rdi
	call	__cxa_guard_acquire@PLT
	testl	%eax, %eax
	je	.L475
	movq	%rbx, %rdi
	call	__cxa_guard_release@PLT
	movq	_ZZN4asio5error17get_misc_categoryEvE8instance@GOTPCREL(%rip), %rbx
	movq	_ZN4asio5error6detail13misc_categoryD1Ev@GOTPCREL(%rip), %rdi
	leaq	__dso_handle(%rip), %rdx
	movq	%rbx, %rsi
	call	__cxa_atexit@PLT
	jmp	.L439
.L484:
	call	__stack_chk_fail@PLT
	.cfi_endproc
.LFE8947:
	.size	_ZN4asio6detail23descriptor_read_op_baseINS_17mutable_buffers_1EE10do_performEPNS0_10reactor_opE, .-_ZN4asio6detail23descriptor_read_op_baseINS_17mutable_buffers_1EE10do_performEPNS0_10reactor_opE
	.section	.rodata._ZNK4asio6detail15system_category7messageB5cxx11Ei.str1.8,"aMS",@progbits,1
	.align 8
.LC4:
	.string	"basic_string::_M_construct null not valid"
	.section	.text._ZNK4asio6detail15system_category7messageB5cxx11Ei,"axG",@progbits,_ZNK4asio6detail15system_category7messageB5cxx11Ei,comdat
	.align 2
	.p2align 4,,15
	.weak	_ZNK4asio6detail15system_category7messageB5cxx11Ei
	.type	_ZNK4asio6detail15system_category7messageB5cxx11Ei, @function
_ZNK4asio6detail15system_category7messageB5cxx11Ei:
.LFB2313:
	.cfi_startproc
	pushq	%r13
	.cfi_def_cfa_offset 16
	.cfi_offset 13, -16
	pushq	%r12
	.cfi_def_cfa_offset 24
	.cfi_offset 12, -24
	pushq	%rbp
	.cfi_def_cfa_offset 32
	.cfi_offset 6, -32
	pushq	%rbx
	.cfi_def_cfa_offset 40
	.cfi_offset 3, -40
	leaq	16(%rdi), %rbp
	movq	%rdi, %rbx
	subq	$296, %rsp
	.cfi_def_cfa_offset 336
	movq	%fs:40, %rax
	movq	%rax, 280(%rsp)
	xorl	%eax, %eax
	cmpl	$125, %edx
	je	.L500
	pxor	%xmm0, %xmm0
	leaq	32(%rsp), %rdi
	movl	%edx, %r8d
	xorl	%eax, %eax
	movl	$30, %ecx
	leaq	16(%rsp), %rsi
	rep stosq
	movl	$256, %edx
	movl	%r8d, %edi
	movaps	%xmm0, 16(%rsp)
	call	strerror_r@PLT
	testq	%rax, %rax
	movq	%rax, %r12
	movq	%rbp, (%rbx)
	je	.L488
	movq	%rax, %rdi
	call	strlen@PLT
	cmpq	$15, %rax
	movq	%rax, %r13
	movq	%rax, 8(%rsp)
	ja	.L501
	cmpq	$1, %rax
	jne	.L492
	movzbl	(%r12), %edx
	movb	%dl, 16(%rbx)
.L493:
	movq	%rax, 8(%rbx)
	movb	$0, 0(%rbp,%rax)
.L485:
	movq	280(%rsp), %rcx
	xorq	%fs:40, %rcx
	movq	%rbx, %rax
	jne	.L502
	addq	$296, %rsp
	.cfi_remember_state
	.cfi_def_cfa_offset 40
	popq	%rbx
	.cfi_def_cfa_offset 32
	popq	%rbp
	.cfi_def_cfa_offset 24
	popq	%r12
	.cfi_def_cfa_offset 16
	popq	%r13
	.cfi_def_cfa_offset 8
	ret
	.p2align 4,,10
	.p2align 3
.L501:
	.cfi_restore_state
	leaq	8(%rsp), %rsi
	xorl	%edx, %edx
	movq	%rbx, %rdi
	call	_ZNSt7__cxx1112basic_stringIcSt11char_traitsIcESaIcEE9_M_createERmm@PLT
	movq	%rax, %rbp
	movq	%rax, (%rbx)
	movq	8(%rsp), %rax
	movq	%rax, 16(%rbx)
.L491:
	movq	%rbp, %rdi
	movq	%r13, %rdx
	movq	%r12, %rsi
	call	memcpy@PLT
	movq	8(%rsp), %rax
	movq	(%rbx), %rbp
	jmp	.L493
	.p2align 4,,10
	.p2align 3
.L500:
	leaq	8(%rsp), %rsi
	xorl	%edx, %edx
	movq	%rbp, (%rdi)
	movq	$18, 8(%rsp)
	call	_ZNSt7__cxx1112basic_stringIcSt11char_traitsIcESaIcEE9_M_createERmm@PLT
	movq	8(%rsp), %rdx
	movq	%rax, (%rbx)
	movdqa	.LC5(%rip), %xmm0
	movq	%rdx, 16(%rbx)
	movl	$11876, %edx
	movups	%xmm0, (%rax)
	movw	%dx, 16(%rax)
	movq	8(%rsp), %rax
	movq	(%rbx), %rdx
	movq	%rax, 8(%rbx)
	movb	$0, (%rdx,%rax)
	jmp	.L485
	.p2align 4,,10
	.p2align 3
.L492:
	testq	%rax, %rax
	je	.L493
	jmp	.L491
.L502:
	call	__stack_chk_fail@PLT
.L488:
	leaq	.LC4(%rip), %rdi
	call	_ZSt19__throw_logic_errorPKc@PLT
	.cfi_endproc
.LFE2313:
	.size	_ZNK4asio6detail15system_category7messageB5cxx11Ei, .-_ZNK4asio6detail15system_category7messageB5cxx11Ei
	.section	.text._ZNK4asio5error6detail17addrinfo_category7messageB5cxx11Ei,"axG",@progbits,_ZNK4asio5error6detail17addrinfo_category7messageB5cxx11Ei,comdat
	.align 2
	.p2align 4,,15
	.weak	_ZNK4asio5error6detail17addrinfo_category7messageB5cxx11Ei
	.type	_ZNK4asio5error6detail17addrinfo_category7messageB5cxx11Ei, @function
_ZNK4asio5error6detail17addrinfo_category7messageB5cxx11Ei:
.LFB2359:
	.cfi_startproc
	pushq	%rbx
	.cfi_def_cfa_offset 16
	.cfi_offset 3, -16
	movq	%rdi, %rbx
	subq	$16, %rsp
	.cfi_def_cfa_offset 32
	movq	%fs:40, %rax
	movq	%rax, 8(%rsp)
	xorl	%eax, %eax
	leaq	16(%rdi), %rax
	cmpl	$-8, %edx
	movq	%rax, (%rdi)
	je	.L509
	cmpl	$-7, %edx
	je	.L510
	xorl	%edx, %edx
	movq	%rsp, %rsi
	movq	$19, (%rsp)
	call	_ZNSt7__cxx1112basic_stringIcSt11char_traitsIcESaIcEE9_M_createERmm@PLT
	movq	(%rsp), %rdx
	movq	%rax, (%rbx)
	movdqa	.LC8(%rip), %xmm0
	movq	%rdx, 16(%rbx)
	movl	$28530, %edx
	movb	$114, 18(%rax)
	movups	%xmm0, (%rax)
	movw	%dx, 16(%rax)
	movq	(%rsp), %rax
	movq	(%rbx), %rdx
	movq	%rax, 8(%rbx)
	movb	$0, (%rdx,%rax)
.L503:
	movq	8(%rsp), %rcx
	xorq	%fs:40, %rcx
	movq	%rbx, %rax
	jne	.L511
	addq	$16, %rsp
	.cfi_remember_state
	.cfi_def_cfa_offset 16
	popq	%rbx
	.cfi_def_cfa_offset 8
	ret
	.p2align 4,,10
	.p2align 3
.L510:
	.cfi_restore_state
	xorl	%edx, %edx
	movq	%rsp, %rsi
	movq	$25, (%rsp)
	call	_ZNSt7__cxx1112basic_stringIcSt11char_traitsIcESaIcEE9_M_createERmm@PLT
	movq	(%rsp), %rdx
	movabsq	$7310593918082512243, %rcx
	movq	%rax, (%rbx)
	movdqa	.LC7(%rip), %xmm0
	movq	%rdx, 16(%rbx)
	movq	%rcx, 16(%rax)
	movups	%xmm0, (%rax)
	movb	$100, 24(%rax)
	movq	(%rsp), %rax
	movq	(%rbx), %rdx
	movq	%rax, 8(%rbx)
	movb	$0, (%rdx,%rax)
	jmp	.L503
	.p2align 4,,10
	.p2align 3
.L509:
	xorl	%edx, %edx
	movq	%rsp, %rsi
	movq	$17, (%rsp)
	call	_ZNSt7__cxx1112basic_stringIcSt11char_traitsIcESaIcEE9_M_createERmm@PLT
	movq	(%rsp), %rdx
	movq	%rax, (%rbx)
	movdqa	.LC6(%rip), %xmm0
	movq	%rdx, 16(%rbx)
	movb	$100, 16(%rax)
	movups	%xmm0, (%rax)
	movq	(%rsp), %rax
	movq	(%rbx), %rdx
	movq	%rax, 8(%rbx)
	movb	$0, (%rdx,%rax)
	jmp	.L503
.L511:
	call	__stack_chk_fail@PLT
	.cfi_endproc
.LFE2359:
	.size	_ZNK4asio5error6detail17addrinfo_category7messageB5cxx11Ei, .-_ZNK4asio5error6detail17addrinfo_category7messageB5cxx11Ei
	.section	.text._ZNK4asio5error6detail13misc_category7messageB5cxx11Ei,"axG",@progbits,_ZNK4asio5error6detail13misc_category7messageB5cxx11Ei,comdat
	.align 2
	.p2align 4,,15
	.weak	_ZNK4asio5error6detail13misc_category7messageB5cxx11Ei
	.type	_ZNK4asio5error6detail13misc_category7messageB5cxx11Ei, @function
_ZNK4asio5error6detail13misc_category7messageB5cxx11Ei:
.LFB2365:
	.cfi_startproc
	pushq	%rbx
	.cfi_def_cfa_offset 16
	.cfi_offset 3, -16
	movq	%rdi, %rbx
	subq	$16, %rsp
	.cfi_def_cfa_offset 32
	movq	%fs:40, %rax
	movq	%rax, 8(%rsp)
	xorl	%eax, %eax
	leaq	16(%rdi), %rax
	cmpl	$1, %edx
	movq	%rax, (%rdi)
	je	.L520
	cmpl	$2, %edx
	je	.L521
	cmpl	$3, %edx
	je	.L522
	cmpl	$4, %edx
	je	.L523
	movabsq	$8316298233121436513, %rsi
	movl	$28530, %edx
	movq	%rsi, 16(%rdi)
	movl	$1919230051, 8(%rax)
	movw	%dx, 12(%rax)
	movb	$114, 14(%rax)
	movq	$15, 8(%rdi)
	movb	$0, 31(%rdi)
.L512:
	movq	8(%rsp), %rcx
	xorq	%fs:40, %rcx
	movq	%rbx, %rax
	jne	.L524
	addq	$16, %rsp
	.cfi_remember_state
	.cfi_def_cfa_offset 16
	popq	%rbx
	.cfi_def_cfa_offset 8
	ret
	.p2align 4,,10
	.p2align 3
.L523:
	.cfi_restore_state
	xorl	%edx, %edx
	movq	%rsp, %rsi
	movq	$57, (%rsp)
	call	_ZNSt7__cxx1112basic_stringIcSt11char_traitsIcESaIcEE9_M_createERmm@PLT
	movq	(%rsp), %rdx
	movq	%rax, (%rbx)
	movabsq	$7310291504967217959, %rdi
	movdqa	.LC10(%rip), %xmm0
	movq	%rdx, 16(%rbx)
	movq	%rdi, 48(%rax)
	movups	%xmm0, (%rax)
	movb	$116, 56(%rax)
	movdqa	.LC11(%rip), %xmm0
	movups	%xmm0, 16(%rax)
	movdqa	.LC12(%rip), %xmm0
	movups	%xmm0, 32(%rax)
	movq	(%rsp), %rax
	movq	(%rbx), %rdx
	movq	%rax, 8(%rbx)
	movb	$0, (%rdx,%rax)
	jmp	.L512
	.p2align 4,,10
	.p2align 3
.L520:
	movabsq	$2340011850872286273, %rcx
	movq	%rcx, 16(%rdi)
	movl	$1852141679, 8(%rax)
	movq	$12, 8(%rdi)
	movb	$0, 28(%rdi)
	jmp	.L512
	.p2align 4,,10
	.p2align 3
.L521:
	movabsq	$7358994418594246213, %rcx
	movq	%rcx, 16(%rdi)
	movl	$27753, %ecx
	movb	$101, 10(%rax)
	movw	%cx, 8(%rax)
	movq	$11, 8(%rdi)
	movb	$0, 27(%rdi)
	jmp	.L512
	.p2align 4,,10
	.p2align 3
.L522:
	xorl	%edx, %edx
	movq	%rsp, %rsi
	movq	$17, (%rsp)
	call	_ZNSt7__cxx1112basic_stringIcSt11char_traitsIcESaIcEE9_M_createERmm@PLT
	movq	(%rsp), %rdx
	movq	%rax, (%rbx)
	movdqa	.LC9(%rip), %xmm0
	movq	%rdx, 16(%rbx)
	movb	$100, 16(%rax)
	movups	%xmm0, (%rax)
	movq	(%rsp), %rax
	movq	(%rbx), %rdx
	movq	%rax, 8(%rbx)
	movb	$0, (%rdx,%rax)
	jmp	.L512
.L524:
	call	__stack_chk_fail@PLT
	.cfi_endproc
.LFE2365:
	.size	_ZNK4asio5error6detail13misc_category7messageB5cxx11Ei, .-_ZNK4asio5error6detail13misc_category7messageB5cxx11Ei
	.section	.text._ZNK4asio5error6detail14netdb_category7messageB5cxx11Ei,"axG",@progbits,_ZNK4asio5error6detail14netdb_category7messageB5cxx11Ei,comdat
	.align 2
	.p2align 4,,15
	.weak	_ZNK4asio5error6detail14netdb_category7messageB5cxx11Ei
	.type	_ZNK4asio5error6detail14netdb_category7messageB5cxx11Ei, @function
_ZNK4asio5error6detail14netdb_category7messageB5cxx11Ei:
.LFB2353:
	.cfi_startproc
	pushq	%rbx
	.cfi_def_cfa_offset 16
	.cfi_offset 3, -16
	movq	%rdi, %rbx
	subq	$16, %rsp
	.cfi_def_cfa_offset 32
	movq	%fs:40, %rax
	movq	%rax, 8(%rsp)
	xorl	%eax, %eax
	leaq	16(%rdi), %rax
	cmpl	$1, %edx
	movq	%rax, (%rdi)
	je	.L533
	cmpl	$2, %edx
	je	.L534
	cmpl	$4, %edx
	je	.L535
	cmpl	$3, %edx
	je	.L536
	xorl	%edx, %edx
	movq	%rsp, %rsi
	movq	$16, (%rsp)
	call	_ZNSt7__cxx1112basic_stringIcSt11char_traitsIcESaIcEE9_M_createERmm@PLT
	movq	(%rsp), %rdx
	movq	%rax, (%rbx)
	movdqa	.LC22(%rip), %xmm0
	movq	%rdx, 16(%rbx)
	movups	%xmm0, (%rax)
	movq	(%rsp), %rax
	movq	(%rbx), %rdx
	movq	%rax, 8(%rbx)
	movb	$0, (%rdx,%rax)
.L525:
	movq	8(%rsp), %rcx
	xorq	%fs:40, %rcx
	movq	%rbx, %rax
	jne	.L537
	addq	$16, %rsp
	.cfi_remember_state
	.cfi_def_cfa_offset 16
	popq	%rbx
	.cfi_def_cfa_offset 8
	ret
	.p2align 4,,10
	.p2align 3
.L536:
	.cfi_restore_state
	xorl	%edx, %edx
	movq	%rsp, %rsi
	movq	$55, (%rsp)
	call	_ZNSt7__cxx1112basic_stringIcSt11char_traitsIcESaIcEE9_M_createERmm@PLT
	movq	(%rsp), %rdx
	movq	%rax, (%rbx)
	movdqa	.LC19(%rip), %xmm0
	movq	%rdx, 16(%rbx)
	movl	$30059, %edx
	movl	$1869573152, 48(%rax)
	movups	%xmm0, (%rax)
	movw	%dx, 52(%rax)
	movb	$112, 54(%rax)
	movdqa	.LC20(%rip), %xmm0
	movups	%xmm0, 16(%rax)
	movdqa	.LC21(%rip), %xmm0
	movups	%xmm0, 32(%rax)
	movq	(%rsp), %rax
	movq	(%rbx), %rdx
	movq	%rax, 8(%rbx)
	movb	$0, (%rdx,%rax)
	jmp	.L525
	.p2align 4,,10
	.p2align 3
.L533:
	movq	%rsp, %rsi
	xorl	%edx, %edx
	movq	$30, (%rsp)
	call	_ZNSt7__cxx1112basic_stringIcSt11char_traitsIcESaIcEE9_M_createERmm@PLT
	movq	(%rsp), %rdx
	movabsq	$8388361603773658465, %rcx
	movl	$10597, %esi
	movdqa	.LC13(%rip), %xmm0
	movq	%rax, (%rbx)
	movq	%rdx, 16(%rbx)
	movq	%rcx, 16(%rax)
	movups	%xmm0, (%rax)
	movl	$1986622561, 24(%rax)
	movw	%si, 28(%rax)
	movq	(%rsp), %rax
	movq	(%rbx), %rdx
	movq	%rax, 8(%rbx)
	movb	$0, (%rdx,%rax)
	jmp	.L525
	.p2align 4,,10
	.p2align 3
.L534:
	xorl	%edx, %edx
	movq	%rsp, %rsi
	movq	$51, (%rsp)
	call	_ZNSt7__cxx1112basic_stringIcSt11char_traitsIcESaIcEE9_M_createERmm@PLT
	movq	(%rsp), %rdx
	movq	%rax, (%rbx)
	movl	$25972, %ecx
	movdqa	.LC13(%rip), %xmm0
	movq	%rdx, 16(%rbx)
	movw	%cx, 48(%rax)
	movups	%xmm0, (%rax)
	movb	$114, 50(%rax)
	movdqa	.LC14(%rip), %xmm0
	movups	%xmm0, 16(%rax)
	movdqa	.LC15(%rip), %xmm0
	movups	%xmm0, 32(%rax)
	movq	(%rsp), %rax
	movq	(%rbx), %rdx
	movq	%rax, 8(%rbx)
	movb	$0, (%rdx,%rax)
	jmp	.L525
	.p2align 4,,10
	.p2align 3
.L535:
	xorl	%edx, %edx
	movq	%rsp, %rsi
	movq	$56, (%rsp)
	call	_ZNSt7__cxx1112basic_stringIcSt11char_traitsIcESaIcEE9_M_createERmm@PLT
	movq	(%rsp), %rdx
	movq	%rax, (%rbx)
	movabsq	$7022344801645520244, %rcx
	movdqa	.LC16(%rip), %xmm0
	movq	%rdx, 16(%rbx)
	movq	%rcx, 48(%rax)
	movups	%xmm0, (%rax)
	movdqa	.LC17(%rip), %xmm0
	movups	%xmm0, 16(%rax)
	movdqa	.LC18(%rip), %xmm0
	movups	%xmm0, 32(%rax)
	movq	(%rsp), %rax
	movq	(%rbx), %rdx
	movq	%rax, 8(%rbx)
	movb	$0, (%rdx,%rax)
	jmp	.L525
.L537:
	call	__stack_chk_fail@PLT
	.cfi_endproc
.LFE2353:
	.size	_ZNK4asio5error6detail14netdb_category7messageB5cxx11Ei, .-_ZNK4asio5error6detail14netdb_category7messageB5cxx11Ei
	.section	.text._ZN7asiopal13SerialChannelD2Ev,"axG",@progbits,_ZN7asiopal13SerialChannelD5Ev,comdat
	.align 2
	.p2align 4,,15
	.weak	_ZN7asiopal13SerialChannelD2Ev
	.type	_ZN7asiopal13SerialChannelD2Ev, @function
_ZN7asiopal13SerialChannelD2Ev:
.LFB9215:
	.cfi_startproc
	.cfi_personality 0x9b,DW.ref.__gxx_personality_v0
	.cfi_lsda 0x1b,.LLSDA9215
	pushq	%r15
	.cfi_def_cfa_offset 16
	.cfi_offset 15, -16
	pushq	%r14
	.cfi_def_cfa_offset 24
	.cfi_offset 14, -24
	movq	%rdi, %r14
	pushq	%r13
	.cfi_def_cfa_offset 32
	.cfi_offset 13, -32
	pushq	%r12
	.cfi_def_cfa_offset 40
	.cfi_offset 12, -40
	pushq	%rbp
	.cfi_def_cfa_offset 48
	.cfi_offset 6, -48
	pushq	%rbx
	.cfi_def_cfa_offset 56
	.cfi_offset 3, -56
	subq	$88, %rsp
	.cfi_def_cfa_offset 144
	movl	64(%rdi), %ebx
	movq	%fs:40, %rax
	movq	%rax, 72(%rsp)
	xorl	%eax, %eax
	movq	_ZTVN7asiopal13SerialChannelE@GOTPCREL(%rip), %rax
	addq	$16, %rax
	cmpl	$-1, %ebx
	movq	%rax, (%rdi)
	je	.L539
	movq	72(%rdi), %r13
	testq	%r13, %r13
	je	.L601
	movq	80(%rdi), %rax
	movzbl	68(%rdi), %ebp
	movq	40(%rax), %rax
	movq	%rax, 32(%rsp)
	leaq	40(%r13), %rax
	movq	%rax, %rdi
	movq	%rax, 40(%rsp)
	call	pthread_mutex_lock@PLT
	movq	72(%r14), %rsi
	cmpb	$0, 144(%rsi)
	jne	.L541
	andl	$4, %ebp
	jne	.L669
.L542:
	movq	$0, 8(%rsp)
	movq	8(%rsp), %rax
	xorl	%r13d, %r13d
	movq	$0, 24(%rsp)
	movq	%r14, 16(%rsp)
.L552:
	leaq	6(%rax), %rcx
	salq	$4, %rcx
	movq	(%rsi,%rcx), %rbx
	movq	%rcx, %r12
	testq	%rbx, %rbx
	je	.L603
	salq	$4, %rax
	movq	_ZGVZN4asio15system_categoryEvE8instance@GOTPCREL(%rip), %r14
	movq	_ZZN4asio15system_categoryEvE8instance@GOTPCREL(%rip), %rbp
	movq	%rax, %r15
	jmp	.L544
	.p2align 4,,10
	.p2align 3
.L546:
	leaq	(%rsi,%r15), %rdx
	movl	$125, 24(%rbx)
	movq	%rbp, 32(%rbx)
	movq	96(%rdx), %rax
	testq	%rax, %rax
	je	.L548
	movq	(%rax), %rcx
	testq	%rcx, %rcx
	movq	%rcx, 96(%rdx)
	je	.L670
.L549:
	movq	$0, (%rax)
.L548:
	testq	%r13, %r13
	movq	$0, (%rbx)
	je	.L550
	movq	(%rsi,%r12), %rax
	movq	%rbx, 0(%r13)
	testq	%rax, %rax
	je	.L543
.L551:
	movq	%rbx, %r13
	movq	%rax, %rbx
.L544:
	movzbl	(%r14), %eax
	testb	%al, %al
	jne	.L546
	movq	%r14, %rdi
	call	__cxa_guard_acquire@PLT
	testl	%eax, %eax
	je	.L661
	movq	%r14, %rdi
	call	__cxa_guard_release@PLT
	movq	_ZN4asio6detail15system_categoryD1Ev@GOTPCREL(%rip), %rdi
	leaq	__dso_handle(%rip), %rdx
	movq	%rbp, %rsi
	call	__cxa_atexit@PLT
.L661:
	movq	16(%rsp), %rax
	movq	72(%rax), %rsi
	jmp	.L546
	.p2align 4,,10
	.p2align 3
.L541:
	movq	40(%rsp), %rdi
	call	pthread_mutex_unlock@PLT
.L663:
	movl	64(%r14), %ebx
	cmpl	$-1, %ebx
	je	.L539
.L601:
	call	__errno_location@PLT
	movl	%ebx, %edi
	movl	$0, (%rax)
	movq	%rax, %r12
	call	close@PLT
	movq	_ZGVZN4asio15system_categoryEvE8instance@GOTPCREL(%rip), %rbp
	movl	%eax, %r13d
	movzbl	0(%rbp), %eax
	testb	%al, %al
	je	.L671
.L571:
	testl	%r13d, %r13d
	je	.L539
	movl	(%r12), %r13d
	movzbl	0(%rbp), %eax
	testb	%al, %al
	je	.L672
.L574:
	cmpl	$11, %r13d
	je	.L576
.L668:
	movzbl	0(%rbp), %eax
	testb	%al, %al
	jne	.L539
	movq	%rbp, %rdi
	call	__cxa_guard_acquire@PLT
	testl	%eax, %eax
	je	.L539
	movq	%rbp, %rdi
	call	__cxa_guard_release@PLT
	movq	_ZZN4asio15system_categoryEvE8instance@GOTPCREL(%rip), %rsi
	movq	_ZN4asio6detail15system_categoryD1Ev@GOTPCREL(%rip), %rdi
	leaq	__dso_handle(%rip), %rdx
	call	__cxa_atexit@PLT
	.p2align 4,,10
	.p2align 3
.L539:
	movq	_ZTVN7asiopal13IAsyncChannelE@GOTPCREL(%rip), %rax
	movq	48(%r14), %rbx
	addq	$16, %rax
	testq	%rbx, %rbx
	movq	%rax, (%r14)
	je	.L583
	cmpq	$0, _ZL28__gthrw___pthread_key_createPjPFvPvE@GOTPCREL(%rip)
	je	.L584
	lock subl	$1, 8(%rbx)
	je	.L673
.L583:
	movq	32(%r14), %rbx
	testq	%rbx, %rbx
	je	.L589
	cmpq	$0, _ZL28__gthrw___pthread_key_createPjPFvPvE@GOTPCREL(%rip)
	je	.L590
	lock subl	$1, 8(%rbx)
	je	.L674
.L589:
	movq	16(%r14), %rdi
	testq	%rdi, %rdi
	je	.L538
	cmpq	$0, _ZL28__gthrw___pthread_key_createPjPFvPvE@GOTPCREL(%rip)
	je	.L596
	movl	$-1, %eax
	lock xaddl	%eax, 12(%rdi)
	cmpl	$1, %eax
	je	.L675
.L538:
	movq	72(%rsp), %rax
	xorq	%fs:40, %rax
	jne	.L676
	addq	$88, %rsp
	.cfi_remember_state
	.cfi_def_cfa_offset 56
	popq	%rbx
	.cfi_def_cfa_offset 48
	popq	%rbp
	.cfi_def_cfa_offset 40
	popq	%r12
	.cfi_def_cfa_offset 32
	popq	%r13
	.cfi_def_cfa_offset 24
	popq	%r14
	.cfi_def_cfa_offset 16
	popq	%r15
	.cfi_def_cfa_offset 8
	ret
	.p2align 4,,10
	.p2align 3
.L596:
	.cfi_restore_state
	movl	12(%rdi), %eax
	leal	-1(%rax), %edx
	cmpl	$1, %eax
	movl	%edx, 12(%rdi)
	jne	.L538
.L675:
	movq	(%rdi), %rax
	call	*24(%rax)
	jmp	.L538
	.p2align 4,,10
	.p2align 3
.L590:
	movl	8(%rbx), %eax
	leal	-1(%rax), %edx
	cmpl	$1, %eax
	movl	%edx, 8(%rbx)
	jne	.L589
	movq	(%rbx), %rax
	movq	%rbx, %rdi
	call	*16(%rax)
	movl	12(%rbx), %eax
	leal	-1(%rax), %edx
	movl	%edx, 12(%rbx)
	jmp	.L600
	.p2align 4,,10
	.p2align 3
.L584:
	movl	8(%rbx), %eax
	leal	-1(%rax), %edx
	cmpl	$1, %eax
	movl	%edx, 8(%rbx)
	jne	.L583
	movq	(%rbx), %rax
	movq	%rbx, %rdi
	call	*16(%rax)
	movl	12(%rbx), %eax
	leal	-1(%rax), %edx
	movl	%edx, 12(%rbx)
	jmp	.L599
	.p2align 4,,10
	.p2align 3
.L673:
	movq	(%rbx), %rax
	movq	%rbx, %rdi
	call	*16(%rax)
	movl	$-1, %eax
	lock xaddl	%eax, 12(%rbx)
.L599:
	cmpl	$1, %eax
	jne	.L583
	movq	(%rbx), %rax
	movq	%rbx, %rdi
	call	*24(%rax)
	jmp	.L583
	.p2align 4,,10
	.p2align 3
.L674:
	movq	(%rbx), %rax
	movq	%rbx, %rdi
	call	*16(%rax)
	movl	$-1, %eax
	lock xaddl	%eax, 12(%rbx)
.L600:
	cmpl	$1, %eax
	jne	.L589
	movq	(%rbx), %rax
	movq	%rbx, %rdi
	call	*24(%rax)
	jmp	.L589
	.p2align 4,,10
	.p2align 3
.L550:
	movq	(%rsi,%r12), %rax
	movq	%rbx, 24(%rsp)
	testq	%rax, %rax
	jne	.L551
.L543:
	addq	$1, 8(%rsp)
	movq	8(%rsp), %rax
	cmpq	$3, %rax
	je	.L677
	movq	%rbx, %r13
	jmp	.L552
	.p2align 4,,10
	.p2align 3
.L670:
	movq	$0, 104(%rdx)
	jmp	.L549
	.p2align 4,,10
	.p2align 3
.L671:
	movq	%rbp, %rdi
	call	__cxa_guard_acquire@PLT
	testl	%eax, %eax
	je	.L571
	movq	%rbp, %rdi
	call	__cxa_guard_release@PLT
	movq	_ZZN4asio15system_categoryEvE8instance@GOTPCREL(%rip), %rsi
	movq	_ZN4asio6detail15system_categoryD1Ev@GOTPCREL(%rip), %rdi
	leaq	__dso_handle(%rip), %rdx
	call	__cxa_atexit@PLT
	jmp	.L571
	.p2align 4,,10
	.p2align 3
.L677:
	movq	16(%rsp), %r14
	movl	$-1, 88(%rsi)
	movq	40(%rsp), %rdi
	movq	72(%r14), %rax
	movb	$1, 144(%rax)
	call	pthread_mutex_unlock@PLT
	movq	32(%rsp), %r15
	movq	72(%r14), %rbp
	leaq	120(%r15), %r12
	movq	%r12, %rdi
	call	pthread_mutex_lock@PLT
	cmpq	160(%r15), %rbp
	je	.L678
.L553:
	movq	32(%rbp), %rdx
	movq	24(%rbp), %rax
	testq	%rdx, %rdx
	je	.L554
	movq	%rax, 24(%rdx)
	movq	24(%rbp), %rax
.L554:
	testq	%rax, %rax
	je	.L555
	movq	32(%rbp), %rdx
	movq	%rdx, 32(%rax)
.L555:
	movq	32(%rsp), %r15
	movq	%r12, %rdi
	movq	168(%r15), %rax
	movq	$0, 32(%rbp)
	movq	%rax, 24(%rbp)
	movq	%rbp, 168(%r15)
	call	pthread_mutex_unlock@PLT
	cmpq	$0, 24(%rsp)
	movq	$0, 72(%r14)
	je	.L663
	movq	40(%r15), %rbp
	cmpb	$0, 40(%rbp)
	je	.L557
	.byte	0x66
	leaq	_ZN4asio6detail15keyword_tss_ptrINS0_10call_stackINS0_15task_io_serviceENS0_27task_io_service_thread_infoEE7contextEE6value_E@tlsgd(%rip), %rdi
	.value	0x6666
	rex64
	call	__tls_get_addr@PLT
	movq	(%rax), %rax
	testq	%rax, %rax
	jne	.L658
	jmp	.L557
	.p2align 4,,10
	.p2align 3
.L559:
	movq	16(%rax), %rax
	testq	%rax, %rax
	je	.L557
.L658:
	cmpq	(%rax), %rbp
	jne	.L559
	movq	8(%rax), %rax
	testq	%rax, %rax
	je	.L557
	movq	16(%rax), %rdx
	movq	24(%rsp), %rcx
	testq	%rdx, %rdx
	je	.L562
	movq	%rcx, (%rdx)
.L563:
	movq	%rbx, 16(%rax)
	jmp	.L663
	.p2align 4,,10
	.p2align 3
.L603:
	movq	%r13, %rbx
	jmp	.L543
	.p2align 4,,10
	.p2align 3
.L672:
	movq	%rbp, %rdi
	call	__cxa_guard_acquire@PLT
	testl	%eax, %eax
	je	.L574
	movq	%rbp, %rdi
	call	__cxa_guard_release@PLT
	movq	_ZZN4asio15system_categoryEvE8instance@GOTPCREL(%rip), %rsi
	movq	_ZN4asio6detail15system_categoryD1Ev@GOTPCREL(%rip), %rdi
	leaq	__dso_handle(%rip), %rdx
	call	__cxa_atexit@PLT
	jmp	.L574
	.p2align 4,,10
	.p2align 3
.L557:
	leaq	48(%rbp), %r12
	movq	%r12, %rdi
	call	pthread_mutex_lock@PLT
	movq	200(%rbp), %rax
	testq	%rax, %rax
	je	.L565
	movq	24(%rsp), %rcx
	movq	%rcx, (%rax)
.L566:
	movq	136(%rbp), %rax
	movq	%rbx, 200(%rbp)
	orq	$1, %rax
	cmpq	$1, %rax
	movq	%rax, 136(%rbp)
	jne	.L679
	cmpb	$0, 176(%rbp)
	jne	.L569
	movq	144(%rbp), %rax
	testq	%rax, %rax
	je	.L569
	leaq	88(%rax), %rdx
	movb	$1, 176(%rbp)
	movl	$-2147483639, 60(%rsp)
	leaq	60(%rsp), %rcx
	movl	$3, %esi
	movq	%rdx, 64(%rsp)
	movl	88(%rax), %edx
	movl	96(%rax), %edi
	call	epoll_ctl@PLT
.L569:
	movq	%r12, %rdi
	call	pthread_mutex_unlock@PLT
	jmp	.L663
.L565:
	movq	24(%rsp), %rax
	movq	%rax, 192(%rbp)
	jmp	.L566
	.p2align 4,,10
	.p2align 3
.L669:
	movq	32(%rsp), %rax
	movl	$0, 60(%rsp)
	leaq	60(%rsp), %rcx
	movq	$0, 64(%rsp)
	movl	$2, %esi
	movl	%ebx, %edx
	movl	96(%rax), %edi
	call	epoll_ctl@PLT
	movq	72(%r14), %rsi
	jmp	.L542
	.p2align 4,,10
	.p2align 3
.L678:
	movq	24(%rbp), %rax
	movq	32(%rsp), %rcx
	movq	%rax, 160(%rcx)
	jmp	.L553
	.p2align 4,,10
	.p2align 3
.L576:
	leaq	60(%rsp), %rdx
	movl	%ebx, %edi
	movl	$21537, %esi
	xorl	%eax, %eax
	movl	$0, 60(%rsp)
	call	ioctl@PLT
	andb	$-4, 68(%r14)
	movl	%ebx, %edi
	movl	$0, (%r12)
	call	close@PLT
	jmp	.L668
	.p2align 4,,10
	.p2align 3
.L679:
	movq	%r12, %rdi
	call	pthread_mutex_unlock@PLT
	leaq	88(%rbp), %rdi
	call	pthread_cond_signal@PLT
	jmp	.L663
.L562:
	movq	%rcx, 8(%rax)
	jmp	.L563
.L676:
	call	__stack_chk_fail@PLT
	.cfi_endproc
.LFE9215:
	.section	.gcc_except_table
.LLSDA9215:
	.byte	0xff
	.byte	0xff
	.byte	0x1
	.uleb128 .LLSDACSE9215-.LLSDACSB9215
.LLSDACSB9215:
.LLSDACSE9215:
	.section	.text._ZN7asiopal13SerialChannelD2Ev,"axG",@progbits,_ZN7asiopal13SerialChannelD5Ev,comdat
	.size	_ZN7asiopal13SerialChannelD2Ev, .-_ZN7asiopal13SerialChannelD2Ev
	.weak	_ZN7asiopal13SerialChannelD1Ev
	.set	_ZN7asiopal13SerialChannelD1Ev,_ZN7asiopal13SerialChannelD2Ev
	.section	.text._ZN7asiopal13SerialChannelD0Ev,"axG",@progbits,_ZN7asiopal13SerialChannelD5Ev,comdat
	.align 2
	.p2align 4,,15
	.weak	_ZN7asiopal13SerialChannelD0Ev
	.type	_ZN7asiopal13SerialChannelD0Ev, @function
_ZN7asiopal13SerialChannelD0Ev:
.LFB9217:
	.cfi_startproc
	.cfi_personality 0x9b,DW.ref.__gxx_personality_v0
	.cfi_lsda 0x1b,.LLSDA9217
	pushq	%r15
	.cfi_def_cfa_offset 16
	.cfi_offset 15, -16
	pushq	%r14
	.cfi_def_cfa_offset 24
	.cfi_offset 14, -24
	movq	%rdi, %r14
	pushq	%r13
	.cfi_def_cfa_offset 32
	.cfi_offset 13, -32
	pushq	%r12
	.cfi_def_cfa_offset 40
	.cfi_offset 12, -40
	pushq	%rbp
	.cfi_def_cfa_offset 48
	.cfi_offset 6, -48
	pushq	%rbx
	.cfi_def_cfa_offset 56
	.cfi_offset 3, -56
	subq	$88, %rsp
	.cfi_def_cfa_offset 144
	movl	64(%rdi), %ebx
	movq	%fs:40, %rax
	movq	%rax, 72(%rsp)
	xorl	%eax, %eax
	movq	_ZTVN7asiopal13SerialChannelE@GOTPCREL(%rip), %rax
	addq	$16, %rax
	cmpl	$-1, %ebx
	movq	%rax, (%rdi)
	je	.L681
	movq	72(%rdi), %r13
	testq	%r13, %r13
	je	.L743
	movq	80(%rdi), %rax
	movzbl	68(%rdi), %ebp
	movq	40(%rax), %rax
	movq	%rax, 32(%rsp)
	leaq	40(%r13), %rax
	movq	%rax, %rdi
	movq	%rax, 40(%rsp)
	call	pthread_mutex_lock@PLT
	movq	72(%r14), %rsi
	cmpb	$0, 144(%rsi)
	jne	.L683
	andl	$4, %ebp
	jne	.L812
.L684:
	movq	$0, 8(%rsp)
	movq	8(%rsp), %rax
	xorl	%r13d, %r13d
	movq	$0, 24(%rsp)
	movq	%r14, 16(%rsp)
.L694:
	leaq	6(%rax), %rcx
	salq	$4, %rcx
	movq	(%rsi,%rcx), %rbx
	movq	%rcx, %r12
	testq	%rbx, %rbx
	je	.L745
	salq	$4, %rax
	movq	_ZGVZN4asio15system_categoryEvE8instance@GOTPCREL(%rip), %r14
	movq	_ZZN4asio15system_categoryEvE8instance@GOTPCREL(%rip), %rbp
	movq	%rax, %r15
	jmp	.L686
	.p2align 4,,10
	.p2align 3
.L688:
	leaq	(%rsi,%r15), %rdx
	movl	$125, 24(%rbx)
	movq	%rbp, 32(%rbx)
	movq	96(%rdx), %rax
	testq	%rax, %rax
	je	.L690
	movq	(%rax), %rcx
	testq	%rcx, %rcx
	movq	%rcx, 96(%rdx)
	je	.L813
.L691:
	movq	$0, (%rax)
.L690:
	testq	%r13, %r13
	movq	$0, (%rbx)
	je	.L692
	movq	(%rsi,%r12), %rax
	movq	%rbx, 0(%r13)
	testq	%rax, %rax
	je	.L685
.L693:
	movq	%rbx, %r13
	movq	%rax, %rbx
.L686:
	movzbl	(%r14), %eax
	testb	%al, %al
	jne	.L688
	movq	%r14, %rdi
	call	__cxa_guard_acquire@PLT
	testl	%eax, %eax
	je	.L804
	movq	%r14, %rdi
	call	__cxa_guard_release@PLT
	movq	_ZN4asio6detail15system_categoryD1Ev@GOTPCREL(%rip), %rdi
	leaq	__dso_handle(%rip), %rdx
	movq	%rbp, %rsi
	call	__cxa_atexit@PLT
.L804:
	movq	16(%rsp), %rax
	movq	72(%rax), %rsi
	jmp	.L688
	.p2align 4,,10
	.p2align 3
.L683:
	movq	40(%rsp), %rdi
	call	pthread_mutex_unlock@PLT
.L806:
	movl	64(%r14), %ebx
	cmpl	$-1, %ebx
	je	.L681
.L743:
	call	__errno_location@PLT
	movl	%ebx, %edi
	movl	$0, (%rax)
	movq	%rax, %r12
	call	close@PLT
	movq	_ZGVZN4asio15system_categoryEvE8instance@GOTPCREL(%rip), %rbp
	movl	%eax, %r13d
	movzbl	0(%rbp), %eax
	testb	%al, %al
	je	.L814
.L713:
	testl	%r13d, %r13d
	je	.L681
	movl	(%r12), %r13d
	movzbl	0(%rbp), %eax
	testb	%al, %al
	je	.L815
.L716:
	cmpl	$11, %r13d
	je	.L718
.L811:
	movzbl	0(%rbp), %eax
	testb	%al, %al
	jne	.L681
	movq	%rbp, %rdi
	call	__cxa_guard_acquire@PLT
	testl	%eax, %eax
	je	.L681
	movq	%rbp, %rdi
	call	__cxa_guard_release@PLT
	movq	_ZZN4asio15system_categoryEvE8instance@GOTPCREL(%rip), %rsi
	movq	_ZN4asio6detail15system_categoryD1Ev@GOTPCREL(%rip), %rdi
	leaq	__dso_handle(%rip), %rdx
	call	__cxa_atexit@PLT
	.p2align 4,,10
	.p2align 3
.L681:
	movq	_ZTVN7asiopal13IAsyncChannelE@GOTPCREL(%rip), %rax
	movq	48(%r14), %rbx
	addq	$16, %rax
	testq	%rbx, %rbx
	movq	%rax, (%r14)
	je	.L725
	cmpq	$0, _ZL28__gthrw___pthread_key_createPjPFvPvE@GOTPCREL(%rip)
	je	.L726
	lock subl	$1, 8(%rbx)
	je	.L816
.L725:
	movq	32(%r14), %rbx
	testq	%rbx, %rbx
	je	.L731
	cmpq	$0, _ZL28__gthrw___pthread_key_createPjPFvPvE@GOTPCREL(%rip)
	je	.L732
	lock subl	$1, 8(%rbx)
	je	.L817
.L731:
	movq	16(%r14), %rdi
	testq	%rdi, %rdi
	je	.L737
	cmpq	$0, _ZL28__gthrw___pthread_key_createPjPFvPvE@GOTPCREL(%rip)
	je	.L738
	movl	$-1, %eax
	lock xaddl	%eax, 12(%rdi)
	cmpl	$1, %eax
	je	.L818
.L737:
	movl	$88, %esi
	movq	%r14, %rdi
	call	_ZdlPvm@PLT
	movq	72(%rsp), %rax
	xorq	%fs:40, %rax
	jne	.L819
	addq	$88, %rsp
	.cfi_remember_state
	.cfi_def_cfa_offset 56
	popq	%rbx
	.cfi_def_cfa_offset 48
	popq	%rbp
	.cfi_def_cfa_offset 40
	popq	%r12
	.cfi_def_cfa_offset 32
	popq	%r13
	.cfi_def_cfa_offset 24
	popq	%r14
	.cfi_def_cfa_offset 16
	popq	%r15
	.cfi_def_cfa_offset 8
	ret
	.p2align 4,,10
	.p2align 3
.L738:
	.cfi_restore_state
	movl	12(%rdi), %eax
	leal	-1(%rax), %edx
	cmpl	$1, %eax
	movl	%edx, 12(%rdi)
	jne	.L737
.L818:
	movq	(%rdi), %rax
	call	*24(%rax)
	jmp	.L737
	.p2align 4,,10
	.p2align 3
.L732:
	movl	8(%rbx), %eax
	leal	-1(%rax), %edx
	cmpl	$1, %eax
	movl	%edx, 8(%rbx)
	jne	.L731
	movq	(%rbx), %rax
	movq	%rbx, %rdi
	call	*16(%rax)
	movl	12(%rbx), %eax
	leal	-1(%rax), %edx
	movl	%edx, 12(%rbx)
	jmp	.L742
	.p2align 4,,10
	.p2align 3
.L726:
	movl	8(%rbx), %eax
	leal	-1(%rax), %edx
	cmpl	$1, %eax
	movl	%edx, 8(%rbx)
	jne	.L725
	movq	(%rbx), %rax
	movq	%rbx, %rdi
	call	*16(%rax)
	movl	12(%rbx), %eax
	leal	-1(%rax), %edx
	movl	%edx, 12(%rbx)
	jmp	.L741
	.p2align 4,,10
	.p2align 3
.L816:
	movq	(%rbx), %rax
	movq	%rbx, %rdi
	call	*16(%rax)
	movl	$-1, %eax
	lock xaddl	%eax, 12(%rbx)
.L741:
	cmpl	$1, %eax
	jne	.L725
	movq	(%rbx), %rax
	movq	%rbx, %rdi
	call	*24(%rax)
	jmp	.L725
	.p2align 4,,10
	.p2align 3
.L817:
	movq	(%rbx), %rax
	movq	%rbx, %rdi
	call	*16(%rax)
	movl	$-1, %eax
	lock xaddl	%eax, 12(%rbx)
.L742:
	cmpl	$1, %eax
	jne	.L731
	movq	(%rbx), %rax
	movq	%rbx, %rdi
	call	*24(%rax)
	jmp	.L731
	.p2align 4,,10
	.p2align 3
.L692:
	movq	(%rsi,%r12), %rax
	movq	%rbx, 24(%rsp)
	testq	%rax, %rax
	jne	.L693
.L685:
	addq	$1, 8(%rsp)
	movq	8(%rsp), %rax
	cmpq	$3, %rax
	je	.L820
	movq	%rbx, %r13
	jmp	.L694
	.p2align 4,,10
	.p2align 3
.L813:
	movq	$0, 104(%rdx)
	jmp	.L691
	.p2align 4,,10
	.p2align 3
.L814:
	movq	%rbp, %rdi
	call	__cxa_guard_acquire@PLT
	testl	%eax, %eax
	je	.L713
	movq	%rbp, %rdi
	call	__cxa_guard_release@PLT
	movq	_ZZN4asio15system_categoryEvE8instance@GOTPCREL(%rip), %rsi
	movq	_ZN4asio6detail15system_categoryD1Ev@GOTPCREL(%rip), %rdi
	leaq	__dso_handle(%rip), %rdx
	call	__cxa_atexit@PLT
	jmp	.L713
	.p2align 4,,10
	.p2align 3
.L820:
	movq	16(%rsp), %r14
	movl	$-1, 88(%rsi)
	movq	40(%rsp), %rdi
	movq	72(%r14), %rax
	movb	$1, 144(%rax)
	call	pthread_mutex_unlock@PLT
	movq	32(%rsp), %r15
	movq	72(%r14), %rbp
	leaq	120(%r15), %r12
	movq	%r12, %rdi
	call	pthread_mutex_lock@PLT
	cmpq	160(%r15), %rbp
	je	.L821
.L695:
	movq	32(%rbp), %rdx
	movq	24(%rbp), %rax
	testq	%rdx, %rdx
	je	.L696
	movq	%rax, 24(%rdx)
	movq	24(%rbp), %rax
.L696:
	testq	%rax, %rax
	je	.L697
	movq	32(%rbp), %rdx
	movq	%rdx, 32(%rax)
.L697:
	movq	32(%rsp), %r15
	movq	%r12, %rdi
	movq	168(%r15), %rax
	movq	$0, 32(%rbp)
	movq	%rax, 24(%rbp)
	movq	%rbp, 168(%r15)
	call	pthread_mutex_unlock@PLT
	cmpq	$0, 24(%rsp)
	movq	$0, 72(%r14)
	je	.L806
	movq	40(%r15), %rbp
	cmpb	$0, 40(%rbp)
	je	.L699
	.byte	0x66
	leaq	_ZN4asio6detail15keyword_tss_ptrINS0_10call_stackINS0_15task_io_serviceENS0_27task_io_service_thread_infoEE7contextEE6value_E@tlsgd(%rip), %rdi
	.value	0x6666
	rex64
	call	__tls_get_addr@PLT
	movq	(%rax), %rax
	testq	%rax, %rax
	jne	.L800
	jmp	.L699
	.p2align 4,,10
	.p2align 3
.L701:
	movq	16(%rax), %rax
	testq	%rax, %rax
	je	.L699
.L800:
	cmpq	(%rax), %rbp
	jne	.L701
	movq	8(%rax), %rax
	testq	%rax, %rax
	je	.L699
	movq	16(%rax), %rdx
	movq	24(%rsp), %rcx
	testq	%rdx, %rdx
	je	.L704
	movq	%rcx, (%rdx)
.L705:
	movq	%rbx, 16(%rax)
	jmp	.L806
	.p2align 4,,10
	.p2align 3
.L745:
	movq	%r13, %rbx
	jmp	.L685
	.p2align 4,,10
	.p2align 3
.L815:
	movq	%rbp, %rdi
	call	__cxa_guard_acquire@PLT
	testl	%eax, %eax
	je	.L716
	movq	%rbp, %rdi
	call	__cxa_guard_release@PLT
	movq	_ZZN4asio15system_categoryEvE8instance@GOTPCREL(%rip), %rsi
	movq	_ZN4asio6detail15system_categoryD1Ev@GOTPCREL(%rip), %rdi
	leaq	__dso_handle(%rip), %rdx
	call	__cxa_atexit@PLT
	jmp	.L716
	.p2align 4,,10
	.p2align 3
.L699:
	leaq	48(%rbp), %r12
	movq	%r12, %rdi
	call	pthread_mutex_lock@PLT
	movq	200(%rbp), %rax
	testq	%rax, %rax
	je	.L707
	movq	24(%rsp), %rcx
	movq	%rcx, (%rax)
.L708:
	movq	136(%rbp), %rax
	movq	%rbx, 200(%rbp)
	orq	$1, %rax
	cmpq	$1, %rax
	movq	%rax, 136(%rbp)
	jne	.L822
	cmpb	$0, 176(%rbp)
	jne	.L711
	movq	144(%rbp), %rax
	testq	%rax, %rax
	je	.L711
	leaq	88(%rax), %rdx
	movb	$1, 176(%rbp)
	movl	$-2147483639, 60(%rsp)
	leaq	60(%rsp), %rcx
	movl	$3, %esi
	movq	%rdx, 64(%rsp)
	movl	88(%rax), %edx
	movl	96(%rax), %edi
	call	epoll_ctl@PLT
.L711:
	movq	%r12, %rdi
	call	pthread_mutex_unlock@PLT
	jmp	.L806
.L707:
	movq	24(%rsp), %rax
	movq	%rax, 192(%rbp)
	jmp	.L708
	.p2align 4,,10
	.p2align 3
.L812:
	movq	32(%rsp), %rax
	movl	$0, 60(%rsp)
	leaq	60(%rsp), %rcx
	movq	$0, 64(%rsp)
	movl	$2, %esi
	movl	%ebx, %edx
	movl	96(%rax), %edi
	call	epoll_ctl@PLT
	movq	72(%r14), %rsi
	jmp	.L684
	.p2align 4,,10
	.p2align 3
.L821:
	movq	24(%rbp), %rax
	movq	32(%rsp), %rcx
	movq	%rax, 160(%rcx)
	jmp	.L695
	.p2align 4,,10
	.p2align 3
.L718:
	leaq	60(%rsp), %rdx
	movl	%ebx, %edi
	movl	$21537, %esi
	xorl	%eax, %eax
	movl	$0, 60(%rsp)
	call	ioctl@PLT
	andb	$-4, 68(%r14)
	movl	%ebx, %edi
	movl	$0, (%r12)
	call	close@PLT
	jmp	.L811
	.p2align 4,,10
	.p2align 3
.L822:
	movq	%r12, %rdi
	call	pthread_mutex_unlock@PLT
	leaq	88(%rbp), %rdi
	call	pthread_cond_signal@PLT
	jmp	.L806
.L704:
	movq	%rcx, 8(%rax)
	jmp	.L705
.L819:
	call	__stack_chk_fail@PLT
	.cfi_endproc
.LFE9217:
	.section	.gcc_except_table
.LLSDA9217:
	.byte	0xff
	.byte	0xff
	.byte	0x1
	.uleb128 .LLSDACSE9217-.LLSDACSB9217
.LLSDACSB9217:
.LLSDACSE9217:
	.section	.text._ZN7asiopal13SerialChannelD0Ev,"axG",@progbits,_ZN7asiopal13SerialChannelD5Ev,comdat
	.size	_ZN7asiopal13SerialChannelD0Ev, .-_ZN7asiopal13SerialChannelD0Ev
	.text
	.align 2
	.p2align 4,,15
	.globl	_ZN7asiopal13SerialChannel12ShutdownImplEv
	.type	_ZN7asiopal13SerialChannel12ShutdownImplEv, @function
_ZN7asiopal13SerialChannel12ShutdownImplEv:
.LFB6892:
	.cfi_startproc
	pushq	%r15
	.cfi_def_cfa_offset 16
	.cfi_offset 15, -16
	pushq	%r14
	.cfi_def_cfa_offset 24
	.cfi_offset 14, -24
	movq	%rdi, %r14
	pushq	%r13
	.cfi_def_cfa_offset 32
	.cfi_offset 13, -32
	pushq	%r12
	.cfi_def_cfa_offset 40
	.cfi_offset 12, -40
	pushq	%rbp
	.cfi_def_cfa_offset 48
	.cfi_offset 6, -48
	pushq	%rbx
	.cfi_def_cfa_offset 56
	.cfi_offset 3, -56
	subq	$88, %rsp
	.cfi_def_cfa_offset 144
	movl	64(%rdi), %ebx
	movq	%fs:40, %rax
	movq	%rax, 72(%rsp)
	xorl	%eax, %eax
	cmpl	$-1, %ebx
	je	.L824
	movq	72(%rdi), %r13
	testq	%r13, %r13
	je	.L825
	movq	80(%rdi), %rax
	movzbl	68(%rdi), %ebp
	movq	40(%rax), %rax
	movq	%rax, 32(%rsp)
	leaq	40(%r13), %rax
	movq	%rax, %rdi
	movq	%rax, 40(%rsp)
	call	pthread_mutex_lock@PLT
	movq	72(%r14), %rsi
	cmpb	$0, 144(%rsi)
	jne	.L826
	andl	$4, %ebp
	jne	.L941
.L827:
	movq	$0, 8(%rsp)
	movq	8(%rsp), %rax
	xorl	%r13d, %r13d
	movq	$0, 24(%rsp)
	movq	%r14, 16(%rsp)
.L838:
	leaq	6(%rax), %rcx
	salq	$4, %rcx
	movq	(%rsi,%rcx), %rbx
	movq	%rcx, %r12
	testq	%rbx, %rbx
	je	.L828
	salq	$4, %rax
	movq	_ZGVZN4asio15system_categoryEvE8instance@GOTPCREL(%rip), %r14
	movq	_ZZN4asio15system_categoryEvE8instance@GOTPCREL(%rip), %rbp
	movq	%rax, %r15
	jmp	.L829
	.p2align 4,,10
	.p2align 3
.L832:
	leaq	(%rsi,%r15), %rdx
	movl	$125, 24(%rbx)
	movq	%rbp, 32(%rbx)
	movq	96(%rdx), %rax
	testq	%rax, %rax
	je	.L834
	movq	(%rax), %rcx
	testq	%rcx, %rcx
	movq	%rcx, 96(%rdx)
	je	.L942
.L835:
	movq	$0, (%rax)
.L834:
	testq	%r13, %r13
	movq	$0, (%rbx)
	je	.L836
	movq	(%rsi,%r12), %rax
	movq	%rbx, 0(%r13)
	testq	%rax, %rax
	je	.L837
.L830:
	movq	%rbx, %r13
	movq	%rax, %rbx
.L829:
	movzbl	(%r14), %eax
	testb	%al, %al
	jne	.L832
	movq	%r14, %rdi
	call	__cxa_guard_acquire@PLT
	testl	%eax, %eax
	je	.L933
	movq	%r14, %rdi
	call	__cxa_guard_release@PLT
	movq	_ZN4asio6detail15system_categoryD1Ev@GOTPCREL(%rip), %rdi
	leaq	__dso_handle(%rip), %rdx
	movq	%rbp, %rsi
	call	__cxa_atexit@PLT
.L933:
	movq	16(%rsp), %rax
	movq	72(%rax), %rsi
	jmp	.L832
	.p2align 4,,10
	.p2align 3
.L826:
	movq	40(%rsp), %rdi
	call	pthread_mutex_unlock@PLT
.L935:
	movl	64(%r14), %ebx
	cmpl	$-1, %ebx
	je	.L824
.L825:
	call	__errno_location@PLT
	movl	%ebx, %edi
	movl	$0, (%rax)
	movq	%rax, %r12
	call	close@PLT
	movq	_ZGVZN4asio15system_categoryEvE8instance@GOTPCREL(%rip), %rbp
	movl	%eax, %r13d
	movzbl	0(%rbp), %eax
	testb	%al, %al
	je	.L943
.L857:
	testl	%r13d, %r13d
	je	.L824
	movl	(%r12), %r13d
	movzbl	0(%rbp), %eax
	testb	%al, %al
	je	.L944
.L860:
	cmpl	$11, %r13d
	je	.L862
.L940:
	movzbl	0(%rbp), %eax
	testb	%al, %al
	jne	.L824
	movq	%rbp, %rdi
	call	__cxa_guard_acquire@PLT
	testl	%eax, %eax
	je	.L824
	movq	%rbp, %rdi
	call	__cxa_guard_release@PLT
	movq	_ZZN4asio15system_categoryEvE8instance@GOTPCREL(%rip), %rsi
	movq	_ZN4asio6detail15system_categoryD1Ev@GOTPCREL(%rip), %rdi
	leaq	__dso_handle(%rip), %rdx
	call	__cxa_atexit@PLT
	.p2align 4,,10
	.p2align 3
.L824:
	movq	72(%rsp), %rax
	xorq	%fs:40, %rax
	movl	$-1, 64(%r14)
	movb	$0, 68(%r14)
	jne	.L945
	addq	$88, %rsp
	.cfi_remember_state
	.cfi_def_cfa_offset 56
	popq	%rbx
	.cfi_def_cfa_offset 48
	popq	%rbp
	.cfi_def_cfa_offset 40
	popq	%r12
	.cfi_def_cfa_offset 32
	popq	%r13
	.cfi_def_cfa_offset 24
	popq	%r14
	.cfi_def_cfa_offset 16
	popq	%r15
	.cfi_def_cfa_offset 8
	ret
	.p2align 4,,10
	.p2align 3
.L836:
	.cfi_restore_state
	movq	(%rsi,%r12), %rax
	movq	%rbx, 24(%rsp)
	testq	%rax, %rax
	jne	.L830
.L837:
	movq	%rbx, %r13
.L828:
	addq	$1, 8(%rsp)
	movq	8(%rsp), %rax
	cmpq	$3, %rax
	jne	.L838
	movq	16(%rsp), %r14
	movl	$-1, 88(%rsi)
	movq	40(%rsp), %rdi
	movq	72(%r14), %rax
	movb	$1, 144(%rax)
	call	pthread_mutex_unlock@PLT
	movq	32(%rsp), %r15
	movq	72(%r14), %rbx
	leaq	120(%r15), %rbp
	movq	%rbp, %rdi
	call	pthread_mutex_lock@PLT
	cmpq	160(%r15), %rbx
	je	.L946
.L839:
	movq	32(%rbx), %rdx
	movq	24(%rbx), %rax
	testq	%rdx, %rdx
	je	.L840
	movq	%rax, 24(%rdx)
	movq	24(%rbx), %rax
.L840:
	testq	%rax, %rax
	je	.L841
	movq	32(%rbx), %rdx
	movq	%rdx, 32(%rax)
.L841:
	movq	32(%rsp), %r15
	movq	%rbp, %rdi
	movq	168(%r15), %rax
	movq	$0, 32(%rbx)
	movq	%rax, 24(%rbx)
	movq	%rbx, 168(%r15)
	call	pthread_mutex_unlock@PLT
	cmpq	$0, 24(%rsp)
	movq	$0, 72(%r14)
	je	.L935
	movq	40(%r15), %rbx
	cmpb	$0, 40(%rbx)
	je	.L843
	.byte	0x66
	leaq	_ZN4asio6detail15keyword_tss_ptrINS0_10call_stackINS0_15task_io_serviceENS0_27task_io_service_thread_infoEE7contextEE6value_E@tlsgd(%rip), %rdi
	.value	0x6666
	rex64
	call	__tls_get_addr@PLT
	movq	(%rax), %rax
	testq	%rax, %rax
	jne	.L929
	jmp	.L843
	.p2align 4,,10
	.p2align 3
.L845:
	movq	16(%rax), %rax
	testq	%rax, %rax
	je	.L843
.L929:
	cmpq	(%rax), %rbx
	jne	.L845
	movq	8(%rax), %rax
	testq	%rax, %rax
	je	.L843
	movq	16(%rax), %rdx
	movq	24(%rsp), %rdi
	testq	%rdx, %rdx
	je	.L848
	movq	%rdi, (%rdx)
.L849:
	movq	%r13, 16(%rax)
	jmp	.L935
	.p2align 4,,10
	.p2align 3
.L942:
	movq	$0, 104(%rdx)
	jmp	.L835
	.p2align 4,,10
	.p2align 3
.L943:
	movq	%rbp, %rdi
	call	__cxa_guard_acquire@PLT
	testl	%eax, %eax
	je	.L857
	movq	%rbp, %rdi
	call	__cxa_guard_release@PLT
	movq	_ZZN4asio15system_categoryEvE8instance@GOTPCREL(%rip), %rsi
	movq	_ZN4asio6detail15system_categoryD1Ev@GOTPCREL(%rip), %rdi
	leaq	__dso_handle(%rip), %rdx
	call	__cxa_atexit@PLT
	jmp	.L857
	.p2align 4,,10
	.p2align 3
.L944:
	movq	%rbp, %rdi
	call	__cxa_guard_acquire@PLT
	testl	%eax, %eax
	je	.L860
	movq	%rbp, %rdi
	call	__cxa_guard_release@PLT
	movq	_ZZN4asio15system_categoryEvE8instance@GOTPCREL(%rip), %rsi
	movq	_ZN4asio6detail15system_categoryD1Ev@GOTPCREL(%rip), %rdi
	leaq	__dso_handle(%rip), %rdx
	call	__cxa_atexit@PLT
	jmp	.L860
	.p2align 4,,10
	.p2align 3
.L843:
	leaq	48(%rbx), %rbp
	movq	%rbp, %rdi
	call	pthread_mutex_lock@PLT
	movq	200(%rbx), %rax
	testq	%rax, %rax
	je	.L851
	movq	24(%rsp), %rdi
	movq	%rdi, (%rax)
.L852:
	movq	136(%rbx), %rax
	movq	%r13, 200(%rbx)
	orq	$1, %rax
	cmpq	$1, %rax
	movq	%rax, 136(%rbx)
	jne	.L947
	cmpb	$0, 176(%rbx)
	jne	.L855
	movq	144(%rbx), %rax
	testq	%rax, %rax
	je	.L855
	leaq	88(%rax), %rdx
	movb	$1, 176(%rbx)
	movl	$-2147483639, 60(%rsp)
	leaq	60(%rsp), %rcx
	movl	$3, %esi
	movq	%rdx, 64(%rsp)
	movl	88(%rax), %edx
	movl	96(%rax), %edi
	call	epoll_ctl@PLT
.L855:
	movq	%rbp, %rdi
	call	pthread_mutex_unlock@PLT
	jmp	.L935
.L851:
	movq	24(%rsp), %rax
	movq	%rax, 192(%rbx)
	jmp	.L852
	.p2align 4,,10
	.p2align 3
.L941:
	movq	32(%rsp), %rax
	movl	$0, 60(%rsp)
	leaq	60(%rsp), %rcx
	movq	$0, 64(%rsp)
	movl	$2, %esi
	movl	%ebx, %edx
	movl	96(%rax), %edi
	call	epoll_ctl@PLT
	movq	72(%r14), %rsi
	jmp	.L827
	.p2align 4,,10
	.p2align 3
.L946:
	movq	24(%rbx), %rax
	movq	32(%rsp), %rdi
	movq	%rax, 160(%rdi)
	jmp	.L839
	.p2align 4,,10
	.p2align 3
.L862:
	leaq	60(%rsp), %rdx
	movl	%ebx, %edi
	movl	$21537, %esi
	xorl	%eax, %eax
	movl	$0, 60(%rsp)
	call	ioctl@PLT
	andb	$-4, 68(%r14)
	movl	%ebx, %edi
	movl	$0, (%r12)
	call	close@PLT
	jmp	.L940
	.p2align 4,,10
	.p2align 3
.L947:
	movq	%rbp, %rdi
	call	pthread_mutex_unlock@PLT
	leaq	88(%rbx), %rdi
	call	pthread_cond_signal@PLT
	jmp	.L935
.L848:
	movq	%rdi, 8(%rax)
	jmp	.L849
.L945:
	call	__stack_chk_fail@PLT
	.cfi_endproc
.LFE6892:
	.size	_ZN7asiopal13SerialChannel12ShutdownImplEv, .-_ZN7asiopal13SerialChannel12ShutdownImplEv
	.align 2
	.p2align 4,,15
	.globl	_ZN7asiopal13SerialChannel13BeginReadImplEN7openpal6WSliceE
	.type	_ZN7asiopal13SerialChannel13BeginReadImplEN7openpal6WSliceE, @function
_ZN7asiopal13SerialChannel13BeginReadImplEN7openpal6WSliceE:
.LFB6882:
	.cfi_startproc
	.cfi_personality 0x9b,DW.ref.__gxx_personality_v0
	.cfi_lsda 0x1b,.LLSDA6882
	pushq	%r15
	.cfi_def_cfa_offset 16
	.cfi_offset 15, -16
	pushq	%r14
	.cfi_def_cfa_offset 24
	.cfi_offset 14, -24
	movq	%rdx, %r14
	pushq	%r13
	.cfi_def_cfa_offset 32
	.cfi_offset 13, -32
	pushq	%r12
	.cfi_def_cfa_offset 40
	.cfi_offset 12, -40
	movl	%esi, %r12d
	pushq	%rbp
	.cfi_def_cfa_offset 48
	.cfi_offset 6, -48
	pushq	%rbx
	.cfi_def_cfa_offset 56
	.cfi_offset 3, -56
	movq	%rdi, %rbp
	subq	$120, %rsp
	.cfi_def_cfa_offset 176
	movq	80(%rdi), %r15
	movq	%fs:40, %rax
	movq	%rax, 104(%rsp)
	xorl	%eax, %eax
	movq	24(%rdi), %rax
	movq	%rdi, 80(%rsp)
	movdqu	40(%rax), %xmm0
	movq	48(%rax), %rbx
	movaps	%xmm0, 64(%rsp)
	.byte	0x66
	leaq	_ZN4asio6detail15keyword_tss_ptrINS0_10call_stackINS0_14strand_service11strand_implEhE7contextEE6value_E@tlsgd(%rip), %rdi
	.value	0x6666
	rex64
	call	__tls_get_addr@PLT
	movq	(%rax), %rax
	testq	%rax, %rax
	jne	.L952
	jmp	.L1029
	.p2align 4,,10
	.p2align 3
.L951:
	movq	16(%rax), %rax
	testq	%rax, %rax
	je	.L1029
.L952:
	cmpq	(%rax), %rbx
	jne	.L951
	movq	8(%rax), %rax
	movq	%rax, (%rsp)
	jmp	.L949
	.p2align 4,,10
	.p2align 3
.L1029:
	movq	$0, (%rsp)
.L949:
	pxor	%xmm0, %xmm0
	leaq	64(%rsp), %rax
	movq	%rax, 32(%rsp)
	movups	%xmm0, 40(%rsp)
	.byte	0x66
	leaq	_ZN4asio6detail15keyword_tss_ptrINS0_10call_stackINS0_15task_io_serviceENS0_27task_io_service_thread_infoEE7contextEE6value_E@tlsgd(%rip), %rdi
	.value	0x6666
	rex64
	call	__tls_get_addr@PLT
	movq	(%rax), %rax
	testq	%rax, %rax
	je	.L953
	movq	8(%rax), %rax
	testq	%rax, %rax
	je	.L953
	movq	(%rax), %rbx
	testq	%rbx, %rbx
	je	.L953
	movq	$0, (%rax)
	movzbl	(%rbx), %eax
	cmpb	$103, %al
	jbe	.L954
	movb	%al, 104(%rbx)
	jmp	.L955
	.p2align 4,,10
	.p2align 3
.L954:
	movq	%rbx, %rdi
	call	_ZdlPv@PLT
.L953:
	movl	$105, %edi
.LEHB6:
	call	_Znwm@PLT
.LEHE6:
	movq	%rax, %rbx
	movb	$104, 104(%rax)
.L955:
	leaq	_ZN4asio6detail18descriptor_read_opINS_17mutable_buffers_1ENS0_15wrapped_handlerINS_10io_service6strandEZN7asiopal13SerialChannel13BeginReadImplEN7openpal6WSliceEEUlRKSt10error_codemE_NS0_26is_continuation_if_runningEEEE11do_completeEPNS0_15task_io_serviceEPNS0_25task_io_service_operationESC_m(%rip), %rax
	movl	64(%rbp), %r13d
	movq	%rbx, 40(%rsp)
	movl	$0, 16(%rbx)
	movq	$0, (%rbx)
	movq	%rax, 8(%rbx)
	movl	$0, 24(%rbx)
	call	_ZNSt3_V215system_categoryEv@PLT
	movq	%rax, %rcx
	movq	%rax, 32(%rbx)
	movq	_ZN4asio6detail23descriptor_read_op_baseINS_17mutable_buffers_1EE10do_performEPNS0_10reactor_opE@GOTPCREL(%rip), %rax
	movdqa	64(%rsp), %xmm0
	testq	%r12, %r12
	movq	$0, 40(%rbx)
	movl	%r13d, 56(%rbx)
	movq	%rax, 48(%rbx)
	movq	80(%rsp), %rax
	movq	%r14, 64(%rbx)
	movq	%r12, 72(%rbx)
	movups	%xmm0, 80(%rbx)
	movq	%rax, 96(%rbx)
	movq	%rbx, 48(%rsp)
	je	.L961
	testb	$3, 68(%rbp)
	jne	.L956
	cmpl	$-1, %r13d
	je	.L1135
	movq	%rcx, 8(%rsp)
	call	__errno_location@PLT
	leaq	20(%rsp), %rdx
	movl	$0, (%rax)
	movl	%r13d, %edi
	movq	%rax, %r14
	movl	$21537, %esi
	xorl	%eax, %eax
	movl	$1, 20(%rsp)
	call	ioctl@PLT
	movq	_ZGVZN4asio15system_categoryEvE8instance@GOTPCREL(%rip), %r12
	movl	%eax, %r13d
	movzbl	(%r12), %eax
	movq	8(%rsp), %rcx
	testb	%al, %al
	je	.L962
.L1111:
	movq	_ZZN4asio15system_categoryEvE8instance@GOTPCREL(%rip), %r12
.L963:
	movl	(%r14), %eax
	testl	%r13d, %r13d
	movq	%r12, 32(%rbx)
	movl	%eax, 24(%rbx)
	js	.L961
	movl	$0, 24(%rbx)
	movq	%rcx, 32(%rbx)
	orb	$2, 68(%rbp)
	movl	64(%rbp), %r13d
.L956:
	movq	72(%rbp), %r12
	movq	40(%r15), %r14
	testq	%r12, %r12
	je	.L1136
	addq	$40, %r12
	movq	%r12, %rdi
	call	pthread_mutex_lock@PLT
	movq	72(%rbp), %rax
	cmpb	$0, 144(%rax)
	jne	.L1137
	cmpq	$0, 96(%rax)
	je	.L1138
.L997:
	movq	104(%rax), %rdx
	movq	$0, (%rbx)
	testq	%rdx, %rdx
	je	.L1012
	movq	%rbx, (%rdx)
	movq	%rbx, 104(%rax)
.L1013:
	movq	40(%r14), %rax
	lock addq	$1, 184(%rax)
	movq	%r12, %rdi
	call	pthread_mutex_unlock@PLT
	jmp	.L948
	.p2align 4,,10
	.p2align 3
.L1135:
	movq	_ZGVZN4asio15system_categoryEvE8instance@GOTPCREL(%rip), %rbp
	movzbl	0(%rbp), %eax
	testb	%al, %al
	je	.L958
.L1110:
	movq	_ZZN4asio15system_categoryEvE8instance@GOTPCREL(%rip), %r12
.L959:
	movl	$9, 24(%rbx)
	movq	%r12, 32(%rbx)
	.p2align 4,,10
	.p2align 3
.L961:
	cmpq	$0, (%rsp)
	movq	40(%r15), %rax
	movq	40(%rax), %rbp
	jne	.L1034
	cmpb	$0, 40(%rbp)
	je	.L1015
.L1034:
	.byte	0x66
	leaq	_ZN4asio6detail15keyword_tss_ptrINS0_10call_stackINS0_15task_io_serviceENS0_27task_io_service_thread_infoEE7contextEE6value_E@tlsgd(%rip), %rdi
	.value	0x6666
	rex64
	call	__tls_get_addr@PLT
	movq	(%rax), %rax
	testq	%rax, %rax
	jne	.L1106
	jmp	.L1015
	.p2align 4,,10
	.p2align 3
.L1018:
	movq	16(%rax), %rax
	testq	%rax, %rax
	je	.L1015
.L1106:
	cmpq	(%rax), %rbp
	jne	.L1018
.L1134:
	movq	8(%rax), %rax
	testq	%rax, %rax
	je	.L1015
	addq	$1, 24(%rax)
	movq	$0, (%rbx)
	cmpq	$0, 16(%rax)
	je	.L1021
	movq	16(%rax), %rdx
	movq	%rbx, (%rdx)
	movq	%rbx, 16(%rax)
.L948:
	movq	104(%rsp), %rax
	xorq	%fs:40, %rax
	jne	.L1139
	addq	$120, %rsp
	.cfi_remember_state
	.cfi_def_cfa_offset 56
	popq	%rbx
	.cfi_def_cfa_offset 48
	popq	%rbp
	.cfi_def_cfa_offset 40
	popq	%r12
	.cfi_def_cfa_offset 32
	popq	%r13
	.cfi_def_cfa_offset 24
	popq	%r14
	.cfi_def_cfa_offset 16
	popq	%r15
	.cfi_def_cfa_offset 8
	ret
	.p2align 4,,10
	.p2align 3
.L1015:
	.cfi_restore_state
	lock addq	$1, 184(%rbp)
	leaq	48(%rbp), %r12
	movq	%r12, %rdi
	call	pthread_mutex_lock@PLT
	movq	$0, (%rbx)
	cmpq	$0, 200(%rbp)
	je	.L1022
	movq	200(%rbp), %rax
	movq	%rbx, (%rax)
	movq	%rbx, 200(%rbp)
.L1023:
	movq	136(%rbp), %rax
	orq	$1, %rax
	cmpq	$1, %rax
	movq	%rax, 136(%rbp)
	jne	.L1140
	cmpb	$0, 176(%rbp)
	jne	.L991
	movq	144(%rbp), %rax
	testq	%rax, %rax
	je	.L991
	leaq	88(%rax), %rdx
	movb	$1, 176(%rbp)
	movl	$-2147483639, 20(%rsp)
	leaq	20(%rsp), %rcx
	movl	$3, %esi
	movq	%rdx, 24(%rsp)
	movl	88(%rax), %edx
	movl	96(%rax), %edi
	call	epoll_ctl@PLT
	.p2align 4,,10
	.p2align 3
.L991:
	movq	%r12, %rdi
	call	pthread_mutex_unlock@PLT
	jmp	.L948
	.p2align 4,,10
	.p2align 3
.L1140:
	movq	%r12, %rdi
	call	pthread_mutex_unlock@PLT
	leaq	88(%rbp), %rdi
	call	pthread_cond_signal@PLT
	jmp	.L948
	.p2align 4,,10
	.p2align 3
.L962:
	movq	%r12, %rdi
	movq	%rcx, 8(%rsp)
	call	__cxa_guard_acquire@PLT
	testl	%eax, %eax
	movq	8(%rsp), %rcx
	je	.L1111
	movq	%r12, %rdi
	movq	%rcx, 8(%rsp)
	call	__cxa_guard_release@PLT
	movq	_ZZN4asio15system_categoryEvE8instance@GOTPCREL(%rip), %r12
	movq	_ZN4asio6detail15system_categoryD1Ev@GOTPCREL(%rip), %rdi
	leaq	__dso_handle(%rip), %rdx
	movq	%r12, %rsi
	call	__cxa_atexit@PLT
	movq	8(%rsp), %rcx
	jmp	.L963
	.p2align 4,,10
	.p2align 3
.L1012:
	movq	%rbx, 104(%rax)
	movq	%rbx, 96(%rax)
	jmp	.L1013
	.p2align 4,,10
	.p2align 3
.L1136:
	movq	_ZGVZN4asio15system_categoryEvE8instance@GOTPCREL(%rip), %rbp
	movzbl	0(%rbp), %eax
	testb	%al, %al
	je	.L967
.L1112:
	movq	_ZZN4asio15system_categoryEvE8instance@GOTPCREL(%rip), %r12
.L968:
	movl	$9, 24(%rbx)
	movq	%r12, 32(%rbx)
	movq	40(%r14), %rbp
	cmpb	$0, 40(%rbp)
	jne	.L1031
	cmpq	$0, (%rsp)
	je	.L1015
.L1031:
	.byte	0x66
	leaq	_ZN4asio6detail15keyword_tss_ptrINS0_10call_stackINS0_15task_io_serviceENS0_27task_io_service_thread_infoEE7contextEE6value_E@tlsgd(%rip), %rdi
	.value	0x6666
	rex64
	call	__tls_get_addr@PLT
	movq	(%rax), %rax
	testq	%rax, %rax
	jne	.L1103
	jmp	.L1015
	.p2align 4,,10
	.p2align 3
.L973:
	movq	16(%rax), %rax
	testq	%rax, %rax
	je	.L1015
.L1103:
	cmpq	(%rax), %rbp
	jne	.L973
	jmp	.L1134
	.p2align 4,,10
	.p2align 3
.L1137:
	cmpq	$0, (%rsp)
	movq	40(%r14), %rbp
	jne	.L1032
	cmpb	$0, 40(%rbp)
	je	.L984
.L1032:
	.byte	0x66
	leaq	_ZN4asio6detail15keyword_tss_ptrINS0_10call_stackINS0_15task_io_serviceENS0_27task_io_service_thread_infoEE7contextEE6value_E@tlsgd(%rip), %rdi
	.value	0x6666
	rex64
	call	__tls_get_addr@PLT
	movq	(%rax), %rax
	testq	%rax, %rax
	jne	.L1104
	jmp	.L984
	.p2align 4,,10
	.p2align 3
.L987:
	movq	16(%rax), %rax
	testq	%rax, %rax
	je	.L984
.L1104:
	cmpq	(%rax), %rbp
	jne	.L987
	movq	8(%rax), %rax
	testq	%rax, %rax
	je	.L984
	addq	$1, 24(%rax)
	cmpq	$0, 16(%rax)
	movq	$0, (%rbx)
	je	.L990
	movq	16(%rax), %rdx
	movq	%rbx, (%rdx)
	movq	%rbx, 16(%rax)
	jmp	.L991
	.p2align 4,,10
	.p2align 3
.L984:
	lock addq	$1, 184(%rbp)
	leaq	48(%rbp), %r13
	movq	%r13, %rdi
	call	pthread_mutex_lock@PLT
	cmpq	$0, 200(%rbp)
	movq	$0, (%rbx)
	je	.L992
	movq	200(%rbp), %rax
	movq	%rbx, (%rax)
	movq	%rbx, 200(%rbp)
.L993:
	movq	136(%rbp), %rax
	orq	$1, %rax
	cmpq	$1, %rax
	movq	%rax, 136(%rbp)
	jne	.L1141
	cmpb	$0, 176(%rbp)
	jne	.L996
	movq	144(%rbp), %rax
	testq	%rax, %rax
	je	.L996
	leaq	88(%rax), %rdx
	movb	$1, 176(%rbp)
	movl	$-2147483639, 20(%rsp)
	leaq	20(%rsp), %rcx
	movl	$3, %esi
	movq	%rdx, 24(%rsp)
	movl	88(%rax), %edx
	movl	96(%rax), %edi
	call	epoll_ctl@PLT
.L996:
	movq	%r13, %rdi
	call	pthread_mutex_unlock@PLT
	jmp	.L991
	.p2align 4,,10
	.p2align 3
.L1021:
	movq	%rbx, 16(%rax)
	movq	%rbx, 8(%rax)
	jmp	.L948
	.p2align 4,,10
	.p2align 3
.L1022:
	movq	%rbx, 200(%rbp)
	movq	%rbx, 192(%rbp)
	jmp	.L1023
.L967:
	movq	%rbp, %rdi
	call	__cxa_guard_acquire@PLT
	testl	%eax, %eax
	je	.L1112
	movq	%rbp, %rdi
	call	__cxa_guard_release@PLT
	movq	_ZZN4asio15system_categoryEvE8instance@GOTPCREL(%rip), %r12
	movq	_ZN4asio6detail15system_categoryD1Ev@GOTPCREL(%rip), %rdi
	leaq	__dso_handle(%rip), %rdx
	movq	%r12, %rsi
	call	__cxa_atexit@PLT
	jmp	.L968
	.p2align 4,,10
	.p2align 3
.L1138:
	cmpq	$0, 128(%rax)
	je	.L1142
	movl	92(%rax), %edx
	movq	%rax, 24(%rsp)
	leaq	20(%rsp), %rcx
	movl	$3, %esi
	movl	%edx, 20(%rsp)
	movl	96(%r14), %edi
	movl	%r13d, %edx
	call	epoll_ctl@PLT
.L1116:
	movq	72(%rbp), %rax
	jmp	.L997
.L958:
	movq	%rbp, %rdi
	call	__cxa_guard_acquire@PLT
	testl	%eax, %eax
	je	.L1110
	movq	%rbp, %rdi
	call	__cxa_guard_release@PLT
	movq	_ZZN4asio15system_categoryEvE8instance@GOTPCREL(%rip), %r12
	movq	_ZN4asio6detail15system_categoryD1Ev@GOTPCREL(%rip), %rdi
	leaq	__dso_handle(%rip), %rdx
	movq	%r12, %rsi
	call	__cxa_atexit@PLT
	jmp	.L959
.L992:
	movq	%rbx, 200(%rbp)
	movq	%rbx, 192(%rbp)
	jmp	.L993
.L1141:
	movq	%r13, %rdi
	call	pthread_mutex_unlock@PLT
	leaq	88(%rbp), %rdi
	call	pthread_cond_signal@PLT
	jmp	.L991
.L990:
	movq	%rbx, 16(%rax)
	movq	%rbx, 8(%rax)
	jmp	.L991
.L1142:
	movq	%rbx, %rdi
.LEHB7:
	call	*48(%rbx)
.LEHE7:
	testb	%al, %al
	je	.L1116
	movq	%r12, %rdi
	call	pthread_mutex_unlock@PLT
	movq	40(%r14), %rbp
	cmpb	$0, 40(%rbp)
	jne	.L1033
	cmpq	$0, (%rsp)
	je	.L1015
.L1033:
	.byte	0x66
	leaq	_ZN4asio6detail15keyword_tss_ptrINS0_10call_stackINS0_15task_io_serviceENS0_27task_io_service_thread_infoEE7contextEE6value_E@tlsgd(%rip), %rdi
	.value	0x6666
	rex64
	call	__tls_get_addr@PLT
	movq	(%rax), %rax
	testq	%rax, %rax
	jne	.L1105
	jmp	.L1015
	.p2align 4,,10
	.p2align 3
.L1003:
	movq	16(%rax), %rax
	testq	%rax, %rax
	je	.L1015
.L1105:
	cmpq	(%rax), %rbp
	jne	.L1003
	jmp	.L1134
.L1139:
	call	__stack_chk_fail@PLT
.L1030:
	movq	%r12, %rdi
	movq	%rax, %rbx
	call	pthread_mutex_unlock@PLT
	leaq	40(%rsp), %rdi
	leaq	48(%rsp), %rsi
	call	_ZN4asio6detail18descriptor_read_opINS_17mutable_buffers_1ENS0_15wrapped_handlerINS_10io_service6strandEZN7asiopal13SerialChannel13BeginReadImplEN7openpal6WSliceEEUlRKSt10error_codemE_NS0_26is_continuation_if_runningEEEE3ptr5resetEv.isra.162
	movq	%rbx, %rdi
.LEHB8:
	call	_Unwind_Resume@PLT
.LEHE8:
	.cfi_endproc
.LFE6882:
	.section	.gcc_except_table
.LLSDA6882:
	.byte	0xff
	.byte	0xff
	.byte	0x1
	.uleb128 .LLSDACSE6882-.LLSDACSB6882
.LLSDACSB6882:
	.uleb128 .LEHB6-.LFB6882
	.uleb128 .LEHE6-.LEHB6
	.uleb128 0
	.uleb128 0
	.uleb128 .LEHB7-.LFB6882
	.uleb128 .LEHE7-.LEHB7
	.uleb128 .L1030-.LFB6882
	.uleb128 0
	.uleb128 .LEHB8-.LFB6882
	.uleb128 .LEHE8-.LEHB8
	.uleb128 0
	.uleb128 0
.LLSDACSE6882:
	.text
	.size	_ZN7asiopal13SerialChannel13BeginReadImplEN7openpal6WSliceE, .-_ZN7asiopal13SerialChannel13BeginReadImplEN7openpal6WSliceE
	.section	.rodata._ZNSt12system_errorC2ESt10error_codePKc.str1.1,"aMS",@progbits,1
.LC23:
	.string	": "
	.section	.text._ZNSt12system_errorC2ESt10error_codePKc,"axG",@progbits,_ZNSt12system_errorC5ESt10error_codePKc,comdat
	.align 2
	.p2align 4,,15
	.weak	_ZNSt12system_errorC2ESt10error_codePKc
	.type	_ZNSt12system_errorC2ESt10error_codePKc, @function
_ZNSt12system_errorC2ESt10error_codePKc:
.LFB2253:
	.cfi_startproc
	.cfi_personality 0x9b,DW.ref.__gxx_personality_v0
	.cfi_lsda 0x1b,.LLSDA2253
	pushq	%r15
	.cfi_def_cfa_offset 16
	.cfi_offset 15, -16
	pushq	%r14
	.cfi_def_cfa_offset 24
	.cfi_offset 14, -24
	movq	%rdx, %r14
	pushq	%r13
	.cfi_def_cfa_offset 32
	.cfi_offset 13, -32
	pushq	%r12
	.cfi_def_cfa_offset 40
	.cfi_offset 12, -40
	movq	%rdi, %r13
	pushq	%rbp
	.cfi_def_cfa_offset 48
	.cfi_offset 6, -48
	pushq	%rbx
	.cfi_def_cfa_offset 56
	.cfi_offset 3, -56
	movq	%rcx, %r12
	movq	%rsi, %r15
	subq	$120, %rsp
	.cfi_def_cfa_offset 176
	movq	%fs:40, %rax
	movq	%rax, 104(%rsp)
	xorl	%eax, %eax
	movq	(%rdx), %rax
	leaq	64(%rsp), %rbx
	movl	%esi, %edx
	movq	%r14, %rsi
	movq	%rbx, %rdi
.LEHB9:
	call	*32(%rax)
.LEHE9:
	leaq	.LC23(%rip), %rcx
	movl	$2, %r8d
	xorl	%edx, %edx
	xorl	%esi, %esi
	movq	%rbx, %rdi
.LEHB10:
	call	_ZNSt7__cxx1112basic_stringIcSt11char_traitsIcESaIcEE10_M_replaceEmmPKcm@PLT
.LEHE10:
	leaq	32(%rsp), %rbp
	leaq	16(%rbp), %rdx
	movq	%rdx, 32(%rsp)
	movq	(%rax), %rcx
	leaq	16(%rax), %rdx
	cmpq	%rdx, %rcx
	je	.L1163
	movq	%rcx, 32(%rsp)
	movq	16(%rax), %rcx
	movq	%rcx, 48(%rsp)
.L1145:
	movq	8(%rax), %rcx
	movq	%r12, %rdi
	movb	$0, 16(%rax)
	movq	%rcx, 40(%rsp)
	movq	%rdx, (%rax)
	movq	$0, 8(%rax)
	call	strlen@PLT
	movq	%r12, %rcx
	movq	%rax, %r8
	xorl	%edx, %edx
	xorl	%esi, %esi
	movq	%rbp, %rdi
.LEHB11:
	call	_ZNSt7__cxx1112basic_stringIcSt11char_traitsIcESaIcEE10_M_replaceEmmPKcm@PLT
.LEHE11:
	movq	%rsp, %r12
	leaq	16(%r12), %rdx
	movq	%rdx, (%rsp)
	movq	(%rax), %rcx
	leaq	16(%rax), %rdx
	cmpq	%rdx, %rcx
	je	.L1164
	movq	%rcx, (%rsp)
	movq	16(%rax), %rcx
	movq	%rcx, 16(%rsp)
.L1147:
	movq	8(%rax), %rcx
	movb	$0, 16(%rax)
	movq	%r12, %rsi
	movq	%r13, %rdi
	movq	%rcx, 8(%rsp)
	movq	%rdx, (%rax)
	movq	$0, 8(%rax)
.LEHB12:
	call	_ZNSt13runtime_errorC2ERKNSt7__cxx1112basic_stringIcSt11char_traitsIcESaIcEEE@PLT
.LEHE12:
	movq	(%rsp), %rdi
	addq	$16, %r12
	cmpq	%r12, %rdi
	je	.L1148
	call	_ZdlPv@PLT
.L1148:
	movq	32(%rsp), %rdi
	addq	$16, %rbp
	cmpq	%rbp, %rdi
	je	.L1149
	call	_ZdlPv@PLT
.L1149:
	movq	64(%rsp), %rdi
	addq	$16, %rbx
	cmpq	%rbx, %rdi
	je	.L1150
	call	_ZdlPv@PLT
.L1150:
	movq	_ZTVSt12system_error@GOTPCREL(%rip), %rax
	movq	%r15, 16(%r13)
	movq	%r14, 24(%r13)
	addq	$16, %rax
	movq	%rax, 0(%r13)
	movq	104(%rsp), %rax
	xorq	%fs:40, %rax
	jne	.L1165
	addq	$120, %rsp
	.cfi_remember_state
	.cfi_def_cfa_offset 56
	popq	%rbx
	.cfi_def_cfa_offset 48
	popq	%rbp
	.cfi_def_cfa_offset 40
	popq	%r12
	.cfi_def_cfa_offset 32
	popq	%r13
	.cfi_def_cfa_offset 24
	popq	%r14
	.cfi_def_cfa_offset 16
	popq	%r15
	.cfi_def_cfa_offset 8
	ret
	.p2align 4,,10
	.p2align 3
.L1163:
	.cfi_restore_state
	movdqu	16(%rax), %xmm0
	movaps	%xmm0, 48(%rsp)
	jmp	.L1145
	.p2align 4,,10
	.p2align 3
.L1164:
	movdqu	16(%rax), %xmm0
	movaps	%xmm0, 16(%rsp)
	jmp	.L1147
.L1165:
	call	__stack_chk_fail@PLT
.L1160:
	movq	(%rsp), %rdi
	addq	$16, %r12
	movq	%rax, %r13
	cmpq	%r12, %rdi
	je	.L1152
	call	_ZdlPv@PLT
.L1152:
	movq	%r13, %r12
.L1153:
	movq	32(%rsp), %rdi
	addq	$16, %rbp
	cmpq	%rbp, %rdi
	je	.L1155
	call	_ZdlPv@PLT
.L1155:
	movq	64(%rsp), %rdi
	addq	$16, %rbx
	cmpq	%rbx, %rdi
	je	.L1156
	call	_ZdlPv@PLT
.L1156:
	movq	%r12, %rdi
.LEHB13:
	call	_Unwind_Resume@PLT
.LEHE13:
.L1158:
	movq	%rax, %r12
	jmp	.L1155
.L1159:
	movq	%rax, %r12
	jmp	.L1153
	.cfi_endproc
.LFE2253:
	.section	.gcc_except_table
.LLSDA2253:
	.byte	0xff
	.byte	0xff
	.byte	0x1
	.uleb128 .LLSDACSE2253-.LLSDACSB2253
.LLSDACSB2253:
	.uleb128 .LEHB9-.LFB2253
	.uleb128 .LEHE9-.LEHB9
	.uleb128 0
	.uleb128 0
	.uleb128 .LEHB10-.LFB2253
	.uleb128 .LEHE10-.LEHB10
	.uleb128 .L1158-.LFB2253
	.uleb128 0
	.uleb128 .LEHB11-.LFB2253
	.uleb128 .LEHE11-.LEHB11
	.uleb128 .L1159-.LFB2253
	.uleb128 0
	.uleb128 .LEHB12-.LFB2253
	.uleb128 .LEHE12-.LEHB12
	.uleb128 .L1160-.LFB2253
	.uleb128 0
	.uleb128 .LEHB13-.LFB2253
	.uleb128 .LEHE13-.LEHB13
	.uleb128 0
	.uleb128 0
.LLSDACSE2253:
	.section	.text._ZNSt12system_errorC2ESt10error_codePKc,"axG",@progbits,_ZNSt12system_errorC5ESt10error_codePKc,comdat
	.size	_ZNSt12system_errorC2ESt10error_codePKc, .-_ZNSt12system_errorC2ESt10error_codePKc
	.weak	_ZNSt12system_errorC1ESt10error_codePKc
	.set	_ZNSt12system_errorC1ESt10error_codePKc,_ZNSt12system_errorC2ESt10error_codePKc
	.section	.text._ZN4asio15system_categoryEv,"axG",@progbits,_ZN4asio15system_categoryEv,comdat
	.p2align 4,,15
	.weak	_ZN4asio15system_categoryEv
	.type	_ZN4asio15system_categoryEv, @function
_ZN4asio15system_categoryEv:
.LFB2316:
	.cfi_startproc
	pushq	%rbx
	.cfi_def_cfa_offset 16
	.cfi_offset 3, -16
	movq	_ZGVZN4asio15system_categoryEvE8instance@GOTPCREL(%rip), %rbx
	movzbl	(%rbx), %eax
	testb	%al, %al
	je	.L1167
.L1174:
	movq	_ZZN4asio15system_categoryEvE8instance@GOTPCREL(%rip), %rbx
	movq	%rbx, %rax
	popq	%rbx
	.cfi_remember_state
	.cfi_def_cfa_offset 8
	ret
	.p2align 4,,10
	.p2align 3
.L1167:
	.cfi_restore_state
	movq	%rbx, %rdi
	call	__cxa_guard_acquire@PLT
	testl	%eax, %eax
	je	.L1174
	movq	%rbx, %rdi
	call	__cxa_guard_release@PLT
	movq	_ZZN4asio15system_categoryEvE8instance@GOTPCREL(%rip), %rbx
	movq	_ZN4asio6detail15system_categoryD1Ev@GOTPCREL(%rip), %rdi
	leaq	__dso_handle(%rip), %rdx
	movq	%rbx, %rsi
	call	__cxa_atexit@PLT
	movq	%rbx, %rax
	popq	%rbx
	.cfi_def_cfa_offset 8
	ret
	.cfi_endproc
.LFE2316:
	.size	_ZN4asio15system_categoryEv, .-_ZN4asio15system_categoryEv
	.section	.text._ZN4asio6detail14do_throw_errorERKSt10error_codePKc,"axG",@progbits,_ZN4asio6detail14do_throw_errorERKSt10error_codePKc,comdat
	.p2align 4,,15
	.weak	_ZN4asio6detail14do_throw_errorERKSt10error_codePKc
	.type	_ZN4asio6detail14do_throw_errorERKSt10error_codePKc, @function
_ZN4asio6detail14do_throw_errorERKSt10error_codePKc:
.LFB2346:
	.cfi_startproc
	.cfi_personality 0x9b,DW.ref.__gxx_personality_v0
	.cfi_lsda 0x1b,.LLSDA2346
	pushq	%rbp
	.cfi_def_cfa_offset 16
	.cfi_offset 6, -16
	pushq	%rbx
	.cfi_def_cfa_offset 24
	.cfi_offset 3, -24
	movq	%rsi, %rcx
	subq	$56, %rsp
	.cfi_def_cfa_offset 80
	movq	8(%rdi), %rdx
	movl	(%rdi), %esi
	movq	%rsp, %rbp
	movq	%rbp, %rdi
	movq	%fs:40, %rax
	movq	%rax, 40(%rsp)
	xorl	%eax, %eax
.LEHB14:
	call	_ZNSt12system_errorC1ESt10error_codePKc@PLT
.LEHE14:
	movl	$32, %edi
	call	__cxa_allocate_exception@PLT
	movq	%rbp, %rsi
	movq	%rax, %rdi
	movq	%rax, %rbx
	call	_ZNSt13runtime_errorC2ERKS_@PLT
	movq	_ZTVSt12system_error@GOTPCREL(%rip), %rax
	movq	_ZNSt12system_errorD1Ev@GOTPCREL(%rip), %rdx
	movq	%rbx, %rdi
	movdqa	16(%rsp), %xmm0
	movq	_ZTISt12system_error@GOTPCREL(%rip), %rsi
	movups	%xmm0, 16(%rbx)
	addq	$16, %rax
	movq	%rax, (%rbx)
.LEHB15:
	call	__cxa_throw@PLT
.LEHE15:
.L1178:
	movq	%rax, %rbx
	movq	%rbp, %rdi
	call	_ZNSt12system_errorD1Ev@PLT
	movq	%rbx, %rdi
.LEHB16:
	call	_Unwind_Resume@PLT
.LEHE16:
	.cfi_endproc
.LFE2346:
	.section	.gcc_except_table
.LLSDA2346:
	.byte	0xff
	.byte	0xff
	.byte	0x1
	.uleb128 .LLSDACSE2346-.LLSDACSB2346
.LLSDACSB2346:
	.uleb128 .LEHB14-.LFB2346
	.uleb128 .LEHE14-.LEHB14
	.uleb128 0
	.uleb128 0
	.uleb128 .LEHB15-.LFB2346
	.uleb128 .LEHE15-.LEHB15
	.uleb128 .L1178-.LFB2346
	.uleb128 0
	.uleb128 .LEHB16-.LFB2346
	.uleb128 .LEHE16-.LEHB16
	.uleb128 0
	.uleb128 0
.LLSDACSE2346:
	.section	.text._ZN4asio6detail14do_throw_errorERKSt10error_codePKc,"axG",@progbits,_ZN4asio6detail14do_throw_errorERKSt10error_codePKc,comdat
	.size	_ZN4asio6detail14do_throw_errorERKSt10error_codePKc, .-_ZN4asio6detail14do_throw_errorERKSt10error_codePKc
	.section	.rodata._ZN4asio6detail13epoll_reactor12fork_serviceENS_10io_service10fork_eventE.str1.1,"aMS",@progbits,1
.LC24:
	.string	"epoll"
.LC25:
	.string	"eventfd_select_interrupter"
.LC26:
	.string	"epoll re-registration"
	.section	.text._ZN4asio6detail13epoll_reactor12fork_serviceENS_10io_service10fork_eventE,"axG",@progbits,_ZN4asio6detail13epoll_reactor12fork_serviceENS_10io_service10fork_eventE,comdat
	.align 2
	.p2align 4,,15
	.weak	_ZN4asio6detail13epoll_reactor12fork_serviceENS_10io_service10fork_eventE
	.type	_ZN4asio6detail13epoll_reactor12fork_serviceENS_10io_service10fork_eventE, @function
_ZN4asio6detail13epoll_reactor12fork_serviceENS_10io_service10fork_eventE:
.LFB3196:
	.cfi_startproc
	.cfi_personality 0x9b,DW.ref.__gxx_personality_v0
	.cfi_lsda 0x1b,.LLSDA3196
	pushq	%r15
	.cfi_def_cfa_offset 16
	.cfi_offset 15, -16
	pushq	%r14
	.cfi_def_cfa_offset 24
	.cfi_offset 14, -24
	pushq	%r13
	.cfi_def_cfa_offset 32
	.cfi_offset 13, -32
	pushq	%r12
	.cfi_def_cfa_offset 40
	.cfi_offset 12, -40
	pushq	%rbp
	.cfi_def_cfa_offset 48
	.cfi_offset 6, -48
	pushq	%rbx
	.cfi_def_cfa_offset 56
	.cfi_offset 3, -56
	subq	$104, %rsp
	.cfi_def_cfa_offset 160
	movq	%fs:40, %rax
	movq	%rax, 88(%rsp)
	xorl	%eax, %eax
	cmpl	$2, %esi
	je	.L1283
.L1180:
	movq	88(%rsp), %rax
	xorq	%fs:40, %rax
	jne	.L1284
	addq	$104, %rsp
	.cfi_remember_state
	.cfi_def_cfa_offset 56
	popq	%rbx
	.cfi_def_cfa_offset 48
	popq	%rbp
	.cfi_def_cfa_offset 40
	popq	%r12
	.cfi_def_cfa_offset 32
	popq	%r13
	.cfi_def_cfa_offset 24
	popq	%r14
	.cfi_def_cfa_offset 16
	popq	%r15
	.cfi_def_cfa_offset 8
	ret
	.p2align 4,,10
	.p2align 3
.L1283:
	.cfi_restore_state
	movq	%rdi, %rbx
	movl	96(%rdi), %edi
	cmpl	$-1, %edi
	jne	.L1285
.L1182:
	movl	$-1, 96(%rbx)
	movl	$524288, %edi
	call	epoll_create1@PLT
	cmpl	$-1, %eax
	movl	%eax, %ebp
	je	.L1286
.L1183:
	movl	100(%rbx), %edi
	movl	%ebp, 96(%rbx)
	cmpl	$-1, %edi
	jne	.L1287
.L1189:
	movl	$-1, 100(%rbx)
	movl	$524288, %esi
	movl	$1, %edi
	call	timerfd_create@PLT
	cmpl	$-1, %eax
	movl	%eax, %ebp
	je	.L1288
.L1190:
	movl	92(%rbx), %edi
	movl	%ebp, 100(%rbx)
	leaq	88(%rbx), %r14
	movl	88(%rbx), %eax
	cmpl	$-1, %edi
	je	.L1191
	cmpl	%eax, %edi
	jne	.L1289
.L1192:
	movl	%eax, %edi
.LEHB17:
	call	close@PLT
.L1193:
	xorl	%edi, %edi
	movq	$-1, 88(%rbx)
	movl	$526336, %esi
	call	eventfd@PLT
	cmpl	$-1, %eax
	movl	%eax, 88(%rbx)
	movl	%eax, 92(%rbx)
	je	.L1290
.L1194:
	movl	96(%rbx), %edi
	leaq	4(%rsp), %rbp
	movl	%eax, %edx
	movl	$1, %esi
	movl	$-2147483639, 4(%rsp)
	movq	%r14, 8(%rsp)
	movq	%rbp, %rcx
	leaq	48(%rsp), %r13
	call	epoll_ctl@PLT
	movl	92(%rbx), %edi
	movl	$8, %edx
	movq	%r13, %rsi
	movq	$1, 48(%rsp)
	call	write@PLT
.LEHE17:
	movl	100(%rbx), %edx
	cmpl	$-1, %edx
	jne	.L1291
.L1202:
	movl	88(%rbx), %edx
	movl	96(%rbx), %edi
	movq	%r13, %rcx
	movl	$3, %esi
	movl	$-2147483639, 48(%rsp)
	movq	%r14, 52(%rsp)
	call	epoll_ctl@PLT
.L1208:
	leaq	120(%rbx), %r14
	movq	%r14, %rdi
	call	pthread_mutex_lock@PLT
	movq	160(%rbx), %r15
	testq	%r15, %r15
	jne	.L1215
	jmp	.L1209
	.p2align 4,,10
	.p2align 3
.L1210:
	movq	24(%r15), %r15
	testq	%r15, %r15
	je	.L1209
.L1215:
	movl	92(%r15), %eax
	movl	88(%r15), %edx
	movq	%rbp, %rcx
	movl	96(%rbx), %edi
	movl	$1, %esi
	movq	%r15, 8(%rsp)
	movl	%eax, 4(%rsp)
	call	epoll_ctl@PLT
	testl	%eax, %eax
	je	.L1210
	movq	_ZGVZN4asio15system_categoryEvE8instance@GOTPCREL(%rip), %r12
	movzbl	(%r12), %eax
	testb	%al, %al
	je	.L1211
.L1282:
	movq	_ZZN4asio15system_categoryEvE8instance@GOTPCREL(%rip), %r12
.L1212:
	call	__errno_location@PLT
	movl	(%rax), %eax
	movq	%r12, 56(%rsp)
	testl	%eax, %eax
	movl	%eax, 48(%rsp)
	je	.L1210
	leaq	.LC26(%rip), %rsi
	movq	%r13, %rdi
.LEHB18:
	call	_ZN4asio6detail14do_throw_errorERKSt10error_codePKc@PLT
.LEHE18:
	.p2align 4,,10
	.p2align 3
.L1289:
.LEHB19:
	call	close@PLT
	movl	88(%rbx), %eax
.L1191:
	cmpl	$-1, %eax
	je	.L1193
	jmp	.L1192
	.p2align 4,,10
	.p2align 3
.L1291:
	movl	96(%rbx), %edi
	leaq	100(%rbx), %rax
	movq	%rbp, %rcx
	movl	$1, %esi
	movl	$9, 4(%rsp)
	movq	%rax, 8(%rsp)
	call	epoll_ctl@PLT
	movl	100(%rbx), %edi
	cmpl	$-1, %edi
	je	.L1202
	movq	104(%rbx), %r12
	pxor	%xmm0, %xmm0
	testq	%r12, %r12
	movaps	%xmm0, 16(%rsp)
	je	.L1203
	movl	$300000000, %esi
	.p2align 4,,10
	.p2align 3
.L1205:
	movq	%r12, %rdi
	movq	(%r12), %rax
	call	*32(%rax)
	movq	8(%r12), %r12
	movq	%rax, %rsi
	testq	%r12, %r12
	jne	.L1205
	movabsq	$4835703278458516699, %rdx
	xorl	%r8d, %r8d
	movl	100(%rbx), %edi
	imulq	%rdx
	movq	%rsi, %rax
	sarq	$63, %rax
	sarq	$18, %rdx
	subq	%rax, %rdx
	testq	%rsi, %rsi
	movl	$1, %eax
	movq	%rdx, 32(%rsp)
	sete	%r8b
	je	.L1207
	imulq	$1000000, %rdx, %rdx
	movq	%rsi, %rax
	subq	%rdx, %rax
	imulq	$1000, %rax, %rax
.L1207:
	leaq	16(%rsp), %rdx
	movq	%r13, %rcx
	movl	%r8d, %esi
	movq	%rax, 40(%rsp)
	call	timerfd_settime@PLT
	jmp	.L1208
	.p2align 4,,10
	.p2align 3
.L1287:
	call	close@PLT
	jmp	.L1189
	.p2align 4,,10
	.p2align 3
.L1285:
	call	close@PLT
	jmp	.L1182
	.p2align 4,,10
	.p2align 3
.L1211:
	movq	%r12, %rdi
	call	__cxa_guard_acquire@PLT
	testl	%eax, %eax
	je	.L1282
	movq	%r12, %rdi
	call	__cxa_guard_release@PLT
	movq	_ZZN4asio15system_categoryEvE8instance@GOTPCREL(%rip), %r12
	movq	_ZN4asio6detail15system_categoryD1Ev@GOTPCREL(%rip), %rdi
	leaq	__dso_handle(%rip), %rdx
	movq	%r12, %rsi
	call	__cxa_atexit@PLT
	jmp	.L1212
	.p2align 4,,10
	.p2align 3
.L1209:
	movq	%r14, %rdi
	call	pthread_mutex_unlock@PLT
	jmp	.L1180
	.p2align 4,,10
	.p2align 3
.L1288:
	call	__errno_location@PLT
	cmpl	$22, (%rax)
	jne	.L1190
	xorl	%esi, %esi
	movl	$1, %edi
	call	timerfd_create@PLT
	cmpl	$-1, %eax
	movl	%eax, %ebp
	je	.L1190
	movl	%eax, %edi
	movl	$1, %edx
	movl	$2, %esi
	xorl	%eax, %eax
	call	fcntl@PLT
	jmp	.L1190
	.p2align 4,,10
	.p2align 3
.L1290:
	call	__errno_location@PLT
	cmpl	$22, (%rax)
	movq	%rax, %rbp
	je	.L1292
.L1196:
	leaq	80(%rsp), %rdi
	call	pipe@PLT
	testl	%eax, %eax
	jne	.L1293
	movl	80(%rsp), %edi
	movl	$2048, %edx
	movl	$4, %esi
	xorl	%eax, %eax
	movl	%edi, 88(%rbx)
	call	fcntl@PLT
	movl	88(%rbx), %edi
	movl	$1, %edx
	movl	$2, %esi
	xorl	%eax, %eax
	call	fcntl@PLT
	movl	84(%rsp), %edi
	movl	$2048, %edx
	movl	$4, %esi
	xorl	%eax, %eax
	movl	%edi, 92(%rbx)
	call	fcntl@PLT
	movl	92(%rbx), %edi
	movl	$1, %edx
	movl	$2, %esi
	xorl	%eax, %eax
	call	fcntl@PLT
.L1197:
	movl	88(%rbx), %eax
	jmp	.L1194
	.p2align 4,,10
	.p2align 3
.L1286:
	call	__errno_location@PLT
	movq	%rax, %r13
	movl	(%rax), %eax
	subl	$22, %eax
	andl	$-17, %eax
	jne	.L1184
	movl	$20000, %edi
	call	epoll_create@PLT
	cmpl	$-1, %eax
	movl	%eax, %r12d
	je	.L1184
	movl	%eax, %edi
	movl	$1, %edx
	movl	$2, %esi
	xorl	%eax, %eax
	movl	%r12d, %ebp
	call	fcntl@PLT
	jmp	.L1183
	.p2align 4,,10
	.p2align 3
.L1184:
	movq	_ZGVZN4asio15system_categoryEvE8instance@GOTPCREL(%rip), %r12
	movzbl	(%r12), %eax
	testb	%al, %al
	je	.L1185
.L1280:
	movq	_ZZN4asio15system_categoryEvE8instance@GOTPCREL(%rip), %r12
.L1186:
	movl	0(%r13), %eax
	movq	%r12, 56(%rsp)
	testl	%eax, %eax
	movl	%eax, 48(%rsp)
	je	.L1183
	leaq	48(%rsp), %rdi
	leaq	.LC24(%rip), %rsi
	call	_ZN4asio6detail14do_throw_errorERKSt10error_codePKc@PLT
.L1221:
	movq	%rax, %rbx
	movq	%r14, %rdi
	call	pthread_mutex_unlock@PLT
	movq	%rbx, %rdi
	call	_Unwind_Resume@PLT
	.p2align 4,,10
	.p2align 3
.L1293:
	movq	_ZGVZN4asio15system_categoryEvE8instance@GOTPCREL(%rip), %r12
	movzbl	(%r12), %eax
	testb	%al, %al
	je	.L1198
.L1281:
	movq	_ZZN4asio15system_categoryEvE8instance@GOTPCREL(%rip), %r12
.L1199:
	movl	0(%rbp), %eax
	movq	%r12, 56(%rsp)
	testl	%eax, %eax
	movl	%eax, 48(%rsp)
	je	.L1197
	leaq	48(%rsp), %rdi
	leaq	.LC25(%rip), %rsi
	call	_ZN4asio6detail14do_throw_errorERKSt10error_codePKc@PLT
	.p2align 4,,10
	.p2align 3
.L1203:
	movq	$300, 32(%rsp)
	xorl	%r8d, %r8d
	xorl	%eax, %eax
	jmp	.L1207
.L1185:
	movq	%r12, %rdi
	call	__cxa_guard_acquire@PLT
	testl	%eax, %eax
	je	.L1280
	movq	%r12, %rdi
	call	__cxa_guard_release@PLT
	movq	_ZZN4asio15system_categoryEvE8instance@GOTPCREL(%rip), %r12
	movq	_ZN4asio6detail15system_categoryD1Ev@GOTPCREL(%rip), %rdi
	leaq	__dso_handle(%rip), %rdx
	movq	%r12, %rsi
	call	__cxa_atexit@PLT
	jmp	.L1186
.L1292:
	xorl	%esi, %esi
	xorl	%edi, %edi
	call	eventfd@PLT
	cmpl	$-1, %eax
	movl	%eax, 88(%rbx)
	movl	%eax, 92(%rbx)
	je	.L1196
	movl	%eax, %edi
	movl	$2048, %edx
	movl	$4, %esi
	xorl	%eax, %eax
	call	fcntl@PLT
	movl	88(%rbx), %edi
	xorl	%eax, %eax
	movl	$1, %edx
	movl	$2, %esi
	call	fcntl@PLT
.LEHE19:
	movl	88(%rbx), %eax
	cmpl	$-1, %eax
	jne	.L1194
	jmp	.L1196
	.p2align 4,,10
	.p2align 3
.L1198:
	movq	%r12, %rdi
	call	__cxa_guard_acquire@PLT
	testl	%eax, %eax
	je	.L1281
	movq	%r12, %rdi
	call	__cxa_guard_release@PLT
	movq	_ZZN4asio15system_categoryEvE8instance@GOTPCREL(%rip), %r12
	movq	_ZN4asio6detail15system_categoryD1Ev@GOTPCREL(%rip), %rdi
	leaq	__dso_handle(%rip), %rdx
	movq	%r12, %rsi
	call	__cxa_atexit@PLT
	jmp	.L1199
.L1284:
	call	__stack_chk_fail@PLT
	.cfi_endproc
.LFE3196:
	.section	.gcc_except_table
.LLSDA3196:
	.byte	0xff
	.byte	0xff
	.byte	0x1
	.uleb128 .LLSDACSE3196-.LLSDACSB3196
.LLSDACSB3196:
	.uleb128 .LEHB17-.LFB3196
	.uleb128 .LEHE17-.LEHB17
	.uleb128 0
	.uleb128 0
	.uleb128 .LEHB18-.LFB3196
	.uleb128 .LEHE18-.LEHB18
	.uleb128 .L1221-.LFB3196
	.uleb128 0
	.uleb128 .LEHB19-.LFB3196
	.uleb128 .LEHE19-.LEHB19
	.uleb128 0
	.uleb128 0
.LLSDACSE3196:
	.section	.text._ZN4asio6detail13epoll_reactor12fork_serviceENS_10io_service10fork_eventE,"axG",@progbits,_ZN4asio6detail13epoll_reactor12fork_serviceENS_10io_service10fork_eventE,comdat
	.size	_ZN4asio6detail13epoll_reactor12fork_serviceENS_10io_service10fork_eventE, .-_ZN4asio6detail13epoll_reactor12fork_serviceENS_10io_service10fork_eventE
	.section	.text._ZN4asio6detail13epoll_reactor32perform_io_cleanup_on_block_exitD2Ev,"axG",@progbits,_ZN4asio6detail13epoll_reactor32perform_io_cleanup_on_block_exitD5Ev,comdat
	.align 2
	.p2align 4,,15
	.weak	_ZN4asio6detail13epoll_reactor32perform_io_cleanup_on_block_exitD2Ev
	.type	_ZN4asio6detail13epoll_reactor32perform_io_cleanup_on_block_exitD2Ev, @function
_ZN4asio6detail13epoll_reactor32perform_io_cleanup_on_block_exitD2Ev:
.LFB3220:
	.cfi_startproc
	.cfi_personality 0x9b,DW.ref.__gxx_personality_v0
	.cfi_lsda 0x1b,.LLSDA3220
	pushq	%r12
	.cfi_def_cfa_offset 16
	.cfi_offset 12, -16
	pushq	%rbp
	.cfi_def_cfa_offset 24
	.cfi_offset 6, -24
	pushq	%rbx
	.cfi_def_cfa_offset 32
	.cfi_offset 3, -32
	movq	%rdi, %rbx
	subq	$48, %rsp
	.cfi_def_cfa_offset 80
	movq	%fs:40, %rax
	movq	%rax, 40(%rsp)
	xorl	%eax, %eax
	cmpq	$0, 24(%rdi)
	je	.L1295
	movq	8(%rdi), %r12
	testq	%r12, %r12
	je	.L1294
	movq	(%rdi), %rax
	movq	40(%rax), %rbp
	cmpb	$0, 40(%rbp)
	je	.L1297
	.byte	0x66
	leaq	_ZN4asio6detail15keyword_tss_ptrINS0_10call_stackINS0_15task_io_serviceENS0_27task_io_service_thread_infoEE7contextEE6value_E@tlsgd(%rip), %rdi
	.value	0x6666
	rex64
	call	__tls_get_addr@PLT
	movq	(%rax), %rax
	testq	%rax, %rax
	jne	.L1338
	jmp	.L1297
	.p2align 4,,10
	.p2align 3
.L1299:
	movq	16(%rax), %rax
	testq	%rax, %rax
	je	.L1297
.L1338:
	cmpq	(%rax), %rbp
	jne	.L1299
	movq	8(%rax), %rax
	testq	%rax, %rax
	je	.L1297
	movq	16(%rax), %rdx
	testq	%rdx, %rdx
	je	.L1302
	movq	%r12, (%rdx)
.L1303:
	movq	16(%rbx), %rdx
	movq	%rdx, 16(%rax)
	.p2align 4,,10
	.p2align 3
.L1294:
	movq	40(%rsp), %rax
	xorq	%fs:40, %rax
	jne	.L1343
	addq	$48, %rsp
	.cfi_remember_state
	.cfi_def_cfa_offset 32
	popq	%rbx
	.cfi_def_cfa_offset 24
	popq	%rbp
	.cfi_def_cfa_offset 16
	popq	%r12
	.cfi_def_cfa_offset 8
	ret
	.p2align 4,,10
	.p2align 3
.L1295:
	.cfi_restore_state
	movq	(%rdi), %rax
	movq	40(%rax), %rax
	lock addq	$1, 184(%rax)
	movq	8(%rdi), %rsi
.L1311:
	testq	%rsi, %rsi
	je	.L1294
	movq	%rsi, 8(%rsp)
	leaq	16(%rsp), %rbp
	call	_ZNSt3_V215system_categoryEv@PLT
	movq	8(%rsp), %rsi
	movq	%rax, %r12
	jmp	.L1312
	.p2align 4,,10
	.p2align 3
.L1313:
	movq	$0, (%rsi)
	movq	8(%rsi), %rax
	xorl	%ecx, %ecx
	xorl	%edi, %edi
	movl	$0, 16(%rsp)
	movq	%r12, 24(%rsp)
	movq	%rbp, %rdx
	call	*%rax
	movq	8(%rbx), %rsi
	testq	%rsi, %rsi
	je	.L1294
.L1312:
	movq	(%rsi), %rax
	testq	%rax, %rax
	movq	%rax, 8(%rbx)
	jne	.L1313
	movq	$0, 16(%rbx)
	jmp	.L1313
	.p2align 4,,10
	.p2align 3
.L1297:
	leaq	48(%rbp), %r12
	movq	%r12, %rdi
	call	pthread_mutex_lock@PLT
	movq	8(%rbx), %rax
	testq	%rax, %rax
	je	.L1304
	movq	200(%rbp), %rdx
	testq	%rdx, %rdx
	je	.L1305
	movq	%rax, (%rdx)
.L1306:
	movq	16(%rbx), %rax
	movq	%rax, 200(%rbp)
	movq	$0, 8(%rbx)
	movq	$0, 16(%rbx)
.L1304:
	movq	136(%rbp), %rax
	orq	$1, %rax
	cmpq	$1, %rax
	movq	%rax, 136(%rbp)
	jne	.L1344
	cmpb	$0, 176(%rbp)
	jne	.L1309
	movq	144(%rbp), %rax
	testq	%rax, %rax
	je	.L1309
	leaq	88(%rax), %rdx
	movb	$1, 176(%rbp)
	movl	$-2147483639, 16(%rsp)
	leaq	16(%rsp), %rbp
	movl	$3, %esi
	movq	%rdx, 20(%rsp)
	movl	88(%rax), %edx
	movl	96(%rax), %edi
	movq	%rbp, %rcx
	call	epoll_ctl@PLT
.L1309:
	movq	%r12, %rdi
	call	pthread_mutex_unlock@PLT
.L1308:
	movq	8(%rbx), %rsi
	jmp	.L1311
	.p2align 4,,10
	.p2align 3
.L1344:
	movq	%r12, %rdi
	call	pthread_mutex_unlock@PLT
	leaq	88(%rbp), %rdi
	call	pthread_cond_signal@PLT
	jmp	.L1308
.L1302:
	movq	%r12, 8(%rax)
	jmp	.L1303
.L1305:
	movq	%rax, 192(%rbp)
	jmp	.L1306
.L1343:
	call	__stack_chk_fail@PLT
	.cfi_endproc
.LFE3220:
	.section	.gcc_except_table
.LLSDA3220:
	.byte	0xff
	.byte	0xff
	.byte	0x1
	.uleb128 .LLSDACSE3220-.LLSDACSB3220
.LLSDACSB3220:
.LLSDACSE3220:
	.section	.text._ZN4asio6detail13epoll_reactor32perform_io_cleanup_on_block_exitD2Ev,"axG",@progbits,_ZN4asio6detail13epoll_reactor32perform_io_cleanup_on_block_exitD5Ev,comdat
	.size	_ZN4asio6detail13epoll_reactor32perform_io_cleanup_on_block_exitD2Ev, .-_ZN4asio6detail13epoll_reactor32perform_io_cleanup_on_block_exitD2Ev
	.weak	_ZN4asio6detail13epoll_reactor32perform_io_cleanup_on_block_exitD1Ev
	.set	_ZN4asio6detail13epoll_reactor32perform_io_cleanup_on_block_exitD1Ev,_ZN4asio6detail13epoll_reactor32perform_io_cleanup_on_block_exitD2Ev
	.section	.text._ZN4asio6detail13epoll_reactor16descriptor_state11do_completeEPNS0_15task_io_serviceEPNS0_25task_io_service_operationERKSt10error_codem,"axG",@progbits,_ZN4asio6detail13epoll_reactor16descriptor_state11do_completeEPNS0_15task_io_serviceEPNS0_25task_io_service_operationERKSt10error_codem,comdat
	.align 2
	.p2align 4,,15
	.weak	_ZN4asio6detail13epoll_reactor16descriptor_state11do_completeEPNS0_15task_io_serviceEPNS0_25task_io_service_operationERKSt10error_codem
	.type	_ZN4asio6detail13epoll_reactor16descriptor_state11do_completeEPNS0_15task_io_serviceEPNS0_25task_io_service_operationERKSt10error_codem, @function
_ZN4asio6detail13epoll_reactor16descriptor_state11do_completeEPNS0_15task_io_serviceEPNS0_25task_io_service_operationERKSt10error_codem:
.LFB3226:
	.cfi_startproc
	.cfi_personality 0x9b,DW.ref.__gxx_personality_v0
	.cfi_lsda 0x1b,.LLSDA3226
	pushq	%r15
	.cfi_def_cfa_offset 16
	.cfi_offset 15, -16
	pushq	%r14
	.cfi_def_cfa_offset 24
	.cfi_offset 14, -24
	pushq	%r13
	.cfi_def_cfa_offset 32
	.cfi_offset 13, -32
	pushq	%r12
	.cfi_def_cfa_offset 40
	.cfi_offset 12, -40
	pushq	%rbp
	.cfi_def_cfa_offset 48
	.cfi_offset 6, -48
	pushq	%rbx
	.cfi_def_cfa_offset 56
	.cfi_offset 3, -56
	subq	$88, %rsp
	.cfi_def_cfa_offset 144
	movq	%fs:40, %rax
	movq	%rax, 72(%rsp)
	xorl	%eax, %eax
	testq	%rdi, %rdi
	movq	%rdx, (%rsp)
	je	.L1345
	leaq	40(%rsi), %rax
	movq	%rsi, %rbp
	movq	%rdi, %r14
	movl	%ecx, %r13d
	subq	$-128, %rbp
	movl	$2, %r12d
	movq	%rax, %rdi
	movq	%rax, 8(%rsp)
	call	pthread_mutex_lock@PLT
	movq	-48(%rbp), %rax
	movq	_ZZN4asio6detail13epoll_reactor16descriptor_state10perform_ioEjE4flag@GOTPCREL(%rip), %r15
	movq	$0, 40(%rsp)
	movq	$0, 48(%rsp)
	movq	$0, 56(%rsp)
	movq	%rax, 32(%rsp)
.L1354:
	movl	(%r15,%r12,4), %eax
	orl	$24, %eax
	testl	%r13d, %eax
	jne	.L1348
.L1349:
	subq	$1, %r12
	subq	$16, %rbp
	cmpq	$-1, %r12
	jne	.L1354
	movq	40(%rsp), %rbx
	testq	%rbx, %rbx
	movq	%rbx, 56(%rsp)
	je	.L1355
	movq	(%rbx), %rax
	testq	%rax, %rax
	movq	%rax, 40(%rsp)
	je	.L1426
.L1356:
	movq	$0, (%rbx)
.L1355:
	movq	8(%rsp), %rdi
	call	pthread_mutex_unlock@PLT
	cmpq	$0, 56(%rsp)
	je	.L1357
	movq	40(%rsp), %r12
	testq	%r12, %r12
	je	.L1358
	movq	32(%rsp), %rax
	movq	40(%rax), %rbp
	cmpb	$0, 40(%rbp)
	je	.L1359
	.byte	0x66
	leaq	_ZN4asio6detail15keyword_tss_ptrINS0_10call_stackINS0_15task_io_serviceENS0_27task_io_service_thread_infoEE7contextEE6value_E@tlsgd(%rip), %rdi
	.value	0x6666
	rex64
	call	__tls_get_addr@PLT
	movq	(%rax), %rax
	testq	%rax, %rax
	jne	.L1421
	jmp	.L1359
	.p2align 4,,10
	.p2align 3
.L1361:
	movq	16(%rax), %rax
	testq	%rax, %rax
	je	.L1359
.L1421:
	cmpq	(%rax), %rbp
	jne	.L1361
	movq	8(%rax), %rax
	testq	%rax, %rax
	je	.L1359
	movq	16(%rax), %rdx
	testq	%rdx, %rdx
	je	.L1364
	movq	%r12, (%rdx)
.L1365:
	movq	48(%rsp), %rdx
	movq	%rdx, 16(%rax)
	.p2align 4,,10
	.p2align 3
.L1358:
	testq	%rbx, %rbx
	je	.L1345
	xorl	%ecx, %ecx
	movq	(%rsp), %rdx
	movq	%rbx, %rsi
	movq	%r14, %rdi
.LEHB20:
	call	*8(%rbx)
.LEHE20:
.L1345:
	movq	72(%rsp), %rax
	xorq	%fs:40, %rax
	jne	.L1427
	addq	$88, %rsp
	.cfi_remember_state
	.cfi_def_cfa_offset 56
	popq	%rbx
	.cfi_def_cfa_offset 48
	popq	%rbp
	.cfi_def_cfa_offset 40
	popq	%r12
	.cfi_def_cfa_offset 32
	popq	%r13
	.cfi_def_cfa_offset 24
	popq	%r14
	.cfi_def_cfa_offset 16
	popq	%r15
	.cfi_def_cfa_offset 8
	ret
	.p2align 4,,10
	.p2align 3
.L1352:
	.cfi_restore_state
	movq	%rbx, 48(%rsp)
	movq	%rbx, 40(%rsp)
.L1348:
	movq	0(%rbp), %rbx
	testq	%rbx, %rbx
	je	.L1349
.L1429:
	movq	%rbx, %rdi
.LEHB21:
	call	*48(%rbx)
.LEHE21:
	testb	%al, %al
	je	.L1349
	movq	0(%rbp), %rax
	testq	%rax, %rax
	je	.L1350
	movq	(%rax), %rdx
	testq	%rdx, %rdx
	movq	%rdx, 0(%rbp)
	je	.L1428
.L1351:
	movq	$0, (%rax)
.L1350:
	movq	48(%rsp), %rax
	movq	$0, (%rbx)
	testq	%rax, %rax
	je	.L1352
	movq	%rbx, (%rax)
	movq	%rbx, 48(%rsp)
	movq	0(%rbp), %rbx
	testq	%rbx, %rbx
	jne	.L1429
	jmp	.L1349
	.p2align 4,,10
	.p2align 3
.L1428:
	movq	$0, 8(%rbp)
	jmp	.L1351
	.p2align 4,,10
	.p2align 3
.L1357:
	movq	32(%rsp), %rax
	movq	40(%rax), %rax
	lock addq	$1, 184(%rax)
.L1373:
	movq	40(%rsp), %rsi
	testq	%rsi, %rsi
	je	.L1358
	movq	%rsi, 8(%rsp)
	leaq	16(%rsp), %rbp
	call	_ZNSt3_V215system_categoryEv@PLT
	movq	8(%rsp), %rsi
	movq	%rax, %r12
	jmp	.L1374
	.p2align 4,,10
	.p2align 3
.L1375:
	movq	$0, (%rsi)
	movq	8(%rsi), %rax
	xorl	%ecx, %ecx
	xorl	%edi, %edi
	movl	$0, 16(%rsp)
	movq	%r12, 24(%rsp)
	movq	%rbp, %rdx
	call	*%rax
	movq	40(%rsp), %rsi
	testq	%rsi, %rsi
	je	.L1358
.L1374:
	movq	(%rsi), %rax
	testq	%rax, %rax
	movq	%rax, 40(%rsp)
	jne	.L1375
	movq	$0, 48(%rsp)
	jmp	.L1375
	.p2align 4,,10
	.p2align 3
.L1359:
	leaq	48(%rbp), %r12
	movq	%r12, %rdi
	call	pthread_mutex_lock@PLT
	movq	40(%rsp), %rax
	testq	%rax, %rax
	je	.L1366
	movq	200(%rbp), %rdx
	testq	%rdx, %rdx
	je	.L1367
	movq	%rax, (%rdx)
.L1368:
	movq	48(%rsp), %rax
	movq	$0, 40(%rsp)
	movq	$0, 48(%rsp)
	movq	%rax, 200(%rbp)
.L1366:
	movq	136(%rbp), %rax
	orq	$1, %rax
	cmpq	$1, %rax
	movq	%rax, 136(%rbp)
	jne	.L1430
	cmpb	$0, 176(%rbp)
	jne	.L1371
	movq	144(%rbp), %rax
	testq	%rax, %rax
	je	.L1371
	leaq	88(%rax), %rdx
	movb	$1, 176(%rbp)
	movl	$-2147483639, 16(%rsp)
	leaq	16(%rsp), %rbp
	movl	$3, %esi
	movq	%rdx, 20(%rsp)
	movl	88(%rax), %edx
	movl	96(%rax), %edi
	movq	%rbp, %rcx
	call	epoll_ctl@PLT
.L1371:
	movq	%r12, %rdi
	call	pthread_mutex_unlock@PLT
	jmp	.L1373
	.p2align 4,,10
	.p2align 3
.L1426:
	movq	$0, 48(%rsp)
	jmp	.L1356
.L1367:
	movq	%rax, 192(%rbp)
	jmp	.L1368
	.p2align 4,,10
	.p2align 3
.L1430:
	movq	%r12, %rdi
	call	pthread_mutex_unlock@PLT
	leaq	88(%rbp), %rdi
	call	pthread_cond_signal@PLT
	jmp	.L1373
.L1364:
	movq	%r12, 8(%rax)
	jmp	.L1365
.L1427:
	call	__stack_chk_fail@PLT
.L1381:
	movq	8(%rsp), %rdi
	movq	%rax, %rbx
	call	pthread_mutex_unlock@PLT
	leaq	32(%rsp), %rdi
	call	_ZN4asio6detail13epoll_reactor32perform_io_cleanup_on_block_exitD1Ev@PLT
	movq	%rbx, %rdi
.LEHB22:
	call	_Unwind_Resume@PLT
.LEHE22:
	.cfi_endproc
.LFE3226:
	.section	.gcc_except_table
.LLSDA3226:
	.byte	0xff
	.byte	0xff
	.byte	0x1
	.uleb128 .LLSDACSE3226-.LLSDACSB3226
.LLSDACSB3226:
	.uleb128 .LEHB20-.LFB3226
	.uleb128 .LEHE20-.LEHB20
	.uleb128 0
	.uleb128 0
	.uleb128 .LEHB21-.LFB3226
	.uleb128 .LEHE21-.LEHB21
	.uleb128 .L1381-.LFB3226
	.uleb128 0
	.uleb128 .LEHB22-.LFB3226
	.uleb128 .LEHE22-.LEHB22
	.uleb128 0
	.uleb128 0
.LLSDACSE3226:
	.section	.text._ZN4asio6detail13epoll_reactor16descriptor_state11do_completeEPNS0_15task_io_serviceEPNS0_25task_io_service_operationERKSt10error_codem,"axG",@progbits,_ZN4asio6detail13epoll_reactor16descriptor_state11do_completeEPNS0_15task_io_serviceEPNS0_25task_io_service_operationERKSt10error_codem,comdat
	.size	_ZN4asio6detail13epoll_reactor16descriptor_state11do_completeEPNS0_15task_io_serviceEPNS0_25task_io_service_operationERKSt10error_codem, .-_ZN4asio6detail13epoll_reactor16descriptor_state11do_completeEPNS0_15task_io_serviceEPNS0_25task_io_service_operationERKSt10error_codem
	.section	.text._ZN4asio6detail15task_io_service25post_immediate_completionEPNS0_25task_io_service_operationEb,"axG",@progbits,_ZN4asio6detail15task_io_service25post_immediate_completionEPNS0_25task_io_service_operationEb,comdat
	.align 2
	.p2align 4,,15
	.weak	_ZN4asio6detail15task_io_service25post_immediate_completionEPNS0_25task_io_service_operationEb
	.type	_ZN4asio6detail15task_io_service25post_immediate_completionEPNS0_25task_io_service_operationEb, @function
_ZN4asio6detail15task_io_service25post_immediate_completionEPNS0_25task_io_service_operationEb:
.LFB3258:
	.cfi_startproc
	pushq	%r12
	.cfi_def_cfa_offset 16
	.cfi_offset 12, -16
	pushq	%rbp
	.cfi_def_cfa_offset 24
	.cfi_offset 6, -24
	movq	%rsi, %rbp
	pushq	%rbx
	.cfi_def_cfa_offset 32
	.cfi_offset 3, -32
	movq	%rdi, %rbx
	subq	$32, %rsp
	.cfi_def_cfa_offset 64
	movq	%fs:40, %rax
	movq	%rax, 24(%rsp)
	xorl	%eax, %eax
	cmpb	$0, 40(%rdi)
	jne	.L1446
	testb	%dl, %dl
	je	.L1432
.L1446:
	.byte	0x66
	leaq	_ZN4asio6detail15keyword_tss_ptrINS0_10call_stackINS0_15task_io_serviceENS0_27task_io_service_thread_infoEE7contextEE6value_E@tlsgd(%rip), %rdi
	.value	0x6666
	rex64
	call	__tls_get_addr@PLT
	movq	(%rax), %rax
	testq	%rax, %rax
	jne	.L1457
	jmp	.L1432
	.p2align 4,,10
	.p2align 3
.L1435:
	movq	16(%rax), %rax
	testq	%rax, %rax
	je	.L1432
.L1457:
	cmpq	(%rax), %rbx
	jne	.L1435
	movq	8(%rax), %rax
	testq	%rax, %rax
	je	.L1432
	addq	$1, 24(%rax)
	cmpq	$0, 16(%rax)
	movq	$0, 0(%rbp)
	je	.L1438
	movq	16(%rax), %rdx
	movq	%rbp, (%rdx)
	movq	%rbp, 16(%rax)
.L1431:
	movq	24(%rsp), %rax
	xorq	%fs:40, %rax
	jne	.L1460
	addq	$32, %rsp
	.cfi_remember_state
	.cfi_def_cfa_offset 32
	popq	%rbx
	.cfi_def_cfa_offset 24
	popq	%rbp
	.cfi_def_cfa_offset 16
	popq	%r12
	.cfi_def_cfa_offset 8
	ret
	.p2align 4,,10
	.p2align 3
.L1432:
	.cfi_restore_state
	lock addq	$1, 184(%rbx)
	leaq	48(%rbx), %r12
	movq	%r12, %rdi
	call	pthread_mutex_lock@PLT
	cmpq	$0, 200(%rbx)
	movq	$0, 0(%rbp)
	je	.L1440
	movq	200(%rbx), %rax
	movq	%rbp, (%rax)
	movq	%rbp, 200(%rbx)
.L1441:
	movq	136(%rbx), %rax
	orq	$1, %rax
	cmpq	$1, %rax
	movq	%rax, 136(%rbx)
	jne	.L1461
	cmpb	$0, 176(%rbx)
	jne	.L1444
	movq	144(%rbx), %rax
	testq	%rax, %rax
	je	.L1444
	leaq	88(%rax), %rdx
	movb	$1, 176(%rbx)
	movl	96(%rax), %edi
	leaq	12(%rsp), %rcx
	movl	$3, %esi
	movl	$-2147483639, 12(%rsp)
	movq	%rdx, 16(%rsp)
	movl	88(%rax), %edx
	call	epoll_ctl@PLT
.L1444:
	movq	%r12, %rdi
	call	pthread_mutex_unlock@PLT
	jmp	.L1431
	.p2align 4,,10
	.p2align 3
.L1461:
	movq	%r12, %rdi
	call	pthread_mutex_unlock@PLT
	leaq	88(%rbx), %rdi
	call	pthread_cond_signal@PLT
	jmp	.L1431
	.p2align 4,,10
	.p2align 3
.L1438:
	movq	%rbp, 16(%rax)
	movq	%rbp, 8(%rax)
	jmp	.L1431
	.p2align 4,,10
	.p2align 3
.L1440:
	movq	%rbp, 200(%rbx)
	movq	%rbp, 192(%rbx)
	jmp	.L1441
.L1460:
	call	__stack_chk_fail@PLT
	.cfi_endproc
.LFE3258:
	.size	_ZN4asio6detail15task_io_service25post_immediate_completionEPNS0_25task_io_service_operationEb, .-_ZN4asio6detail15task_io_service25post_immediate_completionEPNS0_25task_io_service_operationEb
	.section	.text._ZN4asio6detail14strand_service16on_dispatch_exitD2Ev,"axG",@progbits,_ZN4asio6detail14strand_service16on_dispatch_exitD5Ev,comdat
	.align 2
	.p2align 4,,15
	.weak	_ZN4asio6detail14strand_service16on_dispatch_exitD2Ev
	.type	_ZN4asio6detail14strand_service16on_dispatch_exitD2Ev, @function
_ZN4asio6detail14strand_service16on_dispatch_exitD2Ev:
.LFB6300:
	.cfi_startproc
	pushq	%r12
	.cfi_def_cfa_offset 16
	.cfi_offset 12, -16
	pushq	%rbp
	.cfi_def_cfa_offset 24
	.cfi_offset 6, -24
	movq	%rdi, %rbp
	pushq	%rbx
	.cfi_def_cfa_offset 32
	.cfi_offset 3, -32
	subq	$32, %rsp
	.cfi_def_cfa_offset 64
	movq	%fs:40, %rax
	movq	%rax, 24(%rsp)
	xorl	%eax, %eax
	movq	8(%rdi), %rax
	leaq	24(%rax), %rdi
	call	pthread_mutex_lock@PLT
	movq	8(%rbp), %rax
	movq	72(%rax), %rbx
	testq	%rbx, %rbx
	je	.L1496
	movq	96(%rax), %rdx
	testq	%rdx, %rdx
	je	.L1465
	movq	%rbx, (%rdx)
	movq	88(%rax), %rbx
.L1466:
	movq	80(%rax), %rdx
	movq	$0, 72(%rax)
	movq	$0, 80(%rax)
	movq	%rdx, 96(%rax)
.L1464:
	testq	%rbx, %rbx
	setne	64(%rax)
	movq	8(%rbp), %rax
	leaq	24(%rax), %rdi
	call	pthread_mutex_unlock@PLT
	testq	%rbx, %rbx
	jne	.L1497
.L1462:
	movq	24(%rsp), %rax
	xorq	%fs:40, %rax
	jne	.L1498
	addq	$32, %rsp
	.cfi_remember_state
	.cfi_def_cfa_offset 32
	popq	%rbx
	.cfi_def_cfa_offset 24
	popq	%rbp
	.cfi_def_cfa_offset 16
	popq	%r12
	.cfi_def_cfa_offset 8
	ret
	.p2align 4,,10
	.p2align 3
.L1465:
	.cfi_restore_state
	movq	%rbx, 88(%rax)
	jmp	.L1466
	.p2align 4,,10
	.p2align 3
.L1497:
	movq	0(%rbp), %rbx
	movq	8(%rbp), %rbp
	cmpb	$0, 40(%rbx)
	je	.L1468
	.byte	0x66
	leaq	_ZN4asio6detail15keyword_tss_ptrINS0_10call_stackINS0_15task_io_serviceENS0_27task_io_service_thread_infoEE7contextEE6value_E@tlsgd(%rip), %rdi
	.value	0x6666
	rex64
	call	__tls_get_addr@PLT
	movq	(%rax), %rax
	testq	%rax, %rax
	jne	.L1493
	jmp	.L1468
	.p2align 4,,10
	.p2align 3
.L1470:
	movq	16(%rax), %rax
	testq	%rax, %rax
	je	.L1468
.L1493:
	cmpq	(%rax), %rbx
	jne	.L1470
	movq	8(%rax), %rax
	testq	%rax, %rax
	je	.L1468
	addq	$1, 24(%rax)
	cmpq	$0, 16(%rax)
	movq	$0, 0(%rbp)
	je	.L1473
	movq	16(%rax), %rdx
	movq	%rbp, (%rdx)
	movq	%rbp, 16(%rax)
	jmp	.L1462
	.p2align 4,,10
	.p2align 3
.L1468:
	lock addq	$1, 184(%rbx)
	leaq	48(%rbx), %r12
	movq	%r12, %rdi
	call	pthread_mutex_lock@PLT
	cmpq	$0, 200(%rbx)
	movq	$0, 0(%rbp)
	je	.L1474
	movq	200(%rbx), %rax
	movq	%rbp, (%rax)
	movq	%rbp, 200(%rbx)
.L1475:
	movq	136(%rbx), %rax
	orq	$1, %rax
	cmpq	$1, %rax
	movq	%rax, 136(%rbx)
	jne	.L1499
	cmpb	$0, 176(%rbx)
	jne	.L1478
	movq	144(%rbx), %rax
	testq	%rax, %rax
	je	.L1478
	leaq	88(%rax), %rdx
	movb	$1, 176(%rbx)
	movl	96(%rax), %edi
	leaq	12(%rsp), %rcx
	movl	$3, %esi
	movl	$-2147483639, 12(%rsp)
	movq	%rdx, 16(%rsp)
	movl	88(%rax), %edx
	call	epoll_ctl@PLT
.L1478:
	movq	%r12, %rdi
	call	pthread_mutex_unlock@PLT
	jmp	.L1462
	.p2align 4,,10
	.p2align 3
.L1496:
	movq	88(%rax), %rbx
	jmp	.L1464
	.p2align 4,,10
	.p2align 3
.L1474:
	movq	%rbp, 200(%rbx)
	movq	%rbp, 192(%rbx)
	jmp	.L1475
	.p2align 4,,10
	.p2align 3
.L1499:
	movq	%r12, %rdi
	call	pthread_mutex_unlock@PLT
	leaq	88(%rbx), %rdi
	call	pthread_cond_signal@PLT
	jmp	.L1462
	.p2align 4,,10
	.p2align 3
.L1473:
	movq	%rbp, 16(%rax)
	movq	%rbp, 8(%rax)
	jmp	.L1462
.L1498:
	call	__stack_chk_fail@PLT
	.cfi_endproc
.LFE6300:
	.size	_ZN4asio6detail14strand_service16on_dispatch_exitD2Ev, .-_ZN4asio6detail14strand_service16on_dispatch_exitD2Ev
	.weak	_ZN4asio6detail14strand_service16on_dispatch_exitD1Ev
	.set	_ZN4asio6detail14strand_service16on_dispatch_exitD1Ev,_ZN4asio6detail14strand_service16on_dispatch_exitD2Ev
	.text
	.align 2
	.p2align 4,,15
	.type	_ZN4asio6detail14strand_service8dispatchINS0_7binder2IZN7asiopal13SerialChannel14BeginWriteImplERKN7openpal6RSliceEEUlRKSt10error_codemE_SA_mEEEEvRPNS1_11strand_implERT_, @function
_ZN4asio6detail14strand_service8dispatchINS0_7binder2IZN7asiopal13SerialChannel14BeginWriteImplERKN7openpal6RSliceEEUlRKSt10error_codemE_SA_mEEEEvRPNS1_11strand_implERT_:
.LFB8645:
	.cfi_startproc
	.cfi_personality 0x9b,DW.ref.__gxx_personality_v0
	.cfi_lsda 0x1b,.LLSDA8645
	pushq	%r13
	.cfi_def_cfa_offset 16
	.cfi_offset 13, -16
	pushq	%r12
	.cfi_def_cfa_offset 24
	.cfi_offset 12, -24
	movq	%rdi, %r13
	pushq	%rbp
	.cfi_def_cfa_offset 32
	.cfi_offset 6, -32
	pushq	%rbx
	.cfi_def_cfa_offset 40
	.cfi_offset 3, -40
	movq	%rsi, %r12
	movq	%rdx, %rbp
	subq	$168, %rsp
	.cfi_def_cfa_offset 208
	movq	(%rsi), %rbx
	movq	%fs:40, %rax
	movq	%rax, 152(%rsp)
	xorl	%eax, %eax
	.byte	0x66
	leaq	_ZN4asio6detail15keyword_tss_ptrINS0_10call_stackINS0_14strand_service11strand_implEhE7contextEE6value_E@tlsgd(%rip), %rdi
	.value	0x6666
	rex64
	call	__tls_get_addr@PLT
	movq	(%rax), %rax
	testq	%rax, %rax
	jne	.L1639
	jmp	.L1501
	.p2align 4,,10
	.p2align 3
.L1503:
	movq	16(%rax), %rax
	testq	%rax, %rax
	je	.L1501
.L1639:
	cmpq	(%rax), %rbx
	jne	.L1503
	cmpq	$0, 8(%rax)
	je	.L1501
	lfence
	movq	0(%rbp), %rax
	movq	24(%rbp), %rdx
	movq	40(%rax), %rdi
	movb	$0, 58(%rax)
	testq	%rdi, %rdi
	je	.L1508
	cmpb	$0, 56(%rax)
	je	.L1649
.L1508:
	sfence
.L1500:
	movq	152(%rsp), %rax
	xorq	%fs:40, %rax
	jne	.L1650
	addq	$168, %rsp
	.cfi_remember_state
	.cfi_def_cfa_offset 40
	popq	%rbx
	.cfi_def_cfa_offset 32
	popq	%rbp
	.cfi_def_cfa_offset 24
	popq	%r12
	.cfi_def_cfa_offset 16
	popq	%r13
	.cfi_def_cfa_offset 8
	ret
	.p2align 4,,10
	.p2align 3
.L1501:
	.cfi_restore_state
	pxor	%xmm0, %xmm0
	movq	%rbp, 16(%rsp)
	movups	%xmm0, 24(%rsp)
	.byte	0x66
	leaq	_ZN4asio6detail15keyword_tss_ptrINS0_10call_stackINS0_15task_io_serviceENS0_27task_io_service_thread_infoEE7contextEE6value_E@tlsgd(%rip), %rdi
	.value	0x6666
	rex64
	call	__tls_get_addr@PLT
	movq	(%rax), %rax
	testq	%rax, %rax
	je	.L1509
	movq	8(%rax), %rax
	testq	%rax, %rax
	je	.L1509
	movq	(%rax), %rbx
	testq	%rbx, %rbx
	je	.L1509
	movq	$0, (%rax)
	movzbl	(%rbx), %eax
	cmpb	$55, %al
	jbe	.L1510
	movb	%al, 56(%rbx)
.L1511:
	movdqa	0(%rbp), %xmm0
	leaq	_ZN4asio6detail18completion_handlerINS0_7binder2IZN7asiopal13SerialChannel14BeginWriteImplERKN7openpal6RSliceEEUlRKSt10error_codemE_S9_mEEE11do_completeEPNS0_15task_io_serviceEPNS0_25task_io_service_operationESB_m(%rip), %rax
	movq	%rbx, 24(%rsp)
	movl	$0, 16(%rbx)
	movups	%xmm0, 24(%rbx)
	movq	$0, (%rbx)
	movq	%rax, 8(%rbx)
	movdqa	16(%rbp), %xmm0
	movq	%rbx, 32(%rsp)
	movups	%xmm0, 40(%rbx)
	movq	40(%r13), %rbp
	.byte	0x66
	leaq	_ZN4asio6detail15keyword_tss_ptrINS0_10call_stackINS0_15task_io_serviceENS0_27task_io_service_thread_infoEE7contextEE6value_E@tlsgd(%rip), %rdi
	.value	0x6666
	rex64
	call	__tls_get_addr@PLT
	movq	(%rax), %rax
	testq	%rax, %rax
	jne	.L1640
	jmp	.L1516
	.p2align 4,,10
	.p2align 3
.L1513:
	movq	16(%rax), %rax
	testq	%rax, %rax
	je	.L1516
.L1640:
	cmpq	(%rax), %rbp
	jne	.L1513
	movq	8(%rax), %rbp
	movq	(%r12), %rax
	leaq	24(%rax), %rdi
	call	pthread_mutex_lock@PLT
	testq	%rbp, %rbp
	je	.L1515
	movq	(%r12), %rdi
	cmpb	$0, 64(%rdi)
	je	.L1651
.L1518:
	cmpq	$0, 80(%rdi)
	movq	$0, (%rbx)
	je	.L1522
	movq	80(%rdi), %rax
	movq	%rbx, (%rax)
	movq	%rbx, 80(%rdi)
.L1523:
	addq	$24, %rdi
	call	pthread_mutex_unlock@PLT
	jmp	.L1500
	.p2align 4,,10
	.p2align 3
.L1649:
	movq	(%rdi), %rax
	leaq	8(%rbp), %rsi
.LEHB23:
	call	*24(%rax)
.LEHE23:
	jmp	.L1508
.L1510:
	movq	%rbx, %rdi
	call	_ZdlPv@PLT
.L1509:
	movl	$57, %edi
.LEHB24:
	call	_Znwm@PLT
.LEHE24:
	movq	%rax, %rbx
	movb	$56, 56(%rax)
	jmp	.L1511
	.p2align 4,,10
	.p2align 3
.L1516:
	movq	(%r12), %rax
	leaq	24(%rax), %rdi
	call	pthread_mutex_lock@PLT
.L1515:
	movq	(%r12), %rdi
	cmpb	$0, 64(%rdi)
	jne	.L1518
	movb	$1, 64(%rdi)
	movq	(%r12), %rax
	leaq	24(%rax), %rdi
	call	pthread_mutex_unlock@PLT
	movq	(%r12), %rbp
	movq	$0, (%rbx)
	cmpq	$0, 96(%rbp)
	je	.L1525
	movq	96(%rbp), %rax
	movq	%rbx, (%rax)
	movq	%rbx, 96(%rbp)
.L1526:
	movq	40(%r13), %rbx
	cmpb	$0, 40(%rbx)
	je	.L1527
	.byte	0x66
	leaq	_ZN4asio6detail15keyword_tss_ptrINS0_10call_stackINS0_15task_io_serviceENS0_27task_io_service_thread_infoEE7contextEE6value_E@tlsgd(%rip), %rdi
	.value	0x6666
	rex64
	call	__tls_get_addr@PLT
	movq	(%rax), %rax
	testq	%rax, %rax
	jne	.L1641
	jmp	.L1527
	.p2align 4,,10
	.p2align 3
.L1529:
	movq	16(%rax), %rax
	testq	%rax, %rax
	je	.L1527
.L1641:
	cmpq	(%rax), %rbx
	jne	.L1529
	movq	8(%rax), %rax
	testq	%rax, %rax
	je	.L1527
	addq	$1, 24(%rax)
	cmpq	$0, 16(%rax)
	movq	$0, 0(%rbp)
	je	.L1532
	movq	16(%rax), %rdx
	movq	%rbp, (%rdx)
	movq	%rbp, 16(%rax)
	jmp	.L1500
.L1527:
	lock addq	$1, 184(%rbx)
	leaq	48(%rbx), %r12
	movq	%r12, %rdi
	call	pthread_mutex_lock@PLT
	cmpq	$0, 200(%rbx)
	movq	$0, 0(%rbp)
	je	.L1533
	movq	200(%rbx), %rax
	movq	%rbp, (%rax)
	movq	%rbp, 200(%rbx)
.L1534:
	movq	136(%rbx), %rax
	orq	$1, %rax
	cmpq	$1, %rax
	movq	%rax, 136(%rbx)
	jne	.L1652
	cmpb	$0, 176(%rbx)
	jne	.L1537
	movq	144(%rbx), %rax
	testq	%rax, %rax
	je	.L1537
	leaq	88(%rax), %rdx
	movb	$1, 176(%rbx)
	movl	$-2147483639, 112(%rsp)
	leaq	112(%rsp), %rcx
	movl	$3, %esi
	movq	%rdx, 116(%rsp)
	movl	88(%rax), %edx
	movl	96(%rax), %edi
	call	epoll_ctl@PLT
.L1537:
	movq	%r12, %rdi
	call	pthread_mutex_unlock@PLT
	jmp	.L1500
.L1651:
	movb	$1, 64(%rdi)
	movq	(%r12), %rax
	leaq	24(%rax), %rdi
	call	pthread_mutex_unlock@PLT
	movq	(%r12), %rbp
	movq	32(%rsp), %rbx
	movq	$0, 24(%rsp)
	movq	$0, 32(%rsp)
	movq	%rbp, 48(%rsp)
	.byte	0x66
	leaq	_ZN4asio6detail15keyword_tss_ptrINS0_10call_stackINS0_14strand_service11strand_implEhE7contextEE6value_E@tlsgd(%rip), %rdi
	.value	0x6666
	rex64
	call	__tls_get_addr@PLT
	movdqu	24(%rbx), %xmm0
	movq	(%rax), %rdx
	movq	40(%r13), %r12
	movaps	%xmm0, 112(%rsp)
	movq	%rbp, 8(%rsp)
	leaq	112(%rsp), %rbp
	movq	%rbx, 88(%rsp)
	movq	%rdx, 64(%rsp)
	leaq	48(%rsp), %rdx
	movq	%r12, (%rsp)
	movdqu	40(%rbx), %xmm0
	movq	%rdx, (%rax)
	movq	%rdx, 56(%rsp)
	movaps	%xmm0, 128(%rsp)
	movq	%rbp, 80(%rsp)
	movq	$0, 96(%rsp)
	.byte	0x66
	leaq	_ZN4asio6detail15keyword_tss_ptrINS0_10call_stackINS0_15task_io_serviceENS0_27task_io_service_thread_infoEE7contextEE6value_E@tlsgd(%rip), %rdi
	.value	0x6666
	rex64
	call	__tls_get_addr@PLT
	movq	(%rax), %rax
	testq	%rax, %rax
	je	.L1520
	movq	8(%rax), %rax
	testq	%rax, %rax
	je	.L1520
	cmpq	$0, (%rax)
	je	.L1653
.L1520:
	movq	%rbx, %rdi
	call	_ZdlPv@PLT
.L1538:
	testq	%r12, %r12
	movq	$0, 88(%rsp)
	je	.L1539
	movq	112(%rsp), %rax
	movq	136(%rsp), %rdx
	movq	40(%rax), %rdi
	movb	$0, 58(%rax)
	testq	%rdi, %rdi
	je	.L1543
	cmpb	$0, 56(%rax)
	je	.L1654
.L1543:
	sfence
	cmpq	$0, 96(%rsp)
	je	.L1655
	movq	88(%rsp), %rbx
	movq	$0, 96(%rsp)
.L1544:
	testq	%rbx, %rbx
	je	.L1539
	.byte	0x66
	leaq	_ZN4asio6detail15keyword_tss_ptrINS0_10call_stackINS0_15task_io_serviceENS0_27task_io_service_thread_infoEE7contextEE6value_E@tlsgd(%rip), %rdi
	.value	0x6666
	rex64
	call	__tls_get_addr@PLT
	movq	(%rax), %rax
	testq	%rax, %rax
	je	.L1545
	movq	8(%rax), %rax
	testq	%rax, %rax
	je	.L1545
	cmpq	$0, (%rax)
	je	.L1656
.L1545:
	movq	%rbx, %rdi
	call	_ZdlPv@PLT
.L1539:
	movq	8(%rsp), %rax
	leaq	24(%rax), %rdi
	call	pthread_mutex_lock@PLT
	movq	8(%rsp), %rdi
	movq	72(%rdi), %rbx
	testq	%rbx, %rbx
	je	.L1657
	movq	96(%rdi), %rax
	testq	%rax, %rax
	je	.L1549
	movq	%rbx, (%rax)
	movq	88(%rdi), %rbx
.L1550:
	movq	80(%rdi), %rax
	movq	$0, 72(%rdi)
	movq	$0, 80(%rdi)
	movq	%rax, 96(%rdi)
.L1547:
	testq	%rbx, %rbx
	setne	64(%rdi)
	addq	$24, %rdi
	call	pthread_mutex_unlock@PLT
	testq	%rbx, %rbx
	jne	.L1658
.L1551:
	.byte	0x66
	leaq	_ZN4asio6detail15keyword_tss_ptrINS0_10call_stackINS0_14strand_service11strand_implEhE7contextEE6value_E@tlsgd(%rip), %rdi
	.value	0x6666
	rex64
	call	__tls_get_addr@PLT
	cmpq	$0, 32(%rsp)
	movq	64(%rsp), %rdx
	movq	%rdx, (%rax)
	je	.L1648
	movq	$0, 32(%rsp)
.L1648:
	movq	24(%rsp), %rbx
	testq	%rbx, %rbx
	je	.L1500
	.byte	0x66
	leaq	_ZN4asio6detail15keyword_tss_ptrINS0_10call_stackINS0_15task_io_serviceENS0_27task_io_service_thread_infoEE7contextEE6value_E@tlsgd(%rip), %rdi
	.value	0x6666
	rex64
	call	__tls_get_addr@PLT
	movq	(%rax), %rax
	testq	%rax, %rax
	je	.L1566
	movq	8(%rax), %rax
	testq	%rax, %rax
	je	.L1566
	cmpq	$0, (%rax)
	je	.L1659
.L1566:
	movq	%rbx, %rdi
	call	_ZdlPv@PLT
	jmp	.L1500
.L1658:
	movq	(%rsp), %rbx
	movq	8(%rsp), %r12
	cmpb	$0, 40(%rbx)
	jne	.L1660
.L1552:
	lock addq	$1, 184(%rbx)
	leaq	48(%rbx), %r13
	movq	%r13, %rdi
	call	pthread_mutex_lock@PLT
	cmpq	$0, 200(%rbx)
	movq	$0, (%r12)
	je	.L1558
	movq	200(%rbx), %rax
	movq	%r12, (%rax)
	movq	%r12, 200(%rbx)
.L1559:
	movq	136(%rbx), %rax
	orq	$1, %rax
	cmpq	$1, %rax
	movq	%rax, 136(%rbx)
	jne	.L1661
	cmpb	$0, 176(%rbx)
	jne	.L1562
	movq	144(%rbx), %rax
	testq	%rax, %rax
	je	.L1562
	leaq	88(%rax), %rdx
	movb	$1, 176(%rbx)
	movl	$-2147483639, 112(%rsp)
	movq	%rbp, %rcx
	movl	$3, %esi
	movq	%rdx, 116(%rsp)
	movl	88(%rax), %edx
	movl	96(%rax), %edi
	call	epoll_ctl@PLT
.L1562:
	movq	%r13, %rdi
	call	pthread_mutex_unlock@PLT
	jmp	.L1551
.L1660:
	.byte	0x66
	leaq	_ZN4asio6detail15keyword_tss_ptrINS0_10call_stackINS0_15task_io_serviceENS0_27task_io_service_thread_infoEE7contextEE6value_E@tlsgd(%rip), %rdi
	.value	0x6666
	rex64
	call	__tls_get_addr@PLT
	movq	(%rax), %rax
	testq	%rax, %rax
	je	.L1552
	cmpq	%rbx, (%rax)
	jne	.L1554
	jmp	.L1553
	.p2align 4,,10
	.p2align 3
.L1643:
	cmpq	(%rax), %rbx
	je	.L1553
.L1554:
	movq	16(%rax), %rax
	testq	%rax, %rax
	jne	.L1643
	jmp	.L1552
.L1533:
	movq	%rbp, 200(%rbx)
	movq	%rbp, 192(%rbx)
	jmp	.L1534
.L1522:
	movq	%rbx, 80(%rdi)
	movq	%rbx, 72(%rdi)
	jmp	.L1523
.L1657:
	movq	88(%rdi), %rbx
	jmp	.L1547
.L1659:
	movzbl	56(%rbx), %edx
	movb	%dl, (%rbx)
	movq	%rbx, (%rax)
	jmp	.L1500
.L1655:
	movq	88(%rsp), %rbx
	jmp	.L1544
.L1654:
	movq	(%rdi), %rax
	leaq	8(%rbp), %rsi
.LEHB25:
	call	*24(%rax)
.LEHE25:
	jmp	.L1543
.L1549:
	movq	%rbx, 88(%rdi)
	jmp	.L1550
.L1652:
	movq	%r12, %rdi
	call	pthread_mutex_unlock@PLT
	leaq	88(%rbx), %rdi
	call	pthread_cond_signal@PLT
	jmp	.L1500
.L1525:
	movq	%rbx, 96(%rbp)
	movq	%rbx, 88(%rbp)
	jmp	.L1526
.L1653:
	movzbl	56(%rbx), %edx
	movb	%dl, (%rbx)
	movq	%rbx, (%rax)
	jmp	.L1538
.L1656:
	movzbl	56(%rbx), %edx
	movb	%dl, (%rbx)
	movq	%rbx, (%rax)
	jmp	.L1539
.L1661:
	movq	%r13, %rdi
	call	pthread_mutex_unlock@PLT
	leaq	88(%rbx), %rdi
	call	pthread_cond_signal@PLT
	jmp	.L1551
.L1553:
	movq	8(%rax), %rax
	testq	%rax, %rax
	je	.L1552
	addq	$1, 24(%rax)
	cmpq	$0, 16(%rax)
	movq	$0, (%r12)
	je	.L1557
	movq	16(%rax), %rdx
	movq	%r12, (%rdx)
	movq	%r12, 16(%rax)
	jmp	.L1551
.L1558:
	movq	%r12, 200(%rbx)
	movq	%r12, 192(%rbx)
	jmp	.L1559
.L1532:
	movq	%rbp, 16(%rax)
	movq	%rbp, 8(%rax)
	jmp	.L1500
.L1557:
	movq	%r12, 16(%rax)
	movq	%r12, 8(%rax)
	jmp	.L1551
.L1650:
	call	__stack_chk_fail@PLT
.L1570:
	movq	%rax, %rdi
	sfence
.LEHB26:
	call	_Unwind_Resume@PLT
.L1571:
	leaq	96(%rsp), %rsi
	leaq	88(%rsp), %rdi
	movq	%rax, %rbx
	sfence
	call	_ZN4asio6detail18completion_handlerINS0_7binder2IZN7asiopal13SerialChannel14BeginWriteImplERKN7openpal6RSliceEEUlRKSt10error_codemE_S9_mEEE3ptr5resetEv.isra.109
	movq	%rsp, %rdi
	call	_ZN4asio6detail14strand_service16on_dispatch_exitD1Ev@PLT
	.byte	0x66
	leaq	_ZN4asio6detail15keyword_tss_ptrINS0_10call_stackINS0_14strand_service11strand_implEhE7contextEE6value_E@tlsgd(%rip), %rdi
	.value	0x6666
	rex64
	call	__tls_get_addr@PLT
	movq	64(%rsp), %rdx
	leaq	24(%rsp), %rdi
	leaq	32(%rsp), %rsi
	movq	%rdx, (%rax)
	call	_ZN4asio6detail18completion_handlerINS0_7binder2IZN7asiopal13SerialChannel14BeginWriteImplERKN7openpal6RSliceEEUlRKSt10error_codemE_S9_mEEE3ptr5resetEv.isra.109
	movq	%rbx, %rdi
	call	_Unwind_Resume@PLT
.LEHE26:
	.cfi_endproc
.LFE8645:
	.section	.gcc_except_table
.LLSDA8645:
	.byte	0xff
	.byte	0xff
	.byte	0x1
	.uleb128 .LLSDACSE8645-.LLSDACSB8645
.LLSDACSB8645:
	.uleb128 .LEHB23-.LFB8645
	.uleb128 .LEHE23-.LEHB23
	.uleb128 .L1570-.LFB8645
	.uleb128 0
	.uleb128 .LEHB24-.LFB8645
	.uleb128 .LEHE24-.LEHB24
	.uleb128 0
	.uleb128 0
	.uleb128 .LEHB25-.LFB8645
	.uleb128 .LEHE25-.LEHB25
	.uleb128 .L1571-.LFB8645
	.uleb128 0
	.uleb128 .LEHB26-.LFB8645
	.uleb128 .LEHE26-.LEHB26
	.uleb128 0
	.uleb128 0
.LLSDACSE8645:
	.text
	.size	_ZN4asio6detail14strand_service8dispatchINS0_7binder2IZN7asiopal13SerialChannel14BeginWriteImplERKN7openpal6RSliceEEUlRKSt10error_codemE_SA_mEEEEvRPNS1_11strand_implERT_, .-_ZN4asio6detail14strand_service8dispatchINS0_7binder2IZN7asiopal13SerialChannel14BeginWriteImplERKN7openpal6RSliceEEUlRKSt10error_codemE_SA_mEEEEvRPNS1_11strand_implERT_
	.align 2
	.p2align 4,,15
	.globl	_ZN7asiopal13SerialChannel14BeginWriteImplERKN7openpal6RSliceE
	.type	_ZN7asiopal13SerialChannel14BeginWriteImplERKN7openpal6RSliceE, @function
_ZN7asiopal13SerialChannel14BeginWriteImplERKN7openpal6RSliceE:
.LFB6887:
	.cfi_startproc
	.cfi_personality 0x9b,DW.ref.__gxx_personality_v0
	.cfi_lsda 0x1b,.LLSDA6887
	pushq	%r15
	.cfi_def_cfa_offset 16
	.cfi_offset 15, -16
	pushq	%r14
	.cfi_def_cfa_offset 24
	.cfi_offset 14, -24
	pushq	%r13
	.cfi_def_cfa_offset 32
	.cfi_offset 13, -32
	pushq	%r12
	.cfi_def_cfa_offset 40
	.cfi_offset 12, -40
	leaq	64(%rdi), %r13
	pushq	%rbp
	.cfi_def_cfa_offset 48
	.cfi_offset 6, -48
	pushq	%rbx
	.cfi_def_cfa_offset 56
	.cfi_offset 3, -56
	movq	%rdi, %rbp
	movl	$65536, %r12d
	subq	$168, %rsp
	.cfi_def_cfa_offset 224
	movl	(%rsi), %r15d
	movq	8(%rsi), %r14
	movq	%fs:40, %rax
	movq	%rax, 152(%rsp)
	xorl	%eax, %eax
	movq	24(%rdi), %rax
	movq	40(%rax), %rdx
	movq	48(%rax), %rbx
	movq	%rdx, 16(%rsp)
	call	_ZNSt3_V215system_categoryEv@PLT
	movq	16(%rsp), %rdx
	movq	%rax, (%rsp)
	cmpq	$65536, %r15
	movq	80(%rbp), %rax
	cmovb	%r15, %r12
	movq	%r13, 80(%rsp)
	movq	%r14, 88(%rsp)
	movq	%r15, 96(%rsp)
	movl	$1, 104(%rsp)
	movq	$0, 112(%rsp)
	movq	%rax, 8(%rsp)
	movq	%rdx, 120(%rsp)
	movq	%rbx, 128(%rsp)
	movq	%rbp, 136(%rsp)
	.byte	0x66
	leaq	_ZN4asio6detail15keyword_tss_ptrINS0_10call_stackINS0_14strand_service11strand_implEhE7contextEE6value_E@tlsgd(%rip), %rdi
	.value	0x6666
	rex64
	call	__tls_get_addr@PLT
	movq	(%rax), %rax
	testq	%rax, %rax
	jne	.L1667
	jmp	.L1733
	.p2align 4,,10
	.p2align 3
.L1666:
	movq	16(%rax), %rax
	testq	%rax, %rax
	je	.L1733
.L1667:
	cmpq	(%rax), %rbx
	jne	.L1666
	cmpq	$0, 8(%rax)
	setne	16(%rsp)
	movzbl	16(%rsp), %eax
	movl	%eax, 28(%rsp)
.L1664:
	pxor	%xmm0, %xmm0
	leaq	80(%rsp), %rax
	movq	%rax, 48(%rsp)
	movups	%xmm0, 56(%rsp)
	.byte	0x66
	leaq	_ZN4asio6detail15keyword_tss_ptrINS0_10call_stackINS0_15task_io_serviceENS0_27task_io_service_thread_infoEE7contextEE6value_E@tlsgd(%rip), %rdi
	.value	0x6666
	rex64
	call	__tls_get_addr@PLT
	movq	(%rax), %rax
	testq	%rax, %rax
	je	.L1668
	movq	8(%rax), %rax
	testq	%rax, %rax
	je	.L1668
	movq	(%rax), %rbx
	testq	%rbx, %rbx
	je	.L1668
	movq	$0, (%rax)
	movzbl	(%rbx), %eax
	cmpb	$-113, %al
	jbe	.L1669
	movb	%al, 144(%rbx)
	movl	$1, %edx
	xorl	%eax, %eax
.L1670:
	leaq	_ZN4asio6detail19descriptor_write_opINS_15const_buffers_1ENS0_8write_opINS_17basic_serial_portINS_19serial_port_serviceEEES2_NS0_14transfer_all_tENS0_15wrapped_handlerINS_10io_service6strandEZN7asiopal13SerialChannel14BeginWriteImplERKN7openpal6RSliceEEUlRKSt10error_codemE_NS0_26is_continuation_if_runningEEEEEE11do_completeEPNS0_15task_io_serviceEPNS0_25task_io_service_operationESJ_m(%rip), %rcx
	movl	64(%rbp), %r15d
	movq	%rbx, 56(%rsp)
	movdqu	88(%rsp), %xmm0
	testq	%r12, %r12
	movq	%rcx, 8(%rbx)
	movq	(%rsp), %rcx
	movq	%rax, 112(%rbx)
	movq	136(%rsp), %rax
	movups	%xmm0, 88(%rbx)
	movq	%rcx, 32(%rbx)
	movq	_ZN4asio6detail24descriptor_write_op_baseINS_15const_buffers_1EE10do_performEPNS0_10reactor_opE@GOTPCREL(%rip), %rcx
	movdqu	120(%rsp), %xmm0
	movq	$0, (%rbx)
	movl	$0, 16(%rbx)
	movl	$0, 24(%rbx)
	movq	$0, 40(%rbx)
	movq	%rcx, 48(%rbx)
	movl	%r15d, 56(%rbx)
	movq	%r14, 64(%rbx)
	movq	%r12, 72(%rbx)
	movq	%r13, 80(%rbx)
	movl	%edx, 104(%rbx)
	movups	%xmm0, 120(%rbx)
	movq	%rax, 136(%rbx)
	movq	%rbx, 64(%rsp)
	je	.L1676
	testb	$3, 68(%rbp)
	jne	.L1671
	cmpl	$-1, %r15d
	je	.L1821
	call	__errno_location@PLT
	leaq	36(%rsp), %rdx
	movl	$0, (%rax)
	movq	%rax, %r13
	movl	$21537, %esi
	xorl	%eax, %eax
	movl	%r15d, %edi
	movl	$1, 36(%rsp)
	call	ioctl@PLT
	movq	_ZGVZN4asio15system_categoryEvE8instance@GOTPCREL(%rip), %r12
	movl	%eax, %r14d
	movzbl	(%r12), %eax
	testb	%al, %al
	je	.L1677
.L1806:
	movq	_ZZN4asio15system_categoryEvE8instance@GOTPCREL(%rip), %r12
.L1678:
	movl	0(%r13), %eax
	testl	%r14d, %r14d
	movq	%r12, 32(%rbx)
	movl	%eax, 24(%rbx)
	js	.L1676
	movq	(%rsp), %rax
	movl	$0, 24(%rbx)
	movl	64(%rbp), %r15d
	movq	%rax, 32(%rbx)
	orb	$2, 68(%rbp)
.L1671:
	movq	72(%rbp), %r12
	movq	8(%rsp), %rax
	testq	%r12, %r12
	movq	40(%rax), %r13
	je	.L1822
	addq	$40, %r12
	movq	%r12, %rdi
	call	pthread_mutex_lock@PLT
	movq	72(%rbp), %rax
	cmpb	$0, 144(%rax)
	jne	.L1823
	cmpq	$0, 112(%rax)
	je	.L1824
.L1712:
	movq	120(%rax), %rdx
	movq	$0, (%rbx)
	testq	%rdx, %rdx
	je	.L1715
	movq	%rbx, (%rdx)
	movq	%rbx, 120(%rax)
.L1716:
	movq	40(%r13), %rax
	lock addq	$1, 184(%rax)
	movq	%r12, %rdi
	call	pthread_mutex_unlock@PLT
	jmp	.L1662
	.p2align 4,,10
	.p2align 3
.L1669:
	movq	%rbx, %rdi
	call	_ZdlPv@PLT
.L1668:
	movl	$145, %edi
.LEHB27:
	call	_Znwm@PLT
.LEHE27:
	movq	80(%rsp), %r13
	movq	%rax, %rbx
	movb	$-112, 144(%rax)
	movl	104(%rsp), %edx
	movq	112(%rsp), %rax
	jmp	.L1670
	.p2align 4,,10
	.p2align 3
.L1821:
	movq	_ZGVZN4asio15system_categoryEvE8instance@GOTPCREL(%rip), %rbp
	movzbl	0(%rbp), %eax
	testb	%al, %al
	je	.L1673
.L1805:
	movq	_ZZN4asio15system_categoryEvE8instance@GOTPCREL(%rip), %r12
.L1674:
	movl	$9, 24(%rbx)
	movq	%r12, 32(%rbx)
	.p2align 4,,10
	.p2align 3
.L1676:
	movq	8(%rsp), %rax
	movq	40(%rax), %rax
	movq	40(%rax), %rbp
	cmpb	$0, 40(%rbp)
	jne	.L1737
	cmpb	$0, 16(%rsp)
	je	.L1718
.L1737:
	.byte	0x66
	leaq	_ZN4asio6detail15keyword_tss_ptrINS0_10call_stackINS0_15task_io_serviceENS0_27task_io_service_thread_infoEE7contextEE6value_E@tlsgd(%rip), %rdi
	.value	0x6666
	rex64
	call	__tls_get_addr@PLT
	movq	(%rax), %rax
	testq	%rax, %rax
	jne	.L1801
	jmp	.L1718
	.p2align 4,,10
	.p2align 3
.L1721:
	movq	16(%rax), %rax
	testq	%rax, %rax
	je	.L1718
.L1801:
	cmpq	(%rax), %rbp
	jne	.L1721
.L1820:
	movq	8(%rax), %rax
	testq	%rax, %rax
	je	.L1718
	addq	$1, 24(%rax)
	movq	$0, (%rbx)
	cmpq	$0, 16(%rax)
	je	.L1724
	movq	16(%rax), %rdx
	movq	%rbx, (%rdx)
	movq	%rbx, 16(%rax)
.L1662:
	movq	152(%rsp), %rax
	xorq	%fs:40, %rax
	jne	.L1825
	addq	$168, %rsp
	.cfi_remember_state
	.cfi_def_cfa_offset 56
	popq	%rbx
	.cfi_def_cfa_offset 48
	popq	%rbp
	.cfi_def_cfa_offset 40
	popq	%r12
	.cfi_def_cfa_offset 32
	popq	%r13
	.cfi_def_cfa_offset 24
	popq	%r14
	.cfi_def_cfa_offset 16
	popq	%r15
	.cfi_def_cfa_offset 8
	ret
	.p2align 4,,10
	.p2align 3
.L1718:
	.cfi_restore_state
	lock addq	$1, 184(%rbp)
	leaq	48(%rbp), %r12
	movq	%r12, %rdi
	call	pthread_mutex_lock@PLT
	movq	$0, (%rbx)
	cmpq	$0, 200(%rbp)
	je	.L1725
	movq	200(%rbp), %rax
	movq	%rbx, (%rax)
	movq	%rbx, 200(%rbp)
.L1726:
	movq	136(%rbp), %rax
	orq	$1, %rax
	cmpq	$1, %rax
	movq	%rax, 136(%rbp)
	jne	.L1826
	cmpb	$0, 176(%rbp)
	jne	.L1706
	movq	144(%rbp), %rax
	testq	%rax, %rax
	je	.L1706
	leaq	88(%rax), %rdx
	movb	$1, 176(%rbp)
	movl	$-2147483639, 36(%rsp)
	leaq	36(%rsp), %rcx
	movl	$3, %esi
	movq	%rdx, 40(%rsp)
	movl	88(%rax), %edx
	movl	96(%rax), %edi
	call	epoll_ctl@PLT
	.p2align 4,,10
	.p2align 3
.L1706:
	movq	%r12, %rdi
	call	pthread_mutex_unlock@PLT
	jmp	.L1662
	.p2align 4,,10
	.p2align 3
.L1733:
	movl	$0, 28(%rsp)
	movb	$0, 16(%rsp)
	jmp	.L1664
	.p2align 4,,10
	.p2align 3
.L1826:
	movq	%r12, %rdi
	call	pthread_mutex_unlock@PLT
	leaq	88(%rbp), %rdi
	call	pthread_cond_signal@PLT
	jmp	.L1662
	.p2align 4,,10
	.p2align 3
.L1677:
	movq	%r12, %rdi
	call	__cxa_guard_acquire@PLT
	testl	%eax, %eax
	je	.L1806
	movq	%r12, %rdi
	call	__cxa_guard_release@PLT
	movq	_ZZN4asio15system_categoryEvE8instance@GOTPCREL(%rip), %r12
	movq	_ZN4asio6detail15system_categoryD1Ev@GOTPCREL(%rip), %rdi
	leaq	__dso_handle(%rip), %rdx
	movq	%r12, %rsi
	call	__cxa_atexit@PLT
	jmp	.L1678
	.p2align 4,,10
	.p2align 3
.L1715:
	movq	%rbx, 120(%rax)
	movq	%rbx, 112(%rax)
	jmp	.L1716
	.p2align 4,,10
	.p2align 3
.L1822:
	movq	_ZGVZN4asio15system_categoryEvE8instance@GOTPCREL(%rip), %rbp
	movzbl	0(%rbp), %eax
	testb	%al, %al
	je	.L1682
.L1807:
	movq	_ZZN4asio15system_categoryEvE8instance@GOTPCREL(%rip), %r12
.L1683:
	movl	$9, 24(%rbx)
	movq	%r12, 32(%rbx)
	movq	40(%r13), %rbp
	cmpb	$0, 40(%rbp)
	jne	.L1735
	cmpb	$0, 16(%rsp)
	je	.L1718
.L1735:
	.byte	0x66
	leaq	_ZN4asio6detail15keyword_tss_ptrINS0_10call_stackINS0_15task_io_serviceENS0_27task_io_service_thread_infoEE7contextEE6value_E@tlsgd(%rip), %rdi
	.value	0x6666
	rex64
	call	__tls_get_addr@PLT
	movq	(%rax), %rax
	testq	%rax, %rax
	jne	.L1799
	jmp	.L1718
	.p2align 4,,10
	.p2align 3
.L1688:
	movq	16(%rax), %rax
	testq	%rax, %rax
	je	.L1718
.L1799:
	cmpq	(%rax), %rbp
	jne	.L1688
	jmp	.L1820
	.p2align 4,,10
	.p2align 3
.L1823:
	movq	40(%r13), %rbp
	cmpb	$0, 40(%rbp)
	jne	.L1736
	cmpb	$0, 16(%rsp)
	je	.L1699
.L1736:
	.byte	0x66
	leaq	_ZN4asio6detail15keyword_tss_ptrINS0_10call_stackINS0_15task_io_serviceENS0_27task_io_service_thread_infoEE7contextEE6value_E@tlsgd(%rip), %rdi
	.value	0x6666
	rex64
	call	__tls_get_addr@PLT
	movq	(%rax), %rax
	testq	%rax, %rax
	je	.L1699
	cmpq	%rbp, (%rax)
	jne	.L1702
	jmp	.L1701
	.p2align 4,,10
	.p2align 3
.L1800:
	cmpq	(%rax), %rbp
	je	.L1701
.L1702:
	movq	16(%rax), %rax
	testq	%rax, %rax
	jne	.L1800
.L1699:
	lock addq	$1, 184(%rbp)
	leaq	48(%rbp), %r13
	movq	%r13, %rdi
	call	pthread_mutex_lock@PLT
	cmpq	$0, 200(%rbp)
	movq	$0, (%rbx)
	je	.L1707
	movq	200(%rbp), %rax
	movq	%rbx, (%rax)
	movq	%rbx, 200(%rbp)
.L1708:
	movq	136(%rbp), %rax
	orq	$1, %rax
	cmpq	$1, %rax
	movq	%rax, 136(%rbp)
	jne	.L1827
	cmpb	$0, 176(%rbp)
	jne	.L1711
	movq	144(%rbp), %rax
	testq	%rax, %rax
	je	.L1711
	leaq	88(%rax), %rdx
	movb	$1, 176(%rbp)
	movl	$-2147483639, 36(%rsp)
	leaq	36(%rsp), %rcx
	movl	$3, %esi
	movq	%rdx, 40(%rsp)
	movl	88(%rax), %edx
	movl	96(%rax), %edi
	call	epoll_ctl@PLT
.L1711:
	movq	%r13, %rdi
	call	pthread_mutex_unlock@PLT
	jmp	.L1706
	.p2align 4,,10
	.p2align 3
.L1724:
	movq	%rbx, 16(%rax)
	movq	%rbx, 8(%rax)
	jmp	.L1662
	.p2align 4,,10
	.p2align 3
.L1725:
	movq	%rbx, 200(%rbp)
	movq	%rbx, 192(%rbp)
	jmp	.L1726
	.p2align 4,,10
	.p2align 3
.L1682:
	movq	%rbp, %rdi
	call	__cxa_guard_acquire@PLT
	testl	%eax, %eax
	je	.L1807
	movq	%rbp, %rdi
	call	__cxa_guard_release@PLT
	movq	_ZZN4asio15system_categoryEvE8instance@GOTPCREL(%rip), %r12
	movq	_ZN4asio6detail15system_categoryD1Ev@GOTPCREL(%rip), %rdi
	leaq	__dso_handle(%rip), %rdx
	movq	%r12, %rsi
	call	__cxa_atexit@PLT
	jmp	.L1683
	.p2align 4,,10
	.p2align 3
.L1824:
	movq	%rbx, %rdi
.LEHB28:
	call	*48(%rbx)
.LEHE28:
	testb	%al, %al
	jne	.L1828
	movq	72(%rbp), %rax
	movl	92(%rax), %edx
	testb	$4, %dl
	jne	.L1712
	orl	$4, %edx
	movq	%rax, 40(%rsp)
	leaq	36(%rsp), %rcx
	movl	%edx, 36(%rsp)
	movl	96(%r13), %edi
	movl	%r15d, %edx
	movl	$3, %esi
	call	epoll_ctl@PLT
	testl	%eax, %eax
	jne	.L1714
	movq	72(%rbp), %rax
	movl	36(%rsp), %edx
	orl	%edx, 92(%rax)
	movq	72(%rbp), %rax
	jmp	.L1712
.L1673:
	movq	%rbp, %rdi
	call	__cxa_guard_acquire@PLT
	testl	%eax, %eax
	je	.L1805
	movq	%rbp, %rdi
	call	__cxa_guard_release@PLT
	movq	_ZZN4asio15system_categoryEvE8instance@GOTPCREL(%rip), %r12
	movq	_ZN4asio6detail15system_categoryD1Ev@GOTPCREL(%rip), %rdi
	leaq	__dso_handle(%rip), %rdx
	movq	%r12, %rsi
	call	__cxa_atexit@PLT
	jmp	.L1674
.L1707:
	movq	%rbx, 200(%rbp)
	movq	%rbx, 192(%rbp)
	jmp	.L1708
	.p2align 4,,10
	.p2align 3
.L1701:
	movq	8(%rax), %rax
	testq	%rax, %rax
	je	.L1699
	addq	$1, 24(%rax)
	cmpq	$0, 16(%rax)
	movq	$0, (%rbx)
	je	.L1705
	movq	16(%rax), %rdx
	movq	%rbx, (%rdx)
	movq	%rbx, 16(%rax)
	jmp	.L1706
.L1827:
	movq	%r13, %rdi
	call	pthread_mutex_unlock@PLT
	leaq	88(%rbp), %rdi
	call	pthread_cond_signal@PLT
	jmp	.L1706
.L1705:
	movq	%rbx, 16(%rax)
	movq	%rbx, 8(%rax)
	jmp	.L1706
.L1828:
	movq	%r12, %rdi
	call	pthread_mutex_unlock@PLT
	movq	40(%r13), %rdi
	movl	28(%rsp), %edx
	movq	%rbx, %rsi
	call	_ZN4asio6detail15task_io_service25post_immediate_completionEPNS0_25task_io_service_operationEb@PLT
	jmp	.L1662
.L1714:
	call	_ZN4asio15system_categoryEv@PLT
	movq	%rax, %rbp
	call	__errno_location@PLT
	movl	(%rax), %eax
	movl	28(%rsp), %edx
	movq	%rbx, %rsi
	movq	%rbp, 32(%rbx)
	movl	%eax, 24(%rbx)
	movq	40(%r13), %rdi
	call	_ZN4asio6detail15task_io_service25post_immediate_completionEPNS0_25task_io_service_operationEb@PLT
	jmp	.L1706
.L1825:
	call	__stack_chk_fail@PLT
.L1734:
	movq	%r12, %rdi
	movq	%rax, %rbx
	call	pthread_mutex_unlock@PLT
	leaq	56(%rsp), %rdi
	leaq	64(%rsp), %rsi
	call	_ZN4asio6detail19descriptor_write_opINS_15const_buffers_1ENS0_8write_opINS_17basic_serial_portINS_19serial_port_serviceEEES2_NS0_14transfer_all_tENS0_15wrapped_handlerINS_10io_service6strandEZN7asiopal13SerialChannel14BeginWriteImplERKN7openpal6RSliceEEUlRKSt10error_codemE_NS0_26is_continuation_if_runningEEEEEE3ptr5resetEv.isra.165
	movq	%rbx, %rdi
.LEHB29:
	call	_Unwind_Resume@PLT
.LEHE29:
	.cfi_endproc
.LFE6887:
	.section	.gcc_except_table
.LLSDA6887:
	.byte	0xff
	.byte	0xff
	.byte	0x1
	.uleb128 .LLSDACSE6887-.LLSDACSB6887
.LLSDACSB6887:
	.uleb128 .LEHB27-.LFB6887
	.uleb128 .LEHE27-.LEHB27
	.uleb128 0
	.uleb128 0
	.uleb128 .LEHB28-.LFB6887
	.uleb128 .LEHE28-.LEHB28
	.uleb128 .L1734-.LFB6887
	.uleb128 0
	.uleb128 .LEHB29-.LFB6887
	.uleb128 .LEHE29-.LEHB29
	.uleb128 0
	.uleb128 0
.LLSDACSE6887:
	.text
	.size	_ZN7asiopal13SerialChannel14BeginWriteImplERKN7openpal6RSliceE, .-_ZN7asiopal13SerialChannel14BeginWriteImplERKN7openpal6RSliceE
	.p2align 4,,15
	.type	_ZN4asio6detail18completion_handlerINS0_17rewrapped_handlerINS0_7binder2INS0_8write_opINS_17basic_serial_portINS_19serial_port_serviceEEENS_15const_buffers_1ENS0_14transfer_all_tENS0_15wrapped_handlerINS_10io_service6strandEZN7asiopal13SerialChannel14BeginWriteImplERKN7openpal6RSliceEEUlRKSt10error_codemE_NS0_26is_continuation_if_runningEEEEESJ_mEESM_EEE11do_completeEPNS0_15task_io_serviceEPNS0_25task_io_service_operationESL_m, @function
_ZN4asio6detail18completion_handlerINS0_17rewrapped_handlerINS0_7binder2INS0_8write_opINS_17basic_serial_portINS_19serial_port_serviceEEENS_15const_buffers_1ENS0_14transfer_all_tENS0_15wrapped_handlerINS_10io_service6strandEZN7asiopal13SerialChannel14BeginWriteImplERKN7openpal6RSliceEEUlRKSt10error_codemE_NS0_26is_continuation_if_runningEEEEESJ_mEESM_EEE11do_completeEPNS0_15task_io_serviceEPNS0_25task_io_service_operationESL_m:
.LFB9160:
	.cfi_startproc
	.cfi_personality 0x9b,DW.ref.__gxx_personality_v0
	.cfi_lsda 0x1b,.LLSDA9160
	pushq	%r15
	.cfi_def_cfa_offset 16
	.cfi_offset 15, -16
	pushq	%r14
	.cfi_def_cfa_offset 24
	.cfi_offset 14, -24
	pushq	%r13
	.cfi_def_cfa_offset 32
	.cfi_offset 13, -32
	pushq	%r12
	.cfi_def_cfa_offset 40
	.cfi_offset 12, -40
	pushq	%rbp
	.cfi_def_cfa_offset 48
	.cfi_offset 6, -48
	pushq	%rbx
	.cfi_def_cfa_offset 56
	.cfi_offset 3, -56
	movq	%rdi, %rbp
	movq	%rsi, %rbx
	subq	$344, %rsp
	.cfi_def_cfa_offset 400
	movq	%fs:40, %rax
	movq	%rax, 328(%rsp)
	xorl	%eax, %eax
	movq	24(%rsi), %rax
	leaq	224(%rsp), %r12
	movq	%rsi, 40(%rsp)
	movdqu	40(%rsi), %xmm0
	movq	%r12, 32(%rsp)
	movq	$0, 48(%rsp)
	movq	%rax, 224(%rsp)
	movq	32(%rsi), %rax
	movaps	%xmm0, 240(%rsp)
	movq	%rax, 232(%rsp)
	movl	56(%rsi), %eax
	movdqu	72(%rsi), %xmm0
	movl	%eax, 256(%rsp)
	movq	64(%rsi), %rax
	movaps	%xmm0, 272(%rsp)
	movq	%rax, 264(%rsp)
	movq	88(%rsi), %rax
	movdqu	96(%rsi), %xmm0
	movq	%rax, 288(%rsp)
	movq	112(%rsi), %rax
	movups	%xmm0, 296(%rsp)
	movq	%rax, 312(%rsp)
	.byte	0x66
	leaq	_ZN4asio6detail15keyword_tss_ptrINS0_10call_stackINS0_15task_io_serviceENS0_27task_io_service_thread_infoEE7contextEE6value_E@tlsgd(%rip), %rdi
	.value	0x6666
	rex64
	call	__tls_get_addr@PLT
	movq	(%rax), %rax
	testq	%rax, %rax
	je	.L1830
	movq	8(%rax), %rax
	testq	%rax, %rax
	je	.L1830
	cmpq	$0, (%rax)
	je	.L1998
.L1830:
	movq	%rbx, %rdi
	call	_ZdlPv@PLT
.L1831:
	testq	%rbp, %rbp
	movq	$0, 40(%rsp)
	je	.L1829
	movq	312(%rsp), %rax
	movq	264(%rsp), %r15
	movl	$0, 256(%rsp)
	movl	296(%rsp), %ecx
	addq	%rax, %r15
	testq	%rax, %rax
	movq	%r15, 264(%rsp)
	je	.L1833
	testl	%ecx, %ecx
	je	.L1999
.L1833:
	movq	288(%rsp), %rax
	movq	272(%rsp), %rdi
	leaq	96(%rsp), %rdx
	leaq	56(%r12), %rsi
	movl	%ecx, 104(%rsp)
	movq	%r15, 120(%rsp)
	movq	%rax, 96(%rsp)
	movq	304(%rsp), %rax
	movq	%rax, 112(%rsp)
.LEHB30:
	call	_ZN4asio6detail14strand_service8dispatchINS0_7binder2IZN7asiopal13SerialChannel14BeginWriteImplERKN7openpal6RSliceEEUlRKSt10error_codemE_SA_mEEEEvRPNS1_11strand_implERT_
.L1896:
	sfence
	cmpq	$0, 48(%rsp)
	movq	40(%rsp), %rbx
	je	.L1898
	movq	$0, 48(%rsp)
.L1898:
	testq	%rbx, %rbx
	je	.L1829
	.byte	0x66
	leaq	_ZN4asio6detail15keyword_tss_ptrINS0_10call_stackINS0_15task_io_serviceENS0_27task_io_service_thread_infoEE7contextEE6value_E@tlsgd(%rip), %rdi
	.value	0x6666
	rex64
	call	__tls_get_addr@PLT
	movq	(%rax), %rax
	testq	%rax, %rax
	je	.L1900
	movq	8(%rax), %rax
	testq	%rax, %rax
	je	.L1900
	cmpq	$0, (%rax)
	je	.L2000
.L1900:
	movq	%rbx, %rdi
	call	_ZdlPv@PLT
.L1829:
	movq	328(%rsp), %rax
	xorq	%fs:40, %rax
	jne	.L2001
	addq	$344, %rsp
	.cfi_remember_state
	.cfi_def_cfa_offset 56
	popq	%rbx
	.cfi_def_cfa_offset 48
	popq	%rbp
	.cfi_def_cfa_offset 40
	popq	%r12
	.cfi_def_cfa_offset 32
	popq	%r13
	.cfi_def_cfa_offset 24
	popq	%r14
	.cfi_def_cfa_offset 16
	popq	%r15
	.cfi_def_cfa_offset 8
	ret
	.p2align 4,,10
	.p2align 3
.L1999:
	.cfi_restore_state
	movq	248(%rsp), %rbp
	cmpq	%rbp, %r15
	je	.L1833
	movq	232(%rsp), %r12
	ja	.L1903
	movq	240(%rsp), %rax
	subq	%r15, %rbp
	addq	%r15, %rax
	cmpq	$65536, %rbp
	movq	%rax, 16(%rsp)
	movl	$65536, %eax
	cmovnb	%rax, %rbp
.L1835:
	movdqa	240(%rsp), %xmm0
	movq	16(%r12), %r14
	movq	288(%rsp), %rax
	movups	%xmm0, 152(%rsp)
	movq	%r12, 144(%rsp)
	movl	$0, 168(%rsp)
	movdqa	272(%rsp), %xmm0
	movq	%rax, 200(%rsp)
	leaq	144(%rsp), %rax
	movq	%r15, 176(%rsp)
	movups	%xmm0, 184(%rsp)
	pxor	%xmm0, %xmm0
	movq	%rax, 64(%rsp)
	movups	%xmm0, 72(%rsp)
	.byte	0x66
	leaq	_ZN4asio6detail15keyword_tss_ptrINS0_10call_stackINS0_15task_io_serviceENS0_27task_io_service_thread_infoEE7contextEE6value_E@tlsgd(%rip), %rdi
	.value	0x6666
	rex64
	call	__tls_get_addr@PLT
	movq	(%rax), %rax
	testq	%rax, %rax
	je	.L1836
	movq	8(%rax), %rax
	testq	%rax, %rax
	je	.L1836
	movq	(%rax), %rbx
	testq	%rbx, %rbx
	je	.L1836
	movq	$0, (%rax)
	movzbl	(%rbx), %eax
	cmpb	$-113, %al
	jbe	.L1837
	movb	%al, 144(%rbx)
	movq	%r12, 24(%rsp)
	movl	$0, 8(%rsp)
.L1838:
	leaq	_ZN4asio6detail19descriptor_write_opINS_15const_buffers_1ENS0_8write_opINS_17basic_serial_portINS_19serial_port_serviceEEES2_NS0_14transfer_all_tENS0_15wrapped_handlerINS_10io_service6strandEZN7asiopal13SerialChannel14BeginWriteImplERKN7openpal6RSliceEEUlRKSt10error_codemE_NS0_26is_continuation_if_runningEEEEEE11do_completeEPNS0_15task_io_serviceEPNS0_25task_io_service_operationESJ_m(%rip), %rax
	movl	(%r12), %r13d
	movq	%rbx, 72(%rsp)
	movl	$0, 16(%rbx)
	movq	$0, (%rbx)
	movq	%rax, 8(%rbx)
	movl	$0, 24(%rbx)
	call	_ZNSt3_V215system_categoryEv@PLT
	movq	%rax, %rcx
	movq	%rax, 32(%rbx)
	movq	_ZN4asio6detail24descriptor_write_op_baseINS_15const_buffers_1EE10do_performEPNS0_10reactor_opE@GOTPCREL(%rip), %rax
	movdqu	152(%rsp), %xmm0
	testq	%rbp, %rbp
	movq	$0, 40(%rbx)
	movl	%r13d, 56(%rbx)
	movq	%rax, 48(%rbx)
	movq	16(%rsp), %rax
	movups	%xmm0, 88(%rbx)
	movq	%rbp, 72(%rbx)
	movq	%r15, 112(%rbx)
	movq	%rax, 64(%rbx)
	movq	24(%rsp), %rax
	movdqu	184(%rsp), %xmm0
	movq	%rbx, 80(%rsp)
	movq	%rax, 80(%rbx)
	movl	8(%rsp), %eax
	movups	%xmm0, 120(%rbx)
	movl	%eax, 104(%rbx)
	movq	200(%rsp), %rax
	movq	%rax, 136(%rbx)
	je	.L1844
	testb	$3, 4(%r12)
	jne	.L1839
	cmpl	$-1, %r13d
	je	.L2002
	movq	%rcx, 8(%rsp)
	call	__errno_location@PLT
	leaq	96(%rsp), %rdx
	movl	$0, (%rax)
	movl	%r13d, %edi
	movq	%rax, %r15
	movl	$21537, %esi
	xorl	%eax, %eax
	movl	$1, 96(%rsp)
	call	ioctl@PLT
	movq	_ZGVZN4asio15system_categoryEvE8instance@GOTPCREL(%rip), %rbp
	movl	%eax, %r13d
	movzbl	0(%rbp), %eax
	movq	8(%rsp), %rcx
	testb	%al, %al
	je	.L1845
.L1983:
	movq	_ZZN4asio15system_categoryEvE8instance@GOTPCREL(%rip), %rbp
.L1846:
	movl	(%r15), %eax
	testl	%r13d, %r13d
	movq	%rbp, 32(%rbx)
	movl	%eax, 24(%rbx)
	js	.L1844
	movl	$0, 24(%rbx)
	movq	%rcx, 32(%rbx)
	orb	$2, 4(%r12)
	movl	(%r12), %r13d
.L1839:
	movq	8(%r12), %rbp
	movq	40(%r14), %r14
	testq	%rbp, %rbp
	je	.L2003
	addq	$40, %rbp
	movq	%rbp, %rdi
	call	pthread_mutex_lock@PLT
	movq	8(%r12), %rax
	cmpb	$0, 144(%rax)
	jne	.L2004
	cmpq	$0, 112(%rax)
	je	.L2005
.L1878:
	movq	120(%rax), %rdx
	movq	$0, (%rbx)
	testq	%rdx, %rdx
	je	.L1881
	movq	%rbx, (%rdx)
	movq	%rbx, 120(%rax)
.L1882:
	movq	40(%r14), %rax
	lock addq	$1, 184(%rax)
	movq	%rbp, %rdi
	call	pthread_mutex_unlock@PLT
	jmp	.L1896
	.p2align 4,,10
	.p2align 3
.L2000:
	movzbl	120(%rbx), %edx
	movb	%dl, (%rbx)
	movq	%rbx, (%rax)
	jmp	.L1829
	.p2align 4,,10
	.p2align 3
.L1998:
	movzbl	120(%rbx), %edx
	movb	%dl, (%rbx)
	movq	%rbx, (%rax)
	jmp	.L1831
	.p2align 4,,10
	.p2align 3
.L1837:
	movq	%rbx, %rdi
	call	_ZdlPv@PLT
.L1836:
	movl	$145, %edi
	call	_Znwm@PLT
.LEHE30:
	movq	%rax, %rbx
	movb	$-112, 144(%rax)
	movq	144(%rsp), %rax
	movq	176(%rsp), %r15
	movq	%rax, 24(%rsp)
	movl	168(%rsp), %eax
	movl	%eax, 8(%rsp)
	jmp	.L1838
	.p2align 4,,10
	.p2align 3
.L2002:
	movq	_ZGVZN4asio15system_categoryEvE8instance@GOTPCREL(%rip), %rbp
	movzbl	0(%rbp), %eax
	testb	%al, %al
	je	.L1841
.L1982:
	movq	_ZZN4asio15system_categoryEvE8instance@GOTPCREL(%rip), %rbp
.L1842:
	movl	$9, 24(%rbx)
	movq	%rbp, 32(%rbx)
	.p2align 4,,10
	.p2align 3
.L1844:
	movq	40(%r14), %rax
	movq	40(%rax), %rbp
	.byte	0x66
	leaq	_ZN4asio6detail15keyword_tss_ptrINS0_10call_stackINS0_15task_io_serviceENS0_27task_io_service_thread_infoEE7contextEE6value_E@tlsgd(%rip), %rdi
	.value	0x6666
	rex64
	call	__tls_get_addr@PLT
	movq	(%rax), %rax
	testq	%rax, %rax
	jne	.L1979
	jmp	.L1885
	.p2align 4,,10
	.p2align 3
.L1887:
	movq	16(%rax), %rax
	testq	%rax, %rax
	je	.L1885
.L1979:
	cmpq	(%rax), %rbp
	jne	.L1887
.L1997:
	movq	8(%rax), %rax
	testq	%rax, %rax
	je	.L1885
	addq	$1, 24(%rax)
	movq	$0, (%rbx)
	cmpq	$0, 16(%rax)
	je	.L1890
	movq	16(%rax), %rdx
	movq	%rbx, (%rdx)
	movq	%rbx, 16(%rax)
	jmp	.L1896
	.p2align 4,,10
	.p2align 3
.L1903:
	movq	$0, 16(%rsp)
	xorl	%ebp, %ebp
	jmp	.L1835
	.p2align 4,,10
	.p2align 3
.L2003:
	movq	_ZGVZN4asio15system_categoryEvE8instance@GOTPCREL(%rip), %rbp
	movzbl	0(%rbp), %eax
	testb	%al, %al
	je	.L1850
.L1984:
	movq	_ZZN4asio15system_categoryEvE8instance@GOTPCREL(%rip), %rbp
.L1851:
	movl	$9, 24(%rbx)
	movq	%rbp, 32(%rbx)
	.byte	0x66
	leaq	_ZN4asio6detail15keyword_tss_ptrINS0_10call_stackINS0_15task_io_serviceENS0_27task_io_service_thread_infoEE7contextEE6value_E@tlsgd(%rip), %rdi
	.value	0x6666
	rex64
	call	__tls_get_addr@PLT
	movq	40(%r14), %rbp
	movq	(%rax), %rax
	testq	%rax, %rax
	je	.L1885
	cmpq	%rbp, (%rax)
	jne	.L1855
	jmp	.L1997
	.p2align 4,,10
	.p2align 3
.L1977:
	cmpq	(%rax), %rbp
	je	.L1997
.L1855:
	movq	16(%rax), %rax
	testq	%rax, %rax
	jne	.L1977
	.p2align 4,,10
	.p2align 3
.L1885:
	lock addq	$1, 184(%rbp)
	leaq	48(%rbp), %r12
	movq	%r12, %rdi
	call	pthread_mutex_lock@PLT
	movq	$0, (%rbx)
	cmpq	$0, 200(%rbp)
	je	.L1891
	movq	200(%rbp), %rax
	movq	%rbx, (%rax)
	movq	%rbx, 200(%rbp)
.L1892:
	movq	136(%rbp), %rax
	orq	$1, %rax
	cmpq	$1, %rax
	movq	%rax, 136(%rbp)
	jne	.L2006
	cmpb	$0, 176(%rbp)
	jne	.L1895
	movq	144(%rbp), %rax
	testq	%rax, %rax
	je	.L1895
	leaq	88(%rax), %rdx
	movb	$1, 176(%rbp)
	movl	$-2147483639, 96(%rsp)
	leaq	96(%rsp), %rcx
	movl	$3, %esi
	movq	%rdx, 100(%rsp)
	movl	88(%rax), %edx
	movl	96(%rax), %edi
	call	epoll_ctl@PLT
.L1895:
	movq	%r12, %rdi
	call	pthread_mutex_unlock@PLT
	jmp	.L1896
	.p2align 4,,10
	.p2align 3
.L2004:
	.byte	0x66
	leaq	_ZN4asio6detail15keyword_tss_ptrINS0_10call_stackINS0_15task_io_serviceENS0_27task_io_service_thread_infoEE7contextEE6value_E@tlsgd(%rip), %rdi
	.value	0x6666
	rex64
	call	__tls_get_addr@PLT
	movq	40(%r14), %r12
	movq	(%rax), %rax
	testq	%rax, %rax
	jne	.L1978
	jmp	.L1866
	.p2align 4,,10
	.p2align 3
.L1868:
	movq	16(%rax), %rax
	testq	%rax, %rax
	je	.L1866
.L1978:
	cmpq	(%rax), %r12
	jne	.L1868
	movq	8(%rax), %rax
	testq	%rax, %rax
	je	.L1866
	addq	$1, 24(%rax)
	cmpq	$0, 16(%rax)
	movq	$0, (%rbx)
	je	.L1871
	movq	16(%rax), %rdx
	movq	%rbx, (%rdx)
	movq	%rbx, 16(%rax)
.L1872:
	movq	%rbp, %rdi
	call	pthread_mutex_unlock@PLT
	jmp	.L1896
	.p2align 4,,10
	.p2align 3
.L1845:
	movq	%rbp, %rdi
	movq	%rcx, 8(%rsp)
	call	__cxa_guard_acquire@PLT
	testl	%eax, %eax
	movq	8(%rsp), %rcx
	je	.L1983
	movq	%rbp, %rdi
	movq	%rcx, 8(%rsp)
	call	__cxa_guard_release@PLT
	movq	_ZZN4asio15system_categoryEvE8instance@GOTPCREL(%rip), %rbp
	movq	_ZN4asio6detail15system_categoryD1Ev@GOTPCREL(%rip), %rdi
	leaq	__dso_handle(%rip), %rdx
	movq	%rbp, %rsi
	call	__cxa_atexit@PLT
	movq	8(%rsp), %rcx
	jmp	.L1846
	.p2align 4,,10
	.p2align 3
.L1891:
	movq	%rbx, 200(%rbp)
	movq	%rbx, 192(%rbp)
	jmp	.L1892
	.p2align 4,,10
	.p2align 3
.L2006:
	movq	%r12, %rdi
	call	pthread_mutex_unlock@PLT
	leaq	88(%rbp), %rdi
	call	pthread_cond_signal@PLT
	jmp	.L1896
	.p2align 4,,10
	.p2align 3
.L1890:
	movq	%rbx, 16(%rax)
	movq	%rbx, 8(%rax)
	jmp	.L1896
	.p2align 4,,10
	.p2align 3
.L1881:
	movq	%rbx, 120(%rax)
	movq	%rbx, 112(%rax)
	jmp	.L1882
.L1850:
	movq	%rbp, %rdi
	call	__cxa_guard_acquire@PLT
	testl	%eax, %eax
	je	.L1984
	movq	%rbp, %rdi
	call	__cxa_guard_release@PLT
	movq	_ZZN4asio15system_categoryEvE8instance@GOTPCREL(%rip), %rbp
	movq	_ZN4asio6detail15system_categoryD1Ev@GOTPCREL(%rip), %rdi
	leaq	__dso_handle(%rip), %rdx
	movq	%rbp, %rsi
	call	__cxa_atexit@PLT
	jmp	.L1851
.L1866:
	lock addq	$1, 184(%r12)
	leaq	48(%r12), %r13
	movq	%r13, %rdi
	call	pthread_mutex_lock@PLT
	cmpq	$0, 200(%r12)
	movq	$0, (%rbx)
	je	.L1873
	movq	200(%r12), %rax
	movq	%rbx, (%rax)
	movq	%rbx, 200(%r12)
.L1874:
	movq	136(%r12), %rax
	orq	$1, %rax
	cmpq	$1, %rax
	movq	%rax, 136(%r12)
	jne	.L2007
	cmpb	$0, 176(%r12)
	jne	.L1877
	movq	144(%r12), %rax
	testq	%rax, %rax
	je	.L1877
	leaq	88(%rax), %rdx
	movb	$1, 176(%r12)
	movl	$-2147483639, 96(%rsp)
	leaq	96(%rsp), %rcx
	movl	$3, %esi
	movq	%rdx, 100(%rsp)
	movl	88(%rax), %edx
	movl	96(%rax), %edi
	call	epoll_ctl@PLT
.L1877:
	movq	%r13, %rdi
	call	pthread_mutex_unlock@PLT
	jmp	.L1872
	.p2align 4,,10
	.p2align 3
.L2005:
	movq	%rbx, %rdi
.LEHB31:
	call	*48(%rbx)
.LEHE31:
	testb	%al, %al
	jne	.L2008
	movq	8(%r12), %rax
	movl	92(%rax), %edx
	testb	$4, %dl
	jne	.L1878
	orl	$4, %edx
	movq	%rax, 100(%rsp)
	leaq	96(%rsp), %rcx
	movl	%edx, 96(%rsp)
	movl	96(%r14), %edi
	movl	%r13d, %edx
	movl	$3, %esi
	call	epoll_ctl@PLT
	testl	%eax, %eax
	jne	.L1880
	movq	8(%r12), %rax
	movl	96(%rsp), %edx
	orl	%edx, 92(%rax)
	movq	8(%r12), %rax
	jmp	.L1878
.L2007:
	movq	%r13, %rdi
	call	pthread_mutex_unlock@PLT
	leaq	88(%r12), %rdi
	call	pthread_cond_signal@PLT
	jmp	.L1872
.L1841:
	movq	%rbp, %rdi
	call	__cxa_guard_acquire@PLT
	testl	%eax, %eax
	je	.L1982
	movq	%rbp, %rdi
	call	__cxa_guard_release@PLT
	movq	_ZZN4asio15system_categoryEvE8instance@GOTPCREL(%rip), %rbp
	movq	_ZN4asio6detail15system_categoryD1Ev@GOTPCREL(%rip), %rdi
	leaq	__dso_handle(%rip), %rdx
	movq	%rbp, %rsi
	call	__cxa_atexit@PLT
	jmp	.L1842
.L1871:
	movq	%rbx, 16(%rax)
	movq	%rbx, 8(%rax)
	jmp	.L1872
.L1873:
	movq	%rbx, 200(%r12)
	movq	%rbx, 192(%r12)
	jmp	.L1874
.L2008:
	movq	%rbp, %rdi
	call	pthread_mutex_unlock@PLT
	movq	40(%r14), %rdi
	movl	$1, %edx
	movq	%rbx, %rsi
	call	_ZN4asio6detail15task_io_service25post_immediate_completionEPNS0_25task_io_service_operationEb@PLT
	jmp	.L1896
.L1880:
	call	_ZN4asio15system_categoryEv@PLT
	movq	%rax, %r12
	call	__errno_location@PLT
	movl	(%rax), %eax
	movq	%r12, 32(%rbx)
	movl	$1, %edx
	movq	%rbx, %rsi
	movl	%eax, 24(%rbx)
	movq	40(%r14), %rdi
	call	_ZN4asio6detail15task_io_service25post_immediate_completionEPNS0_25task_io_service_operationEb@PLT
	jmp	.L1872
.L2001:
	call	__stack_chk_fail@PLT
.L1906:
	movq	%rbp, %rdi
	movq	%rax, %rbx
	call	pthread_mutex_unlock@PLT
	leaq	80(%rsp), %rsi
	leaq	72(%rsp), %rdi
	call	_ZN4asio6detail19descriptor_write_opINS_15const_buffers_1ENS0_8write_opINS_17basic_serial_portINS_19serial_port_serviceEEES2_NS0_14transfer_all_tENS0_15wrapped_handlerINS_10io_service6strandEZN7asiopal13SerialChannel14BeginWriteImplERKN7openpal6RSliceEEUlRKSt10error_codemE_NS0_26is_continuation_if_runningEEEEEE3ptr5resetEv.isra.165
.L1884:
	leaq	40(%rsp), %rdi
	leaq	48(%rsp), %rsi
	sfence
	call	_ZN4asio6detail18completion_handlerINS0_17rewrapped_handlerINS0_7binder2INS0_8write_opINS_17basic_serial_portINS_19serial_port_serviceEEENS_15const_buffers_1ENS0_14transfer_all_tENS0_15wrapped_handlerINS_10io_service6strandEZN7asiopal13SerialChannel14BeginWriteImplERKN7openpal6RSliceEEUlRKSt10error_codemE_NS0_26is_continuation_if_runningEEEEESJ_mEESM_EEE3ptr5resetEv.isra.106
	movq	%rbx, %rdi
.LEHB32:
	call	_Unwind_Resume@PLT
.LEHE32:
.L1905:
	movq	%rax, %rbx
	jmp	.L1884
	.cfi_endproc
.LFE9160:
	.section	.gcc_except_table
.LLSDA9160:
	.byte	0xff
	.byte	0xff
	.byte	0x1
	.uleb128 .LLSDACSE9160-.LLSDACSB9160
.LLSDACSB9160:
	.uleb128 .LEHB30-.LFB9160
	.uleb128 .LEHE30-.LEHB30
	.uleb128 .L1905-.LFB9160
	.uleb128 0
	.uleb128 .LEHB31-.LFB9160
	.uleb128 .LEHE31-.LEHB31
	.uleb128 .L1906-.LFB9160
	.uleb128 0
	.uleb128 .LEHB32-.LFB9160
	.uleb128 .LEHE32-.LEHB32
	.uleb128 0
	.uleb128 0
.LLSDACSE9160:
	.text
	.size	_ZN4asio6detail18completion_handlerINS0_17rewrapped_handlerINS0_7binder2INS0_8write_opINS_17basic_serial_portINS_19serial_port_serviceEEENS_15const_buffers_1ENS0_14transfer_all_tENS0_15wrapped_handlerINS_10io_service6strandEZN7asiopal13SerialChannel14BeginWriteImplERKN7openpal6RSliceEEUlRKSt10error_codemE_NS0_26is_continuation_if_runningEEEEESJ_mEESM_EEE11do_completeEPNS0_15task_io_serviceEPNS0_25task_io_service_operationESL_m, .-_ZN4asio6detail18completion_handlerINS0_17rewrapped_handlerINS0_7binder2INS0_8write_opINS_17basic_serial_portINS_19serial_port_serviceEEENS_15const_buffers_1ENS0_14transfer_all_tENS0_15wrapped_handlerINS_10io_service6strandEZN7asiopal13SerialChannel14BeginWriteImplERKN7openpal6RSliceEEUlRKSt10error_codemE_NS0_26is_continuation_if_runningEEEEESJ_mEESM_EEE11do_completeEPNS0_15task_io_serviceEPNS0_25task_io_service_operationESL_m
	.p2align 4,,15
	.type	_ZN4asio6detail19descriptor_write_opINS_15const_buffers_1ENS0_8write_opINS_17basic_serial_portINS_19serial_port_serviceEEES2_NS0_14transfer_all_tENS0_15wrapped_handlerINS_10io_service6strandEZN7asiopal13SerialChannel14BeginWriteImplERKN7openpal6RSliceEEUlRKSt10error_codemE_NS0_26is_continuation_if_runningEEEEEE11do_completeEPNS0_15task_io_serviceEPNS0_25task_io_service_operationESJ_m, @function
_ZN4asio6detail19descriptor_write_opINS_15const_buffers_1ENS0_8write_opINS_17basic_serial_portINS_19serial_port_serviceEEES2_NS0_14transfer_all_tENS0_15wrapped_handlerINS_10io_service6strandEZN7asiopal13SerialChannel14BeginWriteImplERKN7openpal6RSliceEEUlRKSt10error_codemE_NS0_26is_continuation_if_runningEEEEEE11do_completeEPNS0_15task_io_serviceEPNS0_25task_io_service_operationESJ_m:
.LFB9029:
	.cfi_startproc
	.cfi_personality 0x9b,DW.ref.__gxx_personality_v0
	.cfi_lsda 0x1b,.LLSDA9029
	pushq	%r15
	.cfi_def_cfa_offset 16
	.cfi_offset 15, -16
	pushq	%r14
	.cfi_def_cfa_offset 24
	.cfi_offset 14, -24
	pushq	%r13
	.cfi_def_cfa_offset 32
	.cfi_offset 13, -32
	pushq	%r12
	.cfi_def_cfa_offset 40
	.cfi_offset 12, -40
	pushq	%rbp
	.cfi_def_cfa_offset 48
	.cfi_offset 6, -48
	pushq	%rbx
	.cfi_def_cfa_offset 56
	.cfi_offset 3, -56
	movq	%rdi, %rbp
	movq	%rsi, %rbx
	subq	$760, %rsp
	.cfi_def_cfa_offset 816
	movq	%fs:40, %rax
	movq	%rax, 744(%rsp)
	xorl	%eax, %eax
	movq	80(%rsi), %rax
	movq	%rsi, 40(%rsp)
	movdqu	88(%rsi), %xmm0
	movq	$0, 48(%rsp)
	movq	%rax, 448(%rsp)
	movl	104(%rsi), %eax
	movups	%xmm0, 456(%rsp)
	movl	%eax, 472(%rsp)
	movq	112(%rsi), %rax
	movdqu	120(%rsi), %xmm0
	movq	%rax, 480(%rsp)
	movq	136(%rsi), %rax
	movups	%xmm0, 488(%rsp)
	movq	%rax, 504(%rsp)
	movq	40(%rsi), %rax
	movdqu	24(%rsi), %xmm0
	movq	%rax, 528(%rsp)
	leaq	448(%rsp), %rax
	movaps	%xmm0, 512(%rsp)
	movq	%rax, 32(%rsp)
	.byte	0x66
	leaq	_ZN4asio6detail15keyword_tss_ptrINS0_10call_stackINS0_15task_io_serviceENS0_27task_io_service_thread_infoEE7contextEE6value_E@tlsgd(%rip), %rdi
	.value	0x6666
	rex64
	call	__tls_get_addr@PLT
	movq	(%rax), %rax
	testq	%rax, %rax
	je	.L2010
	movq	8(%rax), %rax
	testq	%rax, %rax
	je	.L2010
	cmpq	$0, (%rax)
	je	.L2459
.L2010:
	movq	%rbx, %rdi
	call	_ZdlPv@PLT
.L2011:
	testq	%rbp, %rbp
	movq	$0, 40(%rsp)
	je	.L2009
	movq	504(%rsp), %rax
	movq	456(%rsp), %rdx
	movq	448(%rsp), %rbp
	movq	488(%rsp), %r12
	movq	496(%rsp), %rbx
	movq	%rax, 640(%rsp)
	movq	%rdx, 656(%rsp)
	movq	%rax, 704(%rsp)
	movq	464(%rsp), %rdx
	movl	512(%rsp), %eax
	movq	%rbp, 648(%rsp)
	movq	%r12, 688(%rsp)
	movq	%rbx, 696(%rsp)
	movq	%rdx, 664(%rsp)
	movl	472(%rsp), %edx
	movl	%eax, 712(%rsp)
	movq	520(%rsp), %rax
	movl	%edx, 672(%rsp)
	movq	480(%rsp), %rdx
	movq	%rax, 720(%rsp)
	movq	528(%rsp), %rax
	movq	%rdx, 680(%rsp)
	movq	%rax, 728(%rsp)
	.byte	0x66
	leaq	_ZN4asio6detail15keyword_tss_ptrINS0_10call_stackINS0_14strand_service11strand_implEhE7contextEE6value_E@tlsgd(%rip), %rdi
	.value	0x6666
	rex64
	call	__tls_get_addr@PLT
	movq	(%rax), %rax
	testq	%rax, %rax
	je	.L2013
	cmpq	(%rax), %rbx
	jne	.L2015
	jmp	.L2014
	.p2align 4,,10
	.p2align 3
.L2401:
	cmpq	%rbx, (%rax)
	je	.L2014
.L2015:
	movq	16(%rax), %rax
	testq	%rax, %rax
	jne	.L2401
.L2013:
	pxor	%xmm0, %xmm0
	leaq	640(%rsp), %rax
	movq	%rax, 64(%rsp)
	movups	%xmm0, 72(%rsp)
	.byte	0x66
	leaq	_ZN4asio6detail15keyword_tss_ptrINS0_10call_stackINS0_15task_io_serviceENS0_27task_io_service_thread_infoEE7contextEE6value_E@tlsgd(%rip), %rdi
	.value	0x6666
	rex64
	call	__tls_get_addr@PLT
	movq	(%rax), %rax
	testq	%rax, %rax
	je	.L2084
	movq	8(%rax), %rax
	testq	%rax, %rax
	je	.L2084
	movq	(%rax), %rbx
	testq	%rbx, %rbx
	je	.L2084
	movq	$0, (%rax)
	movzbl	(%rbx), %eax
	cmpb	$119, %al
	jbe	.L2085
	movb	%al, 120(%rbx)
	jmp	.L2086
	.p2align 4,,10
	.p2align 3
.L2014:
	cmpq	$0, 8(%rax)
	je	.L2013
	lfence
	movq	680(%rsp), %r15
	movq	728(%rsp), %rcx
	movl	712(%rsp), %eax
	movl	$0, 672(%rsp)
	addq	%rcx, %r15
	testl	%eax, %eax
	movq	%r15, 680(%rsp)
	jne	.L2018
	testq	%rcx, %rcx
	jne	.L2460
.L2018:
	movq	704(%rsp), %rcx
	movl	%eax, 200(%rsp)
	leaq	192(%rsp), %rdx
	movq	720(%rsp), %rax
	movq	688(%rsp), %rdi
	leaq	696(%rsp), %rsi
	movq	%r15, 216(%rsp)
	movq	%rcx, 192(%rsp)
	movq	%rax, 208(%rsp)
.LEHB33:
	call	_ZN4asio6detail14strand_service8dispatchINS0_7binder2IZN7asiopal13SerialChannel14BeginWriteImplERKN7openpal6RSliceEEUlRKSt10error_codemE_SA_mEEEEvRPNS1_11strand_implERT_
.LEHE33:
.L2081:
	sfence
.L2083:
	sfence
	cmpq	$0, 48(%rsp)
	movq	40(%rsp), %rbx
	je	.L2204
	movq	$0, 48(%rsp)
.L2204:
	testq	%rbx, %rbx
	je	.L2009
	.byte	0x66
	leaq	_ZN4asio6detail15keyword_tss_ptrINS0_10call_stackINS0_15task_io_serviceENS0_27task_io_service_thread_infoEE7contextEE6value_E@tlsgd(%rip), %rdi
	.value	0x6666
	rex64
	call	__tls_get_addr@PLT
	movq	(%rax), %rax
	testq	%rax, %rax
	je	.L2206
	movq	8(%rax), %rax
	testq	%rax, %rax
	je	.L2206
	cmpq	$0, (%rax)
	je	.L2461
.L2206:
	movq	%rbx, %rdi
	call	_ZdlPv@PLT
.L2009:
	movq	744(%rsp), %rax
	xorq	%fs:40, %rax
	jne	.L2462
	addq	$760, %rsp
	.cfi_remember_state
	.cfi_def_cfa_offset 56
	popq	%rbx
	.cfi_def_cfa_offset 48
	popq	%rbp
	.cfi_def_cfa_offset 40
	popq	%r12
	.cfi_def_cfa_offset 32
	popq	%r13
	.cfi_def_cfa_offset 24
	popq	%r14
	.cfi_def_cfa_offset 16
	popq	%r15
	.cfi_def_cfa_offset 8
	ret
	.p2align 4,,10
	.p2align 3
.L2085:
	.cfi_restore_state
	movq	%rbx, %rdi
	call	_ZdlPv@PLT
.L2084:
	movl	$121, %edi
.LEHB34:
	call	_Znwm@PLT
.LEHE34:
	movq	648(%rsp), %rbp
	movq	%rax, %rbx
	movb	$120, 120(%rax)
.L2086:
	leaq	_ZN4asio6detail18completion_handlerINS0_17rewrapped_handlerINS0_7binder2INS0_8write_opINS_17basic_serial_portINS_19serial_port_serviceEEENS_15const_buffers_1ENS0_14transfer_all_tENS0_15wrapped_handlerINS_10io_service6strandEZN7asiopal13SerialChannel14BeginWriteImplERKN7openpal6RSliceEEUlRKSt10error_codemE_NS0_26is_continuation_if_runningEEEEESJ_mEESM_EEE11do_completeEPNS0_15task_io_serviceEPNS0_25task_io_service_operationESL_m(%rip), %rax
	movq	%rbx, 72(%rsp)
	movl	$0, 16(%rbx)
	movdqa	656(%rsp), %xmm0
	movq	%rax, 8(%rbx)
	movq	640(%rsp), %rax
	movups	%xmm0, 40(%rbx)
	movq	$0, (%rbx)
	movq	%rbp, 32(%rbx)
	movq	%rax, 24(%rbx)
	movl	672(%rsp), %eax
	movdqa	688(%rsp), %xmm0
	movq	%rbx, 80(%rsp)
	movl	%eax, 56(%rbx)
	movq	680(%rsp), %rax
	movups	%xmm0, 72(%rbx)
	movq	%rax, 64(%rbx)
	movq	704(%rsp), %rax
	movdqu	712(%rsp), %xmm0
	movq	%rax, 88(%rbx)
	movq	728(%rsp), %rax
	movups	%xmm0, 96(%rbx)
	movq	%rax, 112(%rbx)
	movq	40(%r12), %rbp
	.byte	0x66
	leaq	_ZN4asio6detail15keyword_tss_ptrINS0_10call_stackINS0_15task_io_serviceENS0_27task_io_service_thread_infoEE7contextEE6value_E@tlsgd(%rip), %rdi
	.value	0x6666
	rex64
	call	__tls_get_addr@PLT
	movq	(%rax), %rax
	testq	%rax, %rax
	jne	.L2409
	jmp	.L2091
	.p2align 4,,10
	.p2align 3
.L2088:
	movq	16(%rax), %rax
	testq	%rax, %rax
	je	.L2091
.L2409:
	cmpq	(%rax), %rbp
	jne	.L2088
	movq	8(%rax), %rbp
	movq	496(%rsp), %rax
	leaq	24(%rax), %rdi
	call	pthread_mutex_lock@PLT
	testq	%rbp, %rbp
	je	.L2090
	movq	496(%rsp), %rax
	cmpb	$0, 64(%rax)
	leaq	24(%rax), %rdi
	je	.L2463
.L2093:
	cmpq	$0, 80(%rax)
	movq	$0, (%rbx)
	je	.L2097
	movq	80(%rax), %rdx
	movq	%rbx, (%rdx)
	movq	%rbx, 80(%rax)
.L2440:
	call	pthread_mutex_unlock@PLT
	jmp	.L2083
	.p2align 4,,10
	.p2align 3
.L2459:
	movzbl	144(%rbx), %edx
	movb	%dl, (%rbx)
	movq	%rbx, (%rax)
	jmp	.L2011
	.p2align 4,,10
	.p2align 3
.L2460:
	movq	664(%rsp), %rbp
	cmpq	%rbp, %r15
	je	.L2018
	movq	648(%rsp), %r12
	ja	.L2211
	movq	656(%rsp), %rax
	subq	%r15, %rbp
	addq	%r15, %rax
	cmpq	$65536, %rbp
	movq	%rax, 24(%rsp)
	movl	$65536, %eax
	cmovnb	%rax, %rbp
.L2020:
	movdqa	656(%rsp), %xmm0
	movq	16(%r12), %r14
	movq	704(%rsp), %rax
	movups	%xmm0, 296(%rsp)
	movq	%r12, 288(%rsp)
	movl	$0, 312(%rsp)
	movdqa	688(%rsp), %xmm0
	movq	%rax, 344(%rsp)
	leaq	288(%rsp), %rax
	movq	%r15, 320(%rsp)
	movups	%xmm0, 328(%rsp)
	pxor	%xmm0, %xmm0
	movq	%rax, 96(%rsp)
	movups	%xmm0, 104(%rsp)
	.byte	0x66
	leaq	_ZN4asio6detail15keyword_tss_ptrINS0_10call_stackINS0_15task_io_serviceENS0_27task_io_service_thread_infoEE7contextEE6value_E@tlsgd(%rip), %rdi
	.value	0x6666
	rex64
	call	__tls_get_addr@PLT
	movq	(%rax), %rax
	testq	%rax, %rax
	je	.L2021
	movq	8(%rax), %rax
	testq	%rax, %rax
	je	.L2021
	movq	(%rax), %rbx
	testq	%rbx, %rbx
	je	.L2021
	movq	$0, (%rax)
	movzbl	(%rbx), %eax
	cmpb	$-113, %al
	jbe	.L2022
	movb	%al, 144(%rbx)
	movq	%r12, %rdi
	xorl	%esi, %esi
.L2023:
	leaq	_ZN4asio6detail19descriptor_write_opINS_15const_buffers_1ENS0_8write_opINS_17basic_serial_portINS_19serial_port_serviceEEES2_NS0_14transfer_all_tENS0_15wrapped_handlerINS_10io_service6strandEZN7asiopal13SerialChannel14BeginWriteImplERKN7openpal6RSliceEEUlRKSt10error_codemE_NS0_26is_continuation_if_runningEEEEEE11do_completeEPNS0_15task_io_serviceEPNS0_25task_io_service_operationESJ_m(%rip), %rax
	movl	(%r12), %r13d
	movq	%rbx, 104(%rsp)
	movl	$0, 16(%rbx)
	movq	$0, (%rbx)
	movq	%rax, 8(%rbx)
	movl	$0, 24(%rbx)
	movq	%rdi, 16(%rsp)
	movl	%esi, 8(%rsp)
	call	_ZNSt3_V215system_categoryEv@PLT
	movq	%rax, %rcx
	movq	%rax, 32(%rbx)
	movq	_ZN4asio6detail24descriptor_write_op_baseINS_15const_buffers_1EE10do_performEPNS0_10reactor_opE@GOTPCREL(%rip), %rax
	movdqu	296(%rsp), %xmm0
	testq	%rbp, %rbp
	movq	16(%rsp), %rdi
	movl	8(%rsp), %esi
	movq	%rax, 48(%rbx)
	movq	24(%rsp), %rax
	movups	%xmm0, 88(%rbx)
	movq	$0, 40(%rbx)
	movl	%r13d, 56(%rbx)
	movq	%rax, 64(%rbx)
	movq	344(%rsp), %rax
	movdqu	328(%rsp), %xmm0
	movq	%rbp, 72(%rbx)
	movq	%rdi, 80(%rbx)
	movl	%esi, 104(%rbx)
	movq	%r15, 112(%rbx)
	movups	%xmm0, 120(%rbx)
	movq	%rax, 136(%rbx)
	movq	%rbx, 112(%rsp)
	je	.L2029
	testb	$3, 4(%r12)
	jne	.L2024
	cmpl	$-1, %r13d
	je	.L2464
	movq	%rcx, 8(%rsp)
	call	__errno_location@PLT
	leaq	544(%rsp), %rdx
	movl	$0, (%rax)
	movl	%r13d, %edi
	movq	%rax, %rbp
	movl	$21537, %esi
	xorl	%eax, %eax
	movl	$1, 544(%rsp)
	call	ioctl@PLT
	movq	_ZGVZN4asio15system_categoryEvE8instance@GOTPCREL(%rip), %r13
	movl	%eax, %r15d
	movzbl	0(%r13), %eax
	movq	8(%rsp), %rcx
	testb	%al, %al
	je	.L2030
.L2423:
	movq	_ZZN4asio15system_categoryEvE8instance@GOTPCREL(%rip), %r8
.L2031:
	movl	0(%rbp), %eax
	testl	%r15d, %r15d
	movq	%r8, 32(%rbx)
	movl	%eax, 24(%rbx)
	js	.L2029
	movl	$0, 24(%rbx)
	movq	%rcx, 32(%rbx)
	orb	$2, 4(%r12)
	movl	(%r12), %r13d
.L2024:
	movq	8(%r12), %rbp
	movq	40(%r14), %r14
	testq	%rbp, %rbp
	je	.L2465
	addq	$40, %rbp
	movq	%rbp, %rdi
	call	pthread_mutex_lock@PLT
	movq	8(%r12), %rax
	cmpb	$0, 144(%rax)
	jne	.L2466
	cmpq	$0, 112(%rax)
	je	.L2467
.L2063:
	movq	120(%rax), %rdx
	movq	$0, (%rbx)
	testq	%rdx, %rdx
	je	.L2066
	movq	%rbx, (%rdx)
	movq	%rbx, 120(%rax)
.L2067:
	movq	40(%r14), %rax
	lock addq	$1, 184(%rax)
	movq	%rbp, %rdi
	call	pthread_mutex_unlock@PLT
	jmp	.L2081
	.p2align 4,,10
	.p2align 3
.L2091:
	movq	496(%rsp), %rax
	leaq	24(%rax), %rdi
	call	pthread_mutex_lock@PLT
.L2090:
	movq	496(%rsp), %rax
	cmpb	$0, 64(%rax)
	leaq	24(%rax), %rdi
	jne	.L2093
	movb	$1, 64(%rax)
	call	pthread_mutex_unlock@PLT
	movq	496(%rsp), %rbp
	movq	$0, (%rbx)
	cmpq	$0, 96(%rbp)
	je	.L2100
	movq	96(%rbp), %rax
	movq	%rbx, (%rax)
	movq	%rbx, 96(%rbp)
.L2101:
	movq	40(%r12), %rbx
	cmpb	$0, 40(%rbx)
	je	.L2102
	.byte	0x66
	leaq	_ZN4asio6detail15keyword_tss_ptrINS0_10call_stackINS0_15task_io_serviceENS0_27task_io_service_thread_infoEE7contextEE6value_E@tlsgd(%rip), %rdi
	.value	0x6666
	rex64
	call	__tls_get_addr@PLT
	movq	(%rax), %rax
	testq	%rax, %rax
	jne	.L2410
	jmp	.L2102
	.p2align 4,,10
	.p2align 3
.L2104:
	movq	16(%rax), %rax
	testq	%rax, %rax
	je	.L2102
.L2410:
	cmpq	(%rax), %rbx
	jne	.L2104
	movq	8(%rax), %rax
	testq	%rax, %rax
	je	.L2102
	addq	$1, 24(%rax)
	cmpq	$0, 16(%rax)
	movq	$0, 0(%rbp)
	je	.L2107
	movq	16(%rax), %rdx
	movq	%rbp, (%rdx)
	movq	%rbp, 16(%rax)
	jmp	.L2083
	.p2align 4,,10
	.p2align 3
.L2102:
	lock addq	$1, 184(%rbx)
	leaq	48(%rbx), %r12
	movq	%r12, %rdi
	call	pthread_mutex_lock@PLT
	cmpq	$0, 200(%rbx)
	movq	$0, 0(%rbp)
	je	.L2108
	movq	200(%rbx), %rax
	movq	%rbp, (%rax)
	movq	%rbp, 200(%rbx)
.L2109:
	movq	136(%rbx), %rax
	orq	$1, %rax
	cmpq	$1, %rax
	movq	%rax, 136(%rbx)
	jne	.L2468
	cmpb	$0, 176(%rbx)
	jne	.L2112
	movq	144(%rbx), %rax
	testq	%rax, %rax
	je	.L2112
	leaq	88(%rax), %rdx
	movb	$1, 176(%rbx)
	movl	$-2147483639, 544(%rsp)
	leaq	544(%rsp), %rcx
	movl	$3, %esi
	movq	%rdx, 548(%rsp)
	movl	88(%rax), %edx
	movl	96(%rax), %edi
	call	epoll_ctl@PLT
.L2112:
	movq	%r12, %rdi
	jmp	.L2440
	.p2align 4,,10
	.p2align 3
.L2463:
	movb	$1, 64(%rax)
	call	pthread_mutex_unlock@PLT
	movq	496(%rsp), %rbp
	movq	80(%rsp), %rbx
	movq	$0, 72(%rsp)
	movq	$0, 80(%rsp)
	movq	%rbp, 288(%rsp)
	.byte	0x66
	leaq	_ZN4asio6detail15keyword_tss_ptrINS0_10call_stackINS0_14strand_service11strand_implEhE7contextEE6value_E@tlsgd(%rip), %rdi
	.value	0x6666
	rex64
	call	__tls_get_addr@PLT
	movq	(%rax), %rdx
	movq	%rdx, 304(%rsp)
	leaq	288(%rsp), %rdx
	movq	%rdx, 296(%rsp)
	movq	40(%r12), %r12
	movq	%rdx, (%rax)
	movq	%rbp, 200(%rsp)
	leaq	544(%rsp), %rbp
	movq	%r12, 192(%rsp)
	call	_ZNSt3_V215system_categoryEv@PLT
	movq	%rax, %r13
	movq	24(%rbx), %rax
	movq	%rbx, 136(%rsp)
	movdqu	40(%rbx), %xmm0
	movq	%rbp, 128(%rsp)
	movq	$0, 144(%rsp)
	movq	%rax, 544(%rsp)
	movq	32(%rbx), %rax
	movaps	%xmm0, 560(%rsp)
	movq	%rax, 552(%rsp)
	movl	56(%rbx), %eax
	movdqu	72(%rbx), %xmm0
	movl	%eax, 576(%rsp)
	movq	64(%rbx), %rax
	movaps	%xmm0, 592(%rsp)
	movq	%rax, 584(%rsp)
	movq	88(%rbx), %rax
	movdqu	96(%rbx), %xmm0
	movq	%rax, 608(%rsp)
	movq	112(%rbx), %rax
	movups	%xmm0, 616(%rsp)
	movq	%rax, 632(%rsp)
	.byte	0x66
	leaq	_ZN4asio6detail15keyword_tss_ptrINS0_10call_stackINS0_15task_io_serviceENS0_27task_io_service_thread_infoEE7contextEE6value_E@tlsgd(%rip), %rdi
	.value	0x6666
	rex64
	call	__tls_get_addr@PLT
	movq	(%rax), %rax
	testq	%rax, %rax
	je	.L2095
	movq	8(%rax), %rax
	testq	%rax, %rax
	je	.L2095
	cmpq	$0, (%rax)
	je	.L2469
.L2095:
	movq	%rbx, %rdi
	call	_ZdlPv@PLT
.L2113:
	testq	%r12, %r12
	movq	$0, 136(%rsp)
	je	.L2181
	movq	584(%rsp), %rdx
	movq	632(%rsp), %rcx
	movl	616(%rsp), %eax
	movl	$0, 576(%rsp)
	addq	%rcx, %rdx
	testl	%eax, %eax
	movq	%rdx, 584(%rsp)
	jne	.L2115
	testq	%rcx, %rcx
	jne	.L2470
.L2115:
	movq	608(%rsp), %rcx
	movl	%eax, 248(%rsp)
	leaq	56(%rbp), %rsi
	movq	624(%rsp), %rax
	movq	592(%rsp), %rdi
	movq	%rdx, 264(%rsp)
	leaq	240(%rsp), %rdx
	movq	%rcx, 240(%rsp)
	movq	%rax, 256(%rsp)
.LEHB35:
	call	_ZN4asio6detail14strand_service8dispatchINS0_7binder2IZN7asiopal13SerialChannel14BeginWriteImplERKN7openpal6RSliceEEUlRKSt10error_codemE_SA_mEEEEvRPNS1_11strand_implERT_
.LEHE35:
.L2178:
	sfence
	cmpq	$0, 144(%rsp)
	movq	136(%rsp), %rbx
	je	.L2180
	movq	$0, 144(%rsp)
.L2180:
	testq	%rbx, %rbx
	je	.L2181
	.byte	0x66
	leaq	_ZN4asio6detail15keyword_tss_ptrINS0_10call_stackINS0_15task_io_serviceENS0_27task_io_service_thread_infoEE7contextEE6value_E@tlsgd(%rip), %rdi
	.value	0x6666
	rex64
	call	__tls_get_addr@PLT
	movq	(%rax), %rax
	testq	%rax, %rax
	je	.L2182
	movq	8(%rax), %rax
	testq	%rax, %rax
	je	.L2182
	cmpq	$0, (%rax)
	je	.L2471
.L2182:
	movq	%rbx, %rdi
	call	_ZdlPv@PLT
.L2181:
	movq	200(%rsp), %rax
	leaq	24(%rax), %rdi
	call	pthread_mutex_lock@PLT
	movq	200(%rsp), %rdi
	movq	72(%rdi), %rbx
	testq	%rbx, %rbx
	je	.L2472
	movq	96(%rdi), %rax
	testq	%rax, %rax
	je	.L2186
	movq	%rbx, (%rax)
	movq	88(%rdi), %rbx
.L2187:
	movq	80(%rdi), %rax
	movq	$0, 72(%rdi)
	movq	$0, 80(%rdi)
	movq	%rax, 96(%rdi)
.L2184:
	testq	%rbx, %rbx
	setne	64(%rdi)
	addq	$24, %rdi
	call	pthread_mutex_unlock@PLT
	testq	%rbx, %rbx
	jne	.L2473
.L2188:
	.byte	0x66
	leaq	_ZN4asio6detail15keyword_tss_ptrINS0_10call_stackINS0_14strand_service11strand_implEhE7contextEE6value_E@tlsgd(%rip), %rdi
	.value	0x6666
	rex64
	call	__tls_get_addr@PLT
	cmpq	$0, 80(%rsp)
	movq	304(%rsp), %rdx
	movq	%rdx, (%rax)
	je	.L2439
	movq	$0, 80(%rsp)
.L2439:
	movq	72(%rsp), %rbx
	testq	%rbx, %rbx
	je	.L2083
	.byte	0x66
	leaq	_ZN4asio6detail15keyword_tss_ptrINS0_10call_stackINS0_15task_io_serviceENS0_27task_io_service_thread_infoEE7contextEE6value_E@tlsgd(%rip), %rdi
	.value	0x6666
	rex64
	call	__tls_get_addr@PLT
	movq	(%rax), %rax
	testq	%rax, %rax
	je	.L2203
	movq	8(%rax), %rax
	testq	%rax, %rax
	je	.L2203
	cmpq	$0, (%rax)
	je	.L2474
.L2203:
	movq	%rbx, %rdi
	call	_ZdlPv@PLT
	jmp	.L2083
	.p2align 4,,10
	.p2align 3
.L2461:
	movzbl	144(%rbx), %edx
	movb	%dl, (%rbx)
	movq	%rbx, (%rax)
	jmp	.L2009
	.p2align 4,,10
	.p2align 3
.L2473:
	movq	192(%rsp), %rbx
	movq	200(%rsp), %r12
	cmpb	$0, 40(%rbx)
	jne	.L2475
.L2189:
	lock addq	$1, 184(%rbx)
	leaq	48(%rbx), %r13
	movq	%r13, %rdi
	call	pthread_mutex_lock@PLT
	cmpq	$0, 200(%rbx)
	movq	$0, (%r12)
	je	.L2195
	movq	200(%rbx), %rax
	movq	%r12, (%rax)
	movq	%r12, 200(%rbx)
.L2196:
	movq	136(%rbx), %rax
	orq	$1, %rax
	cmpq	$1, %rax
	movq	%rax, 136(%rbx)
	jne	.L2476
	cmpb	$0, 176(%rbx)
	jne	.L2199
	movq	144(%rbx), %rax
	testq	%rax, %rax
	je	.L2199
	leaq	88(%rax), %rdx
	movb	$1, 176(%rbx)
	movl	$-2147483639, 544(%rsp)
	movq	%rbp, %rcx
	movl	$3, %esi
	movq	%rdx, 548(%rsp)
	movl	88(%rax), %edx
	movl	96(%rax), %edi
	call	epoll_ctl@PLT
.L2199:
	movq	%r13, %rdi
	call	pthread_mutex_unlock@PLT
	jmp	.L2188
	.p2align 4,,10
	.p2align 3
.L2097:
	movq	%rbx, 80(%rax)
	movq	%rbx, 72(%rax)
	jmp	.L2440
	.p2align 4,,10
	.p2align 3
.L2472:
	movq	88(%rdi), %rbx
	jmp	.L2184
	.p2align 4,,10
	.p2align 3
.L2211:
	movq	$0, 24(%rsp)
	xorl	%ebp, %ebp
	jmp	.L2020
.L2470:
	movq	568(%rsp), %r12
	cmpq	%r12, %rdx
	je	.L2115
	movq	552(%rsp), %r14
	ja	.L2213
	movq	560(%rsp), %rax
	subq	%rdx, %r12
	addq	%rdx, %rax
	cmpq	$65536, %r12
	movq	%rax, 8(%rsp)
	movl	$65536, %eax
	cmovnb	%rax, %r12
.L2117:
	movq	16(%r14), %rax
	movq	%r14, 368(%rsp)
	movdqa	560(%rsp), %xmm0
	movl	$0, 392(%rsp)
	movq	%rdx, 400(%rsp)
	movq	%rax, 16(%rsp)
	movq	608(%rsp), %rax
	movups	%xmm0, 376(%rsp)
	movq	%rdx, 24(%rsp)
	movdqa	592(%rsp), %xmm0
	movq	%rax, 424(%rsp)
	leaq	368(%rsp), %rax
	movups	%xmm0, 408(%rsp)
	pxor	%xmm0, %xmm0
	movq	%rax, 160(%rsp)
	movups	%xmm0, 168(%rsp)
	.byte	0x66
	leaq	_ZN4asio6detail15keyword_tss_ptrINS0_10call_stackINS0_15task_io_serviceENS0_27task_io_service_thread_infoEE7contextEE6value_E@tlsgd(%rip), %rdi
	.value	0x6666
	rex64
	call	__tls_get_addr@PLT
	movq	(%rax), %rax
	testq	%rax, %rax
	je	.L2118
	movq	8(%rax), %rax
	testq	%rax, %rax
	je	.L2118
	movq	(%rax), %rbx
	testq	%rbx, %rbx
	je	.L2118
	movq	$0, (%rax)
	movzbl	(%rbx), %eax
	cmpb	$-113, %al
	jbe	.L2119
	movq	24(%rsp), %rdx
	movb	%al, 144(%rbx)
	movq	%r14, %rsi
	xorl	%ecx, %ecx
.L2120:
	leaq	_ZN4asio6detail19descriptor_write_opINS_15const_buffers_1ENS0_8write_opINS_17basic_serial_portINS_19serial_port_serviceEEES2_NS0_14transfer_all_tENS0_15wrapped_handlerINS_10io_service6strandEZN7asiopal13SerialChannel14BeginWriteImplERKN7openpal6RSliceEEUlRKSt10error_codemE_NS0_26is_continuation_if_runningEEEEEE11do_completeEPNS0_15task_io_serviceEPNS0_25task_io_service_operationESJ_m(%rip), %rax
	movl	(%r14), %r15d
	movq	%rbx, 168(%rsp)
	movdqu	376(%rsp), %xmm0
	testq	%r12, %r12
	movq	%rax, 8(%rbx)
	movq	_ZN4asio6detail24descriptor_write_op_baseINS_15const_buffers_1EE10do_performEPNS0_10reactor_opE@GOTPCREL(%rip), %rax
	movups	%xmm0, 88(%rbx)
	movq	$0, (%rbx)
	movl	$0, 16(%rbx)
	movq	%rax, 48(%rbx)
	movq	8(%rsp), %rax
	movdqu	408(%rsp), %xmm0
	movl	$0, 24(%rbx)
	movq	%r13, 32(%rbx)
	movq	%rax, 64(%rbx)
	movq	424(%rsp), %rax
	movq	$0, 40(%rbx)
	movl	%r15d, 56(%rbx)
	movq	%r12, 72(%rbx)
	movq	%rsi, 80(%rbx)
	movl	%ecx, 104(%rbx)
	movq	%rdx, 112(%rbx)
	movups	%xmm0, 120(%rbx)
	movq	%rax, 136(%rbx)
	movq	%rbx, 176(%rsp)
	je	.L2126
	testb	$3, 4(%r14)
	jne	.L2121
	cmpl	$-1, %r15d
	je	.L2477
	call	__errno_location@PLT
	leaq	240(%rsp), %rdx
	movl	$0, (%rax)
	movl	%r15d, %edi
	movq	%rax, %r12
	movl	$21537, %esi
	xorl	%eax, %eax
	movl	$1, 240(%rsp)
	call	ioctl@PLT
	movl	%eax, %r15d
	movq	_ZGVZN4asio15system_categoryEvE8instance@GOTPCREL(%rip), %rax
	movzbl	(%rax), %eax
	testb	%al, %al
	je	.L2127
.L2433:
	movq	_ZZN4asio15system_categoryEvE8instance@GOTPCREL(%rip), %r8
.L2128:
	movl	(%r12), %eax
	testl	%r15d, %r15d
	movq	%r8, 32(%rbx)
	movl	%eax, 24(%rbx)
	js	.L2126
	movl	$0, 24(%rbx)
	movq	%r13, 32(%rbx)
	orb	$2, 4(%r14)
	movl	(%r14), %r15d
.L2121:
	movq	8(%r14), %r13
	movq	16(%rsp), %rax
	testq	%r13, %r13
	movq	40(%rax), %r12
	je	.L2478
	addq	$40, %r13
	movq	%r13, %rdi
	call	pthread_mutex_lock@PLT
	movq	8(%r14), %rax
	cmpb	$0, 144(%rax)
	jne	.L2479
	cmpq	$0, 112(%rax)
	je	.L2480
.L2160:
	movq	120(%rax), %rdx
	movq	$0, (%rbx)
	testq	%rdx, %rdx
	je	.L2163
	movq	%rbx, (%rdx)
	movq	%rbx, 120(%rax)
.L2164:
	movq	40(%r12), %rax
	lock addq	$1, 184(%rax)
	movq	%r13, %rdi
	call	pthread_mutex_unlock@PLT
	jmp	.L2178
.L2475:
	.byte	0x66
	leaq	_ZN4asio6detail15keyword_tss_ptrINS0_10call_stackINS0_15task_io_serviceENS0_27task_io_service_thread_infoEE7contextEE6value_E@tlsgd(%rip), %rdi
	.value	0x6666
	rex64
	call	__tls_get_addr@PLT
	movq	(%rax), %rax
	testq	%rax, %rax
	je	.L2189
	cmpq	%rbx, (%rax)
	jne	.L2191
	jmp	.L2190
	.p2align 4,,10
	.p2align 3
.L2418:
	cmpq	(%rax), %rbx
	je	.L2190
.L2191:
	movq	16(%rax), %rax
	testq	%rax, %rax
	jne	.L2418
	jmp	.L2189
.L2108:
	movq	%rbp, 200(%rbx)
	movq	%rbp, 192(%rbx)
	jmp	.L2109
.L2022:
	movq	%rbx, %rdi
	call	_ZdlPv@PLT
.L2021:
	movl	$145, %edi
.LEHB36:
	call	_Znwm@PLT
.LEHE36:
	movq	%rax, %rbx
	movb	$-112, 144(%rax)
	movq	288(%rsp), %rdi
	movl	312(%rsp), %esi
	movq	320(%rsp), %r15
	jmp	.L2023
.L2464:
	movq	_ZGVZN4asio15system_categoryEvE8instance@GOTPCREL(%rip), %rbp
	movzbl	0(%rbp), %eax
	testb	%al, %al
	je	.L2026
.L2422:
	movq	_ZZN4asio15system_categoryEvE8instance@GOTPCREL(%rip), %r8
.L2027:
	movl	$9, 24(%rbx)
	movq	%r8, 32(%rbx)
	.p2align 4,,10
	.p2align 3
.L2029:
	movq	40(%r14), %rax
	movq	40(%rax), %rbp
	.byte	0x66
	leaq	_ZN4asio6detail15keyword_tss_ptrINS0_10call_stackINS0_15task_io_serviceENS0_27task_io_service_thread_infoEE7contextEE6value_E@tlsgd(%rip), %rdi
	.value	0x6666
	rex64
	call	__tls_get_addr@PLT
	movq	(%rax), %rax
	testq	%rax, %rax
	jne	.L2408
	jmp	.L2070
	.p2align 4,,10
	.p2align 3
.L2072:
	movq	16(%rax), %rax
	testq	%rax, %rax
	je	.L2070
.L2408:
	cmpq	(%rax), %rbp
	jne	.L2072
.L2457:
	movq	8(%rax), %rax
	testq	%rax, %rax
	je	.L2070
	addq	$1, 24(%rax)
	movq	$0, (%rbx)
	cmpq	$0, 16(%rax)
	je	.L2075
	movq	16(%rax), %rdx
	movq	%rbx, (%rdx)
	movq	%rbx, 16(%rax)
	jmp	.L2081
	.p2align 4,,10
	.p2align 3
.L2474:
	movzbl	120(%rbx), %edx
	movb	%dl, (%rbx)
	movq	%rbx, (%rax)
	jmp	.L2083
.L2186:
	movq	%rbx, 88(%rdi)
	jmp	.L2187
.L2070:
	lock addq	$1, 184(%rbp)
	leaq	48(%rbp), %r12
	movq	%r12, %rdi
	call	pthread_mutex_lock@PLT
	movq	$0, (%rbx)
	cmpq	$0, 200(%rbp)
	je	.L2076
	movq	200(%rbp), %rax
	movq	%rbx, (%rax)
	movq	%rbx, 200(%rbp)
.L2077:
	movq	136(%rbp), %rax
	orq	$1, %rax
	cmpq	$1, %rax
	movq	%rax, 136(%rbp)
	jne	.L2481
	cmpb	$0, 176(%rbp)
	jne	.L2080
	movq	144(%rbp), %rax
	testq	%rax, %rax
	je	.L2080
	leaq	88(%rax), %rdx
	movb	$1, 176(%rbp)
	movl	$-2147483639, 544(%rsp)
	leaq	544(%rsp), %rcx
	movl	$3, %esi
	movq	%rdx, 548(%rsp)
	movl	88(%rax), %edx
	movl	96(%rax), %edi
	call	epoll_ctl@PLT
.L2080:
	movq	%r12, %rdi
	call	pthread_mutex_unlock@PLT
	jmp	.L2081
.L2468:
	movq	%r12, %rdi
	call	pthread_mutex_unlock@PLT
	leaq	88(%rbx), %rdi
	call	pthread_cond_signal@PLT
	jmp	.L2083
.L2100:
	movq	%rbx, 96(%rbp)
	movq	%rbx, 88(%rbp)
	jmp	.L2101
.L2471:
	movzbl	120(%rbx), %edx
	movb	%dl, (%rbx)
	movq	%rbx, (%rax)
	jmp	.L2181
.L2469:
	movzbl	120(%rbx), %edx
	movb	%dl, (%rbx)
	movq	%rbx, (%rax)
	jmp	.L2113
.L2119:
	movq	%rbx, %rdi
	call	_ZdlPv@PLT
.L2118:
	movl	$145, %edi
.LEHB37:
	call	_Znwm@PLT
.LEHE37:
	movq	%rax, %rbx
	movb	$-112, 144(%rax)
	movq	368(%rsp), %rsi
	movl	392(%rsp), %ecx
	movq	400(%rsp), %rdx
	jmp	.L2120
.L2476:
	movq	%r13, %rdi
	call	pthread_mutex_unlock@PLT
	leaq	88(%rbx), %rdi
	call	pthread_cond_signal@PLT
	jmp	.L2188
.L2477:
	movq	_ZGVZN4asio15system_categoryEvE8instance@GOTPCREL(%rip), %r12
	movzbl	(%r12), %eax
	testb	%al, %al
	je	.L2123
.L2432:
	movq	_ZZN4asio15system_categoryEvE8instance@GOTPCREL(%rip), %r8
.L2124:
	movl	$9, 24(%rbx)
	movq	%r8, 32(%rbx)
.L2126:
	movq	16(%rsp), %rax
	movq	40(%rax), %rax
	movq	40(%rax), %r12
	.byte	0x66
	leaq	_ZN4asio6detail15keyword_tss_ptrINS0_10call_stackINS0_15task_io_serviceENS0_27task_io_service_thread_infoEE7contextEE6value_E@tlsgd(%rip), %rdi
	.value	0x6666
	rex64
	call	__tls_get_addr@PLT
	movq	(%rax), %rax
	testq	%rax, %rax
	jne	.L2417
	jmp	.L2167
	.p2align 4,,10
	.p2align 3
.L2169:
	movq	16(%rax), %rax
	testq	%rax, %rax
	je	.L2167
.L2417:
	cmpq	(%rax), %r12
	jne	.L2169
.L2458:
	movq	8(%rax), %rax
	testq	%rax, %rax
	je	.L2167
	addq	$1, 24(%rax)
	movq	$0, (%rbx)
	cmpq	$0, 16(%rax)
	je	.L2172
	movq	16(%rax), %rdx
	movq	%rbx, (%rdx)
	movq	%rbx, 16(%rax)
	jmp	.L2178
.L2213:
	movq	$0, 8(%rsp)
	xorl	%r12d, %r12d
	jmp	.L2117
.L2190:
	movq	8(%rax), %rax
	testq	%rax, %rax
	je	.L2189
	addq	$1, 24(%rax)
	cmpq	$0, 16(%rax)
	movq	$0, (%r12)
	je	.L2194
	movq	16(%rax), %rdx
	movq	%r12, (%rdx)
	movq	%r12, 16(%rax)
	jmp	.L2188
.L2481:
	movq	%r12, %rdi
	call	pthread_mutex_unlock@PLT
	leaq	88(%rbp), %rdi
	call	pthread_cond_signal@PLT
	jmp	.L2081
.L2465:
	movq	_ZGVZN4asio15system_categoryEvE8instance@GOTPCREL(%rip), %rbp
	movzbl	0(%rbp), %eax
	testb	%al, %al
	je	.L2035
.L2424:
	movq	_ZZN4asio15system_categoryEvE8instance@GOTPCREL(%rip), %r8
.L2036:
	movl	$9, 24(%rbx)
	movq	%r8, 32(%rbx)
	.byte	0x66
	leaq	_ZN4asio6detail15keyword_tss_ptrINS0_10call_stackINS0_15task_io_serviceENS0_27task_io_service_thread_infoEE7contextEE6value_E@tlsgd(%rip), %rdi
	.value	0x6666
	rex64
	call	__tls_get_addr@PLT
	movq	40(%r14), %rbp
	movq	(%rax), %rax
	testq	%rax, %rax
	jne	.L2406
	jmp	.L2070
	.p2align 4,,10
	.p2align 3
.L2040:
	movq	16(%rax), %rax
	testq	%rax, %rax
	je	.L2070
.L2406:
	cmpq	(%rax), %rbp
	jne	.L2040
	jmp	.L2457
.L2195:
	movq	%r12, 200(%rbx)
	movq	%r12, 192(%rbx)
	jmp	.L2196
.L2466:
	.byte	0x66
	leaq	_ZN4asio6detail15keyword_tss_ptrINS0_10call_stackINS0_15task_io_serviceENS0_27task_io_service_thread_infoEE7contextEE6value_E@tlsgd(%rip), %rdi
	.value	0x6666
	rex64
	call	__tls_get_addr@PLT
	movq	40(%r14), %r12
	movq	(%rax), %rax
	testq	%rax, %rax
	jne	.L2407
	jmp	.L2051
	.p2align 4,,10
	.p2align 3
.L2053:
	movq	16(%rax), %rax
	testq	%rax, %rax
	je	.L2051
.L2407:
	cmpq	(%rax), %r12
	jne	.L2053
	movq	8(%rax), %rax
	testq	%rax, %rax
	je	.L2051
	addq	$1, 24(%rax)
	cmpq	$0, 16(%rax)
	movq	$0, (%rbx)
	je	.L2056
	movq	16(%rax), %rdx
	movq	%rbx, (%rdx)
	movq	%rbx, 16(%rax)
.L2057:
	movq	%rbp, %rdi
	call	pthread_mutex_unlock@PLT
	jmp	.L2081
.L2030:
	movq	%r13, %rdi
	movq	%rcx, 8(%rsp)
	call	__cxa_guard_acquire@PLT
	testl	%eax, %eax
	movq	8(%rsp), %rcx
	je	.L2423
	movq	%r13, %rdi
	movq	%rcx, 16(%rsp)
	call	__cxa_guard_release@PLT
	movq	_ZZN4asio15system_categoryEvE8instance@GOTPCREL(%rip), %r8
	movq	_ZN4asio6detail15system_categoryD1Ev@GOTPCREL(%rip), %rdi
	leaq	__dso_handle(%rip), %rdx
	movq	%r8, %rsi
	movq	%r8, 8(%rsp)
	call	__cxa_atexit@PLT
	movq	16(%rsp), %rcx
	movq	8(%rsp), %r8
	jmp	.L2031
.L2075:
	movq	%rbx, 16(%rax)
	movq	%rbx, 8(%rax)
	jmp	.L2081
.L2167:
	lock addq	$1, 184(%r12)
	leaq	48(%r12), %r13
	movq	%r13, %rdi
	call	pthread_mutex_lock@PLT
	movq	$0, (%rbx)
	cmpq	$0, 200(%r12)
	je	.L2173
	movq	200(%r12), %rax
	movq	%rbx, (%rax)
	movq	%rbx, 200(%r12)
.L2174:
	movq	136(%r12), %rax
	orq	$1, %rax
	cmpq	$1, %rax
	movq	%rax, 136(%r12)
	jne	.L2482
	cmpb	$0, 176(%r12)
	jne	.L2154
	movq	144(%r12), %rax
	testq	%rax, %rax
	je	.L2154
	leaq	88(%rax), %rdx
	movb	$1, 176(%r12)
	movl	$-2147483639, 240(%rsp)
	leaq	240(%rsp), %rcx
	movl	$3, %esi
	movq	%rdx, 244(%rsp)
	movl	88(%rax), %edx
	movl	96(%rax), %edi
	call	epoll_ctl@PLT
.L2154:
	movq	%r13, %rdi
	call	pthread_mutex_unlock@PLT
	jmp	.L2178
.L2107:
	movq	%rbp, 16(%rax)
	movq	%rbp, 8(%rax)
	jmp	.L2083
.L2076:
	movq	%rbx, 200(%rbp)
	movq	%rbx, 192(%rbp)
	jmp	.L2077
.L2194:
	movq	%r12, 16(%rax)
	movq	%r12, 8(%rax)
	jmp	.L2188
.L2066:
	movq	%rbx, 120(%rax)
	movq	%rbx, 112(%rax)
	jmp	.L2067
.L2035:
	movq	%rbp, %rdi
	call	__cxa_guard_acquire@PLT
	testl	%eax, %eax
	je	.L2424
	movq	%rbp, %rdi
	call	__cxa_guard_release@PLT
	movq	_ZZN4asio15system_categoryEvE8instance@GOTPCREL(%rip), %r8
	movq	_ZN4asio6detail15system_categoryD1Ev@GOTPCREL(%rip), %rdi
	leaq	__dso_handle(%rip), %rdx
	movq	%r8, %rsi
	movq	%r8, 8(%rsp)
	call	__cxa_atexit@PLT
	movq	8(%rsp), %r8
	jmp	.L2036
.L2051:
	lock addq	$1, 184(%r12)
	leaq	48(%r12), %r13
	movq	%r13, %rdi
	call	pthread_mutex_lock@PLT
	cmpq	$0, 200(%r12)
	movq	$0, (%rbx)
	je	.L2058
	movq	200(%r12), %rax
	movq	%rbx, (%rax)
	movq	%rbx, 200(%r12)
.L2059:
	movq	136(%r12), %rax
	orq	$1, %rax
	cmpq	$1, %rax
	movq	%rax, 136(%r12)
	jne	.L2483
	cmpb	$0, 176(%r12)
	jne	.L2062
	movq	144(%r12), %rax
	testq	%rax, %rax
	je	.L2062
	leaq	88(%rax), %rdx
	movb	$1, 176(%r12)
	movl	$-2147483639, 544(%rsp)
	leaq	544(%rsp), %rcx
	movl	$3, %esi
	movq	%rdx, 548(%rsp)
	movl	88(%rax), %edx
	movl	96(%rax), %edi
	call	epoll_ctl@PLT
.L2062:
	movq	%r13, %rdi
	call	pthread_mutex_unlock@PLT
	jmp	.L2057
.L2482:
	movq	%r13, %rdi
	call	pthread_mutex_unlock@PLT
	leaq	88(%r12), %rdi
	call	pthread_cond_signal@PLT
	jmp	.L2178
.L2478:
	movq	_ZGVZN4asio15system_categoryEvE8instance@GOTPCREL(%rip), %r13
	movzbl	0(%r13), %eax
	testb	%al, %al
	je	.L2132
.L2434:
	movq	_ZZN4asio15system_categoryEvE8instance@GOTPCREL(%rip), %r8
.L2133:
	movl	$9, 24(%rbx)
	movq	%r8, 32(%rbx)
	.byte	0x66
	leaq	_ZN4asio6detail15keyword_tss_ptrINS0_10call_stackINS0_15task_io_serviceENS0_27task_io_service_thread_infoEE7contextEE6value_E@tlsgd(%rip), %rdi
	.value	0x6666
	rex64
	call	__tls_get_addr@PLT
	movq	40(%r12), %r12
	movq	(%rax), %rax
	testq	%rax, %rax
	jne	.L2415
	jmp	.L2167
	.p2align 4,,10
	.p2align 3
.L2137:
	movq	16(%rax), %rax
	testq	%rax, %rax
	je	.L2167
.L2415:
	cmpq	(%rax), %r12
	jne	.L2137
	jmp	.L2458
.L2479:
	.byte	0x66
	leaq	_ZN4asio6detail15keyword_tss_ptrINS0_10call_stackINS0_15task_io_serviceENS0_27task_io_service_thread_infoEE7contextEE6value_E@tlsgd(%rip), %rdi
	.value	0x6666
	rex64
	call	__tls_get_addr@PLT
	movq	40(%r12), %r12
	movq	(%rax), %rax
	testq	%rax, %rax
	je	.L2148
	cmpq	%r12, (%rax)
	je	.L2149
.L2150:
	movq	16(%rax), %rax
	testq	%rax, %rax
	je	.L2148
	cmpq	(%rax), %r12
	jne	.L2150
.L2149:
	movq	8(%rax), %rax
	testq	%rax, %rax
	je	.L2148
	addq	$1, 24(%rax)
	cmpq	$0, 16(%rax)
	movq	$0, (%rbx)
	je	.L2153
	movq	16(%rax), %rdx
	movq	%rbx, (%rdx)
	movq	%rbx, 16(%rax)
	jmp	.L2154
.L2127:
	movq	_ZGVZN4asio15system_categoryEvE8instance@GOTPCREL(%rip), %rdi
	call	__cxa_guard_acquire@PLT
	testl	%eax, %eax
	je	.L2433
	movq	_ZGVZN4asio15system_categoryEvE8instance@GOTPCREL(%rip), %rdi
	call	__cxa_guard_release@PLT
	movq	_ZZN4asio15system_categoryEvE8instance@GOTPCREL(%rip), %r8
	movq	_ZN4asio6detail15system_categoryD1Ev@GOTPCREL(%rip), %rdi
	leaq	__dso_handle(%rip), %rdx
	movq	%r8, %rsi
	movq	%r8, 8(%rsp)
	call	__cxa_atexit@PLT
	movq	8(%rsp), %r8
	jmp	.L2128
.L2172:
	movq	%rbx, 16(%rax)
	movq	%rbx, 8(%rax)
	jmp	.L2178
.L2173:
	movq	%rbx, 200(%r12)
	movq	%rbx, 192(%r12)
	jmp	.L2174
.L2467:
	movq	%rbx, %rdi
.LEHB38:
	call	*48(%rbx)
.LEHE38:
	testb	%al, %al
	jne	.L2484
	movq	8(%r12), %rax
	movl	92(%rax), %edx
	testb	$4, %dl
	jne	.L2063
	orl	$4, %edx
	movq	%rax, 548(%rsp)
	leaq	544(%rsp), %rcx
	movl	%edx, 544(%rsp)
	movl	96(%r14), %edi
	movl	%r13d, %edx
	movl	$3, %esi
	call	epoll_ctl@PLT
	testl	%eax, %eax
	jne	.L2065
	movq	8(%r12), %rax
	movl	544(%rsp), %edx
	orl	%edx, 92(%rax)
	movq	8(%r12), %rax
	jmp	.L2063
.L2483:
	movq	%r13, %rdi
	call	pthread_mutex_unlock@PLT
	leaq	88(%r12), %rdi
	call	pthread_cond_signal@PLT
	jmp	.L2057
.L2026:
	movq	%rbp, %rdi
	call	__cxa_guard_acquire@PLT
	testl	%eax, %eax
	je	.L2422
	movq	%rbp, %rdi
	call	__cxa_guard_release@PLT
	movq	_ZZN4asio15system_categoryEvE8instance@GOTPCREL(%rip), %r8
	movq	_ZN4asio6detail15system_categoryD1Ev@GOTPCREL(%rip), %rdi
	leaq	__dso_handle(%rip), %rdx
	movq	%r8, %rsi
	movq	%r8, 8(%rsp)
	call	__cxa_atexit@PLT
	movq	8(%rsp), %r8
	jmp	.L2027
.L2163:
	movq	%rbx, 120(%rax)
	movq	%rbx, 112(%rax)
	jmp	.L2164
.L2132:
	movq	%r13, %rdi
	call	__cxa_guard_acquire@PLT
	testl	%eax, %eax
	je	.L2434
	movq	%r13, %rdi
	call	__cxa_guard_release@PLT
	movq	_ZZN4asio15system_categoryEvE8instance@GOTPCREL(%rip), %r8
	movq	_ZN4asio6detail15system_categoryD1Ev@GOTPCREL(%rip), %rdi
	leaq	__dso_handle(%rip), %rdx
	movq	%r8, %rsi
	movq	%r8, 8(%rsp)
	call	__cxa_atexit@PLT
	movq	8(%rsp), %r8
	jmp	.L2133
.L2056:
	movq	%rbx, 16(%rax)
	movq	%rbx, 8(%rax)
	jmp	.L2057
.L2058:
	movq	%rbx, 200(%r12)
	movq	%rbx, 192(%r12)
	jmp	.L2059
.L2148:
	lock addq	$1, 184(%r12)
	leaq	48(%r12), %r14
	movq	%r14, %rdi
	call	pthread_mutex_lock@PLT
	cmpq	$0, 200(%r12)
	movq	$0, (%rbx)
	je	.L2155
	movq	200(%r12), %rax
	movq	%rbx, (%rax)
	movq	%rbx, 200(%r12)
.L2156:
	movq	136(%r12), %rax
	orq	$1, %rax
	cmpq	$1, %rax
	movq	%rax, 136(%r12)
	jne	.L2485
	cmpb	$0, 176(%r12)
	jne	.L2159
	movq	144(%r12), %rax
	testq	%rax, %rax
	je	.L2159
	leaq	88(%rax), %rdx
	movb	$1, 176(%r12)
	movl	$-2147483639, 240(%rsp)
	leaq	240(%rsp), %rcx
	movl	$3, %esi
	movq	%rdx, 244(%rsp)
	movl	88(%rax), %edx
	movl	96(%rax), %edi
	call	epoll_ctl@PLT
.L2159:
	movq	%r14, %rdi
	call	pthread_mutex_unlock@PLT
	jmp	.L2154
.L2484:
	movq	%rbp, %rdi
	call	pthread_mutex_unlock@PLT
	movq	40(%r14), %rdi
	movl	$1, %edx
	movq	%rbx, %rsi
	call	_ZN4asio6detail15task_io_service25post_immediate_completionEPNS0_25task_io_service_operationEb@PLT
	jmp	.L2081
.L2480:
	movq	%rbx, %rdi
.LEHB39:
	call	*48(%rbx)
.LEHE39:
	testb	%al, %al
	jne	.L2486
	movq	8(%r14), %rax
	movl	92(%rax), %edx
	testb	$4, %dl
	jne	.L2160
	orl	$4, %edx
	movq	%rax, 244(%rsp)
	leaq	240(%rsp), %rcx
	movl	%edx, 240(%rsp)
	movl	96(%r12), %edi
	movl	%r15d, %edx
	movl	$3, %esi
	call	epoll_ctl@PLT
	testl	%eax, %eax
	jne	.L2162
	movq	8(%r14), %rax
	movl	240(%rsp), %edx
	orl	%edx, 92(%rax)
	movq	8(%r14), %rax
	jmp	.L2160
.L2485:
	movq	%r14, %rdi
	call	pthread_mutex_unlock@PLT
	leaq	88(%r12), %rdi
	call	pthread_cond_signal@PLT
	jmp	.L2154
.L2155:
	movq	%rbx, 200(%r12)
	movq	%rbx, 192(%r12)
	jmp	.L2156
.L2486:
	movq	%r13, %rdi
	call	pthread_mutex_unlock@PLT
	movq	40(%r12), %rdi
	movl	$1, %edx
	movq	%rbx, %rsi
	call	_ZN4asio6detail15task_io_service25post_immediate_completionEPNS0_25task_io_service_operationEb@PLT
	jmp	.L2178
.L2123:
	movq	%r12, %rdi
	call	__cxa_guard_acquire@PLT
	testl	%eax, %eax
	je	.L2432
	movq	%r12, %rdi
	call	__cxa_guard_release@PLT
	movq	_ZZN4asio15system_categoryEvE8instance@GOTPCREL(%rip), %r8
	movq	_ZN4asio6detail15system_categoryD1Ev@GOTPCREL(%rip), %rdi
	leaq	__dso_handle(%rip), %rdx
	movq	%r8, %rsi
	movq	%r8, 8(%rsp)
	call	__cxa_atexit@PLT
	movq	8(%rsp), %r8
	jmp	.L2124
.L2153:
	movq	%rbx, 16(%rax)
	movq	%rbx, 8(%rax)
	jmp	.L2154
.L2462:
	call	__stack_chk_fail@PLT
.L2215:
	movq	%rax, %rbx
.L2185:
	leaq	40(%rsp), %rdi
	leaq	48(%rsp), %rsi
	sfence
	call	_ZN4asio6detail19descriptor_write_opINS_15const_buffers_1ENS0_8write_opINS_17basic_serial_portINS_19serial_port_serviceEEES2_NS0_14transfer_all_tENS0_15wrapped_handlerINS_10io_service6strandEZN7asiopal13SerialChannel14BeginWriteImplERKN7openpal6RSliceEEUlRKSt10error_codemE_NS0_26is_continuation_if_runningEEEEEE3ptr5resetEv.isra.165
	movq	%rbx, %rdi
.LEHB40:
	call	_Unwind_Resume@PLT
.LEHE40:
.L2217:
	movq	%rbp, %rdi
	movq	%rax, %rbx
	call	pthread_mutex_unlock@PLT
	leaq	112(%rsp), %rsi
	leaq	104(%rsp), %rdi
	call	_ZN4asio6detail19descriptor_write_opINS_15const_buffers_1ENS0_8write_opINS_17basic_serial_portINS_19serial_port_serviceEEES2_NS0_14transfer_all_tENS0_15wrapped_handlerINS_10io_service6strandEZN7asiopal13SerialChannel14BeginWriteImplERKN7openpal6RSliceEEUlRKSt10error_codemE_NS0_26is_continuation_if_runningEEEEEE3ptr5resetEv.isra.165
.L2069:
	sfence
	jmp	.L2185
.L2216:
	movq	%rax, %rbx
	jmp	.L2069
.L2162:
	call	_ZN4asio15system_categoryEv@PLT
	movq	%rax, %r14
	call	__errno_location@PLT
	movl	(%rax), %eax
	movq	%r14, 32(%rbx)
	movl	$1, %edx
	movq	%rbx, %rsi
	movl	%eax, 24(%rbx)
	movq	40(%r12), %rdi
	call	_ZN4asio6detail15task_io_service25post_immediate_completionEPNS0_25task_io_service_operationEb@PLT
	jmp	.L2154
.L2219:
	movq	%r13, %rdi
	movq	%rax, %rbx
	call	pthread_mutex_unlock@PLT
	leaq	176(%rsp), %rsi
	leaq	168(%rsp), %rdi
	call	_ZN4asio6detail19descriptor_write_opINS_15const_buffers_1ENS0_8write_opINS_17basic_serial_portINS_19serial_port_serviceEEES2_NS0_14transfer_all_tENS0_15wrapped_handlerINS_10io_service6strandEZN7asiopal13SerialChannel14BeginWriteImplERKN7openpal6RSliceEEUlRKSt10error_codemE_NS0_26is_continuation_if_runningEEEEEE3ptr5resetEv.isra.165
.L2166:
	leaq	144(%rsp), %rsi
	leaq	136(%rsp), %rdi
	sfence
	call	_ZN4asio6detail18completion_handlerINS0_17rewrapped_handlerINS0_7binder2INS0_8write_opINS_17basic_serial_portINS_19serial_port_serviceEEENS_15const_buffers_1ENS0_14transfer_all_tENS0_15wrapped_handlerINS_10io_service6strandEZN7asiopal13SerialChannel14BeginWriteImplERKN7openpal6RSliceEEUlRKSt10error_codemE_NS0_26is_continuation_if_runningEEEEESJ_mEESM_EEE3ptr5resetEv.isra.106
	leaq	192(%rsp), %rdi
	call	_ZN4asio6detail14strand_service16on_dispatch_exitD1Ev@PLT
	.byte	0x66
	leaq	_ZN4asio6detail15keyword_tss_ptrINS0_10call_stackINS0_14strand_service11strand_implEhE7contextEE6value_E@tlsgd(%rip), %rdi
	.value	0x6666
	rex64
	call	__tls_get_addr@PLT
	movq	304(%rsp), %rdx
	leaq	80(%rsp), %rsi
	leaq	72(%rsp), %rdi
	movq	%rdx, (%rax)
	call	_ZN4asio6detail18completion_handlerINS0_17rewrapped_handlerINS0_7binder2INS0_8write_opINS_17basic_serial_portINS_19serial_port_serviceEEENS_15const_buffers_1ENS0_14transfer_all_tENS0_15wrapped_handlerINS_10io_service6strandEZN7asiopal13SerialChannel14BeginWriteImplERKN7openpal6RSliceEEUlRKSt10error_codemE_NS0_26is_continuation_if_runningEEEEESJ_mEESM_EEE3ptr5resetEv.isra.106
	jmp	.L2185
.L2065:
	call	_ZN4asio15system_categoryEv@PLT
	movq	%rax, %r12
	call	__errno_location@PLT
	movl	(%rax), %eax
	movq	%r12, 32(%rbx)
	movl	$1, %edx
	movq	%rbx, %rsi
	movl	%eax, 24(%rbx)
	movq	40(%r14), %rdi
	call	_ZN4asio6detail15task_io_service25post_immediate_completionEPNS0_25task_io_service_operationEb@PLT
	jmp	.L2057
.L2218:
	movq	%rax, %rbx
	jmp	.L2166
	.cfi_endproc
.LFE9029:
	.section	.gcc_except_table
.LLSDA9029:
	.byte	0xff
	.byte	0xff
	.byte	0x1
	.uleb128 .LLSDACSE9029-.LLSDACSB9029
.LLSDACSB9029:
	.uleb128 .LEHB33-.LFB9029
	.uleb128 .LEHE33-.LEHB33
	.uleb128 .L2216-.LFB9029
	.uleb128 0
	.uleb128 .LEHB34-.LFB9029
	.uleb128 .LEHE34-.LEHB34
	.uleb128 .L2215-.LFB9029
	.uleb128 0
	.uleb128 .LEHB35-.LFB9029
	.uleb128 .LEHE35-.LEHB35
	.uleb128 .L2218-.LFB9029
	.uleb128 0
	.uleb128 .LEHB36-.LFB9029
	.uleb128 .LEHE36-.LEHB36
	.uleb128 .L2216-.LFB9029
	.uleb128 0
	.uleb128 .LEHB37-.LFB9029
	.uleb128 .LEHE37-.LEHB37
	.uleb128 .L2218-.LFB9029
	.uleb128 0
	.uleb128 .LEHB38-.LFB9029
	.uleb128 .LEHE38-.LEHB38
	.uleb128 .L2217-.LFB9029
	.uleb128 0
	.uleb128 .LEHB39-.LFB9029
	.uleb128 .LEHE39-.LEHB39
	.uleb128 .L2219-.LFB9029
	.uleb128 0
	.uleb128 .LEHB40-.LFB9029
	.uleb128 .LEHE40-.LEHB40
	.uleb128 0
	.uleb128 0
.LLSDACSE9029:
	.text
	.size	_ZN4asio6detail19descriptor_write_opINS_15const_buffers_1ENS0_8write_opINS_17basic_serial_portINS_19serial_port_serviceEEES2_NS0_14transfer_all_tENS0_15wrapped_handlerINS_10io_service6strandEZN7asiopal13SerialChannel14BeginWriteImplERKN7openpal6RSliceEEUlRKSt10error_codemE_NS0_26is_continuation_if_runningEEEEEE11do_completeEPNS0_15task_io_serviceEPNS0_25task_io_service_operationESJ_m, .-_ZN4asio6detail19descriptor_write_opINS_15const_buffers_1ENS0_8write_opINS_17basic_serial_portINS_19serial_port_serviceEEES2_NS0_14transfer_all_tENS0_15wrapped_handlerINS_10io_service6strandEZN7asiopal13SerialChannel14BeginWriteImplERKN7openpal6RSliceEEUlRKSt10error_codemE_NS0_26is_continuation_if_runningEEEEEE11do_completeEPNS0_15task_io_serviceEPNS0_25task_io_service_operationESJ_m
	.p2align 4,,15
	.type	_ZN4asio6detail18completion_handlerINS0_17rewrapped_handlerINS0_7binder2INS0_15wrapped_handlerINS_10io_service6strandEZN7asiopal13SerialChannel13BeginReadImplEN7openpal6WSliceEEUlRKSt10error_codemE_NS0_26is_continuation_if_runningEEESB_mEESE_EEE11do_completeEPNS0_15task_io_serviceEPNS0_25task_io_service_operationESD_m, @function
_ZN4asio6detail18completion_handlerINS0_17rewrapped_handlerINS0_7binder2INS0_15wrapped_handlerINS_10io_service6strandEZN7asiopal13SerialChannel13BeginReadImplEN7openpal6WSliceEEUlRKSt10error_codemE_NS0_26is_continuation_if_runningEEESB_mEESE_EEE11do_completeEPNS0_15task_io_serviceEPNS0_25task_io_service_operationESD_m:
.LFB9109:
	.cfi_startproc
	.cfi_personality 0x9b,DW.ref.__gxx_personality_v0
	.cfi_lsda 0x1b,.LLSDA9109
	pushq	%r13
	.cfi_def_cfa_offset 16
	.cfi_offset 13, -16
	pushq	%r12
	.cfi_def_cfa_offset 24
	.cfi_offset 12, -24
	pushq	%rbp
	.cfi_def_cfa_offset 32
	.cfi_offset 6, -32
	pushq	%rbx
	.cfi_def_cfa_offset 40
	.cfi_offset 3, -40
	movq	%rdi, %rbp
	movq	%rsi, %rbx
	subq	$296, %rsp
	.cfi_def_cfa_offset 336
	movq	%fs:40, %rax
	movq	%rax, 280(%rsp)
	xorl	%eax, %eax
	movq	24(%rsi), %rax
	movq	%rsi, 24(%rsp)
	movdqu	32(%rsi), %xmm0
	movq	$0, 32(%rsp)
	movq	%rax, 224(%rsp)
	movq	48(%rsi), %rax
	movups	%xmm0, 232(%rsp)
	movq	%rax, 248(%rsp)
	movq	72(%rsi), %rax
	movdqu	56(%rsi), %xmm0
	movq	%rax, 272(%rsp)
	leaq	224(%rsp), %rax
	movaps	%xmm0, 256(%rsp)
	movq	%rax, 16(%rsp)
	.byte	0x66
	leaq	_ZN4asio6detail15keyword_tss_ptrINS0_10call_stackINS0_15task_io_serviceENS0_27task_io_service_thread_infoEE7contextEE6value_E@tlsgd(%rip), %rdi
	.value	0x6666
	rex64
	call	__tls_get_addr@PLT
	movq	(%rax), %rax
	testq	%rax, %rax
	je	.L2488
	movq	8(%rax), %rax
	testq	%rax, %rax
	je	.L2488
	cmpq	$0, (%rax)
	je	.L2663
.L2488:
	movq	%rbx, %rdi
	call	_ZdlPv@PLT
.L2489:
	testq	%rbp, %rbp
	movq	$0, 24(%rsp)
	je	.L2487
	movq	248(%rsp), %rax
	movq	240(%rsp), %rbx
	movq	%rax, 176(%rsp)
	movl	256(%rsp), %eax
	movl	%eax, 184(%rsp)
	movq	264(%rsp), %rax
	movq	%rax, 192(%rsp)
	movq	272(%rsp), %rax
	movq	%rax, 200(%rsp)
	.byte	0x66
	leaq	_ZN4asio6detail15keyword_tss_ptrINS0_10call_stackINS0_14strand_service11strand_implEhE7contextEE6value_E@tlsgd(%rip), %rdi
	.value	0x6666
	rex64
	call	__tls_get_addr@PLT
	movq	(%rax), %rax
	testq	%rax, %rax
	jne	.L2652
	jmp	.L2491
	.p2align 4,,10
	.p2align 3
.L2493:
	movq	16(%rax), %rax
	testq	%rax, %rax
	je	.L2491
.L2652:
	cmpq	(%rax), %rbx
	jne	.L2493
	cmpq	$0, 8(%rax)
	je	.L2491
	lfence
	movq	176(%rsp), %rax
	movq	200(%rsp), %rdx
	movq	40(%rax), %rdi
	movb	$0, 57(%rax)
	testq	%rdi, %rdi
	je	.L2498
	cmpb	$0, 56(%rax)
	je	.L2664
.L2498:
	sfence
.L2497:
	sfence
	cmpq	$0, 32(%rsp)
	movq	24(%rsp), %rbx
	je	.L2559
	movq	$0, 32(%rsp)
.L2559:
	testq	%rbx, %rbx
	je	.L2487
	.byte	0x66
	leaq	_ZN4asio6detail15keyword_tss_ptrINS0_10call_stackINS0_15task_io_serviceENS0_27task_io_service_thread_infoEE7contextEE6value_E@tlsgd(%rip), %rdi
	.value	0x6666
	rex64
	call	__tls_get_addr@PLT
	movq	(%rax), %rax
	testq	%rax, %rax
	je	.L2561
	movq	8(%rax), %rax
	testq	%rax, %rax
	je	.L2561
	cmpq	$0, (%rax)
	je	.L2665
.L2561:
	movq	%rbx, %rdi
	call	_ZdlPv@PLT
.L2487:
	movq	280(%rsp), %rax
	xorq	%fs:40, %rax
	jne	.L2666
	addq	$296, %rsp
	.cfi_remember_state
	.cfi_def_cfa_offset 40
	popq	%rbx
	.cfi_def_cfa_offset 32
	popq	%rbp
	.cfi_def_cfa_offset 24
	popq	%r12
	.cfi_def_cfa_offset 16
	popq	%r13
	.cfi_def_cfa_offset 8
	ret
	.p2align 4,,10
	.p2align 3
.L2491:
	.cfi_restore_state
	pxor	%xmm0, %xmm0
	leaq	176(%rsp), %rax
	movq	232(%rsp), %r12
	movq	%rax, 48(%rsp)
	movups	%xmm0, 56(%rsp)
	.byte	0x66
	leaq	_ZN4asio6detail15keyword_tss_ptrINS0_10call_stackINS0_15task_io_serviceENS0_27task_io_service_thread_infoEE7contextEE6value_E@tlsgd(%rip), %rdi
	.value	0x6666
	rex64
	call	__tls_get_addr@PLT
	movq	(%rax), %rax
	testq	%rax, %rax
	je	.L2499
	movq	8(%rax), %rax
	testq	%rax, %rax
	je	.L2499
	movq	(%rax), %rbx
	testq	%rbx, %rbx
	je	.L2499
	movq	$0, (%rax)
	movzbl	(%rbx), %eax
	cmpb	$55, %al
	jbe	.L2500
	movb	%al, 56(%rbx)
.L2501:
	movdqa	176(%rsp), %xmm0
	leaq	_ZN4asio6detail18completion_handlerINS0_7binder2IZN7asiopal13SerialChannel13BeginReadImplEN7openpal6WSliceEEUlRKSt10error_codemE_S7_mEEE11do_completeEPNS0_15task_io_serviceEPNS0_25task_io_service_operationES9_m(%rip), %rax
	movq	%rbx, 56(%rsp)
	movl	$0, 16(%rbx)
	movups	%xmm0, 24(%rbx)
	movq	$0, (%rbx)
	movq	%rax, 8(%rbx)
	movdqa	192(%rsp), %xmm0
	movq	%rbx, 64(%rsp)
	movups	%xmm0, 40(%rbx)
	movq	40(%r12), %rbp
	.byte	0x66
	leaq	_ZN4asio6detail15keyword_tss_ptrINS0_10call_stackINS0_15task_io_serviceENS0_27task_io_service_thread_infoEE7contextEE6value_E@tlsgd(%rip), %rdi
	.value	0x6666
	rex64
	call	__tls_get_addr@PLT
	movq	(%rax), %rax
	testq	%rax, %rax
	jne	.L2653
	jmp	.L2506
	.p2align 4,,10
	.p2align 3
.L2503:
	movq	16(%rax), %rax
	testq	%rax, %rax
	je	.L2506
.L2653:
	cmpq	(%rax), %rbp
	jne	.L2503
	movq	8(%rax), %rbp
	movq	240(%rsp), %rax
	leaq	24(%rax), %rdi
	call	pthread_mutex_lock@PLT
	testq	%rbp, %rbp
	je	.L2505
	movq	240(%rsp), %rax
	cmpb	$0, 64(%rax)
	leaq	24(%rax), %rdi
	je	.L2667
.L2508:
	cmpq	$0, 80(%rax)
	movq	$0, (%rbx)
	je	.L2512
	movq	80(%rax), %rdx
	movq	%rbx, (%rdx)
	movq	%rbx, 80(%rax)
.L2662:
	call	pthread_mutex_unlock@PLT
	jmp	.L2497
	.p2align 4,,10
	.p2align 3
.L2663:
	movzbl	80(%rbx), %edx
	movb	%dl, (%rbx)
	movq	%rbx, (%rax)
	jmp	.L2489
.L2500:
	movq	%rbx, %rdi
	call	_ZdlPv@PLT
.L2499:
	movl	$57, %edi
.LEHB41:
	call	_Znwm@PLT
.LEHE41:
	movq	%rax, %rbx
	movb	$56, 56(%rax)
	jmp	.L2501
	.p2align 4,,10
	.p2align 3
.L2664:
	movq	(%rdi), %rax
	leaq	184(%rsp), %rsi
.LEHB42:
	call	*16(%rax)
.LEHE42:
	jmp	.L2498
	.p2align 4,,10
	.p2align 3
.L2665:
	movzbl	80(%rbx), %edx
	movb	%dl, (%rbx)
	movq	%rbx, (%rax)
	jmp	.L2487
	.p2align 4,,10
	.p2align 3
.L2506:
	movq	240(%rsp), %rax
	leaq	24(%rax), %rdi
	call	pthread_mutex_lock@PLT
.L2505:
	movq	240(%rsp), %rax
	cmpb	$0, 64(%rax)
	leaq	24(%rax), %rdi
	jne	.L2508
	movb	$1, 64(%rax)
	call	pthread_mutex_unlock@PLT
	movq	240(%rsp), %rbp
	movq	$0, (%rbx)
	cmpq	$0, 96(%rbp)
	je	.L2515
	movq	96(%rbp), %rax
	movq	%rbx, (%rax)
	movq	%rbx, 96(%rbp)
.L2516:
	movq	40(%r12), %rbx
	cmpb	$0, 40(%rbx)
	je	.L2517
	.byte	0x66
	leaq	_ZN4asio6detail15keyword_tss_ptrINS0_10call_stackINS0_15task_io_serviceENS0_27task_io_service_thread_infoEE7contextEE6value_E@tlsgd(%rip), %rdi
	.value	0x6666
	rex64
	call	__tls_get_addr@PLT
	movq	(%rax), %rax
	testq	%rax, %rax
	jne	.L2654
	jmp	.L2517
	.p2align 4,,10
	.p2align 3
.L2519:
	movq	16(%rax), %rax
	testq	%rax, %rax
	je	.L2517
.L2654:
	cmpq	(%rax), %rbx
	jne	.L2519
	movq	8(%rax), %rax
	testq	%rax, %rax
	je	.L2517
	addq	$1, 24(%rax)
	cmpq	$0, 16(%rax)
	movq	$0, 0(%rbp)
	je	.L2522
	movq	16(%rax), %rdx
	movq	%rbp, (%rdx)
	movq	%rbp, 16(%rax)
	jmp	.L2497
.L2667:
	movb	$1, 64(%rax)
	call	pthread_mutex_unlock@PLT
	movq	240(%rsp), %rbp
	movq	64(%rsp), %rbx
	movq	$0, 56(%rsp)
	movq	$0, 64(%rsp)
	movq	%rbp, 80(%rsp)
	.byte	0x66
	leaq	_ZN4asio6detail15keyword_tss_ptrINS0_10call_stackINS0_14strand_service11strand_implEhE7contextEE6value_E@tlsgd(%rip), %rdi
	.value	0x6666
	rex64
	call	__tls_get_addr@PLT
	movdqu	24(%rbx), %xmm0
	movq	(%rax), %rdx
	movq	40(%r12), %r12
	movaps	%xmm0, 144(%rsp)
	movq	%rbp, 8(%rsp)
	leaq	144(%rsp), %rbp
	movq	%rbx, 120(%rsp)
	movq	%rdx, 96(%rsp)
	leaq	80(%rsp), %rdx
	movq	%r12, (%rsp)
	movdqu	40(%rbx), %xmm0
	movq	%rdx, (%rax)
	movq	%rdx, 88(%rsp)
	movaps	%xmm0, 160(%rsp)
	movq	%rbp, 112(%rsp)
	movq	$0, 128(%rsp)
	.byte	0x66
	leaq	_ZN4asio6detail15keyword_tss_ptrINS0_10call_stackINS0_15task_io_serviceENS0_27task_io_service_thread_infoEE7contextEE6value_E@tlsgd(%rip), %rdi
	.value	0x6666
	rex64
	call	__tls_get_addr@PLT
	movq	(%rax), %rax
	testq	%rax, %rax
	je	.L2510
	movq	8(%rax), %rax
	testq	%rax, %rax
	je	.L2510
	cmpq	$0, (%rax)
	je	.L2668
.L2510:
	movq	%rbx, %rdi
	call	_ZdlPv@PLT
.L2528:
	testq	%r12, %r12
	movq	$0, 120(%rsp)
	je	.L2529
	movq	144(%rsp), %rax
	movq	168(%rsp), %rdx
	movq	40(%rax), %rdi
	movb	$0, 57(%rax)
	testq	%rdi, %rdi
	je	.L2533
	cmpb	$0, 56(%rax)
	je	.L2669
.L2533:
	sfence
	cmpq	$0, 128(%rsp)
	je	.L2670
	movq	120(%rsp), %rbx
	movq	$0, 128(%rsp)
.L2534:
	testq	%rbx, %rbx
	je	.L2529
	.byte	0x66
	leaq	_ZN4asio6detail15keyword_tss_ptrINS0_10call_stackINS0_15task_io_serviceENS0_27task_io_service_thread_infoEE7contextEE6value_E@tlsgd(%rip), %rdi
	.value	0x6666
	rex64
	call	__tls_get_addr@PLT
	movq	(%rax), %rax
	testq	%rax, %rax
	je	.L2535
	movq	8(%rax), %rax
	testq	%rax, %rax
	je	.L2535
	cmpq	$0, (%rax)
	je	.L2671
.L2535:
	movq	%rbx, %rdi
	call	_ZdlPv@PLT
.L2529:
	movq	8(%rsp), %rax
	leaq	24(%rax), %rdi
	call	pthread_mutex_lock@PLT
	movq	8(%rsp), %rdi
	movq	72(%rdi), %rbx
	testq	%rbx, %rbx
	je	.L2672
	movq	96(%rdi), %rax
	testq	%rax, %rax
	je	.L2540
	movq	%rbx, (%rax)
	movq	88(%rdi), %rbx
.L2541:
	movq	80(%rdi), %rax
	movq	$0, 72(%rdi)
	movq	$0, 80(%rdi)
	movq	%rax, 96(%rdi)
.L2537:
	testq	%rbx, %rbx
	setne	64(%rdi)
	addq	$24, %rdi
	call	pthread_mutex_unlock@PLT
	testq	%rbx, %rbx
	jne	.L2673
.L2542:
	.byte	0x66
	leaq	_ZN4asio6detail15keyword_tss_ptrINS0_10call_stackINS0_14strand_service11strand_implEhE7contextEE6value_E@tlsgd(%rip), %rdi
	.value	0x6666
	rex64
	call	__tls_get_addr@PLT
	cmpq	$0, 64(%rsp)
	movq	96(%rsp), %rdx
	movq	%rdx, (%rax)
	je	.L2661
	movq	$0, 64(%rsp)
.L2661:
	movq	56(%rsp), %rbx
	testq	%rbx, %rbx
	je	.L2497
	.byte	0x66
	leaq	_ZN4asio6detail15keyword_tss_ptrINS0_10call_stackINS0_15task_io_serviceENS0_27task_io_service_thread_infoEE7contextEE6value_E@tlsgd(%rip), %rdi
	.value	0x6666
	rex64
	call	__tls_get_addr@PLT
	movq	(%rax), %rax
	testq	%rax, %rax
	je	.L2557
	movq	8(%rax), %rax
	testq	%rax, %rax
	je	.L2557
	cmpq	$0, (%rax)
	je	.L2674
.L2557:
	movq	%rbx, %rdi
	call	_ZdlPv@PLT
	jmp	.L2497
.L2669:
	movq	(%rdi), %rax
	leaq	8(%rbp), %rsi
.LEHB43:
	call	*16(%rax)
.LEHE43:
	jmp	.L2533
.L2515:
	movq	%rbx, 96(%rbp)
	movq	%rbx, 88(%rbp)
	jmp	.L2516
.L2671:
	movzbl	56(%rbx), %edx
	movb	%dl, (%rbx)
	movq	%rbx, (%rax)
	jmp	.L2529
.L2668:
	movzbl	56(%rbx), %edx
	movb	%dl, (%rbx)
	movq	%rbx, (%rax)
	jmp	.L2528
.L2673:
	movq	(%rsp), %rbx
	movq	8(%rsp), %r12
	cmpb	$0, 40(%rbx)
	je	.L2543
	.byte	0x66
	leaq	_ZN4asio6detail15keyword_tss_ptrINS0_10call_stackINS0_15task_io_serviceENS0_27task_io_service_thread_infoEE7contextEE6value_E@tlsgd(%rip), %rdi
	.value	0x6666
	rex64
	call	__tls_get_addr@PLT
	movq	(%rax), %rax
	testq	%rax, %rax
	je	.L2543
	cmpq	%rbx, (%rax)
	jne	.L2545
	jmp	.L2544
	.p2align 4,,10
	.p2align 3
.L2656:
	cmpq	(%rax), %rbx
	je	.L2544
.L2545:
	movq	16(%rax), %rax
	testq	%rax, %rax
	jne	.L2656
.L2543:
	lock addq	$1, 184(%rbx)
	leaq	48(%rbx), %r13
	movq	%r13, %rdi
	call	pthread_mutex_lock@PLT
	cmpq	$0, 200(%rbx)
	movq	$0, (%r12)
	je	.L2549
	movq	200(%rbx), %rax
	movq	%r12, (%rax)
	movq	%r12, 200(%rbx)
.L2550:
	movq	136(%rbx), %rax
	orq	$1, %rax
	cmpq	$1, %rax
	movq	%rax, 136(%rbx)
	jne	.L2675
	cmpb	$0, 176(%rbx)
	jne	.L2553
	movq	144(%rbx), %rax
	testq	%rax, %rax
	je	.L2553
	leaq	88(%rax), %rdx
	movb	$1, 176(%rbx)
	movl	$-2147483639, 144(%rsp)
	movq	%rbp, %rcx
	movl	$3, %esi
	movq	%rdx, 148(%rsp)
	movl	88(%rax), %edx
	movl	96(%rax), %edi
	call	epoll_ctl@PLT
.L2553:
	movq	%r13, %rdi
	call	pthread_mutex_unlock@PLT
	jmp	.L2542
.L2517:
	lock addq	$1, 184(%rbx)
	leaq	48(%rbx), %r12
	movq	%r12, %rdi
	call	pthread_mutex_lock@PLT
	cmpq	$0, 200(%rbx)
	movq	$0, 0(%rbp)
	je	.L2523
	movq	200(%rbx), %rax
	movq	%rbp, (%rax)
	movq	%rbp, 200(%rbx)
.L2524:
	movq	136(%rbx), %rax
	orq	$1, %rax
	cmpq	$1, %rax
	movq	%rax, 136(%rbx)
	jne	.L2676
	cmpb	$0, 176(%rbx)
	jne	.L2527
	movq	144(%rbx), %rax
	testq	%rax, %rax
	je	.L2527
	leaq	88(%rax), %rdx
	movb	$1, 176(%rbx)
	movl	$-2147483639, 144(%rsp)
	leaq	144(%rsp), %rcx
	movl	$3, %esi
	movq	%rdx, 148(%rsp)
	movl	88(%rax), %edx
	movl	96(%rax), %edi
	call	epoll_ctl@PLT
.L2527:
	movq	%r12, %rdi
	jmp	.L2662
.L2512:
	movq	%rbx, 80(%rax)
	movq	%rbx, 72(%rax)
	jmp	.L2662
.L2672:
	movq	88(%rdi), %rbx
	jmp	.L2537
.L2674:
	movzbl	56(%rbx), %edx
	movb	%dl, (%rbx)
	movq	%rbx, (%rax)
	jmp	.L2497
.L2670:
	movq	120(%rsp), %rbx
	jmp	.L2534
.L2540:
	movq	%rbx, 88(%rdi)
	jmp	.L2541
.L2676:
	movq	%r12, %rdi
	call	pthread_mutex_unlock@PLT
	leaq	88(%rbx), %rdi
	call	pthread_cond_signal@PLT
	jmp	.L2497
.L2675:
	movq	%r13, %rdi
	call	pthread_mutex_unlock@PLT
	leaq	88(%rbx), %rdi
	call	pthread_cond_signal@PLT
	jmp	.L2542
.L2523:
	movq	%rbp, 200(%rbx)
	movq	%rbp, 192(%rbx)
	jmp	.L2524
.L2544:
	movq	8(%rax), %rax
	testq	%rax, %rax
	je	.L2543
	addq	$1, 24(%rax)
	cmpq	$0, 16(%rax)
	movq	$0, (%r12)
	je	.L2548
	movq	16(%rax), %rdx
	movq	%r12, (%rdx)
	movq	%r12, 16(%rax)
	jmp	.L2542
.L2549:
	movq	%r12, 200(%rbx)
	movq	%r12, 192(%rbx)
	jmp	.L2550
.L2522:
	movq	%rbp, 16(%rax)
	movq	%rbp, 8(%rax)
	jmp	.L2497
.L2548:
	movq	%r12, 16(%rax)
	movq	%r12, 8(%rax)
	jmp	.L2542
.L2666:
	call	__stack_chk_fail@PLT
.L2566:
	leaq	128(%rsp), %rsi
	leaq	120(%rsp), %rdi
	movq	%rax, %rbx
	sfence
	call	_ZN4asio6detail18completion_handlerINS0_7binder2IZN7asiopal13SerialChannel13BeginReadImplEN7openpal6WSliceEEUlRKSt10error_codemE_S7_mEEE3ptr5resetEv.isra.95
	movq	%rsp, %rdi
	call	_ZN4asio6detail14strand_service16on_dispatch_exitD1Ev@PLT
	.byte	0x66
	leaq	_ZN4asio6detail15keyword_tss_ptrINS0_10call_stackINS0_14strand_service11strand_implEhE7contextEE6value_E@tlsgd(%rip), %rdi
	.value	0x6666
	rex64
	call	__tls_get_addr@PLT
	movq	96(%rsp), %rdx
	leaq	64(%rsp), %rsi
	leaq	56(%rsp), %rdi
	movq	%rdx, (%rax)
	call	_ZN4asio6detail18completion_handlerINS0_7binder2IZN7asiopal13SerialChannel13BeginReadImplEN7openpal6WSliceEEUlRKSt10error_codemE_S7_mEEE3ptr5resetEv.isra.95
.L2539:
	leaq	24(%rsp), %rdi
	leaq	32(%rsp), %rsi
	sfence
	call	_ZN4asio6detail18completion_handlerINS0_17rewrapped_handlerINS0_7binder2INS0_15wrapped_handlerINS_10io_service6strandEZN7asiopal13SerialChannel13BeginReadImplEN7openpal6WSliceEEUlRKSt10error_codemE_NS0_26is_continuation_if_runningEEESB_mEESE_EEE3ptr5resetEv.isra.98
	movq	%rbx, %rdi
.LEHB44:
	call	_Unwind_Resume@PLT
.LEHE44:
.L2565:
	sfence
	movq	%rax, %rbx
	jmp	.L2539
.L2564:
	movq	%rax, %rbx
	jmp	.L2539
	.cfi_endproc
.LFE9109:
	.section	.gcc_except_table
.LLSDA9109:
	.byte	0xff
	.byte	0xff
	.byte	0x1
	.uleb128 .LLSDACSE9109-.LLSDACSB9109
.LLSDACSB9109:
	.uleb128 .LEHB41-.LFB9109
	.uleb128 .LEHE41-.LEHB41
	.uleb128 .L2564-.LFB9109
	.uleb128 0
	.uleb128 .LEHB42-.LFB9109
	.uleb128 .LEHE42-.LEHB42
	.uleb128 .L2565-.LFB9109
	.uleb128 0
	.uleb128 .LEHB43-.LFB9109
	.uleb128 .LEHE43-.LEHB43
	.uleb128 .L2566-.LFB9109
	.uleb128 0
	.uleb128 .LEHB44-.LFB9109
	.uleb128 .LEHE44-.LEHB44
	.uleb128 0
	.uleb128 0
.LLSDACSE9109:
	.text
	.size	_ZN4asio6detail18completion_handlerINS0_17rewrapped_handlerINS0_7binder2INS0_15wrapped_handlerINS_10io_service6strandEZN7asiopal13SerialChannel13BeginReadImplEN7openpal6WSliceEEUlRKSt10error_codemE_NS0_26is_continuation_if_runningEEESB_mEESE_EEE11do_completeEPNS0_15task_io_serviceEPNS0_25task_io_service_operationESD_m, .-_ZN4asio6detail18completion_handlerINS0_17rewrapped_handlerINS0_7binder2INS0_15wrapped_handlerINS_10io_service6strandEZN7asiopal13SerialChannel13BeginReadImplEN7openpal6WSliceEEUlRKSt10error_codemE_NS0_26is_continuation_if_runningEEESB_mEESE_EEE11do_completeEPNS0_15task_io_serviceEPNS0_25task_io_service_operationESD_m
	.p2align 4,,15
	.type	_ZN4asio6detail18descriptor_read_opINS_17mutable_buffers_1ENS0_15wrapped_handlerINS_10io_service6strandEZN7asiopal13SerialChannel13BeginReadImplEN7openpal6WSliceEEUlRKSt10error_codemE_NS0_26is_continuation_if_runningEEEE11do_completeEPNS0_15task_io_serviceEPNS0_25task_io_service_operationESC_m, @function
_ZN4asio6detail18descriptor_read_opINS_17mutable_buffers_1ENS0_15wrapped_handlerINS_10io_service6strandEZN7asiopal13SerialChannel13BeginReadImplEN7openpal6WSliceEEUlRKSt10error_codemE_NS0_26is_continuation_if_runningEEEE11do_completeEPNS0_15task_io_serviceEPNS0_25task_io_service_operationESC_m:
.LFB8808:
	.cfi_startproc
	.cfi_personality 0x9b,DW.ref.__gxx_personality_v0
	.cfi_lsda 0x1b,.LLSDA8808
	pushq	%r14
	.cfi_def_cfa_offset 16
	.cfi_offset 14, -16
	pushq	%r13
	.cfi_def_cfa_offset 24
	.cfi_offset 13, -24
	pushq	%r12
	.cfi_def_cfa_offset 32
	.cfi_offset 12, -32
	pushq	%rbp
	.cfi_def_cfa_offset 40
	.cfi_offset 6, -40
	movq	%rdi, %rbp
	pushq	%rbx
	.cfi_def_cfa_offset 48
	.cfi_offset 3, -48
	movq	%rsi, %rbx
	subq	$576, %rsp
	.cfi_def_cfa_offset 624
	movq	%fs:40, %rax
	movq	%rax, 568(%rsp)
	xorl	%eax, %eax
	movq	96(%rsi), %rax
	movq	%rsi, 8(%rsp)
	movdqu	80(%rsi), %xmm0
	movq	$0, 16(%rsp)
	movq	%rax, 400(%rsp)
	movq	40(%rsi), %rax
	movaps	%xmm0, 384(%rsp)
	movq	%rax, 424(%rsp)
	leaq	384(%rsp), %rax
	movdqu	24(%rsi), %xmm0
	movq	%rax, (%rsp)
	movups	%xmm0, 408(%rsp)
	.byte	0x66
	leaq	_ZN4asio6detail15keyword_tss_ptrINS0_10call_stackINS0_15task_io_serviceENS0_27task_io_service_thread_infoEE7contextEE6value_E@tlsgd(%rip), %rdi
	.value	0x6666
	rex64
	call	__tls_get_addr@PLT
	movq	(%rax), %rax
	testq	%rax, %rax
	je	.L2678
	movq	8(%rax), %rax
	testq	%rax, %rax
	je	.L2678
	cmpq	$0, (%rax)
	je	.L3142
.L2678:
	movq	%rbx, %rdi
	call	_ZdlPv@PLT
.L2679:
	testq	%rbp, %rbp
	movq	$0, 8(%rsp)
	je	.L2677
	movq	400(%rsp), %rax
	movq	384(%rsp), %r12
	movq	392(%rsp), %rbx
	movq	%rax, 496(%rsp)
	movq	%rax, 520(%rsp)
	movl	408(%rsp), %eax
	movq	%r12, 504(%rsp)
	movq	%rbx, 512(%rsp)
	movl	%eax, 528(%rsp)
	movq	416(%rsp), %rax
	movq	%rax, 536(%rsp)
	movq	424(%rsp), %rax
	movq	%rax, 544(%rsp)
	.byte	0x66
	leaq	_ZN4asio6detail15keyword_tss_ptrINS0_10call_stackINS0_14strand_service11strand_implEhE7contextEE6value_E@tlsgd(%rip), %rdi
	.value	0x6666
	rex64
	call	__tls_get_addr@PLT
	movq	(%rax), %rax
	testq	%rax, %rax
	jne	.L3111
	jmp	.L2681
	.p2align 4,,10
	.p2align 3
.L2683:
	movq	16(%rax), %rax
	testq	%rax, %rax
	je	.L2681
.L3111:
	cmpq	%rbx, (%rax)
	jne	.L2683
	cmpq	$0, 8(%rax)
	je	.L2681
	lfence
	movq	520(%rsp), %rax
	movq	512(%rsp), %rbx
	movq	%rax, 288(%rsp)
	movl	528(%rsp), %eax
	movl	%eax, 296(%rsp)
	movq	536(%rsp), %rax
	movq	%rax, 304(%rsp)
	movq	544(%rsp), %rax
	movq	%rax, 312(%rsp)
	.byte	0x66
	leaq	_ZN4asio6detail15keyword_tss_ptrINS0_10call_stackINS0_14strand_service11strand_implEhE7contextEE6value_E@tlsgd(%rip), %rdi
	.value	0x6666
	rex64
	call	__tls_get_addr@PLT
	movq	(%rax), %rax
	testq	%rax, %rax
	jne	.L3112
	jmp	.L2686
	.p2align 4,,10
	.p2align 3
.L2688:
	movq	16(%rax), %rax
	testq	%rax, %rax
	je	.L2686
.L3112:
	cmpq	(%rax), %rbx
	jne	.L2688
	cmpq	$0, 8(%rax)
	je	.L2686
	lfence
	movq	288(%rsp), %rax
	movq	312(%rsp), %rdx
	movq	40(%rax), %rdi
	movb	$0, 57(%rax)
	testq	%rdi, %rdi
	je	.L2693
	cmpb	$0, 56(%rax)
	je	.L3143
.L2693:
	sfence
.L2692:
	sfence
.L2754:
	sfence
	cmpq	$0, 16(%rsp)
	movq	8(%rsp), %rbx
	je	.L2878
	movq	$0, 16(%rsp)
.L2878:
	testq	%rbx, %rbx
	je	.L2677
	.byte	0x66
	leaq	_ZN4asio6detail15keyword_tss_ptrINS0_10call_stackINS0_15task_io_serviceENS0_27task_io_service_thread_infoEE7contextEE6value_E@tlsgd(%rip), %rdi
	.value	0x6666
	rex64
	call	__tls_get_addr@PLT
	movq	(%rax), %rax
	testq	%rax, %rax
	je	.L2880
	movq	8(%rax), %rax
	testq	%rax, %rax
	je	.L2880
	cmpq	$0, (%rax)
	je	.L3144
.L2880:
	movq	%rbx, %rdi
	call	_ZdlPv@PLT
.L2677:
	movq	568(%rsp), %rax
	xorq	%fs:40, %rax
	jne	.L3145
	addq	$576, %rsp
	.cfi_remember_state
	.cfi_def_cfa_offset 48
	popq	%rbx
	.cfi_def_cfa_offset 40
	popq	%rbp
	.cfi_def_cfa_offset 32
	popq	%r12
	.cfi_def_cfa_offset 24
	popq	%r13
	.cfi_def_cfa_offset 16
	popq	%r14
	.cfi_def_cfa_offset 8
	ret
	.p2align 4,,10
	.p2align 3
.L2681:
	.cfi_restore_state
	pxor	%xmm0, %xmm0
	leaq	496(%rsp), %rax
	movq	%rax, 32(%rsp)
	movups	%xmm0, 40(%rsp)
	.byte	0x66
	leaq	_ZN4asio6detail15keyword_tss_ptrINS0_10call_stackINS0_15task_io_serviceENS0_27task_io_service_thread_infoEE7contextEE6value_E@tlsgd(%rip), %rdi
	.value	0x6666
	rex64
	call	__tls_get_addr@PLT
	movq	(%rax), %rax
	testq	%rax, %rax
	je	.L2755
	movq	8(%rax), %rax
	testq	%rax, %rax
	je	.L2755
	movq	(%rax), %rbx
	testq	%rbx, %rbx
	je	.L2755
	movq	$0, (%rax)
	movzbl	(%rbx), %eax
	cmpb	$79, %al
	jbe	.L2756
	movb	%al, 80(%rbx)
	jmp	.L2757
	.p2align 4,,10
	.p2align 3
.L2756:
	movq	%rbx, %rdi
	call	_ZdlPv@PLT
.L2755:
	movl	$81, %edi
.LEHB45:
	call	_Znwm@PLT
.LEHE45:
	movq	%rax, %rbx
	movb	$80, 80(%rax)
.L2757:
	leaq	_ZN4asio6detail18completion_handlerINS0_17rewrapped_handlerINS0_7binder2INS0_15wrapped_handlerINS_10io_service6strandEZN7asiopal13SerialChannel13BeginReadImplEN7openpal6WSliceEEUlRKSt10error_codemE_NS0_26is_continuation_if_runningEEESB_mEESE_EEE11do_completeEPNS0_15task_io_serviceEPNS0_25task_io_service_operationESD_m(%rip), %rax
	movq	%rbx, 40(%rsp)
	movl	$0, 16(%rbx)
	movdqu	504(%rsp), %xmm0
	movq	%rax, 8(%rbx)
	movq	496(%rsp), %rax
	movups	%xmm0, 32(%rbx)
	movq	$0, (%rbx)
	movq	%rbx, 48(%rsp)
	movq	%rax, 24(%rbx)
	movq	520(%rsp), %rax
	movdqa	528(%rsp), %xmm0
	movq	%rax, 48(%rbx)
	movq	544(%rsp), %rax
	movups	%xmm0, 56(%rbx)
	movq	%rax, 72(%rbx)
	movq	40(%r12), %rbp
	.byte	0x66
	leaq	_ZN4asio6detail15keyword_tss_ptrINS0_10call_stackINS0_15task_io_serviceENS0_27task_io_service_thread_infoEE7contextEE6value_E@tlsgd(%rip), %rdi
	.value	0x6666
	rex64
	call	__tls_get_addr@PLT
	movq	(%rax), %rax
	testq	%rax, %rax
	jne	.L3117
	jmp	.L2762
	.p2align 4,,10
	.p2align 3
.L2759:
	movq	16(%rax), %rax
	testq	%rax, %rax
	je	.L2762
.L3117:
	cmpq	(%rax), %rbp
	jne	.L2759
	movq	8(%rax), %rbp
	movq	392(%rsp), %rax
	leaq	24(%rax), %rdi
	call	pthread_mutex_lock@PLT
	testq	%rbp, %rbp
	je	.L2761
	movq	392(%rsp), %rax
	cmpb	$0, 64(%rax)
	leaq	24(%rax), %rdi
	je	.L3146
.L2764:
	cmpq	$0, 80(%rax)
	movq	$0, (%rbx)
	je	.L2768
	movq	80(%rax), %rdx
	movq	%rbx, (%rdx)
	movq	%rbx, 80(%rax)
.L3141:
	call	pthread_mutex_unlock@PLT
	jmp	.L2754
	.p2align 4,,10
	.p2align 3
.L3142:
	movzbl	104(%rbx), %edx
	movb	%dl, (%rbx)
	movq	%rbx, (%rax)
	jmp	.L2679
	.p2align 4,,10
	.p2align 3
.L2762:
	movq	392(%rsp), %rax
	leaq	24(%rax), %rdi
	call	pthread_mutex_lock@PLT
.L2761:
	movq	392(%rsp), %rax
	cmpb	$0, 64(%rax)
	leaq	24(%rax), %rdi
	jne	.L2764
	movb	$1, 64(%rax)
	call	pthread_mutex_unlock@PLT
	movq	392(%rsp), %rbp
	movq	$0, (%rbx)
	cmpq	$0, 96(%rbp)
	je	.L2771
	movq	96(%rbp), %rax
	movq	%rbx, (%rax)
	movq	%rbx, 96(%rbp)
.L2772:
	movq	40(%r12), %rbx
	cmpb	$0, 40(%rbx)
	je	.L2773
	.byte	0x66
	leaq	_ZN4asio6detail15keyword_tss_ptrINS0_10call_stackINS0_15task_io_serviceENS0_27task_io_service_thread_infoEE7contextEE6value_E@tlsgd(%rip), %rdi
	.value	0x6666
	rex64
	call	__tls_get_addr@PLT
	movq	(%rax), %rax
	testq	%rax, %rax
	jne	.L3118
	jmp	.L2773
	.p2align 4,,10
	.p2align 3
.L2775:
	movq	16(%rax), %rax
	testq	%rax, %rax
	je	.L2773
.L3118:
	cmpq	(%rax), %rbx
	jne	.L2775
	movq	8(%rax), %rax
	testq	%rax, %rax
	je	.L2773
	addq	$1, 24(%rax)
	cmpq	$0, 16(%rax)
	movq	$0, 0(%rbp)
	je	.L2778
	movq	16(%rax), %rdx
	movq	%rbp, (%rdx)
	movq	%rbp, 16(%rax)
	jmp	.L2754
	.p2align 4,,10
	.p2align 3
.L2773:
	lock addq	$1, 184(%rbx)
	leaq	48(%rbx), %r12
	movq	%r12, %rdi
	call	pthread_mutex_lock@PLT
	cmpq	$0, 200(%rbx)
	movq	$0, 0(%rbp)
	je	.L2779
	movq	200(%rbx), %rax
	movq	%rbp, (%rax)
	movq	%rbp, 200(%rbx)
.L2780:
	movq	136(%rbx), %rax
	orq	$1, %rax
	cmpq	$1, %rax
	movq	%rax, 136(%rbx)
	jne	.L3147
	cmpb	$0, 176(%rbx)
	jne	.L2783
	movq	144(%rbx), %rax
	testq	%rax, %rax
	je	.L2783
	leaq	88(%rax), %rdx
	movb	$1, 176(%rbx)
	movl	$-2147483639, 432(%rsp)
	leaq	432(%rsp), %rcx
	movl	$3, %esi
	movq	%rdx, 436(%rsp)
	movl	88(%rax), %edx
	movl	96(%rax), %edi
	call	epoll_ctl@PLT
.L2783:
	movq	%r12, %rdi
	jmp	.L3141
	.p2align 4,,10
	.p2align 3
.L3146:
	movb	$1, 64(%rax)
	call	pthread_mutex_unlock@PLT
	movq	392(%rsp), %rbp
	movq	48(%rsp), %rbx
	movq	$0, 40(%rsp)
	movq	$0, 48(%rsp)
	movq	%rbp, 224(%rsp)
	.byte	0x66
	leaq	_ZN4asio6detail15keyword_tss_ptrINS0_10call_stackINS0_14strand_service11strand_implEhE7contextEE6value_E@tlsgd(%rip), %rdi
	.value	0x6666
	rex64
	call	__tls_get_addr@PLT
	movdqu	32(%rbx), %xmm0
	movq	(%rax), %rdx
	movq	%rbx, 136(%rsp)
	movq	$0, 144(%rsp)
	movq	%rdx, 240(%rsp)
	leaq	224(%rsp), %rdx
	movq	%rdx, (%rax)
	movq	24(%rbx), %rax
	movq	%rdx, 232(%rsp)
	movq	40(%r12), %r12
	movq	%rbp, 72(%rsp)
	leaq	432(%rsp), %rbp
	movq	%rax, 432(%rsp)
	movq	48(%rbx), %rax
	movups	%xmm0, 440(%rsp)
	movq	%r12, 64(%rsp)
	movq	%rbp, 128(%rsp)
	movq	%rax, 456(%rsp)
	movq	72(%rbx), %rax
	movdqu	56(%rbx), %xmm0
	movq	%rax, 480(%rsp)
	movaps	%xmm0, 464(%rsp)
	.byte	0x66
	leaq	_ZN4asio6detail15keyword_tss_ptrINS0_10call_stackINS0_15task_io_serviceENS0_27task_io_service_thread_infoEE7contextEE6value_E@tlsgd(%rip), %rdi
	.value	0x6666
	rex64
	call	__tls_get_addr@PLT
	movq	(%rax), %rax
	testq	%rax, %rax
	je	.L2766
	movq	8(%rax), %rax
	testq	%rax, %rax
	je	.L2766
	cmpq	$0, (%rax)
	je	.L3148
.L2766:
	movq	%rbx, %rdi
	call	_ZdlPv@PLT
.L2784:
	testq	%r12, %r12
	movq	$0, 136(%rsp)
	je	.L2855
	movq	456(%rsp), %rax
	movq	448(%rsp), %rbx
	movq	%rax, 336(%rsp)
	movl	464(%rsp), %eax
	movl	%eax, 344(%rsp)
	movq	472(%rsp), %rax
	movq	%rax, 352(%rsp)
	movq	480(%rsp), %rax
	movq	%rax, 360(%rsp)
	.byte	0x66
	leaq	_ZN4asio6detail15keyword_tss_ptrINS0_10call_stackINS0_14strand_service11strand_implEhE7contextEE6value_E@tlsgd(%rip), %rdi
	.value	0x6666
	rex64
	call	__tls_get_addr@PLT
	movq	(%rax), %rax
	testq	%rax, %rax
	je	.L2786
	cmpq	%rbx, (%rax)
	jne	.L2788
	jmp	.L2787
	.p2align 4,,10
	.p2align 3
.L3119:
	cmpq	(%rax), %rbx
	je	.L2787
.L2788:
	movq	16(%rax), %rax
	testq	%rax, %rax
	jne	.L3119
.L2786:
	pxor	%xmm0, %xmm0
	leaq	336(%rsp), %rax
	movq	440(%rsp), %r13
	movq	%rax, 160(%rsp)
	movups	%xmm0, 168(%rsp)
	.byte	0x66
	leaq	_ZN4asio6detail15keyword_tss_ptrINS0_10call_stackINS0_15task_io_serviceENS0_27task_io_service_thread_infoEE7contextEE6value_E@tlsgd(%rip), %rdi
	.value	0x6666
	rex64
	call	__tls_get_addr@PLT
	movq	(%rax), %rax
	testq	%rax, %rax
	je	.L2794
	movq	8(%rax), %rax
	testq	%rax, %rax
	je	.L2794
	movq	(%rax), %rbx
	testq	%rbx, %rbx
	je	.L2794
	movq	$0, (%rax)
	movzbl	(%rbx), %eax
	cmpb	$55, %al
	jbe	.L2795
	movb	%al, 56(%rbx)
.L2796:
	movdqa	336(%rsp), %xmm0
