	.file	"StaticBuffers.cpp"
	.text
	.section	.text._ZN7openpal5ArrayIN8opendnp34CellINS1_10BinarySpecEEEtED2Ev,"axG",@progbits,_ZN7openpal5ArrayIN8opendnp34CellINS1_10BinarySpecEEEtED5Ev,comdat
	.align 2
	.p2align 4,,15
	.weak	_ZN7openpal5ArrayIN8opendnp34CellINS1_10BinarySpecEEEtED2Ev
	.type	_ZN7openpal5ArrayIN8opendnp34CellINS1_10BinarySpecEEEtED2Ev, @function
_ZN7openpal5ArrayIN8opendnp34CellINS1_10BinarySpecEEEtED2Ev:
.LFB219:
	.cfi_startproc
	movq	_ZTVN7openpal5ArrayIN8opendnp34CellINS1_10BinarySpecEEEtEE@GOTPCREL(%rip), %rax
	addq	$16, %rax
	movq	%rax, (%rdi)
	movq	16(%rdi), %rdi
	testq	%rdi, %rdi
	je	.L1
	jmp	_ZdaPv@PLT
	.p2align 4,,10
	.p2align 3
.L1:
	rep ret
	.cfi_endproc
.LFE219:
	.size	_ZN7openpal5ArrayIN8opendnp34CellINS1_10BinarySpecEEEtED2Ev, .-_ZN7openpal5ArrayIN8opendnp34CellINS1_10BinarySpecEEEtED2Ev
	.weak	_ZN7openpal5ArrayIN8opendnp34CellINS1_10BinarySpecEEEtED1Ev
	.set	_ZN7openpal5ArrayIN8opendnp34CellINS1_10BinarySpecEEEtED1Ev,_ZN7openpal5ArrayIN8opendnp34CellINS1_10BinarySpecEEEtED2Ev
	.section	.text._ZN7openpal5ArrayIN8opendnp34CellINS1_19DoubleBitBinarySpecEEEtED2Ev,"axG",@progbits,_ZN7openpal5ArrayIN8opendnp34CellINS1_19DoubleBitBinarySpecEEEtED5Ev,comdat
	.align 2
	.p2align 4,,15
	.weak	_ZN7openpal5ArrayIN8opendnp34CellINS1_19DoubleBitBinarySpecEEEtED2Ev
	.type	_ZN7openpal5ArrayIN8opendnp34CellINS1_19DoubleBitBinarySpecEEEtED2Ev, @function
_ZN7openpal5ArrayIN8opendnp34CellINS1_19DoubleBitBinarySpecEEEtED2Ev:
.LFB241:
	.cfi_startproc
	movq	_ZTVN7openpal5ArrayIN8opendnp34CellINS1_19DoubleBitBinarySpecEEEtEE@GOTPCREL(%rip), %rax
	addq	$16, %rax
	movq	%rax, (%rdi)
	movq	16(%rdi), %rdi
	testq	%rdi, %rdi
	je	.L4
	jmp	_ZdaPv@PLT
	.p2align 4,,10
	.p2align 3
.L4:
	rep ret
	.cfi_endproc
.LFE241:
	.size	_ZN7openpal5ArrayIN8opendnp34CellINS1_19DoubleBitBinarySpecEEEtED2Ev, .-_ZN7openpal5ArrayIN8opendnp34CellINS1_19DoubleBitBinarySpecEEEtED2Ev
	.weak	_ZN7openpal5ArrayIN8opendnp34CellINS1_19DoubleBitBinarySpecEEEtED1Ev
	.set	_ZN7openpal5ArrayIN8opendnp34CellINS1_19DoubleBitBinarySpecEEEtED1Ev,_ZN7openpal5ArrayIN8opendnp34CellINS1_19DoubleBitBinarySpecEEEtED2Ev
	.section	.text._ZN7openpal5ArrayIN8opendnp34CellINS1_10AnalogSpecEEEtED2Ev,"axG",@progbits,_ZN7openpal5ArrayIN8opendnp34CellINS1_10AnalogSpecEEEtED5Ev,comdat
	.align 2
	.p2align 4,,15
	.weak	_ZN7openpal5ArrayIN8opendnp34CellINS1_10AnalogSpecEEEtED2Ev
	.type	_ZN7openpal5ArrayIN8opendnp34CellINS1_10AnalogSpecEEEtED2Ev, @function
_ZN7openpal5ArrayIN8opendnp34CellINS1_10AnalogSpecEEEtED2Ev:
.LFB269:
	.cfi_startproc
	movq	_ZTVN7openpal5ArrayIN8opendnp34CellINS1_10AnalogSpecEEEtEE@GOTPCREL(%rip), %rax
	addq	$16, %rax
	movq	%rax, (%rdi)
	movq	16(%rdi), %rdi
	testq	%rdi, %rdi
	je	.L6
	jmp	_ZdaPv@PLT
	.p2align 4,,10
	.p2align 3
.L6:
	rep ret
	.cfi_endproc
.LFE269:
	.size	_ZN7openpal5ArrayIN8opendnp34CellINS1_10AnalogSpecEEEtED2Ev, .-_ZN7openpal5ArrayIN8opendnp34CellINS1_10AnalogSpecEEEtED2Ev
	.weak	_ZN7openpal5ArrayIN8opendnp34CellINS1_10AnalogSpecEEEtED1Ev
	.set	_ZN7openpal5ArrayIN8opendnp34CellINS1_10AnalogSpecEEEtED1Ev,_ZN7openpal5ArrayIN8opendnp34CellINS1_10AnalogSpecEEEtED2Ev
	.section	.text._ZN7openpal5ArrayIN8opendnp34CellINS1_11CounterSpecEEEtED2Ev,"axG",@progbits,_ZN7openpal5ArrayIN8opendnp34CellINS1_11CounterSpecEEEtED5Ev,comdat
	.align 2
	.p2align 4,,15
	.weak	_ZN7openpal5ArrayIN8opendnp34CellINS1_11CounterSpecEEEtED2Ev
	.type	_ZN7openpal5ArrayIN8opendnp34CellINS1_11CounterSpecEEEtED2Ev, @function
_ZN7openpal5ArrayIN8opendnp34CellINS1_11CounterSpecEEEtED2Ev:
.LFB297:
	.cfi_startproc
	movq	_ZTVN7openpal5ArrayIN8opendnp34CellINS1_11CounterSpecEEEtEE@GOTPCREL(%rip), %rax
	addq	$16, %rax
	movq	%rax, (%rdi)
	movq	16(%rdi), %rdi
	testq	%rdi, %rdi
	je	.L8
	jmp	_ZdaPv@PLT
	.p2align 4,,10
	.p2align 3
.L8:
	rep ret
	.cfi_endproc
.LFE297:
	.size	_ZN7openpal5ArrayIN8opendnp34CellINS1_11CounterSpecEEEtED2Ev, .-_ZN7openpal5ArrayIN8opendnp34CellINS1_11CounterSpecEEEtED2Ev
	.weak	_ZN7openpal5ArrayIN8opendnp34CellINS1_11CounterSpecEEEtED1Ev
	.set	_ZN7openpal5ArrayIN8opendnp34CellINS1_11CounterSpecEEEtED1Ev,_ZN7openpal5ArrayIN8opendnp34CellINS1_11CounterSpecEEEtED2Ev
	.section	.text._ZN7openpal5ArrayIN8opendnp34CellINS1_17FrozenCounterSpecEEEtED2Ev,"axG",@progbits,_ZN7openpal5ArrayIN8opendnp34CellINS1_17FrozenCounterSpecEEEtED5Ev,comdat
	.align 2
	.p2align 4,,15
	.weak	_ZN7openpal5ArrayIN8opendnp34CellINS1_17FrozenCounterSpecEEEtED2Ev
	.type	_ZN7openpal5ArrayIN8opendnp34CellINS1_17FrozenCounterSpecEEEtED2Ev, @function
_ZN7openpal5ArrayIN8opendnp34CellINS1_17FrozenCounterSpecEEEtED2Ev:
.LFB325:
	.cfi_startproc
	movq	_ZTVN7openpal5ArrayIN8opendnp34CellINS1_17FrozenCounterSpecEEEtEE@GOTPCREL(%rip), %rax
	addq	$16, %rax
	movq	%rax, (%rdi)
	movq	16(%rdi), %rdi
	testq	%rdi, %rdi
	je	.L10
	jmp	_ZdaPv@PLT
	.p2align 4,,10
	.p2align 3
.L10:
	rep ret
	.cfi_endproc
.LFE325:
	.size	_ZN7openpal5ArrayIN8opendnp34CellINS1_17FrozenCounterSpecEEEtED2Ev, .-_ZN7openpal5ArrayIN8opendnp34CellINS1_17FrozenCounterSpecEEEtED2Ev
	.weak	_ZN7openpal5ArrayIN8opendnp34CellINS1_17FrozenCounterSpecEEEtED1Ev
	.set	_ZN7openpal5ArrayIN8opendnp34CellINS1_17FrozenCounterSpecEEEtED1Ev,_ZN7openpal5ArrayIN8opendnp34CellINS1_17FrozenCounterSpecEEEtED2Ev
	.section	.text._ZN7openpal5ArrayIN8opendnp34CellINS1_22BinaryOutputStatusSpecEEEtED2Ev,"axG",@progbits,_ZN7openpal5ArrayIN8opendnp34CellINS1_22BinaryOutputStatusSpecEEEtED5Ev,comdat
	.align 2
	.p2align 4,,15
	.weak	_ZN7openpal5ArrayIN8opendnp34CellINS1_22BinaryOutputStatusSpecEEEtED2Ev
	.type	_ZN7openpal5ArrayIN8opendnp34CellINS1_22BinaryOutputStatusSpecEEEtED2Ev, @function
_ZN7openpal5ArrayIN8opendnp34CellINS1_22BinaryOutputStatusSpecEEEtED2Ev:
.LFB347:
	.cfi_startproc
	movq	_ZTVN7openpal5ArrayIN8opendnp34CellINS1_22BinaryOutputStatusSpecEEEtEE@GOTPCREL(%rip), %rax
	addq	$16, %rax
	movq	%rax, (%rdi)
	movq	16(%rdi), %rdi
	testq	%rdi, %rdi
	je	.L12
	jmp	_ZdaPv@PLT
	.p2align 4,,10
	.p2align 3
.L12:
	rep ret
	.cfi_endproc
.LFE347:
	.size	_ZN7openpal5ArrayIN8opendnp34CellINS1_22BinaryOutputStatusSpecEEEtED2Ev, .-_ZN7openpal5ArrayIN8opendnp34CellINS1_22BinaryOutputStatusSpecEEEtED2Ev
	.weak	_ZN7openpal5ArrayIN8opendnp34CellINS1_22BinaryOutputStatusSpecEEEtED1Ev
	.set	_ZN7openpal5ArrayIN8opendnp34CellINS1_22BinaryOutputStatusSpecEEEtED1Ev,_ZN7openpal5ArrayIN8opendnp34CellINS1_22BinaryOutputStatusSpecEEEtED2Ev
	.section	.text._ZN7openpal5ArrayIN8opendnp34CellINS1_22AnalogOutputStatusSpecEEEtED2Ev,"axG",@progbits,_ZN7openpal5ArrayIN8opendnp34CellINS1_22AnalogOutputStatusSpecEEEtED5Ev,comdat
	.align 2
	.p2align 4,,15
	.weak	_ZN7openpal5ArrayIN8opendnp34CellINS1_22AnalogOutputStatusSpecEEEtED2Ev
	.type	_ZN7openpal5ArrayIN8opendnp34CellINS1_22AnalogOutputStatusSpecEEEtED2Ev, @function
_ZN7openpal5ArrayIN8opendnp34CellINS1_22AnalogOutputStatusSpecEEEtED2Ev:
.LFB375:
	.cfi_startproc
	movq	_ZTVN7openpal5ArrayIN8opendnp34CellINS1_22AnalogOutputStatusSpecEEEtEE@GOTPCREL(%rip), %rax
	addq	$16, %rax
	movq	%rax, (%rdi)
	movq	16(%rdi), %rdi
	testq	%rdi, %rdi
	je	.L14
	jmp	_ZdaPv@PLT
	.p2align 4,,10
	.p2align 3
.L14:
	rep ret
	.cfi_endproc
.LFE375:
	.size	_ZN7openpal5ArrayIN8opendnp34CellINS1_22AnalogOutputStatusSpecEEEtED2Ev, .-_ZN7openpal5ArrayIN8opendnp34CellINS1_22AnalogOutputStatusSpecEEEtED2Ev
	.weak	_ZN7openpal5ArrayIN8opendnp34CellINS1_22AnalogOutputStatusSpecEEEtED1Ev
	.set	_ZN7openpal5ArrayIN8opendnp34CellINS1_22AnalogOutputStatusSpecEEEtED1Ev,_ZN7openpal5ArrayIN8opendnp34CellINS1_22AnalogOutputStatusSpecEEEtED2Ev
	.section	.text._ZN7openpal5ArrayIN8opendnp34CellINS1_19TimeAndIntervalSpecEEEtED2Ev,"axG",@progbits,_ZN7openpal5ArrayIN8opendnp34CellINS1_19TimeAndIntervalSpecEEEtED5Ev,comdat
	.align 2
	.p2align 4,,15
	.weak	_ZN7openpal5ArrayIN8opendnp34CellINS1_19TimeAndIntervalSpecEEEtED2Ev
	.type	_ZN7openpal5ArrayIN8opendnp34CellINS1_19TimeAndIntervalSpecEEEtED2Ev, @function
_ZN7openpal5ArrayIN8opendnp34CellINS1_19TimeAndIntervalSpecEEEtED2Ev:
.LFB391:
	.cfi_startproc
	movq	_ZTVN7openpal5ArrayIN8opendnp34CellINS1_19TimeAndIntervalSpecEEEtEE@GOTPCREL(%rip), %rax
	addq	$16, %rax
	movq	%rax, (%rdi)
	movq	16(%rdi), %rdi
	testq	%rdi, %rdi
	je	.L16
	jmp	_ZdaPv@PLT
	.p2align 4,,10
	.p2align 3
.L16:
	rep ret
	.cfi_endproc
.LFE391:
	.size	_ZN7openpal5ArrayIN8opendnp34CellINS1_19TimeAndIntervalSpecEEEtED2Ev, .-_ZN7openpal5ArrayIN8opendnp34CellINS1_19TimeAndIntervalSpecEEEtED2Ev
	.weak	_ZN7openpal5ArrayIN8opendnp34CellINS1_19TimeAndIntervalSpecEEEtED1Ev
	.set	_ZN7openpal5ArrayIN8opendnp34CellINS1_19TimeAndIntervalSpecEEEtED1Ev,_ZN7openpal5ArrayIN8opendnp34CellINS1_19TimeAndIntervalSpecEEEtED2Ev
	.section	.text._ZN7openpal5ArrayIN8opendnp34CellINS1_10BinarySpecEEEtED0Ev,"axG",@progbits,_ZN7openpal5ArrayIN8opendnp34CellINS1_10BinarySpecEEEtED5Ev,comdat
	.align 2
	.p2align 4,,15
	.weak	_ZN7openpal5ArrayIN8opendnp34CellINS1_10BinarySpecEEEtED0Ev
	.type	_ZN7openpal5ArrayIN8opendnp34CellINS1_10BinarySpecEEEtED0Ev, @function
_ZN7openpal5ArrayIN8opendnp34CellINS1_10BinarySpecEEEtED0Ev:
.LFB221:
	.cfi_startproc
	movq	_ZTVN7openpal5ArrayIN8opendnp34CellINS1_10BinarySpecEEEtEE@GOTPCREL(%rip), %rax
	pushq	%rbx
	.cfi_def_cfa_offset 16
	.cfi_offset 3, -16
	movq	%rdi, %rbx
	addq	$16, %rax
	movq	%rax, (%rdi)
	movq	16(%rdi), %rdi
	testq	%rdi, %rdi
	je	.L19
	call	_ZdaPv@PLT
.L19:
	movq	%rbx, %rdi
	movl	$24, %esi
	popq	%rbx
	.cfi_def_cfa_offset 8
	jmp	_ZdlPvm@PLT
	.cfi_endproc
.LFE221:
	.size	_ZN7openpal5ArrayIN8opendnp34CellINS1_10BinarySpecEEEtED0Ev, .-_ZN7openpal5ArrayIN8opendnp34CellINS1_10BinarySpecEEEtED0Ev
	.section	.text._ZN7openpal5ArrayIN8opendnp34CellINS1_19DoubleBitBinarySpecEEEtED0Ev,"axG",@progbits,_ZN7openpal5ArrayIN8opendnp34CellINS1_19DoubleBitBinarySpecEEEtED5Ev,comdat
	.align 2
	.p2align 4,,15
	.weak	_ZN7openpal5ArrayIN8opendnp34CellINS1_19DoubleBitBinarySpecEEEtED0Ev
	.type	_ZN7openpal5ArrayIN8opendnp34CellINS1_19DoubleBitBinarySpecEEEtED0Ev, @function
_ZN7openpal5ArrayIN8opendnp34CellINS1_19DoubleBitBinarySpecEEEtED0Ev:
.LFB243:
	.cfi_startproc
	movq	_ZTVN7openpal5ArrayIN8opendnp34CellINS1_19DoubleBitBinarySpecEEEtEE@GOTPCREL(%rip), %rax
	pushq	%rbx
	.cfi_def_cfa_offset 16
	.cfi_offset 3, -16
	movq	%rdi, %rbx
	addq	$16, %rax
	movq	%rax, (%rdi)
	movq	16(%rdi), %rdi
	testq	%rdi, %rdi
	je	.L25
	call	_ZdaPv@PLT
.L25:
	movq	%rbx, %rdi
	movl	$24, %esi
	popq	%rbx
	.cfi_def_cfa_offset 8
	jmp	_ZdlPvm@PLT
	.cfi_endproc
.LFE243:
	.size	_ZN7openpal5ArrayIN8opendnp34CellINS1_19DoubleBitBinarySpecEEEtED0Ev, .-_ZN7openpal5ArrayIN8opendnp34CellINS1_19DoubleBitBinarySpecEEEtED0Ev
	.section	.text._ZN7openpal5ArrayIN8opendnp34CellINS1_10AnalogSpecEEEtED0Ev,"axG",@progbits,_ZN7openpal5ArrayIN8opendnp34CellINS1_10AnalogSpecEEEtED5Ev,comdat
	.align 2
	.p2align 4,,15
	.weak	_ZN7openpal5ArrayIN8opendnp34CellINS1_10AnalogSpecEEEtED0Ev
	.type	_ZN7openpal5ArrayIN8opendnp34CellINS1_10AnalogSpecEEEtED0Ev, @function
_ZN7openpal5ArrayIN8opendnp34CellINS1_10AnalogSpecEEEtED0Ev:
.LFB271:
	.cfi_startproc
	movq	_ZTVN7openpal5ArrayIN8opendnp34CellINS1_10AnalogSpecEEEtEE@GOTPCREL(%rip), %rax
	pushq	%rbx
	.cfi_def_cfa_offset 16
	.cfi_offset 3, -16
	movq	%rdi, %rbx
	addq	$16, %rax
	movq	%rax, (%rdi)
	movq	16(%rdi), %rdi
	testq	%rdi, %rdi
	je	.L31
	call	_ZdaPv@PLT
.L31:
	movq	%rbx, %rdi
	movl	$24, %esi
	popq	%rbx
	.cfi_def_cfa_offset 8
	jmp	_ZdlPvm@PLT
	.cfi_endproc
.LFE271:
	.size	_ZN7openpal5ArrayIN8opendnp34CellINS1_10AnalogSpecEEEtED0Ev, .-_ZN7openpal5ArrayIN8opendnp34CellINS1_10AnalogSpecEEEtED0Ev
	.section	.text._ZN7openpal5ArrayIN8opendnp34CellINS1_11CounterSpecEEEtED0Ev,"axG",@progbits,_ZN7openpal5ArrayIN8opendnp34CellINS1_11CounterSpecEEEtED5Ev,comdat
	.align 2
	.p2align 4,,15
	.weak	_ZN7openpal5ArrayIN8opendnp34CellINS1_11CounterSpecEEEtED0Ev
	.type	_ZN7openpal5ArrayIN8opendnp34CellINS1_11CounterSpecEEEtED0Ev, @function
_ZN7openpal5ArrayIN8opendnp34CellINS1_11CounterSpecEEEtED0Ev:
.LFB299:
	.cfi_startproc
	movq	_ZTVN7openpal5ArrayIN8opendnp34CellINS1_11CounterSpecEEEtEE@GOTPCREL(%rip), %rax
	pushq	%rbx
	.cfi_def_cfa_offset 16
	.cfi_offset 3, -16
	movq	%rdi, %rbx
	addq	$16, %rax
	movq	%rax, (%rdi)
	movq	16(%rdi), %rdi
	testq	%rdi, %rdi
	je	.L37
	call	_ZdaPv@PLT
.L37:
	movq	%rbx, %rdi
	movl	$24, %esi
	popq	%rbx
	.cfi_def_cfa_offset 8
	jmp	_ZdlPvm@PLT
	.cfi_endproc
.LFE299:
	.size	_ZN7openpal5ArrayIN8opendnp34CellINS1_11CounterSpecEEEtED0Ev, .-_ZN7openpal5ArrayIN8opendnp34CellINS1_11CounterSpecEEEtED0Ev
	.section	.text._ZN7openpal5ArrayIN8opendnp34CellINS1_17FrozenCounterSpecEEEtED0Ev,"axG",@progbits,_ZN7openpal5ArrayIN8opendnp34CellINS1_17FrozenCounterSpecEEEtED5Ev,comdat
	.align 2
	.p2align 4,,15
	.weak	_ZN7openpal5ArrayIN8opendnp34CellINS1_17FrozenCounterSpecEEEtED0Ev
	.type	_ZN7openpal5ArrayIN8opendnp34CellINS1_17FrozenCounterSpecEEEtED0Ev, @function
_ZN7openpal5ArrayIN8opendnp34CellINS1_17FrozenCounterSpecEEEtED0Ev:
.LFB327:
	.cfi_startproc
	movq	_ZTVN7openpal5ArrayIN8opendnp34CellINS1_17FrozenCounterSpecEEEtEE@GOTPCREL(%rip), %rax
	pushq	%rbx
	.cfi_def_cfa_offset 16
	.cfi_offset 3, -16
	movq	%rdi, %rbx
	addq	$16, %rax
	movq	%rax, (%rdi)
	movq	16(%rdi), %rdi
	testq	%rdi, %rdi
	je	.L43
	call	_ZdaPv@PLT
.L43:
	movq	%rbx, %rdi
	movl	$24, %esi
	popq	%rbx
	.cfi_def_cfa_offset 8
	jmp	_ZdlPvm@PLT
	.cfi_endproc
.LFE327:
	.size	_ZN7openpal5ArrayIN8opendnp34CellINS1_17FrozenCounterSpecEEEtED0Ev, .-_ZN7openpal5ArrayIN8opendnp34CellINS1_17FrozenCounterSpecEEEtED0Ev
	.section	.text._ZN7openpal5ArrayIN8opendnp34CellINS1_22BinaryOutputStatusSpecEEEtED0Ev,"axG",@progbits,_ZN7openpal5ArrayIN8opendnp34CellINS1_22BinaryOutputStatusSpecEEEtED5Ev,comdat
	.align 2
	.p2align 4,,15
	.weak	_ZN7openpal5ArrayIN8opendnp34CellINS1_22BinaryOutputStatusSpecEEEtED0Ev
	.type	_ZN7openpal5ArrayIN8opendnp34CellINS1_22BinaryOutputStatusSpecEEEtED0Ev, @function
_ZN7openpal5ArrayIN8opendnp34CellINS1_22BinaryOutputStatusSpecEEEtED0Ev:
.LFB349:
	.cfi_startproc
	movq	_ZTVN7openpal5ArrayIN8opendnp34CellINS1_22BinaryOutputStatusSpecEEEtEE@GOTPCREL(%rip), %rax
	pushq	%rbx
	.cfi_def_cfa_offset 16
	.cfi_offset 3, -16
	movq	%rdi, %rbx
	addq	$16, %rax
	movq	%rax, (%rdi)
	movq	16(%rdi), %rdi
	testq	%rdi, %rdi
	je	.L49
	call	_ZdaPv@PLT
.L49:
	movq	%rbx, %rdi
	movl	$24, %esi
	popq	%rbx
	.cfi_def_cfa_offset 8
	jmp	_ZdlPvm@PLT
	.cfi_endproc
.LFE349:
	.size	_ZN7openpal5ArrayIN8opendnp34CellINS1_22BinaryOutputStatusSpecEEEtED0Ev, .-_ZN7openpal5ArrayIN8opendnp34CellINS1_22BinaryOutputStatusSpecEEEtED0Ev
	.section	.text._ZN7openpal5ArrayIN8opendnp34CellINS1_22AnalogOutputStatusSpecEEEtED0Ev,"axG",@progbits,_ZN7openpal5ArrayIN8opendnp34CellINS1_22AnalogOutputStatusSpecEEEtED5Ev,comdat
	.align 2
	.p2align 4,,15
	.weak	_ZN7openpal5ArrayIN8opendnp34CellINS1_22AnalogOutputStatusSpecEEEtED0Ev
	.type	_ZN7openpal5ArrayIN8opendnp34CellINS1_22AnalogOutputStatusSpecEEEtED0Ev, @function
_ZN7openpal5ArrayIN8opendnp34CellINS1_22AnalogOutputStatusSpecEEEtED0Ev:
.LFB377:
	.cfi_startproc
	movq	_ZTVN7openpal5ArrayIN8opendnp34CellINS1_22AnalogOutputStatusSpecEEEtEE@GOTPCREL(%rip), %rax
	pushq	%rbx
	.cfi_def_cfa_offset 16
	.cfi_offset 3, -16
	movq	%rdi, %rbx
	addq	$16, %rax
	movq	%rax, (%rdi)
	movq	16(%rdi), %rdi
	testq	%rdi, %rdi
	je	.L55
	call	_ZdaPv@PLT
.L55:
	movq	%rbx, %rdi
	movl	$24, %esi
	popq	%rbx
	.cfi_def_cfa_offset 8
	jmp	_ZdlPvm@PLT
	.cfi_endproc
.LFE377:
	.size	_ZN7openpal5ArrayIN8opendnp34CellINS1_22AnalogOutputStatusSpecEEEtED0Ev, .-_ZN7openpal5ArrayIN8opendnp34CellINS1_22AnalogOutputStatusSpecEEEtED0Ev
	.section	.text._ZN7openpal5ArrayIN8opendnp34CellINS1_19TimeAndIntervalSpecEEEtED0Ev,"axG",@progbits,_ZN7openpal5ArrayIN8opendnp34CellINS1_19TimeAndIntervalSpecEEEtED5Ev,comdat
	.align 2
	.p2align 4,,15
	.weak	_ZN7openpal5ArrayIN8opendnp34CellINS1_19TimeAndIntervalSpecEEEtED0Ev
	.type	_ZN7openpal5ArrayIN8opendnp34CellINS1_19TimeAndIntervalSpecEEEtED0Ev, @function
_ZN7openpal5ArrayIN8opendnp34CellINS1_19TimeAndIntervalSpecEEEtED0Ev:
.LFB393:
	.cfi_startproc
	movq	_ZTVN7openpal5ArrayIN8opendnp34CellINS1_19TimeAndIntervalSpecEEEtEE@GOTPCREL(%rip), %rax
	pushq	%rbx
	.cfi_def_cfa_offset 16
	.cfi_offset 3, -16
	movq	%rdi, %rbx
	addq	$16, %rax
	movq	%rax, (%rdi)
	movq	16(%rdi), %rdi
	testq	%rdi, %rdi
	je	.L61
	call	_ZdaPv@PLT
.L61:
	movq	%rbx, %rdi
	movl	$24, %esi
	popq	%rbx
	.cfi_def_cfa_offset 8
	jmp	_ZdlPvm@PLT
	.cfi_endproc
.LFE393:
	.size	_ZN7openpal5ArrayIN8opendnp34CellINS1_19TimeAndIntervalSpecEEEtED0Ev, .-_ZN7openpal5ArrayIN8opendnp34CellINS1_19TimeAndIntervalSpecEEEtED0Ev
	.text
	.align 2
	.p2align 4,,15
	.globl	_ZNK8opendnp313StaticBuffers7GetViewEv
	.type	_ZNK8opendnp313StaticBuffers7GetViewEv, @function
_ZNK8opendnp313StaticBuffers7GetViewEv:
.LFB175:
	.cfi_startproc
	pushq	%r15
	.cfi_def_cfa_offset 16
	.cfi_offset 15, -16
	pushq	%r14
	.cfi_def_cfa_offset 24
	.cfi_offset 14, -24
	xorl	%ecx, %ecx
	pushq	%r13
	.cfi_def_cfa_offset 32
	.cfi_offset 13, -32
	pushq	%r12
	.cfi_def_cfa_offset 40
	.cfi_offset 12, -40
	xorl	%r13d, %r13d
	pushq	%rbp
	.cfi_def_cfa_offset 48
	.cfi_offset 6, -48
	pushq	%rbx
	.cfi_def_cfa_offset 56
	.cfi_offset 3, -56
	xorl	%r11d, %r11d
	xorl	%r9d, %r9d
	xorl	%eax, %eax
	xorl	%r8d, %r8d
	subq	$24, %rsp
	.cfi_def_cfa_offset 80
	movw	80(%rsi), %ax
	movq	64(%rsi), %rbp
	movq	%rdi, 8(%rsp)
	movq	16(%rsi), %r15
	xorl	%edi, %edi
	movw	176(%rsi), %cx
	movw	56(%rsi), %di
	movq	184(%rsi), %rbx
	movw	152(%rsi), %r13w
	movq	160(%rsi), %r14
	movw	128(%rsi), %r11w
	movq	136(%rsi), %r12
	movw	104(%rsi), %r9w
	movq	112(%rsi), %r10
	movq	88(%rsi), %rdx
	movw	32(%rsi), %r8w
	movq	%r15, (%rsp)
	xorl	%r15d, %r15d
	movw	8(%rsi), %r15w
	pushq	%rbx
	.cfi_def_cfa_offset 88
	pushq	%rcx
	.cfi_def_cfa_offset 96
	pushq	%r14
	.cfi_def_cfa_offset 104
	pushq	%r13
	.cfi_def_cfa_offset 112
	pushq	%r12
	.cfi_def_cfa_offset 120
	movl	%r8d, %ecx
	pushq	%r11
	.cfi_def_cfa_offset 128
	pushq	%r10
	.cfi_def_cfa_offset 136
	pushq	%r9
	.cfi_def_cfa_offset 144
	pushq	%rdx
	.cfi_def_cfa_offset 152
	pushq	%rax
	.cfi_def_cfa_offset 160
	pushq	%rbp
	.cfi_def_cfa_offset 168
	pushq	%rdi
	.cfi_def_cfa_offset 176
	movq	104(%rsp), %rbx
	movq	40(%rsi), %r8
	movq	96(%rsp), %rdx
	movl	%r15d, %esi
	movq	%rbx, %rdi
	call	_ZN8opendnp318DatabaseConfigViewC1EN7openpal9ArrayViewINS_4CellINS_10BinarySpecEEEtEENS2_INS3_INS_19DoubleBitBinarySpecEEEtEENS2_INS3_INS_10AnalogSpecEEEtEENS2_INS3_INS_11CounterSpecEEEtEENS2_INS3_INS_17FrozenCounterSpecEEEtEENS2_INS3_INS_22BinaryOutputStatusSpecEEEtEENS2_INS3_INS_22AnalogOutputStatusSpecEEEtEENS2_INS3_INS_19TimeAndIntervalSpecEEEtEE@PLT
	addq	$120, %rsp
	.cfi_def_cfa_offset 56
	movq	%rbx, %rax
	popq	%rbx
	.cfi_def_cfa_offset 48
	popq	%rbp
	.cfi_def_cfa_offset 40
	popq	%r12
	.cfi_def_cfa_offset 32
	popq	%r13
	.cfi_def_cfa_offset 24
	popq	%r14
	.cfi_def_cfa_offset 16
	popq	%r15
	.cfi_def_cfa_offset 8
	ret
	.cfi_endproc
.LFE175:
	.size	_ZNK8opendnp313StaticBuffers7GetViewEv, .-_ZNK8opendnp313StaticBuffers7GetViewEv
	.align 2
	.p2align 4,,15
	.globl	_ZN8opendnp313StaticBuffers12GetArrayViewINS_10BinarySpecEEEN7openpal9ArrayViewINS_4CellIT_EEtEEv
	.type	_ZN8opendnp313StaticBuffers12GetArrayViewINS_10BinarySpecEEEN7openpal9ArrayViewINS_4CellIT_EEtEEv, @function
_ZN8opendnp313StaticBuffers12GetArrayViewINS_10BinarySpecEEEN7openpal9ArrayViewINS_4CellIT_EEtEEv:
.LFB176:
	.cfi_startproc
	movq	16(%rdi), %rdx
	xorl	%eax, %eax
	movw	8(%rdi), %ax
	ret
	.cfi_endproc
.LFE176:
	.size	_ZN8opendnp313StaticBuffers12GetArrayViewINS_10BinarySpecEEEN7openpal9ArrayViewINS_4CellIT_EEtEEv, .-_ZN8opendnp313StaticBuffers12GetArrayViewINS_10BinarySpecEEEN7openpal9ArrayViewINS_4CellIT_EEtEEv
	.align 2
	.p2align 4,,15
	.globl	_ZN8opendnp313StaticBuffers12GetArrayViewINS_19DoubleBitBinarySpecEEEN7openpal9ArrayViewINS_4CellIT_EEtEEv
	.type	_ZN8opendnp313StaticBuffers12GetArrayViewINS_19DoubleBitBinarySpecEEEN7openpal9ArrayViewINS_4CellIT_EEtEEv, @function
_ZN8opendnp313StaticBuffers12GetArrayViewINS_19DoubleBitBinarySpecEEEN7openpal9ArrayViewINS_4CellIT_EEtEEv:
.LFB177:
	.cfi_startproc
	movq	40(%rdi), %rdx
	xorl	%eax, %eax
	movw	32(%rdi), %ax
	ret
	.cfi_endproc
.LFE177:
	.size	_ZN8opendnp313StaticBuffers12GetArrayViewINS_19DoubleBitBinarySpecEEEN7openpal9ArrayViewINS_4CellIT_EEtEEv, .-_ZN8opendnp313StaticBuffers12GetArrayViewINS_19DoubleBitBinarySpecEEEN7openpal9ArrayViewINS_4CellIT_EEtEEv
	.align 2
	.p2align 4,,15
	.globl	_ZN8opendnp313StaticBuffers12GetArrayViewINS_11CounterSpecEEEN7openpal9ArrayViewINS_4CellIT_EEtEEv
	.type	_ZN8opendnp313StaticBuffers12GetArrayViewINS_11CounterSpecEEEN7openpal9ArrayViewINS_4CellIT_EEtEEv, @function
_ZN8opendnp313StaticBuffers12GetArrayViewINS_11CounterSpecEEEN7openpal9ArrayViewINS_4CellIT_EEtEEv:
.LFB178:
	.cfi_startproc
	movq	88(%rdi), %rdx
	xorl	%eax, %eax
	movw	80(%rdi), %ax
	ret
	.cfi_endproc
.LFE178:
	.size	_ZN8opendnp313StaticBuffers12GetArrayViewINS_11CounterSpecEEEN7openpal9ArrayViewINS_4CellIT_EEtEEv, .-_ZN8opendnp313StaticBuffers12GetArrayViewINS_11CounterSpecEEEN7openpal9ArrayViewINS_4CellIT_EEtEEv
	.align 2
	.p2align 4,,15
	.globl	_ZN8opendnp313StaticBuffers12GetArrayViewINS_17FrozenCounterSpecEEEN7openpal9ArrayViewINS_4CellIT_EEtEEv
	.type	_ZN8opendnp313StaticBuffers12GetArrayViewINS_17FrozenCounterSpecEEEN7openpal9ArrayViewINS_4CellIT_EEtEEv, @function
_ZN8opendnp313StaticBuffers12GetArrayViewINS_17FrozenCounterSpecEEEN7openpal9ArrayViewINS_4CellIT_EEtEEv:
.LFB179:
	.cfi_startproc
	movq	112(%rdi), %rdx
	xorl	%eax, %eax
	movw	104(%rdi), %ax
	ret
	.cfi_endproc
.LFE179:
	.size	_ZN8opendnp313StaticBuffers12GetArrayViewINS_17FrozenCounterSpecEEEN7openpal9ArrayViewINS_4CellIT_EEtEEv, .-_ZN8opendnp313StaticBuffers12GetArrayViewINS_17FrozenCounterSpecEEEN7openpal9ArrayViewINS_4CellIT_EEtEEv
	.align 2
	.p2align 4,,15
	.globl	_ZN8opendnp313StaticBuffers12GetArrayViewINS_10AnalogSpecEEEN7openpal9ArrayViewINS_4CellIT_EEtEEv
	.type	_ZN8opendnp313StaticBuffers12GetArrayViewINS_10AnalogSpecEEEN7openpal9ArrayViewINS_4CellIT_EEtEEv, @function
_ZN8opendnp313StaticBuffers12GetArrayViewINS_10AnalogSpecEEEN7openpal9ArrayViewINS_4CellIT_EEtEEv:
.LFB180:
	.cfi_startproc
	movq	64(%rdi), %rdx
	xorl	%eax, %eax
	movw	56(%rdi), %ax
	ret
	.cfi_endproc
.LFE180:
	.size	_ZN8opendnp313StaticBuffers12GetArrayViewINS_10AnalogSpecEEEN7openpal9ArrayViewINS_4CellIT_EEtEEv, .-_ZN8opendnp313StaticBuffers12GetArrayViewINS_10AnalogSpecEEEN7openpal9ArrayViewINS_4CellIT_EEtEEv
	.align 2
	.p2align 4,,15
	.globl	_ZN8opendnp313StaticBuffers12GetArrayViewINS_22BinaryOutputStatusSpecEEEN7openpal9ArrayViewINS_4CellIT_EEtEEv
	.type	_ZN8opendnp313StaticBuffers12GetArrayViewINS_22BinaryOutputStatusSpecEEEN7openpal9ArrayViewINS_4CellIT_EEtEEv, @function
_ZN8opendnp313StaticBuffers12GetArrayViewINS_22BinaryOutputStatusSpecEEEN7openpal9ArrayViewINS_4CellIT_EEtEEv:
.LFB181:
	.cfi_startproc
	movq	136(%rdi), %rdx
	xorl	%eax, %eax
	movw	128(%rdi), %ax
	ret
	.cfi_endproc
.LFE181:
	.size	_ZN8opendnp313StaticBuffers12GetArrayViewINS_22BinaryOutputStatusSpecEEEN7openpal9ArrayViewINS_4CellIT_EEtEEv, .-_ZN8opendnp313StaticBuffers12GetArrayViewINS_22BinaryOutputStatusSpecEEEN7openpal9ArrayViewINS_4CellIT_EEtEEv
	.align 2
	.p2align 4,,15
	.globl	_ZN8opendnp313StaticBuffers12GetArrayViewINS_22AnalogOutputStatusSpecEEEN7openpal9ArrayViewINS_4CellIT_EEtEEv
	.type	_ZN8opendnp313StaticBuffers12GetArrayViewINS_22AnalogOutputStatusSpecEEEN7openpal9ArrayViewINS_4CellIT_EEtEEv, @function
_ZN8opendnp313StaticBuffers12GetArrayViewINS_22AnalogOutputStatusSpecEEEN7openpal9ArrayViewINS_4CellIT_EEtEEv:
.LFB182:
	.cfi_startproc
	movq	160(%rdi), %rdx
	xorl	%eax, %eax
	movw	152(%rdi), %ax
	ret
	.cfi_endproc
.LFE182:
	.size	_ZN8opendnp313StaticBuffers12GetArrayViewINS_22AnalogOutputStatusSpecEEEN7openpal9ArrayViewINS_4CellIT_EEtEEv, .-_ZN8opendnp313StaticBuffers12GetArrayViewINS_22AnalogOutputStatusSpecEEEN7openpal9ArrayViewINS_4CellIT_EEtEEv
	.align 2
	.p2align 4,,15
	.globl	_ZN8opendnp313StaticBuffers12GetArrayViewINS_19TimeAndIntervalSpecEEEN7openpal9ArrayViewINS_4CellIT_EEtEEv
	.type	_ZN8opendnp313StaticBuffers12GetArrayViewINS_19TimeAndIntervalSpecEEEN7openpal9ArrayViewINS_4CellIT_EEtEEv, @function
_ZN8opendnp313StaticBuffers12GetArrayViewINS_19TimeAndIntervalSpecEEEN7openpal9ArrayViewINS_4CellIT_EEtEEv:
.LFB183:
	.cfi_startproc
	movq	184(%rdi), %rdx
	xorl	%eax, %eax
	movw	176(%rdi), %ax
	ret
	.cfi_endproc
.LFE183:
	.size	_ZN8opendnp313StaticBuffers12GetArrayViewINS_19TimeAndIntervalSpecEEEN7openpal9ArrayViewINS_4CellIT_EEtEEv, .-_ZN8opendnp313StaticBuffers12GetArrayViewINS_19TimeAndIntervalSpecEEEN7openpal9ArrayViewINS_4CellIT_EEtEEv
	.align 2
	.p2align 4,,15
	.globl	_ZN8opendnp313StaticBuffersC2ERKNS_13DatabaseSizesE
	.type	_ZN8opendnp313StaticBuffersC2ERKNS_13DatabaseSizesE, @function
_ZN8opendnp313StaticBuffersC2ERKNS_13DatabaseSizesE:
.LFB173:
	.cfi_startproc
	.cfi_personality 0x9b,DW.ref.__gxx_personality_v0
	.cfi_lsda 0x1b,.LLSDA173
	pushq	%r15
	.cfi_def_cfa_offset 16
	.cfi_offset 15, -16
	pushq	%r14
	.cfi_def_cfa_offset 24
	.cfi_offset 14, -24
	pushq	%r13
	.cfi_def_cfa_offset 32
	.cfi_offset 13, -32
	pushq	%r12
	.cfi_def_cfa_offset 40
	.cfi_offset 12, -40
	movq	%rsi, %r13
	pushq	%rbp
	.cfi_def_cfa_offset 48
	.cfi_offset 6, -48
	pushq	%rbx
	.cfi_def_cfa_offset 56
	.cfi_offset 3, -56
	movq	%rdi, %rbp
	subq	$8, %rsp
	.cfi_def_cfa_offset 64
	movzwl	(%rsi), %r12d
	movq	_ZTVN7openpal5ArrayIN8opendnp34CellINS1_10BinarySpecEEEtEE@GOTPCREL(%rip), %rax
	addq	$16, %rax
	movw	%r12w, 8(%rdi)
	movq	%rax, (%rdi)
	leaq	0(,%r12,8), %rdi
	subq	%r12, %rdi
	subq	$1, %r12
	salq	$4, %rdi
.LEHB0:
	call	_Znam@PLT
.LEHE0:
	cmpq	$-1, %r12
	movq	%rax, %r15
	je	.L77
	movq	%rax, %rbx
	xorl	%r14d, %r14d
	.p2align 4,,10
	.p2align 3
.L78:
	movl	$14, %ecx
	movq	%rbx, %rdi
	movq	%r14, %rax
	rep stosq
	movq	%rbx, %rdi
.LEHB1:
	call	_ZN8opendnp36BinaryC1Ev@PLT
	xorl	%r10d, %r10d
	leaq	40(%rbx), %rdi
	movb	$1, 26(%rbx)
	movw	%r10w, 24(%rbx)
	movb	$2, 27(%rbx)
	movb	$0, 28(%rbx)
	movb	$2, 32(%rbx)
	call	_ZN8opendnp36BinaryC1Ev@PLT
	leaq	80(%rbx), %rdi
	movb	$0, 64(%rbx)
	movb	$0, 72(%rbx)
	call	_ZN8opendnp36BinaryC1Ev@PLT
.LEHE1:
	subq	$1, %r12
	movb	$1, 104(%rbx)
	addq	$112, %rbx
	cmpq	$-1, %r12
	jne	.L78
.L77:
	movzwl	2(%r13), %r12d
	movq	_ZTVN7openpal5ArrayIN8opendnp34CellINS1_19DoubleBitBinarySpecEEEtEE@GOTPCREL(%rip), %rax
	movq	%r15, 16(%rbp)
	addq	$16, %rax
	leaq	0(,%r12,8), %rdi
	movw	%r12w, 32(%rbp)
	movq	%rax, 24(%rbp)
	subq	%r12, %rdi
	salq	$4, %rdi
.LEHB2:
	call	_Znam@PLT
.LEHE2:
	subq	$1, %r12
	xorl	%r14d, %r14d
	movq	%rax, %r15
	cmpq	$-1, %r12
	movq	%rax, %rbx
	je	.L81
	.p2align 4,,10
	.p2align 3
.L82:
	movl	$14, %ecx
	movq	%rbx, %rdi
	movq	%r14, %rax
	rep stosq
	movq	%rbx, %rdi
.LEHB3:
	call	_ZN8opendnp315DoubleBitBinaryC1Ev@PLT
	xorl	%r9d, %r9d
	leaq	40(%rbx), %rdi
	movb	$0, 26(%rbx)
	movw	%r9w, 24(%rbx)
	movb	$2, 27(%rbx)
	movb	$0, 28(%rbx)
	movb	$2, 32(%rbx)
	call	_ZN8opendnp315DoubleBitBinaryC1Ev@PLT
	leaq	80(%rbx), %rdi
	movb	$0, 64(%rbx)
	movb	$0, 72(%rbx)
	call	_ZN8opendnp315DoubleBitBinaryC1Ev@PLT
.LEHE3:
	subq	$1, %r12
	movb	$0, 104(%rbx)
	addq	$112, %rbx
	cmpq	$-1, %r12
	jne	.L82
.L81:
	movzwl	4(%r13), %r12d
	movq	_ZTVN7openpal5ArrayIN8opendnp34CellINS1_10AnalogSpecEEEtEE@GOTPCREL(%rip), %rax
	movq	%r15, 40(%rbp)
	addq	$16, %rax
	movq	%r12, %rdi
	movw	%r12w, 56(%rbp)
	movq	%rax, 48(%rbp)
	salq	$4, %rdi
	subq	%r12, %rdi
	salq	$3, %rdi
.LEHB4:
	call	_Znam@PLT
.LEHE4:
	subq	$1, %r12
	xorl	%r14d, %r14d
	movq	%rax, %r15
	cmpq	$-1, %r12
	movq	%rax, %rbx
	je	.L86
	.p2align 4,,10
	.p2align 3
.L87:
	movl	$15, %ecx
	movq	%rbx, %rdi
	movq	%r14, %rax
	rep stosq
	movq	%rbx, %rdi
.LEHB5:
	call	_ZN8opendnp36AnalogC1Ev@PLT
	xorl	%r8d, %r8d
	leaq	48(%rbx), %rdi
	movb	$0, 26(%rbx)
	movw	%r8w, 24(%rbx)
	movb	$2, 27(%rbx)
	movb	$0, 28(%rbx)
	movq	$0x000000000, 32(%rbx)
	movb	$2, 40(%rbx)
	call	_ZN8opendnp36AnalogC1Ev@PLT
	leaq	88(%rbx), %rdi
	movb	$0, 72(%rbx)
	movb	$0, 80(%rbx)
	call	_ZN8opendnp36AnalogC1Ev@PLT
.LEHE5:
	subq	$1, %r12
	movb	$0, 112(%rbx)
	addq	$120, %rbx
	cmpq	$-1, %r12
	jne	.L87
.L86:
	movzwl	6(%r13), %r12d
	movq	_ZTVN7openpal5ArrayIN8opendnp34CellINS1_11CounterSpecEEEtEE@GOTPCREL(%rip), %rax
	movq	%r15, 64(%rbp)
	addq	$16, %rax
	movq	%r12, %rdi
	movw	%r12w, 80(%rbp)
	movq	%rax, 72(%rbp)
	salq	$4, %rdi
	subq	%r12, %rdi
	salq	$3, %rdi
.LEHB6:
	call	_Znam@PLT
.LEHE6:
	subq	$1, %r12
	xorl	%r14d, %r14d
	movq	%rax, %r15
	cmpq	$-1, %r12
	movq	%rax, %rbx
	je	.L91
	.p2align 4,,10
	.p2align 3
.L92:
	movl	$15, %ecx
	movq	%rbx, %rdi
	movq	%r14, %rax
	rep stosq
	movq	%rbx, %rdi
.LEHB7:
	call	_ZN8opendnp37CounterC1Ev@PLT
	xorl	%edi, %edi
	movb	$0, 26(%rbx)
	movb	$2, 27(%rbx)
	movw	%di, 24(%rbx)
	leaq	48(%rbx), %rdi
	movb	$0, 28(%rbx)
	movl	$0, 32(%rbx)
	movb	$2, 40(%rbx)
	call	_ZN8opendnp37CounterC1Ev@PLT
	leaq	88(%rbx), %rdi
	movb	$0, 72(%rbx)
	movb	$0, 80(%rbx)
	call	_ZN8opendnp37CounterC1Ev@PLT
.LEHE7:
	subq	$1, %r12
	movb	$0, 112(%rbx)
	addq	$120, %rbx
	cmpq	$-1, %r12
	jne	.L92
.L91:
	movzwl	8(%r13), %r12d
	movq	_ZTVN7openpal5ArrayIN8opendnp34CellINS1_17FrozenCounterSpecEEEtEE@GOTPCREL(%rip), %rax
	movq	%r15, 88(%rbp)
	addq	$16, %rax
	movq	%r12, %rdi
	movw	%r12w, 104(%rbp)
	movq	%rax, 96(%rbp)
	salq	$4, %rdi
	subq	%r12, %rdi
	salq	$3, %rdi
.LEHB8:
	call	_Znam@PLT
.LEHE8:
	subq	$1, %r12
	xorl	%r14d, %r14d
	movq	%rax, %r15
	cmpq	$-1, %r12
	movq	%rax, %rbx
	je	.L96
	.p2align 4,,10
	.p2align 3
.L97:
	movl	$15, %ecx
	movq	%rbx, %rdi
	movq	%r14, %rax
	rep stosq
	movq	%rbx, %rdi
.LEHB9:
	call	_ZN8opendnp313FrozenCounterC1Ev@PLT
	xorl	%esi, %esi
	leaq	48(%rbx), %rdi
	movb	$0, 26(%rbx)
	movw	%si, 24(%rbx)
	movb	$2, 27(%rbx)
	movb	$0, 28(%rbx)
	movl	$0, 32(%rbx)
	movb	$2, 40(%rbx)
	call	_ZN8opendnp313FrozenCounterC1Ev@PLT
	leaq	88(%rbx), %rdi
	movb	$0, 72(%rbx)
	movb	$0, 80(%rbx)
	call	_ZN8opendnp313FrozenCounterC1Ev@PLT
.LEHE9:
	subq	$1, %r12
	movb	$0, 112(%rbx)
	addq	$120, %rbx
	cmpq	$-1, %r12
	jne	.L97
.L96:
	movzwl	10(%r13), %r12d
	movq	_ZTVN7openpal5ArrayIN8opendnp34CellINS1_22BinaryOutputStatusSpecEEEtEE@GOTPCREL(%rip), %rax
	movq	%r15, 112(%rbp)
	addq	$16, %rax
	leaq	0(,%r12,8), %rdi
	movw	%r12w, 128(%rbp)
	movq	%rax, 120(%rbp)
	subq	%r12, %rdi
	salq	$4, %rdi
.LEHB10:
	call	_Znam@PLT
.LEHE10:
	subq	$1, %r12
	xorl	%r14d, %r14d
	movq	%rax, %r15
	cmpq	$-1, %r12
	movq	%rax, %rbx
	je	.L101
	.p2align 4,,10
	.p2align 3
.L102:
	movl	$14, %ecx
	movq	%rbx, %rdi
	movq	%r14, %rax
	rep stosq
	movq	%rbx, %rdi
.LEHB11:
	call	_ZN8opendnp318BinaryOutputStatusC1Ev@PLT
	xorl	%ecx, %ecx
	leaq	40(%rbx), %rdi
	movb	$0, 26(%rbx)
	movw	%cx, 24(%rbx)
	movb	$2, 27(%rbx)
	movb	$0, 28(%rbx)
	movb	$2, 32(%rbx)
	call	_ZN8opendnp318BinaryOutputStatusC1Ev@PLT
	leaq	80(%rbx), %rdi
	movb	$0, 64(%rbx)
	movb	$0, 72(%rbx)
	call	_ZN8opendnp318BinaryOutputStatusC1Ev@PLT
.LEHE11:
	subq	$1, %r12
	movb	$0, 104(%rbx)
	addq	$112, %rbx
	cmpq	$-1, %r12
	jne	.L102
.L101:
	movzwl	12(%r13), %r12d
	movq	_ZTVN7openpal5ArrayIN8opendnp34CellINS1_22AnalogOutputStatusSpecEEEtEE@GOTPCREL(%rip), %rax
	movq	%r15, 136(%rbp)
	addq	$16, %rax
	movq	%r12, %rdi
	movw	%r12w, 152(%rbp)
	movq	%rax, 144(%rbp)
	salq	$4, %rdi
	subq	%r12, %rdi
	salq	$3, %rdi
.LEHB12:
	call	_Znam@PLT
.LEHE12:
	subq	$1, %r12
	xorl	%r14d, %r14d
	movq	%rax, %r15
	cmpq	$-1, %r12
	movq	%rax, %rbx
	je	.L106
	.p2align 4,,10
	.p2align 3
.L107:
	movl	$15, %ecx
	movq	%rbx, %rdi
	movq	%r14, %rax
	rep stosq
	movq	%rbx, %rdi
.LEHB13:
	call	_ZN8opendnp318AnalogOutputStatusC1Ev@PLT
	xorl	%edx, %edx
	leaq	48(%rbx), %rdi
	movb	$0, 26(%rbx)
	movw	%dx, 24(%rbx)
	movb	$2, 27(%rbx)
	movb	$0, 28(%rbx)
	movq	$0x000000000, 32(%rbx)
	movb	$2, 40(%rbx)
	call	_ZN8opendnp318AnalogOutputStatusC1Ev@PLT
	leaq	88(%rbx), %rdi
	movb	$0, 72(%rbx)
	movb	$0, 80(%rbx)
	call	_ZN8opendnp318AnalogOutputStatusC1Ev@PLT
.LEHE13:
	subq	$1, %r12
	movb	$0, 112(%rbx)
	addq	$120, %rbx
	cmpq	$-1, %r12
	jne	.L107
.L106:
	movzwl	14(%r13), %r12d
	movq	_ZTVN7openpal5ArrayIN8opendnp34CellINS1_19TimeAndIntervalSpecEEEtEE@GOTPCREL(%rip), %r14
	movq	%r15, 160(%rbp)
	leaq	16(%r14), %rax
	leaq	0(,%r12,8), %rdi
	movw	%r12w, 176(%rbp)
	movq	%rax, 168(%rbp)
	subq	%r12, %rdi
	salq	$3, %rdi
.LEHB14:
	call	_Znam@PLT
.LEHE14:
	subq	$1, %r12
	movq	%rax, %r13
	movq	%rax, %rbx
	cmpq	$-1, %r12
	je	.L111
	.p2align 4,,10
	.p2align 3
.L112:
	pxor	%xmm0, %xmm0
	movq	$0, 48(%rbx)
	movq	%rbx, %rdi
	movups	%xmm0, (%rbx)
	movups	%xmm0, 16(%rbx)
	movups	%xmm0, 32(%rbx)
.LEHB15:
	call	_ZN8opendnp315TimeAndIntervalC1Ev@PLT
	xorl	%eax, %eax
	leaq	32(%rbx), %rdi
	movb	$0, 18(%rbx)
	movw	%ax, 16(%rbx)
	movb	$0, 24(%rbx)
	call	_ZN8opendnp315TimeAndIntervalC1Ev@PLT
.LEHE15:
	subq	$1, %r12
	movb	$0, 48(%rbx)
	addq	$56, %rbx
	cmpq	$-1, %r12
	jne	.L112
.L111:
	movq	%r13, 184(%rbp)
	movq	%rbp, %rdi
.LEHB16:
	call	_ZN8opendnp313StaticBuffers12GetArrayViewINS_10BinarySpecEEEN7openpal9ArrayViewINS_4CellIT_EEtEEv@PLT
	testw	%ax, %ax
	je	.L116
	leal	-1(%rax), %ecx
	cmpw	$6, %cx
	jbe	.L157
	movl	%eax, %r8d
	leaq	24(%rdx), %rcx
	xorl	%esi, %esi
	movdqa	.LC0(%rip), %xmm0
	shrw	$3, %r8w
	movdqa	.LC2(%rip), %xmm1
	.p2align 4,,10
	.p2align 3
.L118:
	pextrw	$0, %xmm0, %edi
	addl	$1, %esi
	addq	$896, %rcx
	movw	%di, -896(%rcx)
	pextrw	$1, %xmm0, %edi
	movw	%di, -784(%rcx)
	pextrw	$2, %xmm0, %edi
	movw	%di, -672(%rcx)
	pextrw	$3, %xmm0, %edi
	movw	%di, -560(%rcx)
	pextrw	$4, %xmm0, %edi
	movw	%di, -448(%rcx)
	pextrw	$5, %xmm0, %edi
	movw	%di, -336(%rcx)
	pextrw	$6, %xmm0, %edi
	movw	%di, -224(%rcx)
	pextrw	$7, %xmm0, %edi
	paddw	%xmm1, %xmm0
	movw	%di, -112(%rcx)
	cmpw	%si, %r8w
	ja	.L118
	movl	%eax, %ecx
	andl	$-8, %ecx
	cmpw	%cx, %ax
	je	.L116
.L117:
	movzwl	%cx, %edi
	leaq	0(,%rdi,8), %rsi
	subq	%rdi, %rsi
	leal	1(%rcx), %edi
	salq	$4, %rsi
	cmpw	%di, %ax
	movw	%cx, 24(%rdx,%rsi)
	jbe	.L116
	movzwl	%di, %r8d
	leaq	0(,%r8,8), %rsi
	subq	%r8, %rsi
	salq	$4, %rsi
	movw	%di, 24(%rdx,%rsi)
	leal	2(%rcx), %edi
	cmpw	%di, %ax
	jbe	.L116
	movzwl	%di, %r8d
	leaq	0(,%r8,8), %rsi
	subq	%r8, %rsi
	salq	$4, %rsi
	movw	%di, 24(%rdx,%rsi)
	leal	3(%rcx), %edi
	cmpw	%di, %ax
	jbe	.L116
	movzwl	%di, %r8d
	leaq	0(,%r8,8), %rsi
	subq	%r8, %rsi
	salq	$4, %rsi
	movw	%di, 24(%rdx,%rsi)
	leal	4(%rcx), %edi
	cmpw	%di, %ax
	jbe	.L116
	movzwl	%di, %r8d
	leaq	0(,%r8,8), %rsi
	subq	%r8, %rsi
	salq	$4, %rsi
	movw	%di, 24(%rdx,%rsi)
	leal	5(%rcx), %edi
	cmpw	%di, %ax
	jbe	.L116
	movzwl	%di, %r8d
	addl	$6, %ecx
	leaq	0(,%r8,8), %rsi
	subq	%r8, %rsi
	salq	$4, %rsi
	cmpw	%cx, %ax
	movw	%di, 24(%rdx,%rsi)
	jbe	.L116
	movzwl	%cx, %esi
	leaq	0(,%rsi,8), %rax
	subq	%rsi, %rax
	salq	$4, %rax
	movw	%cx, 24(%rdx,%rax)
.L116:
	movq	%rbp, %rdi
	call	_ZN8opendnp313StaticBuffers12GetArrayViewINS_19DoubleBitBinarySpecEEEN7openpal9ArrayViewINS_4CellIT_EEtEEv@PLT
	testw	%ax, %ax
	je	.L120
	leal	-1(%rax), %ecx
	cmpw	$6, %cx
	jbe	.L158
	movl	%eax, %r8d
	leaq	24(%rdx), %rcx
	xorl	%esi, %esi
	movdqa	.LC0(%rip), %xmm0
	shrw	$3, %r8w
	movdqa	.LC2(%rip), %xmm1
	.p2align 4,,10
	.p2align 3
.L122:
	pextrw	$0, %xmm0, %edi
	addl	$1, %esi
	addq	$896, %rcx
	movw	%di, -896(%rcx)
	pextrw	$1, %xmm0, %edi
	movw	%di, -784(%rcx)
	pextrw	$2, %xmm0, %edi
	movw	%di, -672(%rcx)
	pextrw	$3, %xmm0, %edi
	movw	%di, -560(%rcx)
	pextrw	$4, %xmm0, %edi
	movw	%di, -448(%rcx)
	pextrw	$5, %xmm0, %edi
	movw	%di, -336(%rcx)
	pextrw	$6, %xmm0, %edi
	movw	%di, -224(%rcx)
	pextrw	$7, %xmm0, %edi
	paddw	%xmm1, %xmm0
	movw	%di, -112(%rcx)
	cmpw	%si, %r8w
	ja	.L122
	movl	%eax, %ecx
	andl	$-8, %ecx
	cmpw	%cx, %ax
	je	.L120
.L121:
	movzwl	%cx, %edi
	leaq	0(,%rdi,8), %rsi
	subq	%rdi, %rsi
	leal	1(%rcx), %edi
	salq	$4, %rsi
	cmpw	%di, %ax
	movw	%cx, 24(%rdx,%rsi)
	jbe	.L120
	movzwl	%di, %r8d
	leaq	0(,%r8,8), %rsi
	subq	%r8, %rsi
	salq	$4, %rsi
	movw	%di, 24(%rdx,%rsi)
	leal	2(%rcx), %edi
	cmpw	%di, %ax
	jbe	.L120
	movzwl	%di, %r8d
	leaq	0(,%r8,8), %rsi
	subq	%r8, %rsi
	salq	$4, %rsi
	movw	%di, 24(%rdx,%rsi)
	leal	3(%rcx), %edi
	cmpw	%di, %ax
	jbe	.L120
	movzwl	%di, %r8d
	leaq	0(,%r8,8), %rsi
	subq	%r8, %rsi
	salq	$4, %rsi
	movw	%di, 24(%rdx,%rsi)
	leal	4(%rcx), %edi
	cmpw	%di, %ax
	jbe	.L120
	movzwl	%di, %r8d
	leaq	0(,%r8,8), %rsi
	subq	%r8, %rsi
	salq	$4, %rsi
	movw	%di, 24(%rdx,%rsi)
	leal	5(%rcx), %edi
	cmpw	%di, %ax
	jbe	.L120
	movzwl	%di, %r8d
	addl	$6, %ecx
	leaq	0(,%r8,8), %rsi
	subq	%r8, %rsi
	salq	$4, %rsi
	cmpw	%cx, %ax
	movw	%di, 24(%rdx,%rsi)
	jbe	.L120
	movzwl	%cx, %esi
	leaq	0(,%rsi,8), %rax
	subq	%rsi, %rax
	salq	$4, %rax
	movw	%cx, 24(%rdx,%rax)
.L120:
	movq	%rbp, %rdi
	call	_ZN8opendnp313StaticBuffers12GetArrayViewINS_11CounterSpecEEEN7openpal9ArrayViewINS_4CellIT_EEtEEv@PLT
	testw	%ax, %ax
	je	.L124
	leal	-1(%rax), %ecx
	cmpw	$6, %cx
	jbe	.L159
	movl	%eax, %r8d
	leaq	24(%rdx), %rcx
	xorl	%esi, %esi
	movdqa	.LC0(%rip), %xmm0
	shrw	$3, %r8w
	movdqa	.LC2(%rip), %xmm1
	.p2align 4,,10
	.p2align 3
.L126:
	pextrw	$0, %xmm0, %edi
	addl	$1, %esi
	addq	$960, %rcx
	movw	%di, -960(%rcx)
	pextrw	$1, %xmm0, %edi
	movw	%di, -840(%rcx)
	pextrw	$2, %xmm0, %edi
	movw	%di, -720(%rcx)
	pextrw	$3, %xmm0, %edi
	movw	%di, -600(%rcx)
	pextrw	$4, %xmm0, %edi
	movw	%di, -480(%rcx)
	pextrw	$5, %xmm0, %edi
	movw	%di, -360(%rcx)
	pextrw	$6, %xmm0, %edi
	movw	%di, -240(%rcx)
	pextrw	$7, %xmm0, %edi
	paddw	%xmm1, %xmm0
	movw	%di, -120(%rcx)
	cmpw	%si, %r8w
	ja	.L126
	movl	%eax, %ecx
	andl	$-8, %ecx
	cmpw	%cx, %ax
	je	.L124
.L125:
	movzwl	%cx, %edi
	movq	%rdi, %rsi
	salq	$4, %rsi
	subq	%rdi, %rsi
	movw	%cx, 24(%rdx,%rsi,8)
	leal	1(%rcx), %esi
	cmpw	%si, %ax
	jbe	.L124
	movzwl	%si, %r8d
	movq	%r8, %rdi
	salq	$4, %rdi
	subq	%r8, %rdi
	movw	%si, 24(%rdx,%rdi,8)
	leal	2(%rcx), %esi
	cmpw	%si, %ax
	jbe	.L124
	movzwl	%si, %r8d
	movq	%r8, %rdi
	salq	$4, %rdi
	subq	%r8, %rdi
	movw	%si, 24(%rdx,%rdi,8)
	leal	3(%rcx), %esi
	cmpw	%si, %ax
	jbe	.L124
	movzwl	%si, %r8d
	movq	%r8, %rdi
	salq	$4, %rdi
	subq	%r8, %rdi
	movw	%si, 24(%rdx,%rdi,8)
	leal	4(%rcx), %esi
	cmpw	%si, %ax
	jbe	.L124
	movzwl	%si, %r8d
	movq	%r8, %rdi
	salq	$4, %rdi
	subq	%r8, %rdi
	movw	%si, 24(%rdx,%rdi,8)
	leal	5(%rcx), %esi
	cmpw	%si, %ax
	jbe	.L124
	movzwl	%si, %r8d
	addl	$6, %ecx
	movq	%r8, %rdi
	salq	$4, %rdi
	subq	%r8, %rdi
	cmpw	%cx, %ax
	movw	%si, 24(%rdx,%rdi,8)
	jbe	.L124
	movzwl	%cx, %esi
	movq	%rsi, %rax
	salq	$4, %rax
	subq	%rsi, %rax
	movw	%cx, 24(%rdx,%rax,8)
.L124:
	movq	%rbp, %rdi
	call	_ZN8opendnp313StaticBuffers12GetArrayViewINS_17FrozenCounterSpecEEEN7openpal9ArrayViewINS_4CellIT_EEtEEv@PLT
	testw	%ax, %ax
	je	.L128
	leal	-1(%rax), %ecx
	cmpw	$6, %cx
	jbe	.L160
	movl	%eax, %r8d
	leaq	24(%rdx), %rcx
	xorl	%esi, %esi
	movdqa	.LC0(%rip), %xmm0
	shrw	$3, %r8w
	movdqa	.LC2(%rip), %xmm1
	.p2align 4,,10
	.p2align 3
.L130:
	pextrw	$0, %xmm0, %edi
	addl	$1, %esi
	addq	$960, %rcx
	movw	%di, -960(%rcx)
	pextrw	$1, %xmm0, %edi
	movw	%di, -840(%rcx)
	pextrw	$2, %xmm0, %edi
	movw	%di, -720(%rcx)
	pextrw	$3, %xmm0, %edi
	movw	%di, -600(%rcx)
	pextrw	$4, %xmm0, %edi
	movw	%di, -480(%rcx)
	pextrw	$5, %xmm0, %edi
	movw	%di, -360(%rcx)
	pextrw	$6, %xmm0, %edi
	movw	%di, -240(%rcx)
	pextrw	$7, %xmm0, %edi
	paddw	%xmm1, %xmm0
	movw	%di, -120(%rcx)
	cmpw	%si, %r8w
	ja	.L130
	movl	%eax, %ecx
	andl	$-8, %ecx
	cmpw	%cx, %ax
	je	.L128
.L129:
	movzwl	%cx, %edi
	movq	%rdi, %rsi
	salq	$4, %rsi
	subq	%rdi, %rsi
	movw	%cx, 24(%rdx,%rsi,8)
	leal	1(%rcx), %esi
	cmpw	%si, %ax
	jbe	.L128
	movzwl	%si, %r8d
	movq	%r8, %rdi
	salq	$4, %rdi
	subq	%r8, %rdi
	movw	%si, 24(%rdx,%rdi,8)
	leal	2(%rcx), %esi
	cmpw	%si, %ax
	jbe	.L128
	movzwl	%si, %r8d
	movq	%r8, %rdi
	salq	$4, %rdi
	subq	%r8, %rdi
	movw	%si, 24(%rdx,%rdi,8)
	leal	3(%rcx), %esi
	cmpw	%si, %ax
	jbe	.L128
	movzwl	%si, %r8d
	movq	%r8, %rdi
	salq	$4, %rdi
	subq	%r8, %rdi
	movw	%si, 24(%rdx,%rdi,8)
	leal	4(%rcx), %esi
	cmpw	%si, %ax
	jbe	.L128
	movzwl	%si, %r8d
	movq	%r8, %rdi
	salq	$4, %rdi
	subq	%r8, %rdi
	movw	%si, 24(%rdx,%rdi,8)
	leal	5(%rcx), %esi
	cmpw	%si, %ax
	jbe	.L128
	movzwl	%si, %r8d
	addl	$6, %ecx
	movq	%r8, %rdi
	salq	$4, %rdi
	subq	%r8, %rdi
	cmpw	%cx, %ax
	movw	%si, 24(%rdx,%rdi,8)
	jbe	.L128
	movzwl	%cx, %esi
	movq	%rsi, %rax
	salq	$4, %rax
	subq	%rsi, %rax
	movw	%cx, 24(%rdx,%rax,8)
.L128:
	movq	%rbp, %rdi
	call	_ZN8opendnp313StaticBuffers12GetArrayViewINS_10AnalogSpecEEEN7openpal9ArrayViewINS_4CellIT_EEtEEv@PLT
	testw	%ax, %ax
	je	.L132
	leal	-1(%rax), %ecx
	cmpw	$6, %cx
	jbe	.L161
	movl	%eax, %r8d
	leaq	24(%rdx), %rcx
	xorl	%esi, %esi
	movdqa	.LC0(%rip), %xmm0
	shrw	$3, %r8w
	movdqa	.LC2(%rip), %xmm1
	.p2align 4,,10
	.p2align 3
.L134:
	pextrw	$0, %xmm0, %edi
	addl	$1, %esi
	addq	$960, %rcx
	movw	%di, -960(%rcx)
	pextrw	$1, %xmm0, %edi
	movw	%di, -840(%rcx)
	pextrw	$2, %xmm0, %edi
	movw	%di, -720(%rcx)
	pextrw	$3, %xmm0, %edi
	movw	%di, -600(%rcx)
	pextrw	$4, %xmm0, %edi
	movw	%di, -480(%rcx)
	pextrw	$5, %xmm0, %edi
	movw	%di, -360(%rcx)
	pextrw	$6, %xmm0, %edi
	movw	%di, -240(%rcx)
	pextrw	$7, %xmm0, %edi
	paddw	%xmm1, %xmm0
	movw	%di, -120(%rcx)
	cmpw	%si, %r8w
	ja	.L134
	movl	%eax, %ecx
	andl	$-8, %ecx
	cmpw	%cx, %ax
	je	.L132
.L133:
	movzwl	%cx, %edi
	movq	%rdi, %rsi
	salq	$4, %rsi
	subq	%rdi, %rsi
	movw	%cx, 24(%rdx,%rsi,8)
	leal	1(%rcx), %esi
	cmpw	%si, %ax
	jbe	.L132
	movzwl	%si, %r8d
	movq	%r8, %rdi
	salq	$4, %rdi
	subq	%r8, %rdi
	movw	%si, 24(%rdx,%rdi,8)
	leal	2(%rcx), %esi
	cmpw	%si, %ax
	jbe	.L132
	movzwl	%si, %r8d
	movq	%r8, %rdi
	salq	$4, %rdi
	subq	%r8, %rdi
	movw	%si, 24(%rdx,%rdi,8)
	leal	3(%rcx), %esi
	cmpw	%si, %ax
	jbe	.L132
	movzwl	%si, %r8d
	movq	%r8, %rdi
	salq	$4, %rdi
	subq	%r8, %rdi
	movw	%si, 24(%rdx,%rdi,8)
	leal	4(%rcx), %esi
	cmpw	%si, %ax
	jbe	.L132
	movzwl	%si, %r8d
	movq	%r8, %rdi
	salq	$4, %rdi
	subq	%r8, %rdi
	movw	%si, 24(%rdx,%rdi,8)
	leal	5(%rcx), %esi
	cmpw	%si, %ax
	jbe	.L132
	movzwl	%si, %r8d
	addl	$6, %ecx
	movq	%r8, %rdi
	salq	$4, %rdi
	subq	%r8, %rdi
	cmpw	%cx, %ax
	movw	%si, 24(%rdx,%rdi,8)
	jbe	.L132
	movzwl	%cx, %esi
	movq	%rsi, %rax
	salq	$4, %rax
	subq	%rsi, %rax
	movw	%cx, 24(%rdx,%rax,8)
.L132:
	movq	%rbp, %rdi
	call	_ZN8opendnp313StaticBuffers12GetArrayViewINS_22BinaryOutputStatusSpecEEEN7openpal9ArrayViewINS_4CellIT_EEtEEv@PLT
	testw	%ax, %ax
	je	.L136
	leal	-1(%rax), %ecx
	cmpw	$6, %cx
	jbe	.L162
	movl	%eax, %r8d
	leaq	24(%rdx), %rcx
	xorl	%esi, %esi
	movdqa	.LC0(%rip), %xmm0
	shrw	$3, %r8w
	movdqa	.LC2(%rip), %xmm1
	.p2align 4,,10
	.p2align 3
.L138:
	pextrw	$0, %xmm0, %edi
	addl	$1, %esi
	addq	$896, %rcx
	movw	%di, -896(%rcx)
	pextrw	$1, %xmm0, %edi
	movw	%di, -784(%rcx)
	pextrw	$2, %xmm0, %edi
	movw	%di, -672(%rcx)
	pextrw	$3, %xmm0, %edi
	movw	%di, -560(%rcx)
	pextrw	$4, %xmm0, %edi
	movw	%di, -448(%rcx)
	pextrw	$5, %xmm0, %edi
	movw	%di, -336(%rcx)
	pextrw	$6, %xmm0, %edi
	movw	%di, -224(%rcx)
	pextrw	$7, %xmm0, %edi
	paddw	%xmm1, %xmm0
	movw	%di, -112(%rcx)
	cmpw	%si, %r8w
	ja	.L138
	movl	%eax, %ecx
	andl	$-8, %ecx
	cmpw	%cx, %ax
	je	.L136
.L137:
	movzwl	%cx, %edi
	leaq	0(,%rdi,8), %rsi
	subq	%rdi, %rsi
	leal	1(%rcx), %edi
	salq	$4, %rsi
	cmpw	%di, %ax
	movw	%cx, 24(%rdx,%rsi)
	jbe	.L136
	movzwl	%di, %r8d
	leaq	0(,%r8,8), %rsi
	subq	%r8, %rsi
	salq	$4, %rsi
	movw	%di, 24(%rdx,%rsi)
	leal	2(%rcx), %edi
	cmpw	%di, %ax
	jbe	.L136
	movzwl	%di, %r8d
	leaq	0(,%r8,8), %rsi
	subq	%r8, %rsi
	salq	$4, %rsi
	movw	%di, 24(%rdx,%rsi)
	leal	3(%rcx), %edi
	cmpw	%di, %ax
	jbe	.L136
	movzwl	%di, %r8d
	leaq	0(,%r8,8), %rsi
	subq	%r8, %rsi
	salq	$4, %rsi
	movw	%di, 24(%rdx,%rsi)
	leal	4(%rcx), %edi
	cmpw	%di, %ax
	jbe	.L136
	movzwl	%di, %r8d
	leaq	0(,%r8,8), %rsi
	subq	%r8, %rsi
	salq	$4, %rsi
	movw	%di, 24(%rdx,%rsi)
	leal	5(%rcx), %edi
	cmpw	%di, %ax
	jbe	.L136
	movzwl	%di, %r8d
	addl	$6, %ecx
	leaq	0(,%r8,8), %rsi
	subq	%r8, %rsi
	salq	$4, %rsi
	cmpw	%cx, %ax
	movw	%di, 24(%rdx,%rsi)
	jbe	.L136
	movzwl	%cx, %esi
	leaq	0(,%rsi,8), %rax
	subq	%rsi, %rax
	salq	$4, %rax
	movw	%cx, 24(%rdx,%rax)
.L136:
	movq	%rbp, %rdi
	call	_ZN8opendnp313StaticBuffers12GetArrayViewINS_22AnalogOutputStatusSpecEEEN7openpal9ArrayViewINS_4CellIT_EEtEEv@PLT
	testw	%ax, %ax
	je	.L140
	leal	-1(%rax), %ecx
	cmpw	$6, %cx
	jbe	.L163
	movl	%eax, %r8d
	leaq	24(%rdx), %rcx
	xorl	%esi, %esi
	movdqa	.LC0(%rip), %xmm0
	shrw	$3, %r8w
	movdqa	.LC2(%rip), %xmm1
	.p2align 4,,10
	.p2align 3
.L142:
	pextrw	$0, %xmm0, %edi
	addl	$1, %esi
	addq	$960, %rcx
	movw	%di, -960(%rcx)
	pextrw	$1, %xmm0, %edi
	movw	%di, -840(%rcx)
	pextrw	$2, %xmm0, %edi
	movw	%di, -720(%rcx)
	pextrw	$3, %xmm0, %edi
	movw	%di, -600(%rcx)
	pextrw	$4, %xmm0, %edi
	movw	%di, -480(%rcx)
	pextrw	$5, %xmm0, %edi
	movw	%di, -360(%rcx)
	pextrw	$6, %xmm0, %edi
	movw	%di, -240(%rcx)
	pextrw	$7, %xmm0, %edi
	paddw	%xmm1, %xmm0
	movw	%di, -120(%rcx)
	cmpw	%si, %r8w
	ja	.L142
	movl	%eax, %ecx
	andl	$-8, %ecx
	cmpw	%ax, %cx
	je	.L140
.L141:
	movzwl	%cx, %edi
	movq	%rdi, %rsi
	salq	$4, %rsi
	subq	%rdi, %rsi
	movw	%cx, 24(%rdx,%rsi,8)
	leal	1(%rcx), %esi
	cmpw	%si, %ax
	jbe	.L140
	movzwl	%si, %r8d
	movq	%r8, %rdi
	salq	$4, %rdi
	subq	%r8, %rdi
	movw	%si, 24(%rdx,%rdi,8)
	leal	2(%rcx), %esi
	cmpw	%si, %ax
	jbe	.L140
	movzwl	%si, %r8d
	movq	%r8, %rdi
	salq	$4, %rdi
	subq	%r8, %rdi
	movw	%si, 24(%rdx,%rdi,8)
	leal	3(%rcx), %esi
	cmpw	%si, %ax
	jbe	.L140
	movzwl	%si, %r8d
	movq	%r8, %rdi
	salq	$4, %rdi
	subq	%r8, %rdi
	movw	%si, 24(%rdx,%rdi,8)
	leal	4(%rcx), %esi
	cmpw	%ax, %si
	jnb	.L140
	movzwl	%si, %r8d
	movq	%r8, %rdi
	salq	$4, %rdi
	subq	%r8, %rdi
	movw	%si, 24(%rdx,%rdi,8)
	leal	5(%rcx), %esi
	cmpw	%si, %ax
	jbe	.L140
	movzwl	%si, %r8d
	addl	$6, %ecx
	movq	%r8, %rdi
	salq	$4, %rdi
	subq	%r8, %rdi
	cmpw	%ax, %cx
	movw	%si, 24(%rdx,%rdi,8)
	jnb	.L140
	movzwl	%cx, %esi
	movq	%rsi, %rax
	salq	$4, %rax
	subq	%rsi, %rax
	movw	%cx, 24(%rdx,%rax,8)
.L140:
	movq	%rbp, %rdi
	call	_ZN8opendnp313StaticBuffers12GetArrayViewINS_19TimeAndIntervalSpecEEEN7openpal9ArrayViewINS_4CellIT_EEtEEv@PLT
.LEHE16:
	testw	%ax, %ax
	je	.L76
	leal	-1(%rax), %ecx
	cmpw	$6, %cx
	jbe	.L164
	movl	%eax, %r8d
	leaq	16(%rdx), %rcx
	xorl	%esi, %esi
	movdqa	.LC0(%rip), %xmm0
	shrw	$3, %r8w
	movdqa	.LC2(%rip), %xmm1
	.p2align 4,,10
	.p2align 3
.L146:
	pextrw	$0, %xmm0, %edi
	addl	$1, %esi
	addq	$448, %rcx
	movw	%di, -448(%rcx)
	pextrw	$1, %xmm0, %edi
	movw	%di, -392(%rcx)
	pextrw	$2, %xmm0, %edi
	movw	%di, -336(%rcx)
	pextrw	$3, %xmm0, %edi
	movw	%di, -280(%rcx)
	pextrw	$4, %xmm0, %edi
	movw	%di, -224(%rcx)
	pextrw	$5, %xmm0, %edi
	movw	%di, -168(%rcx)
	pextrw	$6, %xmm0, %edi
	movw	%di, -112(%rcx)
	pextrw	$7, %xmm0, %edi
	paddw	%xmm1, %xmm0
	movw	%di, -56(%rcx)
	cmpw	%si, %r8w
	ja	.L146
	movl	%eax, %ecx
	andl	$-8, %ecx
	cmpw	%cx, %ax
	je	.L76
.L145:
	movzwl	%cx, %edi
	leaq	0(,%rdi,8), %rsi
	subq	%rdi, %rsi
	movw	%cx, 16(%rdx,%rsi,8)
	leal	1(%rcx), %esi
	cmpw	%si, %ax
	jbe	.L76
	movzwl	%si, %r8d
	leaq	0(,%r8,8), %rdi
	subq	%r8, %rdi
	movw	%si, 16(%rdx,%rdi,8)
	leal	2(%rcx), %esi
	cmpw	%si, %ax
	jbe	.L76
	movzwl	%si, %r8d
	leaq	0(,%r8,8), %rdi
	subq	%r8, %rdi
	movw	%si, 16(%rdx,%rdi,8)
	leal	3(%rcx), %esi
	cmpw	%si, %ax
	jbe	.L76
	movzwl	%si, %r8d
	leaq	0(,%r8,8), %rdi
	subq	%r8, %rdi
	movw	%si, 16(%rdx,%rdi,8)
	leal	4(%rcx), %esi
	cmpw	%si, %ax
	jbe	.L76
	movzwl	%si, %r8d
	leaq	0(,%r8,8), %rdi
	subq	%r8, %rdi
	movw	%si, 16(%rdx,%rdi,8)
	leal	5(%rcx), %esi
	cmpw	%si, %ax
	jbe	.L76
	movzwl	%si, %r8d
	addl	$6, %ecx
	leaq	0(,%r8,8), %rdi
	subq	%r8, %rdi
	cmpw	%cx, %ax
	movw	%si, 16(%rdx,%rdi,8)
	jbe	.L76
	movzwl	%cx, %esi
	leaq	0(,%rsi,8), %rax
	subq	%rsi, %rax
	movw	%cx, 16(%rdx,%rax,8)
.L76:
	addq	$8, %rsp
	.cfi_remember_state
	.cfi_def_cfa_offset 56
	popq	%rbx
	.cfi_def_cfa_offset 48
	popq	%rbp
	.cfi_def_cfa_offset 40
	popq	%r12
	.cfi_def_cfa_offset 32
	popq	%r13
	.cfi_def_cfa_offset 24
	popq	%r14
	.cfi_def_cfa_offset 16
	popq	%r15
	.cfi_def_cfa_offset 8
	ret
	.p2align 4,,10
	.p2align 3
.L158:
	.cfi_restore_state
	xorl	%ecx, %ecx
	jmp	.L121
	.p2align 4,,10
	.p2align 3
.L163:
	xorl	%ecx, %ecx
	jmp	.L141
	.p2align 4,,10
	.p2align 3
.L164:
	xorl	%ecx, %ecx
	jmp	.L145
	.p2align 4,,10
	.p2align 3
.L161:
	xorl	%ecx, %ecx
	jmp	.L133
	.p2align 4,,10
	.p2align 3
.L162:
	xorl	%ecx, %ecx
	jmp	.L137
	.p2align 4,,10
	.p2align 3
.L159:
	xorl	%ecx, %ecx
	jmp	.L125
	.p2align 4,,10
	.p2align 3
.L160:
	xorl	%ecx, %ecx
	jmp	.L129
	.p2align 4,,10
	.p2align 3
.L157:
	xorl	%ecx, %ecx
	jmp	.L117
.L166:
	movq	%rax, %rbx
.L90:
	movq	_ZTVN7openpal5ArrayIN8opendnp34CellINS1_19DoubleBitBinarySpecEEEtEE@GOTPCREL(%rip), %rax
	movq	40(%rbp), %rdi
	addq	$16, %rax
	testq	%rdi, %rdi
	movq	%rax, 24(%rbp)
	je	.L85
	call	_ZdaPv@PLT
.L85:
	movq	_ZTVN7openpal5ArrayIN8opendnp34CellINS1_10BinarySpecEEEtEE@GOTPCREL(%rip), %rax
	movq	16(%rbp), %rdi
	addq	$16, %rax
	testq	%rdi, %rdi
	movq	%rax, 0(%rbp)
	je	.L156
	call	_ZdaPv@PLT
.L156:
	movq	%rbx, %rdi
.LEHB17:
	call	_Unwind_Resume@PLT
.L180:
	movq	%r13, %rdi
	movq	%rax, %rbx
	call	_ZdaPv@PLT
.L115:
	movq	_ZTVN7openpal5ArrayIN8opendnp34CellINS1_22AnalogOutputStatusSpecEEEtEE@GOTPCREL(%rip), %rax
	movq	160(%rbp), %rdi
	addq	$16, %rax
	testq	%rdi, %rdi
	movq	%rax, 144(%rbp)
	je	.L110
	call	_ZdaPv@PLT
.L110:
	movq	_ZTVN7openpal5ArrayIN8opendnp34CellINS1_22BinaryOutputStatusSpecEEEtEE@GOTPCREL(%rip), %rax
	movq	136(%rbp), %rdi
	addq	$16, %rax
	testq	%rdi, %rdi
	movq	%rax, 120(%rbp)
	je	.L105
	call	_ZdaPv@PLT
.L105:
	movq	_ZTVN7openpal5ArrayIN8opendnp34CellINS1_17FrozenCounterSpecEEEtEE@GOTPCREL(%rip), %rax
	movq	112(%rbp), %rdi
	addq	$16, %rax
	testq	%rdi, %rdi
	movq	%rax, 96(%rbp)
	je	.L100
	call	_ZdaPv@PLT
.L100:
	movq	_ZTVN7openpal5ArrayIN8opendnp34CellINS1_11CounterSpecEEEtEE@GOTPCREL(%rip), %rax
	movq	88(%rbp), %rdi
	addq	$16, %rax
	testq	%rdi, %rdi
	movq	%rax, 72(%rbp)
	je	.L95
	call	_ZdaPv@PLT
.L95:
	movq	_ZTVN7openpal5ArrayIN8opendnp34CellINS1_10AnalogSpecEEEtEE@GOTPCREL(%rip), %rax
	movq	64(%rbp), %rdi
	addq	$16, %rax
	testq	%rdi, %rdi
	movq	%rax, 48(%rbp)
	je	.L90
	call	_ZdaPv@PLT
	jmp	.L90
.L171:
	movq	%rax, %rbx
	jmp	.L115
.L179:
	movq	%r15, %rdi
	movq	%rax, %rbx
	call	_ZdaPv@PLT
	jmp	.L110
.L170:
	movq	%rax, %rbx
	jmp	.L110
.L178:
	movq	%r15, %rdi
	movq	%rax, %rbx
	call	_ZdaPv@PLT
	jmp	.L105
.L169:
	movq	%rax, %rbx
	jmp	.L105
.L177:
	movq	%r15, %rdi
	movq	%rax, %rbx
	call	_ZdaPv@PLT
	jmp	.L100
.L168:
	movq	%rax, %rbx
	jmp	.L100
.L172:
	movq	184(%rbp), %rdi
	movq	%rax, %rbx
	leaq	16(%r14), %rax
	movq	%rax, 168(%rbp)
	testq	%rdi, %rdi
	je	.L115
	call	_ZdaPv@PLT
	jmp	.L115
.L174:
	movq	%rax, %rbx
	movq	%r15, %rdi
	call	_ZdaPv@PLT
	movq	%rbx, %rdi
	call	_Unwind_Resume@PLT
.LEHE17:
.L173:
	movq	%r15, %rdi
	movq	%rax, %rbx
	call	_ZdaPv@PLT
	jmp	.L85
.L165:
	movq	%rax, %rbx
	jmp	.L85
.L176:
	movq	%r15, %rdi
	movq	%rax, %rbx
	call	_ZdaPv@PLT
	jmp	.L95
.L167:
	movq	%rax, %rbx
	jmp	.L95
.L175:
	movq	%r15, %rdi
	movq	%rax, %rbx
	call	_ZdaPv@PLT
	jmp	.L90
	.cfi_endproc
.LFE173:
	.globl	__gxx_personality_v0
	.section	.gcc_except_table,"a",@progbits
.LLSDA173:
	.byte	0xff
	.byte	0xff
	.byte	0x1
	.uleb128 .LLSDACSE173-.LLSDACSB173
.LLSDACSB173:
	.uleb128 .LEHB0-.LFB173
	.uleb128 .LEHE0-.LEHB0
	.uleb128 0
	.uleb128 0
	.uleb128 .LEHB1-.LFB173
	.uleb128 .LEHE1-.LEHB1
	.uleb128 .L174-.LFB173
	.uleb128 0
	.uleb128 .LEHB2-.LFB173
	.uleb128 .LEHE2-.LEHB2
	.uleb128 .L165-.LFB173
	.uleb128 0
	.uleb128 .LEHB3-.LFB173
	.uleb128 .LEHE3-.LEHB3
	.uleb128 .L173-.LFB173
	.uleb128 0
	.uleb128 .LEHB4-.LFB173
	.uleb128 .LEHE4-.LEHB4
	.uleb128 .L166-.LFB173
	.uleb128 0
	.uleb128 .LEHB5-.LFB173
	.uleb128 .LEHE5-.LEHB5
	.uleb128 .L175-.LFB173
	.uleb128 0
	.uleb128 .LEHB6-.LFB173
	.uleb128 .LEHE6-.LEHB6
	.uleb128 .L167-.LFB173
	.uleb128 0
	.uleb128 .LEHB7-.LFB173
	.uleb128 .LEHE7-.LEHB7
	.uleb128 .L176-.LFB173
	.uleb128 0
	.uleb128 .LEHB8-.LFB173
	.uleb128 .LEHE8-.LEHB8
	.uleb128 .L168-.LFB173
	.uleb128 0
	.uleb128 .LEHB9-.LFB173
	.uleb128 .LEHE9-.LEHB9
	.uleb128 .L177-.LFB173
	.uleb128 0
	.uleb128 .LEHB10-.LFB173
	.uleb128 .LEHE10-.LEHB10
	.uleb128 .L169-.LFB173
	.uleb128 0
	.uleb128 .LEHB11-.LFB173
	.uleb128 .LEHE11-.LEHB11
	.uleb128 .L178-.LFB173
	.uleb128 0
	.uleb128 .LEHB12-.LFB173
	.uleb128 .LEHE12-.LEHB12
	.uleb128 .L170-.LFB173
	.uleb128 0
	.uleb128 .LEHB13-.LFB173
	.uleb128 .LEHE13-.LEHB13
	.uleb128 .L179-.LFB173
	.uleb128 0
	.uleb128 .LEHB14-.LFB173
	.uleb128 .LEHE14-.LEHB14
	.uleb128 .L171-.LFB173
	.uleb128 0
	.uleb128 .LEHB15-.LFB173
	.uleb128 .LEHE15-.LEHB15
	.uleb128 .L180-.LFB173
	.uleb128 0
	.uleb128 .LEHB16-.LFB173
	.uleb128 .LEHE16-.LEHB16
	.uleb128 .L172-.LFB173
	.uleb128 0
	.uleb128 .LEHB17-.LFB173
	.uleb128 .LEHE17-.LEHB17
	.uleb128 0
	.uleb128 0
.LLSDACSE173:
	.text
	.size	_ZN8opendnp313StaticBuffersC2ERKNS_13DatabaseSizesE, .-_ZN8opendnp313StaticBuffersC2ERKNS_13DatabaseSizesE
	.globl	_ZN8opendnp313StaticBuffersC1ERKNS_13DatabaseSizesE
	.set	_ZN8opendnp313StaticBuffersC1ERKNS_13DatabaseSizesE,_ZN8opendnp313StaticBuffersC2ERKNS_13DatabaseSizesE
	.weak	_ZTSN7openpal7HasSizeItEE
	.section	.rodata._ZTSN7openpal7HasSizeItEE,"aG",@progbits,_ZTSN7openpal7HasSizeItEE,comdat
	.align 16
	.type	_ZTSN7openpal7HasSizeItEE, @object
	.size	_ZTSN7openpal7HasSizeItEE, 22
_ZTSN7openpal7HasSizeItEE:
	.string	"N7openpal7HasSizeItEE"
	.weak	_ZTIN7openpal7HasSizeItEE
	.section	.data.rel.ro._ZTIN7openpal7HasSizeItEE,"awG",@progbits,_ZTIN7openpal7HasSizeItEE,comdat
	.align 8
	.type	_ZTIN7openpal7HasSizeItEE, @object
	.size	_ZTIN7openpal7HasSizeItEE, 16
_ZTIN7openpal7HasSizeItEE:
	.quad	_ZTVN10__cxxabiv117__class_type_infoE+16
	.quad	_ZTSN7openpal7HasSizeItEE
	.weak	_ZTSN7openpal5ArrayIN8opendnp34CellINS1_10BinarySpecEEEtEE
	.section	.rodata._ZTSN7openpal5ArrayIN8opendnp34CellINS1_10BinarySpecEEEtEE,"aG",@progbits,_ZTSN7openpal5ArrayIN8opendnp34CellINS1_10BinarySpecEEEtEE,comdat
	.align 32
	.type	_ZTSN7openpal5ArrayIN8opendnp34CellINS1_10BinarySpecEEEtEE, @object
	.size	_ZTSN7openpal5ArrayIN8opendnp34CellINS1_10BinarySpecEEEtEE, 55
_ZTSN7openpal5ArrayIN8opendnp34CellINS1_10BinarySpecEEEtEE:
	.string	"N7openpal5ArrayIN8opendnp34CellINS1_10BinarySpecEEEtEE"
	.weak	_ZTIN7openpal5ArrayIN8opendnp34CellINS1_10BinarySpecEEEtEE
	.section	.data.rel.ro._ZTIN7openpal5ArrayIN8opendnp34CellINS1_10BinarySpecEEEtEE,"awG",@progbits,_ZTIN7openpal5ArrayIN8opendnp34CellINS1_10BinarySpecEEEtEE,comdat
	.align 8
	.type	_ZTIN7openpal5ArrayIN8opendnp34CellINS1_10BinarySpecEEEtEE, @object
	.size	_ZTIN7openpal5ArrayIN8opendnp34CellINS1_10BinarySpecEEEtEE, 40
_ZTIN7openpal5ArrayIN8opendnp34CellINS1_10BinarySpecEEEtEE:
	.quad	_ZTVN10__cxxabiv121__vmi_class_type_infoE+16
	.quad	_ZTSN7openpal5ArrayIN8opendnp34CellINS1_10BinarySpecEEEtEE
	.long	0
	.long	1
	.quad	_ZTIN7openpal7HasSizeItEE
	.quad	2050
	.weak	_ZTSN7openpal5ArrayIN8opendnp34CellINS1_19DoubleBitBinarySpecEEEtEE
	.section	.rodata._ZTSN7openpal5ArrayIN8opendnp34CellINS1_19DoubleBitBinarySpecEEEtEE,"aG",@progbits,_ZTSN7openpal5ArrayIN8opendnp34CellINS1_19DoubleBitBinarySpecEEEtEE,comdat
	.align 32
	.type	_ZTSN7openpal5ArrayIN8opendnp34CellINS1_19DoubleBitBinarySpecEEEtEE, @object
	.size	_ZTSN7openpal5ArrayIN8opendnp34CellINS1_19DoubleBitBinarySpecEEEtEE, 64
_ZTSN7openpal5ArrayIN8opendnp34CellINS1_19DoubleBitBinarySpecEEEtEE:
	.string	"N7openpal5ArrayIN8opendnp34CellINS1_19DoubleBitBinarySpecEEEtEE"
	.weak	_ZTIN7openpal5ArrayIN8opendnp34CellINS1_19DoubleBitBinarySpecEEEtEE
	.section	.data.rel.ro._ZTIN7openpal5ArrayIN8opendnp34CellINS1_19DoubleBitBinarySpecEEEtEE,"awG",@progbits,_ZTIN7openpal5ArrayIN8opendnp34CellINS1_19DoubleBitBinarySpecEEEtEE,comdat
	.align 8
	.type	_ZTIN7openpal5ArrayIN8opendnp34CellINS1_19DoubleBitBinarySpecEEEtEE, @object
	.size	_ZTIN7openpal5ArrayIN8opendnp34CellINS1_19DoubleBitBinarySpecEEEtEE, 40
_ZTIN7openpal5ArrayIN8opendnp34CellINS1_19DoubleBitBinarySpecEEEtEE:
	.quad	_ZTVN10__cxxabiv121__vmi_class_type_infoE+16
	.quad	_ZTSN7openpal5ArrayIN8opendnp34CellINS1_19DoubleBitBinarySpecEEEtEE
	.long	0
	.long	1
	.quad	_ZTIN7openpal7HasSizeItEE
	.quad	2050
	.weak	_ZTSN7openpal5ArrayIN8opendnp34CellINS1_10AnalogSpecEEEtEE
	.section	.rodata._ZTSN7openpal5ArrayIN8opendnp34CellINS1_10AnalogSpecEEEtEE,"aG",@progbits,_ZTSN7openpal5ArrayIN8opendnp34CellINS1_10AnalogSpecEEEtEE,comdat
	.align 32
	.type	_ZTSN7openpal5ArrayIN8opendnp34CellINS1_10AnalogSpecEEEtEE, @object
	.size	_ZTSN7openpal5ArrayIN8opendnp34CellINS1_10AnalogSpecEEEtEE, 55
_ZTSN7openpal5ArrayIN8opendnp34CellINS1_10AnalogSpecEEEtEE:
	.string	"N7openpal5ArrayIN8opendnp34CellINS1_10AnalogSpecEEEtEE"
	.weak	_ZTIN7openpal5ArrayIN8opendnp34CellINS1_10AnalogSpecEEEtEE
	.section	.data.rel.ro._ZTIN7openpal5ArrayIN8opendnp34CellINS1_10AnalogSpecEEEtEE,"awG",@progbits,_ZTIN7openpal5ArrayIN8opendnp34CellINS1_10AnalogSpecEEEtEE,comdat
	.align 8
	.type	_ZTIN7openpal5ArrayIN8opendnp34CellINS1_10AnalogSpecEEEtEE, @object
	.size	_ZTIN7openpal5ArrayIN8opendnp34CellINS1_10AnalogSpecEEEtEE, 40
_ZTIN7openpal5ArrayIN8opendnp34CellINS1_10AnalogSpecEEEtEE:
	.quad	_ZTVN10__cxxabiv121__vmi_class_type_infoE+16
	.quad	_ZTSN7openpal5ArrayIN8opendnp34CellINS1_10AnalogSpecEEEtEE
	.long	0
	.long	1
	.quad	_ZTIN7openpal7HasSizeItEE
	.quad	2050
	.weak	_ZTSN7openpal5ArrayIN8opendnp34CellINS1_11CounterSpecEEEtEE
	.section	.rodata._ZTSN7openpal5ArrayIN8opendnp34CellINS1_11CounterSpecEEEtEE,"aG",@progbits,_ZTSN7openpal5ArrayIN8opendnp34CellINS1_11CounterSpecEEEtEE,comdat
	.align 32
	.type	_ZTSN7openpal5ArrayIN8opendnp34CellINS1_11CounterSpecEEEtEE, @object
	.size	_ZTSN7openpal5ArrayIN8opendnp34CellINS1_11CounterSpecEEEtEE, 56
_ZTSN7openpal5ArrayIN8opendnp34CellINS1_11CounterSpecEEEtEE:
	.string	"N7openpal5ArrayIN8opendnp34CellINS1_11CounterSpecEEEtEE"
	.weak	_ZTIN7openpal5ArrayIN8opendnp34CellINS1_11CounterSpecEEEtEE
	.section	.data.rel.ro._ZTIN7openpal5ArrayIN8opendnp34CellINS1_11CounterSpecEEEtEE,"awG",@progbits,_ZTIN7openpal5ArrayIN8opendnp34CellINS1_11CounterSpecEEEtEE,comdat
	.align 8
	.type	_ZTIN7openpal5ArrayIN8opendnp34CellINS1_11CounterSpecEEEtEE, @object
	.size	_ZTIN7openpal5ArrayIN8opendnp34CellINS1_11CounterSpecEEEtEE, 40
_ZTIN7openpal5ArrayIN8opendnp34CellINS1_11CounterSpecEEEtEE:
	.quad	_ZTVN10__cxxabiv121__vmi_class_type_infoE+16
	.quad	_ZTSN7openpal5ArrayIN8opendnp34CellINS1_11CounterSpecEEEtEE
	.long	0
	.long	1
	.quad	_ZTIN7openpal7HasSizeItEE
	.quad	2050
	.weak	_ZTSN7openpal5ArrayIN8opendnp34CellINS1_17FrozenCounterSpecEEEtEE
	.section	.rodata._ZTSN7openpal5ArrayIN8opendnp34CellINS1_17FrozenCounterSpecEEEtEE,"aG",@progbits,_ZTSN7openpal5ArrayIN8opendnp34CellINS1_17FrozenCounterSpecEEEtEE,comdat
	.align 32
	.type	_ZTSN7openpal5ArrayIN8opendnp34CellINS1_17FrozenCounterSpecEEEtEE, @object
	.size	_ZTSN7openpal5ArrayIN8opendnp34CellINS1_17FrozenCounterSpecEEEtEE, 62
_ZTSN7openpal5ArrayIN8opendnp34CellINS1_17FrozenCounterSpecEEEtEE:
	.string	"N7openpal5ArrayIN8opendnp34CellINS1_17FrozenCounterSpecEEEtEE"
	.weak	_ZTIN7openpal5ArrayIN8opendnp34CellINS1_17FrozenCounterSpecEEEtEE
	.section	.data.rel.ro._ZTIN7openpal5ArrayIN8opendnp34CellINS1_17FrozenCounterSpecEEEtEE,"awG",@progbits,_ZTIN7openpal5ArrayIN8opendnp34CellINS1_17FrozenCounterSpecEEEtEE,comdat
	.align 8
	.type	_ZTIN7openpal5ArrayIN8opendnp34CellINS1_17FrozenCounterSpecEEEtEE, @object
	.size	_ZTIN7openpal5ArrayIN8opendnp34CellINS1_17FrozenCounterSpecEEEtEE, 40
_ZTIN7openpal5ArrayIN8opendnp34CellINS1_17FrozenCounterSpecEEEtEE:
	.quad	_ZTVN10__cxxabiv121__vmi_class_type_infoE+16
	.quad	_ZTSN7openpal5ArrayIN8opendnp34CellINS1_17FrozenCounterSpecEEEtEE
	.long	0
	.long	1
	.quad	_ZTIN7openpal7HasSizeItEE
	.quad	2050
	.weak	_ZTSN7openpal5ArrayIN8opendnp34CellINS1_22BinaryOutputStatusSpecEEEtEE
	.section	.rodata._ZTSN7openpal5ArrayIN8opendnp34CellINS1_22BinaryOutputStatusSpecEEEtEE,"aG",@progbits,_ZTSN7openpal5ArrayIN8opendnp34CellINS1_22BinaryOutputStatusSpecEEEtEE,comdat
	.align 32
	.type	_ZTSN7openpal5ArrayIN8opendnp34CellINS1_22BinaryOutputStatusSpecEEEtEE, @object
	.size	_ZTSN7openpal5ArrayIN8opendnp34CellINS1_22BinaryOutputStatusSpecEEEtEE, 67
_ZTSN7openpal5ArrayIN8opendnp34CellINS1_22BinaryOutputStatusSpecEEEtEE:
	.string	"N7openpal5ArrayIN8opendnp34CellINS1_22BinaryOutputStatusSpecEEEtEE"
	.weak	_ZTIN7openpal5ArrayIN8opendnp34CellINS1_22BinaryOutputStatusSpecEEEtEE
	.section	.data.rel.ro._ZTIN7openpal5ArrayIN8opendnp34CellINS1_22BinaryOutputStatusSpecEEEtEE,"awG",@progbits,_ZTIN7openpal5ArrayIN8opendnp34CellINS1_22BinaryOutputStatusSpecEEEtEE,comdat
	.align 8
	.type	_ZTIN7openpal5ArrayIN8opendnp34CellINS1_22BinaryOutputStatusSpecEEEtEE, @object
	.size	_ZTIN7openpal5ArrayIN8opendnp34CellINS1_22BinaryOutputStatusSpecEEEtEE, 40
_ZTIN7openpal5ArrayIN8opendnp34CellINS1_22BinaryOutputStatusSpecEEEtEE:
	.quad	_ZTVN10__cxxabiv121__vmi_class_type_infoE+16
	.quad	_ZTSN7openpal5ArrayIN8opendnp34CellINS1_22BinaryOutputStatusSpecEEEtEE
	.long	0
	.long	1
	.quad	_ZTIN7openpal7HasSizeItEE
	.quad	2050
	.weak	_ZTSN7openpal5ArrayIN8opendnp34CellINS1_22AnalogOutputStatusSpecEEEtEE
	.section	.rodata._ZTSN7openpal5ArrayIN8opendnp34CellINS1_22AnalogOutputStatusSpecEEEtEE,"aG",@progbits,_ZTSN7openpal5ArrayIN8opendnp34CellINS1_22AnalogOutputStatusSpecEEEtEE,comdat
	.align 32
	.type	_ZTSN7openpal5ArrayIN8opendnp34CellINS1_22AnalogOutputStatusSpecEEEtEE, @object
	.size	_ZTSN7openpal5ArrayIN8opendnp34CellINS1_22AnalogOutputStatusSpecEEEtEE, 67
_ZTSN7openpal5ArrayIN8opendnp34CellINS1_22AnalogOutputStatusSpecEEEtEE:
	.string	"N7openpal5ArrayIN8opendnp34CellINS1_22AnalogOutputStatusSpecEEEtEE"
	.weak	_ZTIN7openpal5ArrayIN8opendnp34CellINS1_22AnalogOutputStatusSpecEEEtEE
	.section	.data.rel.ro._ZTIN7openpal5ArrayIN8opendnp34CellINS1_22AnalogOutputStatusSpecEEEtEE,"awG",@progbits,_ZTIN7openpal5ArrayIN8opendnp34CellINS1_22AnalogOutputStatusSpecEEEtEE,comdat
	.align 8
	.type	_ZTIN7openpal5ArrayIN8opendnp34CellINS1_22AnalogOutputStatusSpecEEEtEE, @object
	.size	_ZTIN7openpal5ArrayIN8opendnp34CellINS1_22AnalogOutputStatusSpecEEEtEE, 40
_ZTIN7openpal5ArrayIN8opendnp34CellINS1_22AnalogOutputStatusSpecEEEtEE:
	.quad	_ZTVN10__cxxabiv121__vmi_class_type_infoE+16
	.quad	_ZTSN7openpal5ArrayIN8opendnp34CellINS1_22AnalogOutputStatusSpecEEEtEE
	.long	0
	.long	1
	.quad	_ZTIN7openpal7HasSizeItEE
	.quad	2050
	.weak	_ZTSN7openpal5ArrayIN8opendnp34CellINS1_19TimeAndIntervalSpecEEEtEE
	.section	.rodata._ZTSN7openpal5ArrayIN8opendnp34CellINS1_19TimeAndIntervalSpecEEEtEE,"aG",@progbits,_ZTSN7openpal5ArrayIN8opendnp34CellINS1_19TimeAndIntervalSpecEEEtEE,comdat
	.align 32
	.type	_ZTSN7openpal5ArrayIN8opendnp34CellINS1_19TimeAndIntervalSpecEEEtEE, @object
	.size	_ZTSN7openpal5ArrayIN8opendnp34CellINS1_19TimeAndIntervalSpecEEEtEE, 64
_ZTSN7openpal5ArrayIN8opendnp34CellINS1_19TimeAndIntervalSpecEEEtEE:
	.string	"N7openpal5ArrayIN8opendnp34CellINS1_19TimeAndIntervalSpecEEEtEE"
	.weak	_ZTIN7openpal5ArrayIN8opendnp34CellINS1_19TimeAndIntervalSpecEEEtEE
	.section	.data.rel.ro._ZTIN7openpal5ArrayIN8opendnp34CellINS1_19TimeAndIntervalSpecEEEtEE,"awG",@progbits,_ZTIN7openpal5ArrayIN8opendnp34CellINS1_19TimeAndIntervalSpecEEEtEE,comdat
	.align 8
	.type	_ZTIN7openpal5ArrayIN8opendnp34CellINS1_19TimeAndIntervalSpecEEEtEE, @object
	.size	_ZTIN7openpal5ArrayIN8opendnp34CellINS1_19TimeAndIntervalSpecEEEtEE, 40
_ZTIN7openpal5ArrayIN8opendnp34CellINS1_19TimeAndIntervalSpecEEEtEE:
	.quad	_ZTVN10__cxxabiv121__vmi_class_type_infoE+16
	.quad	_ZTSN7openpal5ArrayIN8opendnp34CellINS1_19TimeAndIntervalSpecEEEtEE
	.long	0
	.long	1
	.quad	_ZTIN7openpal7HasSizeItEE
	.quad	2050
	.weak	_ZTVN7openpal5ArrayIN8opendnp34CellINS1_10BinarySpecEEEtEE
	.section	.data.rel.ro._ZTVN7openpal5ArrayIN8opendnp34CellINS1_10BinarySpecEEEtEE,"awG",@progbits,_ZTVN7openpal5ArrayIN8opendnp34CellINS1_10BinarySpecEEEtEE,comdat
	.align 8
	.type	_ZTVN7openpal5ArrayIN8opendnp34CellINS1_10BinarySpecEEEtEE, @object
	.size	_ZTVN7openpal5ArrayIN8opendnp34CellINS1_10BinarySpecEEEtEE, 32
_ZTVN7openpal5ArrayIN8opendnp34CellINS1_10BinarySpecEEEtEE:
	.quad	0
	.quad	_ZTIN7openpal5ArrayIN8opendnp34CellINS1_10BinarySpecEEEtEE
	.quad	_ZN7openpal5ArrayIN8opendnp34CellINS1_10BinarySpecEEEtED1Ev
	.quad	_ZN7openpal5ArrayIN8opendnp34CellINS1_10BinarySpecEEEtED0Ev
	.weak	_ZTVN7openpal5ArrayIN8opendnp34CellINS1_19DoubleBitBinarySpecEEEtEE
	.section	.data.rel.ro._ZTVN7openpal5ArrayIN8opendnp34CellINS1_19DoubleBitBinarySpecEEEtEE,"awG",@progbits,_ZTVN7openpal5ArrayIN8opendnp34CellINS1_19DoubleBitBinarySpecEEEtEE,comdat
	.align 8
	.type	_ZTVN7openpal5ArrayIN8opendnp34CellINS1_19DoubleBitBinarySpecEEEtEE, @object
	.size	_ZTVN7openpal5ArrayIN8opendnp34CellINS1_19DoubleBitBinarySpecEEEtEE, 32
_ZTVN7openpal5ArrayIN8opendnp34CellINS1_19DoubleBitBinarySpecEEEtEE:
	.quad	0
	.quad	_ZTIN7openpal5ArrayIN8opendnp34CellINS1_19DoubleBitBinarySpecEEEtEE
	.quad	_ZN7openpal5ArrayIN8opendnp34CellINS1_19DoubleBitBinarySpecEEEtED1Ev
	.quad	_ZN7openpal5ArrayIN8opendnp34CellINS1_19DoubleBitBinarySpecEEEtED0Ev
	.weak	_ZTVN7openpal5ArrayIN8opendnp34CellINS1_10AnalogSpecEEEtEE
	.section	.data.rel.ro._ZTVN7openpal5ArrayIN8opendnp34CellINS1_10AnalogSpecEEEtEE,"awG",@progbits,_ZTVN7openpal5ArrayIN8opendnp34CellINS1_10AnalogSpecEEEtEE,comdat
	.align 8
	.type	_ZTVN7openpal5ArrayIN8opendnp34CellINS1_10AnalogSpecEEEtEE, @object
	.size	_ZTVN7openpal5ArrayIN8opendnp34CellINS1_10AnalogSpecEEEtEE, 32
_ZTVN7openpal5ArrayIN8opendnp34CellINS1_10AnalogSpecEEEtEE:
	.quad	0
	.quad	_ZTIN7openpal5ArrayIN8opendnp34CellINS1_10AnalogSpecEEEtEE
	.quad	_ZN7openpal5ArrayIN8opendnp34CellINS1_10AnalogSpecEEEtED1Ev
	.quad	_ZN7openpal5ArrayIN8opendnp34CellINS1_10AnalogSpecEEEtED0Ev
	.weak	_ZTVN7openpal5ArrayIN8opendnp34CellINS1_11CounterSpecEEEtEE
	.section	.data.rel.ro._ZTVN7openpal5ArrayIN8opendnp34CellINS1_11CounterSpecEEEtEE,"awG",@progbits,_ZTVN7openpal5ArrayIN8opendnp34CellINS1_11CounterSpecEEEtEE,comdat
	.align 8
	.type	_ZTVN7openpal5ArrayIN8opendnp34CellINS1_11CounterSpecEEEtEE, @object
	.size	_ZTVN7openpal5ArrayIN8opendnp34CellINS1_11CounterSpecEEEtEE, 32
_ZTVN7openpal5ArrayIN8opendnp34CellINS1_11CounterSpecEEEtEE:
	.quad	0
	.quad	_ZTIN7openpal5ArrayIN8opendnp34CellINS1_11CounterSpecEEEtEE
	.quad	_ZN7openpal5ArrayIN8opendnp34CellINS1_11CounterSpecEEEtED1Ev
	.quad	_ZN7openpal5ArrayIN8opendnp34CellINS1_11CounterSpecEEEtED0Ev
	.weak	_ZTVN7openpal5ArrayIN8opendnp34CellINS1_17FrozenCounterSpecEEEtEE
	.section	.data.rel.ro._ZTVN7openpal5ArrayIN8opendnp34CellINS1_17FrozenCounterSpecEEEtEE,"awG",@progbits,_ZTVN7openpal5ArrayIN8opendnp34CellINS1_17FrozenCounterSpecEEEtEE,comdat
	.align 8
	.type	_ZTVN7openpal5ArrayIN8opendnp34CellINS1_17FrozenCounterSpecEEEtEE, @object
	.size	_ZTVN7openpal5ArrayIN8opendnp34CellINS1_17FrozenCounterSpecEEEtEE, 32
_ZTVN7openpal5ArrayIN8opendnp34CellINS1_17FrozenCounterSpecEEEtEE:
	.quad	0
	.quad	_ZTIN7openpal5ArrayIN8opendnp34CellINS1_17FrozenCounterSpecEEEtEE
	.quad	_ZN7openpal5ArrayIN8opendnp34CellINS1_17FrozenCounterSpecEEEtED1Ev
	.quad	_ZN7openpal5ArrayIN8opendnp34CellINS1_17FrozenCounterSpecEEEtED0Ev
	.weak	_ZTVN7openpal5ArrayIN8opendnp34CellINS1_22BinaryOutputStatusSpecEEEtEE
	.section	.data.rel.ro._ZTVN7openpal5ArrayIN8opendnp34CellINS1_22BinaryOutputStatusSpecEEEtEE,"awG",@progbits,_ZTVN7openpal5ArrayIN8opendnp34CellINS1_22BinaryOutputStatusSpecEEEtEE,comdat
	.align 8
	.type	_ZTVN7openpal5ArrayIN8opendnp34CellINS1_22BinaryOutputStatusSpecEEEtEE, @object
	.size	_ZTVN7openpal5ArrayIN8opendnp34CellINS1_22BinaryOutputStatusSpecEEEtEE, 32
_ZTVN7openpal5ArrayIN8opendnp34CellINS1_22BinaryOutputStatusSpecEEEtEE:
	.quad	0
	.quad	_ZTIN7openpal5ArrayIN8opendnp34CellINS1_22BinaryOutputStatusSpecEEEtEE
	.quad	_ZN7openpal5ArrayIN8opendnp34CellINS1_22BinaryOutputStatusSpecEEEtED1Ev
	.quad	_ZN7openpal5ArrayIN8opendnp34CellINS1_22BinaryOutputStatusSpecEEEtED0Ev
	.weak	_ZTVN7openpal5ArrayIN8opendnp34CellINS1_22AnalogOutputStatusSpecEEEtEE
	.section	.data.rel.ro._ZTVN7openpal5ArrayIN8opendnp34CellINS1_22AnalogOutputStatusSpecEEEtEE,"awG",@progbits,_ZTVN7openpal5ArrayIN8opendnp34CellINS1_22AnalogOutputStatusSpecEEEtEE,comdat
	.align 8
	.type	_ZTVN7openpal5ArrayIN8opendnp34CellINS1_22AnalogOutputStatusSpecEEEtEE, @object
	.size	_ZTVN7openpal5ArrayIN8opendnp34CellINS1_22AnalogOutputStatusSpecEEEtEE, 32
_ZTVN7openpal5ArrayIN8opendnp34CellINS1_22AnalogOutputStatusSpecEEEtEE:
	.quad	0
	.quad	_ZTIN7openpal5ArrayIN8opendnp34CellINS1_22AnalogOutputStatusSpecEEEtEE
	.quad	_ZN7openpal5ArrayIN8opendnp34CellINS1_22AnalogOutputStatusSpecEEEtED1Ev
	.quad	_ZN7openpal5ArrayIN8opendnp34CellINS1_22AnalogOutputStatusSpecEEEtED0Ev
	.weak	_ZTVN7openpal5ArrayIN8opendnp34CellINS1_19TimeAndIntervalSpecEEEtEE
	.section	.data.rel.ro._ZTVN7openpal5ArrayIN8opendnp34CellINS1_19TimeAndIntervalSpecEEEtEE,"awG",@progbits,_ZTVN7openpal5ArrayIN8opendnp34CellINS1_19TimeAndIntervalSpecEEEtEE,comdat
	.align 8
	.type	_ZTVN7openpal5ArrayIN8opendnp34CellINS1_19TimeAndIntervalSpecEEEtEE, @object
	.size	_ZTVN7openpal5ArrayIN8opendnp34CellINS1_19TimeAndIntervalSpecEEEtEE, 32
_ZTVN7openpal5ArrayIN8opendnp34CellINS1_19TimeAndIntervalSpecEEEtEE:
	.quad	0
	.quad	_ZTIN7openpal5ArrayIN8opendnp34CellINS1_19TimeAndIntervalSpecEEEtEE
	.quad	_ZN7openpal5ArrayIN8opendnp34CellINS1_19TimeAndIntervalSpecEEEtED1Ev
	.quad	_ZN7openpal5ArrayIN8opendnp34CellINS1_19TimeAndIntervalSpecEEEtED0Ev
	.section	.rodata.cst16,"aM",@progbits,16
	.align 16
.LC0:
	.value	0
	.value	1
	.value	2
	.value	3
	.value	4
	.value	5
	.value	6
	.value	7
	.align 16
.LC2:
	.value	8
	.value	8
	.value	8
	.value	8
	.value	8
	.value	8
	.value	8
	.value	8
	.hidden	DW.ref.__gxx_personality_v0
	.weak	DW.ref.__gxx_personality_v0
	.section	.data.rel.local.DW.ref.__gxx_personality_v0,"awG",@progbits,DW.ref.__gxx_personality_v0,comdat
	.align 8
	.type	DW.ref.__gxx_personality_v0, @object
	.size	DW.ref.__gxx_personality_v0, 8
DW.ref.__gxx_personality_v0:
	.quad	__gxx_personality_v0
	.ident	"GCC: (Ubuntu 7.5.0-3ubuntu1~18.04) 7.5.0"
	.section	.note.GNU-stack,"",@progbits
