	.file	"TCPClientIOHandler.cpp"
	.text
	.section	.rodata._ZNK4asio6detail15system_category4nameEv.str1.1,"aMS",@progbits,1
.LC0:
	.string	"asio.system"
	.section	.text._ZNK4asio6detail15system_category4nameEv,"axG",@progbits,_ZNK4asio6detail15system_category4nameEv,comdat
	.align 2
	.p2align 4,,15
	.weak	_ZNK4asio6detail15system_category4nameEv
	.type	_ZNK4asio6detail15system_category4nameEv, @function
_ZNK4asio6detail15system_category4nameEv:
.LFB2904:
	.cfi_startproc
	leaq	.LC0(%rip), %rax
	ret
	.cfi_endproc
.LFE2904:
	.size	_ZNK4asio6detail15system_category4nameEv, .-_ZNK4asio6detail15system_category4nameEv
	.section	.rodata._ZNK4asio5error6detail14netdb_category4nameEv.str1.1,"aMS",@progbits,1
.LC1:
	.string	"asio.netdb"
	.section	.text._ZNK4asio5error6detail14netdb_category4nameEv,"axG",@progbits,_ZNK4asio5error6detail14netdb_category4nameEv,comdat
	.align 2
	.p2align 4,,15
	.weak	_ZNK4asio5error6detail14netdb_category4nameEv
	.type	_ZNK4asio5error6detail14netdb_category4nameEv, @function
_ZNK4asio5error6detail14netdb_category4nameEv:
.LFB2944:
	.cfi_startproc
	leaq	.LC1(%rip), %rax
	ret
	.cfi_endproc
.LFE2944:
	.size	_ZNK4asio5error6detail14netdb_category4nameEv, .-_ZNK4asio5error6detail14netdb_category4nameEv
	.section	.rodata._ZNK4asio5error6detail17addrinfo_category4nameEv.str1.1,"aMS",@progbits,1
.LC2:
	.string	"asio.addrinfo"
	.section	.text._ZNK4asio5error6detail17addrinfo_category4nameEv,"axG",@progbits,_ZNK4asio5error6detail17addrinfo_category4nameEv,comdat
	.align 2
	.p2align 4,,15
	.weak	_ZNK4asio5error6detail17addrinfo_category4nameEv
	.type	_ZNK4asio5error6detail17addrinfo_category4nameEv, @function
_ZNK4asio5error6detail17addrinfo_category4nameEv:
.LFB2950:
	.cfi_startproc
	leaq	.LC2(%rip), %rax
	ret
	.cfi_endproc
.LFE2950:
	.size	_ZNK4asio5error6detail17addrinfo_category4nameEv, .-_ZNK4asio5error6detail17addrinfo_category4nameEv
	.section	.rodata._ZNK4asio5error6detail13misc_category4nameEv.str1.1,"aMS",@progbits,1
.LC3:
	.string	"asio.misc"
	.section	.text._ZNK4asio5error6detail13misc_category4nameEv,"axG",@progbits,_ZNK4asio5error6detail13misc_category4nameEv,comdat
	.align 2
	.p2align 4,,15
	.weak	_ZNK4asio5error6detail13misc_category4nameEv
	.type	_ZNK4asio5error6detail13misc_category4nameEv, @function
_ZNK4asio5error6detail13misc_category4nameEv:
.LFB2956:
	.cfi_startproc
	leaq	.LC3(%rip), %rax
	ret
	.cfi_endproc
.LFE2956:
	.size	_ZNK4asio5error6detail13misc_category4nameEv, .-_ZNK4asio5error6detail13misc_category4nameEv
	.section	.text._ZN4asio6detail7tss_ptrINS0_10call_stackINS0_15task_io_serviceENS0_27task_io_service_thread_infoEE7contextEED2Ev,"axG",@progbits,_ZN4asio6detail7tss_ptrINS0_10call_stackINS0_15task_io_serviceENS0_27task_io_service_thread_infoEE7contextEED5Ev,comdat
	.align 2
	.p2align 4,,15
	.weak	_ZN4asio6detail7tss_ptrINS0_10call_stackINS0_15task_io_serviceENS0_27task_io_service_thread_infoEE7contextEED2Ev
	.type	_ZN4asio6detail7tss_ptrINS0_10call_stackINS0_15task_io_serviceENS0_27task_io_service_thread_infoEE7contextEED2Ev, @function
_ZN4asio6detail7tss_ptrINS0_10call_stackINS0_15task_io_serviceENS0_27task_io_service_thread_infoEE7contextEED2Ev:
.LFB10256:
	.cfi_startproc
	rep ret
	.cfi_endproc
.LFE10256:
	.size	_ZN4asio6detail7tss_ptrINS0_10call_stackINS0_15task_io_serviceENS0_27task_io_service_thread_infoEE7contextEED2Ev, .-_ZN4asio6detail7tss_ptrINS0_10call_stackINS0_15task_io_serviceENS0_27task_io_service_thread_infoEE7contextEED2Ev
	.weak	_ZN4asio6detail7tss_ptrINS0_10call_stackINS0_15task_io_serviceENS0_27task_io_service_thread_infoEE7contextEED1Ev
	.set	_ZN4asio6detail7tss_ptrINS0_10call_stackINS0_15task_io_serviceENS0_27task_io_service_thread_infoEE7contextEED1Ev,_ZN4asio6detail7tss_ptrINS0_10call_stackINS0_15task_io_serviceENS0_27task_io_service_thread_infoEE7contextEED2Ev
	.section	.text._ZN4asio6detail10service_idINS0_13epoll_reactorEED2Ev,"axG",@progbits,_ZN4asio6detail10service_idINS0_13epoll_reactorEED5Ev,comdat
	.align 2
	.p2align 4,,15
	.weak	_ZN4asio6detail10service_idINS0_13epoll_reactorEED2Ev
	.type	_ZN4asio6detail10service_idINS0_13epoll_reactorEED2Ev, @function
_ZN4asio6detail10service_idINS0_13epoll_reactorEED2Ev:
.LFB10259:
	.cfi_startproc
	rep ret
	.cfi_endproc
.LFE10259:
	.size	_ZN4asio6detail10service_idINS0_13epoll_reactorEED2Ev, .-_ZN4asio6detail10service_idINS0_13epoll_reactorEED2Ev
	.weak	_ZN4asio6detail10service_idINS0_13epoll_reactorEED1Ev
	.set	_ZN4asio6detail10service_idINS0_13epoll_reactorEED1Ev,_ZN4asio6detail10service_idINS0_13epoll_reactorEED2Ev
	.section	.text._ZN4asio6detail10service_idINS0_15task_io_serviceEED2Ev,"axG",@progbits,_ZN4asio6detail10service_idINS0_15task_io_serviceEED5Ev,comdat
	.align 2
	.p2align 4,,15
	.weak	_ZN4asio6detail10service_idINS0_15task_io_serviceEED2Ev
	.type	_ZN4asio6detail10service_idINS0_15task_io_serviceEED2Ev, @function
_ZN4asio6detail10service_idINS0_15task_io_serviceEED2Ev:
.LFB10262:
	.cfi_startproc
	rep ret
	.cfi_endproc
.LFE10262:
	.size	_ZN4asio6detail10service_idINS0_15task_io_serviceEED2Ev, .-_ZN4asio6detail10service_idINS0_15task_io_serviceEED2Ev
	.weak	_ZN4asio6detail10service_idINS0_15task_io_serviceEED1Ev
	.set	_ZN4asio6detail10service_idINS0_15task_io_serviceEED1Ev,_ZN4asio6detail10service_idINS0_15task_io_serviceEED2Ev
	.section	.text._ZN4asio6detail7tss_ptrINS0_10call_stackINS0_14strand_service11strand_implEhE7contextEED2Ev,"axG",@progbits,_ZN4asio6detail7tss_ptrINS0_10call_stackINS0_14strand_service11strand_implEhE7contextEED5Ev,comdat
	.align 2
	.p2align 4,,15
	.weak	_ZN4asio6detail7tss_ptrINS0_10call_stackINS0_14strand_service11strand_implEhE7contextEED2Ev
	.type	_ZN4asio6detail7tss_ptrINS0_10call_stackINS0_14strand_service11strand_implEhE7contextEED2Ev, @function
_ZN4asio6detail7tss_ptrINS0_10call_stackINS0_14strand_service11strand_implEhE7contextEED2Ev:
.LFB10265:
	.cfi_startproc
	rep ret
	.cfi_endproc
.LFE10265:
	.size	_ZN4asio6detail7tss_ptrINS0_10call_stackINS0_14strand_service11strand_implEhE7contextEED2Ev, .-_ZN4asio6detail7tss_ptrINS0_10call_stackINS0_14strand_service11strand_implEhE7contextEED2Ev
	.weak	_ZN4asio6detail7tss_ptrINS0_10call_stackINS0_14strand_service11strand_implEhE7contextEED1Ev
	.set	_ZN4asio6detail7tss_ptrINS0_10call_stackINS0_14strand_service11strand_implEhE7contextEED1Ev,_ZN4asio6detail7tss_ptrINS0_10call_stackINS0_14strand_service11strand_implEhE7contextEED2Ev
	.section	.text._ZN4asio6detail10service_idINS0_14strand_serviceEED2Ev,"axG",@progbits,_ZN4asio6detail10service_idINS0_14strand_serviceEED5Ev,comdat
	.align 2
	.p2align 4,,15
	.weak	_ZN4asio6detail10service_idINS0_14strand_serviceEED2Ev
	.type	_ZN4asio6detail10service_idINS0_14strand_serviceEED2Ev, @function
_ZN4asio6detail10service_idINS0_14strand_serviceEED2Ev:
.LFB10268:
	.cfi_startproc
	rep ret
	.cfi_endproc
.LFE10268:
	.size	_ZN4asio6detail10service_idINS0_14strand_serviceEED2Ev, .-_ZN4asio6detail10service_idINS0_14strand_serviceEED2Ev
	.weak	_ZN4asio6detail10service_idINS0_14strand_serviceEED1Ev
	.set	_ZN4asio6detail10service_idINS0_14strand_serviceEED1Ev,_ZN4asio6detail10service_idINS0_14strand_serviceEED2Ev
	.section	.text._ZNSt23_Sp_counted_ptr_inplaceIN7asiopal13SocketChannelESaIS1_ELN9__gnu_cxx12_Lock_policyE2EED2Ev,"axG",@progbits,_ZNSt23_Sp_counted_ptr_inplaceIN7asiopal13SocketChannelESaIS1_ELN9__gnu_cxx12_Lock_policyE2EED5Ev,comdat
	.align 2
	.p2align 4,,15
	.weak	_ZNSt23_Sp_counted_ptr_inplaceIN7asiopal13SocketChannelESaIS1_ELN9__gnu_cxx12_Lock_policyE2EED2Ev
	.type	_ZNSt23_Sp_counted_ptr_inplaceIN7asiopal13SocketChannelESaIS1_ELN9__gnu_cxx12_Lock_policyE2EED2Ev, @function
_ZNSt23_Sp_counted_ptr_inplaceIN7asiopal13SocketChannelESaIS1_ELN9__gnu_cxx12_Lock_policyE2EED2Ev:
.LFB10271:
	.cfi_startproc
	rep ret
	.cfi_endproc
.LFE10271:
	.size	_ZNSt23_Sp_counted_ptr_inplaceIN7asiopal13SocketChannelESaIS1_ELN9__gnu_cxx12_Lock_policyE2EED2Ev, .-_ZNSt23_Sp_counted_ptr_inplaceIN7asiopal13SocketChannelESaIS1_ELN9__gnu_cxx12_Lock_policyE2EED2Ev
	.weak	_ZNSt23_Sp_counted_ptr_inplaceIN7asiopal13SocketChannelESaIS1_ELN9__gnu_cxx12_Lock_policyE2EED1Ev
	.set	_ZNSt23_Sp_counted_ptr_inplaceIN7asiopal13SocketChannelESaIS1_ELN9__gnu_cxx12_Lock_policyE2EED1Ev,_ZNSt23_Sp_counted_ptr_inplaceIN7asiopal13SocketChannelESaIS1_ELN9__gnu_cxx12_Lock_policyE2EED2Ev
	.section	.text._ZNSt23_Sp_counted_ptr_inplaceIN7asiopal9TCPClientESaIS1_ELN9__gnu_cxx12_Lock_policyE2EED2Ev,"axG",@progbits,_ZNSt23_Sp_counted_ptr_inplaceIN7asiopal9TCPClientESaIS1_ELN9__gnu_cxx12_Lock_policyE2EED5Ev,comdat
	.align 2
	.p2align 4,,15
	.weak	_ZNSt23_Sp_counted_ptr_inplaceIN7asiopal9TCPClientESaIS1_ELN9__gnu_cxx12_Lock_policyE2EED2Ev
	.type	_ZNSt23_Sp_counted_ptr_inplaceIN7asiopal9TCPClientESaIS1_ELN9__gnu_cxx12_Lock_policyE2EED2Ev, @function
_ZNSt23_Sp_counted_ptr_inplaceIN7asiopal9TCPClientESaIS1_ELN9__gnu_cxx12_Lock_policyE2EED2Ev:
.LFB10285:
	.cfi_startproc
	rep ret
	.cfi_endproc
.LFE10285:
	.size	_ZNSt23_Sp_counted_ptr_inplaceIN7asiopal9TCPClientESaIS1_ELN9__gnu_cxx12_Lock_policyE2EED2Ev, .-_ZNSt23_Sp_counted_ptr_inplaceIN7asiopal9TCPClientESaIS1_ELN9__gnu_cxx12_Lock_policyE2EED2Ev
	.weak	_ZNSt23_Sp_counted_ptr_inplaceIN7asiopal9TCPClientESaIS1_ELN9__gnu_cxx12_Lock_policyE2EED1Ev
	.set	_ZNSt23_Sp_counted_ptr_inplaceIN7asiopal9TCPClientESaIS1_ELN9__gnu_cxx12_Lock_policyE2EED1Ev,_ZNSt23_Sp_counted_ptr_inplaceIN7asiopal9TCPClientESaIS1_ELN9__gnu_cxx12_Lock_policyE2EED2Ev
	.section	.text._ZNSt23_Sp_counted_ptr_inplaceIN7asiopal13SocketChannelESaIS1_ELN9__gnu_cxx12_Lock_policyE2EE10_M_destroyEv,"axG",@progbits,_ZNSt23_Sp_counted_ptr_inplaceIN7asiopal13SocketChannelESaIS1_ELN9__gnu_cxx12_Lock_policyE2EE10_M_destroyEv,comdat
	.align 2
	.p2align 4,,15
	.weak	_ZNSt23_Sp_counted_ptr_inplaceIN7asiopal13SocketChannelESaIS1_ELN9__gnu_cxx12_Lock_policyE2EE10_M_destroyEv
	.type	_ZNSt23_Sp_counted_ptr_inplaceIN7asiopal13SocketChannelESaIS1_ELN9__gnu_cxx12_Lock_policyE2EE10_M_destroyEv, @function
_ZNSt23_Sp_counted_ptr_inplaceIN7asiopal13SocketChannelESaIS1_ELN9__gnu_cxx12_Lock_policyE2EE10_M_destroyEv:
.LFB10275:
	.cfi_startproc
	jmp	_ZdlPv@PLT
	.cfi_endproc
.LFE10275:
	.size	_ZNSt23_Sp_counted_ptr_inplaceIN7asiopal13SocketChannelESaIS1_ELN9__gnu_cxx12_Lock_policyE2EE10_M_destroyEv, .-_ZNSt23_Sp_counted_ptr_inplaceIN7asiopal13SocketChannelESaIS1_ELN9__gnu_cxx12_Lock_policyE2EE10_M_destroyEv
	.section	.text._ZNSt23_Sp_counted_ptr_inplaceIN7asiopal9TCPClientESaIS1_ELN9__gnu_cxx12_Lock_policyE2EE10_M_destroyEv,"axG",@progbits,_ZNSt23_Sp_counted_ptr_inplaceIN7asiopal9TCPClientESaIS1_ELN9__gnu_cxx12_Lock_policyE2EE10_M_destroyEv,comdat
	.align 2
	.p2align 4,,15
	.weak	_ZNSt23_Sp_counted_ptr_inplaceIN7asiopal9TCPClientESaIS1_ELN9__gnu_cxx12_Lock_policyE2EE10_M_destroyEv
	.type	_ZNSt23_Sp_counted_ptr_inplaceIN7asiopal9TCPClientESaIS1_ELN9__gnu_cxx12_Lock_policyE2EE10_M_destroyEv, @function
_ZNSt23_Sp_counted_ptr_inplaceIN7asiopal9TCPClientESaIS1_ELN9__gnu_cxx12_Lock_policyE2EE10_M_destroyEv:
.LFB10289:
	.cfi_startproc
	jmp	_ZdlPv@PLT
	.cfi_endproc
.LFE10289:
	.size	_ZNSt23_Sp_counted_ptr_inplaceIN7asiopal9TCPClientESaIS1_ELN9__gnu_cxx12_Lock_policyE2EE10_M_destroyEv, .-_ZNSt23_Sp_counted_ptr_inplaceIN7asiopal9TCPClientESaIS1_ELN9__gnu_cxx12_Lock_policyE2EE10_M_destroyEv
	.section	.text._ZN4asio6detail15system_categoryD2Ev,"axG",@progbits,_ZN4asio6detail15system_categoryD5Ev,comdat
	.align 2
	.p2align 4,,15
	.weak	_ZN4asio6detail15system_categoryD2Ev
	.type	_ZN4asio6detail15system_categoryD2Ev, @function
_ZN4asio6detail15system_categoryD2Ev:
.LFB10235:
	.cfi_startproc
	movq	_ZTVN4asio6detail15system_categoryE@GOTPCREL(%rip), %rax
	addq	$16, %rax
	movq	%rax, (%rdi)
	jmp	_ZNSt3_V214error_categoryD2Ev@PLT
	.cfi_endproc
.LFE10235:
	.size	_ZN4asio6detail15system_categoryD2Ev, .-_ZN4asio6detail15system_categoryD2Ev
	.weak	_ZN4asio6detail15system_categoryD1Ev
	.set	_ZN4asio6detail15system_categoryD1Ev,_ZN4asio6detail15system_categoryD2Ev
	.section	.text._ZN4asio5error6detail14netdb_categoryD2Ev,"axG",@progbits,_ZN4asio5error6detail14netdb_categoryD5Ev,comdat
	.align 2
	.p2align 4,,15
	.weak	_ZN4asio5error6detail14netdb_categoryD2Ev
	.type	_ZN4asio5error6detail14netdb_categoryD2Ev, @function
_ZN4asio5error6detail14netdb_categoryD2Ev:
.LFB10223:
	.cfi_startproc
	movq	_ZTVN4asio5error6detail14netdb_categoryE@GOTPCREL(%rip), %rax
	addq	$16, %rax
	movq	%rax, (%rdi)
	jmp	_ZNSt3_V214error_categoryD2Ev@PLT
	.cfi_endproc
.LFE10223:
	.size	_ZN4asio5error6detail14netdb_categoryD2Ev, .-_ZN4asio5error6detail14netdb_categoryD2Ev
	.weak	_ZN4asio5error6detail14netdb_categoryD1Ev
	.set	_ZN4asio5error6detail14netdb_categoryD1Ev,_ZN4asio5error6detail14netdb_categoryD2Ev
	.section	.text._ZN4asio5error6detail17addrinfo_categoryD2Ev,"axG",@progbits,_ZN4asio5error6detail17addrinfo_categoryD5Ev,comdat
	.align 2
	.p2align 4,,15
	.weak	_ZN4asio5error6detail17addrinfo_categoryD2Ev
	.type	_ZN4asio5error6detail17addrinfo_categoryD2Ev, @function
_ZN4asio5error6detail17addrinfo_categoryD2Ev:
.LFB10219:
	.cfi_startproc
	movq	_ZTVN4asio5error6detail17addrinfo_categoryE@GOTPCREL(%rip), %rax
	addq	$16, %rax
	movq	%rax, (%rdi)
	jmp	_ZNSt3_V214error_categoryD2Ev@PLT
	.cfi_endproc
.LFE10219:
	.size	_ZN4asio5error6detail17addrinfo_categoryD2Ev, .-_ZN4asio5error6detail17addrinfo_categoryD2Ev
	.weak	_ZN4asio5error6detail17addrinfo_categoryD1Ev
	.set	_ZN4asio5error6detail17addrinfo_categoryD1Ev,_ZN4asio5error6detail17addrinfo_categoryD2Ev
	.section	.text._ZN4asio5error6detail13misc_categoryD2Ev,"axG",@progbits,_ZN4asio5error6detail13misc_categoryD5Ev,comdat
	.align 2
	.p2align 4,,15
	.weak	_ZN4asio5error6detail13misc_categoryD2Ev
	.type	_ZN4asio5error6detail13misc_categoryD2Ev, @function
_ZN4asio5error6detail13misc_categoryD2Ev:
.LFB10215:
	.cfi_startproc
	movq	_ZTVN4asio5error6detail13misc_categoryE@GOTPCREL(%rip), %rax
	addq	$16, %rax
	movq	%rax, (%rdi)
	jmp	_ZNSt3_V214error_categoryD2Ev@PLT
	.cfi_endproc
.LFE10215:
	.size	_ZN4asio5error6detail13misc_categoryD2Ev, .-_ZN4asio5error6detail13misc_categoryD2Ev
	.weak	_ZN4asio5error6detail13misc_categoryD1Ev
	.set	_ZN4asio5error6detail13misc_categoryD1Ev,_ZN4asio5error6detail13misc_categoryD2Ev
	.section	.text._ZN4asio6detail15system_categoryD0Ev,"axG",@progbits,_ZN4asio6detail15system_categoryD5Ev,comdat
	.align 2
	.p2align 4,,15
	.weak	_ZN4asio6detail15system_categoryD0Ev
	.type	_ZN4asio6detail15system_categoryD0Ev, @function
_ZN4asio6detail15system_categoryD0Ev:
.LFB10237:
	.cfi_startproc
	movq	_ZTVN4asio6detail15system_categoryE@GOTPCREL(%rip), %rax
	pushq	%rbx
	.cfi_def_cfa_offset 16
	.cfi_offset 3, -16
	movq	%rdi, %rbx
	addq	$16, %rax
	movq	%rax, (%rdi)
	call	_ZNSt3_V214error_categoryD2Ev@PLT
	movq	%rbx, %rdi
	movl	$8, %esi
	popq	%rbx
	.cfi_def_cfa_offset 8
	jmp	_ZdlPvm@PLT
	.cfi_endproc
.LFE10237:
	.size	_ZN4asio6detail15system_categoryD0Ev, .-_ZN4asio6detail15system_categoryD0Ev
	.section	.text._ZN4asio5error6detail14netdb_categoryD0Ev,"axG",@progbits,_ZN4asio5error6detail14netdb_categoryD5Ev,comdat
	.align 2
	.p2align 4,,15
	.weak	_ZN4asio5error6detail14netdb_categoryD0Ev
	.type	_ZN4asio5error6detail14netdb_categoryD0Ev, @function
_ZN4asio5error6detail14netdb_categoryD0Ev:
.LFB10225:
	.cfi_startproc
	movq	_ZTVN4asio5error6detail14netdb_categoryE@GOTPCREL(%rip), %rax
	pushq	%rbx
	.cfi_def_cfa_offset 16
	.cfi_offset 3, -16
	movq	%rdi, %rbx
	addq	$16, %rax
	movq	%rax, (%rdi)
	call	_ZNSt3_V214error_categoryD2Ev@PLT
	movq	%rbx, %rdi
	movl	$8, %esi
	popq	%rbx
	.cfi_def_cfa_offset 8
	jmp	_ZdlPvm@PLT
	.cfi_endproc
.LFE10225:
	.size	_ZN4asio5error6detail14netdb_categoryD0Ev, .-_ZN4asio5error6detail14netdb_categoryD0Ev
	.section	.text._ZN4asio5error6detail17addrinfo_categoryD0Ev,"axG",@progbits,_ZN4asio5error6detail17addrinfo_categoryD5Ev,comdat
	.align 2
	.p2align 4,,15
	.weak	_ZN4asio5error6detail17addrinfo_categoryD0Ev
	.type	_ZN4asio5error6detail17addrinfo_categoryD0Ev, @function
_ZN4asio5error6detail17addrinfo_categoryD0Ev:
.LFB10221:
	.cfi_startproc
	movq	_ZTVN4asio5error6detail17addrinfo_categoryE@GOTPCREL(%rip), %rax
	pushq	%rbx
	.cfi_def_cfa_offset 16
	.cfi_offset 3, -16
	movq	%rdi, %rbx
	addq	$16, %rax
	movq	%rax, (%rdi)
	call	_ZNSt3_V214error_categoryD2Ev@PLT
	movq	%rbx, %rdi
	movl	$8, %esi
	popq	%rbx
	.cfi_def_cfa_offset 8
	jmp	_ZdlPvm@PLT
	.cfi_endproc
.LFE10221:
	.size	_ZN4asio5error6detail17addrinfo_categoryD0Ev, .-_ZN4asio5error6detail17addrinfo_categoryD0Ev
	.section	.text._ZN4asio5error6detail13misc_categoryD0Ev,"axG",@progbits,_ZN4asio5error6detail13misc_categoryD5Ev,comdat
	.align 2
	.p2align 4,,15
	.weak	_ZN4asio5error6detail13misc_categoryD0Ev
	.type	_ZN4asio5error6detail13misc_categoryD0Ev, @function
_ZN4asio5error6detail13misc_categoryD0Ev:
.LFB10217:
	.cfi_startproc
	movq	_ZTVN4asio5error6detail13misc_categoryE@GOTPCREL(%rip), %rax
	pushq	%rbx
	.cfi_def_cfa_offset 16
	.cfi_offset 3, -16
	movq	%rdi, %rbx
	addq	$16, %rax
	movq	%rax, (%rdi)
	call	_ZNSt3_V214error_categoryD2Ev@PLT
	movq	%rbx, %rdi
	movl	$8, %esi
	popq	%rbx
	.cfi_def_cfa_offset 8
	jmp	_ZdlPvm@PLT
	.cfi_endproc
.LFE10217:
	.size	_ZN4asio5error6detail13misc_categoryD0Ev, .-_ZN4asio5error6detail13misc_categoryD0Ev
	.section	.text._ZNSt23_Sp_counted_ptr_inplaceIN7asiopal9TCPClientESaIS1_ELN9__gnu_cxx12_Lock_policyE2EED0Ev,"axG",@progbits,_ZNSt23_Sp_counted_ptr_inplaceIN7asiopal9TCPClientESaIS1_ELN9__gnu_cxx12_Lock_policyE2EED5Ev,comdat
	.align 2
	.p2align 4,,15
	.weak	_ZNSt23_Sp_counted_ptr_inplaceIN7asiopal9TCPClientESaIS1_ELN9__gnu_cxx12_Lock_policyE2EED0Ev
	.type	_ZNSt23_Sp_counted_ptr_inplaceIN7asiopal9TCPClientESaIS1_ELN9__gnu_cxx12_Lock_policyE2EED0Ev, @function
_ZNSt23_Sp_counted_ptr_inplaceIN7asiopal9TCPClientESaIS1_ELN9__gnu_cxx12_Lock_policyE2EED0Ev:
.LFB10287:
	.cfi_startproc
	movl	$264, %esi
	jmp	_ZdlPvm@PLT
	.cfi_endproc
.LFE10287:
	.size	_ZNSt23_Sp_counted_ptr_inplaceIN7asiopal9TCPClientESaIS1_ELN9__gnu_cxx12_Lock_policyE2EED0Ev, .-_ZNSt23_Sp_counted_ptr_inplaceIN7asiopal9TCPClientESaIS1_ELN9__gnu_cxx12_Lock_policyE2EED0Ev
	.section	.text._ZNSt23_Sp_counted_ptr_inplaceIN7asiopal13SocketChannelESaIS1_ELN9__gnu_cxx12_Lock_policyE2EED0Ev,"axG",@progbits,_ZNSt23_Sp_counted_ptr_inplaceIN7asiopal13SocketChannelESaIS1_ELN9__gnu_cxx12_Lock_policyE2EED5Ev,comdat
	.align 2
	.p2align 4,,15
	.weak	_ZNSt23_Sp_counted_ptr_inplaceIN7asiopal13SocketChannelESaIS1_ELN9__gnu_cxx12_Lock_policyE2EED0Ev
	.type	_ZNSt23_Sp_counted_ptr_inplaceIN7asiopal13SocketChannelESaIS1_ELN9__gnu_cxx12_Lock_policyE2EED0Ev, @function
_ZNSt23_Sp_counted_ptr_inplaceIN7asiopal13SocketChannelESaIS1_ELN9__gnu_cxx12_Lock_policyE2EED0Ev:
.LFB10273:
	.cfi_startproc
	movl	$112, %esi
	jmp	_ZdlPvm@PLT
	.cfi_endproc
.LFE10273:
	.size	_ZNSt23_Sp_counted_ptr_inplaceIN7asiopal13SocketChannelESaIS1_ELN9__gnu_cxx12_Lock_policyE2EED0Ev, .-_ZNSt23_Sp_counted_ptr_inplaceIN7asiopal13SocketChannelESaIS1_ELN9__gnu_cxx12_Lock_policyE2EED0Ev
	.section	.text._ZNSt23_Sp_counted_ptr_inplaceIN7asiopal9TCPClientESaIS1_ELN9__gnu_cxx12_Lock_policyE2EE14_M_get_deleterERKSt9type_info,"axG",@progbits,_ZNSt23_Sp_counted_ptr_inplaceIN7asiopal9TCPClientESaIS1_ELN9__gnu_cxx12_Lock_policyE2EE14_M_get_deleterERKSt9type_info,comdat
	.align 2
	.p2align 4,,15
	.weak	_ZNSt23_Sp_counted_ptr_inplaceIN7asiopal9TCPClientESaIS1_ELN9__gnu_cxx12_Lock_policyE2EE14_M_get_deleterERKSt9type_info
	.type	_ZNSt23_Sp_counted_ptr_inplaceIN7asiopal9TCPClientESaIS1_ELN9__gnu_cxx12_Lock_policyE2EE14_M_get_deleterERKSt9type_info, @function
_ZNSt23_Sp_counted_ptr_inplaceIN7asiopal9TCPClientESaIS1_ELN9__gnu_cxx12_Lock_policyE2EE14_M_get_deleterERKSt9type_info:
.LFB10290:
	.cfi_startproc
	pushq	%rbx
	.cfi_def_cfa_offset 16
	.cfi_offset 3, -16
	movq	%rdi, %rbx
	movq	8(%rsi), %rdi
	movq	_ZTSSt19_Sp_make_shared_tag@GOTPCREL(%rip), %rsi
	cmpq	%rsi, %rdi
	je	.L30
	cmpb	$42, (%rdi)
	je	.L33
	call	strcmp@PLT
	testl	%eax, %eax
	jne	.L33
.L30:
	leaq	16(%rbx), %rax
	popq	%rbx
	.cfi_remember_state
	.cfi_def_cfa_offset 8
	ret
	.p2align 4,,10
	.p2align 3
.L33:
	.cfi_restore_state
	xorl	%eax, %eax
	popq	%rbx
	.cfi_def_cfa_offset 8
	ret
	.cfi_endproc
.LFE10290:
	.size	_ZNSt23_Sp_counted_ptr_inplaceIN7asiopal9TCPClientESaIS1_ELN9__gnu_cxx12_Lock_policyE2EE14_M_get_deleterERKSt9type_info, .-_ZNSt23_Sp_counted_ptr_inplaceIN7asiopal9TCPClientESaIS1_ELN9__gnu_cxx12_Lock_policyE2EE14_M_get_deleterERKSt9type_info
	.section	.text._ZNSt23_Sp_counted_ptr_inplaceIN7asiopal13SocketChannelESaIS1_ELN9__gnu_cxx12_Lock_policyE2EE14_M_get_deleterERKSt9type_info,"axG",@progbits,_ZNSt23_Sp_counted_ptr_inplaceIN7asiopal13SocketChannelESaIS1_ELN9__gnu_cxx12_Lock_policyE2EE14_M_get_deleterERKSt9type_info,comdat
	.align 2
	.p2align 4,,15
	.weak	_ZNSt23_Sp_counted_ptr_inplaceIN7asiopal13SocketChannelESaIS1_ELN9__gnu_cxx12_Lock_policyE2EE14_M_get_deleterERKSt9type_info
	.type	_ZNSt23_Sp_counted_ptr_inplaceIN7asiopal13SocketChannelESaIS1_ELN9__gnu_cxx12_Lock_policyE2EE14_M_get_deleterERKSt9type_info, @function
_ZNSt23_Sp_counted_ptr_inplaceIN7asiopal13SocketChannelESaIS1_ELN9__gnu_cxx12_Lock_policyE2EE14_M_get_deleterERKSt9type_info:
.LFB10276:
	.cfi_startproc
	pushq	%rbx
	.cfi_def_cfa_offset 16
	.cfi_offset 3, -16
	movq	%rdi, %rbx
	movq	8(%rsi), %rdi
	movq	_ZTSSt19_Sp_make_shared_tag@GOTPCREL(%rip), %rsi
	cmpq	%rsi, %rdi
	je	.L36
	cmpb	$42, (%rdi)
	je	.L39
	call	strcmp@PLT
	testl	%eax, %eax
	jne	.L39
.L36:
	leaq	16(%rbx), %rax
	popq	%rbx
	.cfi_remember_state
	.cfi_def_cfa_offset 8
	ret
	.p2align 4,,10
	.p2align 3
.L39:
	.cfi_restore_state
	xorl	%eax, %eax
	popq	%rbx
	.cfi_def_cfa_offset 8
	ret
	.cfi_endproc
.LFE10276:
	.size	_ZNSt23_Sp_counted_ptr_inplaceIN7asiopal13SocketChannelESaIS1_ELN9__gnu_cxx12_Lock_policyE2EE14_M_get_deleterERKSt9type_info, .-_ZNSt23_Sp_counted_ptr_inplaceIN7asiopal13SocketChannelESaIS1_ELN9__gnu_cxx12_Lock_policyE2EE14_M_get_deleterERKSt9type_info
	.section	.text.unlikely,"ax",@progbits
	.align 2
	.type	_ZZN8asiodnp318TCPClientIOHandler12StartConnectERKSt10shared_ptrIN7asiopal9TCPClientEERKN7openpal12TimeDurationEENUlRKS1_INS2_8ExecutorEEN4asio19basic_stream_socketINSF_2ip3tcpENSF_21stream_socket_serviceISI_EEEERKSt10error_codeE_D2Ev, @function
_ZZN8asiodnp318TCPClientIOHandler12StartConnectERKSt10shared_ptrIN7asiopal9TCPClientEERKN7openpal12TimeDurationEENUlRKS1_INS2_8ExecutorEEN4asio19basic_stream_socketINSF_2ip3tcpENSF_21stream_socket_serviceISI_EEEERKSt10error_codeE_D2Ev:
.LFB7593:
	.cfi_startproc
	pushq	%rbp
	.cfi_def_cfa_offset 16
	.cfi_offset 6, -16
	pushq	%rbx
	.cfi_def_cfa_offset 24
	.cfi_offset 3, -24
	movq	%rdi, %rbp
	subq	$8, %rsp
	.cfi_def_cfa_offset 32
	movq	40(%rdi), %rbx
	testq	%rbx, %rbx
	je	.L43
	cmpq	$0, _ZL28__gthrw___pthread_key_createPjPFvPvE@GOTPCREL(%rip)
	je	.L44
	lock decl	8(%rbx)
	jne	.L43
	jmp	.L57
.L44:
	movl	8(%rbx), %eax
	leal	-1(%rax), %edx
	decl	%eax
	movl	%edx, 8(%rbx)
	jne	.L43
	jmp	.L58
.L57:
	movq	(%rbx), %rax
	movq	%rbx, %rdi
	call	*16(%rax)
	orl	$-1, %eax
	lock xaddl	%eax, 12(%rbx)
.L54:
	decl	%eax
	jne	.L43
	movq	(%rbx), %rax
	movq	%rbx, %rdi
	call	*24(%rax)
.L43:
	movq	8(%rbp), %rbx
	testq	%rbx, %rbx
	je	.L41
	cmpq	$0, _ZL28__gthrw___pthread_key_createPjPFvPvE@GOTPCREL(%rip)
	je	.L50
	lock decl	8(%rbx)
	jne	.L41
	movq	(%rbx), %rax
	movq	%rbx, %rdi
	call	*16(%rax)
	orl	$-1, %eax
	lock xaddl	%eax, 12(%rbx)
	jmp	.L55
.L50:
	movl	8(%rbx), %eax
	leal	-1(%rax), %edx
	decl	%eax
	movl	%edx, 8(%rbx)
	jne	.L41
	movq	(%rbx), %rax
	movq	%rbx, %rdi
	call	*16(%rax)
	movl	12(%rbx), %eax
	leal	-1(%rax), %edx
	movl	%edx, 12(%rbx)
.L55:
	decl	%eax
	jne	.L41
	movq	(%rbx), %rax
	movq	%rbx, %rdi
	movq	24(%rax), %rax
	popq	%rdx
	.cfi_remember_state
	.cfi_def_cfa_offset 24
	popq	%rbx
	.cfi_def_cfa_offset 16
	popq	%rbp
	.cfi_def_cfa_offset 8
	jmp	*%rax
.L58:
	.cfi_restore_state
	movq	(%rbx), %rax
	movq	%rbx, %rdi
	call	*16(%rax)
	movl	12(%rbx), %eax
	leal	-1(%rax), %edx
	movl	%edx, 12(%rbx)
	jmp	.L54
.L41:
	popq	%rax
	.cfi_def_cfa_offset 24
	popq	%rbx
	.cfi_def_cfa_offset 16
	popq	%rbp
	.cfi_def_cfa_offset 8
	ret
	.cfi_endproc
.LFE7593:
	.size	_ZZN8asiodnp318TCPClientIOHandler12StartConnectERKSt10shared_ptrIN7asiopal9TCPClientEERKN7openpal12TimeDurationEENUlRKS1_INS2_8ExecutorEEN4asio19basic_stream_socketINSF_2ip3tcpENSF_21stream_socket_serviceISI_EEEERKSt10error_codeE_D2Ev, .-_ZZN8asiodnp318TCPClientIOHandler12StartConnectERKSt10shared_ptrIN7asiopal9TCPClientEERKN7openpal12TimeDurationEENUlRKS1_INS2_8ExecutorEEN4asio19basic_stream_socketINSF_2ip3tcpENSF_21stream_socket_serviceISI_EEEERKSt10error_codeE_D2Ev
	.set	_ZZN8asiodnp318TCPClientIOHandler12StartConnectERKSt10shared_ptrIN7asiopal9TCPClientEERKN7openpal12TimeDurationEENUlRKS1_INS2_8ExecutorEEN4asio19basic_stream_socketINSF_2ip3tcpENSF_21stream_socket_serviceISI_EEEERKSt10error_codeE_D1Ev,_ZZN8asiodnp318TCPClientIOHandler12StartConnectERKSt10shared_ptrIN7asiopal9TCPClientEERKN7openpal12TimeDurationEENUlRKS1_INS2_8ExecutorEEN4asio19basic_stream_socketINSF_2ip3tcpENSF_21stream_socket_serviceISI_EEEERKSt10error_codeE_D2Ev
	.align 2
	.type	_ZZZN8asiodnp318TCPClientIOHandler12StartConnectERKSt10shared_ptrIN7asiopal9TCPClientEERKN7openpal12TimeDurationEENKUlRKS1_INS2_8ExecutorEEN4asio19basic_stream_socketINSF_2ip3tcpENSF_21stream_socket_serviceISI_EEEERKSt10error_codeE_clESE_SL_SO_ENUlvE_D2Ev, @function
_ZZZN8asiodnp318TCPClientIOHandler12StartConnectERKSt10shared_ptrIN7asiopal9TCPClientEERKN7openpal12TimeDurationEENKUlRKS1_INS2_8ExecutorEEN4asio19basic_stream_socketINSF_2ip3tcpENSF_21stream_socket_serviceISI_EEEERKSt10error_codeE_clESE_SL_SO_ENUlvE_D2Ev:
.LFB7584:
	.cfi_startproc
	pushq	%rbp
	.cfi_def_cfa_offset 16
	.cfi_offset 6, -16
	pushq	%rbx
	.cfi_def_cfa_offset 24
	.cfi_offset 3, -24
	movq	%rdi, %rbp
	subq	$8, %rsp
	.cfi_def_cfa_offset 32
	movq	32(%rdi), %rbx
	testq	%rbx, %rbx
	je	.L61
	cmpq	$0, _ZL28__gthrw___pthread_key_createPjPFvPvE@GOTPCREL(%rip)
	je	.L62
	lock decl	8(%rbx)
	jne	.L61
	jmp	.L75
.L62:
	movl	8(%rbx), %eax
	leal	-1(%rax), %edx
	decl	%eax
	movl	%edx, 8(%rbx)
	jne	.L61
	jmp	.L76
.L75:
	movq	(%rbx), %rax
	movq	%rbx, %rdi
	call	*16(%rax)
	orl	$-1, %eax
	lock xaddl	%eax, 12(%rbx)
.L72:
	decl	%eax
	jne	.L61
	movq	(%rbx), %rax
	movq	%rbx, %rdi
	call	*24(%rax)
.L61:
	movq	8(%rbp), %rbx
	testq	%rbx, %rbx
	je	.L59
	cmpq	$0, _ZL28__gthrw___pthread_key_createPjPFvPvE@GOTPCREL(%rip)
	je	.L68
	lock decl	8(%rbx)
	jne	.L59
	movq	(%rbx), %rax
	movq	%rbx, %rdi
	call	*16(%rax)
	orl	$-1, %eax
	lock xaddl	%eax, 12(%rbx)
	jmp	.L73
.L68:
	movl	8(%rbx), %eax
	leal	-1(%rax), %edx
	decl	%eax
	movl	%edx, 8(%rbx)
	jne	.L59
	movq	(%rbx), %rax
	movq	%rbx, %rdi
	call	*16(%rax)
	movl	12(%rbx), %eax
	leal	-1(%rax), %edx
	movl	%edx, 12(%rbx)
.L73:
	decl	%eax
	jne	.L59
	movq	(%rbx), %rax
	movq	%rbx, %rdi
	movq	24(%rax), %rax
	popq	%rdx
	.cfi_remember_state
	.cfi_def_cfa_offset 24
	popq	%rbx
	.cfi_def_cfa_offset 16
	popq	%rbp
	.cfi_def_cfa_offset 8
	jmp	*%rax
.L76:
	.cfi_restore_state
	movq	(%rbx), %rax
	movq	%rbx, %rdi
	call	*16(%rax)
	movl	12(%rbx), %eax
	leal	-1(%rax), %edx
	movl	%edx, 12(%rbx)
	jmp	.L72
.L59:
	popq	%rax
	.cfi_def_cfa_offset 24
	popq	%rbx
	.cfi_def_cfa_offset 16
	popq	%rbp
	.cfi_def_cfa_offset 8
	ret
	.cfi_endproc
.LFE7584:
	.size	_ZZZN8asiodnp318TCPClientIOHandler12StartConnectERKSt10shared_ptrIN7asiopal9TCPClientEERKN7openpal12TimeDurationEENKUlRKS1_INS2_8ExecutorEEN4asio19basic_stream_socketINSF_2ip3tcpENSF_21stream_socket_serviceISI_EEEERKSt10error_codeE_clESE_SL_SO_ENUlvE_D2Ev, .-_ZZZN8asiodnp318TCPClientIOHandler12StartConnectERKSt10shared_ptrIN7asiopal9TCPClientEERKN7openpal12TimeDurationEENKUlRKS1_INS2_8ExecutorEEN4asio19basic_stream_socketINSF_2ip3tcpENSF_21stream_socket_serviceISI_EEEERKSt10error_codeE_clESE_SL_SO_ENUlvE_D2Ev
	.set	_ZZZN8asiodnp318TCPClientIOHandler12StartConnectERKSt10shared_ptrIN7asiopal9TCPClientEERKN7openpal12TimeDurationEENKUlRKS1_INS2_8ExecutorEEN4asio19basic_stream_socketINSF_2ip3tcpENSF_21stream_socket_serviceISI_EEEERKSt10error_codeE_clESE_SL_SO_ENUlvE_D1Ev,_ZZZN8asiodnp318TCPClientIOHandler12StartConnectERKSt10shared_ptrIN7asiopal9TCPClientEERKN7openpal12TimeDurationEENKUlRKS1_INS2_8ExecutorEEN4asio19basic_stream_socketINSF_2ip3tcpENSF_21stream_socket_serviceISI_EEEERKSt10error_codeE_clESE_SL_SO_ENUlvE_D2Ev
	.section	.rodata._ZNK4asio6detail15system_category7messageB5cxx11Ei.str1.8,"aMS",@progbits,1
	.align 8
.LC4:
	.string	"basic_string::_M_construct null not valid"
	.section	.text._ZNK4asio6detail15system_category7messageB5cxx11Ei,"axG",@progbits,_ZNK4asio6detail15system_category7messageB5cxx11Ei,comdat
	.align 2
	.p2align 4,,15
	.weak	_ZNK4asio6detail15system_category7messageB5cxx11Ei
	.type	_ZNK4asio6detail15system_category7messageB5cxx11Ei, @function
_ZNK4asio6detail15system_category7messageB5cxx11Ei:
.LFB2905:
	.cfi_startproc
	pushq	%r13
	.cfi_def_cfa_offset 16
	.cfi_offset 13, -16
	pushq	%r12
	.cfi_def_cfa_offset 24
	.cfi_offset 12, -24
	pushq	%rbp
	.cfi_def_cfa_offset 32
	.cfi_offset 6, -32
	pushq	%rbx
	.cfi_def_cfa_offset 40
	.cfi_offset 3, -40
	leaq	16(%rdi), %rbp
	movq	%rdi, %rbx
	subq	$296, %rsp
	.cfi_def_cfa_offset 336
	movq	%fs:40, %rax
	movq	%rax, 280(%rsp)
	xorl	%eax, %eax
	cmpl	$125, %edx
	je	.L92
	pxor	%xmm0, %xmm0
	leaq	32(%rsp), %rdi
	movl	%edx, %r8d
	xorl	%eax, %eax
	movl	$30, %ecx
	leaq	16(%rsp), %rsi
	rep stosq
	movl	$256, %edx
	movl	%r8d, %edi
	movaps	%xmm0, 16(%rsp)
	call	strerror_r@PLT
	testq	%rax, %rax
	movq	%rax, %r12
	movq	%rbp, (%rbx)
	je	.L80
	movq	%rax, %rdi
	call	strlen@PLT
	cmpq	$15, %rax
	movq	%rax, %r13
	movq	%rax, 8(%rsp)
	ja	.L93
	cmpq	$1, %rax
	jne	.L84
	movzbl	(%r12), %edx
	movb	%dl, 16(%rbx)
.L85:
	movq	%rax, 8(%rbx)
	movb	$0, 0(%rbp,%rax)
.L77:
	movq	280(%rsp), %rcx
	xorq	%fs:40, %rcx
	movq	%rbx, %rax
	jne	.L94
	addq	$296, %rsp
	.cfi_remember_state
	.cfi_def_cfa_offset 40
	popq	%rbx
	.cfi_def_cfa_offset 32
	popq	%rbp
	.cfi_def_cfa_offset 24
	popq	%r12
	.cfi_def_cfa_offset 16
	popq	%r13
	.cfi_def_cfa_offset 8
	ret
	.p2align 4,,10
	.p2align 3
.L93:
	.cfi_restore_state
	leaq	8(%rsp), %rsi
	xorl	%edx, %edx
	movq	%rbx, %rdi
	call	_ZNSt7__cxx1112basic_stringIcSt11char_traitsIcESaIcEE9_M_createERmm@PLT
	movq	%rax, %rbp
	movq	%rax, (%rbx)
	movq	8(%rsp), %rax
	movq	%rax, 16(%rbx)
.L83:
	movq	%rbp, %rdi
	movq	%r13, %rdx
	movq	%r12, %rsi
	call	memcpy@PLT
	movq	8(%rsp), %rax
	movq	(%rbx), %rbp
	jmp	.L85
	.p2align 4,,10
	.p2align 3
.L92:
	leaq	8(%rsp), %rsi
	xorl	%edx, %edx
	movq	%rbp, (%rdi)
	movq	$18, 8(%rsp)
	call	_ZNSt7__cxx1112basic_stringIcSt11char_traitsIcESaIcEE9_M_createERmm@PLT
	movq	8(%rsp), %rdx
	movq	%rax, (%rbx)
	movdqa	.LC5(%rip), %xmm0
	movq	%rdx, 16(%rbx)
	movl	$11876, %edx
	movups	%xmm0, (%rax)
	movw	%dx, 16(%rax)
	movq	8(%rsp), %rax
	movq	(%rbx), %rdx
	movq	%rax, 8(%rbx)
	movb	$0, (%rdx,%rax)
	jmp	.L77
	.p2align 4,,10
	.p2align 3
.L84:
	testq	%rax, %rax
	je	.L85
	jmp	.L83
.L94:
	call	__stack_chk_fail@PLT
.L80:
	leaq	.LC4(%rip), %rdi
	call	_ZSt19__throw_logic_errorPKc@PLT
	.cfi_endproc
.LFE2905:
	.size	_ZNK4asio6detail15system_category7messageB5cxx11Ei, .-_ZNK4asio6detail15system_category7messageB5cxx11Ei
	.section	.text._ZNK4asio5error6detail17addrinfo_category7messageB5cxx11Ei,"axG",@progbits,_ZNK4asio5error6detail17addrinfo_category7messageB5cxx11Ei,comdat
	.align 2
	.p2align 4,,15
	.weak	_ZNK4asio5error6detail17addrinfo_category7messageB5cxx11Ei
	.type	_ZNK4asio5error6detail17addrinfo_category7messageB5cxx11Ei, @function
_ZNK4asio5error6detail17addrinfo_category7messageB5cxx11Ei:
.LFB2951:
	.cfi_startproc
	pushq	%rbx
	.cfi_def_cfa_offset 16
	.cfi_offset 3, -16
	movq	%rdi, %rbx
	subq	$16, %rsp
	.cfi_def_cfa_offset 32
	movq	%fs:40, %rax
	movq	%rax, 8(%rsp)
	xorl	%eax, %eax
	leaq	16(%rdi), %rax
	cmpl	$-8, %edx
	movq	%rax, (%rdi)
	je	.L101
	cmpl	$-7, %edx
	je	.L102
	xorl	%edx, %edx
	movq	%rsp, %rsi
	movq	$19, (%rsp)
	call	_ZNSt7__cxx1112basic_stringIcSt11char_traitsIcESaIcEE9_M_createERmm@PLT
	movq	(%rsp), %rdx
	movq	%rax, (%rbx)
	movdqa	.LC8(%rip), %xmm0
	movq	%rdx, 16(%rbx)
	movl	$28530, %edx
	movb	$114, 18(%rax)
	movups	%xmm0, (%rax)
	movw	%dx, 16(%rax)
	movq	(%rsp), %rax
	movq	(%rbx), %rdx
	movq	%rax, 8(%rbx)
	movb	$0, (%rdx,%rax)
.L95:
	movq	8(%rsp), %rcx
	xorq	%fs:40, %rcx
	movq	%rbx, %rax
	jne	.L103
	addq	$16, %rsp
	.cfi_remember_state
	.cfi_def_cfa_offset 16
	popq	%rbx
	.cfi_def_cfa_offset 8
	ret
	.p2align 4,,10
	.p2align 3
.L102:
	.cfi_restore_state
	xorl	%edx, %edx
	movq	%rsp, %rsi
	movq	$25, (%rsp)
	call	_ZNSt7__cxx1112basic_stringIcSt11char_traitsIcESaIcEE9_M_createERmm@PLT
	movq	(%rsp), %rdx
	movabsq	$7310593918082512243, %rcx
	movq	%rax, (%rbx)
	movdqa	.LC7(%rip), %xmm0
	movq	%rdx, 16(%rbx)
	movq	%rcx, 16(%rax)
	movups	%xmm0, (%rax)
	movb	$100, 24(%rax)
	movq	(%rsp), %rax
	movq	(%rbx), %rdx
	movq	%rax, 8(%rbx)
	movb	$0, (%rdx,%rax)
	jmp	.L95
	.p2align 4,,10
	.p2align 3
.L101:
	xorl	%edx, %edx
	movq	%rsp, %rsi
	movq	$17, (%rsp)
	call	_ZNSt7__cxx1112basic_stringIcSt11char_traitsIcESaIcEE9_M_createERmm@PLT
	movq	(%rsp), %rdx
	movq	%rax, (%rbx)
	movdqa	.LC6(%rip), %xmm0
	movq	%rdx, 16(%rbx)
	movb	$100, 16(%rax)
	movups	%xmm0, (%rax)
	movq	(%rsp), %rax
	movq	(%rbx), %rdx
	movq	%rax, 8(%rbx)
	movb	$0, (%rdx,%rax)
	jmp	.L95
.L103:
	call	__stack_chk_fail@PLT
	.cfi_endproc
.LFE2951:
	.size	_ZNK4asio5error6detail17addrinfo_category7messageB5cxx11Ei, .-_ZNK4asio5error6detail17addrinfo_category7messageB5cxx11Ei
	.section	.text._ZNK4asio5error6detail13misc_category7messageB5cxx11Ei,"axG",@progbits,_ZNK4asio5error6detail13misc_category7messageB5cxx11Ei,comdat
	.align 2
	.p2align 4,,15
	.weak	_ZNK4asio5error6detail13misc_category7messageB5cxx11Ei
	.type	_ZNK4asio5error6detail13misc_category7messageB5cxx11Ei, @function
_ZNK4asio5error6detail13misc_category7messageB5cxx11Ei:
.LFB2957:
	.cfi_startproc
	pushq	%rbx
	.cfi_def_cfa_offset 16
	.cfi_offset 3, -16
	movq	%rdi, %rbx
	subq	$16, %rsp
	.cfi_def_cfa_offset 32
	movq	%fs:40, %rax
	movq	%rax, 8(%rsp)
	xorl	%eax, %eax
	leaq	16(%rdi), %rax
	cmpl	$1, %edx
	movq	%rax, (%rdi)
	je	.L112
	cmpl	$2, %edx
	je	.L113
	cmpl	$3, %edx
	je	.L114
	cmpl	$4, %edx
	je	.L115
	movabsq	$8316298233121436513, %rsi
	movl	$28530, %edx
	movq	%rsi, 16(%rdi)
	movl	$1919230051, 8(%rax)
	movw	%dx, 12(%rax)
	movb	$114, 14(%rax)
	movq	$15, 8(%rdi)
	movb	$0, 31(%rdi)
.L104:
	movq	8(%rsp), %rcx
	xorq	%fs:40, %rcx
	movq	%rbx, %rax
	jne	.L116
	addq	$16, %rsp
	.cfi_remember_state
	.cfi_def_cfa_offset 16
	popq	%rbx
	.cfi_def_cfa_offset 8
	ret
	.p2align 4,,10
	.p2align 3
.L115:
	.cfi_restore_state
	xorl	%edx, %edx
	movq	%rsp, %rsi
	movq	$57, (%rsp)
	call	_ZNSt7__cxx1112basic_stringIcSt11char_traitsIcESaIcEE9_M_createERmm@PLT
	movq	(%rsp), %rdx
	movq	%rax, (%rbx)
	movabsq	$7310291504967217959, %rdi
	movdqa	.LC10(%rip), %xmm0
	movq	%rdx, 16(%rbx)
	movq	%rdi, 48(%rax)
	movups	%xmm0, (%rax)
	movb	$116, 56(%rax)
	movdqa	.LC11(%rip), %xmm0
	movups	%xmm0, 16(%rax)
	movdqa	.LC12(%rip), %xmm0
	movups	%xmm0, 32(%rax)
	movq	(%rsp), %rax
	movq	(%rbx), %rdx
	movq	%rax, 8(%rbx)
	movb	$0, (%rdx,%rax)
	jmp	.L104
	.p2align 4,,10
	.p2align 3
.L112:
	movabsq	$2340011850872286273, %rcx
	movq	%rcx, 16(%rdi)
	movl	$1852141679, 8(%rax)
	movq	$12, 8(%rdi)
	movb	$0, 28(%rdi)
	jmp	.L104
	.p2align 4,,10
	.p2align 3
.L113:
	movabsq	$7358994418594246213, %rcx
	movq	%rcx, 16(%rdi)
	movl	$27753, %ecx
	movb	$101, 10(%rax)
	movw	%cx, 8(%rax)
	movq	$11, 8(%rdi)
	movb	$0, 27(%rdi)
	jmp	.L104
	.p2align 4,,10
	.p2align 3
.L114:
	xorl	%edx, %edx
	movq	%rsp, %rsi
	movq	$17, (%rsp)
	call	_ZNSt7__cxx1112basic_stringIcSt11char_traitsIcESaIcEE9_M_createERmm@PLT
	movq	(%rsp), %rdx
	movq	%rax, (%rbx)
	movdqa	.LC9(%rip), %xmm0
	movq	%rdx, 16(%rbx)
	movb	$100, 16(%rax)
	movups	%xmm0, (%rax)
	movq	(%rsp), %rax
	movq	(%rbx), %rdx
	movq	%rax, 8(%rbx)
	movb	$0, (%rdx,%rax)
	jmp	.L104
.L116:
	call	__stack_chk_fail@PLT
	.cfi_endproc
.LFE2957:
	.size	_ZNK4asio5error6detail13misc_category7messageB5cxx11Ei, .-_ZNK4asio5error6detail13misc_category7messageB5cxx11Ei
	.section	.text._ZNK4asio5error6detail14netdb_category7messageB5cxx11Ei,"axG",@progbits,_ZNK4asio5error6detail14netdb_category7messageB5cxx11Ei,comdat
	.align 2
	.p2align 4,,15
	.weak	_ZNK4asio5error6detail14netdb_category7messageB5cxx11Ei
	.type	_ZNK4asio5error6detail14netdb_category7messageB5cxx11Ei, @function
_ZNK4asio5error6detail14netdb_category7messageB5cxx11Ei:
.LFB2945:
	.cfi_startproc
	pushq	%rbx
	.cfi_def_cfa_offset 16
	.cfi_offset 3, -16
	movq	%rdi, %rbx
	subq	$16, %rsp
	.cfi_def_cfa_offset 32
	movq	%fs:40, %rax
	movq	%rax, 8(%rsp)
	xorl	%eax, %eax
	leaq	16(%rdi), %rax
	cmpl	$1, %edx
	movq	%rax, (%rdi)
	je	.L125
	cmpl	$2, %edx
	je	.L126
	cmpl	$4, %edx
	je	.L127
	cmpl	$3, %edx
	je	.L128
	xorl	%edx, %edx
	movq	%rsp, %rsi
	movq	$16, (%rsp)
	call	_ZNSt7__cxx1112basic_stringIcSt11char_traitsIcESaIcEE9_M_createERmm@PLT
	movq	(%rsp), %rdx
	movq	%rax, (%rbx)
	movdqa	.LC22(%rip), %xmm0
	movq	%rdx, 16(%rbx)
	movups	%xmm0, (%rax)
	movq	(%rsp), %rax
	movq	(%rbx), %rdx
	movq	%rax, 8(%rbx)
	movb	$0, (%rdx,%rax)
.L117:
	movq	8(%rsp), %rcx
	xorq	%fs:40, %rcx
	movq	%rbx, %rax
	jne	.L129
	addq	$16, %rsp
	.cfi_remember_state
	.cfi_def_cfa_offset 16
	popq	%rbx
	.cfi_def_cfa_offset 8
	ret
	.p2align 4,,10
	.p2align 3
.L128:
	.cfi_restore_state
	xorl	%edx, %edx
	movq	%rsp, %rsi
	movq	$55, (%rsp)
	call	_ZNSt7__cxx1112basic_stringIcSt11char_traitsIcESaIcEE9_M_createERmm@PLT
	movq	(%rsp), %rdx
	movq	%rax, (%rbx)
	movdqa	.LC19(%rip), %xmm0
	movq	%rdx, 16(%rbx)
	movl	$30059, %edx
	movl	$1869573152, 48(%rax)
	movups	%xmm0, (%rax)
	movw	%dx, 52(%rax)
	movb	$112, 54(%rax)
	movdqa	.LC20(%rip), %xmm0
	movups	%xmm0, 16(%rax)
	movdqa	.LC21(%rip), %xmm0
	movups	%xmm0, 32(%rax)
	movq	(%rsp), %rax
	movq	(%rbx), %rdx
	movq	%rax, 8(%rbx)
	movb	$0, (%rdx,%rax)
	jmp	.L117
	.p2align 4,,10
	.p2align 3
.L125:
	movq	%rsp, %rsi
	xorl	%edx, %edx
	movq	$30, (%rsp)
	call	_ZNSt7__cxx1112basic_stringIcSt11char_traitsIcESaIcEE9_M_createERmm@PLT
	movq	(%rsp), %rdx
	movabsq	$8388361603773658465, %rcx
	movl	$10597, %esi
	movdqa	.LC13(%rip), %xmm0
	movq	%rax, (%rbx)
	movq	%rdx, 16(%rbx)
	movq	%rcx, 16(%rax)
	movups	%xmm0, (%rax)
	movl	$1986622561, 24(%rax)
	movw	%si, 28(%rax)
	movq	(%rsp), %rax
	movq	(%rbx), %rdx
	movq	%rax, 8(%rbx)
	movb	$0, (%rdx,%rax)
	jmp	.L117
	.p2align 4,,10
	.p2align 3
.L126:
	xorl	%edx, %edx
	movq	%rsp, %rsi
	movq	$51, (%rsp)
	call	_ZNSt7__cxx1112basic_stringIcSt11char_traitsIcESaIcEE9_M_createERmm@PLT
	movq	(%rsp), %rdx
	movq	%rax, (%rbx)
	movl	$25972, %ecx
	movdqa	.LC13(%rip), %xmm0
	movq	%rdx, 16(%rbx)
	movw	%cx, 48(%rax)
	movups	%xmm0, (%rax)
	movb	$114, 50(%rax)
	movdqa	.LC14(%rip), %xmm0
	movups	%xmm0, 16(%rax)
	movdqa	.LC15(%rip), %xmm0
	movups	%xmm0, 32(%rax)
	movq	(%rsp), %rax
	movq	(%rbx), %rdx
	movq	%rax, 8(%rbx)
	movb	$0, (%rdx,%rax)
	jmp	.L117
	.p2align 4,,10
	.p2align 3
.L127:
	xorl	%edx, %edx
	movq	%rsp, %rsi
	movq	$56, (%rsp)
	call	_ZNSt7__cxx1112basic_stringIcSt11char_traitsIcESaIcEE9_M_createERmm@PLT
	movq	(%rsp), %rdx
	movq	%rax, (%rbx)
	movabsq	$7022344801645520244, %rcx
	movdqa	.LC16(%rip), %xmm0
	movq	%rdx, 16(%rbx)
	movq	%rcx, 48(%rax)
	movups	%xmm0, (%rax)
	movdqa	.LC17(%rip), %xmm0
	movups	%xmm0, 16(%rax)
	movdqa	.LC18(%rip), %xmm0
	movups	%xmm0, 32(%rax)
	movq	(%rsp), %rax
	movq	(%rbx), %rdx
	movq	%rax, 8(%rbx)
	movb	$0, (%rdx,%rax)
	jmp	.L117
.L129:
	call	__stack_chk_fail@PLT
	.cfi_endproc
.LFE2945:
	.size	_ZNK4asio5error6detail14netdb_category7messageB5cxx11Ei, .-_ZNK4asio5error6detail14netdb_category7messageB5cxx11Ei
	.text
	.p2align 4,,15
	.type	_ZNSt14_Function_base13_Base_managerIZN8asiodnp318TCPClientIOHandler12StartConnectERKSt10shared_ptrIN7asiopal9TCPClientEERKN7openpal12TimeDurationEEUlRKS3_INS4_8ExecutorEEN4asio19basic_stream_socketINSH_2ip3tcpENSH_21stream_socket_serviceISK_EEEERKSt10error_codeE_E10_M_managerERSt9_Any_dataRKST_St18_Manager_operation, @function
_ZNSt14_Function_base13_Base_managerIZN8asiodnp318TCPClientIOHandler12StartConnectERKSt10shared_ptrIN7asiopal9TCPClientEERKN7openpal12TimeDurationEEUlRKS3_INS4_8ExecutorEEN4asio19basic_stream_socketINSH_2ip3tcpENSH_21stream_socket_serviceISK_EEEERKSt10error_codeE_E10_M_managerERSt9_Any_dataRKST_St18_Manager_operation:
.LFB8986:
	.cfi_startproc
	cmpl	$1, %edx
	je	.L132
	jb	.L133
	pushq	%rbp
	.cfi_def_cfa_offset 16
	.cfi_offset 6, -16
	pushq	%rbx
	.cfi_def_cfa_offset 24
	.cfi_offset 3, -24
	movq	%rdi, %rbx
	subq	$8, %rsp
	.cfi_def_cfa_offset 32
	cmpl	$2, %edx
	je	.L134
	cmpl	$3, %edx
	jne	.L160
	movq	(%rdi), %rbx
	testq	%rbx, %rbx
	je	.L160
	movq	40(%rbx), %rbp
	testq	%rbp, %rbp
	je	.L143
	cmpq	$0, _ZL28__gthrw___pthread_key_createPjPFvPvE@GOTPCREL(%rip)
	je	.L144
	lock subl	$1, 8(%rbp)
	jne	.L143
	movq	0(%rbp), %rax
	movq	%rbp, %rdi
	call	*16(%rax)
	movl	$-1, %eax
	lock xaddl	%eax, 12(%rbp)
.L155:
	cmpl	$1, %eax
	jne	.L143
	movq	0(%rbp), %rax
	movq	%rbp, %rdi
	call	*24(%rax)
	.p2align 4,,10
	.p2align 3
.L143:
	movq	8(%rbx), %rbp
	testq	%rbp, %rbp
	je	.L149
	cmpq	$0, _ZL28__gthrw___pthread_key_createPjPFvPvE@GOTPCREL(%rip)
	je	.L150
	lock subl	$1, 8(%rbp)
	jne	.L149
	movq	0(%rbp), %rax
	movq	%rbp, %rdi
	call	*16(%rax)
	movl	$-1, %eax
	lock xaddl	%eax, 12(%rbp)
.L156:
	cmpl	$1, %eax
	jne	.L149
	movq	0(%rbp), %rax
	movq	%rbp, %rdi
	call	*24(%rax)
	.p2align 4,,10
	.p2align 3
.L149:
	movl	$48, %esi
	movq	%rbx, %rdi
	call	_ZdlPvm@PLT
.L160:
	addq	$8, %rsp
	.cfi_remember_state
	.cfi_def_cfa_offset 24
	xorl	%eax, %eax
	popq	%rbx
	.cfi_def_cfa_offset 16
	popq	%rbp
	.cfi_def_cfa_offset 8
	ret
	.p2align 4,,10
	.p2align 3
.L134:
	.cfi_restore_state
	movq	(%rsi), %rbp
	movl	$48, %edi
	call	_Znwm@PLT
	movq	0(%rbp), %rdx
	movq	%rdx, (%rax)
	movq	8(%rbp), %rdx
	testq	%rdx, %rdx
	movq	%rdx, 8(%rax)
	je	.L136
	cmpq	$0, _ZL28__gthrw___pthread_key_createPjPFvPvE@GOTPCREL(%rip)
	je	.L137
	lock addl	$1, 8(%rdx)
	movq	16(%rbp), %rdx
	movq	40(%rbp), %rcx
	movq	%rdx, 16(%rax)
	movq	24(%rbp), %rdx
	testq	%rcx, %rcx
	movq	%rdx, 24(%rax)
	movq	32(%rbp), %rdx
	movq	%rcx, 40(%rax)
	movq	%rdx, 32(%rax)
	leaq	8(%rcx), %rdx
	je	.L139
.L154:
	lock addl	$1, (%rdx)
.L139:
	movq	%rax, (%rbx)
	addq	$8, %rsp
	.cfi_def_cfa_offset 24
	xorl	%eax, %eax
	popq	%rbx
	.cfi_def_cfa_offset 16
	popq	%rbp
	.cfi_def_cfa_offset 8
	ret
	.p2align 4,,10
	.p2align 3
.L133:
	.cfi_restore 3
	.cfi_restore 6
	leaq	_ZTIZN8asiodnp318TCPClientIOHandler12StartConnectERKSt10shared_ptrIN7asiopal9TCPClientEERKN7openpal12TimeDurationEEUlRKS1_INS2_8ExecutorEEN4asio19basic_stream_socketINSF_2ip3tcpENSF_21stream_socket_serviceISI_EEEERKSt10error_codeE_(%rip), %rax
	movq	%rax, (%rdi)
	xorl	%eax, %eax
	ret
	.p2align 4,,10
	.p2align 3
.L132:
	movq	(%rsi), %rax
	movq	%rax, (%rdi)
	xorl	%eax, %eax
	ret
	.p2align 4,,10
	.p2align 3
.L136:
	.cfi_def_cfa_offset 32
	.cfi_offset 3, -24
	.cfi_offset 6, -16
	movq	16(%rbp), %rdx
	movq	%rdx, 16(%rax)
	movq	24(%rbp), %rdx
	movq	%rdx, 24(%rax)
	movq	32(%rbp), %rdx
	movq	%rdx, 32(%rax)
	movq	40(%rbp), %rdx
	testq	%rdx, %rdx
	movq	%rdx, 40(%rax)
	je	.L139
	cmpq	$0, _ZL28__gthrw___pthread_key_createPjPFvPvE@GOTPCREL(%rip)
	je	.L140
	addq	$8, %rdx
	jmp	.L154
	.p2align 4,,10
	.p2align 3
.L137:
	addl	$1, 8(%rdx)
	movq	16(%rbp), %rdx
	movq	%rdx, 16(%rax)
	movq	24(%rbp), %rdx
	movq	%rdx, 24(%rax)
	movq	32(%rbp), %rdx
	movq	%rdx, 32(%rax)
	movq	40(%rbp), %rdx
	testq	%rdx, %rdx
	movq	%rdx, 40(%rax)
	je	.L139
.L140:
	addl	$1, 8(%rdx)
	jmp	.L139
	.p2align 4,,10
	.p2align 3
.L150:
	movl	8(%rbp), %eax
	leal	-1(%rax), %edx
	cmpl	$1, %eax
	movl	%edx, 8(%rbp)
	jne	.L149
	movq	0(%rbp), %rax
	movq	%rbp, %rdi
	call	*16(%rax)
	movl	12(%rbp), %eax
	leal	-1(%rax), %edx
	movl	%edx, 12(%rbp)
	jmp	.L156
	.p2align 4,,10
	.p2align 3
.L144:
	movl	8(%rbp), %eax
	leal	-1(%rax), %edx
	cmpl	$1, %eax
	movl	%edx, 8(%rbp)
	jne	.L143
	movq	0(%rbp), %rax
	movq	%rbp, %rdi
	call	*16(%rax)
	movl	12(%rbp), %eax
	leal	-1(%rax), %edx
	movl	%edx, 12(%rbp)
	jmp	.L155
	.cfi_endproc
.LFE8986:
	.size	_ZNSt14_Function_base13_Base_managerIZN8asiodnp318TCPClientIOHandler12StartConnectERKSt10shared_ptrIN7asiopal9TCPClientEERKN7openpal12TimeDurationEEUlRKS3_INS4_8ExecutorEEN4asio19basic_stream_socketINSH_2ip3tcpENSH_21stream_socket_serviceISK_EEEERKSt10error_codeE_E10_M_managerERSt9_Any_dataRKST_St18_Manager_operation, .-_ZNSt14_Function_base13_Base_managerIZN8asiodnp318TCPClientIOHandler12StartConnectERKSt10shared_ptrIN7asiopal9TCPClientEERKN7openpal12TimeDurationEEUlRKS3_INS4_8ExecutorEEN4asio19basic_stream_socketINSH_2ip3tcpENSH_21stream_socket_serviceISK_EEEERKSt10error_codeE_E10_M_managerERSt9_Any_dataRKST_St18_Manager_operation
	.p2align 4,,15
	.type	_ZNSt14_Function_base13_Base_managerIZN7openpal8TimerRef5StartIZZN8asiodnp318TCPClientIOHandler12StartConnectERKSt10shared_ptrIN7asiopal9TCPClientEERKNS1_12TimeDurationEENKUlRKS6_INS7_8ExecutorEEN4asio19basic_stream_socketINSJ_2ip3tcpENSJ_21stream_socket_serviceISM_EEEERKSt10error_codeE_clESI_SP_SS_EUlvE_EEbSE_RKT_EUlvE_E10_M_managerERSt9_Any_dataRKS10_St18_Manager_operation, @function
_ZNSt14_Function_base13_Base_managerIZN7openpal8TimerRef5StartIZZN8asiodnp318TCPClientIOHandler12StartConnectERKSt10shared_ptrIN7asiopal9TCPClientEERKNS1_12TimeDurationEENKUlRKS6_INS7_8ExecutorEEN4asio19basic_stream_socketINSJ_2ip3tcpENSJ_21stream_socket_serviceISM_EEEERKSt10error_codeE_clESI_SP_SS_EUlvE_EEbSE_RKT_EUlvE_E10_M_managerERSt9_Any_dataRKS10_St18_Manager_operation:
.LFB9303:
	.cfi_startproc
	cmpl	$1, %edx
	je	.L173
	jb	.L174
	pushq	%rbp
	.cfi_def_cfa_offset 16
	.cfi_offset 6, -16
	pushq	%rbx
	.cfi_def_cfa_offset 24
	.cfi_offset 3, -24
	movq	%rdi, %rbx
	subq	$8, %rsp
	.cfi_def_cfa_offset 32
	cmpl	$2, %edx
	je	.L175
	cmpl	$3, %edx
	jne	.L201
	movq	(%rdi), %rbx
	testq	%rbx, %rbx
	je	.L201
	movq	40(%rbx), %rbp
	testq	%rbp, %rbp
	je	.L184
	cmpq	$0, _ZL28__gthrw___pthread_key_createPjPFvPvE@GOTPCREL(%rip)
	je	.L185
	lock subl	$1, 8(%rbp)
	jne	.L184
	movq	0(%rbp), %rax
	movq	%rbp, %rdi
	call	*16(%rax)
	movl	$-1, %eax
	lock xaddl	%eax, 12(%rbp)
.L196:
	cmpl	$1, %eax
	jne	.L184
	movq	0(%rbp), %rax
	movq	%rbp, %rdi
	call	*24(%rax)
	.p2align 4,,10
	.p2align 3
.L184:
	movq	16(%rbx), %rbp
	testq	%rbp, %rbp
	je	.L190
	cmpq	$0, _ZL28__gthrw___pthread_key_createPjPFvPvE@GOTPCREL(%rip)
	je	.L191
	lock subl	$1, 8(%rbp)
	jne	.L190
	movq	0(%rbp), %rax
	movq	%rbp, %rdi
	call	*16(%rax)
	movl	$-1, %eax
	lock xaddl	%eax, 12(%rbp)
.L197:
	cmpl	$1, %eax
	jne	.L190
	movq	0(%rbp), %rax
	movq	%rbp, %rdi
	call	*24(%rax)
	.p2align 4,,10
	.p2align 3
.L190:
	movl	$56, %esi
	movq	%rbx, %rdi
	call	_ZdlPvm@PLT
.L201:
	addq	$8, %rsp
	.cfi_remember_state
	.cfi_def_cfa_offset 24
	xorl	%eax, %eax
	popq	%rbx
	.cfi_def_cfa_offset 16
	popq	%rbp
	.cfi_def_cfa_offset 8
	ret
	.p2align 4,,10
	.p2align 3
.L175:
	.cfi_restore_state
	movq	(%rsi), %rbp
	movl	$56, %edi
	call	_Znwm@PLT
	movq	0(%rbp), %rdx
	movq	%rdx, (%rax)
	movq	8(%rbp), %rdx
	movq	%rdx, 8(%rax)
	movq	16(%rbp), %rdx
	testq	%rdx, %rdx
	movq	%rdx, 16(%rax)
	je	.L177
	cmpq	$0, _ZL28__gthrw___pthread_key_createPjPFvPvE@GOTPCREL(%rip)
	je	.L178
	lock addl	$1, 8(%rdx)
	movq	24(%rbp), %rdx
	movq	40(%rbp), %rcx
	movq	%rdx, 24(%rax)
	movq	32(%rbp), %rdx
	testq	%rcx, %rcx
	movq	%rcx, 40(%rax)
	movq	%rdx, 32(%rax)
	leaq	8(%rcx), %rdx
	je	.L180
.L195:
	lock addl	$1, (%rdx)
.L180:
	movq	48(%rbp), %rdx
	movq	%rax, (%rbx)
	movq	%rdx, 48(%rax)
	addq	$8, %rsp
	.cfi_def_cfa_offset 24
	xorl	%eax, %eax
	popq	%rbx
	.cfi_def_cfa_offset 16
	popq	%rbp
	.cfi_def_cfa_offset 8
	ret
	.p2align 4,,10
	.p2align 3
.L174:
	.cfi_restore 3
	.cfi_restore 6
	leaq	_ZTIZN7openpal8TimerRef5StartIZZN8asiodnp318TCPClientIOHandler12StartConnectERKSt10shared_ptrIN7asiopal9TCPClientEERKNS_12TimeDurationEENKUlRKS4_INS5_8ExecutorEEN4asio19basic_stream_socketINSH_2ip3tcpENSH_21stream_socket_serviceISK_EEEERKSt10error_codeE_clESG_SN_SQ_EUlvE_EEbSC_RKT_EUlvE_(%rip), %rax
	movq	%rax, (%rdi)
	xorl	%eax, %eax
	ret
	.p2align 4,,10
	.p2align 3
.L173:
	movq	(%rsi), %rax
	movq	%rax, (%rdi)
	xorl	%eax, %eax
	ret
	.p2align 4,,10
	.p2align 3
.L177:
	.cfi_def_cfa_offset 32
	.cfi_offset 3, -24
	.cfi_offset 6, -16
	movq	24(%rbp), %rdx
	movq	%rdx, 24(%rax)
	movq	32(%rbp), %rdx
	movq	%rdx, 32(%rax)
	movq	40(%rbp), %rdx
	testq	%rdx, %rdx
	movq	%rdx, 40(%rax)
	je	.L180
	cmpq	$0, _ZL28__gthrw___pthread_key_createPjPFvPvE@GOTPCREL(%rip)
	je	.L181
	addq	$8, %rdx
	jmp	.L195
	.p2align 4,,10
	.p2align 3
.L178:
	addl	$1, 8(%rdx)
	movq	24(%rbp), %rdx
	movq	%rdx, 24(%rax)
	movq	32(%rbp), %rdx
	movq	%rdx, 32(%rax)
	movq	40(%rbp), %rdx
	testq	%rdx, %rdx
	movq	%rdx, 40(%rax)
	je	.L180
.L181:
	addl	$1, 8(%rdx)
	jmp	.L180
	.p2align 4,,10
	.p2align 3
.L191:
	movl	8(%rbp), %eax
	leal	-1(%rax), %edx
	cmpl	$1, %eax
	movl	%edx, 8(%rbp)
	jne	.L190
	movq	0(%rbp), %rax
	movq	%rbp, %rdi
	call	*16(%rax)
	movl	12(%rbp), %eax
	leal	-1(%rax), %edx
	movl	%edx, 12(%rbp)
	jmp	.L197
	.p2align 4,,10
	.p2align 3
.L185:
	movl	8(%rbp), %eax
	leal	-1(%rax), %edx
	cmpl	$1, %eax
	movl	%edx, 8(%rbp)
	jne	.L184
	movq	0(%rbp), %rax
	movq	%rbp, %rdi
	call	*16(%rax)
	movl	12(%rbp), %eax
	leal	-1(%rax), %edx
	movl	%edx, 12(%rbp)
	jmp	.L196
	.cfi_endproc
.LFE9303:
	.size	_ZNSt14_Function_base13_Base_managerIZN7openpal8TimerRef5StartIZZN8asiodnp318TCPClientIOHandler12StartConnectERKSt10shared_ptrIN7asiopal9TCPClientEERKNS1_12TimeDurationEENKUlRKS6_INS7_8ExecutorEEN4asio19basic_stream_socketINSJ_2ip3tcpENSJ_21stream_socket_serviceISM_EEEERKSt10error_codeE_clESI_SP_SS_EUlvE_EEbSE_RKT_EUlvE_E10_M_managerERSt9_Any_dataRKS10_St18_Manager_operation, .-_ZNSt14_Function_base13_Base_managerIZN7openpal8TimerRef5StartIZZN8asiodnp318TCPClientIOHandler12StartConnectERKSt10shared_ptrIN7asiopal9TCPClientEERKNS1_12TimeDurationEENKUlRKS6_INS7_8ExecutorEEN4asio19basic_stream_socketINSJ_2ip3tcpENSJ_21stream_socket_serviceISM_EEEERKSt10error_codeE_clESI_SP_SS_EUlvE_EEbSE_RKT_EUlvE_E10_M_managerERSt9_Any_dataRKS10_St18_Manager_operation
	.section	.text._ZSt20__throw_bad_weak_ptrv,"axG",@progbits,_ZSt20__throw_bad_weak_ptrv,comdat
	.p2align 4,,15
	.weak	_ZSt20__throw_bad_weak_ptrv
	.type	_ZSt20__throw_bad_weak_ptrv, @function
_ZSt20__throw_bad_weak_ptrv:
.LFB1576:
	.cfi_startproc
	movl	$8, %edi
	subq	$8, %rsp
	.cfi_def_cfa_offset 16
	call	__cxa_allocate_exception@PLT
	movq	_ZTVSt12bad_weak_ptr@GOTPCREL(%rip), %rdx
	movq	_ZTISt12bad_weak_ptr@GOTPCREL(%rip), %rsi
	movq	%rax, %rdi
	addq	$16, %rdx
	movq	%rdx, (%rax)
	movq	_ZNSt12bad_weak_ptrD1Ev@GOTPCREL(%rip), %rdx
	call	__cxa_throw@PLT
	.cfi_endproc
.LFE1576:
	.size	_ZSt20__throw_bad_weak_ptrv, .-_ZSt20__throw_bad_weak_ptrv
	.section	.text._ZN4asio15system_categoryEv,"axG",@progbits,_ZN4asio15system_categoryEv,comdat
	.p2align 4,,15
	.weak	_ZN4asio15system_categoryEv
	.type	_ZN4asio15system_categoryEv, @function
_ZN4asio15system_categoryEv:
.LFB2908:
	.cfi_startproc
	pushq	%rbx
	.cfi_def_cfa_offset 16
	.cfi_offset 3, -16
	movq	_ZGVZN4asio15system_categoryEvE8instance@GOTPCREL(%rip), %rbx
	movzbl	(%rbx), %eax
	testb	%al, %al
	je	.L215
.L222:
	movq	_ZZN4asio15system_categoryEvE8instance@GOTPCREL(%rip), %rbx
	movq	%rbx, %rax
	popq	%rbx
	.cfi_remember_state
	.cfi_def_cfa_offset 8
	ret
	.p2align 4,,10
	.p2align 3
.L215:
	.cfi_restore_state
	movq	%rbx, %rdi
	call	__cxa_guard_acquire@PLT
	testl	%eax, %eax
	je	.L222
	movq	%rbx, %rdi
	call	__cxa_guard_release@PLT
	movq	_ZZN4asio15system_categoryEvE8instance@GOTPCREL(%rip), %rbx
	movq	_ZN4asio6detail15system_categoryD1Ev@GOTPCREL(%rip), %rdi
	leaq	__dso_handle(%rip), %rdx
	movq	%rbx, %rsi
	call	__cxa_atexit@PLT
	movq	%rbx, %rax
	popq	%rbx
	.cfi_def_cfa_offset 8
	ret
	.cfi_endproc
.LFE2908:
	.size	_ZN4asio15system_categoryEv, .-_ZN4asio15system_categoryEv
	.section	.text._ZNSt23_Sp_counted_ptr_inplaceIN7asiopal9TCPClientESaIS1_ELN9__gnu_cxx12_Lock_policyE2EE10_M_disposeEv,"axG",@progbits,_ZNSt23_Sp_counted_ptr_inplaceIN7asiopal9TCPClientESaIS1_ELN9__gnu_cxx12_Lock_policyE2EE10_M_disposeEv,comdat
	.align 2
	.p2align 4,,15
	.weak	_ZNSt23_Sp_counted_ptr_inplaceIN7asiopal9TCPClientESaIS1_ELN9__gnu_cxx12_Lock_policyE2EE10_M_disposeEv
	.type	_ZNSt23_Sp_counted_ptr_inplaceIN7asiopal9TCPClientESaIS1_ELN9__gnu_cxx12_Lock_policyE2EE10_M_disposeEv, @function
_ZNSt23_Sp_counted_ptr_inplaceIN7asiopal9TCPClientESaIS1_ELN9__gnu_cxx12_Lock_policyE2EE10_M_disposeEv:
.LFB10288:
	.cfi_startproc
	.cfi_personality 0x9b,DW.ref.__gxx_personality_v0
	.cfi_lsda 0x1b,.LLSDA10288
	pushq	%r15
	.cfi_def_cfa_offset 16
	.cfi_offset 15, -16
	pushq	%r14
	.cfi_def_cfa_offset 24
	.cfi_offset 14, -24
	pushq	%r13
	.cfi_def_cfa_offset 32
	.cfi_offset 13, -32
	pushq	%r12
	.cfi_def_cfa_offset 40
	.cfi_offset 12, -40
	pushq	%rbp
	.cfi_def_cfa_offset 48
	.cfi_offset 6, -48
	pushq	%rbx
	.cfi_def_cfa_offset 56
	.cfi_offset 3, -56
	movq	%rdi, %rbx
	subq	$88, %rsp
	.cfi_def_cfa_offset 144
	movq	256(%rdi), %rbp
	movq	$0, 248(%rdi)
	movq	%fs:40, %rax
	movq	%rax, 72(%rsp)
	xorl	%eax, %eax
	movq	$0, 256(%rdi)
	testq	%rbp, %rbp
	je	.L225
	movq	_ZL28__gthrw___pthread_key_createPjPFvPvE@GOTPCREL(%rip), %r12
	testq	%r12, %r12
	je	.L226
	lock subl	$1, 8(%rbp)
	je	.L227
	movq	256(%rdi), %rbp
	testq	%rbp, %rbp
	je	.L225
.L228:
	lock subl	$1, 8(%rbp)
	je	.L392
	.p2align 4,,10
	.p2align 3
.L225:
	movl	152(%rbx), %ebp
	cmpl	$-1, %ebp
	je	.L236
	movq	160(%rbx), %r13
	testq	%r13, %r13
	je	.L314
	movq	176(%rbx), %rax
	movzbl	156(%rbx), %r12d
	movq	40(%rax), %rax
	movq	%rax, 32(%rsp)
	leaq	40(%r13), %rax
	movq	%rax, %rdi
	movq	%rax, 40(%rsp)
	call	pthread_mutex_lock@PLT
	movq	160(%rbx), %rsi
	cmpb	$0, 144(%rsi)
	jne	.L238
	andl	$64, %r12d
	jne	.L393
.L239:
	movq	$0, 8(%rsp)
	movq	8(%rsp), %rax
	xorl	%r14d, %r14d
	movq	$0, 24(%rsp)
	movq	%rbx, 16(%rsp)
.L249:
	leaq	6(%rax), %rcx
	salq	$4, %rcx
	movq	(%rsi,%rcx), %r13
	movq	%rcx, %r12
	testq	%r13, %r13
	je	.L316
	salq	$4, %rax
	movq	_ZGVZN4asio15system_categoryEvE8instance@GOTPCREL(%rip), %rbx
	movq	_ZZN4asio15system_categoryEvE8instance@GOTPCREL(%rip), %rbp
	movq	%rax, %r15
	jmp	.L241
	.p2align 4,,10
	.p2align 3
.L243:
	leaq	(%rsi,%r15), %rdx
	movl	$125, 24(%r13)
	movq	%rbp, 32(%r13)
	movq	96(%rdx), %rax
	testq	%rax, %rax
	je	.L245
	movq	(%rax), %rcx
	testq	%rcx, %rcx
	movq	%rcx, 96(%rdx)
	je	.L394
.L246:
	movq	$0, (%rax)
.L245:
	testq	%r14, %r14
	movq	$0, 0(%r13)
	je	.L247
	movq	(%rsi,%r12), %rax
	movq	%r13, (%r14)
	testq	%rax, %rax
	je	.L240
.L248:
	movq	%r13, %r14
	movq	%rax, %r13
.L241:
	movzbl	(%rbx), %eax
	testb	%al, %al
	jne	.L243
	movq	%rbx, %rdi
	call	__cxa_guard_acquire@PLT
	testl	%eax, %eax
	je	.L384
	movq	%rbx, %rdi
	call	__cxa_guard_release@PLT
	movq	_ZN4asio6detail15system_categoryD1Ev@GOTPCREL(%rip), %rdi
	leaq	__dso_handle(%rip), %rdx
	movq	%rbp, %rsi
	call	__cxa_atexit@PLT
.L384:
	movq	16(%rsp), %rax
	movq	160(%rax), %rsi
	jmp	.L243
	.p2align 4,,10
	.p2align 3
.L238:
	movq	40(%rsp), %rdi
	call	pthread_mutex_unlock@PLT
.L386:
	movl	152(%rbx), %ebp
	cmpl	$-1, %ebp
	je	.L236
.L314:
	movzbl	156(%rbx), %r12d
	call	__errno_location@PLT
	movq	%rax, %r13
	testb	$8, %r12b
	jne	.L380
	movq	_ZGVZN4asio15system_categoryEvE8instance@GOTPCREL(%rip), %r12
.L268:
	movl	$0, 0(%r13)
	movl	%ebp, %edi
	call	close@PLT
	movl	%eax, %r14d
	movzbl	(%r12), %eax
	testb	%al, %al
	je	.L395
.L273:
	testl	%r14d, %r14d
	je	.L236
	movl	0(%r13), %r14d
	movzbl	(%r12), %eax
	testb	%al, %al
	je	.L396
.L276:
	cmpl	$11, %r14d
	je	.L278
.L391:
	movzbl	(%r12), %eax
	testb	%al, %al
	jne	.L236
	movq	%r12, %rdi
	call	__cxa_guard_acquire@PLT
	testl	%eax, %eax
	je	.L236
	movq	%r12, %rdi
	call	__cxa_guard_release@PLT
	movq	_ZZN4asio15system_categoryEvE8instance@GOTPCREL(%rip), %rsi
	movq	_ZN4asio6detail15system_categoryD1Ev@GOTPCREL(%rip), %rdi
	leaq	__dso_handle(%rip), %rdx
	call	__cxa_atexit@PLT
	.p2align 4,,10
	.p2align 3
.L236:
	movq	120(%rbx), %rdi
	leaq	136(%rbx), %rax
	cmpq	%rax, %rdi
	je	.L284
	call	_ZdlPv@PLT
.L284:
	movq	88(%rbx), %rdi
	leaq	104(%rbx), %rax
	cmpq	%rax, %rdi
	je	.L285
	call	_ZdlPv@PLT
.L285:
	movq	80(%rbx), %rbp
	testq	%rbp, %rbp
	je	.L287
	cmpq	$0, _ZL28__gthrw___pthread_key_createPjPFvPvE@GOTPCREL(%rip)
	je	.L288
	lock subl	$1, 8(%rbp)
	je	.L397
.L287:
	movq	64(%rbx), %rbp
	testq	%rbp, %rbp
	je	.L293
	cmpq	$0, _ZL28__gthrw___pthread_key_createPjPFvPvE@GOTPCREL(%rip)
	je	.L294
	lock subl	$1, 8(%rbp)
	je	.L398
.L293:
	movq	48(%rbx), %rbp
	testq	%rbp, %rbp
	je	.L299
	cmpq	$0, _ZL28__gthrw___pthread_key_createPjPFvPvE@GOTPCREL(%rip)
	je	.L300
	lock subl	$1, 8(%rbp)
	je	.L399
.L299:
	movq	24(%rbx), %rdi
	testq	%rdi, %rdi
	je	.L223
	cmpq	$0, _ZL28__gthrw___pthread_key_createPjPFvPvE@GOTPCREL(%rip)
	je	.L306
	movl	$-1, %eax
	lock xaddl	%eax, 12(%rdi)
	cmpl	$1, %eax
	je	.L400
.L223:
	movq	72(%rsp), %rax
	xorq	%fs:40, %rax
	jne	.L401
	addq	$88, %rsp
	.cfi_remember_state
	.cfi_def_cfa_offset 56
	popq	%rbx
	.cfi_def_cfa_offset 48
	popq	%rbp
	.cfi_def_cfa_offset 40
	popq	%r12
	.cfi_def_cfa_offset 32
	popq	%r13
	.cfi_def_cfa_offset 24
	popq	%r14
	.cfi_def_cfa_offset 16
	popq	%r15
	.cfi_def_cfa_offset 8
	ret
	.p2align 4,,10
	.p2align 3
.L300:
	.cfi_restore_state
	movl	8(%rbp), %eax
	leal	-1(%rax), %edx
	cmpl	$1, %eax
	movl	%edx, 8(%rbp)
	jne	.L299
	movq	0(%rbp), %rax
	movq	%rbp, %rdi
	call	*16(%rax)
	movl	12(%rbp), %eax
	leal	-1(%rax), %edx
	movl	%edx, 12(%rbp)
	jmp	.L313
	.p2align 4,,10
	.p2align 3
.L306:
	movl	12(%rdi), %eax
	leal	-1(%rax), %edx
	cmpl	$1, %eax
	movl	%edx, 12(%rdi)
	jne	.L223
.L400:
	movq	(%rdi), %rax
	call	*24(%rax)
	jmp	.L223
	.p2align 4,,10
	.p2align 3
.L294:
	movl	8(%rbp), %eax
	leal	-1(%rax), %edx
	cmpl	$1, %eax
	movl	%edx, 8(%rbp)
	jne	.L293
	movq	0(%rbp), %rax
	movq	%rbp, %rdi
	call	*16(%rax)
	movl	12(%rbp), %eax
	leal	-1(%rax), %edx
	movl	%edx, 12(%rbp)
	jmp	.L312
	.p2align 4,,10
	.p2align 3
.L288:
	movl	8(%rbp), %eax
	leal	-1(%rax), %edx
	cmpl	$1, %eax
	movl	%edx, 8(%rbp)
	jne	.L287
	movq	0(%rbp), %rax
	movq	%rbp, %rdi
	call	*16(%rax)
	movl	12(%rbp), %eax
	leal	-1(%rax), %edx
	movl	%edx, 12(%rbp)
	jmp	.L311
	.p2align 4,,10
	.p2align 3
.L226:
	movl	8(%rbp), %eax
	leal	-1(%rax), %edx
	cmpl	$1, %eax
	movl	%edx, 8(%rbp)
	jne	.L225
	movq	0(%rbp), %rax
	movq	%rbp, %rdi
	call	*16(%rax)
	movl	12(%rbp), %eax
	leal	-1(%rax), %edx
	movl	%edx, 12(%rbp)
.L309:
	cmpl	$1, %eax
	je	.L231
.L383:
	movq	256(%rbx), %rbp
	testq	%rbp, %rbp
	je	.L225
	testq	%r12, %r12
	jne	.L228
	movl	8(%rbp), %eax
	leal	-1(%rax), %edx
	cmpl	$1, %eax
	movl	%edx, 8(%rbp)
	jne	.L225
	movq	0(%rbp), %rax
	movq	%rbp, %rdi
	call	*16(%rax)
	movl	12(%rbp), %eax
	leal	-1(%rax), %edx
	movl	%edx, 12(%rbp)
	jmp	.L310
	.p2align 4,,10
	.p2align 3
.L392:
	movq	0(%rbp), %rax
	movq	%rbp, %rdi
	call	*16(%rax)
	movl	$-1, %eax
	lock xaddl	%eax, 12(%rbp)
.L310:
	cmpl	$1, %eax
	jne	.L225
	movq	0(%rbp), %rax
	movq	%rbp, %rdi
	call	*24(%rax)
	jmp	.L225
	.p2align 4,,10
	.p2align 3
.L399:
	movq	0(%rbp), %rax
	movq	%rbp, %rdi
	call	*16(%rax)
	movl	$-1, %eax
	lock xaddl	%eax, 12(%rbp)
.L313:
	cmpl	$1, %eax
	jne	.L299
	movq	0(%rbp), %rax
	movq	%rbp, %rdi
	call	*24(%rax)
	jmp	.L299
	.p2align 4,,10
	.p2align 3
.L398:
	movq	0(%rbp), %rax
	movq	%rbp, %rdi
	call	*16(%rax)
	movl	$-1, %eax
	lock xaddl	%eax, 12(%rbp)
.L312:
	cmpl	$1, %eax
	jne	.L293
	movq	0(%rbp), %rax
	movq	%rbp, %rdi
	call	*24(%rax)
	jmp	.L293
	.p2align 4,,10
	.p2align 3
.L397:
	movq	0(%rbp), %rax
	movq	%rbp, %rdi
	call	*16(%rax)
	movl	$-1, %eax
	lock xaddl	%eax, 12(%rbp)
.L311:
	cmpl	$1, %eax
	jne	.L287
	movq	0(%rbp), %rax
	movq	%rbp, %rdi
	call	*24(%rax)
	jmp	.L287
	.p2align 4,,10
	.p2align 3
.L247:
	movq	(%rsi,%r12), %rax
	movq	%r13, 24(%rsp)
	testq	%rax, %rax
	jne	.L248
.L240:
	addq	$1, 8(%rsp)
	movq	8(%rsp), %rax
	cmpq	$3, %rax
	je	.L402
	movq	%r13, %r14
	jmp	.L249
	.p2align 4,,10
	.p2align 3
.L394:
	movq	$0, 104(%rdx)
	jmp	.L246
	.p2align 4,,10
	.p2align 3
.L402:
	movq	16(%rsp), %rbx
	movl	$-1, 88(%rsi)
	movq	40(%rsp), %rdi
	movq	160(%rbx), %rax
	movb	$1, 144(%rax)
	call	pthread_mutex_unlock@PLT
	movq	32(%rsp), %r15
	movq	160(%rbx), %rbp
	leaq	120(%r15), %r12
	movq	%r12, %rdi
	call	pthread_mutex_lock@PLT
	cmpq	160(%r15), %rbp
	je	.L403
.L250:
	movq	32(%rbp), %rdx
	movq	24(%rbp), %rax
	testq	%rdx, %rdx
	je	.L251
	movq	%rax, 24(%rdx)
	movq	24(%rbp), %rax
.L251:
	testq	%rax, %rax
	je	.L252
	movq	32(%rbp), %rdx
	movq	%rdx, 32(%rax)
.L252:
	movq	32(%rsp), %r15
	movq	%r12, %rdi
	movq	168(%r15), %rax
	movq	$0, 32(%rbp)
	movq	%rax, 24(%rbp)
	movq	%rbp, 168(%r15)
	call	pthread_mutex_unlock@PLT
	cmpq	$0, 24(%rsp)
	movq	$0, 160(%rbx)
	je	.L386
	movq	40(%r15), %rbp
	cmpb	$0, 40(%rbp)
	je	.L254
	.byte	0x66
	leaq	_ZN4asio6detail15keyword_tss_ptrINS0_10call_stackINS0_15task_io_serviceENS0_27task_io_service_thread_infoEE7contextEE6value_E@tlsgd(%rip), %rdi
	.value	0x6666
	rex64
	call	__tls_get_addr@PLT
	movq	(%rax), %rax
	testq	%rax, %rax
	jne	.L379
	jmp	.L254
	.p2align 4,,10
	.p2align 3
.L256:
	movq	16(%rax), %rax
	testq	%rax, %rax
	je	.L254
.L379:
	cmpq	(%rax), %rbp
	jne	.L256
	movq	8(%rax), %rax
	testq	%rax, %rax
	je	.L254
	movq	16(%rax), %rdx
	movq	24(%rsp), %rcx
	testq	%rdx, %rdx
	je	.L259
	movq	%rcx, (%rdx)
.L260:
	movq	%r13, 16(%rax)
	jmp	.L386
	.p2align 4,,10
	.p2align 3
.L395:
	movq	%r12, %rdi
	call	__cxa_guard_acquire@PLT
	testl	%eax, %eax
	je	.L273
	movq	%r12, %rdi
	call	__cxa_guard_release@PLT
	movq	_ZZN4asio15system_categoryEvE8instance@GOTPCREL(%rip), %rsi
	movq	_ZN4asio6detail15system_categoryD1Ev@GOTPCREL(%rip), %rdi
	leaq	__dso_handle(%rip), %rdx
	call	__cxa_atexit@PLT
	jmp	.L273
	.p2align 4,,10
	.p2align 3
.L380:
	orl	$8, %r12d
	leaq	60(%rsp), %rcx
	movl	$8, %r8d
	movb	%r12b, 156(%rbx)
	movl	$13, %edx
	movl	$0, (%rax)
	movl	$1, %esi
	movl	%ebp, %edi
	movq	$0, 60(%rsp)
	call	setsockopt@PLT
	movq	_ZGVZN4asio15system_categoryEvE8instance@GOTPCREL(%rip), %r12
	movzbl	(%r12), %eax
	testb	%al, %al
	jne	.L268
	movq	%r12, %rdi
	call	__cxa_guard_acquire@PLT
	testl	%eax, %eax
	je	.L268
	movq	%r12, %rdi
	call	__cxa_guard_release@PLT
	movq	_ZZN4asio15system_categoryEvE8instance@GOTPCREL(%rip), %rsi
	movq	_ZN4asio6detail15system_categoryD1Ev@GOTPCREL(%rip), %rdi
	leaq	__dso_handle(%rip), %rdx
	call	__cxa_atexit@PLT
	jmp	.L268
	.p2align 4,,10
	.p2align 3
.L227:
	movq	0(%rbp), %rax
	movq	%rbp, %rdi
	call	*16(%rax)
	movl	$-1, %eax
	lock xaddl	%eax, 12(%rbp)
	jmp	.L309
	.p2align 4,,10
	.p2align 3
.L316:
	movq	%r14, %r13
	jmp	.L240
	.p2align 4,,10
	.p2align 3
.L254:
	leaq	48(%rbp), %r12
	movq	%r12, %rdi
	call	pthread_mutex_lock@PLT
	movq	200(%rbp), %rax
	testq	%rax, %rax
	je	.L262
	movq	24(%rsp), %rcx
	movq	%rcx, (%rax)
.L263:
	movq	136(%rbp), %rax
	movq	%r13, 200(%rbp)
	orq	$1, %rax
	cmpq	$1, %rax
	movq	%rax, 136(%rbp)
	jne	.L404
	cmpb	$0, 176(%rbp)
	jne	.L266
	movq	144(%rbp), %rax
	testq	%rax, %rax
	je	.L266
	leaq	88(%rax), %rdx
	movb	$1, 176(%rbp)
	movl	$-2147483639, 60(%rsp)
	leaq	60(%rsp), %rcx
	movl	$3, %esi
	movq	%rdx, 64(%rsp)
	movl	88(%rax), %edx
	movl	96(%rax), %edi
	call	epoll_ctl@PLT
.L266:
	movq	%r12, %rdi
	call	pthread_mutex_unlock@PLT
	jmp	.L386
.L262:
	movq	24(%rsp), %rax
	movq	%rax, 192(%rbp)
	jmp	.L263
	.p2align 4,,10
	.p2align 3
.L231:
	movq	0(%rbp), %rax
	movq	%rbp, %rdi
	call	*24(%rax)
	jmp	.L383
	.p2align 4,,10
	.p2align 3
.L393:
	movq	32(%rsp), %rax
	movl	$0, 60(%rsp)
	leaq	60(%rsp), %rcx
	movq	$0, 64(%rsp)
	movl	$2, %esi
	movl	%ebp, %edx
	movl	96(%rax), %edi
	call	epoll_ctl@PLT
	movq	160(%rbx), %rsi
	jmp	.L239
	.p2align 4,,10
	.p2align 3
.L403:
	movq	24(%rbp), %rax
	movq	32(%rsp), %rcx
	movq	%rax, 160(%rcx)
	jmp	.L250
	.p2align 4,,10
	.p2align 3
.L396:
	movq	%r12, %rdi
	call	__cxa_guard_acquire@PLT
	testl	%eax, %eax
	je	.L276
	movq	%r12, %rdi
	call	__cxa_guard_release@PLT
	movq	_ZZN4asio15system_categoryEvE8instance@GOTPCREL(%rip), %rsi
	movq	_ZN4asio6detail15system_categoryD1Ev@GOTPCREL(%rip), %rdi
	leaq	__dso_handle(%rip), %rdx
	call	__cxa_atexit@PLT
	jmp	.L276
	.p2align 4,,10
	.p2align 3
.L278:
	leaq	60(%rsp), %rdx
	movl	%ebp, %edi
	movl	$21537, %esi
	xorl	%eax, %eax
	movl	$0, 60(%rsp)
	call	ioctl@PLT
	andb	$-4, 156(%rbx)
	movl	%ebp, %edi
	movl	$0, 0(%r13)
	call	close@PLT
	jmp	.L391
	.p2align 4,,10
	.p2align 3
.L404:
	movq	%r12, %rdi
	call	pthread_mutex_unlock@PLT
	leaq	88(%rbp), %rdi
	call	pthread_cond_signal@PLT
	jmp	.L386
.L259:
	movq	%rcx, 8(%rax)
	jmp	.L260
.L401:
	call	__stack_chk_fail@PLT
	.cfi_endproc
.LFE10288:
	.globl	__gxx_personality_v0
	.section	.gcc_except_table._ZNSt23_Sp_counted_ptr_inplaceIN7asiopal9TCPClientESaIS1_ELN9__gnu_cxx12_Lock_policyE2EE10_M_disposeEv,"aG",@progbits,_ZNSt23_Sp_counted_ptr_inplaceIN7asiopal9TCPClientESaIS1_ELN9__gnu_cxx12_Lock_policyE2EE10_M_disposeEv,comdat
.LLSDA10288:
	.byte	0xff
	.byte	0xff
	.byte	0x1
	.uleb128 .LLSDACSE10288-.LLSDACSB10288
.LLSDACSB10288:
.LLSDACSE10288:
	.section	.text._ZNSt23_Sp_counted_ptr_inplaceIN7asiopal9TCPClientESaIS1_ELN9__gnu_cxx12_Lock_policyE2EE10_M_disposeEv,"axG",@progbits,_ZNSt23_Sp_counted_ptr_inplaceIN7asiopal9TCPClientESaIS1_ELN9__gnu_cxx12_Lock_policyE2EE10_M_disposeEv,comdat
	.size	_ZNSt23_Sp_counted_ptr_inplaceIN7asiopal9TCPClientESaIS1_ELN9__gnu_cxx12_Lock_policyE2EE10_M_disposeEv, .-_ZNSt23_Sp_counted_ptr_inplaceIN7asiopal9TCPClientESaIS1_ELN9__gnu_cxx12_Lock_policyE2EE10_M_disposeEv
	.section	.text._ZNSt23_Sp_counted_ptr_inplaceIN7asiopal13SocketChannelESaIS1_ELN9__gnu_cxx12_Lock_policyE2EE10_M_disposeEv,"axG",@progbits,_ZNSt23_Sp_counted_ptr_inplaceIN7asiopal13SocketChannelESaIS1_ELN9__gnu_cxx12_Lock_policyE2EE10_M_disposeEv,comdat
	.align 2
	.p2align 4,,15
	.weak	_ZNSt23_Sp_counted_ptr_inplaceIN7asiopal13SocketChannelESaIS1_ELN9__gnu_cxx12_Lock_policyE2EE10_M_disposeEv
	.type	_ZNSt23_Sp_counted_ptr_inplaceIN7asiopal13SocketChannelESaIS1_ELN9__gnu_cxx12_Lock_policyE2EE10_M_disposeEv, @function
_ZNSt23_Sp_counted_ptr_inplaceIN7asiopal13SocketChannelESaIS1_ELN9__gnu_cxx12_Lock_policyE2EE10_M_disposeEv:
.LFB10274:
	.cfi_startproc
	.cfi_personality 0x9b,DW.ref.__gxx_personality_v0
	.cfi_lsda 0x1b,.LLSDA10274
	pushq	%r15
	.cfi_def_cfa_offset 16
	.cfi_offset 15, -16
	pushq	%r14
	.cfi_def_cfa_offset 24
	.cfi_offset 14, -24
	movq	%rdi, %r14
	pushq	%r13
	.cfi_def_cfa_offset 32
	.cfi_offset 13, -32
	pushq	%r12
	.cfi_def_cfa_offset 40
	.cfi_offset 12, -40
	pushq	%rbp
	.cfi_def_cfa_offset 48
	.cfi_offset 6, -48
	pushq	%rbx
	.cfi_def_cfa_offset 56
	.cfi_offset 3, -56
	subq	$88, %rsp
	.cfi_def_cfa_offset 144
	movl	80(%rdi), %ebx
	movq	%fs:40, %rax
	movq	%rax, 72(%rsp)
	xorl	%eax, %eax
	movq	_ZTVN7asiopal13SocketChannelE@GOTPCREL(%rip), %rax
	addq	$16, %rax
	cmpl	$-1, %ebx
	movq	%rax, 16(%rdi)
	je	.L406
	movq	88(%rdi), %r13
	testq	%r13, %r13
	je	.L473
	movq	104(%rdi), %rax
	movzbl	84(%rdi), %ebp
	movq	40(%rax), %rax
	movq	%rax, 32(%rsp)
	leaq	40(%r13), %rax
	movq	%rax, %rdi
	movq	%rax, 40(%rsp)
	call	pthread_mutex_lock@PLT
	movq	88(%r14), %rsi
	cmpb	$0, 144(%rsi)
	jne	.L408
	andl	$64, %ebp
	jne	.L547
.L409:
	movq	$0, 8(%rsp)
	movq	8(%rsp), %rax
	xorl	%r13d, %r13d
	movq	$0, 24(%rsp)
	movq	%r14, 16(%rsp)
.L419:
	leaq	6(%rax), %rcx
	salq	$4, %rcx
	movq	(%rsi,%rcx), %rbx
	movq	%rcx, %r12
	testq	%rbx, %rbx
	je	.L475
	salq	$4, %rax
	movq	_ZGVZN4asio15system_categoryEvE8instance@GOTPCREL(%rip), %r14
	movq	_ZZN4asio15system_categoryEvE8instance@GOTPCREL(%rip), %rbp
	movq	%rax, %r15
	jmp	.L411
	.p2align 4,,10
	.p2align 3
.L413:
	leaq	(%rsi,%r15), %rdx
	movl	$125, 24(%rbx)
	movq	%rbp, 32(%rbx)
	movq	96(%rdx), %rax
	testq	%rax, %rax
	je	.L415
	movq	(%rax), %rcx
	testq	%rcx, %rcx
	movq	%rcx, 96(%rdx)
	je	.L548
.L416:
	movq	$0, (%rax)
.L415:
	testq	%r13, %r13
	movq	$0, (%rbx)
	je	.L417
	movq	(%rsi,%r12), %rax
	movq	%rbx, 0(%r13)
	testq	%rax, %rax
	je	.L410
.L418:
	movq	%rbx, %r13
	movq	%rax, %rbx
.L411:
	movzbl	(%r14), %eax
	testb	%al, %al
	jne	.L413
	movq	%r14, %rdi
	call	__cxa_guard_acquire@PLT
	testl	%eax, %eax
	je	.L539
	movq	%r14, %rdi
	call	__cxa_guard_release@PLT
	movq	_ZN4asio6detail15system_categoryD1Ev@GOTPCREL(%rip), %rdi
	leaq	__dso_handle(%rip), %rdx
	movq	%rbp, %rsi
	call	__cxa_atexit@PLT
.L539:
	movq	16(%rsp), %rax
	movq	88(%rax), %rsi
	jmp	.L413
	.p2align 4,,10
	.p2align 3
.L408:
	movq	40(%rsp), %rdi
	call	pthread_mutex_unlock@PLT
.L541:
	movl	80(%r14), %ebx
	cmpl	$-1, %ebx
	je	.L406
.L473:
	movzbl	84(%r14), %ebp
	call	__errno_location@PLT
	movq	%rax, %r12
	testb	$8, %bpl
	jne	.L536
	movq	_ZGVZN4asio15system_categoryEvE8instance@GOTPCREL(%rip), %rbp
.L438:
	movl	$0, (%r12)
	movl	%ebx, %edi
	call	close@PLT
	movl	%eax, %r13d
	movzbl	0(%rbp), %eax
	testb	%al, %al
	je	.L549
.L443:
	testl	%r13d, %r13d
	je	.L406
	movl	(%r12), %r13d
	movzbl	0(%rbp), %eax
	testb	%al, %al
	je	.L550
.L446:
	cmpl	$11, %r13d
	je	.L448
.L546:
	movzbl	0(%rbp), %eax
	testb	%al, %al
	jne	.L406
	movq	%rbp, %rdi
	call	__cxa_guard_acquire@PLT
	testl	%eax, %eax
	je	.L406
	movq	%rbp, %rdi
	call	__cxa_guard_release@PLT
	movq	_ZZN4asio15system_categoryEvE8instance@GOTPCREL(%rip), %rsi
	movq	_ZN4asio6detail15system_categoryD1Ev@GOTPCREL(%rip), %rdi
	leaq	__dso_handle(%rip), %rdx
	call	__cxa_atexit@PLT
	.p2align 4,,10
	.p2align 3
.L406:
	movq	_ZTVN7asiopal13IAsyncChannelE@GOTPCREL(%rip), %rax
	movq	64(%r14), %rbx
	addq	$16, %rax
	testq	%rbx, %rbx
	movq	%rax, 16(%r14)
	je	.L455
	cmpq	$0, _ZL28__gthrw___pthread_key_createPjPFvPvE@GOTPCREL(%rip)
	je	.L456
	lock subl	$1, 8(%rbx)
	je	.L551
.L455:
	movq	48(%r14), %rbx
	testq	%rbx, %rbx
	je	.L461
	cmpq	$0, _ZL28__gthrw___pthread_key_createPjPFvPvE@GOTPCREL(%rip)
	je	.L462
	lock subl	$1, 8(%rbx)
	je	.L552
.L461:
	movq	32(%r14), %rdi
	testq	%rdi, %rdi
	je	.L405
	cmpq	$0, _ZL28__gthrw___pthread_key_createPjPFvPvE@GOTPCREL(%rip)
	je	.L468
	movl	$-1, %eax
	lock xaddl	%eax, 12(%rdi)
	cmpl	$1, %eax
	je	.L553
.L405:
	movq	72(%rsp), %rax
	xorq	%fs:40, %rax
	jne	.L554
	addq	$88, %rsp
	.cfi_remember_state
	.cfi_def_cfa_offset 56
	popq	%rbx
	.cfi_def_cfa_offset 48
	popq	%rbp
	.cfi_def_cfa_offset 40
	popq	%r12
	.cfi_def_cfa_offset 32
	popq	%r13
	.cfi_def_cfa_offset 24
	popq	%r14
	.cfi_def_cfa_offset 16
	popq	%r15
	.cfi_def_cfa_offset 8
	ret
	.p2align 4,,10
	.p2align 3
.L468:
	.cfi_restore_state
	movl	12(%rdi), %eax
	leal	-1(%rax), %edx
	cmpl	$1, %eax
	movl	%edx, 12(%rdi)
	jne	.L405
.L553:
	movq	(%rdi), %rax
	call	*24(%rax)
	jmp	.L405
	.p2align 4,,10
	.p2align 3
.L462:
	movl	8(%rbx), %eax
	leal	-1(%rax), %edx
	cmpl	$1, %eax
	movl	%edx, 8(%rbx)
	jne	.L461
	movq	(%rbx), %rax
	movq	%rbx, %rdi
	call	*16(%rax)
	movl	12(%rbx), %eax
	leal	-1(%rax), %edx
	movl	%edx, 12(%rbx)
	jmp	.L472
	.p2align 4,,10
	.p2align 3
.L456:
	movl	8(%rbx), %eax
	leal	-1(%rax), %edx
	cmpl	$1, %eax
	movl	%edx, 8(%rbx)
	jne	.L455
	movq	(%rbx), %rax
	movq	%rbx, %rdi
	call	*16(%rax)
	movl	12(%rbx), %eax
	leal	-1(%rax), %edx
	movl	%edx, 12(%rbx)
	jmp	.L471
	.p2align 4,,10
	.p2align 3
.L551:
	movq	(%rbx), %rax
	movq	%rbx, %rdi
	call	*16(%rax)
	movl	$-1, %eax
	lock xaddl	%eax, 12(%rbx)
.L471:
	cmpl	$1, %eax
	jne	.L455
	movq	(%rbx), %rax
	movq	%rbx, %rdi
	call	*24(%rax)
	jmp	.L455
	.p2align 4,,10
	.p2align 3
.L552:
	movq	(%rbx), %rax
	movq	%rbx, %rdi
	call	*16(%rax)
	movl	$-1, %eax
	lock xaddl	%eax, 12(%rbx)
.L472:
	cmpl	$1, %eax
	jne	.L461
	movq	(%rbx), %rax
	movq	%rbx, %rdi
	call	*24(%rax)
	jmp	.L461
	.p2align 4,,10
	.p2align 3
.L417:
	movq	(%rsi,%r12), %rax
	movq	%rbx, 24(%rsp)
	testq	%rax, %rax
	jne	.L418
.L410:
	addq	$1, 8(%rsp)
	movq	8(%rsp), %rax
	cmpq	$3, %rax
	je	.L555
	movq	%rbx, %r13
	jmp	.L419
	.p2align 4,,10
	.p2align 3
.L548:
	movq	$0, 104(%rdx)
	jmp	.L416
	.p2align 4,,10
	.p2align 3
.L555:
	movq	16(%rsp), %r14
	movl	$-1, 88(%rsi)
	movq	40(%rsp), %rdi
	movq	88(%r14), %rax
	movb	$1, 144(%rax)
	call	pthread_mutex_unlock@PLT
	movq	32(%rsp), %r15
	movq	88(%r14), %rbp
	leaq	120(%r15), %r12
	movq	%r12, %rdi
	call	pthread_mutex_lock@PLT
	cmpq	160(%r15), %rbp
	je	.L556
.L420:
	movq	32(%rbp), %rdx
	movq	24(%rbp), %rax
	testq	%rdx, %rdx
	je	.L421
	movq	%rax, 24(%rdx)
	movq	24(%rbp), %rax
.L421:
	testq	%rax, %rax
	je	.L422
	movq	32(%rbp), %rdx
	movq	%rdx, 32(%rax)
.L422:
	movq	32(%rsp), %r15
	movq	%r12, %rdi
	movq	168(%r15), %rax
	movq	$0, 32(%rbp)
	movq	%rax, 24(%rbp)
	movq	%rbp, 168(%r15)
	call	pthread_mutex_unlock@PLT
	cmpq	$0, 24(%rsp)
	movq	$0, 88(%r14)
	je	.L541
	movq	40(%r15), %rbp
	cmpb	$0, 40(%rbp)
	je	.L424
	.byte	0x66
	leaq	_ZN4asio6detail15keyword_tss_ptrINS0_10call_stackINS0_15task_io_serviceENS0_27task_io_service_thread_infoEE7contextEE6value_E@tlsgd(%rip), %rdi
	.value	0x6666
	rex64
	call	__tls_get_addr@PLT
	movq	(%rax), %rax
	testq	%rax, %rax
	jne	.L535
	jmp	.L424
	.p2align 4,,10
	.p2align 3
.L426:
	movq	16(%rax), %rax
	testq	%rax, %rax
	je	.L424
.L535:
	cmpq	(%rax), %rbp
	jne	.L426
	movq	8(%rax), %rax
	testq	%rax, %rax
	je	.L424
	movq	16(%rax), %rdx
	movq	24(%rsp), %rcx
	testq	%rdx, %rdx
	je	.L429
	movq	%rcx, (%rdx)
.L430:
	movq	%rbx, 16(%rax)
	jmp	.L541
	.p2align 4,,10
	.p2align 3
.L549:
	movq	%rbp, %rdi
	call	__cxa_guard_acquire@PLT
	testl	%eax, %eax
	je	.L443
	movq	%rbp, %rdi
	call	__cxa_guard_release@PLT
	movq	_ZZN4asio15system_categoryEvE8instance@GOTPCREL(%rip), %rsi
	movq	_ZN4asio6detail15system_categoryD1Ev@GOTPCREL(%rip), %rdi
	leaq	__dso_handle(%rip), %rdx
	call	__cxa_atexit@PLT
	jmp	.L443
	.p2align 4,,10
	.p2align 3
.L536:
	orl	$8, %ebp
	leaq	60(%rsp), %rcx
	movl	$8, %r8d
	movb	%bpl, 84(%r14)
	movl	$13, %edx
	movl	$0, (%rax)
	movl	$1, %esi
	movl	%ebx, %edi
	movq	$0, 60(%rsp)
	call	setsockopt@PLT
	movq	_ZGVZN4asio15system_categoryEvE8instance@GOTPCREL(%rip), %rbp
	movzbl	0(%rbp), %eax
	testb	%al, %al
	jne	.L438
	movq	%rbp, %rdi
	call	__cxa_guard_acquire@PLT
	testl	%eax, %eax
	je	.L438
	movq	%rbp, %rdi
	call	__cxa_guard_release@PLT
	movq	_ZZN4asio15system_categoryEvE8instance@GOTPCREL(%rip), %rsi
	movq	_ZN4asio6detail15system_categoryD1Ev@GOTPCREL(%rip), %rdi
	leaq	__dso_handle(%rip), %rdx
	call	__cxa_atexit@PLT
	jmp	.L438
	.p2align 4,,10
	.p2align 3
.L475:
	movq	%r13, %rbx
	jmp	.L410
	.p2align 4,,10
	.p2align 3
.L424:
	leaq	48(%rbp), %r12
	movq	%r12, %rdi
	call	pthread_mutex_lock@PLT
	movq	200(%rbp), %rax
	testq	%rax, %rax
	je	.L432
	movq	24(%rsp), %rcx
	movq	%rcx, (%rax)
.L433:
	movq	136(%rbp), %rax
	movq	%rbx, 200(%rbp)
	orq	$1, %rax
	cmpq	$1, %rax
	movq	%rax, 136(%rbp)
	jne	.L557
	cmpb	$0, 176(%rbp)
	jne	.L436
	movq	144(%rbp), %rax
	testq	%rax, %rax
	je	.L436
	leaq	88(%rax), %rdx
	movb	$1, 176(%rbp)
	movl	$-2147483639, 60(%rsp)
	leaq	60(%rsp), %rcx
	movl	$3, %esi
	movq	%rdx, 64(%rsp)
	movl	88(%rax), %edx
	movl	96(%rax), %edi
	call	epoll_ctl@PLT
.L436:
	movq	%r12, %rdi
	call	pthread_mutex_unlock@PLT
	jmp	.L541
.L432:
	movq	24(%rsp), %rax
	movq	%rax, 192(%rbp)
	jmp	.L433
	.p2align 4,,10
	.p2align 3
.L547:
	movq	32(%rsp), %rax
	movl	$0, 60(%rsp)
	leaq	60(%rsp), %rcx
	movq	$0, 64(%rsp)
	movl	$2, %esi
	movl	%ebx, %edx
	movl	96(%rax), %edi
	call	epoll_ctl@PLT
	movq	88(%r14), %rsi
	jmp	.L409
	.p2align 4,,10
	.p2align 3
.L556:
	movq	24(%rbp), %rax
	movq	32(%rsp), %rcx
	movq	%rax, 160(%rcx)
	jmp	.L420
	.p2align 4,,10
	.p2align 3
.L550:
	movq	%rbp, %rdi
	call	__cxa_guard_acquire@PLT
	testl	%eax, %eax
	je	.L446
	movq	%rbp, %rdi
	call	__cxa_guard_release@PLT
	movq	_ZZN4asio15system_categoryEvE8instance@GOTPCREL(%rip), %rsi
	movq	_ZN4asio6detail15system_categoryD1Ev@GOTPCREL(%rip), %rdi
	leaq	__dso_handle(%rip), %rdx
	call	__cxa_atexit@PLT
	jmp	.L446
	.p2align 4,,10
	.p2align 3
.L448:
	leaq	60(%rsp), %rdx
	movl	%ebx, %edi
	movl	$21537, %esi
	xorl	%eax, %eax
	movl	$0, 60(%rsp)
	call	ioctl@PLT
	andb	$-4, 84(%r14)
	movl	%ebx, %edi
	movl	$0, (%r12)
	call	close@PLT
	jmp	.L546
	.p2align 4,,10
	.p2align 3
.L557:
	movq	%r12, %rdi
	call	pthread_mutex_unlock@PLT
	leaq	88(%rbp), %rdi
	call	pthread_cond_signal@PLT
	jmp	.L541
.L429:
	movq	%rcx, 8(%rax)
	jmp	.L430
.L554:
	call	__stack_chk_fail@PLT
	.cfi_endproc
.LFE10274:
	.section	.gcc_except_table._ZNSt23_Sp_counted_ptr_inplaceIN7asiopal13SocketChannelESaIS1_ELN9__gnu_cxx12_Lock_policyE2EE10_M_disposeEv,"aG",@progbits,_ZNSt23_Sp_counted_ptr_inplaceIN7asiopal13SocketChannelESaIS1_ELN9__gnu_cxx12_Lock_policyE2EE10_M_disposeEv,comdat
.LLSDA10274:
	.byte	0xff
	.byte	0xff
	.byte	0x1
	.uleb128 .LLSDACSE10274-.LLSDACSB10274
.LLSDACSB10274:
.LLSDACSE10274:
	.section	.text._ZNSt23_Sp_counted_ptr_inplaceIN7asiopal13SocketChannelESaIS1_ELN9__gnu_cxx12_Lock_policyE2EE10_M_disposeEv,"axG",@progbits,_ZNSt23_Sp_counted_ptr_inplaceIN7asiopal13SocketChannelESaIS1_ELN9__gnu_cxx12_Lock_policyE2EE10_M_disposeEv,comdat
	.size	_ZNSt23_Sp_counted_ptr_inplaceIN7asiopal13SocketChannelESaIS1_ELN9__gnu_cxx12_Lock_policyE2EE10_M_disposeEv, .-_ZNSt23_Sp_counted_ptr_inplaceIN7asiopal13SocketChannelESaIS1_ELN9__gnu_cxx12_Lock_policyE2EE10_M_disposeEv
	.section	.text._ZN4asio6detail28reactive_socket_service_base7destroyERNS1_24base_implementation_typeE,"axG",@progbits,_ZN4asio6detail28reactive_socket_service_base7destroyERNS1_24base_implementation_typeE,comdat
	.align 2
	.p2align 4,,15
	.weak	_ZN4asio6detail28reactive_socket_service_base7destroyERNS1_24base_implementation_typeE
	.type	_ZN4asio6detail28reactive_socket_service_base7destroyERNS1_24base_implementation_typeE, @function
_ZN4asio6detail28reactive_socket_service_base7destroyERNS1_24base_implementation_typeE:
.LFB4350:
	.cfi_startproc
	pushq	%r15
	.cfi_def_cfa_offset 16
	.cfi_offset 15, -16
	pushq	%r14
	.cfi_def_cfa_offset 24
	.cfi_offset 14, -24
	pushq	%r13
	.cfi_def_cfa_offset 32
	.cfi_offset 13, -32
	pushq	%r12
	.cfi_def_cfa_offset 40
	.cfi_offset 12, -40
	pushq	%rbp
	.cfi_def_cfa_offset 48
	.cfi_offset 6, -48
	pushq	%rbx
	.cfi_def_cfa_offset 56
	.cfi_offset 3, -56
	subq	$88, %rsp
	.cfi_def_cfa_offset 144
	movl	(%rsi), %ebp
	movq	%fs:40, %rax
	movq	%rax, 72(%rsp)
	xorl	%eax, %eax
	cmpl	$-1, %ebp
	je	.L558
	movq	8(%rsi), %r13
	movq	%rsi, %rbx
	testq	%r13, %r13
	je	.L608
	movq	(%rdi), %rax
	movzbl	4(%rsi), %r12d
	movq	%rax, 32(%rsp)
	leaq	40(%r13), %rax
	movq	%rax, %rdi
	movq	%rax, 40(%rsp)
	call	pthread_mutex_lock@PLT
	movq	8(%rbx), %rsi
	cmpb	$0, 144(%rsi)
	jne	.L561
	andl	$64, %r12d
	jne	.L687
.L562:
	movq	$0, 8(%rsp)
	movq	8(%rsp), %rax
	xorl	%r13d, %r13d
	movq	$0, 24(%rsp)
	movq	%rbx, 16(%rsp)
.L573:
	leaq	6(%rax), %rcx
	salq	$4, %rcx
	movq	(%rsi,%rcx), %rbp
	movq	%rcx, %r14
	testq	%rbp, %rbp
	je	.L563
	salq	$4, %rax
	movq	_ZGVZN4asio15system_categoryEvE8instance@GOTPCREL(%rip), %rbx
	movq	_ZZN4asio15system_categoryEvE8instance@GOTPCREL(%rip), %r12
	movq	%rax, %r15
	jmp	.L564
	.p2align 4,,10
	.p2align 3
.L567:
	leaq	(%rsi,%r15), %rdx
	movl	$125, 24(%rbp)
	movq	%r12, 32(%rbp)
	movq	96(%rdx), %rax
	testq	%rax, %rax
	je	.L569
	movq	(%rax), %rcx
	testq	%rcx, %rcx
	movq	%rcx, 96(%rdx)
	je	.L688
.L570:
	movq	$0, (%rax)
.L569:
	testq	%r13, %r13
	movq	$0, 0(%rbp)
	je	.L571
	movq	(%rsi,%r14), %rax
	movq	%rbp, 0(%r13)
	testq	%rax, %rax
	je	.L572
.L565:
	movq	%rbp, %r13
	movq	%rax, %rbp
.L564:
	movzbl	(%rbx), %eax
	testb	%al, %al
	jne	.L567
	movq	%rbx, %rdi
	call	__cxa_guard_acquire@PLT
	testl	%eax, %eax
	je	.L679
	movq	%rbx, %rdi
	call	__cxa_guard_release@PLT
	movq	_ZN4asio6detail15system_categoryD1Ev@GOTPCREL(%rip), %rdi
	leaq	__dso_handle(%rip), %rdx
	movq	%r12, %rsi
	call	__cxa_atexit@PLT
.L679:
	movq	16(%rsp), %rax
	movq	8(%rax), %rsi
	jmp	.L567
	.p2align 4,,10
	.p2align 3
.L561:
	movq	40(%rsp), %rdi
	call	pthread_mutex_unlock@PLT
.L681:
	movl	(%rbx), %ebp
	cmpl	$-1, %ebp
	je	.L558
.L608:
	movzbl	4(%rbx), %r12d
	call	__errno_location@PLT
	movq	%rax, %r13
	testb	$8, %r12b
	jne	.L676
	movq	_ZGVZN4asio15system_categoryEvE8instance@GOTPCREL(%rip), %r12
.L592:
	movl	$0, 0(%r13)
	movl	%ebp, %edi
	call	close@PLT
	movl	%eax, %r14d
	movzbl	(%r12), %eax
	testb	%al, %al
	je	.L689
.L597:
	testl	%r14d, %r14d
	je	.L558
	movl	0(%r13), %r14d
	movzbl	(%r12), %eax
	testb	%al, %al
	je	.L690
.L600:
	cmpl	$11, %r14d
	je	.L602
.L686:
	movzbl	(%r12), %eax
	testb	%al, %al
	jne	.L558
	movq	%r12, %rdi
	call	__cxa_guard_acquire@PLT
	testl	%eax, %eax
	je	.L558
	movq	%r12, %rdi
	call	__cxa_guard_release@PLT
	movq	_ZZN4asio15system_categoryEvE8instance@GOTPCREL(%rip), %rsi
	movq	_ZN4asio6detail15system_categoryD1Ev@GOTPCREL(%rip), %rdi
	leaq	__dso_handle(%rip), %rdx
	call	__cxa_atexit@PLT
	.p2align 4,,10
	.p2align 3
.L558:
	movq	72(%rsp), %rax
	xorq	%fs:40, %rax
	jne	.L691
	addq	$88, %rsp
	.cfi_remember_state
	.cfi_def_cfa_offset 56
	popq	%rbx
	.cfi_def_cfa_offset 48
	popq	%rbp
	.cfi_def_cfa_offset 40
	popq	%r12
	.cfi_def_cfa_offset 32
	popq	%r13
	.cfi_def_cfa_offset 24
	popq	%r14
	.cfi_def_cfa_offset 16
	popq	%r15
	.cfi_def_cfa_offset 8
	ret
	.p2align 4,,10
	.p2align 3
.L571:
	.cfi_restore_state
	movq	(%rsi,%r14), %rax
	movq	%rbp, 24(%rsp)
	testq	%rax, %rax
	jne	.L565
.L572:
	movq	%rbp, %r13
.L563:
	addq	$1, 8(%rsp)
	movq	8(%rsp), %rax
	cmpq	$3, %rax
	jne	.L573
	movq	16(%rsp), %rbx
	movl	$-1, 88(%rsi)
	movq	40(%rsp), %rdi
	movq	8(%rbx), %rax
	movb	$1, 144(%rax)
	call	pthread_mutex_unlock@PLT
	movq	32(%rsp), %r14
	movq	8(%rbx), %rbp
	leaq	120(%r14), %r12
	movq	%r12, %rdi
	call	pthread_mutex_lock@PLT
	cmpq	160(%r14), %rbp
	je	.L692
.L574:
	movq	32(%rbp), %rdx
	movq	24(%rbp), %rax
	testq	%rdx, %rdx
	je	.L575
	movq	%rax, 24(%rdx)
	movq	24(%rbp), %rax
.L575:
	testq	%rax, %rax
	je	.L576
	movq	32(%rbp), %rdx
	movq	%rdx, 32(%rax)
.L576:
	movq	32(%rsp), %r15
	movq	%r12, %rdi
	movq	168(%r15), %rax
	movq	$0, 32(%rbp)
	movq	%rax, 24(%rbp)
	movq	%rbp, 168(%r15)
	call	pthread_mutex_unlock@PLT
	cmpq	$0, 24(%rsp)
	movq	$0, 8(%rbx)
	je	.L681
	movq	40(%r15), %rbp
	cmpb	$0, 40(%rbp)
	je	.L578
	.byte	0x66
	leaq	_ZN4asio6detail15keyword_tss_ptrINS0_10call_stackINS0_15task_io_serviceENS0_27task_io_service_thread_infoEE7contextEE6value_E@tlsgd(%rip), %rdi
	.value	0x6666
	rex64
	call	__tls_get_addr@PLT
	movq	(%rax), %rax
	testq	%rax, %rax
	jne	.L675
	jmp	.L578
	.p2align 4,,10
	.p2align 3
.L580:
	movq	16(%rax), %rax
	testq	%rax, %rax
	je	.L578
.L675:
	cmpq	(%rax), %rbp
	jne	.L580
	movq	8(%rax), %rax
	testq	%rax, %rax
	je	.L578
	movq	16(%rax), %rdx
	movq	24(%rsp), %rdi
	testq	%rdx, %rdx
	je	.L583
	movq	%rdi, (%rdx)
.L584:
	movq	%r13, 16(%rax)
	jmp	.L681
	.p2align 4,,10
	.p2align 3
.L688:
	movq	$0, 104(%rdx)
	jmp	.L570
	.p2align 4,,10
	.p2align 3
.L689:
	movq	%r12, %rdi
	call	__cxa_guard_acquire@PLT
	testl	%eax, %eax
	je	.L597
	movq	%r12, %rdi
	call	__cxa_guard_release@PLT
	movq	_ZZN4asio15system_categoryEvE8instance@GOTPCREL(%rip), %rsi
	movq	_ZN4asio6detail15system_categoryD1Ev@GOTPCREL(%rip), %rdi
	leaq	__dso_handle(%rip), %rdx
	call	__cxa_atexit@PLT
	jmp	.L597
	.p2align 4,,10
	.p2align 3
.L676:
	orl	$8, %r12d
	leaq	60(%rsp), %rcx
	movl	$8, %r8d
	movb	%r12b, 4(%rbx)
	movl	$13, %edx
	movl	$0, (%rax)
	movl	$1, %esi
	movl	%ebp, %edi
	movq	$0, 60(%rsp)
	call	setsockopt@PLT
	movq	_ZGVZN4asio15system_categoryEvE8instance@GOTPCREL(%rip), %r12
	movzbl	(%r12), %eax
	testb	%al, %al
	jne	.L592
	movq	%r12, %rdi
	call	__cxa_guard_acquire@PLT
	testl	%eax, %eax
	je	.L592
	movq	%r12, %rdi
	call	__cxa_guard_release@PLT
	movq	_ZZN4asio15system_categoryEvE8instance@GOTPCREL(%rip), %rsi
	movq	_ZN4asio6detail15system_categoryD1Ev@GOTPCREL(%rip), %rdi
	leaq	__dso_handle(%rip), %rdx
	call	__cxa_atexit@PLT
	jmp	.L592
	.p2align 4,,10
	.p2align 3
.L578:
	leaq	48(%rbp), %r12
	movq	%r12, %rdi
	call	pthread_mutex_lock@PLT
	movq	200(%rbp), %rax
	testq	%rax, %rax
	je	.L586
	movq	24(%rsp), %rdi
	movq	%rdi, (%rax)
.L587:
	movq	136(%rbp), %rax
	movq	%r13, 200(%rbp)
	orq	$1, %rax
	cmpq	$1, %rax
	movq	%rax, 136(%rbp)
	jne	.L693
	cmpb	$0, 176(%rbp)
	jne	.L590
	movq	144(%rbp), %rax
	testq	%rax, %rax
	je	.L590
	leaq	88(%rax), %rdx
	movb	$1, 176(%rbp)
	movl	$-2147483639, 60(%rsp)
	leaq	60(%rsp), %rcx
	movl	$3, %esi
	movq	%rdx, 64(%rsp)
	movl	88(%rax), %edx
	movl	96(%rax), %edi
	call	epoll_ctl@PLT
.L590:
	movq	%r12, %rdi
	call	pthread_mutex_unlock@PLT
	jmp	.L681
.L586:
	movq	24(%rsp), %rax
	movq	%rax, 192(%rbp)
	jmp	.L587
	.p2align 4,,10
	.p2align 3
.L687:
	movq	32(%rsp), %rax
	movl	$0, 60(%rsp)
	leaq	60(%rsp), %rcx
	movq	$0, 64(%rsp)
	movl	$2, %esi
	movl	%ebp, %edx
	movl	96(%rax), %edi
	call	epoll_ctl@PLT
	movq	8(%rbx), %rsi
	jmp	.L562
	.p2align 4,,10
	.p2align 3
.L692:
	movq	24(%rbp), %rax
	movq	32(%rsp), %rdi
	movq	%rax, 160(%rdi)
	jmp	.L574
	.p2align 4,,10
	.p2align 3
.L690:
	movq	%r12, %rdi
	call	__cxa_guard_acquire@PLT
	testl	%eax, %eax
	je	.L600
	movq	%r12, %rdi
	call	__cxa_guard_release@PLT
	movq	_ZZN4asio15system_categoryEvE8instance@GOTPCREL(%rip), %rsi
	movq	_ZN4asio6detail15system_categoryD1Ev@GOTPCREL(%rip), %rdi
	leaq	__dso_handle(%rip), %rdx
	call	__cxa_atexit@PLT
	jmp	.L600
	.p2align 4,,10
	.p2align 3
.L602:
	leaq	60(%rsp), %rdx
	movl	%ebp, %edi
	movl	$21537, %esi
	xorl	%eax, %eax
	movl	$0, 60(%rsp)
	call	ioctl@PLT
	andb	$-4, 4(%rbx)
	movl	%ebp, %edi
	movl	$0, 0(%r13)
	call	close@PLT
	jmp	.L686
	.p2align 4,,10
	.p2align 3
.L693:
	movq	%r12, %rdi
	call	pthread_mutex_unlock@PLT
	leaq	88(%rbp), %rdi
	call	pthread_cond_signal@PLT
	jmp	.L681
.L583:
	movq	%rdi, 8(%rax)
	jmp	.L584
.L691:
	call	__stack_chk_fail@PLT
	.cfi_endproc
.LFE4350:
	.size	_ZN4asio6detail28reactive_socket_service_base7destroyERNS1_24base_implementation_typeE, .-_ZN4asio6detail28reactive_socket_service_base7destroyERNS1_24base_implementation_typeE
	.section	.rodata.str1.1,"aMS",@progbits,1
.LC23:
	.string	"Connecting to: %s"
	.section	.rodata.str1.8,"aMS",@progbits,1
	.align 8
.LC24:
	.string	"/home/raihan/OpenPLC_v3/utils/dnp3_src/cpp/libs/src/asiodnp3/TCPClientIOHandler.cpp(70)"
	.text
	.align 2
	.p2align 4,,15
	.globl	_ZN8asiodnp318TCPClientIOHandler12StartConnectERKSt10shared_ptrIN7asiopal9TCPClientEERKN7openpal12TimeDurationE
	.type	_ZN8asiodnp318TCPClientIOHandler12StartConnectERKSt10shared_ptrIN7asiopal9TCPClientEERKN7openpal12TimeDurationE, @function
_ZN8asiodnp318TCPClientIOHandler12StartConnectERKSt10shared_ptrIN7asiopal9TCPClientEERKN7openpal12TimeDurationE:
.LFB7562:
	.cfi_startproc
	.cfi_personality 0x9b,DW.ref.__gxx_personality_v0
	.cfi_lsda 0x1b,.LLSDA7562
	pushq	%r15
	.cfi_def_cfa_offset 16
	.cfi_offset 15, -16
	pushq	%r14
	.cfi_def_cfa_offset 24
	.cfi_offset 14, -24
	leaq	32(%rdi), %r14
	pushq	%r13
	.cfi_def_cfa_offset 32
	.cfi_offset 13, -32
	pushq	%r12
	.cfi_def_cfa_offset 40
	.cfi_offset 12, -40
	movq	%rsi, %r13
	pushq	%rbp
	.cfi_def_cfa_offset 48
	.cfi_offset 6, -48
	pushq	%rbx
	.cfi_def_cfa_offset 56
	.cfi_offset 3, -56
	movq	%rdi, %rbx
	movq	%r14, %rdi
	movq	%rdx, %r12
	subq	$280, %rsp
	.cfi_def_cfa_offset 336
	leaq	64(%rsp), %rbp
	movl	$8, 64(%rsp)
	movq	%fs:40, %rax
	movq	%rax, 264(%rsp)
	xorl	%eax, %eax
	movq	%rbp, %rsi
.LEHB0:
	call	_ZNK7openpal6Logger9IsEnabledERKNS_10LogFiltersE@PLT
.LEHE0:
	testb	%al, %al
	jne	.L787
.L695:
	movq	24(%rbx), %rax
	testq	%rax, %rax
	movq	%rax, 24(%rsp)
	je	.L696
	leaq	8(%rax), %rdx
	movl	8(%rax), %eax
	testl	%eax, %eax
	je	.L696
.L781:
	leal	1(%rax), %ecx
	lock cmpxchgl	%ecx, (%rdx)
	jne	.L788
	movq	8(%r13), %rax
	movq	16(%rbx), %rdx
	movq	(%r12), %rsi
	movq	0(%r13), %rcx
	movq	%rbx, 32(%rsp)
	testq	%rax, %rax
	movq	%rdx, 16(%rsp)
	movq	%rax, 56(%rsp)
	movq	%rsi, 40(%rsp)
	movq	%rcx, 48(%rsp)
	je	.L701
	cmpq	$0, _ZL28__gthrw___pthread_key_createPjPFvPvE@GOTPCREL(%rip)
	jne	.L789
	addl	$1, 8(%rax)
	movq	%rdx, 64(%rsp)
	movq	24(%rsp), %rdx
	movq	912(%rbx), %r12
	testq	%rdx, %rdx
	movq	%rdx, 72(%rsp)
	je	.L790
	addl	$1, 8(%rdx)
	movq	40(%rsp), %rdx
	movq	%rbx, 80(%rsp)
	movq	%rcx, 96(%rsp)
	movq	%rax, 104(%rsp)
	movq	%rdx, 88(%rsp)
.L750:
	addl	$1, 8(%rax)
.L710:
	movl	$48, %edi
	movq	$0, 128(%rsp)
.LEHB1:
	call	_Znwm@PLT
.LEHE1:
	movq	64(%rsp), %rdx
	pxor	%xmm0, %xmm0
	movq	%rdx, (%rax)
	movq	72(%rsp), %rdx
	movaps	%xmm0, 64(%rsp)
	movq	%rdx, 8(%rax)
	movq	80(%rsp), %rdx
	movq	%rdx, 16(%rax)
	movq	88(%rsp), %rdx
	movq	%rdx, 24(%rax)
	movq	96(%rsp), %rdx
	movq	%rdx, 32(%rax)
	movq	104(%rsp), %rdx
	testq	%rdx, %rdx
	movq	%rdx, 40(%rax)
	je	.L711
	cmpq	$0, _ZL28__gthrw___pthread_key_createPjPFvPvE@GOTPCREL(%rip)
	je	.L712
	lock addl	$1, 8(%rdx)
.L711:
	leaq	_ZNSt14_Function_base13_Base_managerIZN8asiodnp318TCPClientIOHandler12StartConnectERKSt10shared_ptrIN7asiopal9TCPClientEERKN7openpal12TimeDurationEEUlRKS3_INS4_8ExecutorEEN4asio19basic_stream_socketINSH_2ip3tcpENSH_21stream_socket_serviceISK_EEEERKSt10error_codeE_E10_M_managerERSt9_Any_dataRKST_St18_Manager_operation(%rip), %rcx
	movq	%rax, 112(%rsp)
	leaq	_ZNSt17_Function_handlerIFvRKSt10shared_ptrIN7asiopal8ExecutorEEN4asio19basic_stream_socketINS6_2ip3tcpENS6_21stream_socket_serviceIS9_EEEERKSt10error_codeEZN8asiodnp318TCPClientIOHandler12StartConnectERKS0_INS1_9TCPClientEERKN7openpal12TimeDurationEEUlS5_SC_SF_E_E9_M_invokeERKSt9_Any_dataS5_OSC_SF_(%rip), %rax
	leaq	112(%rsp), %rbx
	movq	%r12, %rdi
	movq	%rcx, 8(%rsp)
	movq	8(%rsp), %xmm0
	movq	%rax, 8(%rsp)
	movq	%rbx, %rsi
	movhps	8(%rsp), %xmm0
	movaps	%xmm0, 128(%rsp)
.LEHB2:
	call	_ZN7asiopal9TCPClient12BeginConnectERKSt8functionIFvRKSt10shared_ptrINS_8ExecutorEEN4asio19basic_stream_socketINS7_2ip3tcpENS7_21stream_socket_serviceISA_EEEERKSt10error_codeEE@PLT
.LEHE2:
	movq	128(%rsp), %rax
	testq	%rax, %rax
	je	.L717
	movl	$3, %edx
	movq	%rbx, %rsi
	movq	%rbx, %rdi
	call	*%rax
.L717:
	movq	104(%rsp), %rbx
	testq	%rbx, %rbx
	je	.L719
	cmpq	$0, _ZL28__gthrw___pthread_key_createPjPFvPvE@GOTPCREL(%rip)
	je	.L720
	lock subl	$1, 8(%rbx)
	je	.L791
.L719:
	movq	72(%rsp), %rbx
	testq	%rbx, %rbx
	je	.L725
	cmpq	$0, _ZL28__gthrw___pthread_key_createPjPFvPvE@GOTPCREL(%rip)
	je	.L726
	lock subl	$1, 8(%rbx)
	je	.L792
.L725:
	movq	56(%rsp), %rbx
	testq	%rbx, %rbx
	je	.L731
	cmpq	$0, _ZL28__gthrw___pthread_key_createPjPFvPvE@GOTPCREL(%rip)
	je	.L732
	lock subl	$1, 8(%rbx)
	je	.L793
.L731:
	movq	24(%rsp), %rbx
	testq	%rbx, %rbx
	je	.L694
	cmpq	$0, _ZL28__gthrw___pthread_key_createPjPFvPvE@GOTPCREL(%rip)
	je	.L738
	lock subl	$1, 8(%rbx)
	je	.L794
.L694:
	movq	264(%rsp), %rax
	xorq	%fs:40, %rax
	jne	.L795
	addq	$280, %rsp
	.cfi_remember_state
	.cfi_def_cfa_offset 56
	popq	%rbx
	.cfi_def_cfa_offset 48
	popq	%rbp
	.cfi_def_cfa_offset 40
	popq	%r12
	.cfi_def_cfa_offset 32
	popq	%r13
	.cfi_def_cfa_offset 24
	popq	%r14
	.cfi_def_cfa_offset 16
	popq	%r15
	.cfi_def_cfa_offset 8
	ret
	.p2align 4,,10
	.p2align 3
.L789:
	.cfi_restore_state
	lock addl	$1, 8(%rax)
	movq	24(%rsp), %rdx
	movq	16(%rsp), %rax
	movq	912(%rbx), %r12
	testq	%rdx, %rdx
	movq	%rax, 64(%rsp)
	movq	%rdx, 72(%rsp)
	leaq	8(%rdx), %rax
	je	.L796
.L744:
	lock addl	$1, (%rax)
	movq	32(%rsp), %rax
	movq	56(%rsp), %rdx
	movq	%rax, 80(%rsp)
	movq	40(%rsp), %rax
	testq	%rdx, %rdx
	movq	%rdx, 104(%rsp)
	movq	%rax, 88(%rsp)
	movq	48(%rsp), %rax
	movq	%rax, 96(%rsp)
	leaq	8(%rdx), %rax
	je	.L710
.L745:
	lock addl	$1, (%rax)
	jmp	.L710
	.p2align 4,,10
	.p2align 3
.L712:
	addl	$1, 8(%rdx)
	jmp	.L711
	.p2align 4,,10
	.p2align 3
.L787:
	leaq	144(%rsp), %r15
	movq	840(%rbx), %r9
	leaq	.LC23(%rip), %r8
	movl	$120, %ecx
	movl	$1, %edx
	movl	$120, %esi
	movq	%r15, %rdi
	xorl	%eax, %eax
	call	__snprintf_chk@PLT
	leaq	.LC24(%rip), %rdx
	movq	%r15, %rcx
	movq	%rbp, %rsi
	movq	%r14, %rdi
	movl	$8, 64(%rsp)
.LEHB3:
	call	_ZN7openpal6Logger3LogERKNS_10LogFiltersEPKcS5_@PLT
	jmp	.L695
	.p2align 4,,10
	.p2align 3
.L701:
	movq	24(%rsp), %rax
	movq	912(%rbx), %r12
	movq	%rdx, 64(%rsp)
	testq	%rax, %rax
	movq	%rax, 72(%rsp)
	je	.L707
	cmpq	$0, _ZL28__gthrw___pthread_key_createPjPFvPvE@GOTPCREL(%rip)
	je	.L708
	addq	$8, %rax
	jmp	.L744
	.p2align 4,,10
	.p2align 3
.L738:
	movl	8(%rbx), %eax
	leal	-1(%rax), %edx
	cmpl	$1, %eax
	movl	%edx, 8(%rbx)
	jne	.L694
	movq	(%rbx), %rax
	movq	%rbx, %rdi
	call	*16(%rax)
	movl	12(%rbx), %eax
	leal	-1(%rax), %edx
	movl	%edx, 12(%rbx)
.L749:
	cmpl	$1, %eax
	jne	.L694
	movq	(%rbx), %rax
	movq	%rbx, %rdi
	call	*24(%rax)
	jmp	.L694
	.p2align 4,,10
	.p2align 3
.L726:
	movl	8(%rbx), %eax
	leal	-1(%rax), %edx
	cmpl	$1, %eax
	movl	%edx, 8(%rbx)
	jne	.L725
	movq	(%rbx), %rax
	movq	%rbx, %rdi
	call	*16(%rax)
	movl	12(%rbx), %eax
	leal	-1(%rax), %edx
	movl	%edx, 12(%rbx)
.L747:
	cmpl	$1, %eax
	jne	.L725
	movq	(%rbx), %rax
	movq	%rbx, %rdi
	call	*24(%rax)
	jmp	.L725
	.p2align 4,,10
	.p2align 3
.L732:
	movl	8(%rbx), %eax
	leal	-1(%rax), %edx
	cmpl	$1, %eax
	movl	%edx, 8(%rbx)
	jne	.L731
	movq	(%rbx), %rax
	movq	%rbx, %rdi
	call	*16(%rax)
	movl	12(%rbx), %eax
	leal	-1(%rax), %edx
	movl	%edx, 12(%rbx)
.L748:
	cmpl	$1, %eax
	jne	.L731
	movq	(%rbx), %rax
	movq	%rbx, %rdi
	call	*24(%rax)
	jmp	.L731
	.p2align 4,,10
	.p2align 3
.L720:
	movl	8(%rbx), %eax
	leal	-1(%rax), %edx
	cmpl	$1, %eax
	movl	%edx, 8(%rbx)
	jne	.L719
	movq	(%rbx), %rax
	movq	%rbx, %rdi
	call	*16(%rax)
	movl	12(%rbx), %eax
	leal	-1(%rax), %edx
	movl	%edx, 12(%rbx)
.L746:
	cmpl	$1, %eax
	jne	.L719
	movq	(%rbx), %rax
	movq	%rbx, %rdi
	call	*24(%rax)
	jmp	.L719
	.p2align 4,,10
	.p2align 3
.L707:
	movq	%rbx, 80(%rsp)
	movq	%rsi, 88(%rsp)
	movq	%rcx, 96(%rsp)
	movq	$0, 104(%rsp)
	jmp	.L710
	.p2align 4,,10
	.p2align 3
.L708:
	addl	$1, 8(%rax)
	movq	40(%rsp), %rax
	movq	%rbx, 80(%rsp)
	movq	%rcx, 96(%rsp)
	movq	$0, 104(%rsp)
	movq	%rax, 88(%rsp)
	jmp	.L710
	.p2align 4,,10
	.p2align 3
.L790:
	movq	%rbx, 80(%rsp)
	movq	%rsi, 88(%rsp)
	movq	%rcx, 96(%rsp)
	movq	%rax, 104(%rsp)
	jmp	.L750
	.p2align 4,,10
	.p2align 3
.L796:
	movq	32(%rsp), %rdx
	movq	56(%rsp), %rax
	movq	%rdx, 80(%rsp)
	movq	40(%rsp), %rdx
	testq	%rax, %rax
	movq	%rax, 104(%rsp)
	movq	%rdx, 88(%rsp)
	movq	48(%rsp), %rdx
	movq	%rdx, 96(%rsp)
	je	.L710
	addq	$8, %rax
	jmp	.L745
	.p2align 4,,10
	.p2align 3
.L794:
	movq	(%rbx), %rax
	movq	%rbx, %rdi
	call	*16(%rax)
	movl	$-1, %eax
	lock xaddl	%eax, 12(%rbx)
	jmp	.L749
	.p2align 4,,10
	.p2align 3
.L792:
	movq	(%rbx), %rax
	movq	%rbx, %rdi
	call	*16(%rax)
	movl	$-1, %eax
	lock xaddl	%eax, 12(%rbx)
	jmp	.L747
	.p2align 4,,10
	.p2align 3
.L791:
	movq	(%rbx), %rax
	movq	%rbx, %rdi
	call	*16(%rax)
	movl	$-1, %eax
	lock xaddl	%eax, 12(%rbx)
	jmp	.L746
	.p2align 4,,10
	.p2align 3
.L793:
	movq	(%rbx), %rax
	movq	%rbx, %rdi
	call	*16(%rax)
	movl	$-1, %eax
	lock xaddl	%eax, 12(%rbx)
	jmp	.L748
.L788:
	testl	%eax, %eax
	jne	.L781
.L696:
	call	_ZSt20__throw_bad_weak_ptrv@PLT
.LEHE3:
.L795:
	call	__stack_chk_fail@PLT
.L753:
	movq	%rax, %rbx
	movq	128(%rsp), %rax
	testq	%rax, %rax
	je	.L716
	leaq	112(%rsp), %rdi
	movl	$3, %edx
	movq	%rdi, %rsi
	call	*%rax
.L716:
	movq	%rbp, %rdi
	call	_ZZN8asiodnp318TCPClientIOHandler12StartConnectERKSt10shared_ptrIN7asiopal9TCPClientEERKN7openpal12TimeDurationEENUlRKS1_INS2_8ExecutorEEN4asio19basic_stream_socketINSF_2ip3tcpENSF_21stream_socket_serviceISI_EEEERKSt10error_codeE_D1Ev
	leaq	16(%rsp), %rdi
	call	_ZZN8asiodnp318TCPClientIOHandler12StartConnectERKSt10shared_ptrIN7asiopal9TCPClientEERKN7openpal12TimeDurationEENUlRKS1_INS2_8ExecutorEEN4asio19basic_stream_socketINSF_2ip3tcpENSF_21stream_socket_serviceISI_EEEERKSt10error_codeE_D1Ev
	movq	%rbx, %rdi
.LEHB4:
	call	_Unwind_Resume@PLT
.LEHE4:
.L752:
	movq	%rax, %r12
	movq	128(%rsp), %rax
	testq	%rax, %rax
	je	.L743
	movl	$3, %edx
	movq	%rbx, %rsi
	movq	%rbx, %rdi
	call	*%rax
.L743:
	movq	%r12, %rbx
	jmp	.L716
	.cfi_endproc
.LFE7562:
	.section	.gcc_except_table,"a",@progbits
.LLSDA7562:
	.byte	0xff
	.byte	0xff
	.byte	0x1
	.uleb128 .LLSDACSE7562-.LLSDACSB7562
.LLSDACSB7562:
	.uleb128 .LEHB0-.LFB7562
	.uleb128 .LEHE0-.LEHB0
	.uleb128 0
	.uleb128 0
	.uleb128 .LEHB1-.LFB7562
	.uleb128 .LEHE1-.LEHB1
	.uleb128 .L753-.LFB7562
	.uleb128 0
	.uleb128 .LEHB2-.LFB7562
	.uleb128 .LEHE2-.LEHB2
	.uleb128 .L752-.LFB7562
	.uleb128 0
	.uleb128 .LEHB3-.LFB7562
	.uleb128 .LEHE3-.LEHB3
	.uleb128 0
	.uleb128 0
	.uleb128 .LEHB4-.LFB7562
	.uleb128 .LEHE4-.LEHB4
	.uleb128 0
	.uleb128 0
.LLSDACSE7562:
	.text
	.size	_ZN8asiodnp318TCPClientIOHandler12StartConnectERKSt10shared_ptrIN7asiopal9TCPClientEERKN7openpal12TimeDurationE, .-_ZN8asiodnp318TCPClientIOHandler12StartConnectERKSt10shared_ptrIN7asiopal9TCPClientEERKN7openpal12TimeDurationE
	.p2align 4,,15
	.type	_ZNSt17_Function_handlerIFvvEZN7openpal8TimerRef5StartIZZN8asiodnp318TCPClientIOHandler12StartConnectERKSt10shared_ptrIN7asiopal9TCPClientEERKNS1_12TimeDurationEENKUlRKS6_INS7_8ExecutorEEN4asio19basic_stream_socketINSJ_2ip3tcpENSJ_21stream_socket_serviceISM_EEEERKSt10error_codeE_clESI_SP_SS_EUlvE_EEbSE_RKT_EUlvE_E9_M_invokeERKSt9_Any_data, @function
_ZNSt17_Function_handlerIFvvEZN7openpal8TimerRef5StartIZZN8asiodnp318TCPClientIOHandler12StartConnectERKSt10shared_ptrIN7asiopal9TCPClientEERKNS1_12TimeDurationEENKUlRKS6_INS7_8ExecutorEEN4asio19basic_stream_socketINSJ_2ip3tcpENSJ_21stream_socket_serviceISM_EEEERKSt10error_codeE_clESI_SP_SS_EUlvE_EEbSE_RKT_EUlvE_E9_M_invokeERKSt9_Any_data:
.LFB9302:
	.cfi_startproc
	movq	(%rdi), %rax
	movq	(%rax), %rdx
	movq	48(%rax), %rdi
	leaq	32(%rax), %rsi
	movq	$0, 8(%rdx)
	leaq	24(%rax), %rdx
	jmp	_ZN8asiodnp318TCPClientIOHandler12StartConnectERKSt10shared_ptrIN7asiopal9TCPClientEERKN7openpal12TimeDurationE@PLT
	.cfi_endproc
.LFE9302:
	.size	_ZNSt17_Function_handlerIFvvEZN7openpal8TimerRef5StartIZZN8asiodnp318TCPClientIOHandler12StartConnectERKSt10shared_ptrIN7asiopal9TCPClientEERKNS1_12TimeDurationEENKUlRKS6_INS7_8ExecutorEEN4asio19basic_stream_socketINSJ_2ip3tcpENSJ_21stream_socket_serviceISM_EEEERKSt10error_codeE_clESI_SP_SS_EUlvE_EEbSE_RKT_EUlvE_E9_M_invokeERKSt9_Any_data, .-_ZNSt17_Function_handlerIFvvEZN7openpal8TimerRef5StartIZZN8asiodnp318TCPClientIOHandler12StartConnectERKSt10shared_ptrIN7asiopal9TCPClientEERKNS1_12TimeDurationEENKUlRKS6_INS7_8ExecutorEEN4asio19basic_stream_socketINSJ_2ip3tcpENSJ_21stream_socket_serviceISM_EEEERKSt10error_codeE_clESI_SP_SS_EUlvE_EEbSE_RKT_EUlvE_E9_M_invokeERKSt9_Any_data
	.align 2
	.p2align 4,,15
	.globl	_ZN8asiodnp318TCPClientIOHandler18BeginChannelAcceptEv
	.type	_ZN8asiodnp318TCPClientIOHandler18BeginChannelAcceptEv, @function
_ZN8asiodnp318TCPClientIOHandler18BeginChannelAcceptEv:
.LFB7559:
	.cfi_startproc
	.cfi_personality 0x9b,DW.ref.__gxx_personality_v0
	.cfi_lsda 0x1b,.LLSDA7559
	pushq	%r12
	.cfi_def_cfa_offset 16
	.cfi_offset 12, -16
	pushq	%rbp
	.cfi_def_cfa_offset 24
	.cfi_offset 6, -24
	pushq	%rbx
	.cfi_def_cfa_offset 32
	.cfi_offset 3, -32
	movq	%rdi, %rbx
	movl	$264, %edi
	subq	$16, %rsp
	.cfi_def_cfa_offset 48
.LEHB5:
	call	_Znwm@PLT
.LEHE5:
	movq	%rax, %rbp
	movabsq	$4294967297, %rax
	leaq	840(%rbx), %rcx
	movq	%rax, 8(%rbp)
	movq	_ZTVSt23_Sp_counted_ptr_inplaceIN7asiopal9TCPClientESaIS1_ELN9__gnu_cxx12_Lock_policyE2EE@GOTPCREL(%rip), %rax
	leaq	800(%rbx), %rdx
	leaq	32(%rbx), %rsi
	leaq	16(%rbp), %rdi
	leaq	880(%rbx), %r8
	addq	$16, %rax
	movq	%rax, 0(%rbp)
.LEHB6:
	call	_ZN7asiopal9TCPClientC1ERKN7openpal6LoggerERKSt10shared_ptrINS_8ExecutorEERKNS_10IPEndpointERKNSt7__cxx1112basic_stringIcSt11char_traitsIcESaIcEEE@PLT
.LEHE6:
	movq	0(%rbp), %rax
	movq	_ZTISt19_Sp_make_shared_tag@GOTPCREL(%rip), %rsi
	movq	%rbp, %rdi
	call	*32(%rax)
	testq	%rax, %rax
	je	.L800
	movq	8(%rax), %rdi
	testq	%rdi, %rdi
	je	.L802
	movl	8(%rdi), %edx
	testl	%edx, %edx
	jne	.L800
.L802:
	cmpq	$0, _ZL28__gthrw___pthread_key_createPjPFvPvE@GOTPCREL(%rip)
	movq	%rax, (%rax)
	je	.L826
	lock addl	$1, 12(%rbp)
	movq	8(%rax), %rdi
	testq	%rdi, %rdi
	je	.L804
	movl	$-1, %edx
	lock xaddl	%edx, 12(%rdi)
.L815:
	cmpl	$1, %edx
	jne	.L804
	movq	(%rdi), %rdx
	movq	%rax, 8(%rsp)
	call	*24(%rdx)
	movq	8(%rsp), %rax
.L804:
	movq	%rbp, 8(%rax)
.L800:
	movq	920(%rbx), %r12
	leaq	912(%rbx), %rsi
	movq	%rax, 912(%rbx)
	movq	%rbp, 920(%rbx)
	testq	%r12, %r12
	je	.L808
	cmpq	$0, _ZL28__gthrw___pthread_key_createPjPFvPvE@GOTPCREL(%rip)
	je	.L809
	lock subl	$1, 8(%r12)
	je	.L827
.L808:
	addq	$16, %rsp
	.cfi_remember_state
	.cfi_def_cfa_offset 32
	leaq	816(%rbx), %rdx
	movq	%rbx, %rdi
	popq	%rbx
	.cfi_def_cfa_offset 24
	popq	%rbp
	.cfi_def_cfa_offset 16
	popq	%r12
	.cfi_def_cfa_offset 8
.LEHB7:
	jmp	_ZN8asiodnp318TCPClientIOHandler12StartConnectERKSt10shared_ptrIN7asiopal9TCPClientEERKN7openpal12TimeDurationE@PLT
	.p2align 4,,10
	.p2align 3
.L809:
	.cfi_restore_state
	movl	8(%r12), %eax
	leal	-1(%rax), %edx
	cmpl	$1, %eax
	movl	%edx, 8(%r12)
	jne	.L808
	movq	(%r12), %rax
	movq	%rsi, 8(%rsp)
	movq	%r12, %rdi
	call	*16(%rax)
	movl	12(%r12), %eax
	movq	8(%rsp), %rsi
	leal	-1(%rax), %edx
	movl	%edx, 12(%r12)
	jmp	.L816
	.p2align 4,,10
	.p2align 3
.L827:
	movq	(%r12), %rax
	movq	%rsi, 8(%rsp)
	movq	%r12, %rdi
	call	*16(%rax)
	movl	$-1, %eax
	lock xaddl	%eax, 12(%r12)
	movq	8(%rsp), %rsi
.L816:
	cmpl	$1, %eax
	jne	.L808
	movq	(%r12), %rax
	movq	%rsi, 8(%rsp)
	movq	%r12, %rdi
	call	*24(%rax)
	movq	8(%rsp), %rsi
	jmp	.L808
	.p2align 4,,10
	.p2align 3
.L826:
	addl	$1, 12(%rbp)
	testq	%rdi, %rdi
	je	.L804
	movl	12(%rdi), %edx
	leal	-1(%rdx), %ecx
	movl	%ecx, 12(%rdi)
	jmp	.L815
.L817:
	movq	%rax, %rbx
	movq	%rbp, %rdi
	call	_ZdlPv@PLT
	movq	%rbx, %rdi
	call	_Unwind_Resume@PLT
.LEHE7:
	.cfi_endproc
.LFE7559:
	.section	.gcc_except_table
.LLSDA7559:
	.byte	0xff
	.byte	0xff
	.byte	0x1
	.uleb128 .LLSDACSE7559-.LLSDACSB7559
.LLSDACSB7559:
	.uleb128 .LEHB5-.LFB7559
	.uleb128 .LEHE5-.LEHB5
	.uleb128 0
	.uleb128 0
	.uleb128 .LEHB6-.LFB7559
	.uleb128 .LEHE6-.LEHB6
	.uleb128 .L817-.LFB7559
	.uleb128 0
	.uleb128 .LEHB7-.LFB7559
	.uleb128 .LEHE7-.LEHB7
	.uleb128 0
	.uleb128 0
.LLSDACSE7559:
	.text
	.size	_ZN8asiodnp318TCPClientIOHandler18BeginChannelAcceptEv, .-_ZN8asiodnp318TCPClientIOHandler18BeginChannelAcceptEv
	.align 2
	.p2align 4,,15
	.globl	_ZN8asiodnp318TCPClientIOHandler17OnChannelShutdownEv
	.type	_ZN8asiodnp318TCPClientIOHandler17OnChannelShutdownEv, @function
_ZN8asiodnp318TCPClientIOHandler17OnChannelShutdownEv:
.LFB7561:
	.cfi_startproc
	jmp	_ZN8asiodnp318TCPClientIOHandler18BeginChannelAcceptEv@PLT
	.cfi_endproc
.LFE7561:
	.size	_ZN8asiodnp318TCPClientIOHandler17OnChannelShutdownEv, .-_ZN8asiodnp318TCPClientIOHandler17OnChannelShutdownEv
	.align 2
	.p2align 4,,15
	.globl	_ZN8asiodnp318TCPClientIOHandler10ResetStateEv
	.type	_ZN8asiodnp318TCPClientIOHandler10ResetStateEv, @function
_ZN8asiodnp318TCPClientIOHandler10ResetStateEv:
.LFB7604:
	.cfi_startproc
	pushq	%rbp
	.cfi_def_cfa_offset 16
	.cfi_offset 6, -16
	pushq	%rbx
	.cfi_def_cfa_offset 24
	.cfi_offset 3, -24
	movq	%rdi, %rbx
	subq	$8, %rsp
	.cfi_def_cfa_offset 32
	movq	912(%rdi), %rdi
	testq	%rdi, %rdi
	je	.L831
	call	_ZN7asiopal9TCPClient6CancelEv@PLT
	movq	920(%rbx), %rbp
	movq	$0, 912(%rbx)
	movq	$0, 920(%rbx)
	testq	%rbp, %rbp
	je	.L831
	cmpq	$0, _ZL28__gthrw___pthread_key_createPjPFvPvE@GOTPCREL(%rip)
	je	.L833
	lock subl	$1, 8(%rbp)
	jne	.L831
	movq	0(%rbp), %rax
	movq	%rbp, %rdi
	call	*16(%rax)
	movl	$-1, %eax
	lock xaddl	%eax, 12(%rbp)
.L836:
	cmpl	$1, %eax
	je	.L841
.L831:
	addq	$8, %rsp
	.cfi_remember_state
	.cfi_def_cfa_offset 24
	leaq	928(%rbx), %rdi
	popq	%rbx
	.cfi_def_cfa_offset 16
	popq	%rbp
	.cfi_def_cfa_offset 8
	jmp	_ZN7openpal8TimerRef6CancelEv@PLT
	.p2align 4,,10
	.p2align 3
.L833:
	.cfi_restore_state
	movl	8(%rbp), %eax
	leal	-1(%rax), %edx
	cmpl	$1, %eax
	movl	%edx, 8(%rbp)
	jne	.L831
	movq	0(%rbp), %rax
	movq	%rbp, %rdi
	call	*16(%rax)
	movl	12(%rbp), %eax
	leal	-1(%rax), %edx
	movl	%edx, 12(%rbp)
	jmp	.L836
	.p2align 4,,10
	.p2align 3
.L841:
	movq	0(%rbp), %rax
	movq	%rbp, %rdi
	call	*24(%rax)
	jmp	.L831
	.cfi_endproc
.LFE7604:
	.size	_ZN8asiodnp318TCPClientIOHandler10ResetStateEv, .-_ZN8asiodnp318TCPClientIOHandler10ResetStateEv
	.align 2
	.p2align 4,,15
	.globl	_ZN8asiodnp318TCPClientIOHandler12ShutdownImplEv
	.type	_ZN8asiodnp318TCPClientIOHandler12ShutdownImplEv, @function
_ZN8asiodnp318TCPClientIOHandler12ShutdownImplEv:
.LFB7558:
	.cfi_startproc
	jmp	_ZN8asiodnp318TCPClientIOHandler10ResetStateEv@PLT
	.cfi_endproc
.LFE7558:
	.size	_ZN8asiodnp318TCPClientIOHandler12ShutdownImplEv, .-_ZN8asiodnp318TCPClientIOHandler12ShutdownImplEv
	.globl	_ZN8asiodnp318TCPClientIOHandler20SuspendChannelAcceptEv
	.set	_ZN8asiodnp318TCPClientIOHandler20SuspendChannelAcceptEv,_ZN8asiodnp318TCPClientIOHandler12ShutdownImplEv
	.section	.text._ZNSt16_Sp_counted_baseILN9__gnu_cxx12_Lock_policyE2EE10_M_releaseEv,"axG",@progbits,_ZNSt16_Sp_counted_baseILN9__gnu_cxx12_Lock_policyE2EE10_M_releaseEv,comdat
	.align 2
	.p2align 4,,15
	.weak	_ZNSt16_Sp_counted_baseILN9__gnu_cxx12_Lock_policyE2EE10_M_releaseEv
	.type	_ZNSt16_Sp_counted_baseILN9__gnu_cxx12_Lock_policyE2EE10_M_releaseEv, @function
_ZNSt16_Sp_counted_baseILN9__gnu_cxx12_Lock_policyE2EE10_M_releaseEv:
.LFB8585:
	.cfi_startproc
	cmpq	$0, _ZL28__gthrw___pthread_key_createPjPFvPvE@GOTPCREL(%rip)
	pushq	%rbx
	.cfi_def_cfa_offset 16
	.cfi_offset 3, -16
	movq	%rdi, %rbx
	je	.L844
	lock subl	$1, 8(%rdi)
	je	.L851
.L843:
	popq	%rbx
	.cfi_remember_state
	.cfi_def_cfa_offset 8
	ret
	.p2align 4,,10
	.p2align 3
.L844:
	.cfi_restore_state
	movl	8(%rdi), %eax
	leal	-1(%rax), %edx
	cmpl	$1, %eax
	movl	%edx, 8(%rdi)
	jne	.L843
	movq	(%rdi), %rax
	call	*16(%rax)
	movl	12(%rbx), %eax
	leal	-1(%rax), %edx
	movl	%edx, 12(%rbx)
	jmp	.L849
	.p2align 4,,10
	.p2align 3
.L851:
	movq	(%rdi), %rax
	call	*16(%rax)
	movl	$-1, %eax
	lock xaddl	%eax, 12(%rbx)
.L849:
	cmpl	$1, %eax
	jne	.L843
	movq	(%rbx), %rax
	movq	%rbx, %rdi
	popq	%rbx
	.cfi_def_cfa_offset 8
	movq	24(%rax), %rax
	jmp	*%rax
	.cfi_endproc
.LFE8585:
	.size	_ZNSt16_Sp_counted_baseILN9__gnu_cxx12_Lock_policyE2EE10_M_releaseEv, .-_ZNSt16_Sp_counted_baseILN9__gnu_cxx12_Lock_policyE2EE10_M_releaseEv
	.section	.rodata.str1.1
.LC25:
	.string	"Error Connecting: %s"
	.section	.rodata.str1.8
	.align 8
.LC26:
	.string	"/home/raihan/OpenPLC_v3/utils/dnp3_src/cpp/libs/src/asiodnp3/TCPClientIOHandler.cpp(76)"
	.section	.rodata.str1.1
.LC27:
	.string	"Connected to: %s"
	.section	.rodata.str1.8
	.align 8
.LC28:
	.string	"/home/raihan/OpenPLC_v3/utils/dnp3_src/cpp/libs/src/asiodnp3/TCPClientIOHandler.cpp(91)"
	.text
	.align 2
	.p2align 4,,15
	.type	_ZZN8asiodnp318TCPClientIOHandler12StartConnectERKSt10shared_ptrIN7asiopal9TCPClientEERKN7openpal12TimeDurationEENKUlRKS1_INS2_8ExecutorEEN4asio19basic_stream_socketINSF_2ip3tcpENSF_21stream_socket_serviceISI_EEEERKSt10error_codeE_clESE_SL_SO_, @function
_ZZN8asiodnp318TCPClientIOHandler12StartConnectERKSt10shared_ptrIN7asiopal9TCPClientEERKN7openpal12TimeDurationEENKUlRKS1_INS2_8ExecutorEEN4asio19basic_stream_socketINSF_2ip3tcpENSF_21stream_socket_serviceISI_EEEERKSt10error_codeE_clESE_SL_SO_:
.LFB7569:
	.cfi_startproc
	.cfi_personality 0x9b,DW.ref.__gxx_personality_v0
	.cfi_lsda 0x1b,.LLSDA7569
	pushq	%r15
	.cfi_def_cfa_offset 16
	.cfi_offset 15, -16
	pushq	%r14
	.cfi_def_cfa_offset 24
	.cfi_offset 14, -24
	pushq	%r13
	.cfi_def_cfa_offset 32
	.cfi_offset 13, -32
	pushq	%r12
	.cfi_def_cfa_offset 40
	.cfi_offset 12, -40
	pushq	%rbp
	.cfi_def_cfa_offset 48
	.cfi_offset 6, -48
	pushq	%rbx
	.cfi_def_cfa_offset 56
	.cfi_offset 3, -56
	movq	%rdi, %rbx
	subq	$424, %rsp
	.cfi_def_cfa_offset 480
	movq	%fs:40, %rax
	movq	%rax, 408(%rsp)
	xorl	%eax, %eax
	movq	16(%rdi), %rax
	leaq	32(%rax), %rdi
	movl	(%rcx), %eax
	testl	%eax, %eax
	je	.L853
	leaq	192(%rsp), %r15
	movq	%rcx, %r12
	movl	$4, 192(%rsp)
	movq	%r15, %rsi
.LEHB8:
	call	_ZNK7openpal6Logger9IsEnabledERKNS_10LogFiltersE@PLT
	testb	%al, %al
	jne	.L1298
.L854:
	movq	16(%rbx), %rax
	leaq	24(%rbx), %rbp
	movq	%rbp, %rsi
	addl	$1, 84(%rax)
	movq	16(%rbx), %rdx
	movq	832(%rdx), %rdi
	addq	$824, %rdx
	movq	(%rdi), %rax
	call	*16(%rax)
.LEHE8:
	movq	8(%rbx), %rdx
	movq	(%rbx), %rsi
	testq	%rdx, %rdx
	movq	%rsi, 80(%rsp)
	movq	%rdx, 88(%rsp)
	je	.L856
	movq	_ZL28__gthrw___pthread_key_createPjPFvPvE@GOTPCREL(%rip), %rdi
	testq	%rdi, %rdi
	jne	.L1299
	addl	$1, 8(%rdx)
	movq	%rax, 96(%rsp)
	movq	40(%rbx), %rax
	movq	32(%rbx), %r8
	testq	%rax, %rax
	movq	%r8, 104(%rsp)
	movq	%rax, 112(%rsp)
	je	.L1267
	addl	$1, 8(%rax)
.L1267:
	movq	16(%rbx), %rcx
	movq	96(%rsp), %r9
	movq	%rsi, 136(%rsp)
	movq	%rdx, 144(%rsp)
	leaq	928(%rcx), %rbx
	movq	%rcx, 120(%rsp)
	movq	%rbx, 128(%rsp)
	addl	$1, 8(%rdx)
	testq	%rax, %rax
	movq	%r9, 152(%rsp)
	movq	%r8, 160(%rsp)
	movq	%rax, 168(%rsp)
	je	.L1300
.L869:
	addl	$1, 8(%rax)
	movq	%rbx, %rax
.L868:
	testq	%rdx, %rdx
	movq	%rcx, 176(%rsp)
	movq	%rax, 192(%rsp)
	movq	%rsi, 200(%rsp)
	movq	%rdx, 208(%rsp)
	je	.L872
	testq	%rdi, %rdi
	je	.L873
	lock addl	$1, 8(%rdx)
	movq	152(%rsp), %rax
	movq	168(%rsp), %rdx
	movq	%rax, 216(%rsp)
	movq	160(%rsp), %rax
	testq	%rdx, %rdx
	movq	%rdx, 232(%rsp)
	movq	%rax, 224(%rsp)
	leaq	8(%rdx), %rax
	je	.L1282
.L1063:
	lock addl	$1, (%rax)
.L1282:
	movq	176(%rsp), %rcx
.L875:
	movl	$56, %edi
	movq	%rcx, 240(%rsp)
	movq	$0, 272(%rsp)
.LEHB9:
	call	_Znwm@PLT
.LEHE9:
	movq	192(%rsp), %rdx
	movq	%rdx, (%rax)
	movq	200(%rsp), %rdx
	movq	%rdx, 8(%rax)
	movq	208(%rsp), %rdx
	testq	%rdx, %rdx
	movq	%rdx, 16(%rax)
	je	.L877
	cmpq	$0, _ZL28__gthrw___pthread_key_createPjPFvPvE@GOTPCREL(%rip)
	je	.L878
	lock addl	$1, 8(%rdx)
	movq	216(%rsp), %rdx
	movq	232(%rsp), %rcx
	movq	%rdx, 24(%rax)
	movq	224(%rsp), %rdx
	testq	%rcx, %rcx
	movq	%rcx, 40(%rax)
	movq	%rdx, 32(%rax)
	leaq	8(%rcx), %rdx
	je	.L880
.L1064:
	lock addl	$1, (%rdx)
.L880:
	movq	240(%rsp), %rdx
	leaq	_ZNSt14_Function_base13_Base_managerIZN7openpal8TimerRef5StartIZZN8asiodnp318TCPClientIOHandler12StartConnectERKSt10shared_ptrIN7asiopal9TCPClientEERKNS1_12TimeDurationEENKUlRKS6_INS7_8ExecutorEEN4asio19basic_stream_socketINSJ_2ip3tcpENSJ_21stream_socket_serviceISM_EEEERKSt10error_codeE_clESI_SP_SS_EUlvE_EEbSE_RKT_EUlvE_E10_M_managerERSt9_Any_dataRKS10_St18_Manager_operation(%rip), %rcx
	movq	%rax, 256(%rsp)
	leaq	256(%rsp), %r12
	movq	%rbp, %rsi
	movq	%rbx, %rdi
	movq	%rcx, (%rsp)
	movq	%rdx, 48(%rax)
	leaq	_ZNSt17_Function_handlerIFvvEZN7openpal8TimerRef5StartIZZN8asiodnp318TCPClientIOHandler12StartConnectERKSt10shared_ptrIN7asiopal9TCPClientEERKNS1_12TimeDurationEENKUlRKS6_INS7_8ExecutorEEN4asio19basic_stream_socketINSJ_2ip3tcpENSJ_21stream_socket_serviceISM_EEEERKSt10error_codeE_clESI_SP_SS_EUlvE_EEbSE_RKT_EUlvE_E9_M_invokeERKSt9_Any_data(%rip), %rax
	movq	%r12, %rdx
	movq	(%rsp), %xmm0
	movq	%rax, (%rsp)
	movhps	(%rsp), %xmm0
	movaps	%xmm0, 272(%rsp)
.LEHB10:
	call	_ZN7openpal8TimerRef11StartActionERKNS_12TimeDurationERKSt8functionIFvvEE@PLT
.LEHE10:
	movq	272(%rsp), %rax
	testq	%rax, %rax
	je	.L887
	movl	$3, %edx
	movq	%r12, %rsi
	movq	%r12, %rdi
	call	*%rax
.L887:
	movq	232(%rsp), %rbx
	testq	%rbx, %rbx
	je	.L889
	cmpq	$0, _ZL28__gthrw___pthread_key_createPjPFvPvE@GOTPCREL(%rip)
	je	.L890
	lock subl	$1, 8(%rbx)
	je	.L1301
.L889:
	movq	208(%rsp), %rbx
	testq	%rbx, %rbx
	je	.L895
	cmpq	$0, _ZL28__gthrw___pthread_key_createPjPFvPvE@GOTPCREL(%rip)
	je	.L896
	lock subl	$1, 8(%rbx)
	je	.L1302
.L895:
	movq	168(%rsp), %rbx
	testq	%rbx, %rbx
	je	.L901
	cmpq	$0, _ZL28__gthrw___pthread_key_createPjPFvPvE@GOTPCREL(%rip)
	je	.L902
	lock subl	$1, 8(%rbx)
	je	.L1303
.L901:
	movq	144(%rsp), %rbx
	testq	%rbx, %rbx
	je	.L907
	cmpq	$0, _ZL28__gthrw___pthread_key_createPjPFvPvE@GOTPCREL(%rip)
	je	.L908
	lock subl	$1, 8(%rbx)
	je	.L1304
.L907:
	movq	112(%rsp), %rbx
	testq	%rbx, %rbx
	je	.L913
	cmpq	$0, _ZL28__gthrw___pthread_key_createPjPFvPvE@GOTPCREL(%rip)
	je	.L916
	lock subl	$1, 8(%rbx)
	je	.L1305
.L913:
	movq	88(%rsp), %rbx
	testq	%rbx, %rbx
	je	.L852
	cmpq	$0, _ZL28__gthrw___pthread_key_createPjPFvPvE@GOTPCREL(%rip)
	je	.L922
	lock subl	$1, 8(%rbx)
	je	.L1306
	.p2align 4,,10
	.p2align 3
.L852:
	movq	408(%rsp), %rax
	xorq	%fs:40, %rax
	jne	.L1307
	addq	$424, %rsp
	.cfi_remember_state
	.cfi_def_cfa_offset 56
	popq	%rbx
	.cfi_def_cfa_offset 48
	popq	%rbp
	.cfi_def_cfa_offset 40
	popq	%r12
	.cfi_def_cfa_offset 32
	popq	%r13
	.cfi_def_cfa_offset 24
	popq	%r14
	.cfi_def_cfa_offset 16
	popq	%r15
	.cfi_def_cfa_offset 8
	ret
	.p2align 4,,10
	.p2align 3
.L853:
	.cfi_restore_state
	leaq	192(%rsp), %r15
	movq	%rsi, %r13
	movq	%rdx, %rbp
	movl	$8, 192(%rsp)
	movq	%r15, %rsi
.LEHB11:
	call	_ZNK7openpal6Logger9IsEnabledERKNS_10LogFiltersE@PLT
.LEHE11:
	testb	%al, %al
	jne	.L1308
.L927:
	movq	16(%rbx), %rax
	movq	8(%r13), %rbx
	movq	0(%r13), %r12
	movq	%rax, (%rsp)
	movq	24(%rbp), %rax
	testq	%rbx, %rbx
	movq	%rax, 152(%rsp)
	movl	0(%rbp), %eax
	movl	$-1, 0(%rbp)
	movl	%eax, 128(%rsp)
	movzbl	4(%rbp), %eax
	movb	$0, 4(%rbp)
	movb	%al, 132(%rsp)
	movq	8(%rbp), %rax
	movq	$0, 8(%rbp)
	movq	%rax, 136(%rsp)
	movl	16(%rbp), %eax
	movl	$2, 16(%rbp)
	movl	%eax, 144(%rsp)
	je	.L928
	cmpq	$0, _ZL28__gthrw___pthread_key_createPjPFvPvE@GOTPCREL(%rip)
	jne	.L1309
	addl	$1, 8(%rbx)
.L928:
	movl	$112, %edi
.LEHB12:
	call	_Znwm@PLT
.LEHE12:
	movq	%rax, %rbp
	movabsq	$4294967297, %rax
	movq	%r12, 80(%rsp)
	movq	%rax, 8(%rbp)
	leaq	16(%rbp), %rdi
	movq	_ZTVSt23_Sp_counted_ptr_inplaceIN7asiopal13SocketChannelESaIS1_ELN9__gnu_cxx12_Lock_policyE2EE@GOTPCREL(%rip), %rax
	movq	%rbx, 88(%rsp)
	addq	$16, %rax
	testq	%rbx, %rbx
	movq	%rax, 0(%rbp)
	je	.L930
	cmpq	$0, _ZL28__gthrw___pthread_key_createPjPFvPvE@GOTPCREL(%rip)
	jne	.L1310
	addl	$1, 8(%rbx)
.L930:
	movq	152(%rsp), %rax
	leaq	80(%rsp), %rsi
	movq	%r15, %rdx
	movq	%rax, 216(%rsp)
	movl	128(%rsp), %eax
	movl	$-1, 128(%rsp)
	movl	%eax, 192(%rsp)
	movzbl	132(%rsp), %eax
	movb	$0, 132(%rsp)
	movb	%al, 196(%rsp)
	movq	136(%rsp), %rax
	movq	$0, 136(%rsp)
	movq	%rax, 200(%rsp)
	movl	144(%rsp), %eax
	movl	$2, 144(%rsp)
	movl	%eax, 208(%rsp)
.LEHB13:
	call	_ZN7asiopal13SocketChannelC1ESt10shared_ptrINS_8ExecutorEEN4asio19basic_stream_socketINS4_2ip3tcpENS4_21stream_socket_serviceIS7_EEEE@PLT
.LEHE13:
	movl	192(%rsp), %r12d
	cmpl	$-1, %r12d
	je	.L932
	movq	200(%rsp), %rax
	testq	%rax, %rax
	je	.L1077
	movq	216(%rsp), %rdx
	addq	$40, %rax
	movzbl	196(%rsp), %r13d
	movq	%rax, %rdi
	movq	%rax, 32(%rsp)
	movq	40(%rdx), %rcx
	movq	%rcx, 24(%rsp)
	call	pthread_mutex_lock@PLT
	movq	200(%rsp), %rdx
	cmpb	$0, 144(%rdx)
	jne	.L934
	andl	$64, %r13d
	jne	.L1311
.L935:
	movl	$96, %r10d
	xorl	%r13d, %r13d
	movq	%rbx, 40(%rsp)
	movq	%rbp, 48(%rsp)
	movq	$0, 16(%rsp)
	movq	%r13, %rbx
	movl	$0, 8(%rsp)
	movq	%r10, %rbp
	movq	%r15, 56(%rsp)
.L945:
	movq	(%rdx,%rbp), %r15
	testq	%r15, %r15
	je	.L1083
	movslq	8(%rsp), %r11
	movq	_ZGVZN4asio15system_categoryEvE8instance@GOTPCREL(%rip), %r13
	movq	_ZZN4asio15system_categoryEvE8instance@GOTPCREL(%rip), %r12
	salq	$4, %r11
	movq	%r11, %r14
	jmp	.L937
	.p2align 4,,10
	.p2align 3
.L939:
	leaq	(%rdx,%r14), %rcx
	movl	$125, 24(%r15)
	movq	%r12, 32(%r15)
	movq	96(%rcx), %rax
	testq	%rax, %rax
	je	.L941
	movq	(%rax), %rsi
	testq	%rsi, %rsi
	movq	%rsi, 96(%rcx)
	je	.L1312
.L942:
	movq	$0, (%rax)
.L941:
	testq	%rbx, %rbx
	movq	$0, (%r15)
	je	.L943
	movq	(%rdx,%rbp), %rax
	movq	%r15, (%rbx)
	testq	%rax, %rax
	je	.L936
.L944:
	movq	%r15, %rbx
	movq	%rax, %r15
.L937:
	movzbl	0(%r13), %eax
	testb	%al, %al
	jne	.L939
	movq	%r13, %rdi
	call	__cxa_guard_acquire@PLT
	testl	%eax, %eax
	je	.L1283
	movq	%r13, %rdi
	call	__cxa_guard_release@PLT
	movq	_ZN4asio6detail15system_categoryD1Ev@GOTPCREL(%rip), %rdi
	leaq	__dso_handle(%rip), %rdx
	movq	%r12, %rsi
	call	__cxa_atexit@PLT
.L1283:
	movq	200(%rsp), %rdx
	jmp	.L939
	.p2align 4,,10
	.p2align 3
.L1328:
	movq	32(%rsp), %rdi
	movl	$-1, 88(%rdx)
	movq	%r15, %r14
	movb	$1, 144(%rdx)
	movq	40(%rsp), %rbx
	movq	48(%rsp), %rbp
	movq	56(%rsp), %r15
	call	pthread_mutex_unlock@PLT
	movq	24(%rsp), %rax
	movq	200(%rsp), %r12
	leaq	120(%rax), %r13
	movq	%r13, %rdi
	call	pthread_mutex_lock@PLT
	movq	24(%rsp), %rax
	cmpq	160(%rax), %r12
	jne	.L946
	movq	%rax, %rcx
	movq	24(%r12), %rax
	movq	%rax, 160(%rcx)
.L946:
	movq	32(%r12), %rdx
	movq	24(%r12), %rax
	testq	%rdx, %rdx
	je	.L947
	movq	%rax, 24(%rdx)
	movq	24(%r12), %rax
.L947:
	testq	%rax, %rax
	je	.L948
	movq	32(%r12), %rdx
	movq	%rdx, 32(%rax)
.L948:
	movq	24(%rsp), %rcx
	movq	%r13, %rdi
	movq	168(%rcx), %rax
	movq	$0, 32(%r12)
	movq	%rax, 24(%r12)
	movq	%r12, 168(%rcx)
	call	pthread_mutex_unlock@PLT
	cmpq	$0, 16(%rsp)
	movq	$0, 200(%rsp)
	je	.L1285
	movq	24(%rsp), %rcx
	movq	40(%rcx), %r12
	cmpb	$0, 40(%r12)
	jne	.L1313
.L950:
	leaq	48(%r12), %r13
	movq	%r13, %rdi
	call	pthread_mutex_lock@PLT
	movq	200(%r12), %rax
	testq	%rax, %rax
	je	.L958
	movq	16(%rsp), %rcx
	movq	%rcx, (%rax)
.L959:
	movq	136(%r12), %rax
	movq	%r14, 200(%r12)
	orq	$1, %rax
	cmpq	$1, %rax
	movq	%rax, 136(%r12)
	jne	.L1314
	cmpb	$0, 176(%r12)
	jne	.L962
	movq	144(%r12), %rax
	testq	%rax, %rax
	je	.L962
	leaq	88(%rax), %rdx
	movb	$1, 176(%r12)
	movl	$-2147483639, 68(%rsp)
	leaq	68(%rsp), %rcx
	movl	$3, %esi
	movq	%rdx, 72(%rsp)
	movl	88(%rax), %edx
	movl	96(%rax), %edi
	call	epoll_ctl@PLT
.L962:
	movq	%r13, %rdi
	call	pthread_mutex_unlock@PLT
	.p2align 4,,10
	.p2align 3
.L1285:
	movl	192(%rsp), %r12d
	cmpl	$-1, %r12d
	je	.L932
.L1077:
	movzbl	196(%rsp), %r13d
	call	__errno_location@PLT
	movq	%rax, %r14
	testb	$8, %r13b
	jne	.L1273
	movq	_ZGVZN4asio15system_categoryEvE8instance@GOTPCREL(%rip), %r13
.L964:
	movl	$0, (%r14)
	movl	%r12d, %edi
	call	close@PLT
	movl	%eax, %ecx
	movzbl	0(%r13), %eax
	testb	%al, %al
	je	.L1315
.L969:
	testl	%ecx, %ecx
	je	.L932
	movl	(%r14), %ecx
	movzbl	0(%r13), %eax
	testb	%al, %al
	jne	.L972
	movq	%r13, %rdi
	movl	%ecx, 8(%rsp)
	call	__cxa_guard_acquire@PLT
	testl	%eax, %eax
	movl	8(%rsp), %ecx
	je	.L972
	movq	%r13, %rdi
	call	__cxa_guard_release@PLT
	movq	_ZZN4asio15system_categoryEvE8instance@GOTPCREL(%rip), %rsi
	movq	_ZN4asio6detail15system_categoryD1Ev@GOTPCREL(%rip), %rdi
	leaq	__dso_handle(%rip), %rdx
	call	__cxa_atexit@PLT
	movl	8(%rsp), %ecx
	.p2align 4,,10
	.p2align 3
.L972:
	cmpl	$11, %ecx
	jne	.L1295
	leaq	68(%rsp), %rdx
	movl	%r12d, %edi
	movl	$21537, %esi
	xorl	%eax, %eax
	movl	$0, 68(%rsp)
	call	ioctl@PLT
	movl	$0, (%r14)
	movl	%r12d, %edi
	andb	$-4, 196(%rsp)
	call	close@PLT
.L1295:
	movzbl	0(%r13), %eax
	testb	%al, %al
	jne	.L932
	movq	%r13, %rdi
	call	__cxa_guard_acquire@PLT
	testl	%eax, %eax
	je	.L932
	movq	%r13, %rdi
	call	__cxa_guard_release@PLT
	movq	_ZZN4asio15system_categoryEvE8instance@GOTPCREL(%rip), %rsi
	movq	_ZN4asio6detail15system_categoryD1Ev@GOTPCREL(%rip), %rdi
	leaq	__dso_handle(%rip), %rdx
	call	__cxa_atexit@PLT
	.p2align 4,,10
	.p2align 3
.L932:
	movq	88(%rsp), %r12
	testq	%r12, %r12
	je	.L984
	cmpq	$0, _ZL28__gthrw___pthread_key_createPjPFvPvE@GOTPCREL(%rip)
	je	.L981
	lock subl	$1, 8(%r12)
	je	.L1316
.L984:
	movq	0(%rbp), %rax
	movq	_ZTISt19_Sp_make_shared_tag@GOTPCREL(%rip), %rsi
	movq	%rbp, %rdi
	call	*32(%rax)
	testq	%rax, %rax
	je	.L989
	movq	16(%rax), %rdi
	testq	%rdi, %rdi
	je	.L988
	movl	8(%rdi), %edx
	testl	%edx, %edx
	jne	.L989
.L988:
	cmpq	$0, _ZL28__gthrw___pthread_key_createPjPFvPvE@GOTPCREL(%rip)
	movq	%rax, 8(%rax)
	je	.L1317
	lock addl	$1, 12(%rbp)
	movq	16(%rax), %rdi
	testq	%rdi, %rdi
	je	.L991
	movl	$-1, %edx
	lock xaddl	%edx, 12(%rdi)
.L1072:
	cmpl	$1, %edx
	je	.L1318
.L991:
	movq	%rbp, 16(%rax)
.L989:
	movq	%rax, 8(%rsp)
	movq	(%rsp), %rdi
	movq	%r15, %rsi
	movq	8(%rsp), %xmm0
	movq	%rbp, 8(%rsp)
	movhps	8(%rsp), %xmm0
	movaps	%xmm0, 192(%rsp)
.LEHB14:
	call	_ZN8asiodnp39IOHandler12OnNewChannelERKSt10shared_ptrIN7asiopal13IAsyncChannelEE@PLT
.LEHE14:
	movq	200(%rsp), %rbp
	testq	%rbp, %rbp
	je	.L995
	cmpq	$0, _ZL28__gthrw___pthread_key_createPjPFvPvE@GOTPCREL(%rip)
	je	.L996
	lock subl	$1, 8(%rbp)
	je	.L1319
.L995:
	testq	%rbx, %rbx
	je	.L1001
	cmpq	$0, _ZL28__gthrw___pthread_key_createPjPFvPvE@GOTPCREL(%rip)
	je	.L1002
	lock subl	$1, 8(%rbx)
	je	.L1320
.L1001:
	movl	128(%rsp), %ebx
	cmpl	$-1, %ebx
	je	.L852
	movq	136(%rsp), %rbp
	testq	%rbp, %rbp
	je	.L1078
	movq	152(%rsp), %rax
	movzbl	132(%rsp), %r12d
	movq	40(%rax), %rax
	movq	%rax, 16(%rsp)
	leaq	40(%rbp), %rax
	movq	%rax, %rdi
	movq	%rax, 24(%rsp)
	call	pthread_mutex_lock@PLT
	movq	136(%rsp), %rdx
	cmpb	$0, 144(%rdx)
	jne	.L1008
	andl	$64, %r12d
	jne	.L1321
.L1009:
	movl	$96, %r14d
	xorl	%ebp, %ebp
	movq	%r15, 32(%rsp)
	movq	$0, 8(%rsp)
	movq	%r14, %r15
	movl	$0, (%rsp)
	movq	%rbp, %r14
.L1019:
	movq	(%rdx,%r15), %r13
	testq	%r13, %r13
	je	.L1086
	movslq	(%rsp), %r10
	movq	_ZGVZN4asio15system_categoryEvE8instance@GOTPCREL(%rip), %r12
	movq	_ZZN4asio15system_categoryEvE8instance@GOTPCREL(%rip), %rbx
	salq	$4, %r10
	movq	%r10, %rbp
	jmp	.L1011
	.p2align 4,,10
	.p2align 3
.L1013:
	leaq	(%rdx,%rbp), %rcx
	movl	$125, 24(%r13)
	movq	%rbx, 32(%r13)
	movq	96(%rcx), %rax
	testq	%rax, %rax
	je	.L1015
	movq	(%rax), %rsi
	testq	%rsi, %rsi
	movq	%rsi, 96(%rcx)
	je	.L1322
.L1016:
	movq	$0, (%rax)
.L1015:
	testq	%r14, %r14
	movq	$0, 0(%r13)
	je	.L1017
	movq	(%rdx,%r15), %rax
	movq	%r13, (%r14)
	testq	%rax, %rax
	je	.L1010
.L1018:
	movq	%r13, %r14
	movq	%rax, %r13
.L1011:
	movzbl	(%r12), %eax
	testb	%al, %al
	jne	.L1013
	movq	%r12, %rdi
	call	__cxa_guard_acquire@PLT
	testl	%eax, %eax
	je	.L1287
	movq	%r12, %rdi
	call	__cxa_guard_release@PLT
	movq	_ZN4asio6detail15system_categoryD1Ev@GOTPCREL(%rip), %rdi
	leaq	__dso_handle(%rip), %rdx
	movq	%rbx, %rsi
	call	__cxa_atexit@PLT
.L1287:
	movq	136(%rsp), %rdx
	jmp	.L1013
	.p2align 4,,10
	.p2align 3
.L1298:
	movq	8(%r12), %rsi
	leaq	256(%rsp), %rbp
	movl	(%r12), %edx
	leaq	288(%rsp), %r12
	movq	%rbp, %rdi
	addq	$16, %rbp
	movq	(%rsi), %rax
.LEHB15:
	call	*32(%rax)
	movq	256(%rsp), %r9
	leaq	.LC25(%rip), %r8
	movq	%r12, %rdi
	xorl	%eax, %eax
	movl	$120, %ecx
	movl	$1, %edx
	movl	$120, %esi
	call	__snprintf_chk@PLT
	movq	256(%rsp), %rdi
	cmpq	%rbp, %rdi
	je	.L855
	call	_ZdlPv@PLT
.L855:
	movq	16(%rbx), %rax
	leaq	.LC26(%rip), %rdx
	movq	%r12, %rcx
	movq	%r15, %rsi
	movl	$4, 192(%rsp)
	leaq	32(%rax), %rdi
	call	_ZN7openpal6Logger3LogERKNS_10LogFiltersEPKcS5_@PLT
	jmp	.L854
	.p2align 4,,10
	.p2align 3
.L1310:
	lock addl	$1, 8(%rbx)
	jmp	.L930
	.p2align 4,,10
	.p2align 3
.L1299:
	lock addl	$1, 8(%rdx)
	movq	40(%rbx), %rdx
	movq	32(%rbx), %r8
	movq	%rax, 96(%rsp)
	testq	%rdx, %rdx
	movq	%r8, 104(%rsp)
	movq	%rdx, 112(%rsp)
	leaq	8(%rdx), %rax
	je	.L1323
.L1060:
	lock addl	$1, (%rax)
	movq	16(%rbx), %rcx
	movq	88(%rsp), %rdx
	movq	80(%rsp), %rsi
	leaq	928(%rcx), %rbx
	testq	%rdx, %rdx
	movq	%rcx, 120(%rsp)
	movq	%rsi, 136(%rsp)
	movq	%rdx, 144(%rsp)
	leaq	8(%rdx), %rax
	movq	%rbx, 128(%rsp)
	je	.L1324
.L1061:
	lock addl	$1, (%rax)
	movq	96(%rsp), %rax
	movq	112(%rsp), %rdx
	movq	%rax, 152(%rsp)
	movq	104(%rsp), %rax
	testq	%rdx, %rdx
	movq	%rdx, 168(%rsp)
	movq	%rax, 160(%rsp)
	leaq	8(%rdx), %rax
	je	.L1281
.L1062:
	lock addl	$1, (%rax)
.L1281:
	movq	128(%rsp), %rax
	movq	120(%rsp), %rcx
	movq	136(%rsp), %rsi
	movq	144(%rsp), %rdx
	jmp	.L868
	.p2align 4,,10
	.p2align 3
.L1309:
	lock addl	$1, 8(%rbx)
	jmp	.L928
	.p2align 4,,10
	.p2align 3
.L1308:
	movq	16(%rbx), %rax
	leaq	288(%rsp), %r12
	leaq	.LC27(%rip), %r8
	movl	$120, %ecx
	movl	$1, %edx
	movl	$120, %esi
	movq	%r12, %rdi
	movq	840(%rax), %r9
	xorl	%eax, %eax
	call	__snprintf_chk@PLT
	movq	16(%rbx), %rax
	leaq	.LC28(%rip), %rdx
	movq	%r12, %rcx
	movq	%r15, %rsi
	movl	$8, 192(%rsp)
	leaq	32(%rax), %rdi
	call	_ZN7openpal6Logger3LogERKNS_10LogFiltersEPKcS5_@PLT
.LEHE15:
	jmp	.L927
	.p2align 4,,10
	.p2align 3
.L856:
	movq	%rax, 96(%rsp)
	movq	40(%rbx), %rax
	movq	32(%rbx), %r8
	testq	%rax, %rax
	movq	%rax, 112(%rsp)
	movq	%r8, 104(%rsp)
	je	.L862
	movq	_ZL28__gthrw___pthread_key_createPjPFvPvE@GOTPCREL(%rip), %rdi
	testq	%rdi, %rdi
	jne	.L1325
	movq	16(%rbx), %rcx
	movq	96(%rsp), %rdx
	addl	$1, 8(%rax)
	movq	%rsi, 136(%rsp)
	movq	$0, 144(%rsp)
	movq	%r8, 160(%rsp)
	leaq	928(%rcx), %rbx
	movq	%rcx, 120(%rsp)
	movq	%rdx, 152(%rsp)
	movq	%rax, 168(%rsp)
	movq	%rbx, 128(%rsp)
.L1082:
	xorl	%edx, %edx
	jmp	.L869
	.p2align 4,,10
	.p2align 3
.L981:
	movl	8(%r12), %eax
	leal	-1(%rax), %edx
	cmpl	$1, %eax
	movl	%edx, 8(%r12)
	jne	.L984
	movq	(%r12), %rax
	movq	%r12, %rdi
	call	*16(%rax)
	movl	12(%r12), %eax
	leal	-1(%rax), %edx
	movl	%edx, 12(%r12)
	jmp	.L1071
	.p2align 4,,10
	.p2align 3
.L1002:
	movl	8(%rbx), %eax
	leal	-1(%rax), %edx
	cmpl	$1, %eax
	movl	%edx, 8(%rbx)
	jne	.L1001
	movq	(%rbx), %rax
	movq	%rbx, %rdi
	call	*16(%rax)
	movl	12(%rbx), %eax
	leal	-1(%rax), %edx
	movl	%edx, 12(%rbx)
	jmp	.L1074
	.p2align 4,,10
	.p2align 3
.L996:
	movl	8(%rbp), %eax
	leal	-1(%rax), %edx
	cmpl	$1, %eax
	movl	%edx, 8(%rbp)
	jne	.L995
	movq	0(%rbp), %rax
	movq	%rbp, %rdi
	call	*16(%rax)
	movl	12(%rbp), %eax
	leal	-1(%rax), %edx
	movl	%edx, 12(%rbp)
	jmp	.L1073
	.p2align 4,,10
	.p2align 3
.L1008:
	movq	24(%rsp), %rdi
	call	pthread_mutex_unlock@PLT
.L1288:
	movl	128(%rsp), %ebx
	cmpl	$-1, %ebx
	je	.L852
.L1078:
	movzbl	132(%rsp), %ebp
	call	__errno_location@PLT
	movq	%rax, %r12
	testb	$8, %bpl
	jne	.L1276
	movq	_ZGVZN4asio15system_categoryEvE8instance@GOTPCREL(%rip), %r13
.L1038:
	movl	$0, (%r12)
	movl	%ebx, %edi
	call	close@PLT
	movl	%eax, %ebp
	movzbl	0(%r13), %eax
	testb	%al, %al
	je	.L1326
.L1043:
	testl	%ebp, %ebp
	je	.L852
	movl	(%r12), %ebp
	movzbl	0(%r13), %eax
	testb	%al, %al
	je	.L1327
.L1046:
	cmpl	$11, %ebp
	je	.L1048
.L1297:
	movzbl	0(%r13), %eax
	testb	%al, %al
	jne	.L852
	movq	%r13, %rdi
	call	__cxa_guard_acquire@PLT
	testl	%eax, %eax
	je	.L852
	movq	%r13, %rdi
	call	__cxa_guard_release@PLT
	movq	_ZZN4asio15system_categoryEvE8instance@GOTPCREL(%rip), %rsi
	movq	_ZN4asio6detail15system_categoryD1Ev@GOTPCREL(%rip), %rdi
	leaq	__dso_handle(%rip), %rdx
	call	__cxa_atexit@PLT
	jmp	.L852
	.p2align 4,,10
	.p2align 3
.L943:
	movq	(%rdx,%rbp), %rax
	movq	%r15, 16(%rsp)
	testq	%rax, %rax
	jne	.L944
.L936:
	addl	$1, 8(%rsp)
	addq	$16, %rbp
	movl	8(%rsp), %eax
	cmpl	$3, %eax
	je	.L1328
	movq	%r15, %rbx
	jmp	.L945
	.p2align 4,,10
	.p2align 3
.L1017:
	movq	(%rdx,%r15), %rax
	movq	%r13, 8(%rsp)
	testq	%rax, %rax
	jne	.L1018
.L1010:
	addl	$1, (%rsp)
	addq	$16, %r15
	movl	(%rsp), %eax
	cmpl	$3, %eax
	je	.L1329
	movq	%r13, %r14
	jmp	.L1019
	.p2align 4,,10
	.p2align 3
.L1312:
	movq	$0, 104(%rcx)
	jmp	.L942
	.p2align 4,,10
	.p2align 3
.L1322:
	movq	$0, 104(%rcx)
	jmp	.L1016
	.p2align 4,,10
	.p2align 3
.L1300:
	movq	%rcx, 176(%rsp)
	movq	%rbx, 192(%rsp)
	movq	%rsi, 200(%rsp)
	movq	%rdx, 208(%rsp)
.L873:
	movq	152(%rsp), %rax
	addl	$1, 8(%rdx)
	movq	%rax, 216(%rsp)
	movq	160(%rsp), %rax
	movq	%rax, 224(%rsp)
	movq	168(%rsp), %rax
	testq	%rax, %rax
	movq	%rax, 232(%rsp)
	je	.L875
.L876:
	addl	$1, 8(%rax)
	jmp	.L875
	.p2align 4,,10
	.p2align 3
.L878:
	addl	$1, 8(%rdx)
	movq	216(%rsp), %rdx
	movq	%rdx, 24(%rax)
	movq	224(%rsp), %rdx
	movq	%rdx, 32(%rax)
	movq	232(%rsp), %rdx
	testq	%rdx, %rdx
	movq	%rdx, 40(%rax)
	je	.L880
.L881:
	addl	$1, 8(%rdx)
	jmp	.L880
	.p2align 4,,10
	.p2align 3
.L877:
	movq	216(%rsp), %rdx
	movq	%rdx, 24(%rax)
	movq	224(%rsp), %rdx
	movq	%rdx, 32(%rax)
	movq	232(%rsp), %rdx
	testq	%rdx, %rdx
	movq	%rdx, 40(%rax)
	je	.L880
	cmpq	$0, _ZL28__gthrw___pthread_key_createPjPFvPvE@GOTPCREL(%rip)
	je	.L881
	addq	$8, %rdx
	jmp	.L1064
	.p2align 4,,10
	.p2align 3
.L862:
	movq	16(%rbx), %rcx
	movq	%rsi, 136(%rsp)
	movq	$0, 144(%rsp)
	leaq	928(%rcx), %rbx
	movq	%rcx, 120(%rsp)
	movq	%rbx, 128(%rsp)
.L866:
	movq	96(%rsp), %rax
	movq	%r8, 160(%rsp)
	movq	$0, 168(%rsp)
	movq	%rax, 152(%rsp)
.L871:
	movq	%rcx, 176(%rsp)
	movq	%rbx, 192(%rsp)
	movq	%rsi, 200(%rsp)
	movq	$0, 208(%rsp)
.L872:
	movq	152(%rsp), %rax
	movq	%rax, 216(%rsp)
	movq	160(%rsp), %rax
	movq	%rax, 224(%rsp)
	movq	168(%rsp), %rax
	testq	%rax, %rax
	movq	%rax, 232(%rsp)
	je	.L875
	cmpq	$0, _ZL28__gthrw___pthread_key_createPjPFvPvE@GOTPCREL(%rip)
	je	.L876
	addq	$8, %rax
	jmp	.L1063
	.p2align 4,,10
	.p2align 3
.L922:
	movl	8(%rbx), %eax
	leal	-1(%rax), %edx
	cmpl	$1, %eax
	movl	%edx, 8(%rbx)
	jne	.L852
	movq	(%rbx), %rax
	movq	%rbx, %rdi
	call	*16(%rax)
	movl	12(%rbx), %eax
	leal	-1(%rax), %edx
	movl	%edx, 12(%rbx)
	jmp	.L1070
	.p2align 4,,10
	.p2align 3
.L896:
	movl	8(%rbx), %eax
	leal	-1(%rax), %edx
	cmpl	$1, %eax
	movl	%edx, 8(%rbx)
	jne	.L895
	movq	(%rbx), %rax
	movq	%rbx, %rdi
	call	*16(%rax)
	movl	12(%rbx), %eax
	leal	-1(%rax), %edx
	movl	%edx, 12(%rbx)
.L1066:
	cmpl	$1, %eax
	jne	.L895
	movq	(%rbx), %rax
	movq	%rbx, %rdi
	call	*24(%rax)
	jmp	.L895
	.p2align 4,,10
	.p2align 3
.L908:
	movl	8(%rbx), %eax
	leal	-1(%rax), %edx
	cmpl	$1, %eax
	movl	%edx, 8(%rbx)
	jne	.L907
	movq	(%rbx), %rax
	movq	%rbx, %rdi
	call	*16(%rax)
	movl	12(%rbx), %eax
	leal	-1(%rax), %edx
	movl	%edx, 12(%rbx)
.L1068:
	cmpl	$1, %eax
	jne	.L907
	movq	(%rbx), %rax
	movq	%rbx, %rdi
	call	*24(%rax)
	jmp	.L907
	.p2align 4,,10
	.p2align 3
.L902:
	movl	8(%rbx), %eax
	leal	-1(%rax), %edx
	cmpl	$1, %eax
	movl	%edx, 8(%rbx)
	jne	.L901
	movq	(%rbx), %rax
	movq	%rbx, %rdi
	call	*16(%rax)
	movl	12(%rbx), %eax
	leal	-1(%rax), %edx
	movl	%edx, 12(%rbx)
.L1067:
	cmpl	$1, %eax
	jne	.L901
	movq	(%rbx), %rax
	movq	%rbx, %rdi
	call	*24(%rax)
	jmp	.L901
	.p2align 4,,10
	.p2align 3
.L916:
	movl	8(%rbx), %eax
	leal	-1(%rax), %edx
	cmpl	$1, %eax
	movl	%edx, 8(%rbx)
	jne	.L913
	movq	(%rbx), %rax
	movq	%rbx, %rdi
	call	*16(%rax)
	movl	12(%rbx), %eax
	leal	-1(%rax), %edx
	movl	%edx, 12(%rbx)
.L1069:
	cmpl	$1, %eax
	jne	.L913
	movq	(%rbx), %rax
	movq	%rbx, %rdi
	call	*24(%rax)
	jmp	.L913
	.p2align 4,,10
	.p2align 3
.L890:
	movl	8(%rbx), %eax
	leal	-1(%rax), %edx
	cmpl	$1, %eax
	movl	%edx, 8(%rbx)
	jne	.L889
	movq	(%rbx), %rax
	movq	%rbx, %rdi
	call	*16(%rax)
	movl	12(%rbx), %eax
	leal	-1(%rax), %edx
	movl	%edx, 12(%rbx)
.L1065:
	cmpl	$1, %eax
	jne	.L889
	movq	(%rbx), %rax
	movq	%rbx, %rdi
	call	*24(%rax)
	jmp	.L889
	.p2align 4,,10
	.p2align 3
.L934:
	movq	32(%rsp), %rdi
	call	pthread_mutex_unlock@PLT
	jmp	.L1285
	.p2align 4,,10
	.p2align 3
.L1329:
	movq	24(%rsp), %rdi
	movl	$-1, 88(%rdx)
	movb	$1, 144(%rdx)
	movq	32(%rsp), %r15
	call	pthread_mutex_unlock@PLT
	movq	16(%rsp), %r14
	movq	136(%rsp), %rbx
	leaq	120(%r14), %rbp
	movq	%rbp, %rdi
	call	pthread_mutex_lock@PLT
	cmpq	160(%r14), %rbx
	je	.L1330
.L1020:
	movq	32(%rbx), %rdx
	movq	24(%rbx), %rax
	testq	%rdx, %rdx
	je	.L1021
	movq	%rax, 24(%rdx)
	movq	24(%rbx), %rax
.L1021:
	testq	%rax, %rax
	je	.L1022
	movq	32(%rbx), %rdx
	movq	%rdx, 32(%rax)
.L1022:
	movq	16(%rsp), %r14
	movq	%rbp, %rdi
	movq	168(%r14), %rax
	movq	$0, 32(%rbx)
	movq	%rax, 24(%rbx)
	movq	%rbx, 168(%r14)
	call	pthread_mutex_unlock@PLT
	cmpq	$0, 8(%rsp)
	movq	$0, 136(%rsp)
	je	.L1288
	movq	40(%r14), %rbx
	cmpb	$0, 40(%rbx)
	je	.L1024
	.byte	0x66
	leaq	_ZN4asio6detail15keyword_tss_ptrINS0_10call_stackINS0_15task_io_serviceENS0_27task_io_service_thread_infoEE7contextEE6value_E@tlsgd(%rip), %rdi
	.value	0x6666
	rex64
	call	__tls_get_addr@PLT
	movq	(%rax), %rax
	testq	%rax, %rax
	je	.L1024
	cmpq	%rbx, (%rax)
	jne	.L1026
	jmp	.L1025
	.p2align 4,,10
	.p2align 3
.L1275:
	cmpq	(%rax), %rbx
	je	.L1025
.L1026:
	movq	16(%rax), %rax
	testq	%rax, %rax
	jne	.L1275
.L1024:
	leaq	48(%rbx), %rbp
	movq	%rbp, %rdi
	call	pthread_mutex_lock@PLT
	movq	200(%rbx), %rax
	testq	%rax, %rax
	je	.L1032
	movq	8(%rsp), %rcx
	movq	%rcx, (%rax)
.L1033:
	movq	136(%rbx), %rax
	movq	%r13, 200(%rbx)
	orq	$1, %rax
	cmpq	$1, %rax
	movq	%rax, 136(%rbx)
	jne	.L1331
	cmpb	$0, 176(%rbx)
	jne	.L1036
	movq	144(%rbx), %rax
	testq	%rax, %rax
	je	.L1036
	leaq	88(%rax), %rdx
	movb	$1, 176(%rbx)
	movl	$-2147483639, 192(%rsp)
	movq	%r15, %rcx
	movl	$3, %esi
	movq	%rdx, 196(%rsp)
	movl	88(%rax), %edx
	movl	96(%rax), %edi
	call	epoll_ctl@PLT
.L1036:
	movq	%rbp, %rdi
	call	pthread_mutex_unlock@PLT
	jmp	.L1288
	.p2align 4,,10
	.p2align 3
.L1315:
	movq	%r13, %rdi
	movl	%ecx, 8(%rsp)
	call	__cxa_guard_acquire@PLT
	testl	%eax, %eax
	movl	8(%rsp), %ecx
	je	.L969
	movq	%r13, %rdi
	call	__cxa_guard_release@PLT
	movq	_ZZN4asio15system_categoryEvE8instance@GOTPCREL(%rip), %rsi
	movq	_ZN4asio6detail15system_categoryD1Ev@GOTPCREL(%rip), %rdi
	leaq	__dso_handle(%rip), %rdx
	call	__cxa_atexit@PLT
	movl	8(%rsp), %ecx
	jmp	.L969
	.p2align 4,,10
	.p2align 3
.L1326:
	movq	%r13, %rdi
	call	__cxa_guard_acquire@PLT
	testl	%eax, %eax
	je	.L1043
	movq	%r13, %rdi
	call	__cxa_guard_release@PLT
	movq	_ZZN4asio15system_categoryEvE8instance@GOTPCREL(%rip), %rsi
	movq	_ZN4asio6detail15system_categoryD1Ev@GOTPCREL(%rip), %rdi
	leaq	__dso_handle(%rip), %rdx
	call	__cxa_atexit@PLT
	jmp	.L1043
	.p2align 4,,10
	.p2align 3
.L1317:
	addl	$1, 12(%rbp)
	testq	%rdi, %rdi
	je	.L991
	movl	12(%rdi), %edx
	leal	-1(%rdx), %ecx
	movl	%ecx, 12(%rdi)
	jmp	.L1072
	.p2align 4,,10
	.p2align 3
.L1276:
	orl	$8, %ebp
	movl	$0, (%rax)
	movl	$8, %r8d
	movq	%r15, %rcx
	movl	$13, %edx
	movl	$1, %esi
	movl	%ebx, %edi
	movq	$0, 192(%rsp)
	movb	%bpl, 132(%rsp)
	call	setsockopt@PLT
	movq	_ZGVZN4asio15system_categoryEvE8instance@GOTPCREL(%rip), %r13
	movzbl	0(%r13), %eax
	testb	%al, %al
	jne	.L1038
	movq	%r13, %rdi
	call	__cxa_guard_acquire@PLT
	testl	%eax, %eax
	je	.L1038
	movq	%r13, %rdi
	call	__cxa_guard_release@PLT
	movq	_ZZN4asio15system_categoryEvE8instance@GOTPCREL(%rip), %rsi
	movq	_ZN4asio6detail15system_categoryD1Ev@GOTPCREL(%rip), %rdi
	leaq	__dso_handle(%rip), %rdx
	call	__cxa_atexit@PLT
	jmp	.L1038
	.p2align 4,,10
	.p2align 3
.L1273:
	leaq	68(%rsp), %rcx
	orl	$8, %r13d
	movl	$0, (%rax)
	movl	$8, %r8d
	movl	$13, %edx
	movl	$1, %esi
	movl	%r12d, %edi
	movb	%r13b, 196(%rsp)
	movq	$0, 68(%rsp)
	call	setsockopt@PLT
	movq	_ZGVZN4asio15system_categoryEvE8instance@GOTPCREL(%rip), %r13
	movzbl	0(%r13), %eax
	testb	%al, %al
	jne	.L964
	movq	%r13, %rdi
	call	__cxa_guard_acquire@PLT
	testl	%eax, %eax
	je	.L964
	movq	%r13, %rdi
	call	__cxa_guard_release@PLT
	movq	_ZZN4asio15system_categoryEvE8instance@GOTPCREL(%rip), %rsi
	movq	_ZN4asio6detail15system_categoryD1Ev@GOTPCREL(%rip), %rdi
	leaq	__dso_handle(%rip), %rdx
	call	__cxa_atexit@PLT
	jmp	.L964
	.p2align 4,,10
	.p2align 3
.L1325:
	addq	$8, %rax
	jmp	.L1060
	.p2align 4,,10
	.p2align 3
.L1316:
	movq	(%r12), %rax
	movq	%r12, %rdi
	call	*16(%rax)
	movl	$-1, %eax
	lock xaddl	%eax, 12(%r12)
.L1071:
	cmpl	$1, %eax
	jne	.L984
	movq	(%r12), %rax
	movq	%r12, %rdi
	call	*24(%rax)
	jmp	.L984
	.p2align 4,,10
	.p2align 3
.L1306:
	movq	(%rbx), %rax
	movq	%rbx, %rdi
	call	*16(%rax)
	movl	$-1, %eax
	lock xaddl	%eax, 12(%rbx)
.L1070:
	cmpl	$1, %eax
	jne	.L852
	movq	(%rbx), %rax
	movq	%rbx, %rdi
	call	*24(%rax)
	jmp	.L852
	.p2align 4,,10
	.p2align 3
.L1319:
	movq	0(%rbp), %rax
	movq	%rbp, %rdi
	call	*16(%rax)
	movl	$-1, %eax
	lock xaddl	%eax, 12(%rbp)
.L1073:
	cmpl	$1, %eax
	jne	.L995
	movq	0(%rbp), %rax
	movq	%rbp, %rdi
	call	*24(%rax)
	jmp	.L995
	.p2align 4,,10
	.p2align 3
.L1320:
	movq	(%rbx), %rax
	movq	%rbx, %rdi
	call	*16(%rax)
	movl	$-1, %eax
	lock xaddl	%eax, 12(%rbx)
.L1074:
	cmpl	$1, %eax
	jne	.L1001
	movq	(%rbx), %rax
	movq	%rbx, %rdi
	call	*24(%rax)
	jmp	.L1001
	.p2align 4,,10
	.p2align 3
.L1313:
	.byte	0x66
	leaq	_ZN4asio6detail15keyword_tss_ptrINS0_10call_stackINS0_15task_io_serviceENS0_27task_io_service_thread_infoEE7contextEE6value_E@tlsgd(%rip), %rdi
	.value	0x6666
	rex64
	call	__tls_get_addr@PLT
	movq	(%rax), %rax
	testq	%rax, %rax
	jne	.L1272
	jmp	.L950
	.p2align 4,,10
	.p2align 3
.L952:
	movq	16(%rax), %rax
	testq	%rax, %rax
	je	.L950
.L1272:
	cmpq	(%rax), %r12
	jne	.L952
	movq	8(%rax), %rax
	testq	%rax, %rax
	je	.L950
	movq	16(%rax), %rdx
	movq	16(%rsp), %rcx
	testq	%rdx, %rdx
	je	.L955
	movq	%rcx, (%rdx)
.L956:
	movq	%r14, 16(%rax)
	jmp	.L1285
	.p2align 4,,10
	.p2align 3
.L1321:
	movq	16(%rsp), %rax
	movl	$0, 192(%rsp)
	movl	%ebx, %edx
	movq	$0, 196(%rsp)
	movq	%r15, %rcx
	movl	$2, %esi
	movl	96(%rax), %edi
	call	epoll_ctl@PLT
	movq	136(%rsp), %rdx
	jmp	.L1009
	.p2align 4,,10
	.p2align 3
.L1311:
	movq	24(%rsp), %rax
	movl	$0, 68(%rsp)
	leaq	68(%rsp), %rcx
	movq	$0, 72(%rsp)
	movl	%r12d, %edx
	movl	$2, %esi
	movl	96(%rax), %edi
	call	epoll_ctl@PLT
	movq	200(%rsp), %rdx
	jmp	.L935
	.p2align 4,,10
	.p2align 3
.L1330:
	movq	24(%rbx), %rax
	movq	16(%rsp), %rcx
	movq	%rax, 160(%rcx)
	jmp	.L1020
	.p2align 4,,10
	.p2align 3
.L1327:
	movq	%r13, %rdi
	call	__cxa_guard_acquire@PLT
	testl	%eax, %eax
	je	.L1046
	movq	%r13, %rdi
	call	__cxa_guard_release@PLT
	movq	_ZZN4asio15system_categoryEvE8instance@GOTPCREL(%rip), %rsi
	movq	_ZN4asio6detail15system_categoryD1Ev@GOTPCREL(%rip), %rdi
	leaq	__dso_handle(%rip), %rdx
	call	__cxa_atexit@PLT
	jmp	.L1046
	.p2align 4,,10
	.p2align 3
.L1048:
	movl	%ebx, %edi
	movq	%r15, %rdx
	movl	$21537, %esi
	xorl	%eax, %eax
	movl	$0, 192(%rsp)
	call	ioctl@PLT
	movl	$0, (%r12)
	movl	%ebx, %edi
	andb	$-4, 132(%rsp)
	call	close@PLT
	jmp	.L1297
	.p2align 4,,10
	.p2align 3
.L1324:
	movq	96(%rsp), %rdx
	movq	112(%rsp), %rax
	movq	%rdx, 152(%rsp)
	movq	104(%rsp), %rdx
	testq	%rax, %rax
	movq	%rax, 168(%rsp)
	movq	%rdx, 160(%rsp)
	je	.L871
	testq	%rdi, %rdi
	je	.L1082
	addq	$8, %rax
	jmp	.L1062
	.p2align 4,,10
	.p2align 3
.L1323:
	movq	16(%rbx), %rcx
	movq	88(%rsp), %rax
	movq	80(%rsp), %rsi
	leaq	928(%rcx), %rbx
	testq	%rax, %rax
	movq	%rcx, 120(%rsp)
	movq	%rsi, 136(%rsp)
	movq	%rax, 144(%rsp)
	movq	%rbx, 128(%rsp)
	je	.L866
	addq	$8, %rax
	jmp	.L1061
	.p2align 4,,10
	.p2align 3
.L1304:
	movq	(%rbx), %rax
	movq	%rbx, %rdi
	call	*16(%rax)
	movl	$-1, %eax
	lock xaddl	%eax, 12(%rbx)
	jmp	.L1068
	.p2align 4,,10
	.p2align 3
.L1302:
	movq	(%rbx), %rax
	movq	%rbx, %rdi
	call	*16(%rax)
	movl	$-1, %eax
	lock xaddl	%eax, 12(%rbx)
	jmp	.L1066
	.p2align 4,,10
	.p2align 3
.L1303:
	movq	(%rbx), %rax
	movq	%rbx, %rdi
	call	*16(%rax)
	movl	$-1, %eax
	lock xaddl	%eax, 12(%rbx)
	jmp	.L1067
	.p2align 4,,10
	.p2align 3
.L1305:
	movq	(%rbx), %rax
	movq	%rbx, %rdi
	call	*16(%rax)
	movl	$-1, %eax
	lock xaddl	%eax, 12(%rbx)
	jmp	.L1069
	.p2align 4,,10
	.p2align 3
.L1301:
	movq	(%rbx), %rax
	movq	%rbx, %rdi
	call	*16(%rax)
	movl	$-1, %eax
	lock xaddl	%eax, 12(%rbx)
	jmp	.L1065
	.p2align 4,,10
	.p2align 3
.L1318:
	movq	(%rdi), %rdx
	movq	%rax, 8(%rsp)
	call	*24(%rdx)
	movq	8(%rsp), %rax
	jmp	.L991
	.p2align 4,,10
	.p2align 3
.L1086:
	movq	%r14, %r13
	jmp	.L1010
	.p2align 4,,10
	.p2align 3
.L1083:
	movq	%rbx, %r15
	jmp	.L936
	.p2align 4,,10
	.p2align 3
.L1025:
	movq	8(%rax), %rax
	testq	%rax, %rax
	je	.L1024
	movq	16(%rax), %rdx
	movq	8(%rsp), %rcx
	testq	%rdx, %rdx
	je	.L1029
	movq	%rcx, (%rdx)
.L1030:
	movq	%r13, 16(%rax)
	jmp	.L1288
	.p2align 4,,10
	.p2align 3
.L1331:
	movq	%rbp, %rdi
	call	pthread_mutex_unlock@PLT
	leaq	88(%rbx), %rdi
	call	pthread_cond_signal@PLT
	jmp	.L1288
	.p2align 4,,10
	.p2align 3
.L1314:
	movq	%r13, %rdi
	call	pthread_mutex_unlock@PLT
	leaq	88(%r12), %rdi
	call	pthread_cond_signal@PLT
	jmp	.L1285
.L1029:
	movq	%rcx, 8(%rax)
	jmp	.L1030
.L955:
	movq	%rcx, 8(%rax)
	jmp	.L956
.L958:
	movq	16(%rsp), %rax
	movq	%rax, 192(%r12)
	jmp	.L959
.L1032:
	movq	8(%rsp), %rax
	movq	%rax, 192(%rbx)
	jmp	.L1033
.L1307:
	call	__stack_chk_fail@PLT
.L1093:
	movq	%rax, %r12
	movq	216(%rsp), %rax
	movq	%r15, %rsi
	leaq	40(%rax), %rdi
	call	_ZN4asio6detail28reactive_socket_service_base7destroyERNS1_24base_implementation_typeE@PLT
	movq	88(%rsp), %rdi
	testq	%rdi, %rdi
	je	.L986
	call	_ZNSt16_Sp_counted_baseILN9__gnu_cxx12_Lock_policyE2EE10_M_releaseEv@PLT
.L986:
	movq	%rbp, %rdi
	movq	%r12, %rbp
	call	_ZdlPv@PLT
.L987:
	testq	%rbx, %rbx
	je	.L1056
	movq	%rbx, %rdi
	call	_ZNSt16_Sp_counted_baseILN9__gnu_cxx12_Lock_policyE2EE10_M_releaseEv@PLT
.L1056:
	movq	152(%rsp), %rax
	leaq	128(%rsp), %rsi
	leaq	40(%rax), %rdi
	call	_ZN4asio6detail28reactive_socket_service_base7destroyERNS1_24base_implementation_typeE@PLT
	movq	%rbp, %rdi
.LEHB16:
	call	_Unwind_Resume@PLT
.LEHE16:
.L1092:
	movq	%rax, %rbx
	movq	272(%rsp), %rax
	testq	%rax, %rax
	je	.L886
	leaq	256(%rsp), %rdi
	movl	$3, %edx
	movq	%rdi, %rsi
	call	*%rax
.L886:
	leaq	8(%r15), %rdi
	call	_ZZZN8asiodnp318TCPClientIOHandler12StartConnectERKSt10shared_ptrIN7asiopal9TCPClientEERKN7openpal12TimeDurationEENKUlRKS1_INS2_8ExecutorEEN4asio19basic_stream_socketINSF_2ip3tcpENSF_21stream_socket_serviceISI_EEEERKSt10error_codeE_clESE_SL_SO_ENUlvE_D1Ev
	leaq	136(%rsp), %rdi
	call	_ZZZN8asiodnp318TCPClientIOHandler12StartConnectERKSt10shared_ptrIN7asiopal9TCPClientEERKN7openpal12TimeDurationEENKUlRKS1_INS2_8ExecutorEEN4asio19basic_stream_socketINSF_2ip3tcpENSF_21stream_socket_serviceISI_EEEERKSt10error_codeE_clESE_SL_SO_ENUlvE_D1Ev
	leaq	80(%rsp), %rdi
	call	_ZZZN8asiodnp318TCPClientIOHandler12StartConnectERKSt10shared_ptrIN7asiopal9TCPClientEERKN7openpal12TimeDurationEENKUlRKS1_INS2_8ExecutorEEN4asio19basic_stream_socketINSF_2ip3tcpENSF_21stream_socket_serviceISI_EEEERKSt10error_codeE_clESE_SL_SO_ENUlvE_D1Ev
	movq	%rbx, %rdi
.LEHB17:
	call	_Unwind_Resume@PLT
.LEHE17:
.L1091:
	movq	%rax, %rbx
	movq	272(%rsp), %rax
	testq	%rax, %rax
	je	.L886
	movl	$3, %edx
	movq	%r12, %rsi
	movq	%r12, %rdi
	call	*%rax
	jmp	.L886
.L1089:
	movq	%rax, %rbp
	jmp	.L987
.L1090:
	movq	200(%rsp), %rdi
	movq	%rax, %rbp
	testq	%rdi, %rdi
	je	.L987
	call	_ZNSt16_Sp_counted_baseILN9__gnu_cxx12_Lock_policyE2EE10_M_releaseEv@PLT
	jmp	.L987
	.cfi_endproc
.LFE7569:
	.section	.gcc_except_table
.LLSDA7569:
	.byte	0xff
	.byte	0xff
	.byte	0x1
	.uleb128 .LLSDACSE7569-.LLSDACSB7569
.LLSDACSB7569:
	.uleb128 .LEHB8-.LFB7569
	.uleb128 .LEHE8-.LEHB8
	.uleb128 0
	.uleb128 0
	.uleb128 .LEHB9-.LFB7569
	.uleb128 .LEHE9-.LEHB9
	.uleb128 .L1092-.LFB7569
	.uleb128 0
	.uleb128 .LEHB10-.LFB7569
	.uleb128 .LEHE10-.LEHB10
	.uleb128 .L1091-.LFB7569
	.uleb128 0
	.uleb128 .LEHB11-.LFB7569
	.uleb128 .LEHE11-.LEHB11
	.uleb128 0
	.uleb128 0
	.uleb128 .LEHB12-.LFB7569
	.uleb128 .LEHE12-.LEHB12
	.uleb128 .L1089-.LFB7569
	.uleb128 0
	.uleb128 .LEHB13-.LFB7569
	.uleb128 .LEHE13-.LEHB13
	.uleb128 .L1093-.LFB7569
	.uleb128 0
	.uleb128 .LEHB14-.LFB7569
	.uleb128 .LEHE14-.LEHB14
	.uleb128 .L1090-.LFB7569
	.uleb128 0
	.uleb128 .LEHB15-.LFB7569
	.uleb128 .LEHE15-.LEHB15
	.uleb128 0
	.uleb128 0
	.uleb128 .LEHB16-.LFB7569
	.uleb128 .LEHE16-.LEHB16
	.uleb128 0
	.uleb128 0
	.uleb128 .LEHB17-.LFB7569
	.uleb128 .LEHE17-.LEHB17
	.uleb128 0
	.uleb128 0
.LLSDACSE7569:
	.text
	.size	_ZZN8asiodnp318TCPClientIOHandler12StartConnectERKSt10shared_ptrIN7asiopal9TCPClientEERKN7openpal12TimeDurationEENKUlRKS1_INS2_8ExecutorEEN4asio19basic_stream_socketINSF_2ip3tcpENSF_21stream_socket_serviceISI_EEEERKSt10error_codeE_clESE_SL_SO_, .-_ZZN8asiodnp318TCPClientIOHandler12StartConnectERKSt10shared_ptrIN7asiopal9TCPClientEERKN7openpal12TimeDurationEENKUlRKS1_INS2_8ExecutorEEN4asio19basic_stream_socketINSF_2ip3tcpENSF_21stream_socket_serviceISI_EEEERKSt10error_codeE_clESE_SL_SO_
	.p2align 4,,15
	.type	_ZNSt17_Function_handlerIFvRKSt10shared_ptrIN7asiopal8ExecutorEEN4asio19basic_stream_socketINS6_2ip3tcpENS6_21stream_socket_serviceIS9_EEEERKSt10error_codeEZN8asiodnp318TCPClientIOHandler12StartConnectERKS0_INS1_9TCPClientEERKN7openpal12TimeDurationEEUlS5_SC_SF_E_E9_M_invokeERKSt9_Any_dataS5_OSC_SF_, @function
_ZNSt17_Function_handlerIFvRKSt10shared_ptrIN7asiopal8ExecutorEEN4asio19basic_stream_socketINS6_2ip3tcpENS6_21stream_socket_serviceIS9_EEEERKSt10error_codeEZN8asiodnp318TCPClientIOHandler12StartConnectERKS0_INS1_9TCPClientEERKN7openpal12TimeDurationEEUlS5_SC_SF_E_E9_M_invokeERKSt9_Any_dataS5_OSC_SF_:
.LFB8984:
	.cfi_startproc
	.cfi_personality 0x9b,DW.ref.__gxx_personality_v0
	.cfi_lsda 0x1b,.LLSDA8984
	pushq	%r15
	.cfi_def_cfa_offset 16
	.cfi_offset 15, -16
	pushq	%r14
	.cfi_def_cfa_offset 24
	.cfi_offset 14, -24
	pushq	%r13
	.cfi_def_cfa_offset 32
	.cfi_offset 13, -32
	pushq	%r12
	.cfi_def_cfa_offset 40
	.cfi_offset 12, -40
	pushq	%rbp
	.cfi_def_cfa_offset 48
	.cfi_offset 6, -48
	pushq	%rbx
	.cfi_def_cfa_offset 56
	.cfi_offset 3, -56
	subq	$104, %rsp
	.cfi_def_cfa_offset 160
	movq	(%rdi), %rdi
	movq	%fs:40, %rax
	movq	%rax, 88(%rsp)
	xorl	%eax, %eax
	movq	24(%rdx), %rax
	leaq	48(%rsp), %rbx
	movq	%rax, 72(%rsp)
	movl	(%rdx), %eax
	movl	$-1, (%rdx)
	movl	%eax, 48(%rsp)
	movzbl	4(%rdx), %eax
	movb	$0, 4(%rdx)
	movb	%al, 52(%rsp)
	movq	8(%rdx), %rax
	movq	$0, 8(%rdx)
	movq	%rax, 56(%rsp)
	movl	16(%rdx), %eax
	movl	$2, 16(%rdx)
	movq	%rbx, %rdx
	movl	%eax, 64(%rsp)
.LEHB18:
	call	_ZZN8asiodnp318TCPClientIOHandler12StartConnectERKSt10shared_ptrIN7asiopal9TCPClientEERKN7openpal12TimeDurationEENKUlRKS1_INS2_8ExecutorEEN4asio19basic_stream_socketINSF_2ip3tcpENSF_21stream_socket_serviceISI_EEEERKSt10error_codeE_clESE_SL_SO_
.LEHE18:
	movl	48(%rsp), %ebx
	cmpl	$-1, %ebx
	je	.L1332
	movq	56(%rsp), %rbp
	testq	%rbp, %rbp
	je	.L1383
	movq	72(%rsp), %rax
	movzbl	52(%rsp), %r12d
	movq	40(%rax), %rax
	movq	%rax, 16(%rsp)
	leaq	40(%rbp), %rax
	movq	%rax, %rdi
	movq	%rax, 24(%rsp)
	call	pthread_mutex_lock@PLT
	movq	56(%rsp), %rdx
	cmpb	$0, 144(%rdx)
	jne	.L1335
	andl	$64, %r12d
	jne	.L1462
.L1336:
	movl	$96, %ebp
	xorl	%r13d, %r13d
	movq	$0, 8(%rsp)
	movl	$0, 4(%rsp)
.L1347:
	movq	(%rdx,%rbp), %r14
	testq	%r14, %r14
	je	.L1337
	movslq	4(%rsp), %r11
	movq	_ZGVZN4asio15system_categoryEvE8instance@GOTPCREL(%rip), %r15
	movq	_ZZN4asio15system_categoryEvE8instance@GOTPCREL(%rip), %rbx
	salq	$4, %r11
	movq	%r11, %r12
	jmp	.L1338
	.p2align 4,,10
	.p2align 3
.L1341:
	leaq	(%rdx,%r12), %rsi
	movl	$125, 24(%r14)
	movq	%rbx, 32(%r14)
	movq	96(%rsi), %rax
	testq	%rax, %rax
	je	.L1343
	movq	(%rax), %rdi
	testq	%rdi, %rdi
	movq	%rdi, 96(%rsi)
	je	.L1463
.L1344:
	movq	$0, (%rax)
.L1343:
	testq	%r13, %r13
	movq	$0, (%r14)
	je	.L1345
	movq	(%rdx,%rbp), %rax
	movq	%r14, 0(%r13)
	testq	%rax, %rax
	je	.L1346
.L1339:
	movq	%r14, %r13
	movq	%rax, %r14
.L1338:
	movzbl	(%r15), %eax
	testb	%al, %al
	jne	.L1341
	movq	%r15, %rdi
	call	__cxa_guard_acquire@PLT
	testl	%eax, %eax
	je	.L1454
	movq	%r15, %rdi
	call	__cxa_guard_release@PLT
	movq	_ZN4asio6detail15system_categoryD1Ev@GOTPCREL(%rip), %rdi
	leaq	__dso_handle(%rip), %rdx
	movq	%rbx, %rsi
	call	__cxa_atexit@PLT
.L1454:
	movq	56(%rsp), %rdx
	jmp	.L1341
	.p2align 4,,10
	.p2align 3
.L1335:
	movq	24(%rsp), %rdi
	call	pthread_mutex_unlock@PLT
.L1456:
	movl	48(%rsp), %ebx
	cmpl	$-1, %ebx
	je	.L1332
.L1383:
	movzbl	52(%rsp), %ebp
	call	__errno_location@PLT
	movq	%rax, %r12
	testb	$8, %bpl
	jne	.L1452
	movq	_ZGVZN4asio15system_categoryEvE8instance@GOTPCREL(%rip), %r15
.L1366:
	movl	$0, (%r12)
	movl	%ebx, %edi
	call	close@PLT
	movl	%eax, %ebp
	movzbl	(%r15), %eax
	testb	%al, %al
	je	.L1464
.L1371:
	testl	%ebp, %ebp
	je	.L1332
	movl	(%r12), %ebp
	movzbl	(%r15), %eax
	testb	%al, %al
	je	.L1465
.L1374:
	cmpl	$11, %ebp
	je	.L1376
.L1461:
	movzbl	(%r15), %eax
	testb	%al, %al
	jne	.L1332
	movq	%r15, %rdi
	call	__cxa_guard_acquire@PLT
	testl	%eax, %eax
	je	.L1332
	movq	%r15, %rdi
	call	__cxa_guard_release@PLT
	movq	_ZZN4asio15system_categoryEvE8instance@GOTPCREL(%rip), %rsi
	movq	_ZN4asio6detail15system_categoryD1Ev@GOTPCREL(%rip), %rdi
	leaq	__dso_handle(%rip), %rdx
	call	__cxa_atexit@PLT
	.p2align 4,,10
	.p2align 3
.L1332:
	movq	88(%rsp), %rax
	xorq	%fs:40, %rax
	jne	.L1466
	addq	$104, %rsp
	.cfi_remember_state
	.cfi_def_cfa_offset 56
	popq	%rbx
	.cfi_def_cfa_offset 48
	popq	%rbp
	.cfi_def_cfa_offset 40
	popq	%r12
	.cfi_def_cfa_offset 32
	popq	%r13
	.cfi_def_cfa_offset 24
	popq	%r14
	.cfi_def_cfa_offset 16
	popq	%r15
	.cfi_def_cfa_offset 8
	ret
	.p2align 4,,10
	.p2align 3
.L1345:
	.cfi_restore_state
	movq	(%rdx,%rbp), %rax
	movq	%r14, 8(%rsp)
	testq	%rax, %rax
	jne	.L1339
.L1346:
	movq	%r14, %r13
.L1337:
	addl	$1, 4(%rsp)
	addq	$16, %rbp
	movl	4(%rsp), %eax
	cmpl	$3, %eax
	jne	.L1347
	movq	24(%rsp), %rdi
	movl	$-1, 88(%rdx)
	movb	$1, 144(%rdx)
	call	pthread_mutex_unlock@PLT
	movq	16(%rsp), %r15
	movq	56(%rsp), %rbx
	leaq	120(%r15), %rbp
	movq	%rbp, %rdi
	call	pthread_mutex_lock@PLT
	cmpq	160(%r15), %rbx
	je	.L1467
.L1348:
	movq	32(%rbx), %rdx
	movq	24(%rbx), %rax
	testq	%rdx, %rdx
	je	.L1349
	movq	%rax, 24(%rdx)
	movq	24(%rbx), %rax
.L1349:
	testq	%rax, %rax
	je	.L1350
	movq	32(%rbx), %rdx
	movq	%rdx, 32(%rax)
.L1350:
	movq	16(%rsp), %r15
	movq	%rbp, %rdi
	movq	168(%r15), %rax
	movq	$0, 32(%rbx)
	movq	%rax, 24(%rbx)
	movq	%rbx, 168(%r15)
	call	pthread_mutex_unlock@PLT
	cmpq	$0, 8(%rsp)
	movq	$0, 56(%rsp)
	je	.L1456
	movq	40(%r15), %rbx
	cmpb	$0, 40(%rbx)
	je	.L1352
	.byte	0x66
	leaq	_ZN4asio6detail15keyword_tss_ptrINS0_10call_stackINS0_15task_io_serviceENS0_27task_io_service_thread_infoEE7contextEE6value_E@tlsgd(%rip), %rdi
	.value	0x6666
	rex64
	call	__tls_get_addr@PLT
	movq	(%rax), %rax
	testq	%rax, %rax
	jne	.L1451
	jmp	.L1352
	.p2align 4,,10
	.p2align 3
.L1354:
	movq	16(%rax), %rax
	testq	%rax, %rax
	je	.L1352
.L1451:
	cmpq	(%rax), %rbx
	jne	.L1354
	movq	8(%rax), %rax
	testq	%rax, %rax
	je	.L1352
	movq	16(%rax), %rdx
	movq	8(%rsp), %rcx
	testq	%rdx, %rdx
	je	.L1357
	movq	%rcx, (%rdx)
.L1358:
	movq	%r13, 16(%rax)
	jmp	.L1456
	.p2align 4,,10
	.p2align 3
.L1463:
	movq	$0, 104(%rsi)
	jmp	.L1344
	.p2align 4,,10
	.p2align 3
.L1464:
	movq	%r15, %rdi
	call	__cxa_guard_acquire@PLT
	testl	%eax, %eax
	je	.L1371
	movq	%r15, %rdi
	call	__cxa_guard_release@PLT
	movq	_ZZN4asio15system_categoryEvE8instance@GOTPCREL(%rip), %rsi
	movq	_ZN4asio6detail15system_categoryD1Ev@GOTPCREL(%rip), %rdi
	leaq	__dso_handle(%rip), %rdx
	call	__cxa_atexit@PLT
	jmp	.L1371
	.p2align 4,,10
	.p2align 3
.L1452:
	leaq	36(%rsp), %rcx
	orl	$8, %ebp
	movl	$0, (%rax)
	movl	$8, %r8d
	movl	$13, %edx
	movl	$1, %esi
	movl	%ebx, %edi
	movq	$0, 36(%rsp)
	movb	%bpl, 52(%rsp)
	call	setsockopt@PLT
	movq	_ZGVZN4asio15system_categoryEvE8instance@GOTPCREL(%rip), %r15
	movzbl	(%r15), %eax
	testb	%al, %al
	jne	.L1366
	movq	%r15, %rdi
	call	__cxa_guard_acquire@PLT
	testl	%eax, %eax
	je	.L1366
	movq	%r15, %rdi
	call	__cxa_guard_release@PLT
	movq	_ZZN4asio15system_categoryEvE8instance@GOTPCREL(%rip), %rsi
	movq	_ZN4asio6detail15system_categoryD1Ev@GOTPCREL(%rip), %rdi
	leaq	__dso_handle(%rip), %rdx
	call	__cxa_atexit@PLT
	jmp	.L1366
	.p2align 4,,10
	.p2align 3
.L1352:
	leaq	48(%rbx), %rbp
	movq	%rbp, %rdi
	call	pthread_mutex_lock@PLT
	movq	200(%rbx), %rax
	testq	%rax, %rax
	je	.L1360
	movq	8(%rsp), %rcx
	movq	%rcx, (%rax)
.L1361:
	movq	136(%rbx), %rax
	movq	%r13, 200(%rbx)
	orq	$1, %rax
	cmpq	$1, %rax
	movq	%rax, 136(%rbx)
	jne	.L1468
	cmpb	$0, 176(%rbx)
	jne	.L1364
	movq	144(%rbx), %rax
	testq	%rax, %rax
	je	.L1364
	leaq	88(%rax), %rdx
	movb	$1, 176(%rbx)
	movl	$-2147483639, 36(%rsp)
	leaq	36(%rsp), %rcx
	movl	$3, %esi
	movq	%rdx, 40(%rsp)
	movl	88(%rax), %edx
	movl	96(%rax), %edi
	call	epoll_ctl@PLT
.L1364:
	movq	%rbp, %rdi
	call	pthread_mutex_unlock@PLT
	jmp	.L1456
.L1360:
	movq	8(%rsp), %rax
	movq	%rax, 192(%rbx)
	jmp	.L1361
	.p2align 4,,10
	.p2align 3
.L1462:
	movq	16(%rsp), %rax
	movl	$0, 36(%rsp)
	leaq	36(%rsp), %rcx
	movq	$0, 40(%rsp)
	movl	%ebx, %edx
	movl	$2, %esi
	movl	96(%rax), %edi
	call	epoll_ctl@PLT
	movq	56(%rsp), %rdx
	jmp	.L1336
	.p2align 4,,10
	.p2align 3
.L1467:
	movq	24(%rbx), %rax
	movq	16(%rsp), %rcx
	movq	%rax, 160(%rcx)
	jmp	.L1348
	.p2align 4,,10
	.p2align 3
.L1465:
	movq	%r15, %rdi
	call	__cxa_guard_acquire@PLT
	testl	%eax, %eax
	je	.L1374
	movq	%r15, %rdi
	call	__cxa_guard_release@PLT
	movq	_ZZN4asio15system_categoryEvE8instance@GOTPCREL(%rip), %rsi
	movq	_ZN4asio6detail15system_categoryD1Ev@GOTPCREL(%rip), %rdi
	leaq	__dso_handle(%rip), %rdx
	call	__cxa_atexit@PLT
	jmp	.L1374
	.p2align 4,,10
	.p2align 3
.L1376:
	leaq	36(%rsp), %rdx
	movl	%ebx, %edi
	movl	$21537, %esi
	xorl	%eax, %eax
	movl	$0, 36(%rsp)
	call	ioctl@PLT
	movl	$0, (%r12)
	movl	%ebx, %edi
	andb	$-4, 52(%rsp)
	call	close@PLT
	jmp	.L1461
	.p2align 4,,10
	.p2align 3
.L1468:
	movq	%rbp, %rdi
	call	pthread_mutex_unlock@PLT
	leaq	88(%rbx), %rdi
	call	pthread_cond_signal@PLT
	jmp	.L1456
.L1357:
	movq	%rcx, 8(%rax)
	jmp	.L1358
.L1466:
	call	__stack_chk_fail@PLT
.L1386:
	movq	%rax, %rbp
	movq	72(%rsp), %rax
	movq	%rbx, %rsi
	leaq	40(%rax), %rdi
	call	_ZN4asio6detail28reactive_socket_service_base7destroyERNS1_24base_implementation_typeE@PLT
	movq	%rbp, %rdi
.LEHB19:
	call	_Unwind_Resume@PLT
.LEHE19:
	.cfi_endproc
.LFE8984:
	.section	.gcc_except_table
.LLSDA8984:
	.byte	0xff
	.byte	0xff
	.byte	0x1
	.uleb128 .LLSDACSE8984-.LLSDACSB8984
.LLSDACSB8984:
	.uleb128 .LEHB18-.LFB8984
	.uleb128 .LEHE18-.LEHB18
	.uleb128 .L1386-.LFB8984
	.uleb128 0
	.uleb128 .LEHB19-.LFB8984
	.uleb128 .LEHE19-.LEHB19
	.uleb128 0
	.uleb128 0
.LLSDACSE8984:
	.text
	.size	_ZNSt17_Function_handlerIFvRKSt10shared_ptrIN7asiopal8ExecutorEEN4asio19basic_stream_socketINS6_2ip3tcpENS6_21stream_socket_serviceIS9_EEEERKSt10error_codeEZN8asiodnp318TCPClientIOHandler12StartConnectERKS0_INS1_9TCPClientEERKN7openpal12TimeDurationEEUlS5_SC_SF_E_E9_M_invokeERKSt9_Any_dataS5_OSC_SF_, .-_ZNSt17_Function_handlerIFvRKSt10shared_ptrIN7asiopal8ExecutorEEN4asio19basic_stream_socketINS6_2ip3tcpENS6_21stream_socket_serviceIS9_EEEERKSt10error_codeEZN8asiodnp318TCPClientIOHandler12StartConnectERKS0_INS1_9TCPClientEERKN7openpal12TimeDurationEEUlS5_SC_SF_E_E9_M_invokeERKSt9_Any_dataS5_OSC_SF_
	.section	.text._ZNSt8_Rb_treeIPN8opendnp317IScheduleCallbackES2_St9_IdentityIS2_ESt4lessIS2_ESaIS2_EE8_M_eraseEPSt13_Rb_tree_nodeIS2_E,"axG",@progbits,_ZNSt8_Rb_treeIPN8opendnp317IScheduleCallbackES2_St9_IdentityIS2_ESt4lessIS2_ESaIS2_EE8_M_eraseEPSt13_Rb_tree_nodeIS2_E,comdat
	.align 2
	.p2align 4,,15
	.weak	_ZNSt8_Rb_treeIPN8opendnp317IScheduleCallbackES2_St9_IdentityIS2_ESt4lessIS2_ESaIS2_EE8_M_eraseEPSt13_Rb_tree_nodeIS2_E
	.type	_ZNSt8_Rb_treeIPN8opendnp317IScheduleCallbackES2_St9_IdentityIS2_ESt4lessIS2_ESaIS2_EE8_M_eraseEPSt13_Rb_tree_nodeIS2_E, @function
_ZNSt8_Rb_treeIPN8opendnp317IScheduleCallbackES2_St9_IdentityIS2_ESt4lessIS2_ESaIS2_EE8_M_eraseEPSt13_Rb_tree_nodeIS2_E:
.LFB8912:
	.cfi_startproc
	pushq	%r15
	.cfi_def_cfa_offset 16
	.cfi_offset 15, -16
	pushq	%r14
	.cfi_def_cfa_offset 24
	.cfi_offset 14, -24
	pushq	%r13
	.cfi_def_cfa_offset 32
	.cfi_offset 13, -32
	pushq	%r12
	.cfi_def_cfa_offset 40
	.cfi_offset 12, -40
	pushq	%rbp
	.cfi_def_cfa_offset 48
	.cfi_offset 6, -48
	pushq	%rbx
	.cfi_def_cfa_offset 56
	.cfi_offset 3, -56
	subq	$56, %rsp
	.cfi_def_cfa_offset 112
	testq	%rsi, %rsi
	movq	%rsi, 40(%rsp)
	je	.L1469
	movq	%rdi, %rbp
	movq	%rsi, %rax
.L1487:
	movq	24(%rax), %rax
	testq	%rax, %rax
	movq	%rax, 32(%rsp)
	je	.L1471
.L1486:
	movq	24(%rax), %rax
	testq	%rax, %rax
	movq	%rax, 24(%rsp)
	je	.L1472
.L1485:
	movq	24(%rax), %rax
	testq	%rax, %rax
	movq	%rax, 16(%rsp)
	je	.L1473
.L1484:
	movq	24(%rax), %rax
	testq	%rax, %rax
	movq	%rax, 8(%rsp)
	je	.L1474
.L1483:
	movq	24(%rax), %r13
	testq	%r13, %r13
	je	.L1475
.L1482:
	movq	24(%r13), %r12
	testq	%r12, %r12
	je	.L1476
.L1481:
	movq	24(%r12), %r15
	testq	%r15, %r15
	je	.L1477
.L1480:
	movq	24(%r15), %r14
	testq	%r14, %r14
	je	.L1478
.L1479:
	movq	24(%r14), %rsi
	movq	%rbp, %rdi
	call	_ZNSt8_Rb_treeIPN8opendnp317IScheduleCallbackES2_St9_IdentityIS2_ESt4lessIS2_ESaIS2_EE8_M_eraseEPSt13_Rb_tree_nodeIS2_E@PLT
	movq	16(%r14), %rbx
	movq	%r14, %rdi
	call	_ZdlPv@PLT
	testq	%rbx, %rbx
	movq	%rbx, %r14
	jne	.L1479
.L1478:
	movq	16(%r15), %rbx
	movq	%r15, %rdi
	call	_ZdlPv@PLT
	testq	%rbx, %rbx
	movq	%rbx, %r15
	jne	.L1480
.L1477:
	movq	16(%r12), %rbx
	movq	%r12, %rdi
	call	_ZdlPv@PLT
	testq	%rbx, %rbx
	movq	%rbx, %r12
	jne	.L1481
.L1476:
	movq	16(%r13), %rbx
	movq	%r13, %rdi
	call	_ZdlPv@PLT
	testq	%rbx, %rbx
	movq	%rbx, %r13
	jne	.L1482
.L1475:
	movq	8(%rsp), %rdi
	movq	16(%rdi), %rbx
	call	_ZdlPv@PLT
	testq	%rbx, %rbx
	movq	%rbx, %rax
	movq	%rbx, 8(%rsp)
	jne	.L1483
.L1474:
	movq	16(%rsp), %rdi
	movq	16(%rdi), %rbx
	call	_ZdlPv@PLT
	testq	%rbx, %rbx
	movq	%rbx, %rax
	movq	%rbx, 16(%rsp)
	jne	.L1484
.L1473:
	movq	24(%rsp), %rdi
	movq	16(%rdi), %rbx
	call	_ZdlPv@PLT
	testq	%rbx, %rbx
	movq	%rbx, %rax
	movq	%rbx, 24(%rsp)
	jne	.L1485
.L1472:
	movq	32(%rsp), %rdi
	movq	16(%rdi), %rbx
	call	_ZdlPv@PLT
	testq	%rbx, %rbx
	movq	%rbx, %rax
	movq	%rbx, 32(%rsp)
	jne	.L1486
.L1471:
	movq	40(%rsp), %rdi
	movq	16(%rdi), %rbx
	call	_ZdlPv@PLT
	testq	%rbx, %rbx
	movq	%rbx, %rax
	movq	%rbx, 40(%rsp)
	jne	.L1487
.L1469:
	addq	$56, %rsp
	.cfi_def_cfa_offset 56
	popq	%rbx
	.cfi_def_cfa_offset 48
	popq	%rbp
	.cfi_def_cfa_offset 40
	popq	%r12
	.cfi_def_cfa_offset 32
	popq	%r13
	.cfi_def_cfa_offset 24
	popq	%r14
	.cfi_def_cfa_offset 16
	popq	%r15
	.cfi_def_cfa_offset 8
	ret
	.cfi_endproc
.LFE8912:
	.size	_ZNSt8_Rb_treeIPN8opendnp317IScheduleCallbackES2_St9_IdentityIS2_ESt4lessIS2_ESaIS2_EE8_M_eraseEPSt13_Rb_tree_nodeIS2_E, .-_ZNSt8_Rb_treeIPN8opendnp317IScheduleCallbackES2_St9_IdentityIS2_ESt4lessIS2_ESaIS2_EE8_M_eraseEPSt13_Rb_tree_nodeIS2_E
	.section	.text._ZN8asiodnp39IOHandlerD2Ev,"axG",@progbits,_ZN8asiodnp39IOHandlerD5Ev,comdat
	.align 2
	.p2align 4,,15
	.weak	_ZN8asiodnp39IOHandlerD2Ev
	.type	_ZN8asiodnp39IOHandlerD2Ev, @function
_ZN8asiodnp39IOHandlerD2Ev:
.LFB7473:
	.cfi_startproc
	pushq	%r15
	.cfi_def_cfa_offset 16
	.cfi_offset 15, -16
	pushq	%r14
	.cfi_def_cfa_offset 24
	.cfi_offset 14, -24
	pushq	%r13
	.cfi_def_cfa_offset 32
	.cfi_offset 13, -32
	pushq	%r12
	.cfi_def_cfa_offset 40
	.cfi_offset 12, -40
	pushq	%rbp
	.cfi_def_cfa_offset 48
	.cfi_offset 6, -48
	pushq	%rbx
	.cfi_def_cfa_offset 56
	.cfi_offset 3, -56
	movq	%rdi, %rbx
	subq	$56, %rsp
	.cfi_def_cfa_offset 112
	movq	_ZTVN8asiodnp39IOHandlerE@GOTPCREL(%rip), %rax
	leaq	16(%rax), %rdx
	addq	$104, %rax
	movq	%rax, 8(%rdi)
	movq	_ZTVN8opendnp317MultidropTaskLockE@GOTPCREL(%rip), %rax
	movq	%rdx, (%rdi)
	addq	$16, %rax
	movq	%rax, 648(%rdi)
	movq	712(%rdi), %rdi
	testq	%rdi, %rdi
	je	.L1526
	movq	784(%rbx), %rax
	movq	752(%rbx), %rbp
	leaq	8(%rax), %r12
	cmpq	%rbp, %r12
	jbe	.L1527
	.p2align 4,,10
	.p2align 3
.L1528:
	movq	0(%rbp), %rdi
	addq	$8, %rbp
	call	_ZdlPv@PLT
	cmpq	%rbp, %r12
	ja	.L1528
	movq	712(%rbx), %rdi
.L1527:
	call	_ZdlPv@PLT
.L1526:
	movq	680(%rbx), %rbp
	testq	%rbp, %rbp
	je	.L1529
	leaq	664(%rbx), %r13
.L1530:
	movq	24(%rbp), %rsi
	movq	%r13, %rdi
	call	_ZNSt8_Rb_treeIPN8opendnp317IScheduleCallbackES2_St9_IdentityIS2_ESt4lessIS2_ESaIS2_EE8_M_eraseEPSt13_Rb_tree_nodeIS2_E@PLT
	movq	16(%rbp), %r12
	movq	%rbp, %rdi
	call	_ZdlPv@PLT
	testq	%r12, %r12
	movq	%r12, %rbp
	jne	.L1530
.L1529:
	movq	640(%rbx), %rbp
	testq	%rbp, %rbp
	je	.L1532
	cmpq	$0, _ZL28__gthrw___pthread_key_createPjPFvPvE@GOTPCREL(%rip)
	je	.L1533
	lock subl	$1, 8(%rbp)
	je	.L1678
.L1532:
	movq	240(%rbx), %rbp
	testq	%rbp, %rbp
	je	.L1538
	cmpq	$0, _ZL28__gthrw___pthread_key_createPjPFvPvE@GOTPCREL(%rip)
	je	.L1539
	lock subl	$1, 8(%rbp)
	je	.L1679
.L1538:
	movq	224(%rbx), %rbp
	testq	%rbp, %rbp
	je	.L1544
	cmpq	$0, _ZL28__gthrw___pthread_key_createPjPFvPvE@GOTPCREL(%rip)
	je	.L1545
	lock subl	$1, 8(%rbp)
	je	.L1680
.L1544:
	movq	184(%rbx), %rax
	movq	176(%rbx), %rcx
	movq	168(%rbx), %rdx
	movq	152(%rbx), %r12
	movq	%rax, 24(%rsp)
	movq	192(%rbx), %rax
	leaq	8(%rcx), %rbp
	movq	%rdx, 32(%rsp)
	movq	%rcx, 40(%rsp)
	movq	%rax, 8(%rsp)
	movq	208(%rbx), %rax
	cmpq	%rbp, %rax
	movq	%rax, 16(%rsp)
	jbe	.L1549
	.p2align 4,,10
	.p2align 3
.L1562:
	cmpq	$0, _ZL28__gthrw___pthread_key_createPjPFvPvE@GOTPCREL(%rip)
	movq	0(%rbp), %r14
	leaq	512(%r14), %r15
	jne	.L1561
	jmp	.L1556
	.p2align 4,,10
	.p2align 3
.L1558:
	addq	$32, %r14
	cmpq	%r15, %r14
	je	.L1555
.L1561:
	movq	24(%r14), %r13
	testq	%r13, %r13
	je	.L1558
	lock subl	$1, 8(%r13)
	jne	.L1558
	movq	0(%r13), %rsi
	movq	%r13, %rdi
	call	*16(%rsi)
	lock subl	$1, 12(%r13)
	jne	.L1558
	movq	0(%r13), %rsi
	addq	$32, %r14
	movq	%r13, %rdi
	call	*24(%rsi)
	cmpq	%r15, %r14
	jne	.L1561
	.p2align 4,,10
	.p2align 3
.L1555:
	addq	$8, %rbp
	cmpq	%rbp, 16(%rsp)
	ja	.L1562
.L1549:
	movq	40(%rsp), %rdx
	cmpq	%rdx, 16(%rsp)
	je	.L1563
	cmpq	32(%rsp), %r12
	je	.L1681
	cmpq	$0, _ZL28__gthrw___pthread_key_createPjPFvPvE@GOTPCREL(%rip)
	je	.L1573
	.p2align 4,,10
	.p2align 3
.L1567:
	movq	24(%r12), %rbp
	testq	%rbp, %rbp
	je	.L1575
	lock subl	$1, 8(%rbp)
	je	.L1682
.L1575:
	addq	$32, %r12
	cmpq	%r12, 32(%rsp)
	jne	.L1567
.L1696:
	movq	8(%rsp), %rcx
	cmpq	%rcx, 24(%rsp)
	je	.L1565
	.p2align 4,,10
	.p2align 3
.L1589:
	movq	8(%rsp), %rax
	movq	24(%rax), %rbp
	testq	%rbp, %rbp
	je	.L1586
	lock subl	$1, 8(%rbp)
	je	.L1683
.L1586:
	addq	$32, 8(%rsp)
	movq	8(%rsp), %rax
	cmpq	%rax, 24(%rsp)
	jne	.L1589
.L1565:
	movq	136(%rbx), %rdi
	testq	%rdi, %rdi
	je	.L1600
	movq	208(%rbx), %rax
	movq	176(%rbx), %rbp
	leaq	8(%rax), %r12
	cmpq	%rbp, %r12
	jbe	.L1601
	.p2align 4,,10
	.p2align 3
.L1602:
	movq	0(%rbp), %rdi
	addq	$8, %rbp
	call	_ZdlPv@PLT
	cmpq	%rbp, %r12
	ja	.L1602
	movq	136(%rbx), %rdi
.L1601:
	call	_ZdlPv@PLT
.L1600:
	movq	120(%rbx), %rax
	movq	112(%rbx), %rdi
	cmpq	%rdi, %rax
	je	.L1603
	leaq	24(%rdi), %rbp
	subq	%rbp, %rax
	shrq	$3, %rax
	cmpq	$0, _ZL28__gthrw___pthread_key_createPjPFvPvE@GOTPCREL(%rip)
	leaq	24(%rdi,%rax,8), %r13
	jne	.L1615
	jmp	.L1610
	.p2align 4,,10
	.p2align 3
.L1685:
	addq	$24, %rbp
.L1615:
	movq	16(%rdi), %r12
	testq	%r12, %r12
	je	.L1612
	lock subl	$1, 8(%r12)
	je	.L1684
.L1612:
	cmpq	%r13, %rbp
	movq	%rbp, %rdi
	jne	.L1685
.L1609:
	movq	112(%rbx), %rdi
.L1603:
	testq	%rdi, %rdi
	je	.L1616
	call	_ZdlPv@PLT
.L1616:
	movq	72(%rbx), %rbp
	testq	%rbp, %rbp
	je	.L1618
	cmpq	$0, _ZL28__gthrw___pthread_key_createPjPFvPvE@GOTPCREL(%rip)
	je	.L1619
	lock subl	$1, 8(%rbp)
	je	.L1686
.L1618:
	movq	56(%rbx), %rbp
	testq	%rbp, %rbp
	je	.L1624
	cmpq	$0, _ZL28__gthrw___pthread_key_createPjPFvPvE@GOTPCREL(%rip)
	je	.L1625
	lock subl	$1, 8(%rbp)
	je	.L1687
.L1624:
	movq	40(%rbx), %rbp
	testq	%rbp, %rbp
	je	.L1630
	cmpq	$0, _ZL28__gthrw___pthread_key_createPjPFvPvE@GOTPCREL(%rip)
	je	.L1631
	lock subl	$1, 8(%rbp)
	je	.L1688
.L1630:
	movq	24(%rbx), %rdi
	testq	%rdi, %rdi
	je	.L1525
	cmpq	$0, _ZL28__gthrw___pthread_key_createPjPFvPvE@GOTPCREL(%rip)
	je	.L1637
	movl	$-1, %eax
	lock xaddl	%eax, 12(%rdi)
	cmpl	$1, %eax
	je	.L1689
.L1525:
	addq	$56, %rsp
	.cfi_remember_state
	.cfi_def_cfa_offset 56
	popq	%rbx
	.cfi_def_cfa_offset 48
	popq	%rbp
	.cfi_def_cfa_offset 40
	popq	%r12
	.cfi_def_cfa_offset 32
	popq	%r13
	.cfi_def_cfa_offset 24
	popq	%r14
	.cfi_def_cfa_offset 16
	popq	%r15
	.cfi_def_cfa_offset 8
	ret
	.p2align 4,,10
	.p2align 3
.L1690:
	.cfi_restore_state
	movq	0(%r13), %rsi
	movq	%r13, %rdi
	call	*16(%rsi)
	movl	12(%r13), %esi
	leal	-1(%rsi), %edi
	cmpl	$1, %esi
	movl	%edi, 12(%r13)
	jne	.L1553
	movq	0(%r13), %rsi
	movq	%r13, %rdi
	call	*24(%rsi)
	.p2align 4,,10
	.p2align 3
.L1553:
	addq	$32, %r14
	cmpq	%r14, %r15
	je	.L1555
.L1556:
	movq	24(%r14), %r13
	testq	%r13, %r13
	je	.L1553
	movl	8(%r13), %esi
	leal	-1(%rsi), %edi
	cmpl	$1, %esi
	movl	%edi, 8(%r13)
	jne	.L1553
	jmp	.L1690
.L1692:
	movq	0(%rbp), %rax
	movq	%rbp, %rdi
	call	*16(%rax)
	movl	12(%rbp), %eax
	leal	-1(%rax), %edx
	cmpl	$1, %eax
	movl	%edx, 12(%rbp)
	jne	.L1570
	movq	0(%rbp), %rax
	movq	%rbp, %rdi
	call	*24(%rax)
	.p2align 4,,10
	.p2align 3
.L1570:
	addq	$32, %r12
	cmpq	32(%rsp), %r12
	je	.L1691
.L1573:
	movq	24(%r12), %rbp
	testq	%rbp, %rbp
	je	.L1570
	movl	8(%rbp), %eax
	leal	-1(%rax), %edx
	cmpl	$1, %eax
	movl	%edx, 8(%rbp)
	je	.L1692
	addq	$32, %r12
	cmpq	32(%rsp), %r12
	jne	.L1573
	jmp	.L1691
	.p2align 4,,10
	.p2align 3
.L1694:
	addq	$24, %rbp
.L1610:
	movq	16(%rdi), %r12
	testq	%r12, %r12
	je	.L1607
	movl	8(%r12), %eax
	leal	-1(%rax), %edx
	cmpl	$1, %eax
	movl	%edx, 8(%r12)
	je	.L1693
.L1607:
	cmpq	%rbp, %r13
	movq	%rbp, %rdi
	jne	.L1694
	jmp	.L1609
.L1691:
	movq	8(%rsp), %rdx
	cmpq	%rdx, 24(%rsp)
	je	.L1565
	.p2align 4,,10
	.p2align 3
.L1584:
	movq	8(%rsp), %rax
	movq	24(%rax), %rbp
	testq	%rbp, %rbp
	je	.L1582
	movl	8(%rbp), %eax
	leal	-1(%rax), %edx
	cmpl	$1, %eax
	movl	%edx, 8(%rbp)
	je	.L1695
.L1582:
	addq	$32, 8(%rsp)
	movq	8(%rsp), %rax
	cmpq	%rax, 24(%rsp)
	jne	.L1584
	jmp	.L1565
.L1545:
	movl	8(%rbp), %eax
	leal	-1(%rax), %edx
	cmpl	$1, %eax
	movl	%edx, 8(%rbp)
	jne	.L1544
	movq	0(%rbp), %rax
	movq	%rbp, %rdi
	call	*16(%rax)
	movl	12(%rbp), %eax
	leal	-1(%rax), %edx
	movl	%edx, 12(%rbp)
	jmp	.L1642
.L1539:
	movl	8(%rbp), %eax
	leal	-1(%rax), %edx
	cmpl	$1, %eax
	movl	%edx, 8(%rbp)
	jne	.L1538
	movq	0(%rbp), %rax
	movq	%rbp, %rdi
	call	*16(%rax)
	movl	12(%rbp), %eax
	leal	-1(%rax), %edx
	movl	%edx, 12(%rbp)
	jmp	.L1641
.L1533:
	movl	8(%rbp), %eax
	leal	-1(%rax), %edx
	cmpl	$1, %eax
	movl	%edx, 8(%rbp)
	jne	.L1532
	movq	0(%rbp), %rax
	movq	%rbp, %rdi
	call	*16(%rax)
	movl	12(%rbp), %eax
	leal	-1(%rax), %edx
	movl	%edx, 12(%rbp)
	jmp	.L1640
.L1682:
	movq	0(%rbp), %rax
	movq	%rbp, %rdi
	call	*16(%rax)
	lock subl	$1, 12(%rbp)
	jne	.L1575
	movq	0(%rbp), %rax
	movq	%rbp, %rdi
	addq	$32, %r12
	call	*24(%rax)
	cmpq	%r12, 32(%rsp)
	jne	.L1567
	jmp	.L1696
	.p2align 4,,10
	.p2align 3
.L1684:
	movq	(%r12), %rax
	movq	%r12, %rdi
	call	*16(%rax)
	lock subl	$1, 12(%r12)
	jne	.L1612
	movq	(%r12), %rax
	movq	%r12, %rdi
	call	*24(%rax)
	jmp	.L1612
.L1693:
	movq	(%r12), %rax
	movq	%r12, %rdi
	call	*16(%rax)
	movl	12(%r12), %eax
	leal	-1(%rax), %edx
	cmpl	$1, %eax
	movl	%edx, 12(%r12)
	jne	.L1607
	movq	(%r12), %rax
	movq	%r12, %rdi
	call	*24(%rax)
	jmp	.L1607
.L1683:
	movq	0(%rbp), %rax
	movq	%rbp, %rdi
	call	*16(%rax)
	lock subl	$1, 12(%rbp)
	jne	.L1586
	movq	0(%rbp), %rax
	movq	%rbp, %rdi
	call	*24(%rax)
	jmp	.L1586
.L1563:
	cmpq	%r12, 24(%rsp)
	je	.L1565
	cmpq	$0, _ZL28__gthrw___pthread_key_createPjPFvPvE@GOTPCREL(%rip)
	je	.L1595
	.p2align 4,,10
	.p2align 3
.L1590:
	movq	24(%r12), %rbp
	testq	%rbp, %rbp
	je	.L1597
	lock subl	$1, 8(%rbp)
	je	.L1697
.L1597:
	addq	$32, %r12
	cmpq	%r12, 24(%rsp)
	jne	.L1590
	jmp	.L1565
.L1698:
	movq	0(%rbp), %rax
	movq	%rbp, %rdi
	call	*16(%rax)
	movl	12(%rbp), %eax
	leal	-1(%rax), %edx
	cmpl	$1, %eax
	movl	%edx, 12(%rbp)
	jne	.L1593
	movq	0(%rbp), %rax
	movq	%rbp, %rdi
	call	*24(%rax)
	.p2align 4,,10
	.p2align 3
.L1593:
	addq	$32, %r12
	cmpq	24(%rsp), %r12
	je	.L1565
.L1595:
	movq	24(%r12), %rbp
	testq	%rbp, %rbp
	je	.L1593
	movl	8(%rbp), %eax
	leal	-1(%rax), %edx
	cmpl	$1, %eax
	movl	%edx, 8(%rbp)
	je	.L1698
	addq	$32, %r12
	cmpq	24(%rsp), %r12
	jne	.L1595
	jmp	.L1565
	.p2align 4,,10
	.p2align 3
.L1695:
	movq	0(%rbp), %rax
	movq	%rbp, %rdi
	call	*16(%rax)
	movl	12(%rbp), %eax
	leal	-1(%rax), %edx
	cmpl	$1, %eax
	movl	%edx, 12(%rbp)
	jne	.L1582
	movq	0(%rbp), %rax
	movq	%rbp, %rdi
	call	*24(%rax)
	jmp	.L1582
.L1631:
	movl	8(%rbp), %eax
	leal	-1(%rax), %edx
	cmpl	$1, %eax
	movl	%edx, 8(%rbp)
	jne	.L1630
	movq	0(%rbp), %rax
	movq	%rbp, %rdi
	call	*16(%rax)
	movl	12(%rbp), %eax
	leal	-1(%rax), %edx
	movl	%edx, 12(%rbp)
.L1650:
	cmpl	$1, %eax
	jne	.L1630
	movq	0(%rbp), %rax
	movq	%rbp, %rdi
	call	*24(%rax)
	jmp	.L1630
.L1637:
	movl	12(%rdi), %eax
	leal	-1(%rax), %edx
	cmpl	$1, %eax
	movl	%edx, 12(%rdi)
	jne	.L1525
.L1689:
	movq	(%rdi), %rax
	movq	24(%rax), %rax
	addq	$56, %rsp
	.cfi_remember_state
	.cfi_def_cfa_offset 56
	popq	%rbx
	.cfi_def_cfa_offset 48
	popq	%rbp
	.cfi_def_cfa_offset 40
	popq	%r12
	.cfi_def_cfa_offset 32
	popq	%r13
	.cfi_def_cfa_offset 24
	popq	%r14
	.cfi_def_cfa_offset 16
	popq	%r15
	.cfi_def_cfa_offset 8
	jmp	*%rax
.L1619:
	.cfi_restore_state
	movl	8(%rbp), %eax
	leal	-1(%rax), %edx
	cmpl	$1, %eax
	movl	%edx, 8(%rbp)
	jne	.L1618
	movq	0(%rbp), %rax
	movq	%rbp, %rdi
	call	*16(%rax)
	movl	12(%rbp), %eax
	leal	-1(%rax), %edx
	movl	%edx, 12(%rbp)
.L1648:
	cmpl	$1, %eax
	jne	.L1618
	movq	0(%rbp), %rax
	movq	%rbp, %rdi
	call	*24(%rax)
	jmp	.L1618
.L1625:
	movl	8(%rbp), %eax
	leal	-1(%rax), %edx
	cmpl	$1, %eax
	movl	%edx, 8(%rbp)
	jne	.L1624
	movq	0(%rbp), %rax
	movq	%rbp, %rdi
	call	*16(%rax)
	movl	12(%rbp), %eax
	leal	-1(%rax), %edx
	movl	%edx, 12(%rbp)
.L1649:
	cmpl	$1, %eax
	jne	.L1624
	movq	0(%rbp), %rax
	movq	%rbp, %rdi
	call	*24(%rax)
	jmp	.L1624
.L1680:
	movq	0(%rbp), %rax
	movq	%rbp, %rdi
	call	*16(%rax)
	movl	$-1, %eax
	lock xaddl	%eax, 12(%rbp)
.L1642:
	cmpl	$1, %eax
	jne	.L1544
	movq	0(%rbp), %rax
	movq	%rbp, %rdi
	call	*24(%rax)
	jmp	.L1544
.L1678:
	movq	0(%rbp), %rax
	movq	%rbp, %rdi
	call	*16(%rax)
	movl	$-1, %eax
	lock xaddl	%eax, 12(%rbp)
.L1640:
	cmpl	$1, %eax
	jne	.L1532
	movq	0(%rbp), %rax
	movq	%rbp, %rdi
	call	*24(%rax)
	jmp	.L1532
.L1679:
	movq	0(%rbp), %rax
	movq	%rbp, %rdi
	call	*16(%rax)
	movl	$-1, %eax
	lock xaddl	%eax, 12(%rbp)
.L1641:
	cmpl	$1, %eax
	jne	.L1538
	movq	0(%rbp), %rax
	movq	%rbp, %rdi
	call	*24(%rax)
	jmp	.L1538
.L1697:
	movq	0(%rbp), %rax
	movq	%rbp, %rdi
	call	*16(%rax)
	lock subl	$1, 12(%rbp)
	jne	.L1597
	movq	0(%rbp), %rax
	movq	%rbp, %rdi
	call	*24(%rax)
	jmp	.L1597
.L1681:
	movq	8(%rsp), %rdx
	cmpq	%rdx, 24(%rsp)
	je	.L1565
	cmpq	$0, _ZL28__gthrw___pthread_key_createPjPFvPvE@GOTPCREL(%rip)
	jne	.L1589
	jmp	.L1584
.L1686:
	movq	0(%rbp), %rax
	movq	%rbp, %rdi
	call	*16(%rax)
	movl	$-1, %eax
	lock xaddl	%eax, 12(%rbp)
	jmp	.L1648
.L1688:
	movq	0(%rbp), %rax
	movq	%rbp, %rdi
	call	*16(%rax)
	movl	$-1, %eax
	lock xaddl	%eax, 12(%rbp)
	jmp	.L1650
.L1687:
	movq	0(%rbp), %rax
	movq	%rbp, %rdi
	call	*16(%rax)
	movl	$-1, %eax
	lock xaddl	%eax, 12(%rbp)
	jmp	.L1649
	.cfi_endproc
.LFE7473:
	.size	_ZN8asiodnp39IOHandlerD2Ev, .-_ZN8asiodnp39IOHandlerD2Ev
	.set	.LTHUNK0,_ZN8asiodnp39IOHandlerD2Ev
	.p2align 4,,15
	.weak	_ZThn8_N8asiodnp39IOHandlerD1Ev
	.type	_ZThn8_N8asiodnp39IOHandlerD1Ev, @function
_ZThn8_N8asiodnp39IOHandlerD1Ev:
.LFB10571:
	.cfi_startproc
	subq	$8, %rdi
	jmp	.LTHUNK0
	.cfi_endproc
.LFE10571:
	.size	_ZThn8_N8asiodnp39IOHandlerD1Ev, .-_ZThn8_N8asiodnp39IOHandlerD1Ev
	.weak	_ZN8asiodnp39IOHandlerD1Ev
	.set	_ZN8asiodnp39IOHandlerD1Ev,_ZN8asiodnp39IOHandlerD2Ev
	.section	.text._ZN8asiodnp39IOHandlerD0Ev,"axG",@progbits,_ZN8asiodnp39IOHandlerD5Ev,comdat
	.align 2
	.p2align 4,,15
	.weak	_ZN8asiodnp39IOHandlerD0Ev
	.type	_ZN8asiodnp39IOHandlerD0Ev, @function
_ZN8asiodnp39IOHandlerD0Ev:
.LFB7475:
	.cfi_startproc
	pushq	%rbx
	.cfi_def_cfa_offset 16
	.cfi_offset 3, -16
	movq	%rdi, %rbx
	call	_ZN8asiodnp39IOHandlerD1Ev@PLT
	movq	%rbx, %rdi
	movl	$800, %esi
	popq	%rbx
	.cfi_def_cfa_offset 8
	jmp	_ZdlPvm@PLT
	.cfi_endproc
.LFE7475:
	.size	_ZN8asiodnp39IOHandlerD0Ev, .-_ZN8asiodnp39IOHandlerD0Ev
	.p2align 4,,15
	.weak	_ZThn8_N8asiodnp39IOHandlerD0Ev
	.type	_ZThn8_N8asiodnp39IOHandlerD0Ev, @function
_ZThn8_N8asiodnp39IOHandlerD0Ev:
.LFB10560:
	.cfi_startproc
	pushq	%rbx
	.cfi_def_cfa_offset 16
	.cfi_offset 3, -16
	leaq	-8(%rdi), %rbx
	movq	%rbx, %rdi
	call	_ZN8asiodnp39IOHandlerD1Ev@PLT
	movq	%rbx, %rdi
	movl	$800, %esi
	popq	%rbx
	.cfi_def_cfa_offset 8
	jmp	_ZdlPvm@PLT
	.cfi_endproc
.LFE10560:
	.size	_ZThn8_N8asiodnp39IOHandlerD0Ev, .-_ZThn8_N8asiodnp39IOHandlerD0Ev
	.text
	.align 2
	.p2align 4,,15
	.globl	_ZN8asiodnp318TCPClientIOHandlerC2ERKN7openpal6LoggerERKSt10shared_ptrINS_16IChannelListenerEERKS5_IN7asiopal8ExecutorEERKNSA_12ChannelRetryERKNSA_10IPEndpointERKNSt7__cxx1112basic_stringIcSt11char_traitsIcESaIcEEE
	.type	_ZN8asiodnp318TCPClientIOHandlerC2ERKN7openpal6LoggerERKSt10shared_ptrINS_16IChannelListenerEERKS5_IN7asiopal8ExecutorEERKNSA_12ChannelRetryERKNSA_10IPEndpointERKNSt7__cxx1112basic_stringIcSt11char_traitsIcESaIcEEE, @function
_ZN8asiodnp318TCPClientIOHandlerC2ERKN7openpal6LoggerERKSt10shared_ptrINS_16IChannelListenerEERKS5_IN7asiopal8ExecutorEERKNSA_12ChannelRetryERKNSA_10IPEndpointERKNSt7__cxx1112basic_stringIcSt11char_traitsIcESaIcEEE:
.LFB7556:
	.cfi_startproc
	.cfi_personality 0x9b,DW.ref.__gxx_personality_v0
	.cfi_lsda 0x1b,.LLSDA7556
	pushq	%r15
	.cfi_def_cfa_offset 16
	.cfi_offset 15, -16
	pushq	%r14
	.cfi_def_cfa_offset 24
	.cfi_offset 14, -24
	pushq	%r13
	.cfi_def_cfa_offset 32
	.cfi_offset 13, -32
	pushq	%r12
	.cfi_def_cfa_offset 40
	.cfi_offset 12, -40
	movq	%r9, %r13
	pushq	%rbp
	.cfi_def_cfa_offset 48
	.cfi_offset 6, -48
	pushq	%rbx
	.cfi_def_cfa_offset 56
	.cfi_offset 3, -56
	movq	%rcx, %r12
	movq	%rdi, %rbx
	movq	%r8, %rbp
	subq	$56, %rsp
	.cfi_def_cfa_offset 112
	movq	%fs:40, %rax
	movq	%rax, 40(%rsp)
	xorl	%eax, %eax
	movq	112(%rsp), %r15
.LEHB20:
	call	_ZN8asiodnp39IOHandlerC2ERKN7openpal6LoggerERKSt10shared_ptrINS_16IChannelListenerEE@PLT
.LEHE20:
	movq	_ZTVN8asiodnp318TCPClientIOHandlerE@GOTPCREL(%rip), %rax
	leaq	16(%rax), %rdx
	addq	$104, %rax
	movq	%rax, 8(%rbx)
	movq	%rdx, (%rbx)
	movq	(%r12), %rax
	movq	%rax, 800(%rbx)
	movq	8(%r12), %rax
	testq	%rax, %rax
	movq	%rax, 808(%rbx)
	je	.L1704
	cmpq	$0, _ZL28__gthrw___pthread_key_createPjPFvPvE@GOTPCREL(%rip)
	jne	.L1752
	addl	$1, 8(%rax)
.L1704:
	movdqu	0(%rbp), %xmm0
	movups	%xmm0, 816(%rbx)
	movq	16(%rbp), %rax
	movq	%rax, 832(%rbx)
	leaq	856(%rbx), %rax
	movq	%rax, 840(%rbx)
	movq	0(%r13), %r14
	movq	8(%r13), %rbp
	movq	%rax, 8(%rsp)
	movq	%r14, %rax
	addq	%rbp, %rax
	je	.L1706
	testq	%r14, %r14
	je	.L1753
.L1706:
	cmpq	$15, %rbp
	movq	%rbp, 24(%rsp)
	ja	.L1754
	cmpq	$1, %rbp
	jne	.L1709
	movzbl	(%r14), %eax
	movb	%al, 856(%rbx)
	movq	8(%rsp), %rax
.L1710:
	movq	%rbp, 848(%rbx)
	movb	$0, (%rax,%rbp)
	movzwl	32(%r13), %eax
	leaq	896(%rbx), %r13
	movq	%r13, 880(%rbx)
	movw	%ax, 872(%rbx)
	movq	(%r15), %rbp
	movq	8(%r15), %r14
	movq	%rbp, %rax
	addq	%r14, %rax
	je	.L1711
	testq	%rbp, %rbp
	je	.L1755
.L1711:
	cmpq	$15, %r14
	movq	%r14, 32(%rsp)
	ja	.L1756
	cmpq	$1, %r14
	jne	.L1714
	movzbl	0(%rbp), %eax
	movb	%al, 896(%rbx)
	movq	%r13, %rax
.L1715:
	movq	%r14, 888(%rbx)
	movb	$0, (%rax,%r14)
	leaq	928(%rbx), %rdi
	movq	(%r12), %rsi
	movq	$0, 912(%rbx)
	movq	$0, 920(%rbx)
.LEHB21:
	call	_ZN7openpal8TimerRefC1ERNS_9IExecutorE@PLT
.LEHE21:
	movq	40(%rsp), %rax
	xorq	%fs:40, %rax
	jne	.L1757
	addq	$56, %rsp
	.cfi_remember_state
	.cfi_def_cfa_offset 56
	popq	%rbx
	.cfi_def_cfa_offset 48
	popq	%rbp
	.cfi_def_cfa_offset 40
	popq	%r12
	.cfi_def_cfa_offset 32
	popq	%r13
	.cfi_def_cfa_offset 24
	popq	%r14
	.cfi_def_cfa_offset 16
	popq	%r15
	.cfi_def_cfa_offset 8
	ret
	.p2align 4,,10
	.p2align 3
.L1752:
	.cfi_restore_state
	lock addl	$1, 8(%rax)
	jmp	.L1704
	.p2align 4,,10
	.p2align 3
.L1754:
	leaq	24(%rsp), %rsi
	leaq	840(%rbx), %rdi
	xorl	%edx, %edx
.LEHB22:
	call	_ZNSt7__cxx1112basic_stringIcSt11char_traitsIcESaIcEE9_M_createERmm@PLT
.LEHE22:
	movq	24(%rsp), %rdx
	movq	%rax, 840(%rbx)
	movq	%rdx, 856(%rbx)
.L1708:
	movq	%rbp, %rdx
	movq	%r14, %rsi
	movq	%rax, %rdi
	call	memcpy@PLT
	movq	24(%rsp), %rbp
	movq	840(%rbx), %rax
	jmp	.L1710
	.p2align 4,,10
	.p2align 3
.L1756:
	leaq	32(%rsp), %rsi
	leaq	880(%rbx), %rdi
	xorl	%edx, %edx
.LEHB23:
	call	_ZNSt7__cxx1112basic_stringIcSt11char_traitsIcESaIcEE9_M_createERmm@PLT
.LEHE23:
	movq	32(%rsp), %rdx
	movq	%rax, 880(%rbx)
	movq	%rdx, 896(%rbx)
.L1713:
	movq	%r14, %rdx
	movq	%rbp, %rsi
	movq	%rax, %rdi
	call	memcpy@PLT
	movq	32(%rsp), %r14
	movq	880(%rbx), %rax
	jmp	.L1715
	.p2align 4,,10
	.p2align 3
.L1709:
	testq	%rbp, %rbp
	movq	8(%rsp), %rax
	je	.L1710
	jmp	.L1708
	.p2align 4,,10
	.p2align 3
.L1714:
	testq	%r14, %r14
	movq	%r13, %rax
	je	.L1715
	jmp	.L1713
.L1753:
	leaq	.LC4(%rip), %rdi
.LEHB24:
	call	_ZSt19__throw_logic_errorPKc@PLT
.LEHE24:
.L1726:
	movq	%rax, %rbp
.L1721:
	movq	808(%rbx), %rdi
	testq	%rdi, %rdi
	je	.L1722
	call	_ZNSt16_Sp_counted_baseILN9__gnu_cxx12_Lock_policyE2EE10_M_releaseEv@PLT
.L1722:
	movq	%rbx, %rdi
	call	_ZN8asiodnp39IOHandlerD2Ev@PLT
	movq	%rbp, %rdi
.LEHB25:
	call	_Unwind_Resume@PLT
.LEHE25:
.L1757:
	call	__stack_chk_fail@PLT
.L1755:
	leaq	.LC4(%rip), %rdi
.LEHB26:
	call	_ZSt19__throw_logic_errorPKc@PLT
.LEHE26:
.L1727:
	movq	%rax, %rbp
.L1719:
	movq	840(%rbx), %rdi
	cmpq	%rdi, 8(%rsp)
	je	.L1721
	call	_ZdlPv@PLT
	jmp	.L1721
.L1728:
	movq	920(%rbx), %rdi
	movq	%rax, %rbp
	testq	%rdi, %rdi
	je	.L1717
	call	_ZNSt16_Sp_counted_baseILN9__gnu_cxx12_Lock_policyE2EE10_M_releaseEv@PLT
.L1717:
	movq	880(%rbx), %rdi
	cmpq	%rdi, %r13
	je	.L1719
	call	_ZdlPv@PLT
	jmp	.L1719
	.cfi_endproc
.LFE7556:
	.section	.gcc_except_table
.LLSDA7556:
	.byte	0xff
	.byte	0xff
	.byte	0x1
	.uleb128 .LLSDACSE7556-.LLSDACSB7556
.LLSDACSB7556:
	.uleb128 .LEHB20-.LFB7556
	.uleb128 .LEHE20-.LEHB20
	.uleb128 0
	.uleb128 0
	.uleb128 .LEHB21-.LFB7556
	.uleb128 .LEHE21-.LEHB21
	.uleb128 .L1728-.LFB7556
	.uleb128 0
	.uleb128 .LEHB22-.LFB7556
	.uleb128 .LEHE22-.LEHB22
	.uleb128 .L1726-.LFB7556
	.uleb128 0
	.uleb128 .LEHB23-.LFB7556
	.uleb128 .LEHE23-.LEHB23
	.uleb128 .L1727-.LFB7556
	.uleb128 0
	.uleb128 .LEHB24-.LFB7556
	.uleb128 .LEHE24-.LEHB24
	.uleb128 .L1726-.LFB7556
	.uleb128 0
	.uleb128 .LEHB25-.LFB7556
	.uleb128 .LEHE25-.LEHB25
	.uleb128 0
	.uleb128 0
	.uleb128 .LEHB26-.LFB7556
	.uleb128 .LEHE26-.LEHB26
	.uleb128 .L1727-.LFB7556
	.uleb128 0
.LLSDACSE7556:
	.text
	.size	_ZN8asiodnp318TCPClientIOHandlerC2ERKN7openpal6LoggerERKSt10shared_ptrINS_16IChannelListenerEERKS5_IN7asiopal8ExecutorEERKNSA_12ChannelRetryERKNSA_10IPEndpointERKNSt7__cxx1112basic_stringIcSt11char_traitsIcESaIcEEE, .-_ZN8asiodnp318TCPClientIOHandlerC2ERKN7openpal6LoggerERKSt10shared_ptrINS_16IChannelListenerEERKS5_IN7asiopal8ExecutorEERKNSA_12ChannelRetryERKNSA_10IPEndpointERKNSt7__cxx1112basic_stringIcSt11char_traitsIcESaIcEEE
	.globl	_ZN8asiodnp318TCPClientIOHandlerC1ERKN7openpal6LoggerERKSt10shared_ptrINS_16IChannelListenerEERKS5_IN7asiopal8ExecutorEERKNSA_12ChannelRetryERKNSA_10IPEndpointERKNSt7__cxx1112basic_stringIcSt11char_traitsIcESaIcEEE
	.set	_ZN8asiodnp318TCPClientIOHandlerC1ERKN7openpal6LoggerERKSt10shared_ptrINS_16IChannelListenerEERKS5_IN7asiopal8ExecutorEERKNSA_12ChannelRetryERKNSA_10IPEndpointERKNSt7__cxx1112basic_stringIcSt11char_traitsIcESaIcEEE,_ZN8asiodnp318TCPClientIOHandlerC2ERKN7openpal6LoggerERKSt10shared_ptrINS_16IChannelListenerEERKS5_IN7asiopal8ExecutorEERKNSA_12ChannelRetryERKNSA_10IPEndpointERKNSt7__cxx1112basic_stringIcSt11char_traitsIcESaIcEEE
	.section	.text._ZN8asiodnp318TCPClientIOHandlerD2Ev,"axG",@progbits,_ZN8asiodnp318TCPClientIOHandlerD5Ev,comdat
	.align 2
	.p2align 4,,15
	.weak	_ZN8asiodnp318TCPClientIOHandlerD2Ev
	.type	_ZN8asiodnp318TCPClientIOHandlerD2Ev, @function
_ZN8asiodnp318TCPClientIOHandlerD2Ev:
.LFB10183:
	.cfi_startproc
	pushq	%rbp
	.cfi_def_cfa_offset 16
	.cfi_offset 6, -16
	pushq	%rbx
	.cfi_def_cfa_offset 24
	.cfi_offset 3, -24
	movq	%rdi, %rbx
	addq	$928, %rdi
	subq	$8, %rsp
	.cfi_def_cfa_offset 32
	movq	_ZTVN8asiodnp318TCPClientIOHandlerE@GOTPCREL(%rip), %rax
	leaq	16(%rax), %rdx
	addq	$104, %rax
	movq	%rax, -920(%rdi)
	movq	%rdx, -928(%rdi)
	call	_ZN7openpal8TimerRefD1Ev@PLT
	movq	920(%rbx), %rbp
	testq	%rbp, %rbp
	je	.L1760
	cmpq	$0, _ZL28__gthrw___pthread_key_createPjPFvPvE@GOTPCREL(%rip)
	je	.L1761
	lock subl	$1, 8(%rbp)
	je	.L1776
.L1760:
	movq	880(%rbx), %rdi
	leaq	896(%rbx), %rax
	cmpq	%rax, %rdi
	je	.L1765
	call	_ZdlPv@PLT
.L1765:
	movq	840(%rbx), %rdi
	leaq	856(%rbx), %rax
	cmpq	%rax, %rdi
	je	.L1766
	call	_ZdlPv@PLT
.L1766:
	movq	808(%rbx), %rbp
	testq	%rbp, %rbp
	je	.L1768
	cmpq	$0, _ZL28__gthrw___pthread_key_createPjPFvPvE@GOTPCREL(%rip)
	je	.L1769
	lock subl	$1, 8(%rbp)
	je	.L1777
.L1768:
	addq	$8, %rsp
	.cfi_remember_state
	.cfi_def_cfa_offset 24
	movq	%rbx, %rdi
	popq	%rbx
	.cfi_def_cfa_offset 16
	popq	%rbp
	.cfi_def_cfa_offset 8
	jmp	_ZN8asiodnp39IOHandlerD2Ev@PLT
	.p2align 4,,10
	.p2align 3
.L1769:
	.cfi_restore_state
	movl	8(%rbp), %eax
	leal	-1(%rax), %edx
	cmpl	$1, %eax
	movl	%edx, 8(%rbp)
	jne	.L1768
	movq	0(%rbp), %rax
	movq	%rbp, %rdi
	call	*16(%rax)
	movl	12(%rbp), %eax
	leal	-1(%rax), %edx
	movl	%edx, 12(%rbp)
	jmp	.L1774
	.p2align 4,,10
	.p2align 3
.L1761:
	movl	8(%rbp), %eax
	leal	-1(%rax), %edx
	cmpl	$1, %eax
	movl	%edx, 8(%rbp)
	jne	.L1760
	movq	0(%rbp), %rax
	movq	%rbp, %rdi
	call	*16(%rax)
	movl	12(%rbp), %eax
	leal	-1(%rax), %edx
	movl	%edx, 12(%rbp)
	jmp	.L1773
	.p2align 4,,10
	.p2align 3
.L1777:
	movq	0(%rbp), %rax
	movq	%rbp, %rdi
	call	*16(%rax)
	movl	$-1, %eax
	lock xaddl	%eax, 12(%rbp)
.L1774:
	cmpl	$1, %eax
	jne	.L1768
	movq	0(%rbp), %rax
	movq	%rbp, %rdi
	call	*24(%rax)
	jmp	.L1768
	.p2align 4,,10
	.p2align 3
.L1776:
	movq	0(%rbp), %rax
	movq	%rbp, %rdi
	call	*16(%rax)
	movl	$-1, %eax
	lock xaddl	%eax, 12(%rbp)
.L1773:
	cmpl	$1, %eax
	jne	.L1760
	movq	0(%rbp), %rax
	movq	%rbp, %rdi
	call	*24(%rax)
	jmp	.L1760
	.cfi_endproc
.LFE10183:
	.size	_ZN8asiodnp318TCPClientIOHandlerD2Ev, .-_ZN8asiodnp318TCPClientIOHandlerD2Ev
	.weak	_ZN8asiodnp318TCPClientIOHandlerD1Ev
	.set	_ZN8asiodnp318TCPClientIOHandlerD1Ev,_ZN8asiodnp318TCPClientIOHandlerD2Ev
	.section	.text._ZN8asiodnp318TCPClientIOHandlerD0Ev,"axG",@progbits,_ZN8asiodnp318TCPClientIOHandlerD5Ev,comdat
	.p2align 4,,15
	.weak	_ZThn8_N8asiodnp318TCPClientIOHandlerD0Ev
	.type	_ZThn8_N8asiodnp318TCPClientIOHandlerD0Ev, @function
_ZThn8_N8asiodnp318TCPClientIOHandlerD0Ev:
.LFB10561:
	.cfi_startproc
	movq	_ZTVN8asiodnp318TCPClientIOHandlerE@GOTPCREL(%rip), %rax
	pushq	%r12
	.cfi_def_cfa_offset 16
	.cfi_offset 12, -16
	leaq	-8(%rdi), %r12
	pushq	%rbp
	.cfi_def_cfa_offset 24
	.cfi_offset 6, -24
	pushq	%rbx
	.cfi_def_cfa_offset 32
	.cfi_offset 3, -32
	movq	%rdi, %rbx
	addq	$920, %rdi
	leaq	16(%rax), %rdx
	addq	$104, %rax
	movq	%rax, -920(%rdi)
	movq	%rdx, -928(%rdi)
	call	_ZN7openpal8TimerRefD1Ev@PLT
	movq	912(%rbx), %rbp
	testq	%rbp, %rbp
	je	.L1780
	cmpq	$0, _ZL28__gthrw___pthread_key_createPjPFvPvE@GOTPCREL(%rip)
	je	.L1781
	lock subl	$1, 8(%rbp)
	je	.L1796
.L1780:
	movq	872(%rbx), %rdi
	leaq	888(%rbx), %rax
	cmpq	%rax, %rdi
	je	.L1785
	call	_ZdlPv@PLT
.L1785:
	movq	832(%rbx), %rdi
	leaq	848(%rbx), %rax
	cmpq	%rax, %rdi
	je	.L1786
	call	_ZdlPv@PLT
.L1786:
	movq	800(%rbx), %rbx
	testq	%rbx, %rbx
	je	.L1788
	cmpq	$0, _ZL28__gthrw___pthread_key_createPjPFvPvE@GOTPCREL(%rip)
	je	.L1789
	lock subl	$1, 8(%rbx)
	je	.L1797
.L1788:
	movq	%r12, %rdi
	call	_ZN8asiodnp39IOHandlerD2Ev@PLT
	popq	%rbx
	.cfi_remember_state
	.cfi_def_cfa_offset 24
	movq	%r12, %rdi
	movl	$944, %esi
	popq	%rbp
	.cfi_def_cfa_offset 16
	popq	%r12
	.cfi_def_cfa_offset 8
	jmp	_ZdlPvm@PLT
	.p2align 4,,10
	.p2align 3
.L1789:
	.cfi_restore_state
	movl	8(%rbx), %eax
	leal	-1(%rax), %edx
	cmpl	$1, %eax
	movl	%edx, 8(%rbx)
	jne	.L1788
	movq	(%rbx), %rax
	movq	%rbx, %rdi
	call	*16(%rax)
	movl	12(%rbx), %eax
	leal	-1(%rax), %edx
	movl	%edx, 12(%rbx)
	jmp	.L1794
	.p2align 4,,10
	.p2align 3
.L1781:
	movl	8(%rbp), %eax
	leal	-1(%rax), %edx
	cmpl	$1, %eax
	movl	%edx, 8(%rbp)
	jne	.L1780
	movq	0(%rbp), %rax
	movq	%rbp, %rdi
	call	*16(%rax)
	movl	12(%rbp), %eax
	leal	-1(%rax), %edx
	movl	%edx, 12(%rbp)
	jmp	.L1793
	.p2align 4,,10
	.p2align 3
.L1797:
	movq	(%rbx), %rax
	movq	%rbx, %rdi
	call	*16(%rax)
	movl	$-1, %eax
	lock xaddl	%eax, 12(%rbx)
.L1794:
	cmpl	$1, %eax
	jne	.L1788
	movq	(%rbx), %rax
	movq	%rbx, %rdi
	call	*24(%rax)
	jmp	.L1788
	.p2align 4,,10
	.p2align 3
.L1796:
	movq	0(%rbp), %rax
	movq	%rbp, %rdi
	call	*16(%rax)
	movl	$-1, %eax
	lock xaddl	%eax, 12(%rbp)
.L1793:
	cmpl	$1, %eax
	jne	.L1780
	movq	0(%rbp), %rax
	movq	%rbp, %rdi
	call	*24(%rax)
	jmp	.L1780
	.cfi_endproc
.LFE10561:
	.size	_ZThn8_N8asiodnp318TCPClientIOHandlerD0Ev, .-_ZThn8_N8asiodnp318TCPClientIOHandlerD0Ev
	.align 2
	.p2align 4,,15
	.weak	_ZN8asiodnp318TCPClientIOHandlerD0Ev
	.type	_ZN8asiodnp318TCPClientIOHandlerD0Ev, @function
_ZN8asiodnp318TCPClientIOHandlerD0Ev:
.LFB10185:
	.cfi_startproc
	pushq	%rbp
	.cfi_def_cfa_offset 16
	.cfi_offset 6, -16
	pushq	%rbx
	.cfi_def_cfa_offset 24
	.cfi_offset 3, -24
	movq	%rdi, %rbx
	addq	$928, %rdi
	subq	$8, %rsp
	.cfi_def_cfa_offset 32
	movq	_ZTVN8asiodnp318TCPClientIOHandlerE@GOTPCREL(%rip), %rax
	leaq	16(%rax), %rdx
	addq	$104, %rax
	movq	%rax, -920(%rdi)
	movq	%rdx, -928(%rdi)
	call	_ZN7openpal8TimerRefD1Ev@PLT
	movq	920(%rbx), %rbp
	testq	%rbp, %rbp
	je	.L1800
	cmpq	$0, _ZL28__gthrw___pthread_key_createPjPFvPvE@GOTPCREL(%rip)
	je	.L1801
	lock subl	$1, 8(%rbp)
	je	.L1816
.L1800:
	movq	880(%rbx), %rdi
	leaq	896(%rbx), %rax
	cmpq	%rax, %rdi
	je	.L1805
	call	_ZdlPv@PLT
.L1805:
	movq	840(%rbx), %rdi
	leaq	856(%rbx), %rax
	cmpq	%rax, %rdi
	je	.L1806
	call	_ZdlPv@PLT
.L1806:
	movq	808(%rbx), %rbp
	testq	%rbp, %rbp
	je	.L1808
	cmpq	$0, _ZL28__gthrw___pthread_key_createPjPFvPvE@GOTPCREL(%rip)
	je	.L1809
	lock subl	$1, 8(%rbp)
	je	.L1817
.L1808:
	movq	%rbx, %rdi
	call	_ZN8asiodnp39IOHandlerD2Ev@PLT
	addq	$8, %rsp
	.cfi_remember_state
	.cfi_def_cfa_offset 24
	movq	%rbx, %rdi
	movl	$944, %esi
	popq	%rbx
	.cfi_def_cfa_offset 16
	popq	%rbp
	.cfi_def_cfa_offset 8
	jmp	_ZdlPvm@PLT
	.p2align 4,,10
	.p2align 3
.L1809:
	.cfi_restore_state
	movl	8(%rbp), %eax
	leal	-1(%rax), %edx
	cmpl	$1, %eax
	movl	%edx, 8(%rbp)
	jne	.L1808
	movq	0(%rbp), %rax
	movq	%rbp, %rdi
	call	*16(%rax)
	movl	12(%rbp), %eax
	leal	-1(%rax), %edx
	movl	%edx, 12(%rbp)
	jmp	.L1814
	.p2align 4,,10
	.p2align 3
.L1801:
	movl	8(%rbp), %eax
	leal	-1(%rax), %edx
	cmpl	$1, %eax
	movl	%edx, 8(%rbp)
	jne	.L1800
	movq	0(%rbp), %rax
	movq	%rbp, %rdi
	call	*16(%rax)
	movl	12(%rbp), %eax
	leal	-1(%rax), %edx
	movl	%edx, 12(%rbp)
	jmp	.L1813
	.p2align 4,,10
	.p2align 3
.L1817:
	movq	0(%rbp), %rax
	movq	%rbp, %rdi
	call	*16(%rax)
	movl	$-1, %eax
	lock xaddl	%eax, 12(%rbp)
.L1814:
	cmpl	$1, %eax
	jne	.L1808
	movq	0(%rbp), %rax
	movq	%rbp, %rdi
	call	*24(%rax)
	jmp	.L1808
	.p2align 4,,10
	.p2align 3
.L1816:
	movq	0(%rbp), %rax
	movq	%rbp, %rdi
	call	*16(%rax)
	movl	$-1, %eax
	lock xaddl	%eax, 12(%rbp)
.L1813:
	cmpl	$1, %eax
	jne	.L1800
	movq	0(%rbp), %rax
	movq	%rbp, %rdi
	call	*24(%rax)
	jmp	.L1800
	.cfi_endproc
.LFE10185:
	.size	_ZN8asiodnp318TCPClientIOHandlerD0Ev, .-_ZN8asiodnp318TCPClientIOHandlerD0Ev
	.section	.text._ZN8asiodnp318TCPClientIOHandlerD2Ev,"axG",@progbits,_ZN8asiodnp318TCPClientIOHandlerD5Ev,comdat
	.p2align 4,,15
	.weak	_ZThn8_N8asiodnp318TCPClientIOHandlerD1Ev
	.type	_ZThn8_N8asiodnp318TCPClientIOHandlerD1Ev, @function
_ZThn8_N8asiodnp318TCPClientIOHandlerD1Ev:
.LFB10562:
	.cfi_startproc
	pushq	%rbp
	.cfi_def_cfa_offset 16
	.cfi_offset 6, -16
	pushq	%rbx
	.cfi_def_cfa_offset 24
	.cfi_offset 3, -24
	movq	%rdi, %rbx
	addq	$920, %rdi
	subq	$8, %rsp
	.cfi_def_cfa_offset 32
	movq	_ZTVN8asiodnp318TCPClientIOHandlerE@GOTPCREL(%rip), %rax
	leaq	16(%rax), %rdx
	addq	$104, %rax
	movq	%rax, -920(%rdi)
	movq	%rdx, -928(%rdi)
	call	_ZN7openpal8TimerRefD1Ev@PLT
	movq	912(%rbx), %rbp
	testq	%rbp, %rbp
	je	.L1820
	cmpq	$0, _ZL28__gthrw___pthread_key_createPjPFvPvE@GOTPCREL(%rip)
	je	.L1821
	lock subl	$1, 8(%rbp)
	je	.L1836
.L1820:
	movq	872(%rbx), %rdi
	leaq	888(%rbx), %rax
	cmpq	%rax, %rdi
	je	.L1825
	call	_ZdlPv@PLT
.L1825:
	movq	832(%rbx), %rdi
	leaq	848(%rbx), %rax
	cmpq	%rax, %rdi
	je	.L1826
	call	_ZdlPv@PLT
.L1826:
	movq	800(%rbx), %rbp
	testq	%rbp, %rbp
	je	.L1828
	cmpq	$0, _ZL28__gthrw___pthread_key_createPjPFvPvE@GOTPCREL(%rip)
	je	.L1829
	lock subl	$1, 8(%rbp)
	je	.L1837
.L1828:
	addq	$8, %rsp
	.cfi_remember_state
	.cfi_def_cfa_offset 24
	leaq	-8(%rbx), %rdi
	popq	%rbx
	.cfi_def_cfa_offset 16
	popq	%rbp
	.cfi_def_cfa_offset 8
	jmp	_ZN8asiodnp39IOHandlerD2Ev@PLT
	.p2align 4,,10
	.p2align 3
.L1829:
	.cfi_restore_state
	movl	8(%rbp), %eax
	leal	-1(%rax), %edx
	cmpl	$1, %eax
	movl	%edx, 8(%rbp)
	jne	.L1828
	movq	0(%rbp), %rax
	movq	%rbp, %rdi
	call	*16(%rax)
	movl	12(%rbp), %eax
	leal	-1(%rax), %edx
	movl	%edx, 12(%rbp)
	jmp	.L1834
	.p2align 4,,10
	.p2align 3
.L1821:
	movl	8(%rbp), %eax
	leal	-1(%rax), %edx
	cmpl	$1, %eax
	movl	%edx, 8(%rbp)
	jne	.L1820
	movq	0(%rbp), %rax
	movq	%rbp, %rdi
	call	*16(%rax)
	movl	12(%rbp), %eax
	leal	-1(%rax), %edx
	movl	%edx, 12(%rbp)
	jmp	.L1833
	.p2align 4,,10
	.p2align 3
.L1837:
	movq	0(%rbp), %rax
	movq	%rbp, %rdi
	call	*16(%rax)
	movl	$-1, %eax
	lock xaddl	%eax, 12(%rbp)
.L1834:
	cmpl	$1, %eax
	jne	.L1828
	movq	0(%rbp), %rax
	movq	%rbp, %rdi
	call	*24(%rax)
	jmp	.L1828
	.p2align 4,,10
	.p2align 3
.L1836:
	movq	0(%rbp), %rax
	movq	%rbp, %rdi
	call	*16(%rax)
	movl	$-1, %eax
	lock xaddl	%eax, 12(%rbp)
.L1833:
	cmpl	$1, %eax
	jne	.L1820
	movq	0(%rbp), %rax
	movq	%rbp, %rdi
	call	*24(%rax)
	jmp	.L1820
	.cfi_endproc
.LFE10562:
	.size	_ZThn8_N8asiodnp318TCPClientIOHandlerD1Ev, .-_ZThn8_N8asiodnp318TCPClientIOHandlerD1Ev
	.section	.text.startup,"ax",@progbits
	.p2align 4,,15
	.type	_GLOBAL__sub_I_TCPClientIOHandler.cpp, @function
_GLOBAL__sub_I_TCPClientIOHandler.cpp:
.LFB10411:
	.cfi_startproc
	pushq	%rbx
	.cfi_def_cfa_offset 16
	.cfi_offset 3, -16
	call	_ZN4asio15system_categoryEv@PLT
	movq	_ZGVZN4asio5error18get_netdb_categoryEvE8instance@GOTPCREL(%rip), %rbx
	movzbl	(%rbx), %eax
	testb	%al, %al
	je	.L1863
.L1840:
	movq	_ZGVZN4asio5error21get_addrinfo_categoryEvE8instance@GOTPCREL(%rip), %rbx
	movzbl	(%rbx), %eax
	testb	%al, %al
	je	.L1864
.L1843:
	movq	_ZGVZN4asio5error17get_misc_categoryEvE8instance@GOTPCREL(%rip), %rbx
	movzbl	(%rbx), %eax
	testb	%al, %al
	je	.L1865
.L1846:
	movq	_ZGVN4asio6detail10call_stackINS0_15task_io_serviceENS0_27task_io_service_thread_infoEE4top_E@GOTPCREL(%rip), %rax
	cmpb	$0, (%rax)
	je	.L1866
.L1848:
	movq	_ZGVN4asio6detail12service_baseINS0_13epoll_reactorEE2idE@GOTPCREL(%rip), %rax
	cmpb	$0, (%rax)
	je	.L1867
.L1849:
	movq	_ZGVN4asio6detail12service_baseINS0_15task_io_serviceEE2idE@GOTPCREL(%rip), %rax
	cmpb	$0, (%rax)
	je	.L1868
.L1850:
	movq	_ZGVN4asio6detail10call_stackINS0_14strand_service11strand_implEhE4top_E@GOTPCREL(%rip), %rax
	cmpb	$0, (%rax)
	je	.L1869
.L1851:
	movq	_ZGVN4asio6detail12service_baseINS0_14strand_serviceEE2idE@GOTPCREL(%rip), %rax
	cmpb	$0, (%rax)
	je	.L1870
	popq	%rbx
	.cfi_remember_state
	.cfi_def_cfa_offset 8
	ret
.L1863:
	.cfi_restore_state
	movq	%rbx, %rdi
	call	__cxa_guard_acquire@PLT
	testl	%eax, %eax
	je	.L1840
	movq	%rbx, %rdi
	call	__cxa_guard_release@PLT
	movq	_ZZN4asio5error18get_netdb_categoryEvE8instance@GOTPCREL(%rip), %rsi
	movq	_ZN4asio5error6detail14netdb_categoryD1Ev@GOTPCREL(%rip), %rdi
	leaq	__dso_handle(%rip), %rdx
	call	__cxa_atexit@PLT
	jmp	.L1840
.L1870:
	movb	$1, (%rax)
	movq	_ZN4asio6detail12service_baseINS0_14strand_serviceEE2idE@GOTPCREL(%rip), %rsi
	leaq	__dso_handle(%rip), %rdx
	popq	%rbx
	.cfi_remember_state
	.cfi_def_cfa_offset 8
	movq	_ZN4asio6detail10service_idINS0_14strand_serviceEED1Ev@GOTPCREL(%rip), %rdi
	jmp	__cxa_atexit@PLT
.L1865:
	.cfi_restore_state
	movq	%rbx, %rdi
	call	__cxa_guard_acquire@PLT
	testl	%eax, %eax
	je	.L1846
	movq	%rbx, %rdi
	call	__cxa_guard_release@PLT
	movq	_ZZN4asio5error17get_misc_categoryEvE8instance@GOTPCREL(%rip), %rsi
	movq	_ZN4asio5error6detail13misc_categoryD1Ev@GOTPCREL(%rip), %rdi
	leaq	__dso_handle(%rip), %rdx
	call	__cxa_atexit@PLT
	jmp	.L1846
.L1864:
	movq	%rbx, %rdi
	call	__cxa_guard_acquire@PLT
	testl	%eax, %eax
	je	.L1843
	movq	%rbx, %rdi
	call	__cxa_guard_release@PLT
	movq	_ZZN4asio5error21get_addrinfo_categoryEvE8instance@GOTPCREL(%rip), %rsi
	movq	_ZN4asio5error6detail17addrinfo_categoryD1Ev@GOTPCREL(%rip), %rdi
	leaq	__dso_handle(%rip), %rdx
	call	__cxa_atexit@PLT
	jmp	.L1843
.L1869:
	movq	_ZN4asio6detail10call_stackINS0_14strand_service11strand_implEhE4top_E@GOTPCREL(%rip), %rsi
	movq	_ZN4asio6detail7tss_ptrINS0_10call_stackINS0_14strand_service11strand_implEhE7contextEED1Ev@GOTPCREL(%rip), %rdi
	leaq	__dso_handle(%rip), %rdx
	movb	$1, (%rax)
	call	__cxa_atexit@PLT
	jmp	.L1851
.L1868:
	movq	_ZN4asio6detail12service_baseINS0_15task_io_serviceEE2idE@GOTPCREL(%rip), %rsi
	movq	_ZN4asio6detail10service_idINS0_15task_io_serviceEED1Ev@GOTPCREL(%rip), %rdi
	leaq	__dso_handle(%rip), %rdx
	movb	$1, (%rax)
	call	__cxa_atexit@PLT
	jmp	.L1850
.L1867:
	movq	_ZN4asio6detail12service_baseINS0_13epoll_reactorEE2idE@GOTPCREL(%rip), %rsi
	movq	_ZN4asio6detail10service_idINS0_13epoll_reactorEED1Ev@GOTPCREL(%rip), %rdi
	leaq	__dso_handle(%rip), %rdx
	movb	$1, (%rax)
	call	__cxa_atexit@PLT
	jmp	.L1849
.L1866:
	movq	_ZN4asio6detail10call_stackINS0_15task_io_serviceENS0_27task_io_service_thread_infoEE4top_E@GOTPCREL(%rip), %rsi
	movq	_ZN4asio6detail7tss_ptrINS0_10call_stackINS0_15task_io_serviceENS0_27task_io_service_thread_infoEE7contextEED1Ev@GOTPCREL(%rip), %rdi
	leaq	__dso_handle(%rip), %rdx
	movb	$1, (%rax)
	call	__cxa_atexit@PLT
	jmp	.L1848
	.cfi_endproc
.LFE10411:
	.size	_GLOBAL__sub_I_TCPClientIOHandler.cpp, .-_GLOBAL__sub_I_TCPClientIOHandler.cpp
	.section	.init_array,"aw"
	.align 8
	.quad	_GLOBAL__sub_I_TCPClientIOHandler.cpp
	.weak	_ZTSSt11_Mutex_baseILN9__gnu_cxx12_Lock_policyE2EE
	.section	.rodata._ZTSSt11_Mutex_baseILN9__gnu_cxx12_Lock_policyE2EE,"aG",@progbits,_ZTSSt11_Mutex_baseILN9__gnu_cxx12_Lock_policyE2EE,comdat
	.align 32
	.type	_ZTSSt11_Mutex_baseILN9__gnu_cxx12_Lock_policyE2EE, @object
	.size	_ZTSSt11_Mutex_baseILN9__gnu_cxx12_Lock_policyE2EE, 47
_ZTSSt11_Mutex_baseILN9__gnu_cxx12_Lock_policyE2EE:
	.string	"St11_Mutex_baseILN9__gnu_cxx12_Lock_policyE2EE"
	.weak	_ZTISt11_Mutex_baseILN9__gnu_cxx12_Lock_policyE2EE
	.section	.data.rel.ro._ZTISt11_Mutex_baseILN9__gnu_cxx12_Lock_policyE2EE,"awG",@progbits,_ZTISt11_Mutex_baseILN9__gnu_cxx12_Lock_policyE2EE,comdat
	.align 8
	.type	_ZTISt11_Mutex_baseILN9__gnu_cxx12_Lock_policyE2EE, @object
	.size	_ZTISt11_Mutex_baseILN9__gnu_cxx12_Lock_policyE2EE, 16
_ZTISt11_Mutex_baseILN9__gnu_cxx12_Lock_policyE2EE:
	.quad	_ZTVN10__cxxabiv117__class_type_infoE+16
	.quad	_ZTSSt11_Mutex_baseILN9__gnu_cxx12_Lock_policyE2EE
	.weak	_ZTSSt23enable_shared_from_thisIN7asiopal13IAsyncChannelEE
	.section	.rodata._ZTSSt23enable_shared_from_thisIN7asiopal13IAsyncChannelEE,"aG",@progbits,_ZTSSt23enable_shared_from_thisIN7asiopal13IAsyncChannelEE,comdat
	.align 32
	.type	_ZTSSt23enable_shared_from_thisIN7asiopal13IAsyncChannelEE, @object
	.size	_ZTSSt23enable_shared_from_thisIN7asiopal13IAsyncChannelEE, 55
_ZTSSt23enable_shared_from_thisIN7asiopal13IAsyncChannelEE:
	.string	"St23enable_shared_from_thisIN7asiopal13IAsyncChannelEE"
	.weak	_ZTISt23enable_shared_from_thisIN7asiopal13IAsyncChannelEE
	.section	.data.rel.ro._ZTISt23enable_shared_from_thisIN7asiopal13IAsyncChannelEE,"awG",@progbits,_ZTISt23enable_shared_from_thisIN7asiopal13IAsyncChannelEE,comdat
	.align 8
	.type	_ZTISt23enable_shared_from_thisIN7asiopal13IAsyncChannelEE, @object
	.size	_ZTISt23enable_shared_from_thisIN7asiopal13IAsyncChannelEE, 16
_ZTISt23enable_shared_from_thisIN7asiopal13IAsyncChannelEE:
	.quad	_ZTVN10__cxxabiv117__class_type_infoE+16
	.quad	_ZTSSt23enable_shared_from_thisIN7asiopal13IAsyncChannelEE
	.weak	_ZTSN7openpal10UncopyableE
	.section	.rodata._ZTSN7openpal10UncopyableE,"aG",@progbits,_ZTSN7openpal10UncopyableE,comdat
	.align 16
	.type	_ZTSN7openpal10UncopyableE, @object
	.size	_ZTSN7openpal10UncopyableE, 23
_ZTSN7openpal10UncopyableE:
	.string	"N7openpal10UncopyableE"
	.weak	_ZTIN7openpal10UncopyableE
	.section	.data.rel.ro._ZTIN7openpal10UncopyableE,"awG",@progbits,_ZTIN7openpal10UncopyableE,comdat
	.align 8
	.type	_ZTIN7openpal10UncopyableE, @object
	.size	_ZTIN7openpal10UncopyableE, 16
_ZTIN7openpal10UncopyableE:
	.quad	_ZTVN10__cxxabiv117__class_type_infoE+16
	.quad	_ZTSN7openpal10UncopyableE
	.weak	_ZGVN4asio6detail12service_baseINS0_14strand_serviceEE2idE
	.section	.bss._ZGVN4asio6detail12service_baseINS0_14strand_serviceEE2idE,"awG",@nobits,_ZGVN4asio6detail12service_baseINS0_14strand_serviceEE2idE,comdat
	.align 8
	.type	_ZGVN4asio6detail12service_baseINS0_14strand_serviceEE2idE, @gnu_unique_object
	.size	_ZGVN4asio6detail12service_baseINS0_14strand_serviceEE2idE, 8
_ZGVN4asio6detail12service_baseINS0_14strand_serviceEE2idE:
	.zero	8
	.weak	_ZGVN4asio6detail10call_stackINS0_14strand_service11strand_implEhE4top_E
	.section	.bss._ZGVN4asio6detail10call_stackINS0_14strand_service11strand_implEhE4top_E,"awG",@nobits,_ZGVN4asio6detail10call_stackINS0_14strand_service11strand_implEhE4top_E,comdat
	.align 8
	.type	_ZGVN4asio6detail10call_stackINS0_14strand_service11strand_implEhE4top_E, @gnu_unique_object
	.size	_ZGVN4asio6detail10call_stackINS0_14strand_service11strand_implEhE4top_E, 8
_ZGVN4asio6detail10call_stackINS0_14strand_service11strand_implEhE4top_E:
	.zero	8
	.weak	_ZGVN4asio6detail12service_baseINS0_15task_io_serviceEE2idE
	.section	.bss._ZGVN4asio6detail12service_baseINS0_15task_io_serviceEE2idE,"awG",@nobits,_ZGVN4asio6detail12service_baseINS0_15task_io_serviceEE2idE,comdat
	.align 8
	.type	_ZGVN4asio6detail12service_baseINS0_15task_io_serviceEE2idE, @gnu_unique_object
	.size	_ZGVN4asio6detail12service_baseINS0_15task_io_serviceEE2idE, 8
_ZGVN4asio6detail12service_baseINS0_15task_io_serviceEE2idE:
	.zero	8
	.weak	_ZGVN4asio6detail12service_baseINS0_13epoll_reactorEE2idE
	.section	.bss._ZGVN4asio6detail12service_baseINS0_13epoll_reactorEE2idE,"awG",@nobits,_ZGVN4asio6detail12service_baseINS0_13epoll_reactorEE2idE,comdat
	.align 8
	.type	_ZGVN4asio6detail12service_baseINS0_13epoll_reactorEE2idE, @gnu_unique_object
	.size	_ZGVN4asio6detail12service_baseINS0_13epoll_reactorEE2idE, 8
_ZGVN4asio6detail12service_baseINS0_13epoll_reactorEE2idE:
	.zero	8
	.weak	_ZGVN4asio6detail10call_stackINS0_15task_io_serviceENS0_27task_io_service_thread_infoEE4top_E
	.section	.bss._ZGVN4asio6detail10call_stackINS0_15task_io_serviceENS0_27task_io_service_thread_infoEE4top_E,"awG",@nobits,_ZGVN4asio6detail10call_stackINS0_15task_io_serviceENS0_27task_io_service_thread_infoEE4top_E,comdat
	.align 8
	.type	_ZGVN4asio6detail10call_stackINS0_15task_io_serviceENS0_27task_io_service_thread_infoEE4top_E, @gnu_unique_object
	.size	_ZGVN4asio6detail10call_stackINS0_15task_io_serviceENS0_27task_io_service_thread_infoEE4top_E, 8
_ZGVN4asio6detail10call_stackINS0_15task_io_serviceENS0_27task_io_service_thread_infoEE4top_E:
	.zero	8
	.weak	_ZN4asio6detail12service_baseINS0_14strand_serviceEE2idE
	.section	.bss._ZN4asio6detail12service_baseINS0_14strand_serviceEE2idE,"awG",@nobits,_ZN4asio6detail12service_baseINS0_14strand_serviceEE2idE,comdat
	.type	_ZN4asio6detail12service_baseINS0_14strand_serviceEE2idE, @gnu_unique_object
	.size	_ZN4asio6detail12service_baseINS0_14strand_serviceEE2idE, 1
_ZN4asio6detail12service_baseINS0_14strand_serviceEE2idE:
	.zero	1
	.weak	_ZN4asio6detail10call_stackINS0_14strand_service11strand_implEhE4top_E
	.section	.bss._ZN4asio6detail10call_stackINS0_14strand_service11strand_implEhE4top_E,"awG",@nobits,_ZN4asio6detail10call_stackINS0_14strand_service11strand_implEhE4top_E,comdat
	.type	_ZN4asio6detail10call_stackINS0_14strand_service11strand_implEhE4top_E, @gnu_unique_object
	.size	_ZN4asio6detail10call_stackINS0_14strand_service11strand_implEhE4top_E, 1
_ZN4asio6detail10call_stackINS0_14strand_service11strand_implEhE4top_E:
	.zero	1
	.weak	_ZN4asio6detail12service_baseINS0_15task_io_serviceEE2idE
	.section	.bss._ZN4asio6detail12service_baseINS0_15task_io_serviceEE2idE,"awG",@nobits,_ZN4asio6detail12service_baseINS0_15task_io_serviceEE2idE,comdat
	.type	_ZN4asio6detail12service_baseINS0_15task_io_serviceEE2idE, @gnu_unique_object
	.size	_ZN4asio6detail12service_baseINS0_15task_io_serviceEE2idE, 1
_ZN4asio6detail12service_baseINS0_15task_io_serviceEE2idE:
	.zero	1
	.weak	_ZN4asio6detail12service_baseINS0_13epoll_reactorEE2idE
	.section	.bss._ZN4asio6detail12service_baseINS0_13epoll_reactorEE2idE,"awG",@nobits,_ZN4asio6detail12service_baseINS0_13epoll_reactorEE2idE,comdat
	.type	_ZN4asio6detail12service_baseINS0_13epoll_reactorEE2idE, @gnu_unique_object
	.size	_ZN4asio6detail12service_baseINS0_13epoll_reactorEE2idE, 1
_ZN4asio6detail12service_baseINS0_13epoll_reactorEE2idE:
	.zero	1
	.weak	_ZN4asio6detail10call_stackINS0_15task_io_serviceENS0_27task_io_service_thread_infoEE4top_E
	.section	.bss._ZN4asio6detail10call_stackINS0_15task_io_serviceENS0_27task_io_service_thread_infoEE4top_E,"awG",@nobits,_ZN4asio6detail10call_stackINS0_15task_io_serviceENS0_27task_io_service_thread_infoEE4top_E,comdat
	.type	_ZN4asio6detail10call_stackINS0_15task_io_serviceENS0_27task_io_service_thread_infoEE4top_E, @gnu_unique_object
	.size	_ZN4asio6detail10call_stackINS0_15task_io_serviceENS0_27task_io_service_thread_infoEE4top_E, 1
_ZN4asio6detail10call_stackINS0_15task_io_serviceENS0_27task_io_service_thread_infoEE4top_E:
	.zero	1
	.weak	_ZTSSt16_Sp_counted_baseILN9__gnu_cxx12_Lock_policyE2EE
	.section	.rodata._ZTSSt16_Sp_counted_baseILN9__gnu_cxx12_Lock_policyE2EE,"aG",@progbits,_ZTSSt16_Sp_counted_baseILN9__gnu_cxx12_Lock_policyE2EE,comdat
	.align 32
	.type	_ZTSSt16_Sp_counted_baseILN9__gnu_cxx12_Lock_policyE2EE, @object
	.size	_ZTSSt16_Sp_counted_baseILN9__gnu_cxx12_Lock_policyE2EE, 52
_ZTSSt16_Sp_counted_baseILN9__gnu_cxx12_Lock_policyE2EE:
	.string	"St16_Sp_counted_baseILN9__gnu_cxx12_Lock_policyE2EE"
	.weak	_ZTISt16_Sp_counted_baseILN9__gnu_cxx12_Lock_policyE2EE
	.section	.data.rel.ro._ZTISt16_Sp_counted_baseILN9__gnu_cxx12_Lock_policyE2EE,"awG",@progbits,_ZTISt16_Sp_counted_baseILN9__gnu_cxx12_Lock_policyE2EE,comdat
	.align 8
	.type	_ZTISt16_Sp_counted_baseILN9__gnu_cxx12_Lock_policyE2EE, @object
	.size	_ZTISt16_Sp_counted_baseILN9__gnu_cxx12_Lock_policyE2EE, 24
_ZTISt16_Sp_counted_baseILN9__gnu_cxx12_Lock_policyE2EE:
	.quad	_ZTVN10__cxxabiv120__si_class_type_infoE+16
	.quad	_ZTSSt16_Sp_counted_baseILN9__gnu_cxx12_Lock_policyE2EE
	.quad	_ZTISt11_Mutex_baseILN9__gnu_cxx12_Lock_policyE2EE
	.weak	_ZTSN4asio6detail15system_categoryE
	.section	.rodata._ZTSN4asio6detail15system_categoryE,"aG",@progbits,_ZTSN4asio6detail15system_categoryE,comdat
	.align 32
	.type	_ZTSN4asio6detail15system_categoryE, @object
	.size	_ZTSN4asio6detail15system_categoryE, 32
_ZTSN4asio6detail15system_categoryE:
	.string	"N4asio6detail15system_categoryE"
	.weak	_ZTIN4asio6detail15system_categoryE
	.section	.data.rel.ro._ZTIN4asio6detail15system_categoryE,"awG",@progbits,_ZTIN4asio6detail15system_categoryE,comdat
	.align 8
	.type	_ZTIN4asio6detail15system_categoryE, @object
	.size	_ZTIN4asio6detail15system_categoryE, 24
_ZTIN4asio6detail15system_categoryE:
	.quad	_ZTVN10__cxxabiv120__si_class_type_infoE+16
	.quad	_ZTSN4asio6detail15system_categoryE
	.quad	_ZTINSt3_V214error_categoryE
	.weak	_ZTSN4asio5error6detail14netdb_categoryE
	.section	.rodata._ZTSN4asio5error6detail14netdb_categoryE,"aG",@progbits,_ZTSN4asio5error6detail14netdb_categoryE,comdat
	.align 32
	.type	_ZTSN4asio5error6detail14netdb_categoryE, @object
	.size	_ZTSN4asio5error6detail14netdb_categoryE, 37
_ZTSN4asio5error6detail14netdb_categoryE:
	.string	"N4asio5error6detail14netdb_categoryE"
	.weak	_ZTIN4asio5error6detail14netdb_categoryE
	.section	.data.rel.ro._ZTIN4asio5error6detail14netdb_categoryE,"awG",@progbits,_ZTIN4asio5error6detail14netdb_categoryE,comdat
	.align 8
	.type	_ZTIN4asio5error6detail14netdb_categoryE, @object
	.size	_ZTIN4asio5error6detail14netdb_categoryE, 24
_ZTIN4asio5error6detail14netdb_categoryE:
	.quad	_ZTVN10__cxxabiv120__si_class_type_infoE+16
	.quad	_ZTSN4asio5error6detail14netdb_categoryE
	.quad	_ZTINSt3_V214error_categoryE
	.weak	_ZTSN4asio5error6detail17addrinfo_categoryE
	.section	.rodata._ZTSN4asio5error6detail17addrinfo_categoryE,"aG",@progbits,_ZTSN4asio5error6detail17addrinfo_categoryE,comdat
	.align 32
	.type	_ZTSN4asio5error6detail17addrinfo_categoryE, @object
	.size	_ZTSN4asio5error6detail17addrinfo_categoryE, 40
_ZTSN4asio5error6detail17addrinfo_categoryE:
	.string	"N4asio5error6detail17addrinfo_categoryE"
	.weak	_ZTIN4asio5error6detail17addrinfo_categoryE
	.section	.data.rel.ro._ZTIN4asio5error6detail17addrinfo_categoryE,"awG",@progbits,_ZTIN4asio5error6detail17addrinfo_categoryE,comdat
	.align 8
	.type	_ZTIN4asio5error6detail17addrinfo_categoryE, @object
	.size	_ZTIN4asio5error6detail17addrinfo_categoryE, 24
_ZTIN4asio5error6detail17addrinfo_categoryE:
	.quad	_ZTVN10__cxxabiv120__si_class_type_infoE+16
	.quad	_ZTSN4asio5error6detail17addrinfo_categoryE
	.quad	_ZTINSt3_V214error_categoryE
	.weak	_ZTSN4asio5error6detail13misc_categoryE
	.section	.rodata._ZTSN4asio5error6detail13misc_categoryE,"aG",@progbits,_ZTSN4asio5error6detail13misc_categoryE,comdat
	.align 32
	.type	_ZTSN4asio5error6detail13misc_categoryE, @object
	.size	_ZTSN4asio5error6detail13misc_categoryE, 36
_ZTSN4asio5error6detail13misc_categoryE:
	.string	"N4asio5error6detail13misc_categoryE"
	.weak	_ZTIN4asio5error6detail13misc_categoryE
	.section	.data.rel.ro._ZTIN4asio5error6detail13misc_categoryE,"awG",@progbits,_ZTIN4asio5error6detail13misc_categoryE,comdat
	.align 8
	.type	_ZTIN4asio5error6detail13misc_categoryE, @object
	.size	_ZTIN4asio5error6detail13misc_categoryE, 24
_ZTIN4asio5error6detail13misc_categoryE:
	.quad	_ZTVN10__cxxabiv120__si_class_type_infoE+16
	.quad	_ZTSN4asio5error6detail13misc_categoryE
	.quad	_ZTINSt3_V214error_categoryE
	.weak	_ZTSN7asiopal13IAsyncChannelE
	.section	.rodata._ZTSN7asiopal13IAsyncChannelE,"aG",@progbits,_ZTSN7asiopal13IAsyncChannelE,comdat
	.align 16
	.type	_ZTSN7asiopal13IAsyncChannelE, @object
	.size	_ZTSN7asiopal13IAsyncChannelE, 26
_ZTSN7asiopal13IAsyncChannelE:
	.string	"N7asiopal13IAsyncChannelE"
	.weak	_ZTIN7asiopal13IAsyncChannelE
	.section	.data.rel.ro._ZTIN7asiopal13IAsyncChannelE,"awG",@progbits,_ZTIN7asiopal13IAsyncChannelE,comdat
	.align 8
	.type	_ZTIN7asiopal13IAsyncChannelE, @object
	.size	_ZTIN7asiopal13IAsyncChannelE, 56
_ZTIN7asiopal13IAsyncChannelE:
	.quad	_ZTVN10__cxxabiv121__vmi_class_type_infoE+16
	.quad	_ZTSN7asiopal13IAsyncChannelE
	.long	0
	.long	2
	.quad	_ZTISt23enable_shared_from_thisIN7asiopal13IAsyncChannelEE
	.quad	2050
	.quad	_ZTIN7openpal10UncopyableE
	.quad	0
	.weak	_ZTSN8asiodnp318TCPClientIOHandlerE
	.section	.rodata._ZTSN8asiodnp318TCPClientIOHandlerE,"aG",@progbits,_ZTSN8asiodnp318TCPClientIOHandlerE,comdat
	.align 32
	.type	_ZTSN8asiodnp318TCPClientIOHandlerE, @object
	.size	_ZTSN8asiodnp318TCPClientIOHandlerE, 32
_ZTSN8asiodnp318TCPClientIOHandlerE:
	.string	"N8asiodnp318TCPClientIOHandlerE"
	.weak	_ZTIN8asiodnp318TCPClientIOHandlerE
	.section	.data.rel.ro._ZTIN8asiodnp318TCPClientIOHandlerE,"awG",@progbits,_ZTIN8asiodnp318TCPClientIOHandlerE,comdat
	.align 8
	.type	_ZTIN8asiodnp318TCPClientIOHandlerE, @object
	.size	_ZTIN8asiodnp318TCPClientIOHandlerE, 24
_ZTIN8asiodnp318TCPClientIOHandlerE:
	.quad	_ZTVN10__cxxabiv120__si_class_type_infoE+16
	.quad	_ZTSN8asiodnp318TCPClientIOHandlerE
	.quad	_ZTIN8asiodnp39IOHandlerE
	.section	.data.rel.ro,"aw",@progbits
	.align 8
	.type	_ZTIZN8asiodnp318TCPClientIOHandler12StartConnectERKSt10shared_ptrIN7asiopal9TCPClientEERKN7openpal12TimeDurationEEUlRKS1_INS2_8ExecutorEEN4asio19basic_stream_socketINSF_2ip3tcpENSF_21stream_socket_serviceISI_EEEERKSt10error_codeE_, @object
	.size	_ZTIZN8asiodnp318TCPClientIOHandler12StartConnectERKSt10shared_ptrIN7asiopal9TCPClientEERKN7openpal12TimeDurationEEUlRKS1_INS2_8ExecutorEEN4asio19basic_stream_socketINSF_2ip3tcpENSF_21stream_socket_serviceISI_EEEERKSt10error_codeE_, 16
_ZTIZN8asiodnp318TCPClientIOHandler12StartConnectERKSt10shared_ptrIN7asiopal9TCPClientEERKN7openpal12TimeDurationEEUlRKS1_INS2_8ExecutorEEN4asio19basic_stream_socketINSF_2ip3tcpENSF_21stream_socket_serviceISI_EEEERKSt10error_codeE_:
	.quad	_ZTVN10__cxxabiv117__class_type_infoE+16
	.quad	_ZTSZN8asiodnp318TCPClientIOHandler12StartConnectERKSt10shared_ptrIN7asiopal9TCPClientEERKN7openpal12TimeDurationEEUlRKS1_INS2_8ExecutorEEN4asio19basic_stream_socketINSF_2ip3tcpENSF_21stream_socket_serviceISI_EEEERKSt10error_codeE_
	.section	.rodata
	.align 32
	.type	_ZTSZN8asiodnp318TCPClientIOHandler12StartConnectERKSt10shared_ptrIN7asiopal9TCPClientEERKN7openpal12TimeDurationEEUlRKS1_INS2_8ExecutorEEN4asio19basic_stream_socketINSF_2ip3tcpENSF_21stream_socket_serviceISI_EEEERKSt10error_codeE_, @object
	.size	_ZTSZN8asiodnp318TCPClientIOHandler12StartConnectERKSt10shared_ptrIN7asiopal9TCPClientEERKN7openpal12TimeDurationEEUlRKS1_INS2_8ExecutorEEN4asio19basic_stream_socketINSF_2ip3tcpENSF_21stream_socket_serviceISI_EEEERKSt10error_codeE_, 229
_ZTSZN8asiodnp318TCPClientIOHandler12StartConnectERKSt10shared_ptrIN7asiopal9TCPClientEERKN7openpal12TimeDurationEEUlRKS1_INS2_8ExecutorEEN4asio19basic_stream_socketINSF_2ip3tcpENSF_21stream_socket_serviceISI_EEEERKSt10error_codeE_:
	.string	"*ZN8asiodnp318TCPClientIOHandler12StartConnectERKSt10shared_ptrIN7asiopal9TCPClientEERKN7openpal12TimeDurationEEUlRKS1_INS2_8ExecutorEEN4asio19basic_stream_socketINSF_2ip3tcpENSF_21stream_socket_serviceISI_EEEERKSt10error_codeE_"
	.section	.data.rel.ro
	.align 8
	.type	_ZTIZN7openpal8TimerRef5StartIZZN8asiodnp318TCPClientIOHandler12StartConnectERKSt10shared_ptrIN7asiopal9TCPClientEERKNS_12TimeDurationEENKUlRKS4_INS5_8ExecutorEEN4asio19basic_stream_socketINSH_2ip3tcpENSH_21stream_socket_serviceISK_EEEERKSt10error_codeE_clESG_SN_SQ_EUlvE_EEbSC_RKT_EUlvE_, @object
	.size	_ZTIZN7openpal8TimerRef5StartIZZN8asiodnp318TCPClientIOHandler12StartConnectERKSt10shared_ptrIN7asiopal9TCPClientEERKNS_12TimeDurationEENKUlRKS4_INS5_8ExecutorEEN4asio19basic_stream_socketINSH_2ip3tcpENSH_21stream_socket_serviceISK_EEEERKSt10error_codeE_clESG_SN_SQ_EUlvE_EEbSC_RKT_EUlvE_, 16
_ZTIZN7openpal8TimerRef5StartIZZN8asiodnp318TCPClientIOHandler12StartConnectERKSt10shared_ptrIN7asiopal9TCPClientEERKNS_12TimeDurationEENKUlRKS4_INS5_8ExecutorEEN4asio19basic_stream_socketINSH_2ip3tcpENSH_21stream_socket_serviceISK_EEEERKSt10error_codeE_clESG_SN_SQ_EUlvE_EEbSC_RKT_EUlvE_:
	.quad	_ZTVN10__cxxabiv117__class_type_infoE+16
	.quad	_ZTSZN7openpal8TimerRef5StartIZZN8asiodnp318TCPClientIOHandler12StartConnectERKSt10shared_ptrIN7asiopal9TCPClientEERKNS_12TimeDurationEENKUlRKS4_INS5_8ExecutorEEN4asio19basic_stream_socketINSH_2ip3tcpENSH_21stream_socket_serviceISK_EEEERKSt10error_codeE_clESG_SN_SQ_EUlvE_EEbSC_RKT_EUlvE_
	.section	.rodata
	.align 32
	.type	_ZTSZN7openpal8TimerRef5StartIZZN8asiodnp318TCPClientIOHandler12StartConnectERKSt10shared_ptrIN7asiopal9TCPClientEERKNS_12TimeDurationEENKUlRKS4_INS5_8ExecutorEEN4asio19basic_stream_socketINSH_2ip3tcpENSH_21stream_socket_serviceISK_EEEERKSt10error_codeE_clESG_SN_SQ_EUlvE_EEbSC_RKT_EUlvE_, @object
	.size	_ZTSZN7openpal8TimerRef5StartIZZN8asiodnp318TCPClientIOHandler12StartConnectERKSt10shared_ptrIN7asiopal9TCPClientEERKNS_12TimeDurationEENKUlRKS4_INS5_8ExecutorEEN4asio19basic_stream_socketINSH_2ip3tcpENSH_21stream_socket_serviceISK_EEEERKSt10error_codeE_clESG_SN_SQ_EUlvE_EEbSC_RKT_EUlvE_, 286
_ZTSZN7openpal8TimerRef5StartIZZN8asiodnp318TCPClientIOHandler12StartConnectERKSt10shared_ptrIN7asiopal9TCPClientEERKNS_12TimeDurationEENKUlRKS4_INS5_8ExecutorEEN4asio19basic_stream_socketINSH_2ip3tcpENSH_21stream_socket_serviceISK_EEEERKSt10error_codeE_clESG_SN_SQ_EUlvE_EEbSC_RKT_EUlvE_:
	.ascii	"*ZN7openpal8TimerRef5StartIZZ"
	.string	"N8asiodnp318TCPClientIOHandler12StartConnectERKSt10shared_ptrIN7asiopal9TCPClientEERKNS_12TimeDurationEENKUlRKS4_INS5_8ExecutorEEN4asio19basic_stream_socketINSH_2ip3tcpENSH_21stream_socket_serviceISK_EEEERKSt10error_codeE_clESG_SN_SQ_EUlvE_EEbSC_RKT_EUlvE_"
	.weak	_ZTSSt19_Sp_make_shared_tag
	.section	.rodata._ZTSSt19_Sp_make_shared_tag,"aG",@progbits,_ZTSSt19_Sp_make_shared_tag,comdat
	.align 16
	.type	_ZTSSt19_Sp_make_shared_tag, @object
	.size	_ZTSSt19_Sp_make_shared_tag, 24
_ZTSSt19_Sp_make_shared_tag:
	.string	"St19_Sp_make_shared_tag"
	.weak	_ZTISt19_Sp_make_shared_tag
	.section	.data.rel.ro._ZTISt19_Sp_make_shared_tag,"awG",@progbits,_ZTISt19_Sp_make_shared_tag,comdat
	.align 8
	.type	_ZTISt19_Sp_make_shared_tag, @object
	.size	_ZTISt19_Sp_make_shared_tag, 16
_ZTISt19_Sp_make_shared_tag:
	.quad	_ZTVN10__cxxabiv117__class_type_infoE+16
	.quad	_ZTSSt19_Sp_make_shared_tag
	.weak	_ZTSSt23_Sp_counted_ptr_inplaceIN7asiopal9TCPClientESaIS1_ELN9__gnu_cxx12_Lock_policyE2EE
	.section	.rodata._ZTSSt23_Sp_counted_ptr_inplaceIN7asiopal9TCPClientESaIS1_ELN9__gnu_cxx12_Lock_policyE2EE,"aG",@progbits,_ZTSSt23_Sp_counted_ptr_inplaceIN7asiopal9TCPClientESaIS1_ELN9__gnu_cxx12_Lock_policyE2EE,comdat
	.align 32
	.type	_ZTSSt23_Sp_counted_ptr_inplaceIN7asiopal9TCPClientESaIS1_ELN9__gnu_cxx12_Lock_policyE2EE, @object
	.size	_ZTSSt23_Sp_counted_ptr_inplaceIN7asiopal9TCPClientESaIS1_ELN9__gnu_cxx12_Lock_policyE2EE, 86
_ZTSSt23_Sp_counted_ptr_inplaceIN7asiopal9TCPClientESaIS1_ELN9__gnu_cxx12_Lock_policyE2EE:
	.string	"St23_Sp_counted_ptr_inplaceIN7asiopal9TCPClientESaIS1_ELN9__gnu_cxx12_Lock_policyE2EE"
	.weak	_ZTISt23_Sp_counted_ptr_inplaceIN7asiopal9TCPClientESaIS1_ELN9__gnu_cxx12_Lock_policyE2EE
	.section	.data.rel.ro._ZTISt23_Sp_counted_ptr_inplaceIN7asiopal9TCPClientESaIS1_ELN9__gnu_cxx12_Lock_policyE2EE,"awG",@progbits,_ZTISt23_Sp_counted_ptr_inplaceIN7asiopal9TCPClientESaIS1_ELN9__gnu_cxx12_Lock_policyE2EE,comdat
	.align 8
	.type	_ZTISt23_Sp_counted_ptr_inplaceIN7asiopal9TCPClientESaIS1_ELN9__gnu_cxx12_Lock_policyE2EE, @object
	.size	_ZTISt23_Sp_counted_ptr_inplaceIN7asiopal9TCPClientESaIS1_ELN9__gnu_cxx12_Lock_policyE2EE, 24
_ZTISt23_Sp_counted_ptr_inplaceIN7asiopal9TCPClientESaIS1_ELN9__gnu_cxx12_Lock_policyE2EE:
	.quad	_ZTVN10__cxxabiv120__si_class_type_infoE+16
	.quad	_ZTSSt23_Sp_counted_ptr_inplaceIN7asiopal9TCPClientESaIS1_ELN9__gnu_cxx12_Lock_policyE2EE
	.quad	_ZTISt16_Sp_counted_baseILN9__gnu_cxx12_Lock_policyE2EE
	.weak	_ZTSSt23_Sp_counted_ptr_inplaceIN7asiopal13SocketChannelESaIS1_ELN9__gnu_cxx12_Lock_policyE2EE
	.section	.rodata._ZTSSt23_Sp_counted_ptr_inplaceIN7asiopal13SocketChannelESaIS1_ELN9__gnu_cxx12_Lock_policyE2EE,"aG",@progbits,_ZTSSt23_Sp_counted_ptr_inplaceIN7asiopal13SocketChannelESaIS1_ELN9__gnu_cxx12_Lock_policyE2EE,comdat
	.align 32
	.type	_ZTSSt23_Sp_counted_ptr_inplaceIN7asiopal13SocketChannelESaIS1_ELN9__gnu_cxx12_Lock_policyE2EE, @object
	.size	_ZTSSt23_Sp_counted_ptr_inplaceIN7asiopal13SocketChannelESaIS1_ELN9__gnu_cxx12_Lock_policyE2EE, 91
_ZTSSt23_Sp_counted_ptr_inplaceIN7asiopal13SocketChannelESaIS1_ELN9__gnu_cxx12_Lock_policyE2EE:
	.string	"St23_Sp_counted_ptr_inplaceIN7asiopal13SocketChannelESaIS1_ELN9__gnu_cxx12_Lock_policyE2EE"
	.weak	_ZTISt23_Sp_counted_ptr_inplaceIN7asiopal13SocketChannelESaIS1_ELN9__gnu_cxx12_Lock_policyE2EE
	.section	.data.rel.ro._ZTISt23_Sp_counted_ptr_inplaceIN7asiopal13SocketChannelESaIS1_ELN9__gnu_cxx12_Lock_policyE2EE,"awG",@progbits,_ZTISt23_Sp_counted_ptr_inplaceIN7asiopal13SocketChannelESaIS1_ELN9__gnu_cxx12_Lock_policyE2EE,comdat
	.align 8
	.type	_ZTISt23_Sp_counted_ptr_inplaceIN7asiopal13SocketChannelESaIS1_ELN9__gnu_cxx12_Lock_policyE2EE, @object
	.size	_ZTISt23_Sp_counted_ptr_inplaceIN7asiopal13SocketChannelESaIS1_ELN9__gnu_cxx12_Lock_policyE2EE, 24
_ZTISt23_Sp_counted_ptr_inplaceIN7asiopal13SocketChannelESaIS1_ELN9__gnu_cxx12_Lock_policyE2EE:
	.quad	_ZTVN10__cxxabiv120__si_class_type_infoE+16
	.quad	_ZTSSt23_Sp_counted_ptr_inplaceIN7asiopal13SocketChannelESaIS1_ELN9__gnu_cxx12_Lock_policyE2EE
	.quad	_ZTISt16_Sp_counted_baseILN9__gnu_cxx12_Lock_policyE2EE
	.weak	_ZTVN4asio6detail15system_categoryE
	.section	.data.rel.ro._ZTVN4asio6detail15system_categoryE,"awG",@progbits,_ZTVN4asio6detail15system_categoryE,comdat
	.align 8
	.type	_ZTVN4asio6detail15system_categoryE, @object
	.size	_ZTVN4asio6detail15system_categoryE, 80
_ZTVN4asio6detail15system_categoryE:
	.quad	0
	.quad	_ZTIN4asio6detail15system_categoryE
	.quad	_ZN4asio6detail15system_categoryD1Ev
	.quad	_ZN4asio6detail15system_categoryD0Ev
	.quad	_ZNK4asio6detail15system_category4nameEv
	.quad	_ZNKSt3_V214error_category10_M_messageB5cxx11Ei
	.quad	_ZNK4asio6detail15system_category7messageB5cxx11Ei
	.quad	_ZNKSt3_V214error_category23default_error_conditionEi
	.quad	_ZNKSt3_V214error_category10equivalentEiRKSt15error_condition
	.quad	_ZNKSt3_V214error_category10equivalentERKSt10error_codei
	.weak	_ZTVN4asio5error6detail14netdb_categoryE
	.section	.data.rel.ro._ZTVN4asio5error6detail14netdb_categoryE,"awG",@progbits,_ZTVN4asio5error6detail14netdb_categoryE,comdat
	.align 8
	.type	_ZTVN4asio5error6detail14netdb_categoryE, @object
	.size	_ZTVN4asio5error6detail14netdb_categoryE, 80
_ZTVN4asio5error6detail14netdb_categoryE:
	.quad	0
	.quad	_ZTIN4asio5error6detail14netdb_categoryE
	.quad	_ZN4asio5error6detail14netdb_categoryD1Ev
	.quad	_ZN4asio5error6detail14netdb_categoryD0Ev
	.quad	_ZNK4asio5error6detail14netdb_category4nameEv
	.quad	_ZNKSt3_V214error_category10_M_messageB5cxx11Ei
	.quad	_ZNK4asio5error6detail14netdb_category7messageB5cxx11Ei
	.quad	_ZNKSt3_V214error_category23default_error_conditionEi
	.quad	_ZNKSt3_V214error_category10equivalentEiRKSt15error_condition
	.quad	_ZNKSt3_V214error_category10equivalentERKSt10error_codei
	.weak	_ZTVN4asio5error6detail17addrinfo_categoryE
	.section	.data.rel.ro._ZTVN4asio5error6detail17addrinfo_categoryE,"awG",@progbits,_ZTVN4asio5error6detail17addrinfo_categoryE,comdat
	.align 8
	.type	_ZTVN4asio5error6detail17addrinfo_categoryE, @object
	.size	_ZTVN4asio5error6detail17addrinfo_categoryE, 80
_ZTVN4asio5error6detail17addrinfo_categoryE:
	.quad	0
	.quad	_ZTIN4asio5error6detail17addrinfo_categoryE
	.quad	_ZN4asio5error6detail17addrinfo_categoryD1Ev
	.quad	_ZN4asio5error6detail17addrinfo_categoryD0Ev
	.quad	_ZNK4asio5error6detail17addrinfo_category4nameEv
	.quad	_ZNKSt3_V214error_category10_M_messageB5cxx11Ei
	.quad	_ZNK4asio5error6detail17addrinfo_category7messageB5cxx11Ei
	.quad	_ZNKSt3_V214error_category23default_error_conditionEi
	.quad	_ZNKSt3_V214error_category10equivalentEiRKSt15error_condition
	.quad	_ZNKSt3_V214error_category10equivalentERKSt10error_codei
	.weak	_ZTVN4asio5error6detail13misc_categoryE
	.section	.data.rel.ro._ZTVN4asio5error6detail13misc_categoryE,"awG",@progbits,_ZTVN4asio5error6detail13misc_categoryE,comdat
	.align 8
	.type	_ZTVN4asio5error6detail13misc_categoryE, @object
	.size	_ZTVN4asio5error6detail13misc_categoryE, 80
_ZTVN4asio5error6detail13misc_categoryE:
	.quad	0
	.quad	_ZTIN4asio5error6detail13misc_categoryE
	.quad	_ZN4asio5error6detail13misc_categoryD1Ev
	.quad	_ZN4asio5error6detail13misc_categoryD0Ev
	.quad	_ZNK4asio5error6detail13misc_category4nameEv
	.quad	_ZNKSt3_V214error_category10_M_messageB5cxx11Ei
	.quad	_ZNK4asio5error6detail13misc_category7messageB5cxx11Ei
	.quad	_ZNKSt3_V214error_category23default_error_conditionEi
	.quad	_ZNKSt3_V214error_category10equivalentEiRKSt15error_condition
	.quad	_ZNKSt3_V214error_category10equivalentERKSt10error_codei
	.weak	_ZTVN7asiopal13IAsyncChannelE
	.section	.data.rel.ro._ZTVN7asiopal13IAsyncChannelE,"awG",@progbits,_ZTVN7asiopal13IAsyncChannelE,comdat
	.align 8
	.type	_ZTVN7asiopal13IAsyncChannelE, @object
	.size	_ZTVN7asiopal13IAsyncChannelE, 56
_ZTVN7asiopal13IAsyncChannelE:
	.quad	0
	.quad	_ZTIN7asiopal13IAsyncChannelE
	.quad	0
	.quad	0
	.quad	__cxa_pure_virtual
	.quad	__cxa_pure_virtual
	.quad	__cxa_pure_virtual
	.weak	_ZTVN8asiodnp318TCPClientIOHandlerE
	.section	.data.rel.ro._ZTVN8asiodnp318TCPClientIOHandlerE,"awG",@progbits,_ZTVN8asiodnp318TCPClientIOHandlerE,comdat
	.align 8
	.type	_ZTVN8asiodnp318TCPClientIOHandlerE, @object
	.size	_ZTVN8asiodnp318TCPClientIOHandlerE, 136
_ZTVN8asiodnp318TCPClientIOHandlerE:
	.quad	0
	.quad	_ZTIN8asiodnp318TCPClientIOHandlerE
	.quad	_ZN8asiodnp318TCPClientIOHandlerD1Ev
	.quad	_ZN8asiodnp318TCPClientIOHandlerD0Ev
	.quad	_ZN8asiodnp39IOHandler7OnFrameERKN8opendnp316LinkHeaderFieldsERKN7openpal6RSliceE
	.quad	_ZN8asiodnp39IOHandler14OnReadCompleteERKSt10error_codem
	.quad	_ZN8asiodnp39IOHandler15OnWriteCompleteERKSt10error_codem
	.quad	_ZN8asiodnp318TCPClientIOHandler18BeginChannelAcceptEv
	.quad	_ZN8asiodnp318TCPClientIOHandler20SuspendChannelAcceptEv
	.quad	_ZN8asiodnp318TCPClientIOHandler12ShutdownImplEv
	.quad	_ZN8asiodnp318TCPClientIOHandler17OnChannelShutdownEv
	.quad	-8
	.quad	_ZTIN8asiodnp318TCPClientIOHandlerE
	.quad	_ZThn8_N8asiodnp318TCPClientIOHandlerD1Ev
	.quad	_ZThn8_N8asiodnp318TCPClientIOHandlerD0Ev
	.quad	_ZThn8_N8asiodnp39IOHandler14OnReadCompleteERKSt10error_codem
	.quad	_ZThn8_N8asiodnp39IOHandler15OnWriteCompleteERKSt10error_codem
	.weak	_ZTVSt23_Sp_counted_ptr_inplaceIN7asiopal9TCPClientESaIS1_ELN9__gnu_cxx12_Lock_policyE2EE
	.section	.data.rel.ro._ZTVSt23_Sp_counted_ptr_inplaceIN7asiopal9TCPClientESaIS1_ELN9__gnu_cxx12_Lock_policyE2EE,"awG",@progbits,_ZTVSt23_Sp_counted_ptr_inplaceIN7asiopal9TCPClientESaIS1_ELN9__gnu_cxx12_Lock_policyE2EE,comdat
	.align 8
	.type	_ZTVSt23_Sp_counted_ptr_inplaceIN7asiopal9TCPClientESaIS1_ELN9__gnu_cxx12_Lock_policyE2EE, @object
	.size	_ZTVSt23_Sp_counted_ptr_inplaceIN7asiopal9TCPClientESaIS1_ELN9__gnu_cxx12_Lock_policyE2EE, 56
_ZTVSt23_Sp_counted_ptr_inplaceIN7asiopal9TCPClientESaIS1_ELN9__gnu_cxx12_Lock_policyE2EE:
	.quad	0
	.quad	_ZTISt23_Sp_counted_ptr_inplaceIN7asiopal9TCPClientESaIS1_ELN9__gnu_cxx12_Lock_policyE2EE
	.quad	_ZNSt23_Sp_counted_ptr_inplaceIN7asiopal9TCPClientESaIS1_ELN9__gnu_cxx12_Lock_policyE2EED1Ev
	.quad	_ZNSt23_Sp_counted_ptr_inplaceIN7asiopal9TCPClientESaIS1_ELN9__gnu_cxx12_Lock_policyE2EED0Ev
	.quad	_ZNSt23_Sp_counted_ptr_inplaceIN7asiopal9TCPClientESaIS1_ELN9__gnu_cxx12_Lock_policyE2EE10_M_disposeEv
	.quad	_ZNSt23_Sp_counted_ptr_inplaceIN7asiopal9TCPClientESaIS1_ELN9__gnu_cxx12_Lock_policyE2EE10_M_destroyEv
	.quad	_ZNSt23_Sp_counted_ptr_inplaceIN7asiopal9TCPClientESaIS1_ELN9__gnu_cxx12_Lock_policyE2EE14_M_get_deleterERKSt9type_info
	.weak	_ZTVSt23_Sp_counted_ptr_inplaceIN7asiopal13SocketChannelESaIS1_ELN9__gnu_cxx12_Lock_policyE2EE
	.section	.data.rel.ro._ZTVSt23_Sp_counted_ptr_inplaceIN7asiopal13SocketChannelESaIS1_ELN9__gnu_cxx12_Lock_policyE2EE,"awG",@progbits,_ZTVSt23_Sp_counted_ptr_inplaceIN7asiopal13SocketChannelESaIS1_ELN9__gnu_cxx12_Lock_policyE2EE,comdat
	.align 8
	.type	_ZTVSt23_Sp_counted_ptr_inplaceIN7asiopal13SocketChannelESaIS1_ELN9__gnu_cxx12_Lock_policyE2EE, @object
	.size	_ZTVSt23_Sp_counted_ptr_inplaceIN7asiopal13SocketChannelESaIS1_ELN9__gnu_cxx12_Lock_policyE2EE, 56
_ZTVSt23_Sp_counted_ptr_inplaceIN7asiopal13SocketChannelESaIS1_ELN9__gnu_cxx12_Lock_policyE2EE:
	.quad	0
	.quad	_ZTISt23_Sp_counted_ptr_inplaceIN7asiopal13SocketChannelESaIS1_ELN9__gnu_cxx12_Lock_policyE2EE
	.quad	_ZNSt23_Sp_counted_ptr_inplaceIN7asiopal13SocketChannelESaIS1_ELN9__gnu_cxx12_Lock_policyE2EED1Ev
	.quad	_ZNSt23_Sp_counted_ptr_inplaceIN7asiopal13SocketChannelESaIS1_ELN9__gnu_cxx12_Lock_policyE2EED0Ev
	.quad	_ZNSt23_Sp_counted_ptr_inplaceIN7asiopal13SocketChannelESaIS1_ELN9__gnu_cxx12_Lock_policyE2EE10_M_disposeEv
	.quad	_ZNSt23_Sp_counted_ptr_inplaceIN7asiopal13SocketChannelESaIS1_ELN9__gnu_cxx12_Lock_policyE2EE10_M_destroyEv
	.quad	_ZNSt23_Sp_counted_ptr_inplaceIN7asiopal13SocketChannelESaIS1_ELN9__gnu_cxx12_Lock_policyE2EE14_M_get_deleterERKSt9type_info
	.weak	_ZGVZN4asio5error17get_misc_categoryEvE8instance
	.section	.bss._ZGVZN4asio5error17get_misc_categoryEvE8instance,"awG",@nobits,_ZGVZN4asio5error17get_misc_categoryEvE8instance,comdat
	.align 8
	.type	_ZGVZN4asio5error17get_misc_categoryEvE8instance, @gnu_unique_object
	.size	_ZGVZN4asio5error17get_misc_categoryEvE8instance, 8
_ZGVZN4asio5error17get_misc_categoryEvE8instance:
	.zero	8
	.weak	_ZZN4asio5error17get_misc_categoryEvE8instance
	.section	.data.rel._ZZN4asio5error17get_misc_categoryEvE8instance,"awG",@progbits,_ZZN4asio5error17get_misc_categoryEvE8instance,comdat
	.align 8
	.type	_ZZN4asio5error17get_misc_categoryEvE8instance, @gnu_unique_object
	.size	_ZZN4asio5error17get_misc_categoryEvE8instance, 8
_ZZN4asio5error17get_misc_categoryEvE8instance:
	.quad	_ZTVN4asio5error6detail13misc_categoryE+16
	.weak	_ZGVZN4asio5error21get_addrinfo_categoryEvE8instance
	.section	.bss._ZGVZN4asio5error21get_addrinfo_categoryEvE8instance,"awG",@nobits,_ZGVZN4asio5error21get_addrinfo_categoryEvE8instance,comdat
	.align 8
	.type	_ZGVZN4asio5error21get_addrinfo_categoryEvE8instance, @gnu_unique_object
	.size	_ZGVZN4asio5error21get_addrinfo_categoryEvE8instance, 8
_ZGVZN4asio5error21get_addrinfo_categoryEvE8instance:
	.zero	8
	.weak	_ZZN4asio5error21get_addrinfo_categoryEvE8instance
	.section	.data.rel._ZZN4asio5error21get_addrinfo_categoryEvE8instance,"awG",@progbits,_ZZN4asio5error21get_addrinfo_categoryEvE8instance,comdat
	.align 8
	.type	_ZZN4asio5error21get_addrinfo_categoryEvE8instance, @gnu_unique_object
	.size	_ZZN4asio5error21get_addrinfo_categoryEvE8instance, 8
_ZZN4asio5error21get_addrinfo_categoryEvE8instance:
	.quad	_ZTVN4asio5error6detail17addrinfo_categoryE+16
	.weak	_ZGVZN4asio5error18get_netdb_categoryEvE8instance
	.section	.bss._ZGVZN4asio5error18get_netdb_categoryEvE8instance,"awG",@nobits,_ZGVZN4asio5error18get_netdb_categoryEvE8instance,comdat
	.align 8
	.type	_ZGVZN4asio5error18get_netdb_categoryEvE8instance, @gnu_unique_object
	.size	_ZGVZN4asio5error18get_netdb_categoryEvE8instance, 8
_ZGVZN4asio5error18get_netdb_categoryEvE8instance:
	.zero	8
	.weak	_ZZN4asio5error18get_netdb_categoryEvE8instance
	.section	.data.rel._ZZN4asio5error18get_netdb_categoryEvE8instance,"awG",@progbits,_ZZN4asio5error18get_netdb_categoryEvE8instance,comdat
	.align 8
	.type	_ZZN4asio5error18get_netdb_categoryEvE8instance, @gnu_unique_object
	.size	_ZZN4asio5error18get_netdb_categoryEvE8instance, 8
_ZZN4asio5error18get_netdb_categoryEvE8instance:
	.quad	_ZTVN4asio5error6detail14netdb_categoryE+16
	.weak	_ZGVZN4asio15system_categoryEvE8instance
	.section	.bss._ZGVZN4asio15system_categoryEvE8instance,"awG",@nobits,_ZGVZN4asio15system_categoryEvE8instance,comdat
	.align 8
	.type	_ZGVZN4asio15system_categoryEvE8instance, @gnu_unique_object
	.size	_ZGVZN4asio15system_categoryEvE8instance, 8
_ZGVZN4asio15system_categoryEvE8instance:
	.zero	8
	.weak	_ZZN4asio15system_categoryEvE8instance
	.section	.data.rel._ZZN4asio15system_categoryEvE8instance,"awG",@progbits,_ZZN4asio15system_categoryEvE8instance,comdat
	.align 8
	.type	_ZZN4asio15system_categoryEvE8instance, @gnu_unique_object
	.size	_ZZN4asio15system_categoryEvE8instance, 8
_ZZN4asio15system_categoryEvE8instance:
	.quad	_ZTVN4asio6detail15system_categoryE+16
	.weak	_ZN4asio6detail15keyword_tss_ptrINS0_10call_stackINS0_15task_io_serviceENS0_27task_io_service_thread_infoEE7contextEE6value_E
	.section	.tbss._ZN4asio6detail15keyword_tss_ptrINS0_10call_stackINS0_15task_io_serviceENS0_27task_io_service_thread_infoEE7contextEE6value_E,"awTG",@nobits,_ZN4asio6detail15keyword_tss_ptrINS0_10call_stackINS0_15task_io_serviceENS0_27task_io_service_thread_infoEE7contextEE6value_E,comdat
	.align 8
	.type	_ZN4asio6detail15keyword_tss_ptrINS0_10call_stackINS0_15task_io_serviceENS0_27task_io_service_thread_infoEE7contextEE6value_E, @gnu_unique_object
	.size	_ZN4asio6detail15keyword_tss_ptrINS0_10call_stackINS0_15task_io_serviceENS0_27task_io_service_thread_infoEE7contextEE6value_E, 8
_ZN4asio6detail15keyword_tss_ptrINS0_10call_stackINS0_15task_io_serviceENS0_27task_io_service_thread_infoEE7contextEE6value_E:
	.zero	8
	.weakref	_ZL28__gthrw___pthread_key_createPjPFvPvE,__pthread_key_create
	.section	.rodata.cst16,"aM",@progbits,16
	.align 16
.LC5:
	.quad	8028075772644520015
	.quad	7310593917846626414
	.align 16
.LC6:
	.quad	2334381286471394643
	.quad	7959390400869068654
	.align 16
.LC7:
	.quad	8367816086596579155
	.quad	2338616625292734585
	.align 16
.LC8:
	.quad	7234013753529430881
	.quad	8243030355803531634
	.align 16
.LC9:
	.quad	2338615488418245701
	.quad	7959390400869068654
	.align 16
.LC10:
	.quad	7166182912791242836
	.quad	7214892426067994994
	.align 16
.LC11:
	.quad	2338616625293649263
	.quad	8031165433303558502
	.align 16
.LC12:
	.quad	7810775711721485344
	.quad	7812726531955123045
	.align 16
.LC13:
	.quad	8390045716486254408
	.quad	2891421386351273504
	.align 16
.LC14:
	.quad	7526769937477431150
	.quad	8532478930943832687
	.align 16
.LC15:
	.quad	2340027324477221221
	.quad	7020021577750243169
	.align 16
.LC16:
	.quad	8243123821706831956
	.quad	7809653110584451193
	.align 16
.LC17:
	.quad	2338623170819155049
	.quad	2338324160631043177
	.align 16
.LC18:
	.quad	7311138144931573614
	.quad	7019250824563089696
	.align 16
.LC19:
	.quad	7309955097514876993
	.quad	7809911847770287971
	.align 16
.LC20:
	.quad	2338053693894893669
	.quad	7234314212361855855
	.align 16
.LC21:
	.quad	2334956330985808928
	.quad	7310293695322153316
	.align 16
.LC22:
	.quad	8387231026764149601
	.quad	8245935278387126884
	.hidden	DW.ref.__gxx_personality_v0
	.weak	DW.ref.__gxx_personality_v0
	.section	.data.rel.local.DW.ref.__gxx_personality_v0,"awG",@progbits,DW.ref.__gxx_personality_v0,comdat
	.align 8
	.type	DW.ref.__gxx_personality_v0, @object
	.size	DW.ref.__gxx_personality_v0, 8
DW.ref.__gxx_personality_v0:
	.quad	__gxx_personality_v0
	.hidden	__dso_handle
	.ident	"GCC: (Ubuntu 7.5.0-3ubuntu1~18.04) 7.5.0"
	.section	.note.GNU-stack,"",@progbits
