	.file	"TCPClient.cpp"
	.text
	.section	.rodata._ZNK4asio6detail15system_category4nameEv.str1.1,"aMS",@progbits,1
.LC0:
	.string	"asio.system"
	.section	.text._ZNK4asio6detail15system_category4nameEv,"axG",@progbits,_ZNK4asio6detail15system_category4nameEv,comdat
	.align 2
	.p2align 4,,15
	.weak	_ZNK4asio6detail15system_category4nameEv
	.type	_ZNK4asio6detail15system_category4nameEv, @function
_ZNK4asio6detail15system_category4nameEv:
.LFB2305:
	.cfi_startproc
	leaq	.LC0(%rip), %rax
	ret
	.cfi_endproc
.LFE2305:
	.size	_ZNK4asio6detail15system_category4nameEv, .-_ZNK4asio6detail15system_category4nameEv
	.section	.rodata._ZNK4asio5error6detail14netdb_category4nameEv.str1.1,"aMS",@progbits,1
.LC1:
	.string	"asio.netdb"
	.section	.text._ZNK4asio5error6detail14netdb_category4nameEv,"axG",@progbits,_ZNK4asio5error6detail14netdb_category4nameEv,comdat
	.align 2
	.p2align 4,,15
	.weak	_ZNK4asio5error6detail14netdb_category4nameEv
	.type	_ZNK4asio5error6detail14netdb_category4nameEv, @function
_ZNK4asio5error6detail14netdb_category4nameEv:
.LFB2345:
	.cfi_startproc
	leaq	.LC1(%rip), %rax
	ret
	.cfi_endproc
.LFE2345:
	.size	_ZNK4asio5error6detail14netdb_category4nameEv, .-_ZNK4asio5error6detail14netdb_category4nameEv
	.section	.rodata._ZNK4asio5error6detail17addrinfo_category4nameEv.str1.1,"aMS",@progbits,1
.LC2:
	.string	"asio.addrinfo"
	.section	.text._ZNK4asio5error6detail17addrinfo_category4nameEv,"axG",@progbits,_ZNK4asio5error6detail17addrinfo_category4nameEv,comdat
	.align 2
	.p2align 4,,15
	.weak	_ZNK4asio5error6detail17addrinfo_category4nameEv
	.type	_ZNK4asio5error6detail17addrinfo_category4nameEv, @function
_ZNK4asio5error6detail17addrinfo_category4nameEv:
.LFB2351:
	.cfi_startproc
	leaq	.LC2(%rip), %rax
	ret
	.cfi_endproc
.LFE2351:
	.size	_ZNK4asio5error6detail17addrinfo_category4nameEv, .-_ZNK4asio5error6detail17addrinfo_category4nameEv
	.section	.rodata._ZNK4asio5error6detail13misc_category4nameEv.str1.1,"aMS",@progbits,1
.LC3:
	.string	"asio.misc"
	.section	.text._ZNK4asio5error6detail13misc_category4nameEv,"axG",@progbits,_ZNK4asio5error6detail13misc_category4nameEv,comdat
	.align 2
	.p2align 4,,15
	.weak	_ZNK4asio5error6detail13misc_category4nameEv
	.type	_ZNK4asio5error6detail13misc_category4nameEv, @function
_ZNK4asio5error6detail13misc_category4nameEv:
.LFB2357:
	.cfi_startproc
	leaq	.LC3(%rip), %rax
	ret
	.cfi_endproc
.LFE2357:
	.size	_ZNK4asio5error6detail13misc_category4nameEv, .-_ZNK4asio5error6detail13misc_category4nameEv
	.section	.text._ZN4asio10io_service7service12fork_serviceENS0_10fork_eventE,"axG",@progbits,_ZN4asio10io_service7service12fork_serviceENS0_10fork_eventE,comdat
	.align 2
	.p2align 4,,15
	.weak	_ZN4asio10io_service7service12fork_serviceENS0_10fork_eventE
	.type	_ZN4asio10io_service7service12fork_serviceENS0_10fork_eventE, @function
_ZN4asio10io_service7service12fork_serviceENS0_10fork_eventE:
.LFB3308:
	.cfi_startproc
	rep ret
	.cfi_endproc
.LFE3308:
	.size	_ZN4asio10io_service7service12fork_serviceENS0_10fork_eventE, .-_ZN4asio10io_service7service12fork_serviceENS0_10fork_eventE
	.section	.text._ZNSt15_Sp_counted_ptrIPSt6vectorIN4asio2ip20basic_resolver_entryINS2_3tcpEEESaIS5_EELN9__gnu_cxx12_Lock_policyE2EED2Ev,"axG",@progbits,_ZNSt15_Sp_counted_ptrIPSt6vectorIN4asio2ip20basic_resolver_entryINS2_3tcpEEESaIS5_EELN9__gnu_cxx12_Lock_policyE2EED5Ev,comdat
	.align 2
	.p2align 4,,15
	.weak	_ZNSt15_Sp_counted_ptrIPSt6vectorIN4asio2ip20basic_resolver_entryINS2_3tcpEEESaIS5_EELN9__gnu_cxx12_Lock_policyE2EED2Ev
	.type	_ZNSt15_Sp_counted_ptrIPSt6vectorIN4asio2ip20basic_resolver_entryINS2_3tcpEEESaIS5_EELN9__gnu_cxx12_Lock_policyE2EED2Ev, @function
_ZNSt15_Sp_counted_ptrIPSt6vectorIN4asio2ip20basic_resolver_entryINS2_3tcpEEESaIS5_EELN9__gnu_cxx12_Lock_policyE2EED2Ev:
.LFB9899:
	.cfi_startproc
	rep ret
	.cfi_endproc
.LFE9899:
	.size	_ZNSt15_Sp_counted_ptrIPSt6vectorIN4asio2ip20basic_resolver_entryINS2_3tcpEEESaIS5_EELN9__gnu_cxx12_Lock_policyE2EED2Ev, .-_ZNSt15_Sp_counted_ptrIPSt6vectorIN4asio2ip20basic_resolver_entryINS2_3tcpEEESaIS5_EELN9__gnu_cxx12_Lock_policyE2EED2Ev
	.weak	_ZNSt15_Sp_counted_ptrIPSt6vectorIN4asio2ip20basic_resolver_entryINS2_3tcpEEESaIS5_EELN9__gnu_cxx12_Lock_policyE2EED1Ev
	.set	_ZNSt15_Sp_counted_ptrIPSt6vectorIN4asio2ip20basic_resolver_entryINS2_3tcpEEESaIS5_EELN9__gnu_cxx12_Lock_policyE2EED1Ev,_ZNSt15_Sp_counted_ptrIPSt6vectorIN4asio2ip20basic_resolver_entryINS2_3tcpEEESaIS5_EELN9__gnu_cxx12_Lock_policyE2EED2Ev
	.section	.text._ZN4asio6detail12posix_thread4funcINS0_21resolver_service_base22work_io_service_runnerEED2Ev,"axG",@progbits,_ZN4asio6detail12posix_thread4funcINS0_21resolver_service_base22work_io_service_runnerEED5Ev,comdat
	.align 2
	.p2align 4,,15
	.weak	_ZN4asio6detail12posix_thread4funcINS0_21resolver_service_base22work_io_service_runnerEED2Ev
	.type	_ZN4asio6detail12posix_thread4funcINS0_21resolver_service_base22work_io_service_runnerEED2Ev, @function
_ZN4asio6detail12posix_thread4funcINS0_21resolver_service_base22work_io_service_runnerEED2Ev:
.LFB9903:
	.cfi_startproc
	rep ret
	.cfi_endproc
.LFE9903:
	.size	_ZN4asio6detail12posix_thread4funcINS0_21resolver_service_base22work_io_service_runnerEED2Ev, .-_ZN4asio6detail12posix_thread4funcINS0_21resolver_service_base22work_io_service_runnerEED2Ev
	.weak	_ZN4asio6detail12posix_thread4funcINS0_21resolver_service_base22work_io_service_runnerEED1Ev
	.set	_ZN4asio6detail12posix_thread4funcINS0_21resolver_service_base22work_io_service_runnerEED1Ev,_ZN4asio6detail12posix_thread4funcINS0_21resolver_service_base22work_io_service_runnerEED2Ev
	.section	.text._ZN4asio21stream_socket_serviceINS_2ip3tcpEED2Ev,"axG",@progbits,_ZN4asio21stream_socket_serviceINS_2ip3tcpEED5Ev,comdat
	.align 2
	.p2align 4,,15
	.weak	_ZN4asio21stream_socket_serviceINS_2ip3tcpEED2Ev
	.type	_ZN4asio21stream_socket_serviceINS_2ip3tcpEED2Ev, @function
_ZN4asio21stream_socket_serviceINS_2ip3tcpEED2Ev:
.LFB9907:
	.cfi_startproc
	rep ret
	.cfi_endproc
.LFE9907:
	.size	_ZN4asio21stream_socket_serviceINS_2ip3tcpEED2Ev, .-_ZN4asio21stream_socket_serviceINS_2ip3tcpEED2Ev
	.weak	_ZN4asio21stream_socket_serviceINS_2ip3tcpEED1Ev
	.set	_ZN4asio21stream_socket_serviceINS_2ip3tcpEED1Ev,_ZN4asio21stream_socket_serviceINS_2ip3tcpEED2Ev
	.section	.text._ZN4asio6detail7tss_ptrINS0_10call_stackINS0_15task_io_serviceENS0_27task_io_service_thread_infoEE7contextEED2Ev,"axG",@progbits,_ZN4asio6detail7tss_ptrINS0_10call_stackINS0_15task_io_serviceENS0_27task_io_service_thread_infoEE7contextEED5Ev,comdat
	.align 2
	.p2align 4,,15
	.weak	_ZN4asio6detail7tss_ptrINS0_10call_stackINS0_15task_io_serviceENS0_27task_io_service_thread_infoEE7contextEED2Ev
	.type	_ZN4asio6detail7tss_ptrINS0_10call_stackINS0_15task_io_serviceENS0_27task_io_service_thread_infoEE7contextEED2Ev, @function
_ZN4asio6detail7tss_ptrINS0_10call_stackINS0_15task_io_serviceENS0_27task_io_service_thread_infoEE7contextEED2Ev:
.LFB9984:
	.cfi_startproc
	rep ret
	.cfi_endproc
.LFE9984:
	.size	_ZN4asio6detail7tss_ptrINS0_10call_stackINS0_15task_io_serviceENS0_27task_io_service_thread_infoEE7contextEED2Ev, .-_ZN4asio6detail7tss_ptrINS0_10call_stackINS0_15task_io_serviceENS0_27task_io_service_thread_infoEE7contextEED2Ev
	.weak	_ZN4asio6detail7tss_ptrINS0_10call_stackINS0_15task_io_serviceENS0_27task_io_service_thread_infoEE7contextEED1Ev
	.set	_ZN4asio6detail7tss_ptrINS0_10call_stackINS0_15task_io_serviceENS0_27task_io_service_thread_infoEE7contextEED1Ev,_ZN4asio6detail7tss_ptrINS0_10call_stackINS0_15task_io_serviceENS0_27task_io_service_thread_infoEE7contextEED2Ev
	.section	.text._ZN4asio6detail10service_idINS0_13epoll_reactorEED2Ev,"axG",@progbits,_ZN4asio6detail10service_idINS0_13epoll_reactorEED5Ev,comdat
	.align 2
	.p2align 4,,15
	.weak	_ZN4asio6detail10service_idINS0_13epoll_reactorEED2Ev
	.type	_ZN4asio6detail10service_idINS0_13epoll_reactorEED2Ev, @function
_ZN4asio6detail10service_idINS0_13epoll_reactorEED2Ev:
.LFB9987:
	.cfi_startproc
	rep ret
	.cfi_endproc
.LFE9987:
	.size	_ZN4asio6detail10service_idINS0_13epoll_reactorEED2Ev, .-_ZN4asio6detail10service_idINS0_13epoll_reactorEED2Ev
	.weak	_ZN4asio6detail10service_idINS0_13epoll_reactorEED1Ev
	.set	_ZN4asio6detail10service_idINS0_13epoll_reactorEED1Ev,_ZN4asio6detail10service_idINS0_13epoll_reactorEED2Ev
	.section	.text._ZN4asio6detail10service_idINS0_15task_io_serviceEED2Ev,"axG",@progbits,_ZN4asio6detail10service_idINS0_15task_io_serviceEED5Ev,comdat
	.align 2
	.p2align 4,,15
	.weak	_ZN4asio6detail10service_idINS0_15task_io_serviceEED2Ev
	.type	_ZN4asio6detail10service_idINS0_15task_io_serviceEED2Ev, @function
_ZN4asio6detail10service_idINS0_15task_io_serviceEED2Ev:
.LFB9990:
	.cfi_startproc
	rep ret
	.cfi_endproc
.LFE9990:
	.size	_ZN4asio6detail10service_idINS0_15task_io_serviceEED2Ev, .-_ZN4asio6detail10service_idINS0_15task_io_serviceEED2Ev
	.weak	_ZN4asio6detail10service_idINS0_15task_io_serviceEED1Ev
	.set	_ZN4asio6detail10service_idINS0_15task_io_serviceEED1Ev,_ZN4asio6detail10service_idINS0_15task_io_serviceEED2Ev
	.section	.text._ZN4asio6detail7tss_ptrINS0_10call_stackINS0_14strand_service11strand_implEhE7contextEED2Ev,"axG",@progbits,_ZN4asio6detail7tss_ptrINS0_10call_stackINS0_14strand_service11strand_implEhE7contextEED5Ev,comdat
	.align 2
	.p2align 4,,15
	.weak	_ZN4asio6detail7tss_ptrINS0_10call_stackINS0_14strand_service11strand_implEhE7contextEED2Ev
	.type	_ZN4asio6detail7tss_ptrINS0_10call_stackINS0_14strand_service11strand_implEhE7contextEED2Ev, @function
_ZN4asio6detail7tss_ptrINS0_10call_stackINS0_14strand_service11strand_implEhE7contextEED2Ev:
.LFB9993:
	.cfi_startproc
	rep ret
	.cfi_endproc
.LFE9993:
	.size	_ZN4asio6detail7tss_ptrINS0_10call_stackINS0_14strand_service11strand_implEhE7contextEED2Ev, .-_ZN4asio6detail7tss_ptrINS0_10call_stackINS0_14strand_service11strand_implEhE7contextEED2Ev
	.weak	_ZN4asio6detail7tss_ptrINS0_10call_stackINS0_14strand_service11strand_implEhE7contextEED1Ev
	.set	_ZN4asio6detail7tss_ptrINS0_10call_stackINS0_14strand_service11strand_implEhE7contextEED1Ev,_ZN4asio6detail7tss_ptrINS0_10call_stackINS0_14strand_service11strand_implEhE7contextEED2Ev
	.section	.text._ZN4asio6detail10service_idINS0_14strand_serviceEED2Ev,"axG",@progbits,_ZN4asio6detail10service_idINS0_14strand_serviceEED5Ev,comdat
	.align 2
	.p2align 4,,15
	.weak	_ZN4asio6detail10service_idINS0_14strand_serviceEED2Ev
	.type	_ZN4asio6detail10service_idINS0_14strand_serviceEED2Ev, @function
_ZN4asio6detail10service_idINS0_14strand_serviceEED2Ev:
.LFB9996:
	.cfi_startproc
	rep ret
	.cfi_endproc
.LFE9996:
	.size	_ZN4asio6detail10service_idINS0_14strand_serviceEED2Ev, .-_ZN4asio6detail10service_idINS0_14strand_serviceEED2Ev
	.weak	_ZN4asio6detail10service_idINS0_14strand_serviceEED1Ev
	.set	_ZN4asio6detail10service_idINS0_14strand_serviceEED1Ev,_ZN4asio6detail10service_idINS0_14strand_serviceEED2Ev
	.section	.text._ZN4asio6detail10service_idINS_2ip16resolver_serviceINS2_3tcpEEEED2Ev,"axG",@progbits,_ZN4asio6detail10service_idINS_2ip16resolver_serviceINS2_3tcpEEEED5Ev,comdat
	.align 2
	.p2align 4,,15
	.weak	_ZN4asio6detail10service_idINS_2ip16resolver_serviceINS2_3tcpEEEED2Ev
	.type	_ZN4asio6detail10service_idINS_2ip16resolver_serviceINS2_3tcpEEEED2Ev, @function
_ZN4asio6detail10service_idINS_2ip16resolver_serviceINS2_3tcpEEEED2Ev:
.LFB9999:
	.cfi_startproc
	rep ret
	.cfi_endproc
.LFE9999:
	.size	_ZN4asio6detail10service_idINS_2ip16resolver_serviceINS2_3tcpEEEED2Ev, .-_ZN4asio6detail10service_idINS_2ip16resolver_serviceINS2_3tcpEEEED2Ev
	.weak	_ZN4asio6detail10service_idINS_2ip16resolver_serviceINS2_3tcpEEEED1Ev
	.set	_ZN4asio6detail10service_idINS_2ip16resolver_serviceINS2_3tcpEEEED1Ev,_ZN4asio6detail10service_idINS_2ip16resolver_serviceINS2_3tcpEEEED2Ev
	.section	.text._ZN4asio6detail10service_idINS_21stream_socket_serviceINS_2ip3tcpEEEED2Ev,"axG",@progbits,_ZN4asio6detail10service_idINS_21stream_socket_serviceINS_2ip3tcpEEEED5Ev,comdat
	.align 2
	.p2align 4,,15
	.weak	_ZN4asio6detail10service_idINS_21stream_socket_serviceINS_2ip3tcpEEEED2Ev
	.type	_ZN4asio6detail10service_idINS_21stream_socket_serviceINS_2ip3tcpEEEED2Ev, @function
_ZN4asio6detail10service_idINS_21stream_socket_serviceINS_2ip3tcpEEEED2Ev:
.LFB10002:
	.cfi_startproc
	rep ret
	.cfi_endproc
.LFE10002:
	.size	_ZN4asio6detail10service_idINS_21stream_socket_serviceINS_2ip3tcpEEEED2Ev, .-_ZN4asio6detail10service_idINS_21stream_socket_serviceINS_2ip3tcpEEEED2Ev
	.weak	_ZN4asio6detail10service_idINS_21stream_socket_serviceINS_2ip3tcpEEEED1Ev
	.set	_ZN4asio6detail10service_idINS_21stream_socket_serviceINS_2ip3tcpEEEED1Ev,_ZN4asio6detail10service_idINS_21stream_socket_serviceINS_2ip3tcpEEEED2Ev
	.section	.text._ZNSt15_Sp_counted_ptrIPSt6vectorIN4asio2ip20basic_resolver_entryINS2_3tcpEEESaIS5_EELN9__gnu_cxx12_Lock_policyE2EE14_M_get_deleterERKSt9type_info,"axG",@progbits,_ZNSt15_Sp_counted_ptrIPSt6vectorIN4asio2ip20basic_resolver_entryINS2_3tcpEEESaIS5_EELN9__gnu_cxx12_Lock_policyE2EE14_M_get_deleterERKSt9type_info,comdat
	.align 2
	.p2align 4,,15
	.weak	_ZNSt15_Sp_counted_ptrIPSt6vectorIN4asio2ip20basic_resolver_entryINS2_3tcpEEESaIS5_EELN9__gnu_cxx12_Lock_policyE2EE14_M_get_deleterERKSt9type_info
	.type	_ZNSt15_Sp_counted_ptrIPSt6vectorIN4asio2ip20basic_resolver_entryINS2_3tcpEEESaIS5_EELN9__gnu_cxx12_Lock_policyE2EE14_M_get_deleterERKSt9type_info, @function
_ZNSt15_Sp_counted_ptrIPSt6vectorIN4asio2ip20basic_resolver_entryINS2_3tcpEEESaIS5_EELN9__gnu_cxx12_Lock_policyE2EE14_M_get_deleterERKSt9type_info:
.LFB10006:
	.cfi_startproc
	xorl	%eax, %eax
	ret
	.cfi_endproc
.LFE10006:
	.size	_ZNSt15_Sp_counted_ptrIPSt6vectorIN4asio2ip20basic_resolver_entryINS2_3tcpEEESaIS5_EELN9__gnu_cxx12_Lock_policyE2EE14_M_get_deleterERKSt9type_info, .-_ZNSt15_Sp_counted_ptrIPSt6vectorIN4asio2ip20basic_resolver_entryINS2_3tcpEEESaIS5_EELN9__gnu_cxx12_Lock_policyE2EE14_M_get_deleterERKSt9type_info
	.section	.text._ZNSt19_Sp_counted_deleterIPvN4asio6detail10socket_ops12noop_deleterESaIvELN9__gnu_cxx12_Lock_policyE2EED2Ev,"axG",@progbits,_ZNSt19_Sp_counted_deleterIPvN4asio6detail10socket_ops12noop_deleterESaIvELN9__gnu_cxx12_Lock_policyE2EED5Ev,comdat
	.align 2
	.p2align 4,,15
	.weak	_ZNSt19_Sp_counted_deleterIPvN4asio6detail10socket_ops12noop_deleterESaIvELN9__gnu_cxx12_Lock_policyE2EED2Ev
	.type	_ZNSt19_Sp_counted_deleterIPvN4asio6detail10socket_ops12noop_deleterESaIvELN9__gnu_cxx12_Lock_policyE2EED2Ev, @function
_ZNSt19_Sp_counted_deleterIPvN4asio6detail10socket_ops12noop_deleterESaIvELN9__gnu_cxx12_Lock_policyE2EED2Ev:
.LFB10043:
	.cfi_startproc
	rep ret
	.cfi_endproc
.LFE10043:
	.size	_ZNSt19_Sp_counted_deleterIPvN4asio6detail10socket_ops12noop_deleterESaIvELN9__gnu_cxx12_Lock_policyE2EED2Ev, .-_ZNSt19_Sp_counted_deleterIPvN4asio6detail10socket_ops12noop_deleterESaIvELN9__gnu_cxx12_Lock_policyE2EED2Ev
	.weak	_ZNSt19_Sp_counted_deleterIPvN4asio6detail10socket_ops12noop_deleterESaIvELN9__gnu_cxx12_Lock_policyE2EED1Ev
	.set	_ZNSt19_Sp_counted_deleterIPvN4asio6detail10socket_ops12noop_deleterESaIvELN9__gnu_cxx12_Lock_policyE2EED1Ev,_ZNSt19_Sp_counted_deleterIPvN4asio6detail10socket_ops12noop_deleterESaIvELN9__gnu_cxx12_Lock_policyE2EED2Ev
	.section	.text._ZNSt19_Sp_counted_deleterIPvN4asio6detail10socket_ops12noop_deleterESaIvELN9__gnu_cxx12_Lock_policyE2EE10_M_disposeEv,"axG",@progbits,_ZNSt19_Sp_counted_deleterIPvN4asio6detail10socket_ops12noop_deleterESaIvELN9__gnu_cxx12_Lock_policyE2EE10_M_disposeEv,comdat
	.align 2
	.p2align 4,,15
	.weak	_ZNSt19_Sp_counted_deleterIPvN4asio6detail10socket_ops12noop_deleterESaIvELN9__gnu_cxx12_Lock_policyE2EE10_M_disposeEv
	.type	_ZNSt19_Sp_counted_deleterIPvN4asio6detail10socket_ops12noop_deleterESaIvELN9__gnu_cxx12_Lock_policyE2EE10_M_disposeEv, @function
_ZNSt19_Sp_counted_deleterIPvN4asio6detail10socket_ops12noop_deleterESaIvELN9__gnu_cxx12_Lock_policyE2EE10_M_disposeEv:
.LFB10046:
	.cfi_startproc
	rep ret
	.cfi_endproc
.LFE10046:
	.size	_ZNSt19_Sp_counted_deleterIPvN4asio6detail10socket_ops12noop_deleterESaIvELN9__gnu_cxx12_Lock_policyE2EE10_M_disposeEv, .-_ZNSt19_Sp_counted_deleterIPvN4asio6detail10socket_ops12noop_deleterESaIvELN9__gnu_cxx12_Lock_policyE2EE10_M_disposeEv
	.section	.text._ZN4asio21stream_socket_serviceINS_2ip3tcpEE16shutdown_serviceEv,"axG",@progbits,_ZN4asio21stream_socket_serviceINS_2ip3tcpEE16shutdown_serviceEv,comdat
	.align 2
	.p2align 4,,15
	.weak	_ZN4asio21stream_socket_serviceINS_2ip3tcpEE16shutdown_serviceEv
	.type	_ZN4asio21stream_socket_serviceINS_2ip3tcpEE16shutdown_serviceEv, @function
_ZN4asio21stream_socket_serviceINS_2ip3tcpEE16shutdown_serviceEv:
.LFB10050:
	.cfi_startproc
	rep ret
	.cfi_endproc
.LFE10050:
	.size	_ZN4asio21stream_socket_serviceINS_2ip3tcpEE16shutdown_serviceEv, .-_ZN4asio21stream_socket_serviceINS_2ip3tcpEE16shutdown_serviceEv
	.section	.text._ZN4asio6detail12posix_thread4funcINS0_21resolver_service_base22work_io_service_runnerEED0Ev,"axG",@progbits,_ZN4asio6detail12posix_thread4funcINS0_21resolver_service_base22work_io_service_runnerEED5Ev,comdat
	.align 2
	.p2align 4,,15
	.weak	_ZN4asio6detail12posix_thread4funcINS0_21resolver_service_base22work_io_service_runnerEED0Ev
	.type	_ZN4asio6detail12posix_thread4funcINS0_21resolver_service_base22work_io_service_runnerEED0Ev, @function
_ZN4asio6detail12posix_thread4funcINS0_21resolver_service_base22work_io_service_runnerEED0Ev:
.LFB9905:
	.cfi_startproc
	movl	$16, %esi
	jmp	_ZdlPvm@PLT
	.cfi_endproc
.LFE9905:
	.size	_ZN4asio6detail12posix_thread4funcINS0_21resolver_service_base22work_io_service_runnerEED0Ev, .-_ZN4asio6detail12posix_thread4funcINS0_21resolver_service_base22work_io_service_runnerEED0Ev
	.section	.text._ZNSt15_Sp_counted_ptrIPSt6vectorIN4asio2ip20basic_resolver_entryINS2_3tcpEEESaIS5_EELN9__gnu_cxx12_Lock_policyE2EED0Ev,"axG",@progbits,_ZNSt15_Sp_counted_ptrIPSt6vectorIN4asio2ip20basic_resolver_entryINS2_3tcpEEESaIS5_EELN9__gnu_cxx12_Lock_policyE2EED5Ev,comdat
	.align 2
	.p2align 4,,15
	.weak	_ZNSt15_Sp_counted_ptrIPSt6vectorIN4asio2ip20basic_resolver_entryINS2_3tcpEEESaIS5_EELN9__gnu_cxx12_Lock_policyE2EED0Ev
	.type	_ZNSt15_Sp_counted_ptrIPSt6vectorIN4asio2ip20basic_resolver_entryINS2_3tcpEEESaIS5_EELN9__gnu_cxx12_Lock_policyE2EED0Ev, @function
_ZNSt15_Sp_counted_ptrIPSt6vectorIN4asio2ip20basic_resolver_entryINS2_3tcpEEESaIS5_EELN9__gnu_cxx12_Lock_policyE2EED0Ev:
.LFB9901:
	.cfi_startproc
	movl	$24, %esi
	jmp	_ZdlPvm@PLT
	.cfi_endproc
.LFE9901:
	.size	_ZNSt15_Sp_counted_ptrIPSt6vectorIN4asio2ip20basic_resolver_entryINS2_3tcpEEESaIS5_EELN9__gnu_cxx12_Lock_policyE2EED0Ev, .-_ZNSt15_Sp_counted_ptrIPSt6vectorIN4asio2ip20basic_resolver_entryINS2_3tcpEEESaIS5_EELN9__gnu_cxx12_Lock_policyE2EED0Ev
	.section	.text._ZNSt15_Sp_counted_ptrIPSt6vectorIN4asio2ip20basic_resolver_entryINS2_3tcpEEESaIS5_EELN9__gnu_cxx12_Lock_policyE2EE10_M_destroyEv,"axG",@progbits,_ZNSt15_Sp_counted_ptrIPSt6vectorIN4asio2ip20basic_resolver_entryINS2_3tcpEEESaIS5_EELN9__gnu_cxx12_Lock_policyE2EE10_M_destroyEv,comdat
	.align 2
	.p2align 4,,15
	.weak	_ZNSt15_Sp_counted_ptrIPSt6vectorIN4asio2ip20basic_resolver_entryINS2_3tcpEEESaIS5_EELN9__gnu_cxx12_Lock_policyE2EE10_M_destroyEv
	.type	_ZNSt15_Sp_counted_ptrIPSt6vectorIN4asio2ip20basic_resolver_entryINS2_3tcpEEESaIS5_EELN9__gnu_cxx12_Lock_policyE2EE10_M_destroyEv, @function
_ZNSt15_Sp_counted_ptrIPSt6vectorIN4asio2ip20basic_resolver_entryINS2_3tcpEEESaIS5_EELN9__gnu_cxx12_Lock_policyE2EE10_M_destroyEv:
.LFB10005:
	.cfi_startproc
	movl	$24, %esi
	jmp	_ZdlPvm@PLT
	.cfi_endproc
.LFE10005:
	.size	_ZNSt15_Sp_counted_ptrIPSt6vectorIN4asio2ip20basic_resolver_entryINS2_3tcpEEESaIS5_EELN9__gnu_cxx12_Lock_policyE2EE10_M_destroyEv, .-_ZNSt15_Sp_counted_ptrIPSt6vectorIN4asio2ip20basic_resolver_entryINS2_3tcpEEESaIS5_EELN9__gnu_cxx12_Lock_policyE2EE10_M_destroyEv
	.section	.text._ZNSt19_Sp_counted_deleterIPvN4asio6detail10socket_ops12noop_deleterESaIvELN9__gnu_cxx12_Lock_policyE2EED0Ev,"axG",@progbits,_ZNSt19_Sp_counted_deleterIPvN4asio6detail10socket_ops12noop_deleterESaIvELN9__gnu_cxx12_Lock_policyE2EED5Ev,comdat
	.align 2
	.p2align 4,,15
	.weak	_ZNSt19_Sp_counted_deleterIPvN4asio6detail10socket_ops12noop_deleterESaIvELN9__gnu_cxx12_Lock_policyE2EED0Ev
	.type	_ZNSt19_Sp_counted_deleterIPvN4asio6detail10socket_ops12noop_deleterESaIvELN9__gnu_cxx12_Lock_policyE2EED0Ev, @function
_ZNSt19_Sp_counted_deleterIPvN4asio6detail10socket_ops12noop_deleterESaIvELN9__gnu_cxx12_Lock_policyE2EED0Ev:
.LFB10045:
	.cfi_startproc
	movl	$24, %esi
	jmp	_ZdlPvm@PLT
	.cfi_endproc
.LFE10045:
	.size	_ZNSt19_Sp_counted_deleterIPvN4asio6detail10socket_ops12noop_deleterESaIvELN9__gnu_cxx12_Lock_policyE2EED0Ev, .-_ZNSt19_Sp_counted_deleterIPvN4asio6detail10socket_ops12noop_deleterESaIvELN9__gnu_cxx12_Lock_policyE2EED0Ev
	.section	.text._ZN4asio21stream_socket_serviceINS_2ip3tcpEED0Ev,"axG",@progbits,_ZN4asio21stream_socket_serviceINS_2ip3tcpEED5Ev,comdat
	.align 2
	.p2align 4,,15
	.weak	_ZN4asio21stream_socket_serviceINS_2ip3tcpEED0Ev
	.type	_ZN4asio21stream_socket_serviceINS_2ip3tcpEED0Ev, @function
_ZN4asio21stream_socket_serviceINS_2ip3tcpEED0Ev:
.LFB9909:
	.cfi_startproc
	movl	$48, %esi
	jmp	_ZdlPvm@PLT
	.cfi_endproc
.LFE9909:
	.size	_ZN4asio21stream_socket_serviceINS_2ip3tcpEED0Ev, .-_ZN4asio21stream_socket_serviceINS_2ip3tcpEED0Ev
	.section	.text._ZNSt19_Sp_counted_deleterIPvN4asio6detail10socket_ops12noop_deleterESaIvELN9__gnu_cxx12_Lock_policyE2EE10_M_destroyEv,"axG",@progbits,_ZNSt19_Sp_counted_deleterIPvN4asio6detail10socket_ops12noop_deleterESaIvELN9__gnu_cxx12_Lock_policyE2EE10_M_destroyEv,comdat
	.align 2
	.p2align 4,,15
	.weak	_ZNSt19_Sp_counted_deleterIPvN4asio6detail10socket_ops12noop_deleterESaIvELN9__gnu_cxx12_Lock_policyE2EE10_M_destroyEv
	.type	_ZNSt19_Sp_counted_deleterIPvN4asio6detail10socket_ops12noop_deleterESaIvELN9__gnu_cxx12_Lock_policyE2EE10_M_destroyEv, @function
_ZNSt19_Sp_counted_deleterIPvN4asio6detail10socket_ops12noop_deleterESaIvELN9__gnu_cxx12_Lock_policyE2EE10_M_destroyEv:
.LFB10047:
	.cfi_startproc
	jmp	_ZdlPv@PLT
	.cfi_endproc
.LFE10047:
	.size	_ZNSt19_Sp_counted_deleterIPvN4asio6detail10socket_ops12noop_deleterESaIvELN9__gnu_cxx12_Lock_policyE2EE10_M_destroyEv, .-_ZNSt19_Sp_counted_deleterIPvN4asio6detail10socket_ops12noop_deleterESaIvELN9__gnu_cxx12_Lock_policyE2EE10_M_destroyEv
	.section	.text._ZNSt19_Sp_counted_deleterIPvN4asio6detail10socket_ops12noop_deleterESaIvELN9__gnu_cxx12_Lock_policyE2EE14_M_get_deleterERKSt9type_info,"axG",@progbits,_ZNSt19_Sp_counted_deleterIPvN4asio6detail10socket_ops12noop_deleterESaIvELN9__gnu_cxx12_Lock_policyE2EE14_M_get_deleterERKSt9type_info,comdat
	.align 2
	.p2align 4,,15
	.weak	_ZNSt19_Sp_counted_deleterIPvN4asio6detail10socket_ops12noop_deleterESaIvELN9__gnu_cxx12_Lock_policyE2EE14_M_get_deleterERKSt9type_info
	.type	_ZNSt19_Sp_counted_deleterIPvN4asio6detail10socket_ops12noop_deleterESaIvELN9__gnu_cxx12_Lock_policyE2EE14_M_get_deleterERKSt9type_info, @function
_ZNSt19_Sp_counted_deleterIPvN4asio6detail10socket_ops12noop_deleterESaIvELN9__gnu_cxx12_Lock_policyE2EE14_M_get_deleterERKSt9type_info:
.LFB10048:
	.cfi_startproc
	pushq	%rbx
	.cfi_def_cfa_offset 16
	.cfi_offset 3, -16
	movq	%rdi, %rbx
	movq	8(%rsi), %rdi
	movq	_ZTSN4asio6detail10socket_ops12noop_deleterE@GOTPCREL(%rip), %rsi
	cmpq	%rsi, %rdi
	je	.L28
	cmpb	$42, (%rdi)
	je	.L31
	call	strcmp@PLT
	testl	%eax, %eax
	jne	.L31
.L28:
	leaq	16(%rbx), %rax
	popq	%rbx
	.cfi_remember_state
	.cfi_def_cfa_offset 8
	ret
	.p2align 4,,10
	.p2align 3
.L31:
	.cfi_restore_state
	xorl	%eax, %eax
	popq	%rbx
	.cfi_def_cfa_offset 8
	ret
	.cfi_endproc
.LFE10048:
	.size	_ZNSt19_Sp_counted_deleterIPvN4asio6detail10socket_ops12noop_deleterESaIvELN9__gnu_cxx12_Lock_policyE2EE14_M_get_deleterERKSt9type_info, .-_ZNSt19_Sp_counted_deleterIPvN4asio6detail10socket_ops12noop_deleterESaIvELN9__gnu_cxx12_Lock_policyE2EE14_M_get_deleterERKSt9type_info
	.section	.text._ZN4asio6detail15system_categoryD2Ev,"axG",@progbits,_ZN4asio6detail15system_categoryD5Ev,comdat
	.align 2
	.p2align 4,,15
	.weak	_ZN4asio6detail15system_categoryD2Ev
	.type	_ZN4asio6detail15system_categoryD2Ev, @function
_ZN4asio6detail15system_categoryD2Ev:
.LFB9963:
	.cfi_startproc
	movq	_ZTVN4asio6detail15system_categoryE@GOTPCREL(%rip), %rax
	addq	$16, %rax
	movq	%rax, (%rdi)
	jmp	_ZNSt3_V214error_categoryD2Ev@PLT
	.cfi_endproc
.LFE9963:
	.size	_ZN4asio6detail15system_categoryD2Ev, .-_ZN4asio6detail15system_categoryD2Ev
	.weak	_ZN4asio6detail15system_categoryD1Ev
	.set	_ZN4asio6detail15system_categoryD1Ev,_ZN4asio6detail15system_categoryD2Ev
	.section	.text._ZN4asio6detail15system_categoryD0Ev,"axG",@progbits,_ZN4asio6detail15system_categoryD5Ev,comdat
	.align 2
	.p2align 4,,15
	.weak	_ZN4asio6detail15system_categoryD0Ev
	.type	_ZN4asio6detail15system_categoryD0Ev, @function
_ZN4asio6detail15system_categoryD0Ev:
.LFB9965:
	.cfi_startproc
	movq	_ZTVN4asio6detail15system_categoryE@GOTPCREL(%rip), %rax
	pushq	%rbx
	.cfi_def_cfa_offset 16
	.cfi_offset 3, -16
	movq	%rdi, %rbx
	addq	$16, %rax
	movq	%rax, (%rdi)
	call	_ZNSt3_V214error_categoryD2Ev@PLT
	movq	%rbx, %rdi
	movl	$8, %esi
	popq	%rbx
	.cfi_def_cfa_offset 8
	jmp	_ZdlPvm@PLT
	.cfi_endproc
.LFE9965:
	.size	_ZN4asio6detail15system_categoryD0Ev, .-_ZN4asio6detail15system_categoryD0Ev
	.section	.text._ZN4asio5error6detail13misc_categoryD2Ev,"axG",@progbits,_ZN4asio5error6detail13misc_categoryD5Ev,comdat
	.align 2
	.p2align 4,,15
	.weak	_ZN4asio5error6detail13misc_categoryD2Ev
	.type	_ZN4asio5error6detail13misc_categoryD2Ev, @function
_ZN4asio5error6detail13misc_categoryD2Ev:
.LFB9943:
	.cfi_startproc
	movq	_ZTVN4asio5error6detail13misc_categoryE@GOTPCREL(%rip), %rax
	addq	$16, %rax
	movq	%rax, (%rdi)
	jmp	_ZNSt3_V214error_categoryD2Ev@PLT
	.cfi_endproc
.LFE9943:
	.size	_ZN4asio5error6detail13misc_categoryD2Ev, .-_ZN4asio5error6detail13misc_categoryD2Ev
	.weak	_ZN4asio5error6detail13misc_categoryD1Ev
	.set	_ZN4asio5error6detail13misc_categoryD1Ev,_ZN4asio5error6detail13misc_categoryD2Ev
	.section	.text._ZN4asio5error6detail13misc_categoryD0Ev,"axG",@progbits,_ZN4asio5error6detail13misc_categoryD5Ev,comdat
	.align 2
	.p2align 4,,15
	.weak	_ZN4asio5error6detail13misc_categoryD0Ev
	.type	_ZN4asio5error6detail13misc_categoryD0Ev, @function
_ZN4asio5error6detail13misc_categoryD0Ev:
.LFB9945:
	.cfi_startproc
	movq	_ZTVN4asio5error6detail13misc_categoryE@GOTPCREL(%rip), %rax
	pushq	%rbx
	.cfi_def_cfa_offset 16
	.cfi_offset 3, -16
	movq	%rdi, %rbx
	addq	$16, %rax
	movq	%rax, (%rdi)
	call	_ZNSt3_V214error_categoryD2Ev@PLT
	movq	%rbx, %rdi
	movl	$8, %esi
	popq	%rbx
	.cfi_def_cfa_offset 8
	jmp	_ZdlPvm@PLT
	.cfi_endproc
.LFE9945:
	.size	_ZN4asio5error6detail13misc_categoryD0Ev, .-_ZN4asio5error6detail13misc_categoryD0Ev
	.section	.text._ZN4asio5error6detail14netdb_categoryD2Ev,"axG",@progbits,_ZN4asio5error6detail14netdb_categoryD5Ev,comdat
	.align 2
	.p2align 4,,15
	.weak	_ZN4asio5error6detail14netdb_categoryD2Ev
	.type	_ZN4asio5error6detail14netdb_categoryD2Ev, @function
_ZN4asio5error6detail14netdb_categoryD2Ev:
.LFB9951:
	.cfi_startproc
	movq	_ZTVN4asio5error6detail14netdb_categoryE@GOTPCREL(%rip), %rax
	addq	$16, %rax
	movq	%rax, (%rdi)
	jmp	_ZNSt3_V214error_categoryD2Ev@PLT
	.cfi_endproc
.LFE9951:
	.size	_ZN4asio5error6detail14netdb_categoryD2Ev, .-_ZN4asio5error6detail14netdb_categoryD2Ev
	.weak	_ZN4asio5error6detail14netdb_categoryD1Ev
	.set	_ZN4asio5error6detail14netdb_categoryD1Ev,_ZN4asio5error6detail14netdb_categoryD2Ev
	.section	.text._ZN4asio5error6detail14netdb_categoryD0Ev,"axG",@progbits,_ZN4asio5error6detail14netdb_categoryD5Ev,comdat
	.align 2
	.p2align 4,,15
	.weak	_ZN4asio5error6detail14netdb_categoryD0Ev
	.type	_ZN4asio5error6detail14netdb_categoryD0Ev, @function
_ZN4asio5error6detail14netdb_categoryD0Ev:
.LFB9953:
	.cfi_startproc
	movq	_ZTVN4asio5error6detail14netdb_categoryE@GOTPCREL(%rip), %rax
	pushq	%rbx
	.cfi_def_cfa_offset 16
	.cfi_offset 3, -16
	movq	%rdi, %rbx
	addq	$16, %rax
	movq	%rax, (%rdi)
	call	_ZNSt3_V214error_categoryD2Ev@PLT
	movq	%rbx, %rdi
	movl	$8, %esi
	popq	%rbx
	.cfi_def_cfa_offset 8
	jmp	_ZdlPvm@PLT
	.cfi_endproc
.LFE9953:
	.size	_ZN4asio5error6detail14netdb_categoryD0Ev, .-_ZN4asio5error6detail14netdb_categoryD0Ev
	.section	.text._ZN4asio5error6detail17addrinfo_categoryD2Ev,"axG",@progbits,_ZN4asio5error6detail17addrinfo_categoryD5Ev,comdat
	.align 2
	.p2align 4,,15
	.weak	_ZN4asio5error6detail17addrinfo_categoryD2Ev
	.type	_ZN4asio5error6detail17addrinfo_categoryD2Ev, @function
_ZN4asio5error6detail17addrinfo_categoryD2Ev:
.LFB9947:
	.cfi_startproc
	movq	_ZTVN4asio5error6detail17addrinfo_categoryE@GOTPCREL(%rip), %rax
	addq	$16, %rax
	movq	%rax, (%rdi)
	jmp	_ZNSt3_V214error_categoryD2Ev@PLT
	.cfi_endproc
.LFE9947:
	.size	_ZN4asio5error6detail17addrinfo_categoryD2Ev, .-_ZN4asio5error6detail17addrinfo_categoryD2Ev
	.weak	_ZN4asio5error6detail17addrinfo_categoryD1Ev
	.set	_ZN4asio5error6detail17addrinfo_categoryD1Ev,_ZN4asio5error6detail17addrinfo_categoryD2Ev
	.section	.text._ZN4asio5error6detail17addrinfo_categoryD0Ev,"axG",@progbits,_ZN4asio5error6detail17addrinfo_categoryD5Ev,comdat
	.align 2
	.p2align 4,,15
	.weak	_ZN4asio5error6detail17addrinfo_categoryD0Ev
	.type	_ZN4asio5error6detail17addrinfo_categoryD0Ev, @function
_ZN4asio5error6detail17addrinfo_categoryD0Ev:
.LFB9949:
	.cfi_startproc
	movq	_ZTVN4asio5error6detail17addrinfo_categoryE@GOTPCREL(%rip), %rax
	pushq	%rbx
	.cfi_def_cfa_offset 16
	.cfi_offset 3, -16
	movq	%rdi, %rbx
	addq	$16, %rax
	movq	%rax, (%rdi)
	call	_ZNSt3_V214error_categoryD2Ev@PLT
	movq	%rbx, %rdi
	movl	$8, %esi
	popq	%rbx
	.cfi_def_cfa_offset 8
	jmp	_ZdlPvm@PLT
	.cfi_endproc
.LFE9949:
	.size	_ZN4asio5error6detail17addrinfo_categoryD0Ev, .-_ZN4asio5error6detail17addrinfo_categoryD0Ev
	.section	.text._ZN4asio6detail15task_io_service16shutdown_serviceEv,"axG",@progbits,_ZN4asio6detail15task_io_service16shutdown_serviceEv,comdat
	.align 2
	.p2align 4,,15
	.weak	_ZN4asio6detail15task_io_service16shutdown_serviceEv
	.type	_ZN4asio6detail15task_io_service16shutdown_serviceEv, @function
_ZN4asio6detail15task_io_service16shutdown_serviceEv:
.LFB3236:
	.cfi_startproc
	pushq	%r14
	.cfi_def_cfa_offset 16
	.cfi_offset 14, -16
	pushq	%r13
	.cfi_def_cfa_offset 24
	.cfi_offset 13, -24
	pushq	%r12
	.cfi_def_cfa_offset 32
	.cfi_offset 12, -32
	pushq	%rbp
	.cfi_def_cfa_offset 40
	.cfi_offset 6, -40
	movq	%rdi, %rbp
	pushq	%rbx
	.cfi_def_cfa_offset 48
	.cfi_offset 3, -48
	leaq	48(%rdi), %rbx
	leaq	152(%rbp), %r12
	subq	$32, %rsp
	.cfi_def_cfa_offset 80
	movq	%rbx, %rdi
	movq	%fs:40, %rax
	movq	%rax, 24(%rsp)
	xorl	%eax, %eax
	movq	%rsp, %r13
	call	pthread_mutex_lock@PLT
	movb	$1, 209(%rbp)
	movq	%rbx, %rdi
	call	pthread_mutex_unlock@PLT
	.p2align 4,,10
	.p2align 3
.L46:
	movq	192(%rbp), %rbx
	testq	%rbx, %rbx
	je	.L47
.L55:
	movq	(%rbx), %rax
	testq	%rax, %rax
	movq	%rax, 192(%rbp)
	je	.L54
	cmpq	%r12, %rbx
	movq	$0, (%rbx)
	je	.L46
.L49:
	movq	8(%rbx), %r14
	movl	$0, (%rsp)
	call	_ZNSt3_V215system_categoryEv@PLT
	xorl	%ecx, %ecx
	movq	%rbx, %rsi
	xorl	%edi, %edi
	movq	%rax, 8(%rsp)
	movq	%r13, %rdx
	call	*%r14
	movq	192(%rbp), %rbx
	testq	%rbx, %rbx
	jne	.L55
	.p2align 4,,10
	.p2align 3
.L47:
	movq	24(%rsp), %rax
	xorq	%fs:40, %rax
	movq	$0, 144(%rbp)
	jne	.L56
	addq	$32, %rsp
	.cfi_remember_state
	.cfi_def_cfa_offset 48
	popq	%rbx
	.cfi_def_cfa_offset 40
	popq	%rbp
	.cfi_def_cfa_offset 32
	popq	%r12
	.cfi_def_cfa_offset 24
	popq	%r13
	.cfi_def_cfa_offset 16
	popq	%r14
	.cfi_def_cfa_offset 8
	ret
	.p2align 4,,10
	.p2align 3
.L54:
	.cfi_restore_state
	cmpq	%r12, %rbx
	movq	$0, 200(%rbp)
	movq	$0, (%rbx)
	je	.L46
	jmp	.L49
.L56:
	call	__stack_chk_fail@PLT
	.cfi_endproc
.LFE3236:
	.size	_ZN4asio6detail15task_io_service16shutdown_serviceEv, .-_ZN4asio6detail15task_io_service16shutdown_serviceEv
	.section	.text.unlikely,"ax",@progbits
	.type	_ZN4asio6detail15throw_exceptionISt8bad_castEEvRKT_.isra.96, @function
_ZN4asio6detail15throw_exceptionISt8bad_castEEvRKT_.isra.96:
.LFB10200:
	.cfi_startproc
	movl	$8, %edi
	subq	$8, %rsp
	.cfi_def_cfa_offset 16
	call	__cxa_allocate_exception@PLT
	movq	_ZTVSt8bad_cast@GOTPCREL(%rip), %rdx
	movq	_ZTISt8bad_cast@GOTPCREL(%rip), %rsi
	movq	%rax, %rdi
	addq	$16, %rdx
	movq	%rdx, (%rax)
	movq	_ZNSt8bad_castD1Ev@GOTPCREL(%rip), %rdx
	call	__cxa_throw@PLT
	.cfi_endproc
.LFE10200:
	.size	_ZN4asio6detail15throw_exceptionISt8bad_castEEvRKT_.isra.96, .-_ZN4asio6detail15throw_exceptionISt8bad_castEEvRKT_.isra.96
	.section	.rodata.str1.8,"aMS",@progbits,1
	.align 8
.LC4:
	.string	"basic_string::_M_construct null not valid"
	.text
	.align 2
	.p2align 4,,15
	.type	_ZNSt7__cxx1112basic_stringIcSt11char_traitsIcESaIcEE12_M_constructIPKcEEvT_S8_St20forward_iterator_tag.isra.225, @function
_ZNSt7__cxx1112basic_stringIcSt11char_traitsIcESaIcEE12_M_constructIPKcEEvT_S8_St20forward_iterator_tag.isra.225:
.LFB10329:
	.cfi_startproc
	pushq	%r12
	.cfi_def_cfa_offset 16
	.cfi_offset 12, -16
	pushq	%rbp
	.cfi_def_cfa_offset 24
	.cfi_offset 6, -24
	movq	%rsi, %r12
	pushq	%rbx
	.cfi_def_cfa_offset 32
	.cfi_offset 3, -32
	movq	%rdi, %rbp
	subq	$16, %rsp
	.cfi_def_cfa_offset 48
	movq	%fs:40, %rax
	movq	%rax, 8(%rsp)
	xorl	%eax, %eax
	testq	%rsi, %rsi
	jne	.L60
	testq	%rdx, %rdx
	jne	.L76
.L60:
	subq	%r12, %rdx
	cmpq	$15, %rdx
	movq	%rdx, %rbx
	movq	%rdx, (%rsp)
	ja	.L77
	cmpq	$1, %rdx
	movq	0(%rbp), %rax
	jne	.L63
	movzbl	(%r12), %edx
	movb	%dl, (%rax)
	movq	(%rsp), %rbx
	movq	0(%rbp), %rax
.L64:
	movq	%rbx, 8(%rbp)
	movb	$0, (%rax,%rbx)
	movq	8(%rsp), %rax
	xorq	%fs:40, %rax
	jne	.L78
	addq	$16, %rsp
	.cfi_remember_state
	.cfi_def_cfa_offset 32
	popq	%rbx
	.cfi_def_cfa_offset 24
	popq	%rbp
	.cfi_def_cfa_offset 16
	popq	%r12
	.cfi_def_cfa_offset 8
	ret
	.p2align 4,,10
	.p2align 3
.L77:
	.cfi_restore_state
	xorl	%edx, %edx
	movq	%rsp, %rsi
	movq	%rbp, %rdi
	call	_ZNSt7__cxx1112basic_stringIcSt11char_traitsIcESaIcEE9_M_createERmm@PLT
	movq	(%rsp), %rdx
	movq	%rax, 0(%rbp)
	movq	%rdx, 16(%rbp)
.L62:
	movq	%rbx, %rdx
	movq	%r12, %rsi
	movq	%rax, %rdi
	call	memcpy@PLT
	movq	(%rsp), %rbx
	movq	0(%rbp), %rax
	jmp	.L64
	.p2align 4,,10
	.p2align 3
.L63:
	testq	%rdx, %rdx
	je	.L64
	jmp	.L62
.L76:
	leaq	.LC4(%rip), %rdi
	call	_ZSt19__throw_logic_errorPKc@PLT
.L78:
	call	__stack_chk_fail@PLT
	.cfi_endproc
.LFE10329:
	.size	_ZNSt7__cxx1112basic_stringIcSt11char_traitsIcESaIcEE12_M_constructIPKcEEvT_S8_St20forward_iterator_tag.isra.225, .-_ZNSt7__cxx1112basic_stringIcSt11char_traitsIcESaIcEE12_M_constructIPKcEEvT_S8_St20forward_iterator_tag.isra.225
	.set	_ZNSt7__cxx1112basic_stringIcSt11char_traitsIcESaIcEE12_M_constructIPcEEvT_S7_St20forward_iterator_tag.isra.232,_ZNSt7__cxx1112basic_stringIcSt11char_traitsIcESaIcEE12_M_constructIPKcEEvT_S8_St20forward_iterator_tag.isra.225
	.section	.text._ZNSt15_Sp_counted_ptrIPSt6vectorIN4asio2ip20basic_resolver_entryINS2_3tcpEEESaIS5_EELN9__gnu_cxx12_Lock_policyE2EE10_M_disposeEv,"axG",@progbits,_ZNSt15_Sp_counted_ptrIPSt6vectorIN4asio2ip20basic_resolver_entryINS2_3tcpEEESaIS5_EELN9__gnu_cxx12_Lock_policyE2EE10_M_disposeEv,comdat
	.align 2
	.p2align 4,,15
	.weak	_ZNSt15_Sp_counted_ptrIPSt6vectorIN4asio2ip20basic_resolver_entryINS2_3tcpEEESaIS5_EELN9__gnu_cxx12_Lock_policyE2EE10_M_disposeEv
	.type	_ZNSt15_Sp_counted_ptrIPSt6vectorIN4asio2ip20basic_resolver_entryINS2_3tcpEEESaIS5_EELN9__gnu_cxx12_Lock_policyE2EE10_M_disposeEv, @function
_ZNSt15_Sp_counted_ptrIPSt6vectorIN4asio2ip20basic_resolver_entryINS2_3tcpEEESaIS5_EELN9__gnu_cxx12_Lock_policyE2EE10_M_disposeEv:
.LFB10004:
	.cfi_startproc
	pushq	%r13
	.cfi_def_cfa_offset 16
	.cfi_offset 13, -16
	pushq	%r12
	.cfi_def_cfa_offset 24
	.cfi_offset 12, -24
	pushq	%rbp
	.cfi_def_cfa_offset 32
	.cfi_offset 6, -32
	pushq	%rbx
	.cfi_def_cfa_offset 40
	.cfi_offset 3, -40
	subq	$8, %rsp
	.cfi_def_cfa_offset 48
	movq	16(%rdi), %r12
	testq	%r12, %r12
	je	.L79
	movq	8(%r12), %rax
	movq	(%r12), %rbx
	cmpq	%rbx, %rax
	je	.L81
	leaq	96(%rbx), %r13
	movabsq	$192153584101141163, %rdx
	subq	%r13, %rax
	shrq	$5, %rax
	imulq	%rdx, %rax
	movabsq	$576460752303423487, %rdx
	andq	%rdx, %rax
	leaq	3(%rax,%rax,2), %rbp
	salq	$5, %rbp
	addq	%rbx, %rbp
	jmp	.L82
	.p2align 4,,10
	.p2align 3
.L92:
	call	_ZdlPv@PLT
	cmpq	%r13, %rbp
	movq	%r13, %rbx
	je	.L85
.L86:
	addq	$96, %r13
.L82:
	movq	64(%rbx), %rdi
	leaq	80(%rbx), %rax
	cmpq	%rax, %rdi
	je	.L83
	call	_ZdlPv@PLT
.L83:
	movq	32(%rbx), %rdi
	addq	$48, %rbx
	cmpq	%rbx, %rdi
	jne	.L92
	cmpq	%rbp, %r13
	movq	%r13, %rbx
	jne	.L86
.L85:
	movq	(%r12), %rbx
.L81:
	testq	%rbx, %rbx
	je	.L87
	movq	%rbx, %rdi
	call	_ZdlPv@PLT
.L87:
	addq	$8, %rsp
	.cfi_remember_state
	.cfi_def_cfa_offset 40
	movq	%r12, %rdi
	movl	$24, %esi
	popq	%rbx
	.cfi_def_cfa_offset 32
	popq	%rbp
	.cfi_def_cfa_offset 24
	popq	%r12
	.cfi_def_cfa_offset 16
	popq	%r13
	.cfi_def_cfa_offset 8
	jmp	_ZdlPvm@PLT
	.p2align 4,,10
	.p2align 3
.L79:
	.cfi_restore_state
	addq	$8, %rsp
	.cfi_def_cfa_offset 40
	popq	%rbx
	.cfi_def_cfa_offset 32
	popq	%rbp
	.cfi_def_cfa_offset 24
	popq	%r12
	.cfi_def_cfa_offset 16
	popq	%r13
	.cfi_def_cfa_offset 8
	ret
	.cfi_endproc
.LFE10004:
	.size	_ZNSt15_Sp_counted_ptrIPSt6vectorIN4asio2ip20basic_resolver_entryINS2_3tcpEEESaIS5_EELN9__gnu_cxx12_Lock_policyE2EE10_M_disposeEv, .-_ZNSt15_Sp_counted_ptrIPSt6vectorIN4asio2ip20basic_resolver_entryINS2_3tcpEEESaIS5_EELN9__gnu_cxx12_Lock_policyE2EE10_M_disposeEv
	.section	.text._ZN4asio6detail13epoll_reactorD2Ev,"axG",@progbits,_ZN4asio6detail13epoll_reactorD5Ev,comdat
	.align 2
	.p2align 4,,15
	.weak	_ZN4asio6detail13epoll_reactorD2Ev
	.type	_ZN4asio6detail13epoll_reactorD2Ev, @function
_ZN4asio6detail13epoll_reactorD2Ev:
.LFB3185:
	.cfi_startproc
	.cfi_personality 0x9b,DW.ref.__gxx_personality_v0
	.cfi_lsda 0x1b,.LLSDA3185
	pushq	%r15
	.cfi_def_cfa_offset 16
	.cfi_offset 15, -16
	pushq	%r14
	.cfi_def_cfa_offset 24
	.cfi_offset 14, -24
	pushq	%r13
	.cfi_def_cfa_offset 32
	.cfi_offset 13, -32
	pushq	%r12
	.cfi_def_cfa_offset 40
	.cfi_offset 12, -40
	pushq	%rbp
	.cfi_def_cfa_offset 48
	.cfi_offset 6, -48
	pushq	%rbx
	.cfi_def_cfa_offset 56
	.cfi_offset 3, -56
	subq	$56, %rsp
	.cfi_def_cfa_offset 112
	movq	%fs:40, %rax
	movq	%rax, 40(%rsp)
	xorl	%eax, %eax
	movq	_ZTVN4asio6detail13epoll_reactorE@GOTPCREL(%rip), %rax
	movq	%rdi, 8(%rsp)
	addq	$16, %rax
	movq	%rax, (%rdi)
	movl	96(%rdi), %edi
	cmpl	$-1, %edi
	je	.L94
	call	close@PLT
.L94:
	movq	8(%rsp), %rax
	movl	100(%rax), %edi
	cmpl	$-1, %edi
	je	.L95
	call	close@PLT
	movq	8(%rsp), %rax
.L95:
	movq	160(%rax), %r12
	testq	%r12, %r12
	je	.L96
	leaq	16(%rsp), %rbp
	.p2align 4,,10
	.p2align 3
.L102:
	movq	24(%r12), %r15
	leaq	128(%r12), %r14
	leaq	80(%r12), %r13
.L101:
	movq	(%r14), %rsi
	testq	%rsi, %rsi
	movq	%rsi, (%rsp)
	je	.L97
	call	_ZNSt3_V215system_categoryEv@PLT
	movq	(%rsp), %rsi
	movq	%rax, %rbx
	jmp	.L98
	.p2align 4,,10
	.p2align 3
.L99:
	movq	$0, (%rsi)
	movq	8(%rsi), %rax
	xorl	%ecx, %ecx
	xorl	%edi, %edi
	movl	$0, 16(%rsp)
	movq	%rbx, 24(%rsp)
	movq	%rbp, %rdx
	call	*%rax
	movq	(%r14), %rsi
	testq	%rsi, %rsi
	je	.L97
.L98:
	movq	(%rsi), %rax
	testq	%rax, %rax
	movq	%rax, (%r14)
	jne	.L99
	movq	$0, 8(%r14)
	jmp	.L99
	.p2align 4,,10
	.p2align 3
.L97:
	subq	$16, %r14
	cmpq	%r13, %r14
	jne	.L101
	leaq	40(%r12), %rdi
	call	pthread_mutex_destroy@PLT
	movq	%r12, %rdi
	movl	$152, %esi
	movq	%r15, %r12
	call	_ZdlPvm@PLT
	testq	%r15, %r15
	jne	.L102
.L96:
	movq	8(%rsp), %rax
	movq	168(%rax), %r12
	testq	%r12, %r12
	je	.L103
	leaq	16(%rsp), %rbp
	.p2align 4,,10
	.p2align 3
.L109:
	movq	24(%r12), %r15
	leaq	128(%r12), %r14
	leaq	80(%r12), %r13
.L108:
	movq	(%r14), %rsi
	testq	%rsi, %rsi
	movq	%rsi, (%rsp)
	je	.L104
	call	_ZNSt3_V215system_categoryEv@PLT
	movq	(%rsp), %rsi
	movq	%rax, %rbx
	jmp	.L105
	.p2align 4,,10
	.p2align 3
.L106:
	movq	$0, (%rsi)
	movq	8(%rsi), %rax
	xorl	%ecx, %ecx
	xorl	%edi, %edi
	movl	$0, 16(%rsp)
	movq	%rbx, 24(%rsp)
	movq	%rbp, %rdx
	call	*%rax
	movq	(%r14), %rsi
	testq	%rsi, %rsi
	je	.L104
.L105:
	movq	(%rsi), %rax
	testq	%rax, %rax
	movq	%rax, (%r14)
	jne	.L106
	movq	$0, 8(%r14)
	jmp	.L106
	.p2align 4,,10
	.p2align 3
.L104:
	subq	$16, %r14
	cmpq	%r14, %r13
	jne	.L108
	leaq	40(%r12), %rdi
	call	pthread_mutex_destroy@PLT
	movq	%r12, %rdi
	movl	$152, %esi
	movq	%r15, %r12
	call	_ZdlPvm@PLT
	testq	%r15, %r15
	jne	.L109
.L103:
	movq	8(%rsp), %rbx
	leaq	120(%rbx), %rdi
	call	pthread_mutex_destroy@PLT
	movl	92(%rbx), %eax
	cmpl	$-1, %eax
	je	.L110
	movl	88(%rbx), %edi
	cmpl	%edi, %eax
	jne	.L151
.L111:
	call	close@PLT
.L112:
	movq	8(%rsp), %rdi
	addq	$48, %rdi
	call	pthread_mutex_destroy@PLT
	movq	40(%rsp), %rax
	xorq	%fs:40, %rax
	jne	.L152
	addq	$56, %rsp
	.cfi_remember_state
	.cfi_def_cfa_offset 56
	popq	%rbx
	.cfi_def_cfa_offset 48
	popq	%rbp
	.cfi_def_cfa_offset 40
	popq	%r12
	.cfi_def_cfa_offset 32
	popq	%r13
	.cfi_def_cfa_offset 24
	popq	%r14
	.cfi_def_cfa_offset 16
	popq	%r15
	.cfi_def_cfa_offset 8
	ret
.L151:
	.cfi_restore_state
	movl	%eax, %edi
	call	close@PLT
.L110:
	movq	8(%rsp), %rax
	movl	88(%rax), %edi
	cmpl	$-1, %edi
	je	.L112
	jmp	.L111
.L152:
	call	__stack_chk_fail@PLT
	.cfi_endproc
.LFE3185:
	.globl	__gxx_personality_v0
	.section	.gcc_except_table._ZN4asio6detail13epoll_reactorD2Ev,"aG",@progbits,_ZN4asio6detail13epoll_reactorD5Ev,comdat
.LLSDA3185:
	.byte	0xff
	.byte	0xff
	.byte	0x1
	.uleb128 .LLSDACSE3185-.LLSDACSB3185
.LLSDACSB3185:
.LLSDACSE3185:
	.section	.text._ZN4asio6detail13epoll_reactorD2Ev,"axG",@progbits,_ZN4asio6detail13epoll_reactorD5Ev,comdat
	.size	_ZN4asio6detail13epoll_reactorD2Ev, .-_ZN4asio6detail13epoll_reactorD2Ev
	.weak	_ZN4asio6detail13epoll_reactorD1Ev
	.set	_ZN4asio6detail13epoll_reactorD1Ev,_ZN4asio6detail13epoll_reactorD2Ev
	.section	.text._ZN4asio2ip16resolver_serviceINS0_3tcpEED0Ev,"axG",@progbits,_ZN4asio2ip16resolver_serviceINS0_3tcpEED5Ev,comdat
	.align 2
	.p2align 4,,15
	.weak	_ZN4asio2ip16resolver_serviceINS0_3tcpEED0Ev
	.type	_ZN4asio2ip16resolver_serviceINS0_3tcpEED0Ev, @function
_ZN4asio2ip16resolver_serviceINS0_3tcpEED0Ev:
.LFB9913:
	.cfi_startproc
	.cfi_personality 0x9b,DW.ref.__gxx_personality_v0
	.cfi_lsda 0x1b,.LLSDA9913
	pushq	%r13
	.cfi_def_cfa_offset 16
	.cfi_offset 13, -16
	pushq	%r12
	.cfi_def_cfa_offset 24
	.cfi_offset 12, -24
	pushq	%rbp
	.cfi_def_cfa_offset 32
	.cfi_offset 6, -32
	pushq	%rbx
	.cfi_def_cfa_offset 40
	.cfi_offset 3, -40
	movq	%rdi, %rbx
	subq	$40, %rsp
	.cfi_def_cfa_offset 80
	movq	104(%rdi), %r12
	movq	%fs:40, %rax
	movq	%rax, 24(%rsp)
	xorl	%eax, %eax
	movq	_ZTVN4asio2ip16resolver_serviceINS0_3tcpEEE@GOTPCREL(%rip), %rax
	addq	$16, %rax
	testq	%r12, %r12
	movq	%rax, (%rdi)
	je	.L154
	movq	(%r12), %rbp
	lock subq	$1, 184(%rbp)
	je	.L226
.L155:
	movl	$8, %esi
	movq	%r12, %rdi
	call	_ZdlPvm@PLT
.L154:
	movq	88(%rbx), %rax
	movq	$0, 104(%rbx)
	testq	%rax, %rax
	je	.L227
	movq	8(%rax), %rbp
	leaq	48(%rbp), %r12
	movq	%r12, %rdi
	call	pthread_mutex_lock@PLT
	orq	$1, 136(%rbp)
	leaq	88(%rbp), %rdi
	movb	$1, 208(%rbp)
	call	pthread_cond_broadcast@PLT
	cmpb	$0, 176(%rbp)
	jne	.L159
	movq	144(%rbp), %rax
	testq	%rax, %rax
	je	.L159
	leaq	88(%rax), %rdx
	movb	$1, 176(%rbp)
	movl	$-2147483639, 12(%rsp)
	leaq	12(%rsp), %rcx
	movl	$3, %esi
	movq	%rdx, 16(%rsp)
	movl	88(%rax), %edx
	movl	96(%rax), %edi
	call	epoll_ctl@PLT
.L159:
	movq	%r12, %rdi
	call	pthread_mutex_unlock@PLT
	movq	112(%rbx), %rbp
	testq	%rbp, %rbp
	je	.L160
	cmpb	$0, 8(%rbp)
	je	.L228
.L161:
	movl	$16, %esi
	movq	%rbp, %rdi
	call	_ZdlPvm@PLT
.L162:
	movq	88(%rbx), %r13
	movq	$0, 112(%rbx)
	testq	%r13, %r13
	je	.L164
.L163:
	movq	0(%r13), %r12
	testq	%r12, %r12
	je	.L165
	movq	56(%r12), %rbp
	testq	%rbp, %rbp
	je	.L166
	.p2align 4,,10
	.p2align 3
.L167:
	movq	0(%rbp), %rax
	movq	%rbp, %rdi
	call	*16(%rax)
	movq	32(%rbp), %rbp
	testq	%rbp, %rbp
	jne	.L167
	movq	56(%r12), %rdi
	testq	%rdi, %rdi
	je	.L166
	.p2align 4,,10
	.p2align 3
.L168:
	movq	32(%rdi), %rbp
	movq	(%rdi), %rax
	call	*8(%rax)
	testq	%rbp, %rbp
	movq	%rbp, 56(%r12)
	movq	%rbp, %rdi
	jne	.L168
.L166:
	leaq	8(%r12), %rdi
	call	pthread_mutex_destroy@PLT
	movl	$64, %esi
	movq	%r12, %rdi
	call	_ZdlPvm@PLT
.L165:
	movl	$16, %esi
	movq	%r13, %rdi
	call	_ZdlPvm@PLT
	movq	112(%rbx), %rbp
	movq	$0, 88(%rbx)
.L158:
	testq	%rbp, %rbp
	je	.L164
	cmpb	$0, 8(%rbp)
	je	.L229
.L170:
	movl	$16, %esi
	movq	%rbp, %rdi
	call	_ZdlPvm@PLT
.L164:
	movq	104(%rbx), %r12
	testq	%r12, %r12
	je	.L171
	movq	(%r12), %rbp
	lock subq	$1, 184(%rbp)
	je	.L230
.L172:
	movl	$8, %esi
	movq	%r12, %rdi
	call	_ZdlPvm@PLT
.L171:
	movq	88(%rbx), %r13
	testq	%r13, %r13
	je	.L174
	movq	0(%r13), %r12
	testq	%r12, %r12
	je	.L175
	movq	56(%r12), %rbp
	testq	%rbp, %rbp
	je	.L176
	.p2align 4,,10
	.p2align 3
.L177:
	movq	0(%rbp), %rax
	movq	%rbp, %rdi
	call	*16(%rax)
	movq	32(%rbp), %rbp
	testq	%rbp, %rbp
	jne	.L177
	movq	56(%r12), %rdi
	testq	%rdi, %rdi
	je	.L176
	.p2align 4,,10
	.p2align 3
.L178:
	movq	32(%rdi), %rbp
	movq	(%rdi), %rax
	call	*8(%rax)
	testq	%rbp, %rbp
	movq	%rbp, 56(%r12)
	movq	%rbp, %rdi
	jne	.L178
.L176:
	leaq	8(%r12), %rdi
	call	pthread_mutex_destroy@PLT
	movl	$64, %esi
	movq	%r12, %rdi
	call	_ZdlPvm@PLT
.L175:
	movl	$16, %esi
	movq	%r13, %rdi
	call	_ZdlPvm@PLT
.L174:
	leaq	48(%rbx), %rdi
	call	pthread_mutex_destroy@PLT
	movl	$120, %esi
	movq	%rbx, %rdi
	call	_ZdlPvm@PLT
	movq	24(%rsp), %rax
	xorq	%fs:40, %rax
	jne	.L231
	addq	$40, %rsp
	.cfi_remember_state
	.cfi_def_cfa_offset 40
	popq	%rbx
	.cfi_def_cfa_offset 32
	popq	%rbp
	.cfi_def_cfa_offset 24
	popq	%r12
	.cfi_def_cfa_offset 16
	popq	%r13
	.cfi_def_cfa_offset 8
	ret
	.p2align 4,,10
	.p2align 3
.L226:
	.cfi_restore_state
	leaq	48(%rbp), %r13
	movq	%r13, %rdi
	call	pthread_mutex_lock@PLT
	orq	$1, 136(%rbp)
	leaq	88(%rbp), %rdi
	movb	$1, 208(%rbp)
	call	pthread_cond_broadcast@PLT
	cmpb	$0, 176(%rbp)
	jne	.L156
	movq	144(%rbp), %rax
	testq	%rax, %rax
	je	.L156
	leaq	88(%rax), %rdx
	movb	$1, 176(%rbp)
	movl	$-2147483639, 12(%rsp)
	leaq	12(%rsp), %rcx
	movl	$3, %esi
	movq	%rdx, 16(%rsp)
	movl	88(%rax), %edx
	movl	96(%rax), %edi
	call	epoll_ctl@PLT
.L156:
	movq	%r13, %rdi
	call	pthread_mutex_unlock@PLT
	jmp	.L155
	.p2align 4,,10
	.p2align 3
.L227:
	movq	112(%rbx), %rbp
	jmp	.L158
	.p2align 4,,10
	.p2align 3
.L229:
	movq	0(%rbp), %rdi
	call	pthread_detach@PLT
	jmp	.L170
	.p2align 4,,10
	.p2align 3
.L230:
	leaq	48(%rbp), %r13
	movq	%r13, %rdi
	call	pthread_mutex_lock@PLT
	orq	$1, 136(%rbp)
	leaq	88(%rbp), %rdi
	movb	$1, 208(%rbp)
	call	pthread_cond_broadcast@PLT
	cmpb	$0, 176(%rbp)
	jne	.L173
	movq	144(%rbp), %rax
	testq	%rax, %rax
	je	.L173
	leaq	88(%rax), %rdx
	movb	$1, 176(%rbp)
	movl	$-2147483639, 12(%rsp)
	leaq	12(%rsp), %rcx
	movl	$3, %esi
	movq	%rdx, 16(%rsp)
	movl	88(%rax), %edx
	movl	96(%rax), %edi
	call	epoll_ctl@PLT
.L173:
	movq	%r13, %rdi
	call	pthread_mutex_unlock@PLT
	jmp	.L172
	.p2align 4,,10
	.p2align 3
.L160:
	movq	88(%rbx), %r13
	testq	%r13, %r13
	jne	.L163
	jmp	.L164
	.p2align 4,,10
	.p2align 3
.L228:
	movq	0(%rbp), %rdi
	xorl	%esi, %esi
	call	pthread_join@PLT
	movb	$1, 8(%rbp)
	movq	112(%rbx), %rbp
	testq	%rbp, %rbp
	je	.L162
	cmpb	$0, 8(%rbp)
	jne	.L161
	movq	0(%rbp), %rdi
	call	pthread_detach@PLT
	jmp	.L161
.L231:
	call	__stack_chk_fail@PLT
	.cfi_endproc
.LFE9913:
	.section	.gcc_except_table._ZN4asio2ip16resolver_serviceINS0_3tcpEED0Ev,"aG",@progbits,_ZN4asio2ip16resolver_serviceINS0_3tcpEED5Ev,comdat
.LLSDA9913:
	.byte	0xff
	.byte	0xff
	.byte	0x1
	.uleb128 .LLSDACSE9913-.LLSDACSB9913
.LLSDACSB9913:
.LLSDACSE9913:
	.section	.text._ZN4asio2ip16resolver_serviceINS0_3tcpEED0Ev,"axG",@progbits,_ZN4asio2ip16resolver_serviceINS0_3tcpEED5Ev,comdat
	.size	_ZN4asio2ip16resolver_serviceINS0_3tcpEED0Ev, .-_ZN4asio2ip16resolver_serviceINS0_3tcpEED0Ev
	.section	.text._ZN4asio6detail15task_io_serviceD0Ev,"axG",@progbits,_ZN4asio6detail15task_io_serviceD5Ev,comdat
	.align 2
	.p2align 4,,15
	.weak	_ZN4asio6detail15task_io_serviceD0Ev
	.type	_ZN4asio6detail15task_io_serviceD0Ev, @function
_ZN4asio6detail15task_io_serviceD0Ev:
.LFB9941:
	.cfi_startproc
	.cfi_personality 0x9b,DW.ref.__gxx_personality_v0
	.cfi_lsda 0x1b,.LLSDA9941
	pushq	%r12
	.cfi_def_cfa_offset 16
	.cfi_offset 12, -16
	pushq	%rbp
	.cfi_def_cfa_offset 24
	.cfi_offset 6, -24
	pushq	%rbx
	.cfi_def_cfa_offset 32
	.cfi_offset 3, -32
	movq	%rdi, %rbx
	subq	$48, %rsp
	.cfi_def_cfa_offset 80
	movq	192(%rdi), %rsi
	movq	%fs:40, %rax
	movq	%rax, 40(%rsp)
	xorl	%eax, %eax
	movq	_ZTVN4asio6detail15task_io_serviceE@GOTPCREL(%rip), %rax
	movq	%rsi, 8(%rsp)
	addq	$16, %rax
	testq	%rsi, %rsi
	movq	%rax, (%rdi)
	je	.L233
	call	_ZNSt3_V215system_categoryEv@PLT
	leaq	16(%rsp), %rbp
	movq	%rax, %r12
	movq	8(%rsp), %rsi
	jmp	.L234
	.p2align 4,,10
	.p2align 3
.L235:
	movq	$0, (%rsi)
	movq	8(%rsi), %rax
	xorl	%ecx, %ecx
	xorl	%edi, %edi
	movl	$0, 16(%rsp)
	movq	%r12, 24(%rsp)
	movq	%rbp, %rdx
	call	*%rax
	movq	192(%rbx), %rsi
	testq	%rsi, %rsi
	je	.L233
.L234:
	movq	(%rsi), %rax
	testq	%rax, %rax
	movq	%rax, 192(%rbx)
	jne	.L235
	movq	$0, 200(%rbx)
	jmp	.L235
	.p2align 4,,10
	.p2align 3
.L233:
	leaq	88(%rbx), %rdi
	call	pthread_cond_destroy@PLT
	leaq	48(%rbx), %rdi
	call	pthread_mutex_destroy@PLT
	movl	$216, %esi
	movq	%rbx, %rdi
	call	_ZdlPvm@PLT
	movq	40(%rsp), %rax
	xorq	%fs:40, %rax
	jne	.L246
	addq	$48, %rsp
	.cfi_remember_state
	.cfi_def_cfa_offset 32
	popq	%rbx
	.cfi_def_cfa_offset 24
	popq	%rbp
	.cfi_def_cfa_offset 16
	popq	%r12
	.cfi_def_cfa_offset 8
	ret
.L246:
	.cfi_restore_state
	call	__stack_chk_fail@PLT
	.cfi_endproc
.LFE9941:
	.section	.gcc_except_table._ZN4asio6detail15task_io_serviceD0Ev,"aG",@progbits,_ZN4asio6detail15task_io_serviceD5Ev,comdat
.LLSDA9941:
	.byte	0xff
	.byte	0xff
	.byte	0x1
	.uleb128 .LLSDACSE9941-.LLSDACSB9941
.LLSDACSB9941:
.LLSDACSE9941:
	.section	.text._ZN4asio6detail15task_io_serviceD0Ev,"axG",@progbits,_ZN4asio6detail15task_io_serviceD5Ev,comdat
	.size	_ZN4asio6detail15task_io_serviceD0Ev, .-_ZN4asio6detail15task_io_serviceD0Ev
	.section	.text._ZN4asio6detail15task_io_serviceD2Ev,"axG",@progbits,_ZN4asio6detail15task_io_serviceD5Ev,comdat
	.align 2
	.p2align 4,,15
	.weak	_ZN4asio6detail15task_io_serviceD2Ev
	.type	_ZN4asio6detail15task_io_serviceD2Ev, @function
_ZN4asio6detail15task_io_serviceD2Ev:
.LFB9939:
	.cfi_startproc
	.cfi_personality 0x9b,DW.ref.__gxx_personality_v0
	.cfi_lsda 0x1b,.LLSDA9939
	pushq	%r12
	.cfi_def_cfa_offset 16
	.cfi_offset 12, -16
	pushq	%rbp
	.cfi_def_cfa_offset 24
	.cfi_offset 6, -24
	pushq	%rbx
	.cfi_def_cfa_offset 32
	.cfi_offset 3, -32
	movq	%rdi, %rbx
	subq	$48, %rsp
	.cfi_def_cfa_offset 80
	movq	192(%rdi), %rsi
	movq	%fs:40, %rax
	movq	%rax, 40(%rsp)
	xorl	%eax, %eax
	movq	_ZTVN4asio6detail15task_io_serviceE@GOTPCREL(%rip), %rax
	movq	%rsi, 8(%rsp)
	addq	$16, %rax
	testq	%rsi, %rsi
	movq	%rax, (%rdi)
	je	.L248
	call	_ZNSt3_V215system_categoryEv@PLT
	leaq	16(%rsp), %rbp
	movq	%rax, %r12
	movq	8(%rsp), %rsi
	jmp	.L249
	.p2align 4,,10
	.p2align 3
.L250:
	movq	$0, (%rsi)
	movq	8(%rsi), %rax
	xorl	%ecx, %ecx
	xorl	%edi, %edi
	movl	$0, 16(%rsp)
	movq	%r12, 24(%rsp)
	movq	%rbp, %rdx
	call	*%rax
	movq	192(%rbx), %rsi
	testq	%rsi, %rsi
	je	.L248
.L249:
	movq	(%rsi), %rax
	testq	%rax, %rax
	movq	%rax, 192(%rbx)
	jne	.L250
	movq	$0, 200(%rbx)
	jmp	.L250
	.p2align 4,,10
	.p2align 3
.L248:
	leaq	88(%rbx), %rdi
	call	pthread_cond_destroy@PLT
	leaq	48(%rbx), %rdi
	call	pthread_mutex_destroy@PLT
	movq	40(%rsp), %rax
	xorq	%fs:40, %rax
	jne	.L261
	addq	$48, %rsp
	.cfi_remember_state
	.cfi_def_cfa_offset 32
	popq	%rbx
	.cfi_def_cfa_offset 24
	popq	%rbp
	.cfi_def_cfa_offset 16
	popq	%r12
	.cfi_def_cfa_offset 8
	ret
.L261:
	.cfi_restore_state
	call	__stack_chk_fail@PLT
	.cfi_endproc
.LFE9939:
	.section	.gcc_except_table._ZN4asio6detail15task_io_serviceD2Ev,"aG",@progbits,_ZN4asio6detail15task_io_serviceD5Ev,comdat
.LLSDA9939:
	.byte	0xff
	.byte	0xff
	.byte	0x1
	.uleb128 .LLSDACSE9939-.LLSDACSB9939
.LLSDACSB9939:
.LLSDACSE9939:
	.section	.text._ZN4asio6detail15task_io_serviceD2Ev,"axG",@progbits,_ZN4asio6detail15task_io_serviceD5Ev,comdat
	.size	_ZN4asio6detail15task_io_serviceD2Ev, .-_ZN4asio6detail15task_io_serviceD2Ev
	.weak	_ZN4asio6detail15task_io_serviceD1Ev
	.set	_ZN4asio6detail15task_io_serviceD1Ev,_ZN4asio6detail15task_io_serviceD2Ev
	.section	.text._ZN4asio6detail13epoll_reactorD0Ev,"axG",@progbits,_ZN4asio6detail13epoll_reactorD5Ev,comdat
	.align 2
	.p2align 4,,15
	.weak	_ZN4asio6detail13epoll_reactorD0Ev
	.type	_ZN4asio6detail13epoll_reactorD0Ev, @function
_ZN4asio6detail13epoll_reactorD0Ev:
.LFB3187:
	.cfi_startproc
	.cfi_personality 0x9b,DW.ref.__gxx_personality_v0
	.cfi_lsda 0x1b,.LLSDA3187
	pushq	%r15
	.cfi_def_cfa_offset 16
	.cfi_offset 15, -16
	pushq	%r14
	.cfi_def_cfa_offset 24
	.cfi_offset 14, -24
	movq	%rdi, %r15
	pushq	%r13
	.cfi_def_cfa_offset 32
	.cfi_offset 13, -32
	pushq	%r12
	.cfi_def_cfa_offset 40
	.cfi_offset 12, -40
	pushq	%rbp
	.cfi_def_cfa_offset 48
	.cfi_offset 6, -48
	pushq	%rbx
	.cfi_def_cfa_offset 56
	.cfi_offset 3, -56
	subq	$56, %rsp
	.cfi_def_cfa_offset 112
	movq	%fs:40, %rax
	movq	%rax, 40(%rsp)
	xorl	%eax, %eax
	movq	_ZTVN4asio6detail13epoll_reactorE@GOTPCREL(%rip), %rax
	addq	$16, %rax
	movq	%rax, (%rdi)
	movl	96(%rdi), %edi
	cmpl	$-1, %edi
	je	.L263
	call	close@PLT
.L263:
	movl	100(%r15), %edi
	cmpl	$-1, %edi
	je	.L264
	call	close@PLT
.L264:
	movq	160(%r15), %r12
	testq	%r12, %r12
	je	.L265
	leaq	16(%rsp), %rbp
	.p2align 4,,10
	.p2align 3
.L271:
	movq	24(%r12), %rax
	leaq	128(%r12), %r14
	leaq	80(%r12), %r13
	movq	%rax, 8(%rsp)
.L270:
	movq	(%r14), %rsi
	testq	%rsi, %rsi
	movq	%rsi, (%rsp)
	je	.L266
	call	_ZNSt3_V215system_categoryEv@PLT
	movq	(%rsp), %rsi
	movq	%rax, %rbx
	jmp	.L267
	.p2align 4,,10
	.p2align 3
.L268:
	movq	$0, (%rsi)
	movq	8(%rsi), %rax
	xorl	%ecx, %ecx
	xorl	%edi, %edi
	movl	$0, 16(%rsp)
	movq	%rbx, 24(%rsp)
	movq	%rbp, %rdx
	call	*%rax
	movq	(%r14), %rsi
	testq	%rsi, %rsi
	je	.L266
.L267:
	movq	(%rsi), %rax
	testq	%rax, %rax
	movq	%rax, (%r14)
	jne	.L268
	movq	$0, 8(%r14)
	jmp	.L268
	.p2align 4,,10
	.p2align 3
.L266:
	subq	$16, %r14
	cmpq	%r13, %r14
	jne	.L270
	leaq	40(%r12), %rdi
	call	pthread_mutex_destroy@PLT
	movq	%r12, %rdi
	movl	$152, %esi
	call	_ZdlPvm@PLT
	movq	8(%rsp), %r12
	testq	%r12, %r12
	jne	.L271
.L265:
	movq	168(%r15), %r12
	testq	%r12, %r12
	je	.L272
	leaq	16(%rsp), %rbp
	.p2align 4,,10
	.p2align 3
.L278:
	movq	24(%r12), %rax
	leaq	144(%r12), %r14
	leaq	96(%r12), %r13
	movq	%rax, 8(%rsp)
.L277:
	subq	$16, %r14
	movq	(%r14), %rsi
	testq	%rsi, %rsi
	movq	%rsi, (%rsp)
	je	.L273
	call	_ZNSt3_V215system_categoryEv@PLT
	movq	(%rsp), %rsi
	movq	%rax, %rbx
	jmp	.L274
	.p2align 4,,10
	.p2align 3
.L275:
	movq	$0, (%rsi)
	movq	8(%rsi), %rax
	xorl	%ecx, %ecx
	xorl	%edi, %edi
	movl	$0, 16(%rsp)
	movq	%rbx, 24(%rsp)
	movq	%rbp, %rdx
	call	*%rax
	movq	(%r14), %rsi
	testq	%rsi, %rsi
	je	.L273
.L274:
	movq	(%rsi), %rax
	testq	%rax, %rax
	movq	%rax, (%r14)
	jne	.L275
	movq	$0, 8(%r14)
	jmp	.L275
	.p2align 4,,10
	.p2align 3
.L273:
	cmpq	%r13, %r14
	jne	.L277
	leaq	40(%r12), %rdi
	call	pthread_mutex_destroy@PLT
	movq	%r12, %rdi
	movl	$152, %esi
	call	_ZdlPvm@PLT
	movq	8(%rsp), %r12
	testq	%r12, %r12
	jne	.L278
.L272:
	leaq	120(%r15), %rdi
	call	pthread_mutex_destroy@PLT
	movl	92(%r15), %eax
	cmpl	$-1, %eax
	je	.L279
	movl	88(%r15), %edi
	cmpl	%edi, %eax
	jne	.L320
.L280:
	call	close@PLT
.L281:
	leaq	48(%r15), %rdi
	call	pthread_mutex_destroy@PLT
	movl	$176, %esi
	movq	%r15, %rdi
	call	_ZdlPvm@PLT
	movq	40(%rsp), %rax
	xorq	%fs:40, %rax
	jne	.L321
	addq	$56, %rsp
	.cfi_remember_state
	.cfi_def_cfa_offset 56
	popq	%rbx
	.cfi_def_cfa_offset 48
	popq	%rbp
	.cfi_def_cfa_offset 40
	popq	%r12
	.cfi_def_cfa_offset 32
	popq	%r13
	.cfi_def_cfa_offset 24
	popq	%r14
	.cfi_def_cfa_offset 16
	popq	%r15
	.cfi_def_cfa_offset 8
	ret
.L320:
	.cfi_restore_state
	movl	%eax, %edi
	call	close@PLT
.L279:
	movl	88(%r15), %edi
	cmpl	$-1, %edi
	je	.L281
	jmp	.L280
.L321:
	call	__stack_chk_fail@PLT
	.cfi_endproc
.LFE3187:
	.section	.gcc_except_table._ZN4asio6detail13epoll_reactorD0Ev,"aG",@progbits,_ZN4asio6detail13epoll_reactorD5Ev,comdat
.LLSDA3187:
	.byte	0xff
	.byte	0xff
	.byte	0x1
	.uleb128 .LLSDACSE3187-.LLSDACSB3187
.LLSDACSB3187:
.LLSDACSE3187:
	.section	.text._ZN4asio6detail13epoll_reactorD0Ev,"axG",@progbits,_ZN4asio6detail13epoll_reactorD5Ev,comdat
	.size	_ZN4asio6detail13epoll_reactorD0Ev, .-_ZN4asio6detail13epoll_reactorD0Ev
	.section	.rodata._ZNK4asio6detail15system_category7messageB5cxx11Ei.str1.1,"aMS",@progbits,1
.LC5:
	.string	"Operation aborted."
	.section	.text._ZNK4asio6detail15system_category7messageB5cxx11Ei,"axG",@progbits,_ZNK4asio6detail15system_category7messageB5cxx11Ei,comdat
	.align 2
	.p2align 4,,15
	.weak	_ZNK4asio6detail15system_category7messageB5cxx11Ei
	.type	_ZNK4asio6detail15system_category7messageB5cxx11Ei, @function
_ZNK4asio6detail15system_category7messageB5cxx11Ei:
.LFB2306:
	.cfi_startproc
	pushq	%r12
	.cfi_def_cfa_offset 16
	.cfi_offset 12, -16
	pushq	%rbp
	.cfi_def_cfa_offset 24
	.cfi_offset 6, -24
	leaq	16(%rdi), %r12
	pushq	%rbx
	.cfi_def_cfa_offset 32
	.cfi_offset 3, -32
	movq	%rdi, %rbx
	subq	$272, %rsp
	.cfi_def_cfa_offset 304
	movq	%fs:40, %rax
	movq	%rax, 264(%rsp)
	xorl	%eax, %eax
	cmpl	$125, %edx
	je	.L330
	pxor	%xmm0, %xmm0
	leaq	16(%rsp), %rdi
	movl	%edx, %r8d
	xorl	%eax, %eax
	movl	$30, %ecx
	movl	$256, %edx
	rep stosq
	movq	%rsp, %rsi
	movl	%r8d, %edi
	movaps	%xmm0, (%rsp)
	call	strerror_r@PLT
	testq	%rax, %rax
	movq	%rax, %rbp
	movq	$-1, %rdx
	movq	%r12, (%rbx)
	je	.L325
	movq	%rax, %rdi
	call	strlen@PLT
	leaq	0(%rbp,%rax), %rdx
.L325:
	movq	%rbp, %rsi
	movq	%rbx, %rdi
	call	_ZNSt7__cxx1112basic_stringIcSt11char_traitsIcESaIcEE12_M_constructIPKcEEvT_S8_St20forward_iterator_tag.isra.225
.L322:
	movq	264(%rsp), %rcx
	xorq	%fs:40, %rcx
	movq	%rbx, %rax
	jne	.L331
	addq	$272, %rsp
	.cfi_remember_state
	.cfi_def_cfa_offset 32
	popq	%rbx
	.cfi_def_cfa_offset 24
	popq	%rbp
	.cfi_def_cfa_offset 16
	popq	%r12
	.cfi_def_cfa_offset 8
	ret
	.p2align 4,,10
	.p2align 3
.L330:
	.cfi_restore_state
	leaq	18+.LC5(%rip), %rdx
	movq	%r12, (%rdi)
	leaq	-18(%rdx), %rsi
	call	_ZNSt7__cxx1112basic_stringIcSt11char_traitsIcESaIcEE12_M_constructIPKcEEvT_S8_St20forward_iterator_tag.isra.225
	jmp	.L322
.L331:
	call	__stack_chk_fail@PLT
	.cfi_endproc
.LFE2306:
	.size	_ZNK4asio6detail15system_category7messageB5cxx11Ei, .-_ZNK4asio6detail15system_category7messageB5cxx11Ei
	.section	.rodata._ZNK4asio5error6detail17addrinfo_category7messageB5cxx11Ei.str1.1,"aMS",@progbits,1
.LC6:
	.string	"Service not found"
.LC7:
	.string	"Socket type not supported"
.LC8:
	.string	"asio.addrinfo error"
	.section	.text._ZNK4asio5error6detail17addrinfo_category7messageB5cxx11Ei,"axG",@progbits,_ZNK4asio5error6detail17addrinfo_category7messageB5cxx11Ei,comdat
	.align 2
	.p2align 4,,15
	.weak	_ZNK4asio5error6detail17addrinfo_category7messageB5cxx11Ei
	.type	_ZNK4asio5error6detail17addrinfo_category7messageB5cxx11Ei, @function
_ZNK4asio5error6detail17addrinfo_category7messageB5cxx11Ei:
.LFB2352:
	.cfi_startproc
	leaq	16(%rdi), %rax
	cmpl	$-8, %edx
	pushq	%rbx
	.cfi_def_cfa_offset 16
	.cfi_offset 3, -16
	movq	%rdi, %rbx
	movq	%rax, (%rdi)
	je	.L337
	cmpl	$-7, %edx
	je	.L338
	leaq	19+.LC8(%rip), %rdx
	leaq	-19(%rdx), %rsi
	call	_ZNSt7__cxx1112basic_stringIcSt11char_traitsIcESaIcEE12_M_constructIPKcEEvT_S8_St20forward_iterator_tag.isra.225
	movq	%rbx, %rax
	popq	%rbx
	.cfi_remember_state
	.cfi_def_cfa_offset 8
	ret
	.p2align 4,,10
	.p2align 3
.L338:
	.cfi_restore_state
	leaq	25+.LC7(%rip), %rdx
	leaq	-25(%rdx), %rsi
	call	_ZNSt7__cxx1112basic_stringIcSt11char_traitsIcESaIcEE12_M_constructIPKcEEvT_S8_St20forward_iterator_tag.isra.225
	movq	%rbx, %rax
	popq	%rbx
	.cfi_remember_state
	.cfi_def_cfa_offset 8
	ret
	.p2align 4,,10
	.p2align 3
.L337:
	.cfi_restore_state
	leaq	17+.LC6(%rip), %rdx
	leaq	-17(%rdx), %rsi
	call	_ZNSt7__cxx1112basic_stringIcSt11char_traitsIcESaIcEE12_M_constructIPKcEEvT_S8_St20forward_iterator_tag.isra.225
	movq	%rbx, %rax
	popq	%rbx
	.cfi_def_cfa_offset 8
	ret
	.cfi_endproc
.LFE2352:
	.size	_ZNK4asio5error6detail17addrinfo_category7messageB5cxx11Ei, .-_ZNK4asio5error6detail17addrinfo_category7messageB5cxx11Ei
	.section	.text._ZN4asio2ip16resolver_serviceINS0_3tcpEE16shutdown_serviceEv,"axG",@progbits,_ZN4asio2ip16resolver_serviceINS0_3tcpEE16shutdown_serviceEv,comdat
	.align 2
	.p2align 4,,15
	.weak	_ZN4asio2ip16resolver_serviceINS0_3tcpEE16shutdown_serviceEv
	.type	_ZN4asio2ip16resolver_serviceINS0_3tcpEE16shutdown_serviceEv, @function
_ZN4asio2ip16resolver_serviceINS0_3tcpEE16shutdown_serviceEv:
.LFB10051:
	.cfi_startproc
	.cfi_personality 0x9b,DW.ref.__gxx_personality_v0
	.cfi_lsda 0x1b,.LLSDA10051
	pushq	%r13
	.cfi_def_cfa_offset 16
	.cfi_offset 13, -16
	pushq	%r12
	.cfi_def_cfa_offset 24
	.cfi_offset 12, -24
	pushq	%rbp
	.cfi_def_cfa_offset 32
	.cfi_offset 6, -32
	pushq	%rbx
	.cfi_def_cfa_offset 40
	.cfi_offset 3, -40
	movq	%rdi, %rbx
	subq	$40, %rsp
	.cfi_def_cfa_offset 80
	movq	104(%rdi), %r12
	movq	%fs:40, %rax
	movq	%rax, 24(%rsp)
	xorl	%eax, %eax
	testq	%r12, %r12
	je	.L340
	movq	(%r12), %rbp
	lock subq	$1, 184(%rbp)
	je	.L387
.L341:
	movl	$8, %esi
	movq	%r12, %rdi
	call	_ZdlPvm@PLT
.L340:
	movq	88(%rbx), %rax
	movq	$0, 104(%rbx)
	testq	%rax, %rax
	je	.L339
	movq	8(%rax), %rbp
	leaq	48(%rbp), %r12
	movq	%r12, %rdi
	call	pthread_mutex_lock@PLT
	orq	$1, 136(%rbp)
	leaq	88(%rbp), %rdi
	movb	$1, 208(%rbp)
	call	pthread_cond_broadcast@PLT
	cmpb	$0, 176(%rbp)
	jne	.L344
	movq	144(%rbp), %rax
	testq	%rax, %rax
	je	.L344
	leaq	88(%rax), %rdx
	movb	$1, 176(%rbp)
	movl	$-2147483639, 12(%rsp)
	leaq	12(%rsp), %rcx
	movl	$3, %esi
	movq	%rdx, 16(%rsp)
	movl	88(%rax), %edx
	movl	96(%rax), %edi
	call	epoll_ctl@PLT
.L344:
	movq	%r12, %rdi
	call	pthread_mutex_unlock@PLT
	movq	112(%rbx), %rbp
	testq	%rbp, %rbp
	je	.L345
	cmpb	$0, 8(%rbp)
	je	.L388
.L346:
	movl	$16, %esi
	movq	%rbp, %rdi
	call	_ZdlPvm@PLT
.L347:
	movq	$0, 112(%rbx)
.L345:
	movq	88(%rbx), %r13
	testq	%r13, %r13
	je	.L348
	movq	0(%r13), %r12
	testq	%r12, %r12
	je	.L349
	movq	56(%r12), %rbp
	testq	%rbp, %rbp
	je	.L350
	.p2align 4,,10
	.p2align 3
.L351:
	movq	0(%rbp), %rax
	movq	%rbp, %rdi
	call	*16(%rax)
	movq	32(%rbp), %rbp
	testq	%rbp, %rbp
	jne	.L351
	movq	56(%r12), %rdi
	testq	%rdi, %rdi
	je	.L350
	.p2align 4,,10
	.p2align 3
.L352:
	movq	32(%rdi), %rbp
	movq	(%rdi), %rax
	call	*8(%rax)
	testq	%rbp, %rbp
	movq	%rbp, 56(%r12)
	movq	%rbp, %rdi
	jne	.L352
.L350:
	leaq	8(%r12), %rdi
	call	pthread_mutex_destroy@PLT
	movl	$64, %esi
	movq	%r12, %rdi
	call	_ZdlPvm@PLT
.L349:
	movl	$16, %esi
	movq	%r13, %rdi
	call	_ZdlPvm@PLT
.L348:
	movq	$0, 88(%rbx)
.L339:
	movq	24(%rsp), %rax
	xorq	%fs:40, %rax
	jne	.L389
	addq	$40, %rsp
	.cfi_remember_state
	.cfi_def_cfa_offset 40
	popq	%rbx
	.cfi_def_cfa_offset 32
	popq	%rbp
	.cfi_def_cfa_offset 24
	popq	%r12
	.cfi_def_cfa_offset 16
	popq	%r13
	.cfi_def_cfa_offset 8
	ret
	.p2align 4,,10
	.p2align 3
.L387:
	.cfi_restore_state
	leaq	48(%rbp), %r13
	movq	%r13, %rdi
	call	pthread_mutex_lock@PLT
	orq	$1, 136(%rbp)
	leaq	88(%rbp), %rdi
	movb	$1, 208(%rbp)
	call	pthread_cond_broadcast@PLT
	cmpb	$0, 176(%rbp)
	jne	.L342
	movq	144(%rbp), %rax
	testq	%rax, %rax
	je	.L342
	leaq	88(%rax), %rdx
	movb	$1, 176(%rbp)
	movl	$-2147483639, 12(%rsp)
	leaq	12(%rsp), %rcx
	movl	$3, %esi
	movq	%rdx, 16(%rsp)
	movl	88(%rax), %edx
	movl	96(%rax), %edi
	call	epoll_ctl@PLT
.L342:
	movq	%r13, %rdi
	call	pthread_mutex_unlock@PLT
	jmp	.L341
	.p2align 4,,10
	.p2align 3
.L388:
	movq	0(%rbp), %rdi
	xorl	%esi, %esi
.LEHB0:
	call	pthread_join@PLT
.LEHE0:
	movb	$1, 8(%rbp)
	movq	112(%rbx), %rbp
	testq	%rbp, %rbp
	je	.L347
	cmpb	$0, 8(%rbp)
	jne	.L346
	movq	0(%rbp), %rdi
	call	pthread_detach@PLT
	jmp	.L346
.L389:
	call	__stack_chk_fail@PLT
	.cfi_endproc
.LFE10051:
	.section	.gcc_except_table._ZN4asio2ip16resolver_serviceINS0_3tcpEE16shutdown_serviceEv,"aG",@progbits,_ZN4asio2ip16resolver_serviceINS0_3tcpEE16shutdown_serviceEv,comdat
.LLSDA10051:
	.byte	0xff
	.byte	0xff
	.byte	0x1
	.uleb128 .LLSDACSE10051-.LLSDACSB10051
.LLSDACSB10051:
	.uleb128 .LEHB0-.LFB10051
	.uleb128 .LEHE0-.LEHB0
	.uleb128 0
	.uleb128 0
.LLSDACSE10051:
	.section	.text._ZN4asio2ip16resolver_serviceINS0_3tcpEE16shutdown_serviceEv,"axG",@progbits,_ZN4asio2ip16resolver_serviceINS0_3tcpEE16shutdown_serviceEv,comdat
	.size	_ZN4asio2ip16resolver_serviceINS0_3tcpEE16shutdown_serviceEv, .-_ZN4asio2ip16resolver_serviceINS0_3tcpEE16shutdown_serviceEv
	.section	.text._ZN4asio2ip16resolver_serviceINS0_3tcpEED2Ev,"axG",@progbits,_ZN4asio2ip16resolver_serviceINS0_3tcpEED5Ev,comdat
	.align 2
	.p2align 4,,15
	.weak	_ZN4asio2ip16resolver_serviceINS0_3tcpEED2Ev
	.type	_ZN4asio2ip16resolver_serviceINS0_3tcpEED2Ev, @function
_ZN4asio2ip16resolver_serviceINS0_3tcpEED2Ev:
.LFB9911:
	.cfi_startproc
	.cfi_personality 0x9b,DW.ref.__gxx_personality_v0
	.cfi_lsda 0x1b,.LLSDA9911
	pushq	%r13
	.cfi_def_cfa_offset 16
	.cfi_offset 13, -16
	pushq	%r12
	.cfi_def_cfa_offset 24
	.cfi_offset 12, -24
	pushq	%rbp
	.cfi_def_cfa_offset 32
	.cfi_offset 6, -32
	pushq	%rbx
	.cfi_def_cfa_offset 40
	.cfi_offset 3, -40
	movq	%rdi, %rbx
	subq	$40, %rsp
	.cfi_def_cfa_offset 80
	movq	104(%rdi), %r12
	movq	%fs:40, %rax
	movq	%rax, 24(%rsp)
	xorl	%eax, %eax
	movq	_ZTVN4asio2ip16resolver_serviceINS0_3tcpEEE@GOTPCREL(%rip), %rax
	addq	$16, %rax
	testq	%r12, %r12
	movq	%rax, (%rdi)
	je	.L391
	movq	(%r12), %rbp
	lock subq	$1, 184(%rbp)
	je	.L463
.L392:
	movl	$8, %esi
	movq	%r12, %rdi
	call	_ZdlPvm@PLT
.L391:
	movq	88(%rbx), %rax
	movq	$0, 104(%rbx)
	testq	%rax, %rax
	je	.L464
	movq	8(%rax), %rbp
	leaq	48(%rbp), %r12
	movq	%r12, %rdi
	call	pthread_mutex_lock@PLT
	orq	$1, 136(%rbp)
	leaq	88(%rbp), %rdi
	movb	$1, 208(%rbp)
	call	pthread_cond_broadcast@PLT
	cmpb	$0, 176(%rbp)
	jne	.L396
	movq	144(%rbp), %rax
	testq	%rax, %rax
	je	.L396
	leaq	88(%rax), %rdx
	movb	$1, 176(%rbp)
	movl	$-2147483639, 12(%rsp)
	leaq	12(%rsp), %rcx
	movl	$3, %esi
	movq	%rdx, 16(%rsp)
	movl	88(%rax), %edx
	movl	96(%rax), %edi
	call	epoll_ctl@PLT
.L396:
	movq	%r12, %rdi
	call	pthread_mutex_unlock@PLT
	movq	112(%rbx), %rbp
	testq	%rbp, %rbp
	je	.L397
	cmpb	$0, 8(%rbp)
	je	.L465
.L398:
	movl	$16, %esi
	movq	%rbp, %rdi
	call	_ZdlPvm@PLT
.L399:
	movq	88(%rbx), %r13
	movq	$0, 112(%rbx)
	testq	%r13, %r13
	je	.L401
.L400:
	movq	0(%r13), %r12
	testq	%r12, %r12
	je	.L402
	movq	56(%r12), %rbp
	testq	%rbp, %rbp
	je	.L403
	.p2align 4,,10
	.p2align 3
.L404:
	movq	0(%rbp), %rax
	movq	%rbp, %rdi
	call	*16(%rax)
	movq	32(%rbp), %rbp
	testq	%rbp, %rbp
	jne	.L404
	movq	56(%r12), %rdi
	testq	%rdi, %rdi
	je	.L403
	.p2align 4,,10
	.p2align 3
.L405:
	movq	32(%rdi), %rbp
	movq	(%rdi), %rax
	call	*8(%rax)
	testq	%rbp, %rbp
	movq	%rbp, 56(%r12)
	movq	%rbp, %rdi
	jne	.L405
.L403:
	leaq	8(%r12), %rdi
	call	pthread_mutex_destroy@PLT
	movl	$64, %esi
	movq	%r12, %rdi
	call	_ZdlPvm@PLT
.L402:
	movl	$16, %esi
	movq	%r13, %rdi
	call	_ZdlPvm@PLT
	movq	112(%rbx), %rbp
	movq	$0, 88(%rbx)
.L395:
	testq	%rbp, %rbp
	je	.L401
	cmpb	$0, 8(%rbp)
	je	.L466
.L407:
	movl	$16, %esi
	movq	%rbp, %rdi
	call	_ZdlPvm@PLT
.L401:
	movq	104(%rbx), %r12
	testq	%r12, %r12
	je	.L408
	movq	(%r12), %rbp
	lock subq	$1, 184(%rbp)
	je	.L467
.L409:
	movl	$8, %esi
	movq	%r12, %rdi
	call	_ZdlPvm@PLT
.L408:
	movq	88(%rbx), %r13
	testq	%r13, %r13
	je	.L411
	movq	0(%r13), %r12
	testq	%r12, %r12
	je	.L412
	movq	56(%r12), %rbp
	testq	%rbp, %rbp
	je	.L413
	.p2align 4,,10
	.p2align 3
.L414:
	movq	0(%rbp), %rax
	movq	%rbp, %rdi
	call	*16(%rax)
	movq	32(%rbp), %rbp
	testq	%rbp, %rbp
	jne	.L414
	movq	56(%r12), %rdi
	testq	%rdi, %rdi
	je	.L413
	.p2align 4,,10
	.p2align 3
.L415:
	movq	32(%rdi), %rbp
	movq	(%rdi), %rax
	call	*8(%rax)
	testq	%rbp, %rbp
	movq	%rbp, 56(%r12)
	movq	%rbp, %rdi
	jne	.L415
.L413:
	leaq	8(%r12), %rdi
	call	pthread_mutex_destroy@PLT
	movl	$64, %esi
	movq	%r12, %rdi
	call	_ZdlPvm@PLT
.L412:
	movl	$16, %esi
	movq	%r13, %rdi
	call	_ZdlPvm@PLT
.L411:
	leaq	48(%rbx), %rdi
	call	pthread_mutex_destroy@PLT
	movq	24(%rsp), %rax
	xorq	%fs:40, %rax
	jne	.L468
	addq	$40, %rsp
	.cfi_remember_state
	.cfi_def_cfa_offset 40
	popq	%rbx
	.cfi_def_cfa_offset 32
	popq	%rbp
	.cfi_def_cfa_offset 24
	popq	%r12
	.cfi_def_cfa_offset 16
	popq	%r13
	.cfi_def_cfa_offset 8
	ret
	.p2align 4,,10
	.p2align 3
.L463:
	.cfi_restore_state
	leaq	48(%rbp), %r13
	movq	%r13, %rdi
	call	pthread_mutex_lock@PLT
	orq	$1, 136(%rbp)
	leaq	88(%rbp), %rdi
	movb	$1, 208(%rbp)
	call	pthread_cond_broadcast@PLT
	cmpb	$0, 176(%rbp)
	jne	.L393
	movq	144(%rbp), %rax
	testq	%rax, %rax
	je	.L393
	leaq	88(%rax), %rdx
	movb	$1, 176(%rbp)
	movl	$-2147483639, 12(%rsp)
	leaq	12(%rsp), %rcx
	movl	$3, %esi
	movq	%rdx, 16(%rsp)
	movl	88(%rax), %edx
	movl	96(%rax), %edi
	call	epoll_ctl@PLT
.L393:
	movq	%r13, %rdi
	call	pthread_mutex_unlock@PLT
	jmp	.L392
	.p2align 4,,10
	.p2align 3
.L464:
	movq	112(%rbx), %rbp
	jmp	.L395
	.p2align 4,,10
	.p2align 3
.L466:
	movq	0(%rbp), %rdi
	call	pthread_detach@PLT
	jmp	.L407
	.p2align 4,,10
	.p2align 3
.L467:
	leaq	48(%rbp), %r13
	movq	%r13, %rdi
	call	pthread_mutex_lock@PLT
	orq	$1, 136(%rbp)
	leaq	88(%rbp), %rdi
	movb	$1, 208(%rbp)
	call	pthread_cond_broadcast@PLT
	cmpb	$0, 176(%rbp)
	jne	.L410
	movq	144(%rbp), %rax
	testq	%rax, %rax
	je	.L410
	leaq	88(%rax), %rdx
	movb	$1, 176(%rbp)
	movl	$-2147483639, 12(%rsp)
	leaq	12(%rsp), %rcx
	movl	$3, %esi
	movq	%rdx, 16(%rsp)
	movl	88(%rax), %edx
	movl	96(%rax), %edi
	call	epoll_ctl@PLT
.L410:
	movq	%r13, %rdi
	call	pthread_mutex_unlock@PLT
	jmp	.L409
	.p2align 4,,10
	.p2align 3
.L397:
	movq	88(%rbx), %r13
	testq	%r13, %r13
	jne	.L400
	jmp	.L401
	.p2align 4,,10
	.p2align 3
.L465:
	movq	0(%rbp), %rdi
	xorl	%esi, %esi
	call	pthread_join@PLT
	movb	$1, 8(%rbp)
	movq	112(%rbx), %rbp
	testq	%rbp, %rbp
	je	.L399
	cmpb	$0, 8(%rbp)
	jne	.L398
	movq	0(%rbp), %rdi
	call	pthread_detach@PLT
	jmp	.L398
.L468:
	call	__stack_chk_fail@PLT
	.cfi_endproc
.LFE9911:
	.section	.gcc_except_table._ZN4asio2ip16resolver_serviceINS0_3tcpEED2Ev,"aG",@progbits,_ZN4asio2ip16resolver_serviceINS0_3tcpEED5Ev,comdat
.LLSDA9911:
	.byte	0xff
	.byte	0xff
	.byte	0x1
	.uleb128 .LLSDACSE9911-.LLSDACSB9911
.LLSDACSB9911:
.LLSDACSE9911:
	.section	.text._ZN4asio2ip16resolver_serviceINS0_3tcpEED2Ev,"axG",@progbits,_ZN4asio2ip16resolver_serviceINS0_3tcpEED5Ev,comdat
	.size	_ZN4asio2ip16resolver_serviceINS0_3tcpEED2Ev, .-_ZN4asio2ip16resolver_serviceINS0_3tcpEED2Ev
	.weak	_ZN4asio2ip16resolver_serviceINS0_3tcpEED1Ev
	.set	_ZN4asio2ip16resolver_serviceINS0_3tcpEED1Ev,_ZN4asio2ip16resolver_serviceINS0_3tcpEED2Ev
	.section	.rodata._ZNK4asio5error6detail14netdb_category7messageB5cxx11Ei.str1.8,"aMS",@progbits,1
	.align 8
.LC9:
	.string	"Host not found (authoritative)"
	.align 8
.LC10:
	.string	"Host not found (non-authoritative), try again later"
	.align 8
.LC11:
	.string	"The query is valid, but it does not have associated data"
	.align 8
.LC12:
	.string	"A non-recoverable error occurred during database lookup"
	.section	.rodata._ZNK4asio5error6detail14netdb_category7messageB5cxx11Ei.str1.1,"aMS",@progbits,1
.LC13:
	.string	"asio.netdb error"
	.section	.text._ZNK4asio5error6detail14netdb_category7messageB5cxx11Ei,"axG",@progbits,_ZNK4asio5error6detail14netdb_category7messageB5cxx11Ei,comdat
	.align 2
	.p2align 4,,15
	.weak	_ZNK4asio5error6detail14netdb_category7messageB5cxx11Ei
	.type	_ZNK4asio5error6detail14netdb_category7messageB5cxx11Ei, @function
_ZNK4asio5error6detail14netdb_category7messageB5cxx11Ei:
.LFB2346:
	.cfi_startproc
	leaq	16(%rdi), %rax
	cmpl	$1, %edx
	pushq	%rbx
	.cfi_def_cfa_offset 16
	.cfi_offset 3, -16
	movq	%rdi, %rbx
	movq	%rax, (%rdi)
	je	.L476
	cmpl	$2, %edx
	je	.L477
	cmpl	$4, %edx
	je	.L478
	cmpl	$3, %edx
	je	.L479
	leaq	16+.LC13(%rip), %rdx
	leaq	-16(%rdx), %rsi
	call	_ZNSt7__cxx1112basic_stringIcSt11char_traitsIcESaIcEE12_M_constructIPKcEEvT_S8_St20forward_iterator_tag.isra.225
	movq	%rbx, %rax
	popq	%rbx
	.cfi_remember_state
	.cfi_def_cfa_offset 8
	ret
	.p2align 4,,10
	.p2align 3
.L479:
	.cfi_restore_state
	leaq	55+.LC12(%rip), %rdx
	leaq	-55(%rdx), %rsi
	call	_ZNSt7__cxx1112basic_stringIcSt11char_traitsIcESaIcEE12_M_constructIPKcEEvT_S8_St20forward_iterator_tag.isra.225
	movq	%rbx, %rax
	popq	%rbx
	.cfi_remember_state
	.cfi_def_cfa_offset 8
	ret
	.p2align 4,,10
	.p2align 3
.L476:
	.cfi_restore_state
	leaq	30+.LC9(%rip), %rdx
	leaq	-30(%rdx), %rsi
	call	_ZNSt7__cxx1112basic_stringIcSt11char_traitsIcESaIcEE12_M_constructIPKcEEvT_S8_St20forward_iterator_tag.isra.225
	movq	%rbx, %rax
	popq	%rbx
	.cfi_remember_state
	.cfi_def_cfa_offset 8
	ret
	.p2align 4,,10
	.p2align 3
.L477:
	.cfi_restore_state
	leaq	51+.LC10(%rip), %rdx
	leaq	-51(%rdx), %rsi
	call	_ZNSt7__cxx1112basic_stringIcSt11char_traitsIcESaIcEE12_M_constructIPKcEEvT_S8_St20forward_iterator_tag.isra.225
	movq	%rbx, %rax
	popq	%rbx
	.cfi_remember_state
	.cfi_def_cfa_offset 8
	ret
	.p2align 4,,10
	.p2align 3
.L478:
	.cfi_restore_state
	leaq	56+.LC11(%rip), %rdx
	leaq	-56(%rdx), %rsi
	call	_ZNSt7__cxx1112basic_stringIcSt11char_traitsIcESaIcEE12_M_constructIPKcEEvT_S8_St20forward_iterator_tag.isra.225
	movq	%rbx, %rax
	popq	%rbx
	.cfi_def_cfa_offset 8
	ret
	.cfi_endproc
.LFE2346:
	.size	_ZNK4asio5error6detail14netdb_category7messageB5cxx11Ei, .-_ZNK4asio5error6detail14netdb_category7messageB5cxx11Ei
	.section	.rodata._ZNK4asio5error6detail13misc_category7messageB5cxx11Ei.str1.1,"aMS",@progbits,1
.LC14:
	.string	"Already open"
.LC15:
	.string	"End of file"
.LC16:
	.string	"Element not found"
	.section	.rodata._ZNK4asio5error6detail13misc_category7messageB5cxx11Ei.str1.8,"aMS",@progbits,1
	.align 8
.LC17:
	.string	"The descriptor does not fit into the select call's fd_set"
	.section	.rodata._ZNK4asio5error6detail13misc_category7messageB5cxx11Ei.str1.1
.LC18:
	.string	"asio.misc error"
	.section	.text._ZNK4asio5error6detail13misc_category7messageB5cxx11Ei,"axG",@progbits,_ZNK4asio5error6detail13misc_category7messageB5cxx11Ei,comdat
	.align 2
	.p2align 4,,15
	.weak	_ZNK4asio5error6detail13misc_category7messageB5cxx11Ei
	.type	_ZNK4asio5error6detail13misc_category7messageB5cxx11Ei, @function
_ZNK4asio5error6detail13misc_category7messageB5cxx11Ei:
.LFB2358:
	.cfi_startproc
	leaq	16(%rdi), %rax
	cmpl	$1, %edx
	pushq	%rbx
	.cfi_def_cfa_offset 16
	.cfi_offset 3, -16
	movq	%rdi, %rbx
	movq	%rax, (%rdi)
	je	.L487
	cmpl	$2, %edx
	je	.L488
	cmpl	$3, %edx
	je	.L489
	cmpl	$4, %edx
	je	.L490
	leaq	15+.LC18(%rip), %rdx
	leaq	-15(%rdx), %rsi
	call	_ZNSt7__cxx1112basic_stringIcSt11char_traitsIcESaIcEE12_M_constructIPKcEEvT_S8_St20forward_iterator_tag.isra.225
	movq	%rbx, %rax
	popq	%rbx
	.cfi_remember_state
	.cfi_def_cfa_offset 8
	ret
	.p2align 4,,10
	.p2align 3
.L490:
	.cfi_restore_state
	leaq	57+.LC17(%rip), %rdx
	leaq	-57(%rdx), %rsi
	call	_ZNSt7__cxx1112basic_stringIcSt11char_traitsIcESaIcEE12_M_constructIPKcEEvT_S8_St20forward_iterator_tag.isra.225
	movq	%rbx, %rax
	popq	%rbx
	.cfi_remember_state
	.cfi_def_cfa_offset 8
	ret
	.p2align 4,,10
	.p2align 3
.L487:
	.cfi_restore_state
	leaq	12+.LC14(%rip), %rdx
	leaq	-12(%rdx), %rsi
	call	_ZNSt7__cxx1112basic_stringIcSt11char_traitsIcESaIcEE12_M_constructIPKcEEvT_S8_St20forward_iterator_tag.isra.225
	movq	%rbx, %rax
	popq	%rbx
	.cfi_remember_state
	.cfi_def_cfa_offset 8
	ret
	.p2align 4,,10
	.p2align 3
.L488:
	.cfi_restore_state
	leaq	11+.LC15(%rip), %rdx
	leaq	-11(%rdx), %rsi
	call	_ZNSt7__cxx1112basic_stringIcSt11char_traitsIcESaIcEE12_M_constructIPKcEEvT_S8_St20forward_iterator_tag.isra.225
	movq	%rbx, %rax
	popq	%rbx
	.cfi_remember_state
	.cfi_def_cfa_offset 8
	ret
	.p2align 4,,10
	.p2align 3
.L489:
	.cfi_restore_state
	leaq	17+.LC16(%rip), %rdx
	leaq	-17(%rdx), %rsi
	call	_ZNSt7__cxx1112basic_stringIcSt11char_traitsIcESaIcEE12_M_constructIPKcEEvT_S8_St20forward_iterator_tag.isra.225
	movq	%rbx, %rax
	popq	%rbx
	.cfi_def_cfa_offset 8
	ret
	.cfi_endproc
.LFE2358:
	.size	_ZNK4asio5error6detail13misc_category7messageB5cxx11Ei, .-_ZNK4asio5error6detail13misc_category7messageB5cxx11Ei
	.section	.text._ZSt20__throw_bad_weak_ptrv,"axG",@progbits,_ZSt20__throw_bad_weak_ptrv,comdat
	.p2align 4,,15
	.weak	_ZSt20__throw_bad_weak_ptrv
	.type	_ZSt20__throw_bad_weak_ptrv, @function
_ZSt20__throw_bad_weak_ptrv:
.LFB1670:
	.cfi_startproc
	movl	$8, %edi
	subq	$8, %rsp
	.cfi_def_cfa_offset 16
	call	__cxa_allocate_exception@PLT
	movq	_ZTVSt12bad_weak_ptr@GOTPCREL(%rip), %rdx
	movq	_ZTISt12bad_weak_ptr@GOTPCREL(%rip), %rsi
	movq	%rax, %rdi
	addq	$16, %rdx
	movq	%rdx, (%rax)
	movq	_ZNSt12bad_weak_ptrD1Ev@GOTPCREL(%rip), %rdx
	call	__cxa_throw@PLT
	.cfi_endproc
.LFE1670:
	.size	_ZSt20__throw_bad_weak_ptrv, .-_ZSt20__throw_bad_weak_ptrv
	.section	.text._ZN4asio6detail16thread_info_base8allocateEPS1_m,"axG",@progbits,_ZN4asio6detail16thread_info_base8allocateEPS1_m,comdat
	.p2align 4,,15
	.weak	_ZN4asio6detail16thread_info_base8allocateEPS1_m
	.type	_ZN4asio6detail16thread_info_base8allocateEPS1_m, @function
_ZN4asio6detail16thread_info_base8allocateEPS1_m:
.LFB2099:
	.cfi_startproc
	testq	%rdi, %rdi
	pushq	%rbx
	.cfi_def_cfa_offset 16
	.cfi_offset 3, -16
	movq	%rsi, %rbx
	je	.L494
	movq	(%rdi), %rax
	testq	%rax, %rax
	je	.L494
	movq	$0, (%rdi)
	movzbl	(%rax), %ecx
	cmpq	%rsi, %rcx
	movq	%rcx, %rdx
	jb	.L495
	movb	%dl, (%rax,%rbx)
	popq	%rbx
	.cfi_remember_state
	.cfi_def_cfa_offset 8
	ret
	.p2align 4,,10
	.p2align 3
.L495:
	.cfi_restore_state
	movq	%rax, %rdi
	call	_ZdlPv@PLT
.L494:
	leaq	1(%rbx), %rdi
	call	_Znwm@PLT
	cmpq	$256, %rbx
	movl	$0, %edx
	cmovb	%rbx, %rdx
	movb	%dl, (%rax,%rbx)
	popq	%rbx
	.cfi_def_cfa_offset 8
	ret
	.cfi_endproc
.LFE2099:
	.size	_ZN4asio6detail16thread_info_base8allocateEPS1_m, .-_ZN4asio6detail16thread_info_base8allocateEPS1_m
	.section	.text._ZN4asio6detail16thread_info_base10deallocateEPS1_Pvm,"axG",@progbits,_ZN4asio6detail16thread_info_base10deallocateEPS1_Pvm,comdat
	.p2align 4,,15
	.weak	_ZN4asio6detail16thread_info_base10deallocateEPS1_Pvm
	.type	_ZN4asio6detail16thread_info_base10deallocateEPS1_Pvm, @function
_ZN4asio6detail16thread_info_base10deallocateEPS1_Pvm:
.LFB2100:
	.cfi_startproc
	cmpq	$255, %rdx
	ja	.L508
	testq	%rdi, %rdi
	je	.L508
	cmpq	$0, (%rdi)
	je	.L517
.L508:
	movq	%rsi, %rdi
	jmp	_ZdlPv@PLT
	.p2align 4,,10
	.p2align 3
.L517:
	movzbl	(%rsi,%rdx), %eax
	movb	%al, (%rsi)
	movq	%rsi, (%rdi)
	ret
	.cfi_endproc
.LFE2100:
	.size	_ZN4asio6detail16thread_info_base10deallocateEPS1_Pvm, .-_ZN4asio6detail16thread_info_base10deallocateEPS1_Pvm
	.section	.text._ZN4asio28asio_handler_is_continuationEz,"axG",@progbits,_ZN4asio28asio_handler_is_continuationEz,comdat
	.p2align 4,,15
	.weak	_ZN4asio28asio_handler_is_continuationEz
	.type	_ZN4asio28asio_handler_is_continuationEz, @function
_ZN4asio28asio_handler_is_continuationEz:
.LFB2105:
	.cfi_startproc
	xorl	%eax, %eax
	ret
	.cfi_endproc
.LFE2105:
	.size	_ZN4asio28asio_handler_is_continuationEz, .-_ZN4asio28asio_handler_is_continuationEz
	.section	.rodata._ZNSt12system_errorC2ESt10error_codePKc.str1.1,"aMS",@progbits,1
.LC19:
	.string	": "
	.section	.text._ZNSt12system_errorC2ESt10error_codePKc,"axG",@progbits,_ZNSt12system_errorC5ESt10error_codePKc,comdat
	.align 2
	.p2align 4,,15
	.weak	_ZNSt12system_errorC2ESt10error_codePKc
	.type	_ZNSt12system_errorC2ESt10error_codePKc, @function
_ZNSt12system_errorC2ESt10error_codePKc:
.LFB2246:
	.cfi_startproc
	.cfi_personality 0x9b,DW.ref.__gxx_personality_v0
	.cfi_lsda 0x1b,.LLSDA2246
	pushq	%r15
	.cfi_def_cfa_offset 16
	.cfi_offset 15, -16
	pushq	%r14
	.cfi_def_cfa_offset 24
	.cfi_offset 14, -24
	movq	%rdx, %r14
	pushq	%r13
	.cfi_def_cfa_offset 32
	.cfi_offset 13, -32
	pushq	%r12
	.cfi_def_cfa_offset 40
	.cfi_offset 12, -40
	movq	%rdi, %r13
	pushq	%rbp
	.cfi_def_cfa_offset 48
	.cfi_offset 6, -48
	pushq	%rbx
	.cfi_def_cfa_offset 56
	.cfi_offset 3, -56
	movq	%rcx, %r12
	movq	%rsi, %r15
	subq	$120, %rsp
	.cfi_def_cfa_offset 176
	movq	%fs:40, %rax
	movq	%rax, 104(%rsp)
	xorl	%eax, %eax
	movq	(%rdx), %rax
	leaq	64(%rsp), %rbx
	movl	%esi, %edx
	movq	%r14, %rsi
	movq	%rbx, %rdi
.LEHB1:
	call	*32(%rax)
.LEHE1:
	leaq	.LC19(%rip), %rcx
	movl	$2, %r8d
	xorl	%edx, %edx
	xorl	%esi, %esi
	movq	%rbx, %rdi
.LEHB2:
	call	_ZNSt7__cxx1112basic_stringIcSt11char_traitsIcESaIcEE10_M_replaceEmmPKcm@PLT
.LEHE2:
	leaq	32(%rsp), %rbp
	leaq	16(%rbp), %rdx
	movq	%rdx, 32(%rsp)
	movq	(%rax), %rcx
	leaq	16(%rax), %rdx
	cmpq	%rdx, %rcx
	je	.L539
	movq	%rcx, 32(%rsp)
	movq	16(%rax), %rcx
	movq	%rcx, 48(%rsp)
.L521:
	movq	8(%rax), %rcx
	movq	%r12, %rdi
	movb	$0, 16(%rax)
	movq	%rcx, 40(%rsp)
	movq	%rdx, (%rax)
	movq	$0, 8(%rax)
	call	strlen@PLT
	movq	%r12, %rcx
	movq	%rax, %r8
	xorl	%edx, %edx
	xorl	%esi, %esi
	movq	%rbp, %rdi
.LEHB3:
	call	_ZNSt7__cxx1112basic_stringIcSt11char_traitsIcESaIcEE10_M_replaceEmmPKcm@PLT
.LEHE3:
	movq	%rsp, %r12
	leaq	16(%r12), %rdx
	movq	%rdx, (%rsp)
	movq	(%rax), %rcx
	leaq	16(%rax), %rdx
	cmpq	%rdx, %rcx
	je	.L540
	movq	%rcx, (%rsp)
	movq	16(%rax), %rcx
	movq	%rcx, 16(%rsp)
.L523:
	movq	8(%rax), %rcx
	movb	$0, 16(%rax)
	movq	%r12, %rsi
	movq	%r13, %rdi
	movq	%rcx, 8(%rsp)
	movq	%rdx, (%rax)
	movq	$0, 8(%rax)
.LEHB4:
	call	_ZNSt13runtime_errorC2ERKNSt7__cxx1112basic_stringIcSt11char_traitsIcESaIcEEE@PLT
.LEHE4:
	movq	(%rsp), %rdi
	addq	$16, %r12
	cmpq	%r12, %rdi
	je	.L524
	call	_ZdlPv@PLT
.L524:
	movq	32(%rsp), %rdi
	addq	$16, %rbp
	cmpq	%rbp, %rdi
	je	.L525
	call	_ZdlPv@PLT
.L525:
	movq	64(%rsp), %rdi
	addq	$16, %rbx
	cmpq	%rbx, %rdi
	je	.L526
	call	_ZdlPv@PLT
.L526:
	movq	_ZTVSt12system_error@GOTPCREL(%rip), %rax
	movq	%r15, 16(%r13)
	movq	%r14, 24(%r13)
	addq	$16, %rax
	movq	%rax, 0(%r13)
	movq	104(%rsp), %rax
	xorq	%fs:40, %rax
	jne	.L541
	addq	$120, %rsp
	.cfi_remember_state
	.cfi_def_cfa_offset 56
	popq	%rbx
	.cfi_def_cfa_offset 48
	popq	%rbp
	.cfi_def_cfa_offset 40
	popq	%r12
	.cfi_def_cfa_offset 32
	popq	%r13
	.cfi_def_cfa_offset 24
	popq	%r14
	.cfi_def_cfa_offset 16
	popq	%r15
	.cfi_def_cfa_offset 8
	ret
	.p2align 4,,10
	.p2align 3
.L539:
	.cfi_restore_state
	movdqu	16(%rax), %xmm0
	movaps	%xmm0, 48(%rsp)
	jmp	.L521
	.p2align 4,,10
	.p2align 3
.L540:
	movdqu	16(%rax), %xmm0
	movaps	%xmm0, 16(%rsp)
	jmp	.L523
.L541:
	call	__stack_chk_fail@PLT
.L536:
	movq	(%rsp), %rdi
	addq	$16, %r12
	movq	%rax, %r13
	cmpq	%r12, %rdi
	je	.L528
	call	_ZdlPv@PLT
.L528:
	movq	%r13, %r12
.L529:
	movq	32(%rsp), %rdi
	addq	$16, %rbp
	cmpq	%rbp, %rdi
	je	.L531
	call	_ZdlPv@PLT
.L531:
	movq	64(%rsp), %rdi
	addq	$16, %rbx
	cmpq	%rbx, %rdi
	je	.L532
	call	_ZdlPv@PLT
.L532:
	movq	%r12, %rdi
.LEHB5:
	call	_Unwind_Resume@PLT
.LEHE5:
.L534:
	movq	%rax, %r12
	jmp	.L531
.L535:
	movq	%rax, %r12
	jmp	.L529
	.cfi_endproc
.LFE2246:
	.section	.gcc_except_table._ZNSt12system_errorC2ESt10error_codePKc,"aG",@progbits,_ZNSt12system_errorC5ESt10error_codePKc,comdat
.LLSDA2246:
	.byte	0xff
	.byte	0xff
	.byte	0x1
	.uleb128 .LLSDACSE2246-.LLSDACSB2246
.LLSDACSB2246:
	.uleb128 .LEHB1-.LFB2246
	.uleb128 .LEHE1-.LEHB1
	.uleb128 0
	.uleb128 0
	.uleb128 .LEHB2-.LFB2246
	.uleb128 .LEHE2-.LEHB2
	.uleb128 .L534-.LFB2246
	.uleb128 0
	.uleb128 .LEHB3-.LFB2246
	.uleb128 .LEHE3-.LEHB3
	.uleb128 .L535-.LFB2246
	.uleb128 0
	.uleb128 .LEHB4-.LFB2246
	.uleb128 .LEHE4-.LEHB4
	.uleb128 .L536-.LFB2246
	.uleb128 0
	.uleb128 .LEHB5-.LFB2246
	.uleb128 .LEHE5-.LEHB5
	.uleb128 0
	.uleb128 0
.LLSDACSE2246:
	.section	.text._ZNSt12system_errorC2ESt10error_codePKc,"axG",@progbits,_ZNSt12system_errorC5ESt10error_codePKc,comdat
	.size	_ZNSt12system_errorC2ESt10error_codePKc, .-_ZNSt12system_errorC2ESt10error_codePKc
	.weak	_ZNSt12system_errorC1ESt10error_codePKc
	.set	_ZNSt12system_errorC1ESt10error_codePKc,_ZNSt12system_errorC2ESt10error_codePKc
	.section	.text._ZN4asio15system_categoryEv,"axG",@progbits,_ZN4asio15system_categoryEv,comdat
	.p2align 4,,15
	.weak	_ZN4asio15system_categoryEv
	.type	_ZN4asio15system_categoryEv, @function
_ZN4asio15system_categoryEv:
.LFB2309:
	.cfi_startproc
	pushq	%rbx
	.cfi_def_cfa_offset 16
	.cfi_offset 3, -16
	movq	_ZGVZN4asio15system_categoryEvE8instance@GOTPCREL(%rip), %rbx
	movzbl	(%rbx), %eax
	testb	%al, %al
	je	.L543
.L550:
	movq	_ZZN4asio15system_categoryEvE8instance@GOTPCREL(%rip), %rbx
	movq	%rbx, %rax
	popq	%rbx
	.cfi_remember_state
	.cfi_def_cfa_offset 8
	ret
	.p2align 4,,10
	.p2align 3
.L543:
	.cfi_restore_state
	movq	%rbx, %rdi
	call	__cxa_guard_acquire@PLT
	testl	%eax, %eax
	je	.L550
	movq	%rbx, %rdi
	call	__cxa_guard_release@PLT
	movq	_ZZN4asio15system_categoryEvE8instance@GOTPCREL(%rip), %rbx
	movq	_ZN4asio6detail15system_categoryD1Ev@GOTPCREL(%rip), %rdi
	leaq	__dso_handle(%rip), %rdx
	movq	%rbx, %rsi
	call	__cxa_atexit@PLT
	movq	%rbx, %rax
	popq	%rbx
	.cfi_def_cfa_offset 8
	ret
	.cfi_endproc
.LFE2309:
	.size	_ZN4asio15system_categoryEv, .-_ZN4asio15system_categoryEv
	.section	.text._ZN4asio6detail31reactive_socket_connect_op_base10do_performEPNS0_10reactor_opE,"axG",@progbits,_ZN4asio6detail31reactive_socket_connect_op_base10do_performEPNS0_10reactor_opE,comdat
	.p2align 4,,15
	.weak	_ZN4asio6detail31reactive_socket_connect_op_base10do_performEPNS0_10reactor_opE
	.type	_ZN4asio6detail31reactive_socket_connect_op_base10do_performEPNS0_10reactor_opE, @function
_ZN4asio6detail31reactive_socket_connect_op_base10do_performEPNS0_10reactor_opE:
.LFB3686:
	.cfi_startproc
	pushq	%r12
	.cfi_def_cfa_offset 16
	.cfi_offset 12, -16
	pushq	%rbp
	.cfi_def_cfa_offset 24
	.cfi_offset 6, -24
	xorl	%edx, %edx
	pushq	%rbx
	.cfi_def_cfa_offset 32
	.cfi_offset 3, -32
	movq	%rdi, %rbx
	movl	$1, %esi
	subq	$32, %rsp
	.cfi_def_cfa_offset 64
	movl	56(%rdi), %ebp
	leaq	16(%rsp), %rdi
	movl	$4, 20(%rsp)
	movq	%fs:40, %rax
	movq	%rax, 24(%rsp)
	xorl	%eax, %eax
	movl	%ebp, 16(%rsp)
	call	poll@PLT
	xorl	%edx, %edx
	testl	%eax, %eax
	jne	.L561
.L551:
	movq	24(%rsp), %rcx
	xorq	%fs:40, %rcx
	movl	%edx, %eax
	jne	.L562
	addq	$32, %rsp
	.cfi_remember_state
	.cfi_def_cfa_offset 32
	popq	%rbx
	.cfi_def_cfa_offset 24
	popq	%rbp
	.cfi_def_cfa_offset 16
	popq	%r12
	.cfi_def_cfa_offset 8
	ret
	.p2align 4,,10
	.p2align 3
.L561:
	.cfi_restore_state
	cmpl	$-1, %ebp
	movl	$0, 8(%rsp)
	je	.L563
	call	__errno_location@PLT
	leaq	8(%rsp), %rcx
	leaq	12(%rsp), %r8
	movl	$4, %edx
	movl	%ebp, %edi
	movq	%rax, %r12
	movl	$1, %esi
	movl	$0, (%rax)
	movl	$4, 12(%rsp)
	call	getsockopt@PLT
	movl	%eax, %ebp
	call	_ZN4asio15system_categoryEv@PLT
	movl	(%r12), %edx
	testl	%ebp, %ebp
	movq	%rax, 32(%rbx)
	movl	%edx, 24(%rbx)
	jne	.L554
	call	_ZNSt3_V215system_categoryEv@PLT
	movq	%rax, 32(%rbx)
	movl	8(%rsp), %eax
	movl	$0, 24(%rbx)
	testl	%eax, %eax
	je	.L554
	call	_ZN4asio15system_categoryEv@PLT
	movl	8(%rsp), %edx
	movq	%rax, 32(%rbx)
	movl	%edx, 24(%rbx)
.L554:
	movl	$1, %edx
	jmp	.L551
.L563:
	call	_ZN4asio15system_categoryEv@PLT
	movl	$9, 24(%rbx)
	movq	%rax, 32(%rbx)
	jmp	.L554
.L562:
	call	__stack_chk_fail@PLT
	.cfi_endproc
.LFE3686:
	.size	_ZN4asio6detail31reactive_socket_connect_op_base10do_performEPNS0_10reactor_opE, .-_ZN4asio6detail31reactive_socket_connect_op_base10do_performEPNS0_10reactor_opE
	.section	.text._ZN4asio6detail16service_registry14do_use_serviceERKNS_10io_service7service3keyEPFPS3_RS2_E,"axG",@progbits,_ZN4asio6detail16service_registry14do_use_serviceERKNS_10io_service7service3keyEPFPS3_RS2_E,comdat
	.align 2
	.p2align 4,,15
	.weak	_ZN4asio6detail16service_registry14do_use_serviceERKNS_10io_service7service3keyEPFPS3_RS2_E
	.type	_ZN4asio6detail16service_registry14do_use_serviceERKNS_10io_service7service3keyEPFPS3_RS2_E, @function
_ZN4asio6detail16service_registry14do_use_serviceERKNS_10io_service7service3keyEPFPS3_RS2_E:
.LFB2674:
	.cfi_startproc
	pushq	%r15
	.cfi_def_cfa_offset 16
	.cfi_offset 15, -16
	pushq	%r14
	.cfi_def_cfa_offset 24
	.cfi_offset 14, -24
	movq	%rdx, %r14
	pushq	%r13
	.cfi_def_cfa_offset 32
	.cfi_offset 13, -32
	leaq	8(%rdi), %r13
	pushq	%r12
	.cfi_def_cfa_offset 40
	.cfi_offset 12, -40
	pushq	%rbp
	.cfi_def_cfa_offset 48
	.cfi_offset 6, -48
	pushq	%rbx
	.cfi_def_cfa_offset 56
	.cfi_offset 3, -56
	movq	%rdi, %r12
	movq	%r13, %rdi
	movq	%rsi, %rbp
	subq	$8, %rsp
	.cfi_def_cfa_offset 64
	call	pthread_mutex_lock@PLT
	movq	56(%r12), %rbx
	testq	%rbx, %rbx
	jne	.L570
	jmp	.L565
	.p2align 4,,10
	.p2align 3
.L566:
	movq	8(%rbx), %rax
	testq	%rax, %rax
	je	.L569
	movq	0(%rbp), %rdx
	testq	%rdx, %rdx
	je	.L569
	movq	8(%rax), %rdi
	movq	8(%rdx), %rsi
	cmpq	%rsi, %rdi
	je	.L567
	cmpb	$42, (%rdi)
	je	.L569
	call	strcmp@PLT
	testl	%eax, %eax
	je	.L567
.L569:
	movq	32(%rbx), %rbx
	testq	%rbx, %rbx
	je	.L565
.L570:
	movq	16(%rbx), %rax
	testq	%rax, %rax
	je	.L566
	movq	8(%rbp), %rdx
	testq	%rdx, %rdx
	je	.L566
	cmpq	%rdx, %rax
	jne	.L566
.L567:
	movq	%r13, %rdi
	call	pthread_mutex_unlock@PLT
	addq	$8, %rsp
	.cfi_remember_state
	.cfi_def_cfa_offset 56
	movq	%rbx, %rax
	popq	%rbx
	.cfi_def_cfa_offset 48
	popq	%rbp
	.cfi_def_cfa_offset 40
	popq	%r12
	.cfi_def_cfa_offset 32
	popq	%r13
	.cfi_def_cfa_offset 24
	popq	%r14
	.cfi_def_cfa_offset 16
	popq	%r15
	.cfi_def_cfa_offset 8
	ret
	.p2align 4,,10
	.p2align 3
.L565:
	.cfi_restore_state
	movq	%r13, %rdi
	call	pthread_mutex_unlock@PLT
	movq	48(%r12), %rdi
	call	*%r14
	movdqu	0(%rbp), %xmm0
	movq	%r13, %rdi
	movq	%rax, %r14
	movups	%xmm0, 8(%rax)
	call	pthread_mutex_lock@PLT
	movq	56(%r12), %r15
	testq	%r15, %r15
	je	.L571
	movq	%r15, %rbx
	jmp	.L576
	.p2align 4,,10
	.p2align 3
.L572:
	movq	8(%rbx), %rax
	testq	%rax, %rax
	je	.L575
	movq	0(%rbp), %rdx
	testq	%rdx, %rdx
	je	.L575
	movq	8(%rax), %rdi
	movq	8(%rdx), %rsi
	cmpq	%rsi, %rdi
	je	.L573
	cmpb	$42, (%rdi)
	je	.L575
	call	strcmp@PLT
	testl	%eax, %eax
	je	.L573
.L575:
	movq	32(%rbx), %rbx
	testq	%rbx, %rbx
	je	.L571
.L576:
	movq	16(%rbx), %rax
	testq	%rax, %rax
	je	.L572
	movq	8(%rbp), %rdx
	testq	%rdx, %rdx
	je	.L572
	cmpq	%rdx, %rax
	jne	.L572
.L573:
	movq	(%r14), %rax
	movq	%r14, %rdi
	call	*8(%rax)
	jmp	.L567
	.p2align 4,,10
	.p2align 3
.L571:
	movq	%r15, 32(%r14)
	movq	%r14, %rbx
	movq	%r14, 56(%r12)
	jmp	.L567
	.cfi_endproc
.LFE2674:
	.size	_ZN4asio6detail16service_registry14do_use_serviceERKNS_10io_service7service3keyEPFPS3_RS2_E, .-_ZN4asio6detail16service_registry14do_use_serviceERKNS_10io_service7service3keyEPFPS3_RS2_E
	.section	.text._ZN4asio6detail13epoll_reactor3runEbRNS0_8op_queueINS0_25task_io_service_operationEEE,"axG",@progbits,_ZN4asio6detail13epoll_reactor3runEbRNS0_8op_queueINS0_25task_io_service_operationEEE,comdat
	.align 2
	.p2align 4,,15
	.weak	_ZN4asio6detail13epoll_reactor3runEbRNS0_8op_queueINS0_25task_io_service_operationEEE
	.type	_ZN4asio6detail13epoll_reactor3runEbRNS0_8op_queueINS0_25task_io_service_operationEEE, @function
_ZN4asio6detail13epoll_reactor3runEbRNS0_8op_queueINS0_25task_io_service_operationEEE:
.LFB3198:
	.cfi_startproc
	.cfi_personality 0x9b,DW.ref.__gxx_personality_v0
	.cfi_lsda 0x1b,.LLSDA3198
	pushq	%r13
	.cfi_def_cfa_offset 16
	.cfi_offset 13, -16
	pushq	%r12
	.cfi_def_cfa_offset 24
	.cfi_offset 12, -24
	movq	%rdi, %r12
	pushq	%rbp
	.cfi_def_cfa_offset 32
	.cfi_offset 6, -32
	pushq	%rbx
	.cfi_def_cfa_offset 40
	.cfi_offset 3, -40
	movq	%rdx, %rbp
	subq	$1640, %rsp
	.cfi_def_cfa_offset 1680
	movq	%fs:40, %rax
	movq	%rax, 1624(%rsp)
	xorl	%eax, %eax
	cmpl	$-1, 100(%rdi)
	je	.L618
	movzbl	%sil, %ecx
	negl	%ecx
.L619:
	leaq	80(%rsp), %rbx
	movl	96(%r12), %edi
	movl	$128, %edx
	movq	%rbx, %rsi
.LEHB6:
	call	epoll_wait@PLT
.LEHE6:
	cmpl	$-1, 100(%r12)
	sete	%cl
	testl	%eax, %eax
	jle	.L623
	subl	$1, %eax
	leaq	88(%r12), %r8
	movq	%rbx, %rsi
	leaq	(%rax,%rax,2), %rax
	leaq	100(%r12), %r9
	movl	$1, %r10d
	leaq	12(%rbx,%rax,4), %rdi
	jmp	.L627
	.p2align 4,,10
	.p2align 3
.L624:
	cmpq	%r9, %rax
	je	.L643
	movl	(%rsi), %edx
	movq	$0, (%rax)
	movl	%edx, 16(%rax)
	movq	8(%rbp), %rdx
	testq	%rdx, %rdx
	je	.L626
	movq	%rax, (%rdx)
	movq	%rax, 8(%rbp)
.L625:
	addq	$12, %rsi
	cmpq	%rsi, %rdi
	je	.L623
.L627:
	movq	4(%rsi), %rax
	cmpq	%rax, %r8
	jne	.L624
	cmpl	$-1, 100(%r12)
	cmove	%r10d, %ecx
	addq	$12, %rsi
	cmpq	%rsi, %rdi
	jne	.L627
.L623:
	testb	%cl, %cl
	jne	.L661
.L617:
	movq	1624(%rsp), %rax
	xorq	%fs:40, %rax
	jne	.L662
	addq	$1640, %rsp
	.cfi_remember_state
	.cfi_def_cfa_offset 40
	popq	%rbx
	.cfi_def_cfa_offset 32
	popq	%rbp
	.cfi_def_cfa_offset 24
	popq	%r12
	.cfi_def_cfa_offset 16
	popq	%r13
	.cfi_def_cfa_offset 8
	ret
	.p2align 4,,10
	.p2align 3
.L643:
	.cfi_restore_state
	movl	$1, %ecx
	jmp	.L625
	.p2align 4,,10
	.p2align 3
.L626:
	movq	%rax, 8(%rbp)
	movq	%rax, 0(%rbp)
	jmp	.L625
	.p2align 4,,10
	.p2align 3
.L661:
	leaq	48(%r12), %r13
	movq	%r13, %rdi
	call	pthread_mutex_lock@PLT
	movq	104(%r12), %rbx
	testq	%rbx, %rbx
	je	.L629
	.p2align 4,,10
	.p2align 3
.L630:
	movq	(%rbx), %rax
	movq	%rbp, %rsi
	movq	%rbx, %rdi
.LEHB7:
	call	*40(%rax)
	movq	8(%rbx), %rbx
	testq	%rbx, %rbx
	jne	.L630
.L629:
	movl	100(%r12), %edi
	cmpl	$-1, %edi
	je	.L631
	movq	104(%r12), %rbx
	pxor	%xmm0, %xmm0
	testq	%rbx, %rbx
	movaps	%xmm0, 16(%rsp)
	je	.L632
	movl	$300000000, %esi
	.p2align 4,,10
	.p2align 3
.L634:
	movq	%rbx, %rdi
	movq	(%rbx), %rax
	call	*32(%rax)
.LEHE7:
	movq	8(%rbx), %rbx
	movq	%rax, %rsi
	testq	%rbx, %rbx
	jne	.L634
	movabsq	$4835703278458516699, %rdx
	xorl	%r8d, %r8d
	movl	100(%r12), %edi
	imulq	%rdx
	movq	%rsi, %rax
	sarq	$63, %rax
	sarq	$18, %rdx
	subq	%rax, %rdx
	testq	%rsi, %rsi
	movl	$1, %eax
	movq	%rdx, 32(%rsp)
	sete	%r8b
	jne	.L663
.L636:
	leaq	48(%rsp), %rcx
	leaq	16(%rsp), %rdx
	movl	%r8d, %esi
	movq	%rax, 40(%rsp)
	call	timerfd_settime@PLT
.L631:
	movq	%r13, %rdi
	call	pthread_mutex_unlock@PLT
	jmp	.L617
	.p2align 4,,10
	.p2align 3
.L618:
	leaq	48(%rdi), %rbx
	movl	%esi, 12(%rsp)
	movq	%rbx, %rdi
	call	pthread_mutex_lock@PLT
	movl	12(%rsp), %esi
	testb	%sil, %sil
	je	.L640
	movq	104(%r12), %r13
	testq	%r13, %r13
	je	.L641
	movl	$300000, %esi
	.p2align 4,,10
	.p2align 3
.L622:
	movq	0(%r13), %rax
	movq	%r13, %rdi
.LEHB8:
	call	*24(%rax)
.LEHE8:
	movq	8(%r13), %r13
	movq	%rax, %rsi
	testq	%r13, %r13
	jne	.L622
	movl	%eax, %ecx
.L620:
	movq	%rbx, %rdi
	movl	%ecx, 12(%rsp)
	call	pthread_mutex_unlock@PLT
	movl	12(%rsp), %ecx
	jmp	.L619
	.p2align 4,,10
	.p2align 3
.L663:
	imulq	$1000000, %rdx, %rdx
	movq	%rsi, %rax
	subq	%rdx, %rax
	imulq	$1000, %rax, %rax
	jmp	.L636
	.p2align 4,,10
	.p2align 3
.L640:
	xorl	%ecx, %ecx
	jmp	.L620
.L632:
	movq	$300, 32(%rsp)
	xorl	%r8d, %r8d
	xorl	%eax, %eax
	jmp	.L636
.L641:
	movl	$300000, %ecx
	jmp	.L620
.L662:
	call	__stack_chk_fail@PLT
.L645:
	movq	%rax, %rbp
	movq	%rbx, %rdi
	call	pthread_mutex_unlock@PLT
	movq	%rbp, %rdi
.LEHB9:
	call	_Unwind_Resume@PLT
.L646:
	movq	%rax, %rbx
	movq	%r13, %rdi
	call	pthread_mutex_unlock@PLT
	movq	%rbx, %rdi
	call	_Unwind_Resume@PLT
.LEHE9:
	.cfi_endproc
.LFE3198:
	.section	.gcc_except_table._ZN4asio6detail13epoll_reactor3runEbRNS0_8op_queueINS0_25task_io_service_operationEEE,"aG",@progbits,_ZN4asio6detail13epoll_reactor3runEbRNS0_8op_queueINS0_25task_io_service_operationEEE,comdat
.LLSDA3198:
	.byte	0xff
	.byte	0xff
	.byte	0x1
	.uleb128 .LLSDACSE3198-.LLSDACSB3198
.LLSDACSB3198:
	.uleb128 .LEHB6-.LFB3198
	.uleb128 .LEHE6-.LEHB6
	.uleb128 0
	.uleb128 0
	.uleb128 .LEHB7-.LFB3198
	.uleb128 .LEHE7-.LEHB7
	.uleb128 .L646-.LFB3198
	.uleb128 0
	.uleb128 .LEHB8-.LFB3198
	.uleb128 .LEHE8-.LEHB8
	.uleb128 .L645-.LFB3198
	.uleb128 0
	.uleb128 .LEHB9-.LFB3198
	.uleb128 .LEHE9-.LEHB9
	.uleb128 0
	.uleb128 0
.LLSDACSE3198:
	.section	.text._ZN4asio6detail13epoll_reactor3runEbRNS0_8op_queueINS0_25task_io_service_operationEEE,"axG",@progbits,_ZN4asio6detail13epoll_reactor3runEbRNS0_8op_queueINS0_25task_io_service_operationEEE,comdat
	.size	_ZN4asio6detail13epoll_reactor3runEbRNS0_8op_queueINS0_25task_io_service_operationEEE, .-_ZN4asio6detail13epoll_reactor3runEbRNS0_8op_queueINS0_25task_io_service_operationEEE
	.section	.text._ZN4asio6detail15task_io_service12task_cleanupD2Ev,"axG",@progbits,_ZN4asio6detail15task_io_service12task_cleanupD5Ev,comdat
	.align 2
	.p2align 4,,15
	.weak	_ZN4asio6detail15task_io_service12task_cleanupD2Ev
	.type	_ZN4asio6detail15task_io_service12task_cleanupD2Ev, @function
_ZN4asio6detail15task_io_service12task_cleanupD2Ev:
.LFB3221:
	.cfi_startproc
	pushq	%rbp
	.cfi_def_cfa_offset 16
	.cfi_offset 6, -16
	pushq	%rbx
	.cfi_def_cfa_offset 24
	.cfi_offset 3, -24
	movq	%rdi, %rbx
	subq	$8, %rsp
	.cfi_def_cfa_offset 32
	movq	16(%rdi), %rax
	movq	24(%rax), %rdx
	testq	%rdx, %rdx
	jle	.L665
	movq	(%rdi), %rax
	lock addq	%rdx, 184(%rax)
	movq	16(%rdi), %rax
.L665:
	movq	8(%rbx), %rbp
	movq	$0, 24(%rax)
	cmpb	$0, 8(%rbp)
	je	.L676
.L666:
	movq	(%rbx), %rax
	movb	$1, 176(%rax)
	movq	16(%rbx), %rdx
	movq	(%rbx), %rax
	movq	8(%rdx), %rcx
	testq	%rcx, %rcx
	je	.L667
	movq	200(%rax), %rsi
	testq	%rsi, %rsi
	je	.L668
	movq	%rcx, (%rsi)
.L669:
	movq	16(%rdx), %rcx
	movq	%rcx, 200(%rax)
	movq	$0, 8(%rdx)
	movq	$0, 16(%rdx)
.L667:
	movq	200(%rax), %rcx
	leaq	152(%rax), %rdx
	movq	$0, 152(%rax)
	testq	%rcx, %rcx
	je	.L670
	movq	%rdx, (%rcx)
	movq	%rdx, 200(%rax)
	addq	$8, %rsp
	.cfi_remember_state
	.cfi_def_cfa_offset 24
	popq	%rbx
	.cfi_def_cfa_offset 16
	popq	%rbp
	.cfi_def_cfa_offset 8
	ret
	.p2align 4,,10
	.p2align 3
.L668:
	.cfi_restore_state
	movq	%rcx, 192(%rax)
	jmp	.L669
	.p2align 4,,10
	.p2align 3
.L670:
	movq	%rdx, 200(%rax)
	movq	%rdx, 192(%rax)
	addq	$8, %rsp
	.cfi_remember_state
	.cfi_def_cfa_offset 24
	popq	%rbx
	.cfi_def_cfa_offset 16
	popq	%rbp
	.cfi_def_cfa_offset 8
	ret
	.p2align 4,,10
	.p2align 3
.L676:
	.cfi_restore_state
	movq	0(%rbp), %rdi
	call	pthread_mutex_lock@PLT
	movb	$1, 8(%rbp)
	jmp	.L666
	.cfi_endproc
.LFE3221:
	.size	_ZN4asio6detail15task_io_service12task_cleanupD2Ev, .-_ZN4asio6detail15task_io_service12task_cleanupD2Ev
	.weak	_ZN4asio6detail15task_io_service12task_cleanupD1Ev
	.set	_ZN4asio6detail15task_io_service12task_cleanupD1Ev,_ZN4asio6detail15task_io_service12task_cleanupD2Ev
	.section	.text._ZN4asio6detail15task_io_service12work_cleanupD2Ev,"axG",@progbits,_ZN4asio6detail15task_io_service12work_cleanupD5Ev,comdat
	.align 2
	.p2align 4,,15
	.weak	_ZN4asio6detail15task_io_service12work_cleanupD2Ev
	.type	_ZN4asio6detail15task_io_service12work_cleanupD2Ev, @function
_ZN4asio6detail15task_io_service12work_cleanupD2Ev:
.LFB3224:
	.cfi_startproc
	pushq	%r12
	.cfi_def_cfa_offset 16
	.cfi_offset 12, -16
	pushq	%rbp
	.cfi_def_cfa_offset 24
	.cfi_offset 6, -24
	pushq	%rbx
	.cfi_def_cfa_offset 32
	.cfi_offset 3, -32
	movq	%rdi, %rbx
	subq	$32, %rsp
	.cfi_def_cfa_offset 64
	movq	%fs:40, %rax
	movq	%rax, 24(%rsp)
	xorl	%eax, %eax
	movq	16(%rdi), %rax
	movq	24(%rax), %rdx
	cmpq	$1, %rdx
	jg	.L702
	jne	.L703
.L679:
	movq	8(%rax), %rdx
	movq	$0, 24(%rax)
	testq	%rdx, %rdx
	je	.L677
	movq	8(%rbx), %rbp
	cmpb	$0, 8(%rbp)
	je	.L704
.L701:
	movq	(%rbx), %rcx
	movq	200(%rcx), %rsi
	testq	%rsi, %rsi
	je	.L686
	movq	%rdx, (%rsi)
.L687:
	movq	16(%rax), %rdx
	movq	%rdx, 200(%rcx)
	movq	$0, 8(%rax)
	movq	$0, 16(%rax)
.L677:
	movq	24(%rsp), %rax
	xorq	%fs:40, %rax
	jne	.L705
	addq	$32, %rsp
	.cfi_remember_state
	.cfi_def_cfa_offset 32
	popq	%rbx
	.cfi_def_cfa_offset 24
	popq	%rbp
	.cfi_def_cfa_offset 16
	popq	%r12
	.cfi_def_cfa_offset 8
	ret
	.p2align 4,,10
	.p2align 3
.L704:
	.cfi_restore_state
	movq	0(%rbp), %rdi
	call	pthread_mutex_lock@PLT
	movq	16(%rbx), %rax
	movb	$1, 8(%rbp)
	movq	8(%rax), %rdx
	testq	%rdx, %rdx
	je	.L677
	jmp	.L701
	.p2align 4,,10
	.p2align 3
.L702:
	movq	(%rdi), %rax
	subq	$1, %rdx
	lock addq	%rdx, 184(%rax)
	movq	16(%rdi), %rax
	jmp	.L679
	.p2align 4,,10
	.p2align 3
.L686:
	movq	%rdx, 192(%rcx)
	jmp	.L687
	.p2align 4,,10
	.p2align 3
.L703:
	movq	(%rdi), %rbp
	lock subq	$1, 184(%rbp)
	je	.L680
.L700:
	movq	16(%rbx), %rax
	jmp	.L679
	.p2align 4,,10
	.p2align 3
.L680:
	leaq	48(%rbp), %r12
	movq	%r12, %rdi
	call	pthread_mutex_lock@PLT
	orq	$1, 136(%rbp)
	leaq	88(%rbp), %rdi
	movb	$1, 208(%rbp)
	call	pthread_cond_broadcast@PLT
	cmpb	$0, 176(%rbp)
	jne	.L681
	movq	144(%rbp), %rax
	testq	%rax, %rax
	je	.L681
	leaq	88(%rax), %rdx
	movb	$1, 176(%rbp)
	movl	96(%rax), %edi
	leaq	12(%rsp), %rcx
	movl	$3, %esi
	movl	$-2147483639, 12(%rsp)
	movq	%rdx, 16(%rsp)
	movl	88(%rax), %edx
	call	epoll_ctl@PLT
.L681:
	movq	%r12, %rdi
	call	pthread_mutex_unlock@PLT
	jmp	.L700
.L705:
	call	__stack_chk_fail@PLT
	.cfi_endproc
.LFE3224:
	.size	_ZN4asio6detail15task_io_service12work_cleanupD2Ev, .-_ZN4asio6detail15task_io_service12work_cleanupD2Ev
	.weak	_ZN4asio6detail15task_io_service12work_cleanupD1Ev
	.set	_ZN4asio6detail15task_io_service12work_cleanupD1Ev,_ZN4asio6detail15task_io_service12work_cleanupD2Ev
	.section	.text._ZN4asio6detail27task_io_service_thread_infoD2Ev,"axG",@progbits,_ZN4asio6detail27task_io_service_thread_infoD5Ev,comdat
	.align 2
	.p2align 4,,15
	.weak	_ZN4asio6detail27task_io_service_thread_infoD2Ev
	.type	_ZN4asio6detail27task_io_service_thread_infoD2Ev, @function
_ZN4asio6detail27task_io_service_thread_infoD2Ev:
.LFB3243:
	.cfi_startproc
	.cfi_personality 0x9b,DW.ref.__gxx_personality_v0
	.cfi_lsda 0x1b,.LLSDA3243
	pushq	%r12
	.cfi_def_cfa_offset 16
	.cfi_offset 12, -16
	pushq	%rbp
	.cfi_def_cfa_offset 24
	.cfi_offset 6, -24
	pushq	%rbx
	.cfi_def_cfa_offset 32
	.cfi_offset 3, -32
	movq	%rdi, %rbx
	subq	$48, %rsp
	.cfi_def_cfa_offset 80
	movq	8(%rdi), %rsi
	movq	%fs:40, %rax
	movq	%rax, 40(%rsp)
	xorl	%eax, %eax
	testq	%rsi, %rsi
	movq	%rsi, 8(%rsp)
	je	.L707
	call	_ZNSt3_V215system_categoryEv@PLT
	leaq	16(%rsp), %rbp
	movq	%rax, %r12
	movq	8(%rsp), %rsi
	jmp	.L708
	.p2align 4,,10
	.p2align 3
.L709:
	movq	$0, (%rsi)
	movq	8(%rsi), %rax
	xorl	%ecx, %ecx
	xorl	%edi, %edi
	movl	$0, 16(%rsp)
	movq	%r12, 24(%rsp)
	movq	%rbp, %rdx
	call	*%rax
	movq	8(%rbx), %rsi
	testq	%rsi, %rsi
	je	.L707
.L708:
	movq	(%rsi), %rax
	testq	%rax, %rax
	movq	%rax, 8(%rbx)
	jne	.L709
	movq	$0, 16(%rbx)
	jmp	.L709
	.p2align 4,,10
	.p2align 3
.L707:
	movq	(%rbx), %rdi
	testq	%rdi, %rdi
	je	.L706
	call	_ZdlPv@PLT
.L706:
	movq	40(%rsp), %rax
	xorq	%fs:40, %rax
	jne	.L724
	addq	$48, %rsp
	.cfi_remember_state
	.cfi_def_cfa_offset 32
	popq	%rbx
	.cfi_def_cfa_offset 24
	popq	%rbp
	.cfi_def_cfa_offset 16
	popq	%r12
	.cfi_def_cfa_offset 8
	ret
.L724:
	.cfi_restore_state
	call	__stack_chk_fail@PLT
	.cfi_endproc
.LFE3243:
	.section	.gcc_except_table._ZN4asio6detail27task_io_service_thread_infoD2Ev,"aG",@progbits,_ZN4asio6detail27task_io_service_thread_infoD5Ev,comdat
.LLSDA3243:
	.byte	0xff
	.byte	0xff
	.byte	0x1
	.uleb128 .LLSDACSE3243-.LLSDACSB3243
.LLSDACSB3243:
.LLSDACSE3243:
	.section	.text._ZN4asio6detail27task_io_service_thread_infoD2Ev,"axG",@progbits,_ZN4asio6detail27task_io_service_thread_infoD5Ev,comdat
	.size	_ZN4asio6detail27task_io_service_thread_infoD2Ev, .-_ZN4asio6detail27task_io_service_thread_infoD2Ev
	.weak	_ZN4asio6detail27task_io_service_thread_infoD1Ev
	.set	_ZN4asio6detail27task_io_service_thread_infoD1Ev,_ZN4asio6detail27task_io_service_thread_infoD2Ev
	.section	.text._ZN4asio6detail15task_io_service26wake_one_thread_and_unlockERNS0_11scoped_lockINS0_11posix_mutexEEE,"axG",@progbits,_ZN4asio6detail15task_io_service26wake_one_thread_and_unlockERNS0_11scoped_lockINS0_11posix_mutexEEE,comdat
	.align 2
	.p2align 4,,15
	.weak	_ZN4asio6detail15task_io_service26wake_one_thread_and_unlockERNS0_11scoped_lockINS0_11posix_mutexEEE
	.type	_ZN4asio6detail15task_io_service26wake_one_thread_and_unlockERNS0_11scoped_lockINS0_11posix_mutexEEE, @function
_ZN4asio6detail15task_io_service26wake_one_thread_and_unlockERNS0_11scoped_lockINS0_11posix_mutexEEE:
.LFB3259:
	.cfi_startproc
	pushq	%rbp
	.cfi_def_cfa_offset 16
	.cfi_offset 6, -16
	pushq	%rbx
	.cfi_def_cfa_offset 24
	.cfi_offset 3, -24
	movq	%rsi, %rbp
	movq	%rdi, %rbx
	subq	$40, %rsp
	.cfi_def_cfa_offset 64
	movq	%fs:40, %rax
	movq	%rax, 24(%rsp)
	xorl	%eax, %eax
	movq	136(%rdi), %rax
	orq	$1, %rax
	cmpq	$1, %rax
	movq	%rax, 136(%rdi)
	jne	.L735
	cmpb	$0, 176(%rdi)
	jne	.L729
	movq	144(%rdi), %rax
	testq	%rax, %rax
	je	.L729
	leaq	88(%rax), %rdx
	movb	$1, 176(%rdi)
	movl	96(%rax), %edi
	leaq	12(%rsp), %rcx
	movl	$3, %esi
	movl	$-2147483639, 12(%rsp)
	movq	%rdx, 16(%rsp)
	movl	88(%rax), %edx
	call	epoll_ctl@PLT
.L729:
	cmpb	$0, 8(%rbp)
	jne	.L736
.L725:
	movq	24(%rsp), %rax
	xorq	%fs:40, %rax
	jne	.L737
	addq	$40, %rsp
	.cfi_remember_state
	.cfi_def_cfa_offset 24
	popq	%rbx
	.cfi_def_cfa_offset 16
	popq	%rbp
	.cfi_def_cfa_offset 8
	ret
	.p2align 4,,10
	.p2align 3
.L736:
	.cfi_restore_state
	movq	0(%rbp), %rdi
	call	pthread_mutex_unlock@PLT
	movb	$0, 8(%rbp)
	jmp	.L725
	.p2align 4,,10
	.p2align 3
.L735:
	cmpb	$0, 8(%rsi)
	jne	.L738
.L727:
	leaq	88(%rbx), %rdi
	call	pthread_cond_signal@PLT
	jmp	.L725
	.p2align 4,,10
	.p2align 3
.L738:
	movq	(%rsi), %rdi
	call	pthread_mutex_unlock@PLT
	movb	$0, 8(%rbp)
	jmp	.L727
.L737:
	call	__stack_chk_fail@PLT
	.cfi_endproc
.LFE3259:
	.size	_ZN4asio6detail15task_io_service26wake_one_thread_and_unlockERNS0_11scoped_lockINS0_11posix_mutexEEE, .-_ZN4asio6detail15task_io_service26wake_one_thread_and_unlockERNS0_11scoped_lockINS0_11posix_mutexEEE
	.section	.text._ZN4asio6detail15task_io_service25post_immediate_completionEPNS0_25task_io_service_operationEb,"axG",@progbits,_ZN4asio6detail15task_io_service25post_immediate_completionEPNS0_25task_io_service_operationEb,comdat
	.align 2
	.p2align 4,,15
	.weak	_ZN4asio6detail15task_io_service25post_immediate_completionEPNS0_25task_io_service_operationEb
	.type	_ZN4asio6detail15task_io_service25post_immediate_completionEPNS0_25task_io_service_operationEb, @function
_ZN4asio6detail15task_io_service25post_immediate_completionEPNS0_25task_io_service_operationEb:
.LFB3251:
	.cfi_startproc
	pushq	%rbp
	.cfi_def_cfa_offset 16
	.cfi_offset 6, -16
	pushq	%rbx
	.cfi_def_cfa_offset 24
	.cfi_offset 3, -24
	movq	%rsi, %rbp
	movq	%rdi, %rbx
	subq	$40, %rsp
	.cfi_def_cfa_offset 64
	movq	%fs:40, %rax
	movq	%rax, 24(%rsp)
	xorl	%eax, %eax
	cmpb	$0, 40(%rdi)
	jne	.L752
	testb	%dl, %dl
	je	.L740
.L752:
	.byte	0x66
	leaq	_ZN4asio6detail15keyword_tss_ptrINS0_10call_stackINS0_15task_io_serviceENS0_27task_io_service_thread_infoEE7contextEE6value_E@tlsgd(%rip), %rdi
	.value	0x6666
	rex64
	call	__tls_get_addr@PLT
	movq	(%rax), %rax
	testq	%rax, %rax
	jne	.L760
	jmp	.L740
	.p2align 4,,10
	.p2align 3
.L743:
	movq	16(%rax), %rax
	testq	%rax, %rax
	je	.L740
.L760:
	cmpq	(%rax), %rbx
	jne	.L743
	movq	8(%rax), %rax
	testq	%rax, %rax
	je	.L740
	addq	$1, 24(%rax)
	cmpq	$0, 16(%rax)
	movq	$0, 0(%rbp)
	je	.L746
	movq	16(%rax), %rdx
	movq	%rbp, (%rdx)
	movq	%rbp, 16(%rax)
.L739:
	movq	24(%rsp), %rax
	xorq	%fs:40, %rax
	jne	.L763
	addq	$40, %rsp
	.cfi_remember_state
	.cfi_def_cfa_offset 24
	popq	%rbx
	.cfi_def_cfa_offset 16
	popq	%rbp
	.cfi_def_cfa_offset 8
	ret
	.p2align 4,,10
	.p2align 3
.L740:
	.cfi_restore_state
	lock addq	$1, 184(%rbx)
	leaq	48(%rbx), %rdi
	movq	%rdi, (%rsp)
	call	pthread_mutex_lock@PLT
	cmpq	$0, 200(%rbx)
	movb	$1, 8(%rsp)
	movq	$0, 0(%rbp)
	je	.L748
	movq	200(%rbx), %rax
	movq	%rbp, (%rax)
	movq	%rbp, 200(%rbx)
.L749:
	movq	%rsp, %rsi
	movq	%rbx, %rdi
	call	_ZN4asio6detail15task_io_service26wake_one_thread_and_unlockERNS0_11scoped_lockINS0_11posix_mutexEEE@PLT
	cmpb	$0, 8(%rsp)
	je	.L739
	movq	(%rsp), %rdi
	call	pthread_mutex_unlock@PLT
	jmp	.L739
	.p2align 4,,10
	.p2align 3
.L746:
	movq	%rbp, 16(%rax)
	movq	%rbp, 8(%rax)
	jmp	.L739
	.p2align 4,,10
	.p2align 3
.L748:
	movq	%rbp, 200(%rbx)
	movq	%rbp, 192(%rbx)
	jmp	.L749
.L763:
	call	__stack_chk_fail@PLT
	.cfi_endproc
.LFE3251:
	.size	_ZN4asio6detail15task_io_service25post_immediate_completionEPNS0_25task_io_service_operationEb, .-_ZN4asio6detail15task_io_service25post_immediate_completionEPNS0_25task_io_service_operationEb
	.section	.text._ZN4asio6detail15task_io_service25post_deferred_completionsERNS0_8op_queueINS0_25task_io_service_operationEEE,"axG",@progbits,_ZN4asio6detail15task_io_service25post_deferred_completionsERNS0_8op_queueINS0_25task_io_service_operationEEE,comdat
	.align 2
	.p2align 4,,15
	.weak	_ZN4asio6detail15task_io_service25post_deferred_completionsERNS0_8op_queueINS0_25task_io_service_operationEEE
	.type	_ZN4asio6detail15task_io_service25post_deferred_completionsERNS0_8op_queueINS0_25task_io_service_operationEEE, @function
_ZN4asio6detail15task_io_service25post_deferred_completionsERNS0_8op_queueINS0_25task_io_service_operationEEE:
.LFB3253:
	.cfi_startproc
	pushq	%r12
	.cfi_def_cfa_offset 16
	.cfi_offset 12, -16
	pushq	%rbp
	.cfi_def_cfa_offset 24
	.cfi_offset 6, -24
	pushq	%rbx
	.cfi_def_cfa_offset 32
	.cfi_offset 3, -32
	subq	$32, %rsp
	.cfi_def_cfa_offset 64
	movq	(%rsi), %r12
	movq	%fs:40, %rax
	movq	%rax, 24(%rsp)
	xorl	%eax, %eax
	testq	%r12, %r12
	je	.L764
	cmpb	$0, 40(%rdi)
	movq	%rdi, %rbx
	movq	%rsi, %rbp
	je	.L766
	.byte	0x66
	leaq	_ZN4asio6detail15keyword_tss_ptrINS0_10call_stackINS0_15task_io_serviceENS0_27task_io_service_thread_infoEE7contextEE6value_E@tlsgd(%rip), %rdi
	.value	0x6666
	rex64
	call	__tls_get_addr@PLT
	movq	(%rax), %rax
	testq	%rax, %rax
	jne	.L791
	jmp	.L766
	.p2align 4,,10
	.p2align 3
.L768:
	movq	16(%rax), %rax
	testq	%rax, %rax
	je	.L766
.L791:
	cmpq	(%rax), %rbx
	jne	.L768
	movq	8(%rax), %rax
	testq	%rax, %rax
	je	.L766
	movq	16(%rax), %rdx
	testq	%rdx, %rdx
	je	.L771
	movq	%r12, (%rdx)
.L772:
	movq	8(%rbp), %rdx
	movq	%rdx, 16(%rax)
	movq	$0, 0(%rbp)
	movq	$0, 8(%rbp)
.L764:
	movq	24(%rsp), %rax
	xorq	%fs:40, %rax
	jne	.L794
	addq	$32, %rsp
	.cfi_remember_state
	.cfi_def_cfa_offset 32
	popq	%rbx
	.cfi_def_cfa_offset 24
	popq	%rbp
	.cfi_def_cfa_offset 16
	popq	%r12
	.cfi_def_cfa_offset 8
	ret
	.p2align 4,,10
	.p2align 3
.L766:
	.cfi_restore_state
	leaq	48(%rbx), %rdi
	movq	%rdi, (%rsp)
	call	pthread_mutex_lock@PLT
	movq	0(%rbp), %rax
	movb	$1, 8(%rsp)
	testq	%rax, %rax
	je	.L773
	movq	200(%rbx), %rdx
	testq	%rdx, %rdx
	je	.L774
	movq	%rax, (%rdx)
.L775:
	movq	8(%rbp), %rax
	movq	%rax, 200(%rbx)
	movq	$0, 0(%rbp)
	movq	$0, 8(%rbp)
.L773:
	movq	%rsp, %rsi
	movq	%rbx, %rdi
	call	_ZN4asio6detail15task_io_service26wake_one_thread_and_unlockERNS0_11scoped_lockINS0_11posix_mutexEEE@PLT
	cmpb	$0, 8(%rsp)
	je	.L764
	movq	(%rsp), %rdi
	call	pthread_mutex_unlock@PLT
	jmp	.L764
	.p2align 4,,10
	.p2align 3
.L774:
	movq	%rax, 192(%rbx)
	jmp	.L775
	.p2align 4,,10
	.p2align 3
.L771:
	movq	%r12, 8(%rax)
	jmp	.L772
.L794:
	call	__stack_chk_fail@PLT
	.cfi_endproc
.LFE3253:
	.size	_ZN4asio6detail15task_io_service25post_deferred_completionsERNS0_8op_queueINS0_25task_io_service_operationEEE, .-_ZN4asio6detail15task_io_service25post_deferred_completionsERNS0_8op_queueINS0_25task_io_service_operationEEE
	.section	.text._ZN4asio6detail13epoll_reactor32perform_io_cleanup_on_block_exitD2Ev,"axG",@progbits,_ZN4asio6detail13epoll_reactor32perform_io_cleanup_on_block_exitD5Ev,comdat
	.align 2
	.p2align 4,,15
	.weak	_ZN4asio6detail13epoll_reactor32perform_io_cleanup_on_block_exitD2Ev
	.type	_ZN4asio6detail13epoll_reactor32perform_io_cleanup_on_block_exitD2Ev, @function
_ZN4asio6detail13epoll_reactor32perform_io_cleanup_on_block_exitD2Ev:
.LFB3213:
	.cfi_startproc
	.cfi_personality 0x9b,DW.ref.__gxx_personality_v0
	.cfi_lsda 0x1b,.LLSDA3213
	pushq	%r12
	.cfi_def_cfa_offset 16
	.cfi_offset 12, -16
	pushq	%rbp
	.cfi_def_cfa_offset 24
	.cfi_offset 6, -24
	pushq	%rbx
	.cfi_def_cfa_offset 32
	.cfi_offset 3, -32
	movq	%rdi, %rbx
	subq	$48, %rsp
	.cfi_def_cfa_offset 80
	movq	%fs:40, %rax
	movq	%rax, 40(%rsp)
	xorl	%eax, %eax
	cmpq	$0, 24(%rdi)
	je	.L796
	cmpq	$0, 8(%rdi)
	je	.L795
	movq	(%rdi), %rax
	leaq	8(%rdi), %rsi
	movq	40(%rax), %rdi
	call	_ZN4asio6detail15task_io_service25post_deferred_completionsERNS0_8op_queueINS0_25task_io_service_operationEEE@PLT
	movq	8(%rbx), %rsi
.L799:
	testq	%rsi, %rsi
	je	.L795
	movq	%rsi, 8(%rsp)
	leaq	16(%rsp), %rbp
	call	_ZNSt3_V215system_categoryEv@PLT
	movq	8(%rsp), %rsi
	movq	%rax, %r12
	jmp	.L800
	.p2align 4,,10
	.p2align 3
.L801:
	movq	$0, (%rsi)
	movq	8(%rsi), %rax
	xorl	%ecx, %ecx
	xorl	%edi, %edi
	movl	$0, 16(%rsp)
	movq	%r12, 24(%rsp)
	movq	%rbp, %rdx
	call	*%rax
	movq	8(%rbx), %rsi
	testq	%rsi, %rsi
	je	.L795
.L800:
	movq	(%rsi), %rax
	testq	%rax, %rax
	movq	%rax, 8(%rbx)
	jne	.L801
	movq	$0, 16(%rbx)
	jmp	.L801
	.p2align 4,,10
	.p2align 3
.L795:
	movq	40(%rsp), %rax
	xorq	%fs:40, %rax
	jne	.L813
	addq	$48, %rsp
	.cfi_remember_state
	.cfi_def_cfa_offset 32
	popq	%rbx
	.cfi_def_cfa_offset 24
	popq	%rbp
	.cfi_def_cfa_offset 16
	popq	%r12
	.cfi_def_cfa_offset 8
	ret
	.p2align 4,,10
	.p2align 3
.L796:
	.cfi_restore_state
	movq	(%rdi), %rax
	movq	40(%rax), %rax
	lock addq	$1, 184(%rax)
	movq	8(%rdi), %rsi
	jmp	.L799
.L813:
	call	__stack_chk_fail@PLT
	.cfi_endproc
.LFE3213:
	.section	.gcc_except_table._ZN4asio6detail13epoll_reactor32perform_io_cleanup_on_block_exitD2Ev,"aG",@progbits,_ZN4asio6detail13epoll_reactor32perform_io_cleanup_on_block_exitD5Ev,comdat
.LLSDA3213:
	.byte	0xff
	.byte	0xff
	.byte	0x1
	.uleb128 .LLSDACSE3213-.LLSDACSB3213
.LLSDACSB3213:
.LLSDACSE3213:
	.section	.text._ZN4asio6detail13epoll_reactor32perform_io_cleanup_on_block_exitD2Ev,"axG",@progbits,_ZN4asio6detail13epoll_reactor32perform_io_cleanup_on_block_exitD5Ev,comdat
	.size	_ZN4asio6detail13epoll_reactor32perform_io_cleanup_on_block_exitD2Ev, .-_ZN4asio6detail13epoll_reactor32perform_io_cleanup_on_block_exitD2Ev
	.weak	_ZN4asio6detail13epoll_reactor32perform_io_cleanup_on_block_exitD1Ev
	.set	_ZN4asio6detail13epoll_reactor32perform_io_cleanup_on_block_exitD1Ev,_ZN4asio6detail13epoll_reactor32perform_io_cleanup_on_block_exitD2Ev
	.section	.text._ZN4asio6detail13epoll_reactor16descriptor_state11do_completeEPNS0_15task_io_serviceEPNS0_25task_io_service_operationERKSt10error_codem,"axG",@progbits,_ZN4asio6detail13epoll_reactor16descriptor_state11do_completeEPNS0_15task_io_serviceEPNS0_25task_io_service_operationERKSt10error_codem,comdat
	.align 2
	.p2align 4,,15
	.weak	_ZN4asio6detail13epoll_reactor16descriptor_state11do_completeEPNS0_15task_io_serviceEPNS0_25task_io_service_operationERKSt10error_codem
	.type	_ZN4asio6detail13epoll_reactor16descriptor_state11do_completeEPNS0_15task_io_serviceEPNS0_25task_io_service_operationERKSt10error_codem, @function
_ZN4asio6detail13epoll_reactor16descriptor_state11do_completeEPNS0_15task_io_serviceEPNS0_25task_io_service_operationERKSt10error_codem:
.LFB3219:
	.cfi_startproc
	.cfi_personality 0x9b,DW.ref.__gxx_personality_v0
	.cfi_lsda 0x1b,.LLSDA3219
	pushq	%r15
	.cfi_def_cfa_offset 16
	.cfi_offset 15, -16
	pushq	%r14
	.cfi_def_cfa_offset 24
	.cfi_offset 14, -24
	pushq	%r13
	.cfi_def_cfa_offset 32
	.cfi_offset 13, -32
	pushq	%r12
	.cfi_def_cfa_offset 40
	.cfi_offset 12, -40
	pushq	%rbp
	.cfi_def_cfa_offset 48
	.cfi_offset 6, -48
	pushq	%rbx
	.cfi_def_cfa_offset 56
	.cfi_offset 3, -56
	subq	$88, %rsp
	.cfi_def_cfa_offset 144
	movq	%fs:40, %rax
	movq	%rax, 72(%rsp)
	xorl	%eax, %eax
	testq	%rdi, %rdi
	movq	%rdx, (%rsp)
	je	.L814
	leaq	40(%rsi), %rax
	movq	%rsi, %rbp
	movq	%rdi, %r14
	movl	%ecx, %r13d
	subq	$-128, %rbp
	movl	$2, %r12d
	movq	%rax, %rdi
	movq	%rax, 8(%rsp)
	call	pthread_mutex_lock@PLT
	movq	-48(%rbp), %rax
	movq	_ZZN4asio6detail13epoll_reactor16descriptor_state10perform_ioEjE4flag@GOTPCREL(%rip), %r15
	movq	$0, 40(%rsp)
	movq	$0, 48(%rsp)
	movq	$0, 56(%rsp)
	movq	%rax, 32(%rsp)
.L823:
	movl	(%r15,%r12,4), %eax
	orl	$24, %eax
	testl	%r13d, %eax
	jne	.L817
.L818:
	subq	$1, %r12
	subq	$16, %rbp
	cmpq	$-1, %r12
	jne	.L823
	movq	40(%rsp), %rbx
	testq	%rbx, %rbx
	movq	%rbx, 56(%rsp)
	je	.L824
	movq	(%rbx), %rax
	testq	%rax, %rax
	movq	%rax, 40(%rsp)
	je	.L861
.L825:
	movq	$0, (%rbx)
.L824:
	movq	8(%rsp), %rdi
	call	pthread_mutex_unlock@PLT
	cmpq	$0, 56(%rsp)
	je	.L826
	cmpq	$0, 40(%rsp)
	je	.L827
	movq	32(%rsp), %rax
	leaq	40(%rsp), %rsi
	movq	40(%rax), %rdi
	call	_ZN4asio6detail15task_io_service25post_deferred_completionsERNS0_8op_queueINS0_25task_io_service_operationEEE@PLT
.L829:
	movq	40(%rsp), %rsi
	testq	%rsi, %rsi
	je	.L827
	movq	%rsi, 8(%rsp)
	leaq	16(%rsp), %rbp
	call	_ZNSt3_V215system_categoryEv@PLT
	movq	8(%rsp), %rsi
	movq	%rax, %r12
	jmp	.L830
	.p2align 4,,10
	.p2align 3
.L831:
	movq	$0, (%rsi)
	movq	8(%rsi), %rax
	xorl	%ecx, %ecx
	xorl	%edi, %edi
	movl	$0, 16(%rsp)
	movq	%r12, 24(%rsp)
	movq	%rbp, %rdx
	call	*%rax
	movq	40(%rsp), %rsi
	testq	%rsi, %rsi
	je	.L827
.L830:
	movq	(%rsi), %rax
	testq	%rax, %rax
	movq	%rax, 40(%rsp)
	jne	.L831
	movq	$0, 48(%rsp)
	jmp	.L831
	.p2align 4,,10
	.p2align 3
.L821:
	movq	%rbx, 48(%rsp)
	movq	%rbx, 40(%rsp)
.L817:
	movq	0(%rbp), %rbx
	testq	%rbx, %rbx
	je	.L818
.L863:
	movq	%rbx, %rdi
.LEHB10:
	call	*48(%rbx)
.LEHE10:
	testb	%al, %al
	je	.L818
	movq	0(%rbp), %rax
	testq	%rax, %rax
	je	.L819
	movq	(%rax), %rdx
	testq	%rdx, %rdx
	movq	%rdx, 0(%rbp)
	je	.L862
.L820:
	movq	$0, (%rax)
.L819:
	movq	48(%rsp), %rax
	movq	$0, (%rbx)
	testq	%rax, %rax
	je	.L821
	movq	%rbx, (%rax)
	movq	%rbx, 48(%rsp)
	movq	0(%rbp), %rbx
	testq	%rbx, %rbx
	jne	.L863
	jmp	.L818
	.p2align 4,,10
	.p2align 3
.L827:
	testq	%rbx, %rbx
	je	.L814
	xorl	%ecx, %ecx
	movq	(%rsp), %rdx
	movq	%rbx, %rsi
	movq	%r14, %rdi
.LEHB11:
	call	*8(%rbx)
.L814:
	movq	72(%rsp), %rax
	xorq	%fs:40, %rax
	jne	.L864
	addq	$88, %rsp
	.cfi_remember_state
	.cfi_def_cfa_offset 56
	popq	%rbx
	.cfi_def_cfa_offset 48
	popq	%rbp
	.cfi_def_cfa_offset 40
	popq	%r12
	.cfi_def_cfa_offset 32
	popq	%r13
	.cfi_def_cfa_offset 24
	popq	%r14
	.cfi_def_cfa_offset 16
	popq	%r15
	.cfi_def_cfa_offset 8
	ret
	.p2align 4,,10
	.p2align 3
.L862:
	.cfi_restore_state
	movq	$0, 8(%rbp)
	jmp	.L820
	.p2align 4,,10
	.p2align 3
.L826:
	movq	32(%rsp), %rax
	movq	40(%rax), %rax
	lock addq	$1, 184(%rax)
	jmp	.L829
	.p2align 4,,10
	.p2align 3
.L861:
	movq	$0, 48(%rsp)
	jmp	.L825
.L864:
	call	__stack_chk_fail@PLT
.L837:
	movq	8(%rsp), %rdi
	movq	%rax, %rbx
	call	pthread_mutex_unlock@PLT
	leaq	32(%rsp), %rdi
	call	_ZN4asio6detail13epoll_reactor32perform_io_cleanup_on_block_exitD1Ev@PLT
	movq	%rbx, %rdi
	call	_Unwind_Resume@PLT
.LEHE11:
	.cfi_endproc
.LFE3219:
	.section	.gcc_except_table._ZN4asio6detail13epoll_reactor16descriptor_state11do_completeEPNS0_15task_io_serviceEPNS0_25task_io_service_operationERKSt10error_codem,"aG",@progbits,_ZN4asio6detail13epoll_reactor16descriptor_state11do_completeEPNS0_15task_io_serviceEPNS0_25task_io_service_operationERKSt10error_codem,comdat
.LLSDA3219:
	.byte	0xff
	.byte	0xff
	.byte	0x1
	.uleb128 .LLSDACSE3219-.LLSDACSB3219
.LLSDACSB3219:
	.uleb128 .LEHB10-.LFB3219
	.uleb128 .LEHE10-.LEHB10
	.uleb128 .L837-.LFB3219
	.uleb128 0
	.uleb128 .LEHB11-.LFB3219
	.uleb128 .LEHE11-.LEHB11
	.uleb128 0
	.uleb128 0
.LLSDACSE3219:
	.section	.text._ZN4asio6detail13epoll_reactor16descriptor_state11do_completeEPNS0_15task_io_serviceEPNS0_25task_io_service_operationERKSt10error_codem,"axG",@progbits,_ZN4asio6detail13epoll_reactor16descriptor_state11do_completeEPNS0_15task_io_serviceEPNS0_25task_io_service_operationERKSt10error_codem,comdat
	.size	_ZN4asio6detail13epoll_reactor16descriptor_state11do_completeEPNS0_15task_io_serviceEPNS0_25task_io_service_operationERKSt10error_codem, .-_ZN4asio6detail13epoll_reactor16descriptor_state11do_completeEPNS0_15task_io_serviceEPNS0_25task_io_service_operationERKSt10error_codem
	.section	.text._ZN4asio6detail16service_registry6createINS_21stream_socket_serviceINS_2ip3tcpEEEEEPNS_10io_service7serviceERS7_,"axG",@progbits,_ZN4asio6detail16service_registry6createINS_21stream_socket_serviceINS_2ip3tcpEEEEEPNS_10io_service7serviceERS7_,comdat
	.align 2
	.p2align 4,,15
	.weak	_ZN4asio6detail16service_registry6createINS_21stream_socket_serviceINS_2ip3tcpEEEEEPNS_10io_service7serviceERS7_
	.type	_ZN4asio6detail16service_registry6createINS_21stream_socket_serviceINS_2ip3tcpEEEEEPNS_10io_service7serviceERS7_, @function
_ZN4asio6detail16service_registry6createINS_21stream_socket_serviceINS_2ip3tcpEEEEEPNS_10io_service7serviceERS7_:
.LFB9236:
	.cfi_startproc
	.cfi_personality 0x9b,DW.ref.__gxx_personality_v0
	.cfi_lsda 0x1b,.LLSDA9236
	pushq	%r12
	.cfi_def_cfa_offset 16
	.cfi_offset 12, -16
	pushq	%rbp
	.cfi_def_cfa_offset 24
	.cfi_offset 6, -24
	movq	%rdi, %rbp
	pushq	%rbx
	.cfi_def_cfa_offset 32
	.cfi_offset 3, -32
	movl	$48, %edi
	subq	$64, %rsp
	.cfi_def_cfa_offset 96
	movq	%fs:40, %rax
	movq	%rax, 56(%rsp)
	xorl	%eax, %eax
.LEHB12:
	call	_Znwm@PLT
.LEHE12:
	movq	%rax, %rbx
	movq	$0, 8(%rax)
	movq	$0, 16(%rax)
	movq	%rbp, 24(%rax)
	movq	$0, 32(%rax)
	movq	%rsp, %rsi
	movq	_ZTVN4asio21stream_socket_serviceINS_2ip3tcpEEE@GOTPCREL(%rip), %rax
	movq	_ZTIN4asio6detail14typeid_wrapperINS0_13epoll_reactorEEE@GOTPCREL(%rip), %r12
	movq	0(%rbp), %rdi
	movq	_ZN4asio6detail16service_registry6createINS0_13epoll_reactorEEEPNS_10io_service7serviceERS4_@GOTPCREL(%rip), %rdx
	movq	$0, 8(%rsp)
	addq	$16, %rax
	movq	%r12, (%rsp)
	movq	%rax, (%rbx)
.LEHB13:
	call	_ZN4asio6detail16service_registry14do_use_serviceERKNS_10io_service7service3keyEPFPS3_RS2_E@PLT
.LEHE13:
	movq	%rax, 40(%rbx)
	movq	40(%rax), %rbp
	leaq	48(%rbp), %rdi
	movq	%rdi, 16(%rsp)
	call	pthread_mutex_lock@PLT
	cmpb	$0, 209(%rbp)
	movb	$1, 24(%rsp)
	jne	.L868
	cmpq	$0, 144(%rbp)
	je	.L878
.L868:
	movq	16(%rsp), %rdi
	call	pthread_mutex_unlock@PLT
.L865:
	movq	56(%rsp), %rcx
	xorq	%fs:40, %rcx
	movq	%rbx, %rax
	jne	.L879
	addq	$64, %rsp
	.cfi_remember_state
	.cfi_def_cfa_offset 32
	popq	%rbx
	.cfi_def_cfa_offset 24
	popq	%rbp
	.cfi_def_cfa_offset 16
	popq	%r12
	.cfi_def_cfa_offset 8
	ret
	.p2align 4,,10
	.p2align 3
.L878:
	.cfi_restore_state
	movq	24(%rbp), %rax
	movq	_ZN4asio6detail16service_registry6createINS0_13epoll_reactorEEEPNS_10io_service7serviceERS4_@GOTPCREL(%rip), %rdx
	leaq	32(%rsp), %rsi
	movq	(%rax), %rdi
	movq	$0, 40(%rsp)
	movq	%r12, 32(%rsp)
.LEHB14:
	call	_ZN4asio6detail16service_registry14do_use_serviceERKNS_10io_service7service3keyEPFPS3_RS2_E@PLT
.LEHE14:
	movq	200(%rbp), %rdx
	movq	%rax, 144(%rbp)
	leaq	152(%rbp), %rax
	movq	$0, 152(%rbp)
	testq	%rdx, %rdx
	je	.L869
	movq	%rax, (%rdx)
	movq	%rax, 200(%rbp)
.L870:
	leaq	16(%rsp), %rsi
	movq	%rbp, %rdi
	call	_ZN4asio6detail15task_io_service26wake_one_thread_and_unlockERNS0_11scoped_lockINS0_11posix_mutexEEE@PLT
	cmpb	$0, 24(%rsp)
	je	.L865
	jmp	.L868
	.p2align 4,,10
	.p2align 3
.L869:
	movq	%rax, 200(%rbp)
	movq	%rax, 192(%rbp)
	jmp	.L870
.L879:
	call	__stack_chk_fail@PLT
.L876:
	cmpb	$0, 24(%rsp)
	movq	%rax, %rbp
	je	.L873
	movq	16(%rsp), %rdi
	call	pthread_mutex_unlock@PLT
.L873:
	movq	%rbx, %rdi
	movl	$48, %esi
	call	_ZdlPvm@PLT
	movq	%rbp, %rdi
.LEHB15:
	call	_Unwind_Resume@PLT
.LEHE15:
.L875:
	movq	%rax, %rbp
	jmp	.L873
	.cfi_endproc
.LFE9236:
	.section	.gcc_except_table._ZN4asio6detail16service_registry6createINS_21stream_socket_serviceINS_2ip3tcpEEEEEPNS_10io_service7serviceERS7_,"aG",@progbits,_ZN4asio6detail16service_registry6createINS_21stream_socket_serviceINS_2ip3tcpEEEEEPNS_10io_service7serviceERS7_,comdat
.LLSDA9236:
	.byte	0xff
	.byte	0xff
	.byte	0x1
	.uleb128 .LLSDACSE9236-.LLSDACSB9236
.LLSDACSB9236:
	.uleb128 .LEHB12-.LFB9236
	.uleb128 .LEHE12-.LEHB12
	.uleb128 0
	.uleb128 0
	.uleb128 .LEHB13-.LFB9236
	.uleb128 .LEHE13-.LEHB13
	.uleb128 .L875-.LFB9236
	.uleb128 0
	.uleb128 .LEHB14-.LFB9236
	.uleb128 .LEHE14-.LEHB14
	.uleb128 .L876-.LFB9236
	.uleb128 0
	.uleb128 .LEHB15-.LFB9236
	.uleb128 .LEHE15-.LEHB15
	.uleb128 0
	.uleb128 0
.LLSDACSE9236:
	.section	.text._ZN4asio6detail16service_registry6createINS_21stream_socket_serviceINS_2ip3tcpEEEEEPNS_10io_service7serviceERS7_,"axG",@progbits,_ZN4asio6detail16service_registry6createINS_21stream_socket_serviceINS_2ip3tcpEEEEEPNS_10io_service7serviceERS7_,comdat
	.size	_ZN4asio6detail16service_registry6createINS_21stream_socket_serviceINS_2ip3tcpEEEEEPNS_10io_service7serviceERS7_, .-_ZN4asio6detail16service_registry6createINS_21stream_socket_serviceINS_2ip3tcpEEEEEPNS_10io_service7serviceERS7_
	.section	.text._ZN4asio6detail10socket_ops5closeEiRhbRSt10error_code,"axG",@progbits,_ZN4asio6detail10socket_ops5closeEiRhbRSt10error_code,comdat
	.p2align 4,,15
	.weak	_ZN4asio6detail10socket_ops5closeEiRhbRSt10error_code
	.type	_ZN4asio6detail10socket_ops5closeEiRhbRSt10error_code, @function
_ZN4asio6detail10socket_ops5closeEiRhbRSt10error_code:
.LFB3598:
	.cfi_startproc
	pushq	%r14
	.cfi_def_cfa_offset 16
	.cfi_offset 14, -16
	pushq	%r13
	.cfi_def_cfa_offset 24
	.cfi_offset 13, -24
	pushq	%r12
	.cfi_def_cfa_offset 32
	.cfi_offset 12, -32
	pushq	%rbp
	.cfi_def_cfa_offset 40
	.cfi_offset 6, -40
	pushq	%rbx
	.cfi_def_cfa_offset 48
	.cfi_offset 3, -48
	movq	%rcx, %rbx
	subq	$16, %rsp
	.cfi_def_cfa_offset 64
	movq	%fs:40, %rax
	movq	%rax, 8(%rsp)
	xorl	%eax, %eax
	cmpl	$-1, %edi
	je	.L884
	movl	%edx, %ebp
	movl	%edi, %r12d
	movq	%rsi, %r14
	call	__errno_location@PLT
	testb	%bpl, %bpl
	movq	%rax, %r13
	je	.L883
	movzbl	(%r14), %eax
	testb	$8, %al
	jne	.L898
.L883:
	movl	%r12d, %edi
	movl	$0, 0(%r13)
	call	close@PLT
	movl	%eax, %ebp
	call	_ZN4asio15system_categoryEv@PLT
	movl	0(%r13), %edx
	testl	%ebp, %ebp
	movq	%rax, 8(%rbx)
	movl	%edx, (%rbx)
	jne	.L899
.L884:
	call	_ZNSt3_V215system_categoryEv@PLT
	xorl	%ebp, %ebp
	movl	$0, (%rbx)
	movq	%rax, 8(%rbx)
.L880:
	movq	8(%rsp), %rsi
	xorq	%fs:40, %rsi
	movl	%ebp, %eax
	jne	.L900
	addq	$16, %rsp
	.cfi_remember_state
	.cfi_def_cfa_offset 48
	popq	%rbx
	.cfi_def_cfa_offset 40
	popq	%rbp
	.cfi_def_cfa_offset 32
	popq	%r12
	.cfi_def_cfa_offset 24
	popq	%r13
	.cfi_def_cfa_offset 16
	popq	%r14
	.cfi_def_cfa_offset 8
	ret
	.p2align 4,,10
	.p2align 3
.L899:
	.cfi_restore_state
	call	_ZN4asio15system_categoryEv@PLT
	cmpq	%rax, 8(%rbx)
	je	.L901
.L885:
	call	_ZN4asio15system_categoryEv@PLT
	cmpq	%rax, 8(%rbx)
	jne	.L880
	cmpl	$11, (%rbx)
	jne	.L880
.L886:
	movq	%rsp, %rdx
	movl	$21537, %esi
	movl	%r12d, %edi
	xorl	%eax, %eax
	movl	$0, (%rsp)
	call	ioctl@PLT
	andb	$-4, (%r14)
	movl	%r12d, %edi
	movl	$0, 0(%r13)
	call	close@PLT
	movl	%eax, %ebp
	call	_ZN4asio15system_categoryEv@PLT
	movl	0(%r13), %edx
	testl	%ebp, %ebp
	movq	%rax, 8(%rbx)
	movl	%edx, (%rbx)
	jne	.L880
	jmp	.L884
	.p2align 4,,10
	.p2align 3
.L898:
	orl	$8, %eax
	movq	%rsp, %rcx
	movl	$8, %r8d
	movb	%al, (%r14)
	movl	$13, %edx
	movl	$1, %esi
	movl	%r12d, %edi
	movl	$0, 0(%r13)
	movq	$0, (%rsp)
	call	setsockopt@PLT
	call	_ZN4asio15system_categoryEv@PLT
	jmp	.L883
	.p2align 4,,10
	.p2align 3
.L901:
	cmpl	$11, (%rbx)
	jne	.L885
	jmp	.L886
.L900:
	call	__stack_chk_fail@PLT
	.cfi_endproc
.LFE3598:
	.size	_ZN4asio6detail10socket_ops5closeEiRhbRSt10error_code, .-_ZN4asio6detail10socket_ops5closeEiRhbRSt10error_code
	.section	.text._ZN4asio6detail10socket_ops24translate_addrinfo_errorEi,"axG",@progbits,_ZN4asio6detail10socket_ops24translate_addrinfo_errorEi,comdat
	.p2align 4,,15
	.weak	_ZN4asio6detail10socket_ops24translate_addrinfo_errorEi
	.type	_ZN4asio6detail10socket_ops24translate_addrinfo_errorEi, @function
_ZN4asio6detail10socket_ops24translate_addrinfo_errorEi:
.LFB3650:
	.cfi_startproc
	addl	$10, %edi
	pushq	%rbx
	.cfi_def_cfa_offset 16
	.cfi_offset 3, -16
	cmpl	$10, %edi
	ja	.L903
	leaq	.L905(%rip), %rdx
	movslq	(%rdx,%rdi,4), %rax
	addq	%rdx, %rax
	jmp	*%rax
	.section	.rodata._ZN4asio6detail10socket_ops24translate_addrinfo_errorEi,"aG",@progbits,_ZN4asio6detail10socket_ops24translate_addrinfo_errorEi,comdat
	.align 4
	.align 4
.L905:
	.long	.L904-.L905
	.long	.L906-.L905
	.long	.L907-.L905
	.long	.L908-.L905
	.long	.L909-.L905
	.long	.L906-.L905
	.long	.L910-.L905
	.long	.L911-.L905
	.long	.L906-.L905
	.long	.L912-.L905
	.long	.L913-.L905
	.section	.text._ZN4asio6detail10socket_ops24translate_addrinfo_errorEi,"axG",@progbits,_ZN4asio6detail10socket_ops24translate_addrinfo_errorEi,comdat
	.p2align 4,,10
	.p2align 3
.L912:
	call	_ZN4asio15system_categoryEv@PLT
	popq	%rbx
	.cfi_remember_state
	.cfi_def_cfa_offset 8
	movq	%rax, %rdx
	movl	$22, %eax
	ret
	.p2align 4,,10
	.p2align 3
.L913:
	.cfi_restore_state
	call	_ZNSt3_V215system_categoryEv@PLT
	popq	%rbx
	.cfi_remember_state
	.cfi_def_cfa_offset 8
	movq	%rax, %rdx
	xorl	%eax, %eax
	ret
	.p2align 4,,10
	.p2align 3
.L904:
	.cfi_restore_state
	call	_ZN4asio15system_categoryEv@PLT
	popq	%rbx
	.cfi_remember_state
	.cfi_def_cfa_offset 8
	movq	%rax, %rdx
	movl	$12, %eax
	ret
	.p2align 4,,10
	.p2align 3
.L906:
	.cfi_restore_state
	movq	_ZGVZN4asio5error18get_netdb_categoryEvE8instance@GOTPCREL(%rip), %rbx
	movzbl	(%rbx), %eax
	testb	%al, %al
	je	.L921
.L948:
	movq	_ZZN4asio5error18get_netdb_categoryEvE8instance@GOTPCREL(%rip), %rbx
.L922:
	movq	%rbx, %rdx
	movl	$1, %eax
	popq	%rbx
	.cfi_remember_state
	.cfi_def_cfa_offset 8
	ret
	.p2align 4,,10
	.p2align 3
.L907:
	.cfi_restore_state
	movq	_ZGVZN4asio5error21get_addrinfo_categoryEvE8instance@GOTPCREL(%rip), %rbx
	movzbl	(%rbx), %eax
	testb	%al, %al
	je	.L924
.L949:
	movq	_ZZN4asio5error21get_addrinfo_categoryEvE8instance@GOTPCREL(%rip), %rbx
.L925:
	movq	%rbx, %rdx
	movl	$4294967288, %eax
	popq	%rbx
	.cfi_remember_state
	.cfi_def_cfa_offset 8
	ret
	.p2align 4,,10
	.p2align 3
.L908:
	.cfi_restore_state
	movq	_ZGVZN4asio5error21get_addrinfo_categoryEvE8instance@GOTPCREL(%rip), %rbx
	movzbl	(%rbx), %eax
	testb	%al, %al
	je	.L927
.L950:
	movq	_ZZN4asio5error21get_addrinfo_categoryEvE8instance@GOTPCREL(%rip), %rbx
.L928:
	movq	%rbx, %rdx
	movl	$4294967289, %eax
	popq	%rbx
	.cfi_remember_state
	.cfi_def_cfa_offset 8
	ret
	.p2align 4,,10
	.p2align 3
.L909:
	.cfi_restore_state
	call	_ZN4asio15system_categoryEv@PLT
	popq	%rbx
	.cfi_remember_state
	.cfi_def_cfa_offset 8
	movq	%rax, %rdx
	movl	$97, %eax
	ret
	.p2align 4,,10
	.p2align 3
.L910:
	.cfi_restore_state
	movq	_ZGVZN4asio5error18get_netdb_categoryEvE8instance@GOTPCREL(%rip), %rbx
	movzbl	(%rbx), %eax
	testb	%al, %al
	je	.L918
.L947:
	movq	_ZZN4asio5error18get_netdb_categoryEvE8instance@GOTPCREL(%rip), %rbx
.L919:
	movq	%rbx, %rdx
	movl	$3, %eax
	popq	%rbx
	.cfi_remember_state
	.cfi_def_cfa_offset 8
	ret
	.p2align 4,,10
	.p2align 3
.L911:
	.cfi_restore_state
	movq	_ZGVZN4asio5error18get_netdb_categoryEvE8instance@GOTPCREL(%rip), %rbx
	movzbl	(%rbx), %eax
	testb	%al, %al
	je	.L915
.L946:
	movq	_ZZN4asio5error18get_netdb_categoryEvE8instance@GOTPCREL(%rip), %rbx
.L916:
	movq	%rbx, %rdx
	movl	$2, %eax
	popq	%rbx
	.cfi_remember_state
	.cfi_def_cfa_offset 8
	ret
	.p2align 4,,10
	.p2align 3
.L903:
	.cfi_restore_state
	call	_ZN4asio15system_categoryEv@PLT
	movq	%rax, %rbx
	call	__errno_location@PLT
	movq	%rbx, %rdx
	movl	(%rax), %eax
	popq	%rbx
	.cfi_remember_state
	.cfi_def_cfa_offset 8
	ret
	.p2align 4,,10
	.p2align 3
.L921:
	.cfi_restore_state
	movq	%rbx, %rdi
	call	__cxa_guard_acquire@PLT
	testl	%eax, %eax
	je	.L948
	movq	%rbx, %rdi
	call	__cxa_guard_release@PLT
	movq	_ZZN4asio5error18get_netdb_categoryEvE8instance@GOTPCREL(%rip), %rbx
	movq	_ZN4asio5error6detail14netdb_categoryD1Ev@GOTPCREL(%rip), %rdi
	leaq	__dso_handle(%rip), %rdx
	movq	%rbx, %rsi
	call	__cxa_atexit@PLT
	jmp	.L922
	.p2align 4,,10
	.p2align 3
.L915:
	movq	%rbx, %rdi
	call	__cxa_guard_acquire@PLT
	testl	%eax, %eax
	je	.L946
	movq	%rbx, %rdi
	call	__cxa_guard_release@PLT
	movq	_ZZN4asio5error18get_netdb_categoryEvE8instance@GOTPCREL(%rip), %rbx
	movq	_ZN4asio5error6detail14netdb_categoryD1Ev@GOTPCREL(%rip), %rdi
	leaq	__dso_handle(%rip), %rdx
	movq	%rbx, %rsi
	call	__cxa_atexit@PLT
	jmp	.L916
	.p2align 4,,10
	.p2align 3
.L918:
	movq	%rbx, %rdi
	call	__cxa_guard_acquire@PLT
	testl	%eax, %eax
	je	.L947
	movq	%rbx, %rdi
	call	__cxa_guard_release@PLT
	movq	_ZZN4asio5error18get_netdb_categoryEvE8instance@GOTPCREL(%rip), %rbx
	movq	_ZN4asio5error6detail14netdb_categoryD1Ev@GOTPCREL(%rip), %rdi
	leaq	__dso_handle(%rip), %rdx
	movq	%rbx, %rsi
	call	__cxa_atexit@PLT
	jmp	.L919
	.p2align 4,,10
	.p2align 3
.L927:
	movq	%rbx, %rdi
	call	__cxa_guard_acquire@PLT
	testl	%eax, %eax
	je	.L950
	movq	%rbx, %rdi
	call	__cxa_guard_release@PLT
	movq	_ZZN4asio5error21get_addrinfo_categoryEvE8instance@GOTPCREL(%rip), %rbx
	movq	_ZN4asio5error6detail17addrinfo_categoryD1Ev@GOTPCREL(%rip), %rdi
	leaq	__dso_handle(%rip), %rdx
	movq	%rbx, %rsi
	call	__cxa_atexit@PLT
	jmp	.L928
	.p2align 4,,10
	.p2align 3
.L924:
	movq	%rbx, %rdi
	call	__cxa_guard_acquire@PLT
	testl	%eax, %eax
	je	.L949
	movq	%rbx, %rdi
	call	__cxa_guard_release@PLT
	movq	_ZZN4asio5error21get_addrinfo_categoryEvE8instance@GOTPCREL(%rip), %rbx
	movq	_ZN4asio5error6detail17addrinfo_categoryD1Ev@GOTPCREL(%rip), %rdi
	leaq	__dso_handle(%rip), %rdx
	movq	%rbx, %rsi
	call	__cxa_atexit@PLT
	jmp	.L925
	.cfi_endproc
.LFE3650:
	.size	_ZN4asio6detail10socket_ops24translate_addrinfo_errorEi, .-_ZN4asio6detail10socket_ops24translate_addrinfo_errorEi
	.section	.text._ZN4asio6detail28reactive_socket_service_base16start_connect_opERNS1_24base_implementation_typeEPNS0_10reactor_opEbPK8sockaddrm,"axG",@progbits,_ZN4asio6detail28reactive_socket_service_base16start_connect_opERNS1_24base_implementation_typeEPNS0_10reactor_opEbPK8sockaddrm,comdat
	.align 2
	.p2align 4,,15
	.weak	_ZN4asio6detail28reactive_socket_service_base16start_connect_opERNS1_24base_implementation_typeEPNS0_10reactor_opEbPK8sockaddrm
	.type	_ZN4asio6detail28reactive_socket_service_base16start_connect_opERNS1_24base_implementation_typeEPNS0_10reactor_opEbPK8sockaddrm, @function
_ZN4asio6detail28reactive_socket_service_base16start_connect_opERNS1_24base_implementation_typeEPNS0_10reactor_opEbPK8sockaddrm:
.LFB3758:
	.cfi_startproc
	pushq	%r15
	.cfi_def_cfa_offset 16
	.cfi_offset 15, -16
	pushq	%r14
	.cfi_def_cfa_offset 24
	.cfi_offset 14, -24
	movq	%r9, %r15
	pushq	%r13
	.cfi_def_cfa_offset 32
	.cfi_offset 13, -32
	pushq	%r12
	.cfi_def_cfa_offset 40
	.cfi_offset 12, -40
	movq	%rdi, %r13
	pushq	%rbp
	.cfi_def_cfa_offset 48
	.cfi_offset 6, -48
	pushq	%rbx
	.cfi_def_cfa_offset 56
	.cfi_offset 3, -56
	movq	%rsi, %rbp
	movq	%rdx, %rbx
	movl	%ecx, %r12d
	movq	%r8, %r14
	subq	$56, %rsp
	.cfi_def_cfa_offset 112
	movl	(%rsi), %edi
	movq	%fs:40, %rax
	movq	%rax, 40(%rsp)
	xorl	%eax, %eax
	testb	$3, 4(%rsi)
	jne	.L952
	cmpl	$-1, %edi
	je	.L971
	movl	%edi, (%rsp)
	call	__errno_location@PLT
	movl	(%rsp), %edi
	leaq	28(%rsp), %rdx
	movl	$0, (%rax)
	movq	%rax, 8(%rsp)
	movl	$21537, %esi
	xorl	%eax, %eax
	movl	$1, 28(%rsp)
	call	ioctl@PLT
	movl	%eax, (%rsp)
	call	_ZN4asio15system_categoryEv@PLT
	movq	8(%rsp), %rcx
	movl	(%rsp), %edx
	movl	(%rcx), %ecx
	testl	%edx, %edx
	movq	%rax, 32(%rbx)
	movl	%ecx, 24(%rbx)
	js	.L954
	call	_ZNSt3_V215system_categoryEv@PLT
	movl	$0, 24(%rbx)
	movq	%rax, 32(%rbx)
	orb	$2, 4(%rbp)
	movl	0(%rbp), %edi
.L952:
	cmpl	$-1, %edi
	je	.L972
	movl	%edi, 8(%rsp)
	call	__errno_location@PLT
	movl	8(%rsp), %edi
	movl	%r15d, %edx
	movq	%r14, %rsi
	movl	$0, (%rax)
	movq	%rax, (%rsp)
	call	connect@PLT
	movl	%eax, %r14d
	call	_ZN4asio15system_categoryEv@PLT
	movq	(%rsp), %rcx
	testl	%r14d, %r14d
	movl	(%rcx), %edx
	movq	%rax, 32(%rbx)
	movl	%edx, 24(%rbx)
	jne	.L958
	call	_ZNSt3_V215system_categoryEv@PLT
	movl	$0, 24(%rbx)
	movq	%rax, 32(%rbx)
.L954:
	movq	0(%r13), %rax
	movzbl	%r12b, %edx
	movq	%rbx, %rsi
	movq	40(%rax), %rdi
	call	_ZN4asio6detail15task_io_service25post_immediate_completionEPNS0_25task_io_service_operationEb@PLT
.L951:
	movq	40(%rsp), %rax
	xorq	%fs:40, %rax
	jne	.L973
	addq	$56, %rsp
	.cfi_remember_state
	.cfi_def_cfa_offset 56
	popq	%rbx
	.cfi_def_cfa_offset 48
	popq	%rbp
	.cfi_def_cfa_offset 40
	popq	%r12
	.cfi_def_cfa_offset 32
	popq	%r13
	.cfi_def_cfa_offset 24
	popq	%r14
	.cfi_def_cfa_offset 16
	popq	%r15
	.cfi_def_cfa_offset 8
	ret
	.p2align 4,,10
	.p2align 3
.L958:
	.cfi_restore_state
	call	_ZN4asio15system_categoryEv@PLT
	cmpq	32(%rbx), %rax
	je	.L974
.L957:
	call	_ZN4asio15system_categoryEv@PLT
	cmpq	%rax, 32(%rbx)
	je	.L975
.L959:
	call	_ZN4asio15system_categoryEv@PLT
	cmpq	%rax, 32(%rbx)
	jne	.L954
	cmpl	$11, 24(%rbx)
	jne	.L954
.L962:
	call	_ZNSt3_V215system_categoryEv@PLT
	movq	0(%r13), %r14
	movq	8(%rbp), %r13
	movzbl	%r12b, %r12d
	movl	$0, 24(%rbx)
	movq	%rax, 32(%rbx)
	testq	%r13, %r13
	je	.L976
	addq	$40, %r13
	movl	0(%rbp), %r15d
	movq	%r13, %rdi
	call	pthread_mutex_lock@PLT
	movq	8(%rbp), %rax
	cmpb	$0, 144(%rax)
	jne	.L977
	cmpq	$0, 112(%rax)
	je	.L978
.L965:
	movq	120(%rax), %rdx
	movq	$0, (%rbx)
	testq	%rdx, %rdx
	je	.L966
	movq	%rbx, (%rdx)
	movq	%rbx, 120(%rax)
.L967:
	movq	40(%r14), %rax
	lock addq	$1, 184(%rax)
	movq	%r13, %rdi
	call	pthread_mutex_unlock@PLT
	jmp	.L951
	.p2align 4,,10
	.p2align 3
.L975:
	cmpl	$115, 24(%rbx)
	jne	.L959
	jmp	.L962
	.p2align 4,,10
	.p2align 3
.L974:
	cmpl	$11, 24(%rbx)
	jne	.L957
	call	_ZN4asio15system_categoryEv@PLT
	movl	$105, 24(%rbx)
	movq	%rax, 32(%rbx)
	jmp	.L957
	.p2align 4,,10
	.p2align 3
.L971:
	call	_ZN4asio15system_categoryEv@PLT
	movl	$9, 24(%rbx)
	movq	%rax, 32(%rbx)
	jmp	.L954
	.p2align 4,,10
	.p2align 3
.L976:
	call	_ZN4asio15system_categoryEv@PLT
	movl	$9, 24(%rbx)
	movq	%rax, 32(%rbx)
	movl	%r12d, %edx
	movq	40(%r14), %rdi
	movq	%rbx, %rsi
	call	_ZN4asio6detail15task_io_service25post_immediate_completionEPNS0_25task_io_service_operationEb@PLT
	jmp	.L951
	.p2align 4,,10
	.p2align 3
.L977:
	movq	40(%r14), %rdi
	movl	%r12d, %edx
	movq	%rbx, %rsi
	call	_ZN4asio6detail15task_io_service25post_immediate_completionEPNS0_25task_io_service_operationEb@PLT
	movq	%r13, %rdi
	call	pthread_mutex_unlock@PLT
	jmp	.L951
.L972:
	call	_ZN4asio15system_categoryEv@PLT
	movl	$9, 24(%rbx)
	movq	%rax, 32(%rbx)
	jmp	.L957
.L966:
	movq	%rbx, 120(%rax)
	movq	%rbx, 112(%rax)
	jmp	.L967
.L978:
	orl	$4, 92(%rax)
	leaq	28(%rsp), %rcx
	movl	$3, %esi
	movq	8(%rbp), %rax
	movl	92(%rax), %edx
	movq	%rax, 32(%rsp)
	movl	%edx, 28(%rsp)
	movl	96(%r14), %edi
	movl	%r15d, %edx
	call	epoll_ctl@PLT
	movq	8(%rbp), %rax
	jmp	.L965
.L973:
	call	__stack_chk_fail@PLT
	.cfi_endproc
.LFE3758:
	.size	_ZN4asio6detail28reactive_socket_service_base16start_connect_opERNS1_24base_implementation_typeEPNS0_10reactor_opEbPK8sockaddrm, .-_ZN4asio6detail28reactive_socket_service_base16start_connect_opERNS1_24base_implementation_typeEPNS0_10reactor_opEbPK8sockaddrm
	.section	.text._ZN4asio2ip7address11from_stringEPKcRSt10error_code,"axG",@progbits,_ZN4asio2ip7address11from_stringEPKcRSt10error_code,comdat
	.align 2
	.p2align 4,,15
	.weak	_ZN4asio2ip7address11from_stringEPKcRSt10error_code
	.type	_ZN4asio2ip7address11from_stringEPKcRSt10error_code, @function
_ZN4asio2ip7address11from_stringEPKcRSt10error_code:
.LFB5749:
	.cfi_startproc
	pushq	%r15
	.cfi_def_cfa_offset 16
	.cfi_offset 15, -16
	pxor	%xmm0, %xmm0
	pushq	%r14
	.cfi_def_cfa_offset 24
	.cfi_offset 14, -24
	pushq	%r13
	.cfi_def_cfa_offset 32
	.cfi_offset 13, -32
	pushq	%r12
	.cfi_def_cfa_offset 40
	.cfi_offset 12, -40
	pushq	%rbp
	.cfi_def_cfa_offset 48
	.cfi_offset 6, -48
	movq	%rsi, %r12
	pushq	%rbx
	.cfi_def_cfa_offset 56
	.cfi_offset 3, -56
	movq	%rdx, %rbp
	movq	%rdi, %rbx
	subq	$168, %rsp
	.cfi_def_cfa_offset 224
	movq	%fs:40, %rax
	movq	%rax, 152(%rsp)
	xorl	%eax, %eax
	movaps	%xmm0, 48(%rsp)
	movq	$0, 64(%rsp)
	call	__errno_location@PLT
	movl	$37, %esi
	movq	%r12, %rdi
	movq	%rax, %r13
	movl	$0, (%rax)
	call	strchr@PLT
	testq	%rax, %rax
	je	.L980
	movq	%rax, %r15
	movq	%rax, %r14
	subq	%r12, %r15
	cmpq	$63, %r15
	jg	.L1012
	leaq	80(%rsp), %r8
	movl	$64, %ecx
	movq	%r15, %rdx
	movq	%r12, %rsi
	movq	%r8, %rdi
	call	__memcpy_chk@PLT
	leaq	48(%rsp), %rdx
	movq	%rax, %rsi
	movl	$10, %edi
	movb	$0, 80(%rsp,%r15)
	call	inet_pton@PLT
	movl	%eax, %r15d
	call	_ZN4asio15system_categoryEv@PLT
	movl	0(%r13), %edx
	testl	%r15d, %r15d
	movq	%rax, 8(%rbp)
	movl	%edx, 0(%rbp)
	jle	.L995
	movzbl	48(%rsp), %eax
	movq	$0, 64(%rsp)
	cmpb	$-2, %al
	je	.L1013
	cmpb	$-1, %al
	jne	.L1011
	movzbl	49(%rsp), %eax
	leaq	1(%r14), %r15
	andl	$15, %eax
	cmpb	$2, %al
	je	.L985
.L987:
	movl	$10, %edx
	xorl	%esi, %esi
	movq	%r15, %rdi
	call	strtol@PLT
	movl	0(%rbp), %edx
	cltq
.L986:
	movdqa	48(%rsp), %xmm0
	testl	%edx, %edx
	movaps	%xmm0, 16(%rsp)
	jne	.L982
	movups	%xmm0, 56(%rsp)
	movups	%xmm0, 8(%rbx)
	movl	$1, (%rbx)
	movl	$0, 4(%rbx)
	movq	%rax, 24(%rbx)
.L979:
	movq	152(%rsp), %rcx
	xorq	%fs:40, %rcx
	movq	%rbx, %rax
	jne	.L1014
	addq	$168, %rsp
	.cfi_remember_state
	.cfi_def_cfa_offset 56
	popq	%rbx
	.cfi_def_cfa_offset 48
	popq	%rbp
	.cfi_def_cfa_offset 40
	popq	%r12
	.cfi_def_cfa_offset 32
	popq	%r13
	.cfi_def_cfa_offset 24
	popq	%r14
	.cfi_def_cfa_offset 16
	popq	%r15
	.cfi_def_cfa_offset 8
	ret
	.p2align 4,,10
	.p2align 3
.L980:
	.cfi_restore_state
	leaq	48(%rsp), %rdx
	movq	%r12, %rsi
	movl	$10, %edi
	call	inet_pton@PLT
	movl	%eax, %r14d
	call	_ZN4asio15system_categoryEv@PLT
	movl	0(%r13), %edx
	movq	%rax, 8(%rbp)
	xorl	%eax, %eax
	testl	%r14d, %r14d
	movl	%edx, 0(%rbp)
	jg	.L986
.L995:
	testl	%edx, %edx
	jne	.L982
.L1012:
	call	_ZN4asio15system_categoryEv@PLT
	movl	$22, 0(%rbp)
	movq	%rax, 8(%rbp)
.L982:
	leaq	12(%rsp), %rdx
	movq	%r12, %rsi
	movl	$2, %edi
	movl	$0, 0(%r13)
	movl	$0, 12(%rsp)
	call	inet_pton@PLT
	movl	%eax, %r12d
	call	_ZN4asio15system_categoryEv@PLT
	movl	0(%r13), %edx
	testl	%r12d, %r12d
	movq	%rax, 8(%rbp)
	movl	%edx, 0(%rbp)
	jle	.L1015
	testl	%edx, %edx
	movl	12(%rsp), %eax
	jne	.L992
	pxor	%xmm0, %xmm0
	movl	$0, (%rbx)
	movl	%eax, 4(%rbx)
	movq	$0, 24(%rbx)
	movups	%xmm0, 56(%rsp)
	movups	%xmm0, 8(%rbx)
	jmp	.L979
	.p2align 4,,10
	.p2align 3
.L1013:
	movzbl	49(%rsp), %eax
	andl	$-64, %eax
	cmpb	$-128, %al
	je	.L985
.L1011:
	leaq	1(%r14), %r15
	jmp	.L987
	.p2align 4,,10
	.p2align 3
.L1015:
	testl	%edx, %edx
	jne	.L992
	call	_ZN4asio15system_categoryEv@PLT
	movl	$22, 0(%rbp)
	movq	%rax, 8(%rbp)
.L992:
	pxor	%xmm0, %xmm0
	movl	$0, (%rbx)
	movl	$0, 4(%rbx)
	movq	$0, 24(%rbx)
	movups	%xmm0, 8(%rbx)
	jmp	.L979
	.p2align 4,,10
	.p2align 3
.L985:
	leaq	1(%r14), %r15
	movq	%r15, %rdi
	call	if_nametoindex@PLT
	movl	%eax, %eax
	testq	%rax, %rax
	movq	%rax, 64(%rsp)
	je	.L987
	movl	0(%rbp), %edx
	jmp	.L986
.L1014:
	call	__stack_chk_fail@PLT
	.cfi_endproc
.LFE5749:
	.size	_ZN4asio2ip7address11from_stringEPKcRSt10error_code, .-_ZN4asio2ip7address11from_stringEPKcRSt10error_code
	.section	.text._ZN4asio2ip6detail8endpointC2Eit,"axG",@progbits,_ZN4asio2ip6detail8endpointC5Eit,comdat
	.align 2
	.p2align 4,,15
	.weak	_ZN4asio2ip6detail8endpointC2Eit
	.type	_ZN4asio2ip6detail8endpointC2Eit, @function
_ZN4asio2ip6detail8endpointC2Eit:
.LFB5822:
	.cfi_startproc
	pxor	%xmm0, %xmm0
	cmpl	$2, %esi
	movq	$0, 16(%rdi)
	movl	$0, 24(%rdi)
	movups	%xmm0, (%rdi)
	je	.L1019
	movl	$10, %eax
#APP
# 3427 "/home/raihan/OpenPLC_v3/utils/dnp3_src/deps/asio/asio/include/asio/detail/impl/socket_ops.ipp" 1
	rorw $8, %dx
# 0 "" 2
#NO_APP
	movw	%ax, (%rdi)
	movw	%dx, 2(%rdi)
	ret
	.p2align 4,,10
	.p2align 3
.L1019:
	movl	$2, %ecx
#APP
# 3427 "/home/raihan/OpenPLC_v3/utils/dnp3_src/deps/asio/asio/include/asio/detail/impl/socket_ops.ipp" 1
	rorw $8, %dx
# 0 "" 2
#NO_APP
	movw	%cx, (%rdi)
	movw	%dx, 2(%rdi)
	ret
	.cfi_endproc
.LFE5822:
	.size	_ZN4asio2ip6detail8endpointC2Eit, .-_ZN4asio2ip6detail8endpointC2Eit
	.weak	_ZN4asio2ip6detail8endpointC1Eit
	.set	_ZN4asio2ip6detail8endpointC1Eit,_ZN4asio2ip6detail8endpointC2Eit
	.section	.text._ZN4asio2ip6detail8endpointC2ERKNS0_7addressEt,"axG",@progbits,_ZN4asio2ip6detail8endpointC5ERKNS0_7addressEt,comdat
	.align 2
	.p2align 4,,15
	.weak	_ZN4asio2ip6detail8endpointC2ERKNS0_7addressEt
	.type	_ZN4asio2ip6detail8endpointC2ERKNS0_7addressEt, @function
_ZN4asio2ip6detail8endpointC2ERKNS0_7addressEt:
.LFB5825:
	.cfi_startproc
	.cfi_personality 0x9b,DW.ref.__gxx_personality_v0
	.cfi_lsda 0x1b,.LLSDA5825
	pxor	%xmm0, %xmm0
	pushq	%rbx
	.cfi_def_cfa_offset 16
	.cfi_offset 3, -16
	subq	$16, %rsp
	.cfi_def_cfa_offset 32
	movq	$0, 16(%rdi)
	movl	$0, 24(%rdi)
	movups	%xmm0, (%rdi)
	movl	(%rsi), %r9d
	movq	%fs:40, %rax
	movq	%rax, 8(%rsp)
	xorl	%eax, %eax
	testl	%r9d, %r9d
	jne	.L1021
	movl	$2, %ecx
#APP
# 3427 "/home/raihan/OpenPLC_v3/utils/dnp3_src/deps/asio/asio/include/asio/detail/impl/socket_ops.ipp" 1
	rorw $8, %dx
# 0 "" 2
#NO_APP
	movw	%cx, (%rdi)
	movw	%dx, 2(%rdi)
	movl	(%rsi), %r8d
	testl	%r8d, %r8d
	jne	.L1032
	movl	4(%rsi), %eax
	movl	%eax, 4(%rdi)
	jmp	.L1020
	.p2align 4,,10
	.p2align 3
.L1021:
	movl	$10, %eax
#APP
# 3427 "/home/raihan/OpenPLC_v3/utils/dnp3_src/deps/asio/asio/include/asio/detail/impl/socket_ops.ipp" 1
	rorw $8, %dx
# 0 "" 2
#NO_APP
	movw	%ax, (%rdi)
	movw	%dx, 2(%rdi)
	cmpl	$1, (%rsi)
	jne	.L1033
	movdqu	8(%rsi), %xmm0
	movq	24(%rsi), %rax
	movups	%xmm0, 8(%rdi)
	movl	%eax, 24(%rdi)
.L1020:
	movq	8(%rsp), %rax
	xorq	%fs:40, %rax
	jne	.L1034
	addq	$16, %rsp
	.cfi_remember_state
	.cfi_def_cfa_offset 16
	popq	%rbx
	.cfi_def_cfa_offset 8
	ret
.L1033:
	.cfi_restore_state
	movq	_ZTVSt8bad_cast@GOTPCREL(%rip), %rax
	addq	$16, %rax
	movq	%rax, (%rsp)
.LEHB16:
	call	_ZN4asio6detail15throw_exceptionISt8bad_castEEvRKT_.isra.96
.LEHE16:
.L1032:
	movq	_ZTVSt8bad_cast@GOTPCREL(%rip), %rax
	addq	$16, %rax
	movq	%rax, (%rsp)
.LEHB17:
	call	_ZN4asio6detail15throw_exceptionISt8bad_castEEvRKT_.isra.96
.LEHE17:
.L1028:
.L1031:
	movq	%rax, %rbx
	movq	%rsp, %rdi
	call	_ZNSt8bad_castD1Ev@PLT
	movq	%rbx, %rdi
.LEHB18:
	call	_Unwind_Resume@PLT
.LEHE18:
.L1029:
	jmp	.L1031
.L1034:
	call	__stack_chk_fail@PLT
	.cfi_endproc
.LFE5825:
	.section	.gcc_except_table._ZN4asio2ip6detail8endpointC2ERKNS0_7addressEt,"aG",@progbits,_ZN4asio2ip6detail8endpointC5ERKNS0_7addressEt,comdat
.LLSDA5825:
	.byte	0xff
	.byte	0xff
	.byte	0x1
	.uleb128 .LLSDACSE5825-.LLSDACSB5825
.LLSDACSB5825:
	.uleb128 .LEHB16-.LFB5825
	.uleb128 .LEHE16-.LEHB16
	.uleb128 .L1029-.LFB5825
	.uleb128 0
	.uleb128 .LEHB17-.LFB5825
	.uleb128 .LEHE17-.LEHB17
	.uleb128 .L1028-.LFB5825
	.uleb128 0
	.uleb128 .LEHB18-.LFB5825
	.uleb128 .LEHE18-.LEHB18
	.uleb128 0
	.uleb128 0
.LLSDACSE5825:
	.section	.text._ZN4asio2ip6detail8endpointC2ERKNS0_7addressEt,"axG",@progbits,_ZN4asio2ip6detail8endpointC5ERKNS0_7addressEt,comdat
	.size	_ZN4asio2ip6detail8endpointC2ERKNS0_7addressEt, .-_ZN4asio2ip6detail8endpointC2ERKNS0_7addressEt
	.weak	_ZN4asio2ip6detail8endpointC1ERKNS0_7addressEt
	.set	_ZN4asio2ip6detail8endpointC1ERKNS0_7addressEt,_ZN4asio2ip6detail8endpointC2ERKNS0_7addressEt
	.section	.text._ZN4asio2ip6detail8endpoint7addressERKNS0_7addressE,"axG",@progbits,_ZN4asio2ip6detail8endpoint7addressERKNS0_7addressE,comdat
	.align 2
	.p2align 4,,15
	.weak	_ZN4asio2ip6detail8endpoint7addressERKNS0_7addressE
	.type	_ZN4asio2ip6detail8endpoint7addressERKNS0_7addressE, @function
_ZN4asio2ip6detail8endpoint7addressERKNS0_7addressE:
.LFB5831:
	.cfi_startproc
	pushq	%rbx
	.cfi_def_cfa_offset 16
	.cfi_offset 3, -16
	movq	%rdi, %rbx
	subq	$48, %rsp
	.cfi_def_cfa_offset 64
	movzwl	2(%rdi), %edx
	movq	%rsp, %rdi
#APP
# 3414 "/home/raihan/OpenPLC_v3/utils/dnp3_src/deps/asio/asio/include/asio/detail/impl/socket_ops.ipp" 1
	rorw $8, %dx
# 0 "" 2
#NO_APP
	movzwl	%dx, %edx
	movq	%fs:40, %rax
	movq	%rax, 40(%rsp)
	xorl	%eax, %eax
	call	_ZN4asio2ip6detail8endpointC1ERKNS0_7addressEt@PLT
	movq	16(%rsp), %rax
	movdqa	(%rsp), %xmm0
	movq	%rax, 16(%rbx)
	movl	24(%rsp), %eax
	movups	%xmm0, (%rbx)
	movl	%eax, 24(%rbx)
	movq	40(%rsp), %rax
	xorq	%fs:40, %rax
	jne	.L1040
	addq	$48, %rsp
	.cfi_remember_state
	.cfi_def_cfa_offset 16
	popq	%rbx
	.cfi_def_cfa_offset 8
	ret
.L1040:
	.cfi_restore_state
	call	__stack_chk_fail@PLT
	.cfi_endproc
.LFE5831:
	.size	_ZN4asio2ip6detail8endpoint7addressERKNS0_7addressE, .-_ZN4asio2ip6detail8endpoint7addressERKNS0_7addressE
	.section	.text._ZN4asio6detail14strand_service16on_dispatch_exitD2Ev,"axG",@progbits,_ZN4asio6detail14strand_service16on_dispatch_exitD5Ev,comdat
	.align 2
	.p2align 4,,15
	.weak	_ZN4asio6detail14strand_service16on_dispatch_exitD2Ev
	.type	_ZN4asio6detail14strand_service16on_dispatch_exitD2Ev, @function
_ZN4asio6detail14strand_service16on_dispatch_exitD2Ev:
.LFB6293:
	.cfi_startproc
	pushq	%rbp
	.cfi_def_cfa_offset 16
	.cfi_offset 6, -16
	pushq	%rbx
	.cfi_def_cfa_offset 24
	.cfi_offset 3, -24
	movq	%rdi, %rbp
	subq	$8, %rsp
	.cfi_def_cfa_offset 32
	movq	8(%rdi), %rax
	leaq	24(%rax), %rdi
	call	pthread_mutex_lock@PLT
	movq	8(%rbp), %rax
	movq	72(%rax), %rbx
	testq	%rbx, %rbx
	je	.L1048
	movq	96(%rax), %rdx
	testq	%rdx, %rdx
	je	.L1044
	movq	%rbx, (%rdx)
	movq	88(%rax), %rbx
.L1045:
	movq	80(%rax), %rdx
	movq	$0, 72(%rax)
	movq	$0, 80(%rax)
	movq	%rdx, 96(%rax)
.L1043:
	testq	%rbx, %rbx
	setne	64(%rax)
	movq	8(%rbp), %rax
	leaq	24(%rax), %rdi
	call	pthread_mutex_unlock@PLT
	testq	%rbx, %rbx
	jne	.L1049
	addq	$8, %rsp
	.cfi_remember_state
	.cfi_def_cfa_offset 24
	popq	%rbx
	.cfi_def_cfa_offset 16
	popq	%rbp
	.cfi_def_cfa_offset 8
	ret
	.p2align 4,,10
	.p2align 3
.L1044:
	.cfi_restore_state
	movq	%rbx, 88(%rax)
	jmp	.L1045
	.p2align 4,,10
	.p2align 3
.L1049:
	movq	8(%rbp), %rsi
	movq	0(%rbp), %rdi
	addq	$8, %rsp
	.cfi_remember_state
	.cfi_def_cfa_offset 24
	popq	%rbx
	.cfi_def_cfa_offset 16
	popq	%rbp
	.cfi_def_cfa_offset 8
	xorl	%edx, %edx
	jmp	_ZN4asio6detail15task_io_service25post_immediate_completionEPNS0_25task_io_service_operationEb@PLT
	.p2align 4,,10
	.p2align 3
.L1048:
	.cfi_restore_state
	movq	88(%rax), %rbx
	jmp	.L1043
	.cfi_endproc
.LFE6293:
	.size	_ZN4asio6detail14strand_service16on_dispatch_exitD2Ev, .-_ZN4asio6detail14strand_service16on_dispatch_exitD2Ev
	.weak	_ZN4asio6detail14strand_service16on_dispatch_exitD1Ev
	.set	_ZN4asio6detail14strand_service16on_dispatch_exitD1Ev,_ZN4asio6detail14strand_service16on_dispatch_exitD2Ev
	.section	.text._ZN4asio6detail14strand_service11do_dispatchERPNS1_11strand_implEPNS0_25task_io_service_operationE,"axG",@progbits,_ZN4asio6detail14strand_service11do_dispatchERPNS1_11strand_implEPNS0_25task_io_service_operationE,comdat
	.align 2
	.p2align 4,,15
	.weak	_ZN4asio6detail14strand_service11do_dispatchERPNS1_11strand_implEPNS0_25task_io_service_operationE
	.type	_ZN4asio6detail14strand_service11do_dispatchERPNS1_11strand_implEPNS0_25task_io_service_operationE, @function
_ZN4asio6detail14strand_service11do_dispatchERPNS1_11strand_implEPNS0_25task_io_service_operationE:
.LFB6310:
	.cfi_startproc
	pushq	%r13
	.cfi_def_cfa_offset 16
	.cfi_offset 13, -16
	pushq	%r12
	.cfi_def_cfa_offset 24
	.cfi_offset 12, -24
	movq	%rdi, %r13
	pushq	%rbp
	.cfi_def_cfa_offset 32
	.cfi_offset 6, -32
	pushq	%rbx
	.cfi_def_cfa_offset 40
	.cfi_offset 3, -40
	movq	%rsi, %rbp
	movq	%rdx, %r12
	subq	$8, %rsp
	.cfi_def_cfa_offset 48
	movq	40(%rdi), %rbx
	.byte	0x66
	leaq	_ZN4asio6detail15keyword_tss_ptrINS0_10call_stackINS0_15task_io_serviceENS0_27task_io_service_thread_infoEE7contextEE6value_E@tlsgd(%rip), %rdi
	.value	0x6666
	rex64
	call	__tls_get_addr@PLT
	movq	(%rax), %rax
	testq	%rax, %rax
	jne	.L1071
	jmp	.L1051
	.p2align 4,,10
	.p2align 3
.L1053:
	movq	16(%rax), %rax
	testq	%rax, %rax
	je	.L1051
.L1071:
	cmpq	(%rax), %rbx
	jne	.L1053
	movq	8(%rax), %rbx
	movq	0(%rbp), %rax
	leaq	24(%rax), %rdi
	call	pthread_mutex_lock@PLT
	testq	%rbx, %rbx
	je	.L1055
	movq	0(%rbp), %rdi
	cmpb	$0, 64(%rdi)
	jne	.L1057
	movb	$1, 64(%rdi)
	movq	0(%rbp), %rdi
	movl	$1, %ebx
	addq	$24, %rdi
	call	pthread_mutex_unlock@PLT
	addq	$8, %rsp
	.cfi_remember_state
	.cfi_def_cfa_offset 40
	movl	%ebx, %eax
	popq	%rbx
	.cfi_def_cfa_offset 32
	popq	%rbp
	.cfi_def_cfa_offset 24
	popq	%r12
	.cfi_def_cfa_offset 16
	popq	%r13
	.cfi_def_cfa_offset 8
	ret
	.p2align 4,,10
	.p2align 3
.L1051:
	.cfi_restore_state
	movq	0(%rbp), %rax
	leaq	24(%rax), %rdi
	call	pthread_mutex_lock@PLT
.L1055:
	movq	0(%rbp), %rdi
	movzbl	64(%rdi), %ebx
	testb	%bl, %bl
	jne	.L1057
	movb	$1, 64(%rdi)
	movq	0(%rbp), %rax
	leaq	24(%rax), %rdi
	call	pthread_mutex_unlock@PLT
	movq	0(%rbp), %rsi
	movq	$0, (%r12)
	cmpq	$0, 96(%rsi)
	je	.L1062
	movq	96(%rsi), %rax
	movq	%r12, (%rax)
	movq	%r12, 96(%rsi)
.L1063:
	movq	40(%r13), %rdi
	xorl	%edx, %edx
	call	_ZN4asio6detail15task_io_service25post_immediate_completionEPNS0_25task_io_service_operationEb@PLT
	addq	$8, %rsp
	.cfi_remember_state
	.cfi_def_cfa_offset 40
	movl	%ebx, %eax
	popq	%rbx
	.cfi_def_cfa_offset 32
	popq	%rbp
	.cfi_def_cfa_offset 24
	popq	%r12
	.cfi_def_cfa_offset 16
	popq	%r13
	.cfi_def_cfa_offset 8
	ret
	.p2align 4,,10
	.p2align 3
.L1057:
	.cfi_restore_state
	cmpq	$0, 80(%rdi)
	movq	$0, (%r12)
	je	.L1060
	movq	80(%rdi), %rax
	movq	%r12, (%rax)
	movq	%r12, 80(%rdi)
.L1061:
	addq	$24, %rdi
	xorl	%ebx, %ebx
	call	pthread_mutex_unlock@PLT
	addq	$8, %rsp
	.cfi_remember_state
	.cfi_def_cfa_offset 40
	movl	%ebx, %eax
	popq	%rbx
	.cfi_def_cfa_offset 32
	popq	%rbp
	.cfi_def_cfa_offset 24
	popq	%r12
	.cfi_def_cfa_offset 16
	popq	%r13
	.cfi_def_cfa_offset 8
	ret
	.p2align 4,,10
	.p2align 3
.L1060:
	.cfi_restore_state
	movq	%r12, 80(%rdi)
	movq	%r12, 72(%rdi)
	jmp	.L1061
	.p2align 4,,10
	.p2align 3
.L1062:
	movq	%r12, 96(%rsi)
	movq	%r12, 88(%rsi)
	jmp	.L1063
	.cfi_endproc
.LFE6310:
	.size	_ZN4asio6detail14strand_service11do_dispatchERPNS1_11strand_implEPNS0_25task_io_service_operationE, .-_ZN4asio6detail14strand_service11do_dispatchERPNS1_11strand_implEPNS0_25task_io_service_operationE
	.section	.text._ZNSt12__shared_ptrIN7asiopal9TCPClientELN9__gnu_cxx12_Lock_policyE2EEC2ERKS4_,"axG",@progbits,_ZNSt12__shared_ptrIN7asiopal9TCPClientELN9__gnu_cxx12_Lock_policyE2EEC5ERKS4_,comdat
	.align 2
	.p2align 4,,15
	.weak	_ZNSt12__shared_ptrIN7asiopal9TCPClientELN9__gnu_cxx12_Lock_policyE2EEC2ERKS4_
	.type	_ZNSt12__shared_ptrIN7asiopal9TCPClientELN9__gnu_cxx12_Lock_policyE2EEC2ERKS4_, @function
_ZNSt12__shared_ptrIN7asiopal9TCPClientELN9__gnu_cxx12_Lock_policyE2EEC2ERKS4_:
.LFB6903:
	.cfi_startproc
	movq	(%rsi), %rax
	movq	%rax, (%rdi)
	movq	8(%rsi), %rax
	testq	%rax, %rax
	movq	%rax, 8(%rdi)
	je	.L1074
	cmpq	$0, _ZL28__gthrw___pthread_key_createPjPFvPvE@GOTPCREL(%rip)
	jne	.L1080
	addl	$1, 8(%rax)
.L1074:
	rep ret
	.p2align 4,,10
	.p2align 3
.L1080:
	lock addl	$1, 8(%rax)
	ret
	.cfi_endproc
.LFE6903:
	.size	_ZNSt12__shared_ptrIN7asiopal9TCPClientELN9__gnu_cxx12_Lock_policyE2EEC2ERKS4_, .-_ZNSt12__shared_ptrIN7asiopal9TCPClientELN9__gnu_cxx12_Lock_policyE2EEC2ERKS4_
	.weak	_ZNSt12__shared_ptrIN7asiopal9TCPClientELN9__gnu_cxx12_Lock_policyE2EEC1ERKS4_
	.set	_ZNSt12__shared_ptrIN7asiopal9TCPClientELN9__gnu_cxx12_Lock_policyE2EEC1ERKS4_,_ZNSt12__shared_ptrIN7asiopal9TCPClientELN9__gnu_cxx12_Lock_policyE2EEC2ERKS4_
	.section	.text._ZN4asio2ip20basic_resolver_queryINS0_3tcpEED2Ev,"axG",@progbits,_ZN4asio2ip20basic_resolver_queryINS0_3tcpEED5Ev,comdat
	.align 2
	.p2align 4,,15
	.weak	_ZN4asio2ip20basic_resolver_queryINS0_3tcpEED2Ev
	.type	_ZN4asio2ip20basic_resolver_queryINS0_3tcpEED2Ev, @function
_ZN4asio2ip20basic_resolver_queryINS0_3tcpEED2Ev:
.LFB6917:
	.cfi_startproc
	pushq	%rbx
	.cfi_def_cfa_offset 16
	.cfi_offset 3, -16
	movq	%rdi, %rbx
	movq	80(%rdi), %rdi
	leaq	96(%rbx), %rax
	cmpq	%rax, %rdi
	je	.L1082
	call	_ZdlPv@PLT
.L1082:
	movq	48(%rbx), %rdi
	addq	$64, %rbx
	cmpq	%rbx, %rdi
	je	.L1081
	popq	%rbx
	.cfi_remember_state
	.cfi_def_cfa_offset 8
	jmp	_ZdlPv@PLT
	.p2align 4,,10
	.p2align 3
.L1081:
	.cfi_restore_state
	popq	%rbx
	.cfi_def_cfa_offset 8
	ret
	.cfi_endproc
.LFE6917:
	.size	_ZN4asio2ip20basic_resolver_queryINS0_3tcpEED2Ev, .-_ZN4asio2ip20basic_resolver_queryINS0_3tcpEED2Ev
	.weak	_ZN4asio2ip20basic_resolver_queryINS0_3tcpEED1Ev
	.set	_ZN4asio2ip20basic_resolver_queryINS0_3tcpEED1Ev,_ZN4asio2ip20basic_resolver_queryINS0_3tcpEED2Ev
	.section	.text._ZNSt12__shared_ptrISt6vectorIN4asio2ip20basic_resolver_entryINS2_3tcpEEESaIS5_EELN9__gnu_cxx12_Lock_policyE2EEC2ERKSA_,"axG",@progbits,_ZNSt12__shared_ptrISt6vectorIN4asio2ip20basic_resolver_entryINS2_3tcpEEESaIS5_EELN9__gnu_cxx12_Lock_policyE2EEC5ERKSA_,comdat
	.align 2
	.p2align 4,,15
	.weak	_ZNSt12__shared_ptrISt6vectorIN4asio2ip20basic_resolver_entryINS2_3tcpEEESaIS5_EELN9__gnu_cxx12_Lock_policyE2EEC2ERKSA_
	.type	_ZNSt12__shared_ptrISt6vectorIN4asio2ip20basic_resolver_entryINS2_3tcpEEESaIS5_EELN9__gnu_cxx12_Lock_policyE2EEC2ERKSA_, @function
_ZNSt12__shared_ptrISt6vectorIN4asio2ip20basic_resolver_entryINS2_3tcpEEESaIS5_EELN9__gnu_cxx12_Lock_policyE2EEC2ERKSA_:
.LFB6955:
	.cfi_startproc
	movq	(%rsi), %rax
	movq	%rax, (%rdi)
	movq	8(%rsi), %rax
	testq	%rax, %rax
	movq	%rax, 8(%rdi)
	je	.L1085
	cmpq	$0, _ZL28__gthrw___pthread_key_createPjPFvPvE@GOTPCREL(%rip)
	jne	.L1091
	addl	$1, 8(%rax)
.L1085:
	rep ret
	.p2align 4,,10
	.p2align 3
.L1091:
	lock addl	$1, 8(%rax)
	ret
	.cfi_endproc
.LFE6955:
	.size	_ZNSt12__shared_ptrISt6vectorIN4asio2ip20basic_resolver_entryINS2_3tcpEEESaIS5_EELN9__gnu_cxx12_Lock_policyE2EEC2ERKSA_, .-_ZNSt12__shared_ptrISt6vectorIN4asio2ip20basic_resolver_entryINS2_3tcpEEESaIS5_EELN9__gnu_cxx12_Lock_policyE2EEC2ERKSA_
	.weak	_ZNSt12__shared_ptrISt6vectorIN4asio2ip20basic_resolver_entryINS2_3tcpEEESaIS5_EELN9__gnu_cxx12_Lock_policyE2EEC1ERKSA_
	.set	_ZNSt12__shared_ptrISt6vectorIN4asio2ip20basic_resolver_entryINS2_3tcpEEESaIS5_EELN9__gnu_cxx12_Lock_policyE2EEC1ERKSA_,_ZNSt12__shared_ptrISt6vectorIN4asio2ip20basic_resolver_entryINS2_3tcpEEESaIS5_EELN9__gnu_cxx12_Lock_policyE2EEC2ERKSA_
	.section	.text._ZN4asio6detail15throw_exceptionISt12system_errorEEvRKT_,"axG",@progbits,_ZN4asio6detail15throw_exceptionISt12system_errorEEvRKT_,comdat
	.p2align 4,,15
	.weak	_ZN4asio6detail15throw_exceptionISt12system_errorEEvRKT_
	.type	_ZN4asio6detail15throw_exceptionISt12system_errorEEvRKT_, @function
_ZN4asio6detail15throw_exceptionISt12system_errorEEvRKT_:
.LFB7225:
	.cfi_startproc
	pushq	%rbp
	.cfi_def_cfa_offset 16
	.cfi_offset 6, -16
	pushq	%rbx
	.cfi_def_cfa_offset 24
	.cfi_offset 3, -24
	movq	%rdi, %rbp
	movl	$32, %edi
	subq	$8, %rsp
	.cfi_def_cfa_offset 32
	call	__cxa_allocate_exception@PLT
	movq	%rbp, %rsi
	movq	%rax, %rdi
	movq	%rax, %rbx
	call	_ZNSt13runtime_errorC2ERKS_@PLT
	movq	_ZTVSt12system_error@GOTPCREL(%rip), %rax
	movq	_ZNSt12system_errorD1Ev@GOTPCREL(%rip), %rdx
	movq	%rbx, %rdi
	movq	_ZTISt12system_error@GOTPCREL(%rip), %rsi
	movdqu	16(%rbp), %xmm0
	addq	$16, %rax
	movq	%rax, (%rbx)
	movups	%xmm0, 16(%rbx)
	call	__cxa_throw@PLT
	.cfi_endproc
.LFE7225:
	.size	_ZN4asio6detail15throw_exceptionISt12system_errorEEvRKT_, .-_ZN4asio6detail15throw_exceptionISt12system_errorEEvRKT_
	.section	.text._ZN4asio6detail14do_throw_errorERKSt10error_code,"axG",@progbits,_ZN4asio6detail14do_throw_errorERKSt10error_code,comdat
	.p2align 4,,15
	.weak	_ZN4asio6detail14do_throw_errorERKSt10error_code
	.type	_ZN4asio6detail14do_throw_errorERKSt10error_code, @function
_ZN4asio6detail14do_throw_errorERKSt10error_code:
.LFB2338:
	.cfi_startproc
	.cfi_personality 0x9b,DW.ref.__gxx_personality_v0
	.cfi_lsda 0x1b,.LLSDA2338
	pushq	%r13
	.cfi_def_cfa_offset 16
	.cfi_offset 13, -16
	pushq	%r12
	.cfi_def_cfa_offset 24
	.cfi_offset 12, -24
	pushq	%rbp
	.cfi_def_cfa_offset 32
	.cfi_offset 6, -32
	pushq	%rbx
	.cfi_def_cfa_offset 40
	.cfi_offset 3, -40
	subq	$88, %rsp
	.cfi_def_cfa_offset 128
	movq	8(%rdi), %rbp
	movl	(%rdi), %r13d
	movq	%fs:40, %rax
	movq	%rax, 72(%rsp)
	xorl	%eax, %eax
	leaq	32(%rsp), %rbx
	movq	%rsp, %r12
	movq	0(%rbp), %rax
	movq	%rbp, %rsi
	movl	%r13d, %edx
	movq	%rbx, %rdi
.LEHB19:
	call	*32(%rax)
.LEHE19:
	movq	%rbx, %rsi
	movq	%r12, %rdi
.LEHB20:
	call	_ZNSt13runtime_errorC2ERKNSt7__cxx1112basic_stringIcSt11char_traitsIcESaIcEEE@PLT
.LEHE20:
	movq	32(%rsp), %rdi
	addq	$16, %rbx
	cmpq	%rbx, %rdi
	je	.L1095
	call	_ZdlPv@PLT
.L1095:
	movq	_ZTVSt12system_error@GOTPCREL(%rip), %rax
	movq	%r12, %rdi
	movl	%r13d, 16(%rsp)
	movq	%rbp, 24(%rsp)
	addq	$16, %rax
	movq	%rax, (%rsp)
.LEHB21:
	call	_ZN4asio6detail15throw_exceptionISt12system_errorEEvRKT_@PLT
.LEHE21:
.L1100:
	movq	%rax, %rbx
	movq	%r12, %rdi
	call	_ZNSt12system_errorD1Ev@PLT
	movq	%rbx, %rdi
.LEHB22:
	call	_Unwind_Resume@PLT
.L1101:
	movq	32(%rsp), %rdi
	addq	$16, %rbx
	movq	%rax, %rbp
	cmpq	%rbx, %rdi
	je	.L1097
	call	_ZdlPv@PLT
.L1097:
	movq	%rbp, %rdi
	call	_Unwind_Resume@PLT
.LEHE22:
	.cfi_endproc
.LFE2338:
	.section	.gcc_except_table._ZN4asio6detail14do_throw_errorERKSt10error_code,"aG",@progbits,_ZN4asio6detail14do_throw_errorERKSt10error_code,comdat
.LLSDA2338:
	.byte	0xff
	.byte	0xff
	.byte	0x1
	.uleb128 .LLSDACSE2338-.LLSDACSB2338
.LLSDACSB2338:
	.uleb128 .LEHB19-.LFB2338
	.uleb128 .LEHE19-.LEHB19
	.uleb128 0
	.uleb128 0
	.uleb128 .LEHB20-.LFB2338
	.uleb128 .LEHE20-.LEHB20
	.uleb128 .L1101-.LFB2338
	.uleb128 0
	.uleb128 .LEHB21-.LFB2338
	.uleb128 .LEHE21-.LEHB21
	.uleb128 .L1100-.LFB2338
	.uleb128 0
	.uleb128 .LEHB22-.LFB2338
	.uleb128 .LEHE22-.LEHB22
	.uleb128 0
	.uleb128 0
.LLSDACSE2338:
	.section	.text._ZN4asio6detail14do_throw_errorERKSt10error_code,"axG",@progbits,_ZN4asio6detail14do_throw_errorERKSt10error_code,comdat
	.size	_ZN4asio6detail14do_throw_errorERKSt10error_code, .-_ZN4asio6detail14do_throw_errorERKSt10error_code
	.section	.text._ZN4asio6detail12posix_thread4funcINS0_21resolver_service_base22work_io_service_runnerEE3runEv,"axG",@progbits,_ZN4asio6detail12posix_thread4funcINS0_21resolver_service_base22work_io_service_runnerEE3runEv,comdat
	.align 2
	.p2align 4,,15
	.weak	_ZN4asio6detail12posix_thread4funcINS0_21resolver_service_base22work_io_service_runnerEE3runEv
	.type	_ZN4asio6detail12posix_thread4funcINS0_21resolver_service_base22work_io_service_runnerEE3runEv, @function
_ZN4asio6detail12posix_thread4funcINS0_21resolver_service_base22work_io_service_runnerEE3runEv:
.LFB10049:
	.cfi_startproc
	.cfi_personality 0x9b,DW.ref.__gxx_personality_v0
	.cfi_lsda 0x1b,.LLSDA10049
	pushq	%r15
	.cfi_def_cfa_offset 16
	.cfi_offset 15, -16
	pushq	%r14
	.cfi_def_cfa_offset 24
	.cfi_offset 14, -24
	pushq	%r13
	.cfi_def_cfa_offset 32
	.cfi_offset 13, -32
	pushq	%r12
	.cfi_def_cfa_offset 40
	.cfi_offset 12, -40
	pushq	%rbp
	.cfi_def_cfa_offset 48
	.cfi_offset 6, -48
	pushq	%rbx
	.cfi_def_cfa_offset 56
	.cfi_offset 3, -56
	subq	$216, %rsp
	.cfi_def_cfa_offset 272
	movq	%fs:40, %rax
	movq	%rax, 200(%rsp)
	xorl	%eax, %eax
	movq	8(%rdi), %rax
	movq	8(%rax), %rbx
	call	_ZNSt3_V215system_categoryEv@PLT
	movl	$0, 32(%rsp)
	movq	%rax, %r14
	movq	%rax, 40(%rsp)
	movq	184(%rbx), %rax
	leaq	48(%rbx), %r12
	testq	%rax, %rax
	je	.L1204
	leaq	160(%rsp), %rbp
	movq	$0, 160(%rsp)
	movq	$0, 168(%rsp)
	movq	$0, 176(%rsp)
	movq	$0, 184(%rsp)
	leaq	48(%rsp), %r13
	movq	%rbx, 64(%rsp)
	movq	%rbp, 72(%rsp)
	.byte	0x66
	leaq	_ZN4asio6detail15keyword_tss_ptrINS0_10call_stackINS0_15task_io_serviceENS0_27task_io_service_thread_infoEE7contextEE6value_E@tlsgd(%rip), %rdi
	.value	0x6666
	rex64
	call	__tls_get_addr@PLT
	movq	%r12, %rdi
	movq	%r12, 48(%rsp)
	leaq	88(%rbx), %r12
	movq	(%rax), %rdx
	movq	%rdx, 80(%rsp)
	leaq	64(%rsp), %rdx
	movq	%rdx, (%rax)
	call	pthread_mutex_lock@PLT
	leaq	32(%rsp), %rax
	movb	$1, 56(%rsp)
	movq	%rax, 8(%rsp)
	leaq	96(%rsp), %rax
	movq	%rax, 24(%rsp)
	.p2align 4,,10
	.p2align 3
.L1107:
	movzbl	208(%rbx), %eax
	testb	%al, %al
	jne	.L1109
.L1209:
	movq	192(%rbx), %r8
	testq	%r8, %r8
	je	.L1110
	movq	(%r8), %rax
	testq	%rax, %rax
	movq	%rax, 192(%rbx)
	je	.L1205
.L1111:
	movq	$0, (%r8)
	movq	192(%rbx), %rax
	leaq	152(%rbx), %rdx
	testq	%rax, %rax
	sete	%r15b
	setne	%cl
	cmpq	%rdx, %r8
	jne	.L1112
	testq	%rax, %rax
	movb	%cl, 176(%rbx)
	movzbl	56(%rsp), %edx
	je	.L1113
	cmpb	$0, 40(%rbx)
	je	.L1206
.L1113:
	testb	%dl, %dl
	jne	.L1207
.L1116:
	movq	%rbx, 96(%rsp)
	movq	%r13, 104(%rsp)
	leaq	8(%rbp), %rdx
	movq	%rbp, 112(%rsp)
	movq	144(%rbx), %rdi
	movzbl	%r15b, %esi
.LEHB23:
	call	_ZN4asio6detail13epoll_reactor3runEbRNS0_8op_queueINS0_25task_io_service_operationEEE@PLT
.LEHE23:
	movq	112(%rsp), %rdx
	movq	24(%rdx), %rax
	testq	%rax, %rax
	jle	.L1118
	movq	96(%rsp), %rdx
	lock addq	%rax, 184(%rdx)
	movq	112(%rsp), %rdx
.L1118:
	movq	104(%rsp), %r15
	movq	$0, 24(%rdx)
	cmpb	$0, 8(%r15)
	je	.L1208
.L1119:
	movq	96(%rsp), %rax
	movb	$1, 176(%rax)
	movq	8(%rdx), %rsi
	movq	200(%rax), %rcx
	testq	%rsi, %rsi
	je	.L1120
	testq	%rcx, %rcx
	je	.L1121
	movq	%rsi, (%rcx)
.L1122:
	movq	16(%rdx), %rcx
	movq	%rcx, 200(%rax)
	movq	$0, 8(%rdx)
	movq	$0, 16(%rdx)
	movq	200(%rax), %rcx
.L1120:
	testq	%rcx, %rcx
	leaq	152(%rax), %rdx
	movq	$0, 152(%rax)
	je	.L1123
	movq	%rdx, (%rcx)
	movq	%rdx, 200(%rax)
	movzbl	208(%rbx), %eax
	testb	%al, %al
	je	.L1209
.L1109:
	cmpb	$0, 56(%rsp)
	jne	.L1210
.L1142:
	.byte	0x66
	leaq	_ZN4asio6detail15keyword_tss_ptrINS0_10call_stackINS0_15task_io_serviceENS0_27task_io_service_thread_infoEE7contextEE6value_E@tlsgd(%rip), %rdi
	.value	0x6666
	rex64
	call	__tls_get_addr@PLT
	movq	168(%rsp), %rsi
	movq	80(%rsp), %rdx
	testq	%rsi, %rsi
	movq	%rdx, (%rax)
	je	.L1146
	leaq	128(%rsp), %rbx
	jmp	.L1147
	.p2align 4,,10
	.p2align 3
.L1148:
	movq	$0, (%rsi)
	movq	8(%rsi), %rax
	xorl	%ecx, %ecx
	xorl	%edi, %edi
	movl	$0, 128(%rsp)
	movq	%r14, 136(%rsp)
	movq	%rbx, %rdx
	call	*%rax
	movq	168(%rsp), %rsi
	testq	%rsi, %rsi
	je	.L1146
.L1147:
	movq	(%rsi), %rax
	testq	%rax, %rax
	movq	%rax, 168(%rsp)
	jne	.L1148
	movq	$0, 176(%rsp)
	jmp	.L1148
	.p2align 4,,10
	.p2align 3
.L1146:
	movq	160(%rsp), %rdi
	testq	%rdi, %rdi
	je	.L1106
	call	_ZdlPv@PLT
.L1106:
	movl	32(%rsp), %eax
	testl	%eax, %eax
	jne	.L1211
	movq	200(%rsp), %rax
	xorq	%fs:40, %rax
	jne	.L1212
	addq	$216, %rsp
	.cfi_remember_state
	.cfi_def_cfa_offset 56
	popq	%rbx
	.cfi_def_cfa_offset 48
	popq	%rbp
	.cfi_def_cfa_offset 40
	popq	%r12
	.cfi_def_cfa_offset 32
	popq	%r13
	.cfi_def_cfa_offset 24
	popq	%r14
	.cfi_def_cfa_offset 16
	popq	%r15
	.cfi_def_cfa_offset 8
	ret
	.p2align 4,,10
	.p2align 3
.L1123:
	.cfi_restore_state
	movq	%rdx, 200(%rax)
	movq	%rdx, 192(%rax)
	jmp	.L1107
	.p2align 4,,10
	.p2align 3
.L1208:
	movq	(%r15), %rdi
	call	pthread_mutex_lock@PLT
	movb	$1, 8(%r15)
	movq	112(%rsp), %rdx
	jmp	.L1119
	.p2align 4,,10
	.p2align 3
.L1205:
	movq	$0, 200(%rbx)
	jmp	.L1111
	.p2align 4,,10
	.p2align 3
.L1207:
	movq	48(%rsp), %rdi
	call	pthread_mutex_unlock@PLT
	movb	$0, 56(%rsp)
	jmp	.L1116
	.p2align 4,,10
	.p2align 3
.L1206:
	movq	136(%rbx), %rcx
	orq	$1, %rcx
	testb	%dl, %dl
	movq	%rcx, 136(%rbx)
	jne	.L1213
.L1114:
	cmpq	$1, %rcx
	je	.L1116
	movq	%r12, %rdi
	call	pthread_cond_signal@PLT
	jmp	.L1116
	.p2align 4,,10
	.p2align 3
.L1110:
	movq	136(%rbx), %rax
	andq	$-2, %rax
	.p2align 4,,10
	.p2align 3
.L1140:
	movq	48(%rsp), %rsi
	addq	$2, %rax
	movq	%r12, %rdi
	movq	%rax, 136(%rbx)
.LEHB24:
	call	pthread_cond_wait@PLT
.LEHE24:
	movq	136(%rbx), %rax
	subq	$2, %rax
	testb	$1, %al
	movq	%rax, 136(%rbx)
	je	.L1140
	jmp	.L1107
	.p2align 4,,10
	.p2align 3
.L1121:
	movq	%rsi, 192(%rax)
	jmp	.L1122
	.p2align 4,,10
	.p2align 3
.L1112:
	testq	%rax, %rax
	movl	16(%r8), %ecx
	je	.L1126
	cmpb	$0, 40(%rbx)
	je	.L1214
.L1126:
	cmpb	$0, 56(%rsp)
	jne	.L1215
.L1127:
	movq	%rbx, 128(%rsp)
	movq	%r13, 136(%rsp)
	movq	%r8, %rsi
	movq	%rbp, 144(%rsp)
	movq	8(%rsp), %rdx
	movq	%rbx, %rdi
.LEHB25:
	call	*8(%r8)
.LEHE25:
	movq	144(%rsp), %rax
	movq	24(%rax), %rdx
	cmpq	$1, %rdx
	jg	.L1216
	jne	.L1217
.L1129:
	movq	8(%rax), %rdx
	movq	$0, 24(%rax)
	testq	%rdx, %rdx
	je	.L1133
	movq	136(%rsp), %rcx
	cmpb	$0, 8(%rcx)
	je	.L1218
.L1202:
	movq	128(%rsp), %rcx
	movq	200(%rcx), %rsi
	testq	%rsi, %rsi
	je	.L1136
	movq	%rdx, (%rsi)
.L1137:
	movq	16(%rax), %rdx
	movq	%rdx, 200(%rcx)
	movq	$0, 8(%rax)
	movq	$0, 16(%rax)
.L1133:
	cmpb	$0, 56(%rsp)
	jne	.L1107
	movq	48(%rsp), %rdi
	call	pthread_mutex_lock@PLT
	movb	$1, 56(%rsp)
	jmp	.L1107
	.p2align 4,,10
	.p2align 3
.L1213:
	movq	48(%rsp), %rdi
	movq	%rcx, (%rsp)
	call	pthread_mutex_unlock@PLT
	movb	$0, 56(%rsp)
	movq	(%rsp), %rcx
	jmp	.L1114
	.p2align 4,,10
	.p2align 3
.L1216:
	movq	128(%rsp), %rax
	subq	$1, %rdx
	lock addq	%rdx, 184(%rax)
	movq	144(%rsp), %rax
	jmp	.L1129
	.p2align 4,,10
	.p2align 3
.L1204:
	movq	%r12, %rdi
	call	pthread_mutex_lock@PLT
	orq	$1, 136(%rbx)
	leaq	88(%rbx), %rdi
	movb	$1, 208(%rbx)
	call	pthread_cond_broadcast@PLT
	cmpb	$0, 176(%rbx)
	jne	.L1105
	movq	144(%rbx), %rax
	testq	%rax, %rax
	je	.L1105
	leaq	88(%rax), %rdx
	movb	$1, 176(%rbx)
	movl	$-2147483639, 160(%rsp)
	leaq	160(%rsp), %rcx
	movl	$3, %esi
	movq	%rdx, 164(%rsp)
	movl	88(%rax), %edx
	movl	96(%rax), %edi
	call	epoll_ctl@PLT
.L1105:
	movq	%r12, %rdi
	call	pthread_mutex_unlock@PLT
	jmp	.L1106
	.p2align 4,,10
	.p2align 3
.L1215:
	movq	48(%rsp), %rdi
	movq	%rcx, 16(%rsp)
	movq	%r8, (%rsp)
	call	pthread_mutex_unlock@PLT
	movb	$0, 56(%rsp)
	movq	16(%rsp), %rcx
	movq	(%rsp), %r8
	jmp	.L1127
	.p2align 4,,10
	.p2align 3
.L1218:
	movq	(%rcx), %rdi
	movq	%rcx, (%rsp)
	call	pthread_mutex_lock@PLT
	movq	144(%rsp), %rax
	movq	(%rsp), %rcx
	movq	8(%rax), %rdx
	movb	$1, 8(%rcx)
	testq	%rdx, %rdx
	je	.L1133
	jmp	.L1202
	.p2align 4,,10
	.p2align 3
.L1214:
	movq	%r13, %rsi
	movq	%rbx, %rdi
	movq	%rcx, 16(%rsp)
	movq	%r8, (%rsp)
	call	_ZN4asio6detail15task_io_service26wake_one_thread_and_unlockERNS0_11scoped_lockINS0_11posix_mutexEEE@PLT
	movq	(%rsp), %r8
	movq	16(%rsp), %rcx
	jmp	.L1127
.L1136:
	movq	%rdx, 192(%rcx)
	jmp	.L1137
.L1217:
	movq	128(%rsp), %rdx
	lock subq	$1, 184(%rdx)
	je	.L1130
.L1201:
	movq	144(%rsp), %rax
	jmp	.L1129
	.p2align 4,,10
	.p2align 3
.L1210:
	movq	48(%rsp), %rdi
	call	pthread_mutex_unlock@PLT
	jmp	.L1142
.L1130:
	leaq	48(%rdx), %rax
	movq	%rdx, (%rsp)
	movq	%rax, %rdi
	movq	%rax, %r15
	call	pthread_mutex_lock@PLT
	movq	(%rsp), %rdx
	orq	$1, 136(%rdx)
	leaq	88(%rdx), %rdi
	movb	$1, 208(%rdx)
	call	pthread_cond_broadcast@PLT
	movq	(%rsp), %rdx
	cmpb	$0, 176(%rdx)
	jne	.L1131
	movq	144(%rdx), %rax
	testq	%rax, %rax
	je	.L1131
	movb	$1, 176(%rdx)
	leaq	88(%rax), %rdx
	movl	$-2147483639, 96(%rsp)
	movq	24(%rsp), %rcx
	movl	$3, %esi
	movq	%rdx, 100(%rsp)
	movl	88(%rax), %edx
	movl	96(%rax), %edi
	call	epoll_ctl@PLT
.L1131:
	movq	%r15, %rdi
	call	pthread_mutex_unlock@PLT
	jmp	.L1201
.L1211:
	leaq	32(%rsp), %rdi
.LEHB26:
	call	_ZN4asio6detail14do_throw_errorERKSt10error_code@PLT
.L1158:
	leaq	96(%rsp), %rdi
	movq	%rax, %rbx
	call	_ZN4asio6detail15task_io_service12task_cleanupD1Ev@PLT
.L1144:
	cmpb	$0, 56(%rsp)
	je	.L1153
	movq	48(%rsp), %rdi
	call	pthread_mutex_unlock@PLT
.L1153:
	.byte	0x66
	leaq	_ZN4asio6detail15keyword_tss_ptrINS0_10call_stackINS0_15task_io_serviceENS0_27task_io_service_thread_infoEE7contextEE6value_E@tlsgd(%rip), %rdi
	.value	0x6666
	rex64
	call	__tls_get_addr@PLT
	movq	80(%rsp), %rdx
	movq	%rbp, %rdi
	movq	%rdx, (%rax)
	call	_ZN4asio6detail27task_io_service_thread_infoD1Ev@PLT
	movq	%rbx, %rdi
	call	_Unwind_Resume@PLT
.LEHE26:
.L1157:
	leaq	128(%rsp), %rdi
	movq	%rax, %rbx
	call	_ZN4asio6detail15task_io_service12work_cleanupD1Ev@PLT
	jmp	.L1144
.L1156:
	movq	%rax, %rbx
	jmp	.L1144
.L1212:
	call	__stack_chk_fail@PLT
	.cfi_endproc
.LFE10049:
	.section	.gcc_except_table._ZN4asio6detail12posix_thread4funcINS0_21resolver_service_base22work_io_service_runnerEE3runEv,"aG",@progbits,_ZN4asio6detail12posix_thread4funcINS0_21resolver_service_base22work_io_service_runnerEE3runEv,comdat
.LLSDA10049:
	.byte	0xff
	.byte	0xff
	.byte	0x1
	.uleb128 .LLSDACSE10049-.LLSDACSB10049
.LLSDACSB10049:
	.uleb128 .LEHB23-.LFB10049
	.uleb128 .LEHE23-.LEHB23
	.uleb128 .L1158-.LFB10049
	.uleb128 0
	.uleb128 .LEHB24-.LFB10049
	.uleb128 .LEHE24-.LEHB24
	.uleb128 .L1156-.LFB10049
	.uleb128 0
	.uleb128 .LEHB25-.LFB10049
	.uleb128 .LEHE25-.LEHB25
	.uleb128 .L1157-.LFB10049
	.uleb128 0
	.uleb128 .LEHB26-.LFB10049
	.uleb128 .LEHE26-.LEHB26
	.uleb128 0
	.uleb128 0
.LLSDACSE10049:
	.section	.text._ZN4asio6detail12posix_thread4funcINS0_21resolver_service_base22work_io_service_runnerEE3runEv,"axG",@progbits,_ZN4asio6detail12posix_thread4funcINS0_21resolver_service_base22work_io_service_runnerEE3runEv,comdat
	.size	_ZN4asio6detail12posix_thread4funcINS0_21resolver_service_base22work_io_service_runnerEE3runEv, .-_ZN4asio6detail12posix_thread4funcINS0_21resolver_service_base22work_io_service_runnerEE3runEv
	.section	.text.asio_detail_posix_thread_function,"axG",@progbits,asio_detail_posix_thread_function,comdat
	.p2align 4,,15
	.weak	asio_detail_posix_thread_function
	.type	asio_detail_posix_thread_function, @function
asio_detail_posix_thread_function:
.LFB5919:
	.cfi_startproc
	.cfi_personality 0x9b,DW.ref.__gxx_personality_v0
	.cfi_lsda 0x1b,.LLSDA5919
	pushq	%r15
	.cfi_def_cfa_offset 16
	.cfi_offset 15, -16
	pushq	%r14
	.cfi_def_cfa_offset 24
	.cfi_offset 14, -24
	movq	%rdi, %r14
	pushq	%r13
	.cfi_def_cfa_offset 32
	.cfi_offset 13, -32
	pushq	%r12
	.cfi_def_cfa_offset 40
	.cfi_offset 12, -40
	pushq	%rbp
	.cfi_def_cfa_offset 48
	.cfi_offset 6, -48
	pushq	%rbx
	.cfi_def_cfa_offset 56
	.cfi_offset 3, -56
	subq	$232, %rsp
	.cfi_def_cfa_offset 288
	movq	%fs:40, %rax
	movq	%rax, 216(%rsp)
	xorl	%eax, %eax
	movq	(%rdi), %rax
	movq	16(%rax), %rax
	cmpq	_ZN4asio6detail12posix_thread4funcINS0_21resolver_service_base22work_io_service_runnerEE3runEv@GOTPCREL(%rip), %rax
	jne	.L1220
	movq	8(%rdi), %rax
	movq	8(%rax), %rbx
	call	_ZNSt3_V215system_categoryEv@PLT
	movl	$0, 48(%rsp)
	movq	%rax, 8(%rsp)
	movq	%rax, 56(%rsp)
	movq	184(%rbx), %rax
	leaq	48(%rbx), %r12
	testq	%rax, %rax
	je	.L1324
	leaq	176(%rsp), %rbp
	movq	$0, 176(%rsp)
	movq	$0, 184(%rsp)
	movq	$0, 192(%rsp)
	movq	$0, 200(%rsp)
	leaq	64(%rsp), %r13
	movq	%rbx, 80(%rsp)
	movq	%rbp, 88(%rsp)
	.byte	0x66
	leaq	_ZN4asio6detail15keyword_tss_ptrINS0_10call_stackINS0_15task_io_serviceENS0_27task_io_service_thread_infoEE7contextEE6value_E@tlsgd(%rip), %rdi
	.value	0x6666
	rex64
	call	__tls_get_addr@PLT
	movq	%r12, %rdi
	movq	%r12, 64(%rsp)
	leaq	88(%rbx), %r12
	movq	(%rax), %rdx
	movq	%rdx, 96(%rsp)
	leaq	80(%rsp), %rdx
	movq	%rdx, (%rax)
	call	pthread_mutex_lock@PLT
	leaq	48(%rsp), %rax
	movb	$1, 72(%rsp)
	movq	%rax, 24(%rsp)
	leaq	112(%rsp), %rax
	movq	%rax, 40(%rsp)
	.p2align 4,,10
	.p2align 3
.L1224:
	movzbl	208(%rbx), %eax
	testb	%al, %al
	jne	.L1226
.L1329:
	movq	192(%rbx), %r8
	testq	%r8, %r8
	je	.L1227
	movq	(%r8), %rax
	testq	%rax, %rax
	movq	%rax, 192(%rbx)
	je	.L1325
.L1228:
	movq	$0, (%r8)
	movq	192(%rbx), %rax
	leaq	152(%rbx), %rdx
	testq	%rax, %rax
	sete	%r15b
	setne	%cl
	cmpq	%rdx, %r8
	jne	.L1229
	testq	%rax, %rax
	movb	%cl, 176(%rbx)
	movzbl	72(%rsp), %edx
	je	.L1230
	cmpb	$0, 40(%rbx)
	je	.L1326
.L1230:
	testb	%dl, %dl
	jne	.L1327
.L1233:
	movq	%rbx, 112(%rsp)
	movq	%r13, 120(%rsp)
	leaq	8(%rbp), %rdx
	movq	%rbp, 128(%rsp)
	movq	144(%rbx), %rdi
	movzbl	%r15b, %esi
.LEHB27:
	call	_ZN4asio6detail13epoll_reactor3runEbRNS0_8op_queueINS0_25task_io_service_operationEEE@PLT
.LEHE27:
	movq	128(%rsp), %rdx
	movq	24(%rdx), %rax
	testq	%rax, %rax
	jle	.L1235
	movq	112(%rsp), %rdx
	lock addq	%rax, 184(%rdx)
	movq	128(%rsp), %rdx
.L1235:
	movq	120(%rsp), %r15
	movq	$0, 24(%rdx)
	cmpb	$0, 8(%r15)
	je	.L1328
.L1236:
	movq	112(%rsp), %rax
	movb	$1, 176(%rax)
	movq	8(%rdx), %rsi
	movq	200(%rax), %rcx
	testq	%rsi, %rsi
	je	.L1237
	testq	%rcx, %rcx
	je	.L1238
	movq	%rsi, (%rcx)
.L1239:
	movq	16(%rdx), %rcx
	movq	%rcx, 200(%rax)
	movq	$0, 8(%rdx)
	movq	$0, 16(%rdx)
	movq	200(%rax), %rcx
.L1237:
	testq	%rcx, %rcx
	leaq	152(%rax), %rdx
	movq	$0, 152(%rax)
	je	.L1240
	movq	%rdx, (%rcx)
	movq	%rdx, 200(%rax)
	movzbl	208(%rbx), %eax
	testb	%al, %al
	je	.L1329
.L1226:
	cmpb	$0, 72(%rsp)
	jne	.L1330
.L1259:
	.byte	0x66
	leaq	_ZN4asio6detail15keyword_tss_ptrINS0_10call_stackINS0_15task_io_serviceENS0_27task_io_service_thread_infoEE7contextEE6value_E@tlsgd(%rip), %rdi
	.value	0x6666
	rex64
	call	__tls_get_addr@PLT
	movq	184(%rsp), %rsi
	movq	96(%rsp), %rdx
	testq	%rsi, %rsi
	movq	%rdx, (%rax)
	je	.L1263
	leaq	144(%rsp), %rbx
	jmp	.L1264
	.p2align 4,,10
	.p2align 3
.L1265:
	movq	8(%rsp), %rdi
	movq	$0, (%rsi)
	xorl	%ecx, %ecx
	movq	8(%rsi), %rax
	movq	%rbx, %rdx
	movl	$0, 144(%rsp)
	movq	%rdi, 152(%rsp)
	xorl	%edi, %edi
	call	*%rax
	movq	184(%rsp), %rsi
	testq	%rsi, %rsi
	je	.L1263
.L1264:
	movq	(%rsi), %rax
	testq	%rax, %rax
	movq	%rax, 184(%rsp)
	jne	.L1265
	movq	$0, 192(%rsp)
	jmp	.L1265
	.p2align 4,,10
	.p2align 3
.L1324:
	movq	%r12, %rdi
	call	pthread_mutex_lock@PLT
	orq	$1, 136(%rbx)
	leaq	88(%rbx), %rdi
	movb	$1, 208(%rbx)
	call	pthread_cond_broadcast@PLT
	cmpb	$0, 176(%rbx)
	jne	.L1222
	movq	144(%rbx), %rax
	testq	%rax, %rax
	je	.L1222
	leaq	88(%rax), %rdx
	movb	$1, 176(%rbx)
	movl	$-2147483639, 176(%rsp)
	leaq	176(%rsp), %rcx
	movl	$3, %esi
	movq	%rdx, 180(%rsp)
	movl	88(%rax), %edx
	movl	96(%rax), %edi
	call	epoll_ctl@PLT
.L1222:
	movq	%r12, %rdi
	call	pthread_mutex_unlock@PLT
.L1223:
	movl	48(%rsp), %eax
	testl	%eax, %eax
	jne	.L1331
.L1272:
	movq	(%r14), %rax
	movq	%r14, %rdi
	call	*8(%rax)
	xorl	%eax, %eax
	movq	216(%rsp), %rdi
	xorq	%fs:40, %rdi
	jne	.L1332
	addq	$232, %rsp
	.cfi_remember_state
	.cfi_def_cfa_offset 56
	popq	%rbx
	.cfi_def_cfa_offset 48
	popq	%rbp
	.cfi_def_cfa_offset 40
	popq	%r12
	.cfi_def_cfa_offset 32
	popq	%r13
	.cfi_def_cfa_offset 24
	popq	%r14
	.cfi_def_cfa_offset 16
	popq	%r15
	.cfi_def_cfa_offset 8
	ret
	.p2align 4,,10
	.p2align 3
.L1240:
	.cfi_restore_state
	movq	%rdx, 200(%rax)
	movq	%rdx, 192(%rax)
	jmp	.L1224
	.p2align 4,,10
	.p2align 3
.L1328:
	movq	(%r15), %rdi
	call	pthread_mutex_lock@PLT
	movb	$1, 8(%r15)
	movq	128(%rsp), %rdx
	jmp	.L1236
	.p2align 4,,10
	.p2align 3
.L1325:
	movq	$0, 200(%rbx)
	jmp	.L1228
	.p2align 4,,10
	.p2align 3
.L1327:
	movq	64(%rsp), %rdi
	call	pthread_mutex_unlock@PLT
	movb	$0, 72(%rsp)
	jmp	.L1233
	.p2align 4,,10
	.p2align 3
.L1326:
	movq	136(%rbx), %rcx
	orq	$1, %rcx
	testb	%dl, %dl
	movq	%rcx, 136(%rbx)
	jne	.L1333
.L1231:
	cmpq	$1, %rcx
	je	.L1233
	movq	%r12, %rdi
	call	pthread_cond_signal@PLT
	jmp	.L1233
	.p2align 4,,10
	.p2align 3
.L1227:
	movq	136(%rbx), %rax
	andq	$-2, %rax
	.p2align 4,,10
	.p2align 3
.L1257:
	movq	64(%rsp), %rsi
	addq	$2, %rax
	movq	%r12, %rdi
	movq	%rax, 136(%rbx)
.LEHB28:
	call	pthread_cond_wait@PLT
.LEHE28:
	movq	136(%rbx), %rax
	subq	$2, %rax
	testb	$1, %al
	movq	%rax, 136(%rbx)
	je	.L1257
	jmp	.L1224
	.p2align 4,,10
	.p2align 3
.L1238:
	movq	%rsi, 192(%rax)
	jmp	.L1239
	.p2align 4,,10
	.p2align 3
.L1229:
	testq	%rax, %rax
	movl	16(%r8), %ecx
	je	.L1243
	cmpb	$0, 40(%rbx)
	je	.L1334
.L1243:
	cmpb	$0, 72(%rsp)
	jne	.L1335
.L1244:
	movq	%rbx, 144(%rsp)
	movq	%r13, 152(%rsp)
	movq	%r8, %rsi
	movq	%rbp, 160(%rsp)
	movq	24(%rsp), %rdx
	movq	%rbx, %rdi
.LEHB29:
	call	*8(%r8)
.LEHE29:
	movq	160(%rsp), %rax
	movq	24(%rax), %rdx
	cmpq	$1, %rdx
	jg	.L1336
	jne	.L1337
.L1246:
	movq	8(%rax), %rdx
	movq	$0, 24(%rax)
	testq	%rdx, %rdx
	je	.L1250
	movq	152(%rsp), %rcx
	cmpb	$0, 8(%rcx)
	je	.L1338
.L1322:
	movq	144(%rsp), %rcx
	movq	200(%rcx), %rsi
	testq	%rsi, %rsi
	je	.L1253
	movq	%rdx, (%rsi)
.L1254:
	movq	16(%rax), %rdx
	movq	%rdx, 200(%rcx)
	movq	$0, 8(%rax)
	movq	$0, 16(%rax)
.L1250:
	cmpb	$0, 72(%rsp)
	jne	.L1224
	movq	64(%rsp), %rdi
	call	pthread_mutex_lock@PLT
	movb	$1, 72(%rsp)
	jmp	.L1224
	.p2align 4,,10
	.p2align 3
.L1333:
	movq	64(%rsp), %rdi
	movq	%rcx, 16(%rsp)
	call	pthread_mutex_unlock@PLT
	movb	$0, 72(%rsp)
	movq	16(%rsp), %rcx
	jmp	.L1231
	.p2align 4,,10
	.p2align 3
.L1336:
	movq	144(%rsp), %rax
	subq	$1, %rdx
	lock addq	%rdx, 184(%rax)
	movq	160(%rsp), %rax
	jmp	.L1246
	.p2align 4,,10
	.p2align 3
.L1263:
	movq	176(%rsp), %rdi
	testq	%rdi, %rdi
	je	.L1223
	call	_ZdlPv@PLT
	jmp	.L1223
	.p2align 4,,10
	.p2align 3
.L1335:
	movq	64(%rsp), %rdi
	movq	%rcx, 32(%rsp)
	movq	%r8, 16(%rsp)
	call	pthread_mutex_unlock@PLT
	movb	$0, 72(%rsp)
	movq	32(%rsp), %rcx
	movq	16(%rsp), %r8
	jmp	.L1244
	.p2align 4,,10
	.p2align 3
.L1338:
	movq	(%rcx), %rdi
	movq	%rcx, 16(%rsp)
	call	pthread_mutex_lock@PLT
	movq	160(%rsp), %rax
	movq	16(%rsp), %rcx
	movq	8(%rax), %rdx
	movb	$1, 8(%rcx)
	testq	%rdx, %rdx
	je	.L1250
	jmp	.L1322
	.p2align 4,,10
	.p2align 3
.L1334:
	movq	%r13, %rsi
	movq	%rbx, %rdi
	movq	%rcx, 32(%rsp)
	movq	%r8, 16(%rsp)
	call	_ZN4asio6detail15task_io_service26wake_one_thread_and_unlockERNS0_11scoped_lockINS0_11posix_mutexEEE@PLT
	movq	16(%rsp), %r8
	movq	32(%rsp), %rcx
	jmp	.L1244
.L1253:
	movq	%rdx, 192(%rcx)
	jmp	.L1254
.L1220:
.LEHB30:
	call	*%rax
	jmp	.L1272
.L1337:
	movq	144(%rsp), %rdx
	lock subq	$1, 184(%rdx)
	je	.L1247
.L1321:
	movq	160(%rsp), %rax
	jmp	.L1246
	.p2align 4,,10
	.p2align 3
.L1330:
	movq	64(%rsp), %rdi
	call	pthread_mutex_unlock@PLT
	jmp	.L1259
.L1247:
	leaq	48(%rdx), %rax
	movq	%rdx, 16(%rsp)
	movq	%rax, %rdi
	movq	%rax, %r15
	call	pthread_mutex_lock@PLT
	movq	16(%rsp), %rdx
	orq	$1, 136(%rdx)
	leaq	88(%rdx), %rdi
	movb	$1, 208(%rdx)
	call	pthread_cond_broadcast@PLT
	movq	16(%rsp), %rdx
	cmpb	$0, 176(%rdx)
	jne	.L1248
	movq	144(%rdx), %rax
	testq	%rax, %rax
	je	.L1248
	movb	$1, 176(%rdx)
	leaq	88(%rax), %rdx
	movl	$-2147483639, 112(%rsp)
	movq	40(%rsp), %rcx
	movl	$3, %esi
	movq	%rdx, 116(%rsp)
	movl	88(%rax), %edx
	movl	96(%rax), %edi
	call	epoll_ctl@PLT
.L1248:
	movq	%r15, %rdi
	call	pthread_mutex_unlock@PLT
	jmp	.L1321
.L1331:
	leaq	48(%rsp), %rdi
	call	_ZN4asio6detail14do_throw_errorERKSt10error_code@PLT
.LEHE30:
.L1332:
	call	__stack_chk_fail@PLT
.L1276:
	movq	%rax, %rbx
.L1261:
	cmpb	$0, 72(%rsp)
	je	.L1270
	movq	64(%rsp), %rdi
	call	pthread_mutex_unlock@PLT
.L1270:
	.byte	0x66
	leaq	_ZN4asio6detail15keyword_tss_ptrINS0_10call_stackINS0_15task_io_serviceENS0_27task_io_service_thread_infoEE7contextEE6value_E@tlsgd(%rip), %rdi
	.value	0x6666
	rex64
	call	__tls_get_addr@PLT
	movq	96(%rsp), %rdx
	movq	%rbp, %rdi
	movq	%rdx, (%rax)
	call	_ZN4asio6detail27task_io_service_thread_infoD1Ev@PLT
.L1271:
	movq	(%r14), %rax
	movq	%r14, %rdi
	call	*8(%rax)
	movq	%rbx, %rdi
.LEHB31:
	call	_Unwind_Resume@PLT
.LEHE31:
.L1277:
	leaq	144(%rsp), %rdi
	movq	%rax, %rbx
	call	_ZN4asio6detail15task_io_service12work_cleanupD1Ev@PLT
	jmp	.L1261
.L1278:
	leaq	112(%rsp), %rdi
	movq	%rax, %rbx
	call	_ZN4asio6detail15task_io_service12task_cleanupD1Ev@PLT
	jmp	.L1261
.L1275:
	movq	%rax, %rbx
	jmp	.L1271
	.cfi_endproc
.LFE5919:
	.section	.gcc_except_table.asio_detail_posix_thread_function,"aG",@progbits,asio_detail_posix_thread_function,comdat
.LLSDA5919:
	.byte	0xff
	.byte	0xff
	.byte	0x1
	.uleb128 .LLSDACSE5919-.LLSDACSB5919
.LLSDACSB5919:
	.uleb128 .LEHB27-.LFB5919
	.uleb128 .LEHE27-.LEHB27
	.uleb128 .L1278-.LFB5919
	.uleb128 0
	.uleb128 .LEHB28-.LFB5919
	.uleb128 .LEHE28-.LEHB28
	.uleb128 .L1276-.LFB5919
	.uleb128 0
	.uleb128 .LEHB29-.LFB5919
	.uleb128 .LEHE29-.LEHB29
	.uleb128 .L1277-.LFB5919
	.uleb128 0
	.uleb128 .LEHB30-.LFB5919
	.uleb128 .LEHE30-.LEHB30
	.uleb128 .L1275-.LFB5919
	.uleb128 0
	.uleb128 .LEHB31-.LFB5919
	.uleb128 .LEHE31-.LEHB31
	.uleb128 0
	.uleb128 0
.LLSDACSE5919:
	.section	.text.asio_detail_posix_thread_function,"axG",@progbits,asio_detail_posix_thread_function,comdat
	.size	asio_detail_posix_thread_function, .-asio_detail_posix_thread_function
	.section	.text._ZN4asio6detail14do_throw_errorERKSt10error_codePKc,"axG",@progbits,_ZN4asio6detail14do_throw_errorERKSt10error_codePKc,comdat
	.p2align 4,,15
	.weak	_ZN4asio6detail14do_throw_errorERKSt10error_codePKc
	.type	_ZN4asio6detail14do_throw_errorERKSt10error_codePKc, @function
_ZN4asio6detail14do_throw_errorERKSt10error_codePKc:
.LFB2339:
	.cfi_startproc
	.cfi_personality 0x9b,DW.ref.__gxx_personality_v0
	.cfi_lsda 0x1b,.LLSDA2339
	pushq	%rbp
	.cfi_def_cfa_offset 16
	.cfi_offset 6, -16
	pushq	%rbx
	.cfi_def_cfa_offset 24
	.cfi_offset 3, -24
	movq	%rsi, %rcx
	subq	$56, %rsp
	.cfi_def_cfa_offset 80
	movl	(%rdi), %esi
	movq	8(%rdi), %rdx
	movq	%rsp, %rbx
	movq	%rbx, %rdi
	movq	%fs:40, %rax
	movq	%rax, 40(%rsp)
	xorl	%eax, %eax
.LEHB32:
	call	_ZNSt12system_errorC1ESt10error_codePKc@PLT
.LEHE32:
	movq	%rbx, %rdi
.LEHB33:
	call	_ZN4asio6detail15throw_exceptionISt12system_errorEEvRKT_@PLT
.LEHE33:
.L1342:
	movq	%rax, %rbp
	movq	%rbx, %rdi
	call	_ZNSt12system_errorD1Ev@PLT
	movq	%rbp, %rdi
.LEHB34:
	call	_Unwind_Resume@PLT
.LEHE34:
	.cfi_endproc
.LFE2339:
	.section	.gcc_except_table._ZN4asio6detail14do_throw_errorERKSt10error_codePKc,"aG",@progbits,_ZN4asio6detail14do_throw_errorERKSt10error_codePKc,comdat
.LLSDA2339:
	.byte	0xff
	.byte	0xff
	.byte	0x1
	.uleb128 .LLSDACSE2339-.LLSDACSB2339
.LLSDACSB2339:
	.uleb128 .LEHB32-.LFB2339
	.uleb128 .LEHE32-.LEHB32
	.uleb128 0
	.uleb128 0
	.uleb128 .LEHB33-.LFB2339
	.uleb128 .LEHE33-.LEHB33
	.uleb128 .L1342-.LFB2339
	.uleb128 0
	.uleb128 .LEHB34-.LFB2339
	.uleb128 .LEHE34-.LEHB34
	.uleb128 0
	.uleb128 0
.LLSDACSE2339:
	.section	.text._ZN4asio6detail14do_throw_errorERKSt10error_codePKc,"axG",@progbits,_ZN4asio6detail14do_throw_errorERKSt10error_codePKc,comdat
	.size	_ZN4asio6detail14do_throw_errorERKSt10error_codePKc, .-_ZN4asio6detail14do_throw_errorERKSt10error_codePKc
	.section	.rodata._ZN4asio6detail26eventfd_select_interrupter16open_descriptorsEv.str1.1,"aMS",@progbits,1
.LC20:
	.string	"eventfd_select_interrupter"
	.section	.text._ZN4asio6detail26eventfd_select_interrupter16open_descriptorsEv,"axG",@progbits,_ZN4asio6detail26eventfd_select_interrupter16open_descriptorsEv,comdat
	.align 2
	.p2align 4,,15
	.weak	_ZN4asio6detail26eventfd_select_interrupter16open_descriptorsEv
	.type	_ZN4asio6detail26eventfd_select_interrupter16open_descriptorsEv, @function
_ZN4asio6detail26eventfd_select_interrupter16open_descriptorsEv:
.LFB3143:
	.cfi_startproc
	pushq	%rbp
	.cfi_def_cfa_offset 16
	.cfi_offset 6, -16
	pushq	%rbx
	.cfi_def_cfa_offset 24
	.cfi_offset 3, -24
	movl	$526336, %esi
	movq	%rdi, %rbx
	xorl	%edi, %edi
	subq	$40, %rsp
	.cfi_def_cfa_offset 64
	movq	%fs:40, %rax
	movq	%rax, 24(%rsp)
	xorl	%eax, %eax
	call	eventfd@PLT
	cmpl	$-1, %eax
	movl	%eax, (%rbx)
	movl	%eax, 4(%rbx)
	je	.L1363
.L1344:
	movq	24(%rsp), %rax
	xorq	%fs:40, %rax
	jne	.L1364
	addq	$40, %rsp
	.cfi_remember_state
	.cfi_def_cfa_offset 24
	popq	%rbx
	.cfi_def_cfa_offset 16
	popq	%rbp
	.cfi_def_cfa_offset 8
	ret
	.p2align 4,,10
	.p2align 3
.L1363:
	.cfi_restore_state
	call	__errno_location@PLT
	cmpl	$22, (%rax)
	movq	%rax, %rbp
	je	.L1365
.L1348:
	leaq	16(%rsp), %rdi
	call	pipe@PLT
	testl	%eax, %eax
	jne	.L1366
	movl	16(%rsp), %edi
	movl	$2048, %edx
	movl	$4, %esi
	xorl	%eax, %eax
	movl	%edi, (%rbx)
	call	fcntl@PLT
	movl	(%rbx), %edi
	movl	$1, %edx
	movl	$2, %esi
	xorl	%eax, %eax
	call	fcntl@PLT
	movl	20(%rsp), %edi
	movl	$2048, %edx
	movl	$4, %esi
	xorl	%eax, %eax
	movl	%edi, 4(%rbx)
	call	fcntl@PLT
	movl	4(%rbx), %edi
	movl	$1, %edx
	movl	$2, %esi
	xorl	%eax, %eax
	call	fcntl@PLT
	jmp	.L1344
	.p2align 4,,10
	.p2align 3
.L1366:
	call	_ZN4asio15system_categoryEv@PLT
	movl	0(%rbp), %edx
	movq	%rax, 8(%rsp)
	testl	%edx, %edx
	movl	%edx, (%rsp)
	je	.L1344
	leaq	.LC20(%rip), %rsi
	movq	%rsp, %rdi
	call	_ZN4asio6detail14do_throw_errorERKSt10error_codePKc@PLT
	.p2align 4,,10
	.p2align 3
.L1365:
	xorl	%esi, %esi
	xorl	%edi, %edi
	call	eventfd@PLT
	cmpl	$-1, %eax
	movl	%eax, (%rbx)
	movl	%eax, 4(%rbx)
	je	.L1348
	movl	%eax, %edi
	movl	$2048, %edx
	movl	$4, %esi
	xorl	%eax, %eax
	call	fcntl@PLT
	movl	(%rbx), %edi
	xorl	%eax, %eax
	movl	$1, %edx
	movl	$2, %esi
	call	fcntl@PLT
	cmpl	$-1, (%rbx)
	jne	.L1344
	jmp	.L1348
.L1364:
	call	__stack_chk_fail@PLT
	.cfi_endproc
.LFE3143:
	.size	_ZN4asio6detail26eventfd_select_interrupter16open_descriptorsEv, .-_ZN4asio6detail26eventfd_select_interrupter16open_descriptorsEv
	.section	.rodata._ZN4asio6detail13epoll_reactor12fork_serviceENS_10io_service10fork_eventE.str1.1,"aMS",@progbits,1
.LC21:
	.string	"epoll"
.LC22:
	.string	"epoll re-registration"
	.section	.text._ZN4asio6detail13epoll_reactor12fork_serviceENS_10io_service10fork_eventE,"axG",@progbits,_ZN4asio6detail13epoll_reactor12fork_serviceENS_10io_service10fork_eventE,comdat
	.align 2
	.p2align 4,,15
	.weak	_ZN4asio6detail13epoll_reactor12fork_serviceENS_10io_service10fork_eventE
	.type	_ZN4asio6detail13epoll_reactor12fork_serviceENS_10io_service10fork_eventE, @function
_ZN4asio6detail13epoll_reactor12fork_serviceENS_10io_service10fork_eventE:
.LFB3189:
	.cfi_startproc
	.cfi_personality 0x9b,DW.ref.__gxx_personality_v0
	.cfi_lsda 0x1b,.LLSDA3189
	pushq	%r15
	.cfi_def_cfa_offset 16
	.cfi_offset 15, -16
	pushq	%r14
	.cfi_def_cfa_offset 24
	.cfi_offset 14, -24
	pushq	%r13
	.cfi_def_cfa_offset 32
	.cfi_offset 13, -32
	pushq	%r12
	.cfi_def_cfa_offset 40
	.cfi_offset 12, -40
	pushq	%rbp
	.cfi_def_cfa_offset 48
	.cfi_offset 6, -48
	pushq	%rbx
	.cfi_def_cfa_offset 56
	.cfi_offset 3, -56
	subq	$104, %rsp
	.cfi_def_cfa_offset 160
	movq	%fs:40, %rax
	movq	%rax, 88(%rsp)
	xorl	%eax, %eax
	cmpl	$2, %esi
	je	.L1432
.L1367:
	movq	88(%rsp), %rax
	xorq	%fs:40, %rax
	jne	.L1433
	addq	$104, %rsp
	.cfi_remember_state
	.cfi_def_cfa_offset 56
	popq	%rbx
	.cfi_def_cfa_offset 48
	popq	%rbp
	.cfi_def_cfa_offset 40
	popq	%r12
	.cfi_def_cfa_offset 32
	popq	%r13
	.cfi_def_cfa_offset 24
	popq	%r14
	.cfi_def_cfa_offset 16
	popq	%r15
	.cfi_def_cfa_offset 8
	ret
	.p2align 4,,10
	.p2align 3
.L1432:
	.cfi_restore_state
	movq	%rdi, %rbp
	movl	96(%rdi), %edi
	cmpl	$-1, %edi
	jne	.L1434
.L1369:
	movl	$-1, 96(%rbp)
	movl	$524288, %edi
	call	epoll_create1@PLT
	cmpl	$-1, %eax
	movl	%eax, %ebx
	je	.L1435
.L1370:
	movl	100(%rbp), %edi
	movl	%ebx, 96(%rbp)
	cmpl	$-1, %edi
	jne	.L1436
.L1373:
	movl	$-1, 100(%rbp)
	movl	$524288, %esi
	movl	$1, %edi
	call	timerfd_create@PLT
	cmpl	$-1, %eax
	movl	%eax, %ebx
	je	.L1437
.L1374:
	movl	92(%rbp), %edi
	movl	%ebx, 100(%rbp)
	leaq	88(%rbp), %rbx
	movl	88(%rbp), %eax
	cmpl	$-1, %edi
	je	.L1375
	cmpl	%eax, %edi
	jne	.L1438
.L1376:
	movl	%eax, %edi
.LEHB35:
	call	close@PLT
.L1377:
	movq	%rbx, %rdi
	movq	$-1, 88(%rbp)
	leaq	4(%rsp), %r12
	call	_ZN4asio6detail26eventfd_select_interrupter16open_descriptorsEv@PLT
	movl	88(%rbp), %edx
	movl	96(%rbp), %edi
	movq	%r12, %rcx
	movl	$1, %esi
	movl	$-2147483639, 4(%rsp)
	movq	%rbx, 8(%rsp)
	leaq	48(%rsp), %r13
	call	epoll_ctl@PLT
	movl	92(%rbp), %edi
	movl	$8, %edx
	movq	%r13, %rsi
	movq	$1, 48(%rsp)
	call	write@PLT
.LEHE35:
	movl	100(%rbp), %edx
	cmpl	$-1, %edx
	jne	.L1439
.L1378:
	movl	88(%rbp), %edx
	movl	96(%rbp), %edi
	movq	%r13, %rcx
	movl	$3, %esi
	movl	$-2147483639, 48(%rsp)
	movq	%rbx, 52(%rsp)
	call	epoll_ctl@PLT
.L1384:
	leaq	120(%rbp), %r14
	movq	%r14, %rdi
	call	pthread_mutex_lock@PLT
	movq	160(%rbp), %rbx
	testq	%rbx, %rbx
	jne	.L1388
	jmp	.L1385
	.p2align 4,,10
	.p2align 3
.L1386:
	movq	24(%rbx), %rbx
	testq	%rbx, %rbx
	je	.L1385
.L1388:
	movl	92(%rbx), %eax
	movl	88(%rbx), %edx
	movq	%r12, %rcx
	movl	96(%rbp), %edi
	movl	$1, %esi
	movq	%rbx, 8(%rsp)
	movl	%eax, 4(%rsp)
	call	epoll_ctl@PLT
	testl	%eax, %eax
	je	.L1386
	call	_ZN4asio15system_categoryEv@PLT
	movq	%rax, %r15
	call	__errno_location@PLT
	movl	(%rax), %eax
	movq	%r15, 56(%rsp)
	testl	%eax, %eax
	movl	%eax, 48(%rsp)
	je	.L1386
	leaq	.LC22(%rip), %rsi
	movq	%r13, %rdi
.LEHB36:
	call	_ZN4asio6detail14do_throw_errorERKSt10error_codePKc@PLT
.LEHE36:
	.p2align 4,,10
	.p2align 3
.L1438:
.LEHB37:
	call	close@PLT
	movl	88(%rbp), %eax
.L1375:
	cmpl	$-1, %eax
	je	.L1377
	jmp	.L1376
	.p2align 4,,10
	.p2align 3
.L1439:
	movl	96(%rbp), %edi
	leaq	100(%rbp), %rax
	movq	%r12, %rcx
	movl	$1, %esi
	movl	$9, 4(%rsp)
	movq	%rax, 8(%rsp)
	call	epoll_ctl@PLT
	movl	100(%rbp), %edi
	cmpl	$-1, %edi
	je	.L1378
	movq	104(%rbp), %rbx
	pxor	%xmm0, %xmm0
	testq	%rbx, %rbx
	movaps	%xmm0, 16(%rsp)
	je	.L1379
	movl	$300000000, %esi
	.p2align 4,,10
	.p2align 3
.L1381:
	movq	%rbx, %rdi
	movq	(%rbx), %rax
	call	*32(%rax)
	movq	8(%rbx), %rbx
	movq	%rax, %rsi
	testq	%rbx, %rbx
	jne	.L1381
	movabsq	$4835703278458516699, %rdx
	xorl	%r8d, %r8d
	movl	100(%rbp), %edi
	imulq	%rdx
	movq	%rsi, %rax
	sarq	$63, %rax
	sarq	$18, %rdx
	subq	%rax, %rdx
	testq	%rsi, %rsi
	movl	$1, %eax
	movq	%rdx, 32(%rsp)
	sete	%r8b
	je	.L1383
	imulq	$1000000, %rdx, %rdx
	movq	%rsi, %rax
	subq	%rdx, %rax
	imulq	$1000, %rax, %rax
.L1383:
	leaq	16(%rsp), %rdx
	movq	%r13, %rcx
	movl	%r8d, %esi
	movq	%rax, 40(%rsp)
	call	timerfd_settime@PLT
	jmp	.L1384
	.p2align 4,,10
	.p2align 3
.L1436:
	call	close@PLT
	jmp	.L1373
	.p2align 4,,10
	.p2align 3
.L1434:
	call	close@PLT
	jmp	.L1369
	.p2align 4,,10
	.p2align 3
.L1385:
	movq	%r14, %rdi
	call	pthread_mutex_unlock@PLT
	jmp	.L1367
	.p2align 4,,10
	.p2align 3
.L1437:
	call	__errno_location@PLT
	cmpl	$22, (%rax)
	jne	.L1374
	xorl	%esi, %esi
	movl	$1, %edi
	call	timerfd_create@PLT
	cmpl	$-1, %eax
	movl	%eax, %ebx
	je	.L1374
	movl	%eax, %edi
	movl	$1, %edx
	movl	$2, %esi
	xorl	%eax, %eax
	call	fcntl@PLT
	jmp	.L1374
	.p2align 4,,10
	.p2align 3
.L1435:
	call	__errno_location@PLT
	movq	%rax, %r13
	movl	(%rax), %eax
	subl	$22, %eax
	andl	$-17, %eax
	jne	.L1371
	movl	$20000, %edi
	call	epoll_create@PLT
	cmpl	$-1, %eax
	movl	%eax, %r12d
	je	.L1371
	movl	%eax, %edi
	movl	$1, %edx
	movl	$2, %esi
	xorl	%eax, %eax
	movl	%r12d, %ebx
	call	fcntl@PLT
	jmp	.L1370
	.p2align 4,,10
	.p2align 3
.L1371:
	call	_ZN4asio15system_categoryEv@PLT
	movl	0(%r13), %edx
	movq	%rax, 56(%rsp)
	testl	%edx, %edx
	movl	%edx, 48(%rsp)
	je	.L1370
	leaq	48(%rsp), %rdi
	leaq	.LC21(%rip), %rsi
	call	_ZN4asio6detail14do_throw_errorERKSt10error_codePKc@PLT
.L1392:
	movq	%rax, %rbx
	movq	%r14, %rdi
	call	pthread_mutex_unlock@PLT
	movq	%rbx, %rdi
	call	_Unwind_Resume@PLT
.LEHE37:
	.p2align 4,,10
	.p2align 3
.L1379:
	movq	$300, 32(%rsp)
	xorl	%r8d, %r8d
	xorl	%eax, %eax
	jmp	.L1383
.L1433:
	call	__stack_chk_fail@PLT
	.cfi_endproc
.LFE3189:
	.section	.gcc_except_table._ZN4asio6detail13epoll_reactor12fork_serviceENS_10io_service10fork_eventE,"aG",@progbits,_ZN4asio6detail13epoll_reactor12fork_serviceENS_10io_service10fork_eventE,comdat
.LLSDA3189:
	.byte	0xff
	.byte	0xff
	.byte	0x1
	.uleb128 .LLSDACSE3189-.LLSDACSB3189
.LLSDACSB3189:
	.uleb128 .LEHB35-.LFB3189
	.uleb128 .LEHE35-.LEHB35
	.uleb128 0
	.uleb128 0
	.uleb128 .LEHB36-.LFB3189
	.uleb128 .LEHE36-.LEHB36
	.uleb128 .L1392-.LFB3189
	.uleb128 0
	.uleb128 .LEHB37-.LFB3189
	.uleb128 .LEHE37-.LEHB37
	.uleb128 0
	.uleb128 0
.LLSDACSE3189:
	.section	.text._ZN4asio6detail13epoll_reactor12fork_serviceENS_10io_service10fork_eventE,"axG",@progbits,_ZN4asio6detail13epoll_reactor12fork_serviceENS_10io_service10fork_eventE,comdat
	.size	_ZN4asio6detail13epoll_reactor12fork_serviceENS_10io_service10fork_eventE, .-_ZN4asio6detail13epoll_reactor12fork_serviceENS_10io_service10fork_eventE
	.section	.rodata._ZN4asio6detail11posix_mutexC2Ev.str1.1,"aMS",@progbits,1
.LC23:
	.string	"mutex"
	.section	.text._ZN4asio6detail11posix_mutexC2Ev,"axG",@progbits,_ZN4asio6detail11posix_mutexC5Ev,comdat
	.align 2
	.p2align 4,,15
	.weak	_ZN4asio6detail11posix_mutexC2Ev
	.type	_ZN4asio6detail11posix_mutexC2Ev, @function
_ZN4asio6detail11posix_mutexC2Ev:
.LFB2364:
	.cfi_startproc
	pushq	%rbp
	.cfi_def_cfa_offset 16
	.cfi_offset 6, -16
	pushq	%rbx
	.cfi_def_cfa_offset 24
	.cfi_offset 3, -24
	xorl	%esi, %esi
	subq	$40, %rsp
	.cfi_def_cfa_offset 64
	movq	%fs:40, %rax
	movq	%rax, 24(%rsp)
	xorl	%eax, %eax
	call	pthread_mutex_init@PLT
	movq	_ZGVZN4asio15system_categoryEvE8instance@GOTPCREL(%rip), %rbp
	movl	%eax, %ebx
	movzbl	0(%rbp), %eax
	testb	%al, %al
	je	.L1441
.L1450:
	movq	_ZZN4asio15system_categoryEvE8instance@GOTPCREL(%rip), %rbp
.L1442:
	testl	%ebx, %ebx
	movl	%ebx, (%rsp)
	movq	%rbp, 8(%rsp)
	jne	.L1451
	movq	24(%rsp), %rax
	xorq	%fs:40, %rax
	jne	.L1452
	addq	$40, %rsp
	.cfi_remember_state
	.cfi_def_cfa_offset 24
	popq	%rbx
	.cfi_def_cfa_offset 16
	popq	%rbp
	.cfi_def_cfa_offset 8
	ret
	.p2align 4,,10
	.p2align 3
.L1441:
	.cfi_restore_state
	movq	%rbp, %rdi
	call	__cxa_guard_acquire@PLT
	testl	%eax, %eax
	je	.L1450
	movq	%rbp, %rdi
	call	__cxa_guard_release@PLT
	movq	_ZZN4asio15system_categoryEvE8instance@GOTPCREL(%rip), %rbp
	movq	_ZN4asio6detail15system_categoryD1Ev@GOTPCREL(%rip), %rdi
	leaq	__dso_handle(%rip), %rdx
	movq	%rbp, %rsi
	call	__cxa_atexit@PLT
	jmp	.L1442
.L1451:
	leaq	.LC23(%rip), %rsi
	movq	%rsp, %rdi
	call	_ZN4asio6detail14do_throw_errorERKSt10error_codePKc@PLT
.L1452:
	call	__stack_chk_fail@PLT
	.cfi_endproc
.LFE2364:
	.size	_ZN4asio6detail11posix_mutexC2Ev, .-_ZN4asio6detail11posix_mutexC2Ev
	.weak	_ZN4asio6detail11posix_mutexC1Ev
	.set	_ZN4asio6detail11posix_mutexC1Ev,_ZN4asio6detail11posix_mutexC2Ev
	.section	.rodata._ZN4asio2ip16resolver_serviceINS0_3tcpEE12fork_serviceENS_10io_service10fork_eventE.str1.1,"aMS",@progbits,1
.LC24:
	.string	"thread"
	.section	.text._ZN4asio2ip16resolver_serviceINS0_3tcpEE12fork_serviceENS_10io_service10fork_eventE,"axG",@progbits,_ZN4asio2ip16resolver_serviceINS0_3tcpEE12fork_serviceENS_10io_service10fork_eventE,comdat
	.align 2
	.p2align 4,,15
	.weak	_ZN4asio2ip16resolver_serviceINS0_3tcpEE12fork_serviceENS_10io_service10fork_eventE
	.type	_ZN4asio2ip16resolver_serviceINS0_3tcpEE12fork_serviceENS_10io_service10fork_eventE, @function
_ZN4asio2ip16resolver_serviceINS0_3tcpEE12fork_serviceENS_10io_service10fork_eventE:
.LFB10052:
	.cfi_startproc
	.cfi_personality 0x9b,DW.ref.__gxx_personality_v0
	.cfi_lsda 0x1b,.LLSDA10052
	pushq	%r13
	.cfi_def_cfa_offset 16
	.cfi_offset 13, -16
	pushq	%r12
	.cfi_def_cfa_offset 24
	.cfi_offset 12, -24
	pushq	%rbp
	.cfi_def_cfa_offset 32
	.cfi_offset 6, -32
	pushq	%rbx
	.cfi_def_cfa_offset 40
	.cfi_offset 3, -40
	subq	$40, %rsp
	.cfi_def_cfa_offset 80
	movq	%fs:40, %rax
	movq	%rax, 24(%rsp)
	xorl	%eax, %eax
	cmpq	$0, 112(%rdi)
	je	.L1453
	movq	88(%rdi), %rax
	testl	%esi, %esi
	movq	%rdi, %rbx
	movq	8(%rax), %rbp
	leaq	48(%rbp), %r12
	movq	%r12, %rdi
	je	.L1471
	call	pthread_mutex_lock@PLT
	movb	$0, 208(%rbp)
	movq	%r12, %rdi
	call	pthread_mutex_unlock@PLT
	movl	$16, %edi
	movq	88(%rbx), %r13
.LEHB38:
	call	_Znwm@PLT
.LEHE38:
	movl	$16, %edi
	movb	$0, 8(%rax)
	movq	%rax, %rbp
.LEHB39:
	call	_Znwm@PLT
.LEHE39:
	movq	%rax, %r12
	movq	_ZTVN4asio6detail12posix_thread4funcINS0_21resolver_service_base22work_io_service_runnerEEE@GOTPCREL(%rip), %rax
	movq	asio_detail_posix_thread_function@GOTPCREL(%rip), %rdx
	movq	%r13, 8(%r12)
	xorl	%esi, %esi
	movq	%r12, %rcx
	movq	%rbp, %rdi
	addq	$16, %rax
	movq	%rax, (%r12)
	call	pthread_create@PLT
	testl	%eax, %eax
	movl	%eax, %r13d
	jne	.L1472
	movq	112(%rbx), %r12
	testq	%r12, %r12
	je	.L1460
	cmpb	$0, 8(%r12)
	je	.L1473
.L1461:
	movl	$16, %esi
	movq	%r12, %rdi
	call	_ZdlPvm@PLT
.L1460:
	movq	%rbp, 112(%rbx)
.L1453:
	movq	24(%rsp), %rax
	xorq	%fs:40, %rax
	jne	.L1474
	addq	$40, %rsp
	.cfi_remember_state
	.cfi_def_cfa_offset 40
	popq	%rbx
	.cfi_def_cfa_offset 32
	popq	%rbp
	.cfi_def_cfa_offset 24
	popq	%r12
	.cfi_def_cfa_offset 16
	popq	%r13
	.cfi_def_cfa_offset 8
	ret
	.p2align 4,,10
	.p2align 3
.L1471:
	.cfi_restore_state
	call	pthread_mutex_lock@PLT
	orq	$1, 136(%rbp)
	leaq	88(%rbp), %rdi
	movb	$1, 208(%rbp)
	call	pthread_cond_broadcast@PLT
	cmpb	$0, 176(%rbp)
	jne	.L1456
	movq	144(%rbp), %rax
	testq	%rax, %rax
	je	.L1456
	leaq	88(%rax), %rdx
	movb	$1, 176(%rbp)
	movl	$-2147483639, (%rsp)
	movq	%rsp, %rcx
	movl	$3, %esi
	movq	%rdx, 4(%rsp)
	movl	88(%rax), %edx
	movl	96(%rax), %edi
	call	epoll_ctl@PLT
.L1456:
	movq	%r12, %rdi
	call	pthread_mutex_unlock@PLT
	movq	112(%rbx), %rbx
	cmpb	$0, 8(%rbx)
	jne	.L1453
	movq	(%rbx), %rdi
	xorl	%esi, %esi
.LEHB40:
	call	pthread_join@PLT
.LEHE40:
	movb	$1, 8(%rbx)
	jmp	.L1453
	.p2align 4,,10
	.p2align 3
.L1473:
	movq	(%r12), %rdi
	call	pthread_detach@PLT
	jmp	.L1461
.L1474:
	call	__stack_chk_fail@PLT
.L1472:
	movq	%r12, %rdi
	call	_ZN4asio6detail12posix_thread4funcINS0_21resolver_service_base22work_io_service_runnerEED0Ev@PLT
	call	_ZN4asio15system_categoryEv@PLT
	leaq	.LC24(%rip), %rsi
	movq	%rsp, %rdi
	movl	%r13d, (%rsp)
	movq	%rax, 8(%rsp)
.LEHB41:
	call	_ZN4asio6detail14do_throw_errorERKSt10error_codePKc@PLT
.LEHE41:
.L1463:
	movq	%rax, %rbx
	movq	%rbp, %rdi
	movl	$16, %esi
	call	_ZdlPvm@PLT
	movq	%rbx, %rdi
.LEHB42:
	call	_Unwind_Resume@PLT
.LEHE42:
	.cfi_endproc
.LFE10052:
	.section	.gcc_except_table._ZN4asio2ip16resolver_serviceINS0_3tcpEE12fork_serviceENS_10io_service10fork_eventE,"aG",@progbits,_ZN4asio2ip16resolver_serviceINS0_3tcpEE12fork_serviceENS_10io_service10fork_eventE,comdat
.LLSDA10052:
	.byte	0xff
	.byte	0xff
	.byte	0x1
	.uleb128 .LLSDACSE10052-.LLSDACSB10052
.LLSDACSB10052:
	.uleb128 .LEHB38-.LFB10052
	.uleb128 .LEHE38-.LEHB38
	.uleb128 0
	.uleb128 0
	.uleb128 .LEHB39-.LFB10052
	.uleb128 .LEHE39-.LEHB39
	.uleb128 .L1463-.LFB10052
	.uleb128 0
	.uleb128 .LEHB40-.LFB10052
	.uleb128 .LEHE40-.LEHB40
	.uleb128 0
	.uleb128 0
	.uleb128 .LEHB41-.LFB10052
	.uleb128 .LEHE41-.LEHB41
	.uleb128 .L1463-.LFB10052
	.uleb128 0
	.uleb128 .LEHB42-.LFB10052
	.uleb128 .LEHE42-.LEHB42
	.uleb128 0
	.uleb128 0
.LLSDACSE10052:
	.section	.text._ZN4asio2ip16resolver_serviceINS0_3tcpEE12fork_serviceENS_10io_service10fork_eventE,"axG",@progbits,_ZN4asio2ip16resolver_serviceINS0_3tcpEE12fork_serviceENS_10io_service10fork_eventE,comdat
	.size	_ZN4asio2ip16resolver_serviceINS0_3tcpEE12fork_serviceENS_10io_service10fork_eventE, .-_ZN4asio2ip16resolver_serviceINS0_3tcpEE12fork_serviceENS_10io_service10fork_eventE
	.section	.text._ZN4asio6detail11object_poolINS0_13epoll_reactor16descriptor_stateEED2Ev,"axG",@progbits,_ZN4asio6detail11object_poolINS0_13epoll_reactor16descriptor_stateEED5Ev,comdat
	.align 2
	.p2align 4,,15
	.weak	_ZN4asio6detail11object_poolINS0_13epoll_reactor16descriptor_stateEED2Ev
	.type	_ZN4asio6detail11object_poolINS0_13epoll_reactor16descriptor_stateEED2Ev, @function
_ZN4asio6detail11object_poolINS0_13epoll_reactor16descriptor_stateEED2Ev:
.LFB7284:
	.cfi_startproc
	.cfi_personality 0x9b,DW.ref.__gxx_personality_v0
	.cfi_lsda 0x1b,.LLSDA7284
	pushq	%r15
	.cfi_def_cfa_offset 16
	.cfi_offset 15, -16
	pushq	%r14
	.cfi_def_cfa_offset 24
	.cfi_offset 14, -24
	pushq	%r13
	.cfi_def_cfa_offset 32
	.cfi_offset 13, -32
	pushq	%r12
	.cfi_def_cfa_offset 40
	.cfi_offset 12, -40
	pushq	%rbp
	.cfi_def_cfa_offset 48
	.cfi_offset 6, -48
	pushq	%rbx
	.cfi_def_cfa_offset 56
	.cfi_offset 3, -56
	subq	$56, %rsp
	.cfi_def_cfa_offset 112
	movq	(%rdi), %r12
	movq	%fs:40, %rdx
	movq	%rdx, 40(%rsp)
	xorl	%edx, %edx
	movq	%rdi, 8(%rsp)
	testq	%r12, %r12
	je	.L1476
	leaq	16(%rsp), %rbp
	.p2align 4,,10
	.p2align 3
.L1482:
	movq	24(%r12), %r14
	leaq	128(%r12), %r15
	leaq	80(%r12), %r13
.L1481:
	movq	(%r15), %rsi
	testq	%rsi, %rsi
	movq	%rsi, (%rsp)
	je	.L1477
	call	_ZNSt3_V215system_categoryEv@PLT
	movq	(%rsp), %rsi
	movq	%rax, %rbx
	jmp	.L1478
	.p2align 4,,10
	.p2align 3
.L1479:
	movq	$0, (%rsi)
	movq	8(%rsi), %rax
	xorl	%ecx, %ecx
	xorl	%edi, %edi
	movl	$0, 16(%rsp)
	movq	%rbx, 24(%rsp)
	movq	%rbp, %rdx
	call	*%rax
	movq	(%r15), %rsi
	testq	%rsi, %rsi
	je	.L1477
.L1478:
	movq	(%rsi), %rax
	testq	%rax, %rax
	movq	%rax, (%r15)
	jne	.L1479
	movq	$0, 8(%r15)
	jmp	.L1479
	.p2align 4,,10
	.p2align 3
.L1477:
	subq	$16, %r15
	cmpq	%r13, %r15
	jne	.L1481
	leaq	40(%r12), %rdi
	call	pthread_mutex_destroy@PLT
	movq	%r12, %rdi
	movl	$152, %esi
	movq	%r14, %r12
	call	_ZdlPvm@PLT
	testq	%r14, %r14
	jne	.L1482
.L1476:
	movq	8(%rsp), %rax
	movq	8(%rax), %r12
	testq	%r12, %r12
	je	.L1475
	leaq	16(%rsp), %rbp
	.p2align 4,,10
	.p2align 3
.L1489:
	movq	24(%r12), %r14
	leaq	128(%r12), %r15
	leaq	80(%r12), %r13
.L1488:
	movq	(%r15), %rsi
	testq	%rsi, %rsi
	movq	%rsi, (%rsp)
	je	.L1484
	call	_ZNSt3_V215system_categoryEv@PLT
	movq	(%rsp), %rsi
	movq	%rax, %rbx
	jmp	.L1485
	.p2align 4,,10
	.p2align 3
.L1486:
	movq	$0, (%rsi)
	movq	8(%rsi), %rax
	xorl	%ecx, %ecx
	xorl	%edi, %edi
	movl	$0, 16(%rsp)
	movq	%rbx, 24(%rsp)
	movq	%rbp, %rdx
	call	*%rax
	movq	(%r15), %rsi
	testq	%rsi, %rsi
	je	.L1484
.L1485:
	movq	(%rsi), %rax
	testq	%rax, %rax
	movq	%rax, (%r15)
	jne	.L1486
	movq	$0, 8(%r15)
	jmp	.L1486
	.p2align 4,,10
	.p2align 3
.L1484:
	subq	$16, %r15
	cmpq	%r15, %r13
	jne	.L1488
	leaq	40(%r12), %rdi
	call	pthread_mutex_destroy@PLT
	movq	%r12, %rdi
	movl	$152, %esi
	movq	%r14, %r12
	call	_ZdlPvm@PLT
	testq	%r14, %r14
	jne	.L1489
.L1475:
	movq	40(%rsp), %rax
	xorq	%fs:40, %rax
	jne	.L1516
	addq	$56, %rsp
	.cfi_remember_state
	.cfi_def_cfa_offset 56
	popq	%rbx
	.cfi_def_cfa_offset 48
	popq	%rbp
	.cfi_def_cfa_offset 40
	popq	%r12
	.cfi_def_cfa_offset 32
	popq	%r13
	.cfi_def_cfa_offset 24
	popq	%r14
	.cfi_def_cfa_offset 16
	popq	%r15
	.cfi_def_cfa_offset 8
	ret
.L1516:
	.cfi_restore_state
	call	__stack_chk_fail@PLT
	.cfi_endproc
.LFE7284:
	.section	.gcc_except_table._ZN4asio6detail11object_poolINS0_13epoll_reactor16descriptor_stateEED2Ev,"aG",@progbits,_ZN4asio6detail11object_poolINS0_13epoll_reactor16descriptor_stateEED5Ev,comdat
.LLSDA7284:
	.byte	0xff
	.byte	0xff
	.byte	0x1
	.uleb128 .LLSDACSE7284-.LLSDACSB7284
.LLSDACSB7284:
.LLSDACSE7284:
	.section	.text._ZN4asio6detail11object_poolINS0_13epoll_reactor16descriptor_stateEED2Ev,"axG",@progbits,_ZN4asio6detail11object_poolINS0_13epoll_reactor16descriptor_stateEED5Ev,comdat
	.size	_ZN4asio6detail11object_poolINS0_13epoll_reactor16descriptor_stateEED2Ev, .-_ZN4asio6detail11object_poolINS0_13epoll_reactor16descriptor_stateEED2Ev
	.weak	_ZN4asio6detail11object_poolINS0_13epoll_reactor16descriptor_stateEED1Ev
	.set	_ZN4asio6detail11object_poolINS0_13epoll_reactor16descriptor_stateEED1Ev,_ZN4asio6detail11object_poolINS0_13epoll_reactor16descriptor_stateEED2Ev
	.section	.text._ZN4asio6detail16service_registry6createINS0_13epoll_reactorEEEPNS_10io_service7serviceERS4_,"axG",@progbits,_ZN4asio6detail16service_registry6createINS0_13epoll_reactorEEEPNS_10io_service7serviceERS4_,comdat
	.align 2
	.p2align 4,,15
	.weak	_ZN4asio6detail16service_registry6createINS0_13epoll_reactorEEEPNS_10io_service7serviceERS4_
	.type	_ZN4asio6detail16service_registry6createINS0_13epoll_reactorEEEPNS_10io_service7serviceERS4_, @function
_ZN4asio6detail16service_registry6createINS0_13epoll_reactorEEEPNS_10io_service7serviceERS4_:
.LFB8358:
	.cfi_startproc
	.cfi_personality 0x9b,DW.ref.__gxx_personality_v0
	.cfi_lsda 0x1b,.LLSDA8358
	pushq	%r15
	.cfi_def_cfa_offset 16
	.cfi_offset 15, -16
	pushq	%r14
	.cfi_def_cfa_offset 24
	.cfi_offset 14, -24
	pushq	%r13
	.cfi_def_cfa_offset 32
	.cfi_offset 13, -32
	pushq	%r12
	.cfi_def_cfa_offset 40
	.cfi_offset 12, -40
	pushq	%rbp
	.cfi_def_cfa_offset 48
	.cfi_offset 6, -48
	pushq	%rbx
	.cfi_def_cfa_offset 56
	.cfi_offset 3, -56
	movq	%rdi, %rbp
	movl	$176, %edi
	subq	$120, %rsp
	.cfi_def_cfa_offset 176
	movq	%fs:40, %rax
	movq	%rax, 104(%rsp)
	xorl	%eax, %eax
.LEHB43:
	call	_Znwm@PLT
.LEHE43:
	movq	%rbp, 24(%rax)
	movq	%rax, %rbx
	movq	$0, 8(%rax)
	movq	$0, 16(%rax)
	movq	$0, 32(%rax)
	leaq	48(%rbx), %r13
	movq	_ZTVN4asio6detail13epoll_reactorE@GOTPCREL(%rip), %rax
	xorl	%esi, %esi
	movq	%r13, %rdi
	addq	$16, %rax
	movq	%rax, (%rbx)
	movq	8(%rbp), %rax
	movq	%rax, 40(%rbx)
	call	pthread_mutex_init@PLT
	movq	_ZGVZN4asio15system_categoryEvE8instance@GOTPCREL(%rip), %rbp
	movl	%eax, %r14d
	movzbl	0(%rbp), %eax
	testb	%al, %al
	je	.L1518
.L1588:
	movq	_ZZN4asio15system_categoryEvE8instance@GOTPCREL(%rip), %r12
.L1519:
	testl	%r14d, %r14d
	movl	%r14d, 32(%rsp)
	movq	%r12, 40(%rsp)
	jne	.L1589
	xorl	%edi, %edi
	movl	$526336, %esi
	leaq	88(%rbx), %r14
	call	eventfd@PLT
	cmpl	$-1, %eax
	movl	%eax, 88(%rbx)
	movl	%eax, 92(%rbx)
	je	.L1590
.L1523:
	movl	$524288, %edi
	call	epoll_create1@PLT
	cmpl	$-1, %eax
	movl	%eax, %r15d
	je	.L1591
.L1529:
	movl	$524288, %esi
	movl	$1, %edi
	movl	%r15d, 96(%rbx)
	call	timerfd_create@PLT
	cmpl	$-1, %eax
	movl	%eax, %r15d
	je	.L1592
.L1532:
	movl	%r15d, 100(%rbx)
	leaq	120(%rbx), %r15
	xorl	%esi, %esi
	movq	$0, 104(%rbx)
	movb	$0, 112(%rbx)
	movq	%r15, %rdi
	call	pthread_mutex_init@PLT
	movl	%eax, %ecx
	movzbl	0(%rbp), %eax
	testb	%al, %al
	je	.L1593
.L1536:
	testl	%ecx, %ecx
	movl	%ecx, 80(%rsp)
	movq	%r12, 88(%rsp)
	jne	.L1594
	movl	88(%rbx), %edx
	movl	96(%rbx), %edi
	leaq	80(%rsp), %rbp
	movl	$1, %esi
	movq	$0, 160(%rbx)
	movq	$0, 168(%rbx)
	movq	%rbp, %rcx
	movl	$-2147483639, 80(%rsp)
	movq	%r14, 84(%rsp)
	call	epoll_ctl@PLT
	movl	92(%rbx), %edi
	leaq	24(%rsp), %rsi
	movl	$8, %edx
	movq	$1, 24(%rsp)
.LEHB44:
	call	write@PLT
.LEHE44:
	movl	100(%rbx), %edx
	cmpl	$-1, %edx
	je	.L1517
	movl	96(%rbx), %edi
	leaq	100(%rbx), %rax
	movq	%rbp, %rcx
	movl	$1, %esi
	movl	$9, 80(%rsp)
	movq	%rax, 84(%rsp)
	call	epoll_ctl@PLT
.L1517:
	movq	104(%rsp), %rcx
	xorq	%fs:40, %rcx
	movq	%rbx, %rax
	jne	.L1595
	addq	$120, %rsp
	.cfi_remember_state
	.cfi_def_cfa_offset 56
	popq	%rbx
	.cfi_def_cfa_offset 48
	popq	%rbp
	.cfi_def_cfa_offset 40
	popq	%r12
	.cfi_def_cfa_offset 32
	popq	%r13
	.cfi_def_cfa_offset 24
	popq	%r14
	.cfi_def_cfa_offset 16
	popq	%r15
	.cfi_def_cfa_offset 8
	ret
	.p2align 4,,10
	.p2align 3
.L1592:
	.cfi_restore_state
	call	__errno_location@PLT
	cmpl	$22, (%rax)
	jne	.L1532
	xorl	%esi, %esi
	movl	$1, %edi
	call	timerfd_create@PLT
	cmpl	$-1, %eax
	je	.L1532
	movl	%eax, %r15d
	movl	%eax, %edi
	movl	$1, %edx
	movl	$2, %esi
	xorl	%eax, %eax
.LEHB45:
	call	fcntl@PLT
.LEHE45:
	jmp	.L1532
	.p2align 4,,10
	.p2align 3
.L1518:
	movq	%rbp, %rdi
	call	__cxa_guard_acquire@PLT
	testl	%eax, %eax
	je	.L1588
	movq	%rbp, %rdi
	call	__cxa_guard_release@PLT
	movq	_ZZN4asio15system_categoryEvE8instance@GOTPCREL(%rip), %r12
	movq	_ZN4asio6detail15system_categoryD1Ev@GOTPCREL(%rip), %rdi
	leaq	__dso_handle(%rip), %rdx
	movq	%r12, %rsi
	call	__cxa_atexit@PLT
	jmp	.L1519
	.p2align 4,,10
	.p2align 3
.L1593:
	movq	%rbp, %rdi
	movl	%ecx, (%rsp)
	call	__cxa_guard_acquire@PLT
	testl	%eax, %eax
	movl	(%rsp), %ecx
	je	.L1536
	movq	%rbp, %rdi
	call	__cxa_guard_release@PLT
	movq	_ZN4asio6detail15system_categoryD1Ev@GOTPCREL(%rip), %rdi
	leaq	__dso_handle(%rip), %rdx
	movq	%r12, %rsi
	call	__cxa_atexit@PLT
	movl	(%rsp), %ecx
	jmp	.L1536
	.p2align 4,,10
	.p2align 3
.L1590:
	call	__errno_location@PLT
	cmpl	$22, (%rax)
	movq	%rax, %r15
	je	.L1596
.L1525:
	leaq	96(%rsp), %rdi
	call	pipe@PLT
	testl	%eax, %eax
	jne	.L1597
	movl	96(%rsp), %edi
	movl	$2048, %edx
	movl	$4, %esi
	xorl	%eax, %eax
	movl	%edi, 88(%rbx)
.LEHB46:
	call	fcntl@PLT
	movl	88(%rbx), %edi
	movl	$1, %edx
	movl	$2, %esi
	xorl	%eax, %eax
	call	fcntl@PLT
	movl	100(%rsp), %edi
	movl	$2048, %edx
	movl	$4, %esi
	xorl	%eax, %eax
	movl	%edi, 92(%rbx)
	call	fcntl@PLT
	movl	92(%rbx), %edi
	movl	$1, %edx
	movl	$2, %esi
	xorl	%eax, %eax
	call	fcntl@PLT
.LEHE46:
	jmp	.L1523
	.p2align 4,,10
	.p2align 3
.L1591:
	call	__errno_location@PLT
	movq	%rax, %rcx
	movl	(%rax), %eax
	subl	$22, %eax
	andl	$-17, %eax
	jne	.L1530
	movl	$20000, %edi
	movq	%rcx, (%rsp)
	call	epoll_create@PLT
	cmpl	$-1, %eax
	movl	%eax, 12(%rsp)
	movl	%eax, %edi
	movq	(%rsp), %rcx
	jne	.L1598
.L1530:
	movq	%rcx, (%rsp)
	call	_ZN4asio15system_categoryEv@PLT
	movq	(%rsp), %rcx
	movq	%rax, 72(%rsp)
	movl	(%rcx), %ecx
	testl	%ecx, %ecx
	movl	%ecx, 64(%rsp)
	je	.L1529
	leaq	64(%rsp), %rdi
	leaq	.LC21(%rip), %rsi
.LEHB47:
	call	_ZN4asio6detail14do_throw_errorERKSt10error_codePKc@PLT
	.p2align 4,,10
	.p2align 3
.L1598:
	movl	$1, %edx
	movl	$2, %esi
	xorl	%eax, %eax
	call	fcntl@PLT
.LEHE47:
	movl	12(%rsp), %r15d
	jmp	.L1529
	.p2align 4,,10
	.p2align 3
.L1597:
	call	_ZN4asio15system_categoryEv@PLT
	movl	(%r15), %edx
	movq	%rax, 56(%rsp)
	testl	%edx, %edx
	movl	%edx, 48(%rsp)
	je	.L1523
	leaq	48(%rsp), %rdi
	leaq	.LC20(%rip), %rsi
.LEHB48:
	call	_ZN4asio6detail14do_throw_errorERKSt10error_codePKc@PLT
	.p2align 4,,10
	.p2align 3
.L1596:
	xorl	%esi, %esi
	xorl	%edi, %edi
	call	eventfd@PLT
	cmpl	$-1, %eax
	movl	%eax, 88(%rbx)
	movl	%eax, 92(%rbx)
	je	.L1525
	movl	%eax, %edi
	movl	$2048, %edx
	movl	$4, %esi
	xorl	%eax, %eax
	call	fcntl@PLT
	movl	88(%rbx), %edi
	movl	$1, %edx
	movl	$2, %esi
	xorl	%eax, %eax
	call	fcntl@PLT
.LEHE48:
	cmpl	$-1, 88(%rbx)
	jne	.L1523
	jmp	.L1525
.L1553:
	movq	%rax, %rbp
.L1541:
	movl	92(%rbx), %edi
	movl	88(%rbx), %eax
	cmpl	$-1, %edi
	je	.L1542
	cmpl	%edi, %eax
	je	.L1543
	call	close@PLT
	movl	88(%rbx), %eax
.L1542:
	cmpl	$-1, %eax
	movl	%eax, %edi
	je	.L1545
.L1543:
	call	close@PLT
.L1545:
	movq	%r13, %rdi
	call	pthread_mutex_destroy@PLT
.L1546:
	movq	%rbx, %rdi
	movl	$176, %esi
	call	_ZdlPvm@PLT
	movq	%rbp, %rdi
.LEHB49:
	call	_Unwind_Resume@PLT
.LEHE49:
.L1594:
	leaq	80(%rsp), %rdi
	leaq	.LC23(%rip), %rsi
.LEHB50:
	call	_ZN4asio6detail14do_throw_errorERKSt10error_codePKc@PLT
.LEHE50:
.L1595:
	call	__stack_chk_fail@PLT
.L1589:
	leaq	32(%rsp), %rdi
	leaq	.LC23(%rip), %rsi
.LEHB51:
	call	_ZN4asio6detail14do_throw_errorERKSt10error_codePKc@PLT
.LEHE51:
.L1551:
	movq	%rax, %rbp
	jmp	.L1546
.L1554:
	leaq	160(%rbx), %rdi
	movq	%rax, %rbp
	call	_ZN4asio6detail11object_poolINS0_13epoll_reactor16descriptor_stateEED1Ev@PLT
	movq	%r15, %rdi
	call	pthread_mutex_destroy@PLT
	jmp	.L1541
.L1552:
	movq	%rax, %rbp
	jmp	.L1545
	.cfi_endproc
.LFE8358:
	.section	.gcc_except_table._ZN4asio6detail16service_registry6createINS0_13epoll_reactorEEEPNS_10io_service7serviceERS4_,"aG",@progbits,_ZN4asio6detail16service_registry6createINS0_13epoll_reactorEEEPNS_10io_service7serviceERS4_,comdat
.LLSDA8358:
	.byte	0xff
	.byte	0xff
	.byte	0x1
	.uleb128 .LLSDACSE8358-.LLSDACSB8358
.LLSDACSB8358:
	.uleb128 .LEHB43-.LFB8358
	.uleb128 .LEHE43-.LEHB43
	.uleb128 0
	.uleb128 0
	.uleb128 .LEHB44-.LFB8358
	.uleb128 .LEHE44-.LEHB44
	.uleb128 .L1554-.LFB8358
	.uleb128 0
	.uleb128 .LEHB45-.LFB8358
	.uleb128 .LEHE45-.LEHB45
	.uleb128 .L1553-.LFB8358
	.uleb128 0
	.uleb128 .LEHB46-.LFB8358
	.uleb128 .LEHE46-.LEHB46
	.uleb128 .L1552-.LFB8358
	.uleb128 0
	.uleb128 .LEHB47-.LFB8358
	.uleb128 .LEHE47-.LEHB47
	.uleb128 .L1553-.LFB8358
	.uleb128 0
	.uleb128 .LEHB48-.LFB8358
	.uleb128 .LEHE48-.LEHB48
	.uleb128 .L1552-.LFB8358
	.uleb128 0
	.uleb128 .LEHB49-.LFB8358
	.uleb128 .LEHE49-.LEHB49
	.uleb128 0
	.uleb128 0
	.uleb128 .LEHB50-.LFB8358
	.uleb128 .LEHE50-.LEHB50
	.uleb128 .L1553-.LFB8358
	.uleb128 0
	.uleb128 .LEHB51-.LFB8358
	.uleb128 .LEHE51-.LEHB51
	.uleb128 .L1551-.LFB8358
	.uleb128 0
.LLSDACSE8358:
	.section	.text._ZN4asio6detail16service_registry6createINS0_13epoll_reactorEEEPNS_10io_service7serviceERS4_,"axG",@progbits,_ZN4asio6detail16service_registry6createINS0_13epoll_reactorEEEPNS_10io_service7serviceERS4_,comdat
	.size	_ZN4asio6detail16service_registry6createINS0_13epoll_reactorEEEPNS_10io_service7serviceERS4_, .-_ZN4asio6detail16service_registry6createINS0_13epoll_reactorEEEPNS_10io_service7serviceERS4_
	.section	.text._ZN4asio6detail8op_queueINS0_25task_io_service_operationEED2Ev,"axG",@progbits,_ZN4asio6detail8op_queueINS0_25task_io_service_operationEED5Ev,comdat
	.align 2
	.p2align 4,,15
	.weak	_ZN4asio6detail8op_queueINS0_25task_io_service_operationEED2Ev
	.type	_ZN4asio6detail8op_queueINS0_25task_io_service_operationEED2Ev, @function
_ZN4asio6detail8op_queueINS0_25task_io_service_operationEED2Ev:
.LFB7290:
	.cfi_startproc
	.cfi_personality 0x9b,DW.ref.__gxx_personality_v0
	.cfi_lsda 0x1b,.LLSDA7290
	pushq	%r12
	.cfi_def_cfa_offset 16
	.cfi_offset 12, -16
	pushq	%rbp
	.cfi_def_cfa_offset 24
	.cfi_offset 6, -24
	pushq	%rbx
	.cfi_def_cfa_offset 32
	.cfi_offset 3, -32
	subq	$48, %rsp
	.cfi_def_cfa_offset 80
	movq	(%rdi), %rsi
	movq	%fs:40, %rax
	movq	%rax, 40(%rsp)
	xorl	%eax, %eax
	testq	%rsi, %rsi
	movq	%rsi, 8(%rsp)
	je	.L1599
	movq	%rdi, %rbx
	leaq	16(%rsp), %rbp
	call	_ZNSt3_V215system_categoryEv@PLT
	movq	8(%rsp), %rsi
	movq	%rax, %r12
	jmp	.L1601
	.p2align 4,,10
	.p2align 3
.L1602:
	movq	$0, (%rsi)
	movq	8(%rsi), %rax
	xorl	%ecx, %ecx
	xorl	%edi, %edi
	movl	$0, 16(%rsp)
	movq	%r12, 24(%rsp)
	movq	%rbp, %rdx
	call	*%rax
	movq	(%rbx), %rsi
	testq	%rsi, %rsi
	je	.L1599
.L1601:
	movq	(%rsi), %rax
	testq	%rax, %rax
	movq	%rax, (%rbx)
	jne	.L1602
	movq	$0, 8(%rbx)
	jmp	.L1602
	.p2align 4,,10
	.p2align 3
.L1599:
	movq	40(%rsp), %rax
	xorq	%fs:40, %rax
	jne	.L1613
	addq	$48, %rsp
	.cfi_remember_state
	.cfi_def_cfa_offset 32
	popq	%rbx
	.cfi_def_cfa_offset 24
	popq	%rbp
	.cfi_def_cfa_offset 16
	popq	%r12
	.cfi_def_cfa_offset 8
	ret
.L1613:
	.cfi_restore_state
	call	__stack_chk_fail@PLT
	.cfi_endproc
.LFE7290:
	.section	.gcc_except_table._ZN4asio6detail8op_queueINS0_25task_io_service_operationEED2Ev,"aG",@progbits,_ZN4asio6detail8op_queueINS0_25task_io_service_operationEED5Ev,comdat
.LLSDA7290:
	.byte	0xff
	.byte	0xff
	.byte	0x1
	.uleb128 .LLSDACSE7290-.LLSDACSB7290
.LLSDACSB7290:
.LLSDACSE7290:
	.section	.text._ZN4asio6detail8op_queueINS0_25task_io_service_operationEED2Ev,"axG",@progbits,_ZN4asio6detail8op_queueINS0_25task_io_service_operationEED5Ev,comdat
	.size	_ZN4asio6detail8op_queueINS0_25task_io_service_operationEED2Ev, .-_ZN4asio6detail8op_queueINS0_25task_io_service_operationEED2Ev
	.weak	_ZN4asio6detail8op_queueINS0_25task_io_service_operationEED1Ev
	.set	_ZN4asio6detail8op_queueINS0_25task_io_service_operationEED1Ev,_ZN4asio6detail8op_queueINS0_25task_io_service_operationEED2Ev
	.section	.text._ZN4asio6detail13epoll_reactor16shutdown_serviceEv,"axG",@progbits,_ZN4asio6detail13epoll_reactor16shutdown_serviceEv,comdat
	.align 2
	.p2align 4,,15
	.weak	_ZN4asio6detail13epoll_reactor16shutdown_serviceEv
	.type	_ZN4asio6detail13epoll_reactor16shutdown_serviceEv, @function
_ZN4asio6detail13epoll_reactor16shutdown_serviceEv:
.LFB3188:
	.cfi_startproc
	.cfi_personality 0x9b,DW.ref.__gxx_personality_v0
	.cfi_lsda 0x1b,.LLSDA3188
	pushq	%r12
	.cfi_def_cfa_offset 16
	.cfi_offset 12, -16
	pushq	%rbp
	.cfi_def_cfa_offset 24
	.cfi_offset 6, -24
	leaq	48(%rdi), %rbp
	pushq	%rbx
	.cfi_def_cfa_offset 32
	.cfi_offset 3, -32
	movq	%rdi, %rbx
	movq	%rbp, %rdi
	subq	$64, %rsp
	.cfi_def_cfa_offset 96
	movq	%fs:40, %rax
	movq	%rax, 56(%rsp)
	xorl	%eax, %eax
	call	pthread_mutex_lock@PLT
	movb	$1, 112(%rbx)
	movq	%rbp, %rdi
	call	pthread_mutex_unlock@PLT
	movq	160(%rbx), %rax
	pxor	%xmm0, %xmm0
	testq	%rax, %rax
	movaps	%xmm0, 16(%rsp)
	je	.L1616
	xorl	%edi, %edi
	xorl	%edx, %edx
	xorl	%r8d, %r8d
	xorl	%r9d, %r9d
	jmp	.L1615
	.p2align 4,,10
	.p2align 3
.L1626:
	movq	32(%rax), %rsi
	testq	%rsi, %rsi
	je	.L1627
	movq	%rcx, 24(%rsi)
	movq	24(%rax), %rcx
.L1627:
	testq	%rcx, %rcx
	je	.L1628
	movq	32(%rax), %rsi
	movq	%rsi, 32(%rcx)
.L1628:
	movq	168(%rbx), %rcx
	movq	$0, 32(%rax)
	movq	%rcx, 24(%rax)
	movq	%rax, 168(%rbx)
	movq	160(%rbx), %rax
	testq	%rax, %rax
	je	.L1683
.L1615:
	movq	96(%rax), %rcx
	testq	%rcx, %rcx
	je	.L1617
	testq	%rdx, %rdx
	je	.L1684
	movq	%rcx, (%rdx)
.L1619:
	movq	104(%rax), %rdx
	movq	$0, 96(%rax)
	movl	$1, %edi
	movq	$0, 104(%rax)
.L1617:
	movq	112(%rax), %rcx
	testq	%rcx, %rcx
	je	.L1620
	testq	%rdx, %rdx
	je	.L1685
	movq	%rcx, (%rdx)
.L1622:
	movq	120(%rax), %rdx
	movq	$0, 112(%rax)
	movl	$1, %edi
	movq	$0, 120(%rax)
.L1620:
	movq	128(%rax), %rcx
	testq	%rcx, %rcx
	je	.L1623
	testq	%rdx, %rdx
	je	.L1686
	movq	%rcx, (%rdx)
.L1625:
	movq	136(%rax), %rdx
	movq	$0, 128(%rax)
	movl	$1, %edi
	movq	$0, 136(%rax)
.L1623:
	movb	$1, 144(%rax)
	cmpq	%rax, 160(%rbx)
	movq	24(%rax), %rcx
	jne	.L1626
	movq	%rcx, 160(%rbx)
	movq	24(%rax), %rcx
	jmp	.L1626
	.p2align 4,,10
	.p2align 3
.L1684:
	movq	%rcx, %r9
	movl	$1, %r8d
	jmp	.L1619
	.p2align 4,,10
	.p2align 3
.L1685:
	movq	%rcx, %r9
	movl	$1, %r8d
	jmp	.L1622
	.p2align 4,,10
	.p2align 3
.L1686:
	movq	%rcx, %r9
	movl	$1, %r8d
	jmp	.L1625
	.p2align 4,,10
	.p2align 3
.L1683:
	testb	%r8b, %r8b
	jne	.L1687
.L1631:
	testb	%dil, %dil
	jne	.L1688
	.p2align 4,,10
	.p2align 3
.L1616:
	movq	104(%rbx), %rbx
	testq	%rbx, %rbx
	je	.L1633
	leaq	16(%rsp), %rbp
	.p2align 4,,10
	.p2align 3
.L1634:
	movq	(%rbx), %rax
	movq	%rbp, %rsi
	movq	%rbx, %rdi
.LEHB52:
	call	*48(%rax)
.LEHE52:
	movq	8(%rbx), %rbx
	testq	%rbx, %rbx
	jne	.L1634
.L1633:
	movq	16(%rsp), %rsi
	testq	%rsi, %rsi
	movq	%rsi, 8(%rsp)
	je	.L1614
	pxor	%xmm0, %xmm0
	leaq	32(%rsp), %rbx
	movaps	%xmm0, 16(%rsp)
	call	_ZNSt3_V215system_categoryEv@PLT
	movq	%rax, %r12
	movq	8(%rsp), %rsi
	.p2align 4,,10
	.p2align 3
.L1636:
	movq	(%rsi), %rbp
	movq	8(%rsi), %rax
	xorl	%ecx, %ecx
	movq	$0, (%rsi)
	xorl	%edi, %edi
	movl	$0, 32(%rsp)
	movq	%r12, 40(%rsp)
	movq	%rbx, %rdx
	call	*%rax
	testq	%rbp, %rbp
	movq	%rbp, %rsi
	jne	.L1636
	movq	16(%rsp), %rsi
	testq	%rsi, %rsi
	movq	%rsi, 8(%rsp)
	je	.L1614
	call	_ZNSt3_V215system_categoryEv@PLT
	movq	8(%rsp), %rsi
	movq	%rax, %rbp
	jmp	.L1638
	.p2align 4,,10
	.p2align 3
.L1639:
	movq	$0, (%rsi)
	movq	8(%rsi), %rax
	xorl	%ecx, %ecx
	xorl	%edi, %edi
	movl	$0, 32(%rsp)
	movq	%rbp, 40(%rsp)
	movq	%rbx, %rdx
	call	*%rax
	movq	16(%rsp), %rsi
	testq	%rsi, %rsi
	je	.L1614
.L1638:
	movq	(%rsi), %rax
	testq	%rax, %rax
	movq	%rax, 16(%rsp)
	jne	.L1639
	movq	$0, 24(%rsp)
	jmp	.L1639
	.p2align 4,,10
	.p2align 3
.L1614:
	movq	56(%rsp), %rax
	xorq	%fs:40, %rax
	jne	.L1689
	addq	$64, %rsp
	.cfi_remember_state
	.cfi_def_cfa_offset 32
	popq	%rbx
	.cfi_def_cfa_offset 24
	popq	%rbp
	.cfi_def_cfa_offset 16
	popq	%r12
	.cfi_def_cfa_offset 8
	ret
.L1644:
	.cfi_restore_state
	movq	%rax, %rbx
	movq	%rbp, %rdi
	call	_ZN4asio6detail8op_queueINS0_25task_io_service_operationEED1Ev@PLT
	movq	%rbx, %rdi
.LEHB53:
	call	_Unwind_Resume@PLT
.LEHE53:
.L1688:
	movq	%rdx, 24(%rsp)
	jmp	.L1616
.L1687:
	movq	%r9, 16(%rsp)
	jmp	.L1631
.L1689:
	call	__stack_chk_fail@PLT
	.cfi_endproc
.LFE3188:
	.section	.gcc_except_table._ZN4asio6detail13epoll_reactor16shutdown_serviceEv,"aG",@progbits,_ZN4asio6detail13epoll_reactor16shutdown_serviceEv,comdat
.LLSDA3188:
	.byte	0xff
	.byte	0xff
	.byte	0x1
	.uleb128 .LLSDACSE3188-.LLSDACSB3188
.LLSDACSB3188:
	.uleb128 .LEHB52-.LFB3188
	.uleb128 .LEHE52-.LEHB52
	.uleb128 .L1644-.LFB3188
	.uleb128 0
	.uleb128 .LEHB53-.LFB3188
	.uleb128 .LEHE53-.LEHB53
	.uleb128 0
	.uleb128 0
.LLSDACSE3188:
	.section	.text._ZN4asio6detail13epoll_reactor16shutdown_serviceEv,"axG",@progbits,_ZN4asio6detail13epoll_reactor16shutdown_serviceEv,comdat
	.size	_ZN4asio6detail13epoll_reactor16shutdown_serviceEv, .-_ZN4asio6detail13epoll_reactor16shutdown_serviceEv
	.section	.text._ZN4asio6detail13epoll_reactor21deregister_descriptorEiRPNS1_16descriptor_stateEb,"axG",@progbits,_ZN4asio6detail13epoll_reactor21deregister_descriptorEiRPNS1_16descriptor_stateEb,comdat
	.align 2
	.p2align 4,,15
	.weak	_ZN4asio6detail13epoll_reactor21deregister_descriptorEiRPNS1_16descriptor_stateEb
	.type	_ZN4asio6detail13epoll_reactor21deregister_descriptorEiRPNS1_16descriptor_stateEb, @function
_ZN4asio6detail13epoll_reactor21deregister_descriptorEiRPNS1_16descriptor_stateEb:
.LFB3196:
	.cfi_startproc
	pushq	%r15
	.cfi_def_cfa_offset 16
	.cfi_offset 15, -16
	pushq	%r14
	.cfi_def_cfa_offset 24
	.cfi_offset 14, -24
	pushq	%r13
	.cfi_def_cfa_offset 32
	.cfi_offset 13, -32
	pushq	%r12
	.cfi_def_cfa_offset 40
	.cfi_offset 12, -40
	pushq	%rbp
	.cfi_def_cfa_offset 48
	.cfi_offset 6, -48
	pushq	%rbx
	.cfi_def_cfa_offset 56
	.cfi_offset 3, -56
	subq	$72, %rsp
	.cfi_def_cfa_offset 128
	movq	(%rdx), %r13
	movq	%fs:40, %rax
	movq	%rax, 56(%rsp)
	xorl	%eax, %eax
	testq	%r13, %r13
	je	.L1690
	leaq	40(%r13), %rax
	movq	%rdx, %r12
	movq	%rdi, %r15
	movl	%esi, %ebx
	movl	%ecx, %ebp
	movq	%rax, %rdi
	movq	%rax, 16(%rsp)
	call	pthread_mutex_lock@PLT
	movq	(%r12), %rdi
	cmpb	$0, 144(%rdi)
	jne	.L1692
	leaq	32(%rsp), %rax
	testb	%bpl, %bpl
	movq	%rax, 24(%rsp)
	je	.L1727
.L1693:
	pxor	%xmm0, %xmm0
	movl	$96, %r13d
	movl	$0, 4(%rsp)
	movaps	%xmm0, 32(%rsp)
.L1703:
	movslq	4(%rsp), %rbp
.L1694:
	movq	(%rdi,%r13), %r14
	testq	%r14, %r14
	je	.L1695
.L1729:
	movq	_ZGVZN4asio15system_categoryEvE8instance@GOTPCREL(%rip), %rbx
	movzbl	(%rbx), %eax
	testb	%al, %al
	je	.L1696
.L1726:
	movq	_ZZN4asio15system_categoryEvE8instance@GOTPCREL(%rip), %rbx
.L1697:
	movq	%rbp, %rax
	movl	$125, 24(%r14)
	movq	%rbx, 32(%r14)
	salq	$4, %rax
	addq	%rdi, %rax
	movq	96(%rax), %rdx
	testq	%rdx, %rdx
	je	.L1699
	movq	(%rdx), %rsi
	testq	%rsi, %rsi
	movq	%rsi, 96(%rax)
	je	.L1728
.L1700:
	movq	$0, (%rdx)
.L1699:
	movq	40(%rsp), %rax
	movq	$0, (%r14)
	testq	%rax, %rax
	je	.L1701
	movq	%r14, (%rax)
	movq	%r14, 40(%rsp)
	movq	(%rdi,%r13), %r14
	testq	%r14, %r14
	jne	.L1729
.L1695:
	addl	$1, 4(%rsp)
	addq	$16, %r13
	movl	4(%rsp), %eax
	cmpl	$3, %eax
	jne	.L1703
	movl	$-1, 88(%rdi)
	movq	(%r12), %rax
	leaq	120(%r15), %rbp
	movq	16(%rsp), %rdi
	movb	$1, 144(%rax)
	call	pthread_mutex_unlock@PLT
	movq	%rbp, %rdi
	movq	(%r12), %rbx
	call	pthread_mutex_lock@PLT
	cmpq	160(%r15), %rbx
	je	.L1730
.L1704:
	movq	32(%rbx), %rdx
	movq	24(%rbx), %rax
	testq	%rdx, %rdx
	je	.L1705
	movq	%rax, 24(%rdx)
	movq	24(%rbx), %rax
.L1705:
	testq	%rax, %rax
	je	.L1706
	movq	32(%rbx), %rdx
	movq	%rdx, 32(%rax)
.L1706:
	movq	168(%r15), %rax
	movq	%rbp, %rdi
	movq	$0, 32(%rbx)
	movq	%rax, 24(%rbx)
	movq	%rbx, 168(%r15)
	call	pthread_mutex_unlock@PLT
	movq	24(%rsp), %rbx
	movq	$0, (%r12)
	movq	40(%r15), %rdi
	movq	%rbx, %rsi
	call	_ZN4asio6detail15task_io_service25post_deferred_completionsERNS0_8op_queueINS0_25task_io_service_operationEEE@PLT
	movq	%rbx, %rdi
	call	_ZN4asio6detail8op_queueINS0_25task_io_service_operationEED1Ev@PLT
.L1690:
	movq	56(%rsp), %rax
	xorq	%fs:40, %rax
	jne	.L1731
	addq	$72, %rsp
	.cfi_remember_state
	.cfi_def_cfa_offset 56
	popq	%rbx
	.cfi_def_cfa_offset 48
	popq	%rbp
	.cfi_def_cfa_offset 40
	popq	%r12
	.cfi_def_cfa_offset 32
	popq	%r13
	.cfi_def_cfa_offset 24
	popq	%r14
	.cfi_def_cfa_offset 16
	popq	%r15
	.cfi_def_cfa_offset 8
	ret
	.p2align 4,,10
	.p2align 3
.L1692:
	.cfi_restore_state
	movq	16(%rsp), %rdi
	call	pthread_mutex_unlock@PLT
	jmp	.L1690
	.p2align 4,,10
	.p2align 3
.L1696:
	movq	%rbx, %rdi
	call	__cxa_guard_acquire@PLT
	testl	%eax, %eax
	jne	.L1724
	movq	(%r12), %rdi
	jmp	.L1726
	.p2align 4,,10
	.p2align 3
.L1701:
	movq	%r14, 8(%rsp)
	movq	8(%rsp), %xmm0
	punpcklqdq	%xmm0, %xmm0
	movaps	%xmm0, 32(%rsp)
	jmp	.L1694
	.p2align 4,,10
	.p2align 3
.L1728:
	movq	$0, 104(%rax)
	jmp	.L1700
	.p2align 4,,10
	.p2align 3
.L1724:
	movq	%rbx, %rdi
	call	__cxa_guard_release@PLT
	movq	_ZZN4asio15system_categoryEvE8instance@GOTPCREL(%rip), %rbx
	movq	_ZN4asio6detail15system_categoryD1Ev@GOTPCREL(%rip), %rdi
	leaq	__dso_handle(%rip), %rdx
	movq	%rbx, %rsi
	call	__cxa_atexit@PLT
	movq	(%r12), %rdi
	jmp	.L1697
	.p2align 4,,10
	.p2align 3
.L1727:
	movl	96(%r15), %edi
	movq	%rax, %rcx
	movl	%ebx, %edx
	movl	$2, %esi
	movl	$0, 32(%rsp)
	movq	$0, 36(%rsp)
	call	epoll_ctl@PLT
	movq	(%r12), %rdi
	jmp	.L1693
	.p2align 4,,10
	.p2align 3
.L1730:
	movq	24(%rbx), %rax
	movq	%rax, 160(%r15)
	jmp	.L1704
.L1731:
	call	__stack_chk_fail@PLT
	.cfi_endproc
.LFE3196:
	.size	_ZN4asio6detail13epoll_reactor21deregister_descriptorEiRPNS1_16descriptor_stateEb, .-_ZN4asio6detail13epoll_reactor21deregister_descriptorEiRPNS1_16descriptor_stateEb
	.section	.text._ZN4asio6detail28reactive_socket_service_base7destroyERNS1_24base_implementation_typeE,"axG",@progbits,_ZN4asio6detail28reactive_socket_service_base7destroyERNS1_24base_implementation_typeE,comdat
	.align 2
	.p2align 4,,15
	.weak	_ZN4asio6detail28reactive_socket_service_base7destroyERNS1_24base_implementation_typeE
	.type	_ZN4asio6detail28reactive_socket_service_base7destroyERNS1_24base_implementation_typeE, @function
_ZN4asio6detail28reactive_socket_service_base7destroyERNS1_24base_implementation_typeE:
.LFB3751:
	.cfi_startproc
	pushq	%rbx
	.cfi_def_cfa_offset 16
	.cfi_offset 3, -16
	movq	%rsi, %rbx
	subq	$32, %rsp
	.cfi_def_cfa_offset 48
	movl	(%rsi), %esi
	movq	%fs:40, %rax
	movq	%rax, 24(%rsp)
	xorl	%eax, %eax
	cmpl	$-1, %esi
	je	.L1732
	movzbl	4(%rbx), %ecx
	movq	(%rdi), %rdi
	leaq	8(%rbx), %rdx
	shrb	$6, %cl
	xorl	$1, %ecx
	andl	$1, %ecx
	call	_ZN4asio6detail13epoll_reactor21deregister_descriptorEiRPNS1_16descriptor_stateEb@PLT
	movl	$0, (%rsp)
	call	_ZNSt3_V215system_categoryEv@PLT
	movl	(%rbx), %edi
	leaq	4(%rbx), %rsi
	movq	%rsp, %rcx
	movl	$1, %edx
	movq	%rax, 8(%rsp)
	call	_ZN4asio6detail10socket_ops5closeEiRhbRSt10error_code@PLT
.L1732:
	movq	24(%rsp), %rax
	xorq	%fs:40, %rax
	jne	.L1739
	addq	$32, %rsp
	.cfi_remember_state
	.cfi_def_cfa_offset 16
	popq	%rbx
	.cfi_def_cfa_offset 8
	ret
.L1739:
	.cfi_restore_state
	call	__stack_chk_fail@PLT
	.cfi_endproc
.LFE3751:
	.size	_ZN4asio6detail28reactive_socket_service_base7destroyERNS1_24base_implementation_typeE, .-_ZN4asio6detail28reactive_socket_service_base7destroyERNS1_24base_implementation_typeE
	.section	.text._ZN4asio6detail10scoped_ptrINS_10io_serviceEED2Ev,"axG",@progbits,_ZN4asio6detail10scoped_ptrINS_10io_serviceEED5Ev,comdat
	.align 2
	.p2align 4,,15
	.weak	_ZN4asio6detail10scoped_ptrINS_10io_serviceEED2Ev
	.type	_ZN4asio6detail10scoped_ptrINS_10io_serviceEED2Ev, @function
_ZN4asio6detail10scoped_ptrINS_10io_serviceEED2Ev:
.LFB7450:
	.cfi_startproc
	.cfi_personality 0x9b,DW.ref.__gxx_personality_v0
	.cfi_lsda 0x1b,.LLSDA7450
	pushq	%r12
	.cfi_def_cfa_offset 16
	.cfi_offset 12, -16
	pushq	%rbp
	.cfi_def_cfa_offset 24
	.cfi_offset 6, -24
	pushq	%rbx
	.cfi_def_cfa_offset 32
	.cfi_offset 3, -32
	movq	(%rdi), %r12
	testq	%r12, %r12
	je	.L1740
	movq	(%r12), %rbp
	testq	%rbp, %rbp
	je	.L1742
	movq	56(%rbp), %rbx
	testq	%rbx, %rbx
	je	.L1743
	.p2align 4,,10
	.p2align 3
.L1744:
	movq	(%rbx), %rax
	movq	%rbx, %rdi
	call	*16(%rax)
	movq	32(%rbx), %rbx
	testq	%rbx, %rbx
	jne	.L1744
	movq	56(%rbp), %rdi
	testq	%rdi, %rdi
	je	.L1743
	.p2align 4,,10
	.p2align 3
.L1745:
	movq	32(%rdi), %rbx
	movq	(%rdi), %rax
	call	*8(%rax)
	testq	%rbx, %rbx
	movq	%rbx, 56(%rbp)
	movq	%rbx, %rdi
	jne	.L1745
.L1743:
	leaq	8(%rbp), %rdi
	call	pthread_mutex_destroy@PLT
	movl	$64, %esi
	movq	%rbp, %rdi
	call	_ZdlPvm@PLT
.L1742:
	popq	%rbx
	.cfi_remember_state
	.cfi_def_cfa_offset 24
	movq	%r12, %rdi
	movl	$16, %esi
	popq	%rbp
	.cfi_def_cfa_offset 16
	popq	%r12
	.cfi_def_cfa_offset 8
	jmp	_ZdlPvm@PLT
	.p2align 4,,10
	.p2align 3
.L1740:
	.cfi_restore_state
	popq	%rbx
	.cfi_def_cfa_offset 24
	popq	%rbp
	.cfi_def_cfa_offset 16
	popq	%r12
	.cfi_def_cfa_offset 8
	ret
	.cfi_endproc
.LFE7450:
	.section	.gcc_except_table._ZN4asio6detail10scoped_ptrINS_10io_serviceEED2Ev,"aG",@progbits,_ZN4asio6detail10scoped_ptrINS_10io_serviceEED5Ev,comdat
.LLSDA7450:
	.byte	0xff
	.byte	0xff
	.byte	0x1
	.uleb128 .LLSDACSE7450-.LLSDACSB7450
.LLSDACSB7450:
.LLSDACSE7450:
	.section	.text._ZN4asio6detail10scoped_ptrINS_10io_serviceEED2Ev,"axG",@progbits,_ZN4asio6detail10scoped_ptrINS_10io_serviceEED5Ev,comdat
	.size	_ZN4asio6detail10scoped_ptrINS_10io_serviceEED2Ev, .-_ZN4asio6detail10scoped_ptrINS_10io_serviceEED2Ev
	.weak	_ZN4asio6detail10scoped_ptrINS_10io_serviceEED1Ev
	.set	_ZN4asio6detail10scoped_ptrINS_10io_serviceEED1Ev,_ZN4asio6detail10scoped_ptrINS_10io_serviceEED2Ev
	.section	.rodata._ZN4asio6detail16service_registry6createINS_2ip16resolver_serviceINS3_3tcpEEEEEPNS_10io_service7serviceERS7_.str1.1,"aMS",@progbits,1
.LC25:
	.string	"event"
	.section	.text._ZN4asio6detail16service_registry6createINS_2ip16resolver_serviceINS3_3tcpEEEEEPNS_10io_service7serviceERS7_,"axG",@progbits,_ZN4asio6detail16service_registry6createINS_2ip16resolver_serviceINS3_3tcpEEEEEPNS_10io_service7serviceERS7_,comdat
	.align 2
	.p2align 4,,15
	.weak	_ZN4asio6detail16service_registry6createINS_2ip16resolver_serviceINS3_3tcpEEEEEPNS_10io_service7serviceERS7_
	.type	_ZN4asio6detail16service_registry6createINS_2ip16resolver_serviceINS3_3tcpEEEEEPNS_10io_service7serviceERS7_, @function
_ZN4asio6detail16service_registry6createINS_2ip16resolver_serviceINS3_3tcpEEEEEPNS_10io_service7serviceERS7_:
.LFB8991:
	.cfi_startproc
	.cfi_personality 0x9b,DW.ref.__gxx_personality_v0
	.cfi_lsda 0x1b,.LLSDA8991
	pushq	%r15
	.cfi_def_cfa_offset 16
	.cfi_offset 15, -16
	pushq	%r14
	.cfi_def_cfa_offset 24
	.cfi_offset 14, -24
	pushq	%r13
	.cfi_def_cfa_offset 32
	.cfi_offset 13, -32
	pushq	%r12
	.cfi_def_cfa_offset 40
	.cfi_offset 12, -40
	pushq	%rbp
	.cfi_def_cfa_offset 48
	.cfi_offset 6, -48
	pushq	%rbx
	.cfi_def_cfa_offset 56
	.cfi_offset 3, -56
	movq	%rdi, %rbx
	movl	$120, %edi
	subq	$120, %rsp
	.cfi_def_cfa_offset 176
	movq	%fs:40, %rax
	movq	%rax, 104(%rsp)
	xorl	%eax, %eax
.LEHB54:
	call	_Znwm@PLT
.LEHE54:
	movq	%rbx, 24(%rax)
	movq	%rax, %rbp
	movq	$0, 8(%rax)
	movq	$0, 16(%rax)
	movq	$0, 32(%rax)
	xorl	%esi, %esi
	movq	_ZTVN4asio2ip16resolver_serviceINS0_3tcpEEE@GOTPCREL(%rip), %rax
	addq	$16, %rax
	movq	%rax, 0(%rbp)
	movq	8(%rbx), %rax
	movq	%rax, 40(%rbp)
	leaq	48(%rbp), %rax
	movq	%rax, %rdi
	movq	%rax, (%rsp)
	call	pthread_mutex_init@PLT
	movq	_ZGVZN4asio15system_categoryEvE8instance@GOTPCREL(%rip), %r12
	movl	%eax, %ebx
	movzbl	(%r12), %eax
	testb	%al, %al
	je	.L1759
.L1807:
	movq	_ZZN4asio15system_categoryEvE8instance@GOTPCREL(%rip), %r14
.L1760:
	testl	%ebx, %ebx
	movl	%ebx, 32(%rsp)
	movq	%r14, 40(%rsp)
	jne	.L1808
	movl	$16, %edi
.LEHB55:
	call	_Znwm@PLT
.LEHE55:
	movl	$64, %edi
	movq	%rax, %r13
.LEHB56:
	call	_Znwm@PLT
.LEHE56:
	movq	%rax, %r15
	leaq	8(%rax), %rax
	xorl	%esi, %esi
	movq	%rax, %rdi
	movq	%rax, 8(%rsp)
	call	pthread_mutex_init@PLT
	movl	%eax, %ebx
	movzbl	(%r12), %eax
	testb	%al, %al
	je	.L1809
.L1764:
	testl	%ebx, %ebx
	movl	%ebx, 48(%rsp)
	movq	%r14, 56(%rsp)
	jne	.L1810
	movl	$216, %edi
	movq	%r13, 48(%r15)
.LEHB57:
	call	_Znwm@PLT
.LEHE57:
	movq	%rax, %rbx
	movq	$0, 8(%rax)
	movq	$0, 16(%rax)
	movq	%r13, 24(%rax)
	movq	$0, 32(%rax)
	xorl	%esi, %esi
	movq	_ZTVN4asio6detail15task_io_serviceE@GOTPCREL(%rip), %rax
	movb	$0, 40(%rbx)
	addq	$16, %rax
	movq	%rax, (%rbx)
	leaq	48(%rbx), %rax
	movq	%rax, %rdi
	movq	%rax, 16(%rsp)
	call	pthread_mutex_init@PLT
	movl	%eax, %ecx
	movzbl	(%r12), %eax
	testb	%al, %al
	je	.L1811
.L1768:
	testl	%ecx, %ecx
	movl	%ecx, 64(%rsp)
	movq	%r14, 72(%rsp)
	jne	.L1812
	leaq	88(%rbx), %rdi
	xorl	%esi, %esi
	movq	$0, 136(%rbx)
	call	pthread_cond_init@PLT
	movl	%eax, %ecx
	movzbl	(%r12), %eax
	testb	%al, %al
	je	.L1813
.L1772:
	testl	%ecx, %ecx
	movl	%ecx, 80(%rsp)
	movq	%r14, 88(%rsp)
	jne	.L1814
	movq	_ZTIN4asio6detail14typeid_wrapperINS0_15task_io_serviceEEE@GOTPCREL(%rip), %rax
	movq	$0, 144(%rbx)
	movl	$8, %edi
	movq	$0, 152(%rbx)
	movq	$0, 160(%rbx)
	movl	$0, 168(%rbx)
	movb	$1, 176(%rbx)
	movq	$0, 184(%rbx)
	movq	$0, 192(%rbx)
	movq	$0, 200(%rbx)
	movb	$0, 208(%rbx)
	movb	$0, 209(%rbx)
	movq	%rax, 8(%rbx)
	movq	$0, 16(%rbx)
	movq	$0, 32(%rbx)
	movq	%r13, 88(%rbp)
	movq	%rbx, 96(%rbp)
	movq	%rbx, 56(%r15)
	movq	%r15, 0(%r13)
	movq	%rbx, 8(%r13)
.LEHB58:
	call	_Znwm@PLT
.LEHE58:
	movq	8(%r13), %rdx
	movq	%rdx, (%rax)
	lock addq	$1, 184(%rdx)
	movq	104(%rsp), %rdx
	xorq	%fs:40, %rdx
	movq	%rax, 104(%rbp)
	movq	$0, 112(%rbp)
	movq	%rbp, %rax
	jne	.L1815
	addq	$120, %rsp
	.cfi_remember_state
	.cfi_def_cfa_offset 56
	popq	%rbx
	.cfi_def_cfa_offset 48
	popq	%rbp
	.cfi_def_cfa_offset 40
	popq	%r12
	.cfi_def_cfa_offset 32
	popq	%r13
	.cfi_def_cfa_offset 24
	popq	%r14
	.cfi_def_cfa_offset 16
	popq	%r15
	.cfi_def_cfa_offset 8
	ret
	.p2align 4,,10
	.p2align 3
.L1759:
	.cfi_restore_state
	movq	%r12, %rdi
	call	__cxa_guard_acquire@PLT
	testl	%eax, %eax
	je	.L1807
	movq	%r12, %rdi
	call	__cxa_guard_release@PLT
	movq	_ZZN4asio15system_categoryEvE8instance@GOTPCREL(%rip), %r14
	movq	_ZN4asio6detail15system_categoryD1Ev@GOTPCREL(%rip), %rdi
	leaq	__dso_handle(%rip), %rdx
	movq	%r14, %rsi
	call	__cxa_atexit@PLT
	jmp	.L1760
	.p2align 4,,10
	.p2align 3
.L1809:
	movq	%r12, %rdi
	call	__cxa_guard_acquire@PLT
	testl	%eax, %eax
	je	.L1764
	movq	%r12, %rdi
	call	__cxa_guard_release@PLT
	movq	_ZN4asio6detail15system_categoryD1Ev@GOTPCREL(%rip), %rdi
	leaq	__dso_handle(%rip), %rdx
	movq	%r14, %rsi
	call	__cxa_atexit@PLT
	jmp	.L1764
	.p2align 4,,10
	.p2align 3
.L1811:
	movq	%r12, %rdi
	movl	%ecx, 28(%rsp)
	call	__cxa_guard_acquire@PLT
	testl	%eax, %eax
	movl	28(%rsp), %ecx
	je	.L1768
	movq	%r12, %rdi
	call	__cxa_guard_release@PLT
	movq	_ZN4asio6detail15system_categoryD1Ev@GOTPCREL(%rip), %rdi
	leaq	__dso_handle(%rip), %rdx
	movq	%r14, %rsi
	call	__cxa_atexit@PLT
	movl	28(%rsp), %ecx
	jmp	.L1768
	.p2align 4,,10
	.p2align 3
.L1813:
	movq	%r12, %rdi
	movl	%ecx, 28(%rsp)
	call	__cxa_guard_acquire@PLT
	testl	%eax, %eax
	movl	28(%rsp), %ecx
	je	.L1772
	movq	%r12, %rdi
	call	__cxa_guard_release@PLT
	movq	_ZN4asio6detail15system_categoryD1Ev@GOTPCREL(%rip), %rdi
	leaq	__dso_handle(%rip), %rdx
	movq	%r14, %rsi
	call	__cxa_atexit@PLT
	movl	28(%rsp), %ecx
	jmp	.L1772
.L1808:
	leaq	32(%rsp), %rdi
	leaq	.LC23(%rip), %rsi
.LEHB59:
	call	_ZN4asio6detail14do_throw_errorERKSt10error_codePKc@PLT
.LEHE59:
.L1785:
	movq	%rax, %rbx
.L1783:
	movq	%rbp, %rdi
	movl	$120, %esi
	call	_ZdlPvm@PLT
	movq	%rbx, %rdi
.LEHB60:
	call	_Unwind_Resume@PLT
.LEHE60:
.L1815:
	call	__stack_chk_fail@PLT
.L1812:
	leaq	64(%rsp), %rdi
	leaq	.LC23(%rip), %rsi
.LEHB61:
	call	_ZN4asio6detail14do_throw_errorERKSt10error_codePKc@PLT
.LEHE61:
.L1791:
	movq	%rax, %r12
.L1777:
	movq	%rbx, %rdi
	movl	$216, %esi
	movq	%r12, %rbx
	call	_ZdlPvm@PLT
.L1778:
	movq	8(%rsp), %rdi
	call	pthread_mutex_destroy@PLT
.L1779:
	movl	$64, %esi
	movq	%r15, %rdi
	call	_ZdlPvm@PLT
.L1780:
	movl	$16, %esi
	movq	%r13, %rdi
	call	_ZdlPvm@PLT
.L1781:
	movq	(%rsp), %rdi
	call	pthread_mutex_destroy@PLT
	jmp	.L1783
.L1810:
	leaq	48(%rsp), %rdi
	leaq	.LC23(%rip), %rsi
.LEHB62:
	call	_ZN4asio6detail14do_throw_errorERKSt10error_codePKc@PLT
.LEHE62:
.L1789:
	movq	%rax, %rbx
	jmp	.L1779
.L1814:
	leaq	80(%rsp), %rdi
	leaq	.LC25(%rip), %rsi
.LEHB63:
	call	_ZN4asio6detail14do_throw_errorERKSt10error_codePKc@PLT
.LEHE63:
.L1792:
	movq	16(%rsp), %rdi
	movq	%rax, %r12
	call	pthread_mutex_destroy@PLT
	jmp	.L1777
.L1788:
	movq	%rax, %rbx
	jmp	.L1780
.L1787:
	leaq	88(%rbp), %rdi
	movq	%rax, %rbx
	call	_ZN4asio6detail10scoped_ptrINS_10io_serviceEED1Ev@PLT
	jmp	.L1781
.L1790:
	movq	%rax, %rbx
	jmp	.L1778
.L1786:
	movq	%rax, %rbx
	jmp	.L1781
	.cfi_endproc
.LFE8991:
	.section	.gcc_except_table._ZN4asio6detail16service_registry6createINS_2ip16resolver_serviceINS3_3tcpEEEEEPNS_10io_service7serviceERS7_,"aG",@progbits,_ZN4asio6detail16service_registry6createINS_2ip16resolver_serviceINS3_3tcpEEEEEPNS_10io_service7serviceERS7_,comdat
.LLSDA8991:
	.byte	0xff
	.byte	0xff
	.byte	0x1
	.uleb128 .LLSDACSE8991-.LLSDACSB8991
.LLSDACSB8991:
	.uleb128 .LEHB54-.LFB8991
	.uleb128 .LEHE54-.LEHB54
	.uleb128 0
	.uleb128 0
	.uleb128 .LEHB55-.LFB8991
	.uleb128 .LEHE55-.LEHB55
	.uleb128 .L1786-.LFB8991
	.uleb128 0
	.uleb128 .LEHB56-.LFB8991
	.uleb128 .LEHE56-.LEHB56
	.uleb128 .L1788-.LFB8991
	.uleb128 0
	.uleb128 .LEHB57-.LFB8991
	.uleb128 .LEHE57-.LEHB57
	.uleb128 .L1790-.LFB8991
	.uleb128 0
	.uleb128 .LEHB58-.LFB8991
	.uleb128 .LEHE58-.LEHB58
	.uleb128 .L1787-.LFB8991
	.uleb128 0
	.uleb128 .LEHB59-.LFB8991
	.uleb128 .LEHE59-.LEHB59
	.uleb128 .L1785-.LFB8991
	.uleb128 0
	.uleb128 .LEHB60-.LFB8991
	.uleb128 .LEHE60-.LEHB60
	.uleb128 0
	.uleb128 0
	.uleb128 .LEHB61-.LFB8991
	.uleb128 .LEHE61-.LEHB61
	.uleb128 .L1791-.LFB8991
	.uleb128 0
	.uleb128 .LEHB62-.LFB8991
	.uleb128 .LEHE62-.LEHB62
	.uleb128 .L1789-.LFB8991
	.uleb128 0
	.uleb128 .LEHB63-.LFB8991
	.uleb128 .LEHE63-.LEHB63
	.uleb128 .L1792-.LFB8991
	.uleb128 0
.LLSDACSE8991:
	.section	.text._ZN4asio6detail16service_registry6createINS_2ip16resolver_serviceINS3_3tcpEEEEEPNS_10io_service7serviceERS7_,"axG",@progbits,_ZN4asio6detail16service_registry6createINS_2ip16resolver_serviceINS3_3tcpEEEEEPNS_10io_service7serviceERS7_,comdat
	.size	_ZN4asio6detail16service_registry6createINS_2ip16resolver_serviceINS3_3tcpEEEEEPNS_10io_service7serviceERS7_, .-_ZN4asio6detail16service_registry6createINS_2ip16resolver_serviceINS3_3tcpEEEEEPNS_10io_service7serviceERS7_
	.section	.text._ZNSt8functionIFvRKSt10shared_ptrIN7asiopal8ExecutorEEN4asio19basic_stream_socketINS6_2ip3tcpENS6_21stream_socket_serviceIS9_EEEERKSt10error_codeEEC2ERKSH_,"axG",@progbits,_ZNSt8functionIFvRKSt10shared_ptrIN7asiopal8ExecutorEEN4asio19basic_stream_socketINS6_2ip3tcpENS6_21stream_socket_serviceIS9_EEEERKSt10error_codeEEC5ERKSH_,comdat
	.align 2
	.p2align 4,,15
	.weak	_ZNSt8functionIFvRKSt10shared_ptrIN7asiopal8ExecutorEEN4asio19basic_stream_socketINS6_2ip3tcpENS6_21stream_socket_serviceIS9_EEEERKSt10error_codeEEC2ERKSH_
	.type	_ZNSt8functionIFvRKSt10shared_ptrIN7asiopal8ExecutorEEN4asio19basic_stream_socketINS6_2ip3tcpENS6_21stream_socket_serviceIS9_EEEERKSt10error_codeEEC2ERKSH_, @function
_ZNSt8functionIFvRKSt10shared_ptrIN7asiopal8ExecutorEEN4asio19basic_stream_socketINS6_2ip3tcpENS6_21stream_socket_serviceIS9_EEEERKSt10error_codeEEC2ERKSH_:
.LFB7771:
	.cfi_startproc
	.cfi_personality 0x9b,DW.ref.__gxx_personality_v0
	.cfi_lsda 0x1b,.LLSDA7771
	movq	$0, 16(%rdi)
	movq	16(%rsi), %rax
	testq	%rax, %rax
	je	.L1828
	pushq	%rbp
	.cfi_def_cfa_offset 16
	.cfi_offset 6, -16
	pushq	%rbx
	.cfi_def_cfa_offset 24
	.cfi_offset 3, -24
	movq	%rsi, %rbp
	movq	%rdi, %rbx
	movl	$2, %edx
	subq	$8, %rsp
	.cfi_def_cfa_offset 32
.LEHB64:
	call	*%rax
.LEHE64:
	movq	24(%rbp), %rax
	movq	%rax, 24(%rbx)
	movq	16(%rbp), %rax
	movq	%rax, 16(%rbx)
	addq	$8, %rsp
	.cfi_def_cfa_offset 24
	popq	%rbx
	.cfi_def_cfa_offset 16
	popq	%rbp
	.cfi_def_cfa_offset 8
	ret
	.p2align 4,,10
	.p2align 3
.L1828:
	.cfi_restore 3
	.cfi_restore 6
	rep ret
.L1820:
	.cfi_def_cfa_offset 32
	.cfi_offset 3, -24
	.cfi_offset 6, -16
	movq	%rax, %rbp
	movq	16(%rbx), %rax
	testq	%rax, %rax
	je	.L1819
	movl	$3, %edx
	movq	%rbx, %rsi
	movq	%rbx, %rdi
	call	*%rax
.L1819:
	movq	%rbp, %rdi
.LEHB65:
	call	_Unwind_Resume@PLT
.LEHE65:
	.cfi_endproc
.LFE7771:
	.section	.gcc_except_table._ZNSt8functionIFvRKSt10shared_ptrIN7asiopal8ExecutorEEN4asio19basic_stream_socketINS6_2ip3tcpENS6_21stream_socket_serviceIS9_EEEERKSt10error_codeEEC2ERKSH_,"aG",@progbits,_ZNSt8functionIFvRKSt10shared_ptrIN7asiopal8ExecutorEEN4asio19basic_stream_socketINS6_2ip3tcpENS6_21stream_socket_serviceIS9_EEEERKSt10error_codeEEC5ERKSH_,comdat
.LLSDA7771:
	.byte	0xff
	.byte	0xff
	.byte	0x1
	.uleb128 .LLSDACSE7771-.LLSDACSB7771
.LLSDACSB7771:
	.uleb128 .LEHB64-.LFB7771
	.uleb128 .LEHE64-.LEHB64
	.uleb128 .L1820-.LFB7771
	.uleb128 0
	.uleb128 .LEHB65-.LFB7771
	.uleb128 .LEHE65-.LEHB65
	.uleb128 0
	.uleb128 0
.LLSDACSE7771:
	.section	.text._ZNSt8functionIFvRKSt10shared_ptrIN7asiopal8ExecutorEEN4asio19basic_stream_socketINS6_2ip3tcpENS6_21stream_socket_serviceIS9_EEEERKSt10error_codeEEC2ERKSH_,"axG",@progbits,_ZNSt8functionIFvRKSt10shared_ptrIN7asiopal8ExecutorEEN4asio19basic_stream_socketINS6_2ip3tcpENS6_21stream_socket_serviceIS9_EEEERKSt10error_codeEEC5ERKSH_,comdat
	.size	_ZNSt8functionIFvRKSt10shared_ptrIN7asiopal8ExecutorEEN4asio19basic_stream_socketINS6_2ip3tcpENS6_21stream_socket_serviceIS9_EEEERKSt10error_codeEEC2ERKSH_, .-_ZNSt8functionIFvRKSt10shared_ptrIN7asiopal8ExecutorEEN4asio19basic_stream_socketINS6_2ip3tcpENS6_21stream_socket_serviceIS9_EEEERKSt10error_codeEEC2ERKSH_
	.weak	_ZNSt8functionIFvRKSt10shared_ptrIN7asiopal8ExecutorEEN4asio19basic_stream_socketINS6_2ip3tcpENS6_21stream_socket_serviceIS9_EEEERKSt10error_codeEEC1ERKSH_
	.set	_ZNSt8functionIFvRKSt10shared_ptrIN7asiopal8ExecutorEEN4asio19basic_stream_socketINS6_2ip3tcpENS6_21stream_socket_serviceIS9_EEEERKSt10error_codeEEC1ERKSH_,_ZNSt8functionIFvRKSt10shared_ptrIN7asiopal8ExecutorEEN4asio19basic_stream_socketINS6_2ip3tcpENS6_21stream_socket_serviceIS9_EEEERKSt10error_codeEEC2ERKSH_
	.section	.text._ZNSt16_Sp_counted_baseILN9__gnu_cxx12_Lock_policyE2EE10_M_releaseEv,"axG",@progbits,_ZNSt16_Sp_counted_baseILN9__gnu_cxx12_Lock_policyE2EE10_M_releaseEv,comdat
	.align 2
	.p2align 4,,15
	.weak	_ZNSt16_Sp_counted_baseILN9__gnu_cxx12_Lock_policyE2EE10_M_releaseEv
	.type	_ZNSt16_Sp_counted_baseILN9__gnu_cxx12_Lock_policyE2EE10_M_releaseEv, @function
_ZNSt16_Sp_counted_baseILN9__gnu_cxx12_Lock_policyE2EE10_M_releaseEv:
.LFB8053:
	.cfi_startproc
	cmpq	$0, _ZL28__gthrw___pthread_key_createPjPFvPvE@GOTPCREL(%rip)
	pushq	%rbx
	.cfi_def_cfa_offset 16
	.cfi_offset 3, -16
	movq	%rdi, %rbx
	je	.L1832
	lock subl	$1, 8(%rdi)
	je	.L1839
.L1831:
	popq	%rbx
	.cfi_remember_state
	.cfi_def_cfa_offset 8
	ret
	.p2align 4,,10
	.p2align 3
.L1832:
	.cfi_restore_state
	movl	8(%rdi), %eax
	leal	-1(%rax), %edx
	cmpl	$1, %eax
	movl	%edx, 8(%rdi)
	jne	.L1831
	movq	(%rdi), %rax
	call	*16(%rax)
	movl	12(%rbx), %eax
	leal	-1(%rax), %edx
	movl	%edx, 12(%rbx)
	jmp	.L1837
	.p2align 4,,10
	.p2align 3
.L1839:
	movq	(%rdi), %rax
	call	*16(%rax)
	movl	$-1, %eax
	lock xaddl	%eax, 12(%rbx)
.L1837:
	cmpl	$1, %eax
	jne	.L1831
	movq	(%rbx), %rax
	movq	%rbx, %rdi
	popq	%rbx
	.cfi_def_cfa_offset 8
	movq	24(%rax), %rax
	jmp	*%rax
	.cfi_endproc
.LFE8053:
	.size	_ZNSt16_Sp_counted_baseILN9__gnu_cxx12_Lock_policyE2EE10_M_releaseEv, .-_ZNSt16_Sp_counted_baseILN9__gnu_cxx12_Lock_policyE2EE10_M_releaseEv
	.section	.text._ZN7openpal6LoggerD2Ev,"axG",@progbits,_ZN7openpal6LoggerD5Ev,comdat
	.align 2
	.p2align 4,,15
	.weak	_ZN7openpal6LoggerD2Ev
	.type	_ZN7openpal6LoggerD2Ev, @function
_ZN7openpal6LoggerD2Ev:
.LFB6827:
	.cfi_startproc
	pushq	%rbx
	.cfi_def_cfa_offset 16
	.cfi_offset 3, -16
	movq	%rdi, %rbx
	movq	24(%rdi), %rdi
	testq	%rdi, %rdi
	je	.L1841
	call	_ZNSt16_Sp_counted_baseILN9__gnu_cxx12_Lock_policyE2EE10_M_releaseEv@PLT
.L1841:
	movq	8(%rbx), %rdi
	testq	%rdi, %rdi
	je	.L1840
	popq	%rbx
	.cfi_remember_state
	.cfi_def_cfa_offset 8
	jmp	_ZNSt16_Sp_counted_baseILN9__gnu_cxx12_Lock_policyE2EE10_M_releaseEv@PLT
	.p2align 4,,10
	.p2align 3
.L1840:
	.cfi_restore_state
	popq	%rbx
	.cfi_def_cfa_offset 8
	ret
	.cfi_endproc
.LFE6827:
	.size	_ZN7openpal6LoggerD2Ev, .-_ZN7openpal6LoggerD2Ev
	.weak	_ZN7openpal6LoggerD1Ev
	.set	_ZN7openpal6LoggerD1Ev,_ZN7openpal6LoggerD2Ev
	.text
	.align 2
	.p2align 4,,15
	.type	_ZZN7asiopal9TCPClient12BeginConnectERKSt8functionIFvRKSt10shared_ptrINS_8ExecutorEEN4asio19basic_stream_socketINS7_2ip3tcpENS7_21stream_socket_serviceISA_EEEERKSt10error_codeEEENUlSG_NS9_23basic_resolver_iteratorISA_EEE_D2Ev, @function
_ZZN7asiopal9TCPClient12BeginConnectERKSt8functionIFvRKSt10shared_ptrINS_8ExecutorEEN4asio19basic_stream_socketINS7_2ip3tcpENS7_21stream_socket_serviceISA_EEEERKSt10error_codeEEENUlSG_NS9_23basic_resolver_iteratorISA_EEE_D2Ev:
.LFB6911:
	.cfi_startproc
	.cfi_personality 0x9b,DW.ref.__gxx_personality_v0
	.cfi_lsda 0x1b,.LLSDA6911
	pushq	%rbx
	.cfi_def_cfa_offset 16
	.cfi_offset 3, -16
	movq	32(%rdi), %rax
	movq	%rdi, %rbx
	testq	%rax, %rax
	je	.L1848
	leaq	16(%rdi), %rdi
	movl	$3, %edx
	movq	%rdi, %rsi
	call	*%rax
.L1848:
	movq	8(%rbx), %rdi
	testq	%rdi, %rdi
	je	.L1847
	popq	%rbx
	.cfi_remember_state
	.cfi_def_cfa_offset 8
	jmp	_ZNSt16_Sp_counted_baseILN9__gnu_cxx12_Lock_policyE2EE10_M_releaseEv@PLT
	.p2align 4,,10
	.p2align 3
.L1847:
	.cfi_restore_state
	popq	%rbx
	.cfi_def_cfa_offset 8
	ret
	.cfi_endproc
.LFE6911:
	.section	.gcc_except_table,"a",@progbits
.LLSDA6911:
	.byte	0xff
	.byte	0xff
	.byte	0x1
	.uleb128 .LLSDACSE6911-.LLSDACSB6911
.LLSDACSB6911:
.LLSDACSE6911:
	.text
	.size	_ZZN7asiopal9TCPClient12BeginConnectERKSt8functionIFvRKSt10shared_ptrINS_8ExecutorEEN4asio19basic_stream_socketINS7_2ip3tcpENS7_21stream_socket_serviceISA_EEEERKSt10error_codeEEENUlSG_NS9_23basic_resolver_iteratorISA_EEE_D2Ev, .-_ZZN7asiopal9TCPClient12BeginConnectERKSt8functionIFvRKSt10shared_ptrINS_8ExecutorEEN4asio19basic_stream_socketINS7_2ip3tcpENS7_21stream_socket_serviceISA_EEEERKSt10error_codeEEENUlSG_NS9_23basic_resolver_iteratorISA_EEE_D2Ev
	.set	_ZZN7asiopal9TCPClient12BeginConnectERKSt8functionIFvRKSt10shared_ptrINS_8ExecutorEEN4asio19basic_stream_socketINS7_2ip3tcpENS7_21stream_socket_serviceISA_EEEERKSt10error_codeEEENUlSG_NS9_23basic_resolver_iteratorISA_EEE_D1Ev,_ZZN7asiopal9TCPClient12BeginConnectERKSt8functionIFvRKSt10shared_ptrINS_8ExecutorEEN4asio19basic_stream_socketINS7_2ip3tcpENS7_21stream_socket_serviceISA_EEEERKSt10error_codeEEENUlSG_NS9_23basic_resolver_iteratorISA_EEE_D2Ev
	.align 2
	.p2align 4,,15
	.type	_ZN4asio6detail10resolve_opINS_2ip3tcpENS0_15wrapped_handlerINS_10io_service6strandEZN7asiopal9TCPClient12BeginConnectERKSt8functionIFvRKSt10shared_ptrINS7_8ExecutorEENS_19basic_stream_socketIS3_NS_21stream_socket_serviceIS3_EEEERKSt10error_codeEEEUlSL_NS2_23basic_resolver_iteratorIS3_EEE_NS0_26is_continuation_if_runningEEEE3ptr5resetEv.isra.219, @function
_ZN4asio6detail10resolve_opINS_2ip3tcpENS0_15wrapped_handlerINS_10io_service6strandEZN7asiopal9TCPClient12BeginConnectERKSt8functionIFvRKSt10shared_ptrINS7_8ExecutorEENS_19basic_stream_socketIS3_NS_21stream_socket_serviceIS3_EEEERKSt10error_codeEEEUlSL_NS2_23basic_resolver_iteratorIS3_EEE_NS0_26is_continuation_if_runningEEEE3ptr5resetEv.isra.219:
.LFB10323:
	.cfi_startproc
	pushq	%r12
	.cfi_def_cfa_offset 16
	.cfi_offset 12, -16
	pushq	%rbp
	.cfi_def_cfa_offset 24
	.cfi_offset 6, -24
	movq	%rdi, %rbp
	pushq	%rbx
	.cfi_def_cfa_offset 32
	.cfi_offset 3, -32
	movq	(%rsi), %rbx
	testq	%rbx, %rbx
	je	.L1855
	movq	240(%rbx), %rdi
	movq	%rsi, %r12
	testq	%rdi, %rdi
	je	.L1856
	call	freeaddrinfo@PLT
.L1856:
	leaq	176(%rbx), %rdi
	call	_ZZN7asiopal9TCPClient12BeginConnectERKSt8functionIFvRKSt10shared_ptrINS_8ExecutorEEN4asio19basic_stream_socketINS7_2ip3tcpENS7_21stream_socket_serviceISA_EEEERKSt10error_codeEEENUlSG_NS9_23basic_resolver_iteratorISA_EEE_D1Ev
	movq	120(%rbx), %rdi
	leaq	136(%rbx), %rax
	cmpq	%rax, %rdi
	je	.L1857
	call	_ZdlPv@PLT
.L1857:
	movq	88(%rbx), %rdi
	leaq	104(%rbx), %rax
	cmpq	%rax, %rdi
	je	.L1858
	call	_ZdlPv@PLT
.L1858:
	movq	32(%rbx), %rdi
	testq	%rdi, %rdi
	je	.L1860
	cmpq	$0, _ZL28__gthrw___pthread_key_createPjPFvPvE@GOTPCREL(%rip)
	je	.L1861
	movl	$-1, %eax
	lock xaddl	%eax, 12(%rdi)
.L1862:
	cmpl	$1, %eax
	jne	.L1860
	movq	(%rdi), %rax
	call	*24(%rax)
	.p2align 4,,10
	.p2align 3
.L1860:
	movq	$0, (%r12)
.L1855:
	movq	0(%rbp), %rbx
	testq	%rbx, %rbx
	je	.L1854
	.byte	0x66
	leaq	_ZN4asio6detail15keyword_tss_ptrINS0_10call_stackINS0_15task_io_serviceENS0_27task_io_service_thread_infoEE7contextEE6value_E@tlsgd(%rip), %rdi
	.value	0x6666
	rex64
	call	__tls_get_addr@PLT
	movq	(%rax), %rax
	testq	%rax, %rax
	je	.L1865
	movq	8(%rax), %rax
	testq	%rax, %rax
	je	.L1865
	cmpq	$0, (%rax)
	je	.L1883
.L1865:
	movq	%rbx, %rdi
	call	_ZdlPv@PLT
.L1866:
	movq	$0, 0(%rbp)
.L1854:
	popq	%rbx
	.cfi_remember_state
	.cfi_def_cfa_offset 24
	popq	%rbp
	.cfi_def_cfa_offset 16
	popq	%r12
	.cfi_def_cfa_offset 8
	ret
	.p2align 4,,10
	.p2align 3
.L1861:
	.cfi_restore_state
	movl	12(%rdi), %eax
	leal	-1(%rax), %edx
	movl	%edx, 12(%rdi)
	jmp	.L1862
	.p2align 4,,10
	.p2align 3
.L1883:
	movzbl	248(%rbx), %edx
	movb	%dl, (%rbx)
	movq	%rbx, (%rax)
	jmp	.L1866
	.cfi_endproc
.LFE10323:
	.size	_ZN4asio6detail10resolve_opINS_2ip3tcpENS0_15wrapped_handlerINS_10io_service6strandEZN7asiopal9TCPClient12BeginConnectERKSt8functionIFvRKSt10shared_ptrINS7_8ExecutorEENS_19basic_stream_socketIS3_NS_21stream_socket_serviceIS3_EEEERKSt10error_codeEEEUlSL_NS2_23basic_resolver_iteratorIS3_EEE_NS0_26is_continuation_if_runningEEEE3ptr5resetEv.isra.219, .-_ZN4asio6detail10resolve_opINS_2ip3tcpENS0_15wrapped_handlerINS_10io_service6strandEZN7asiopal9TCPClient12BeginConnectERKSt8functionIFvRKSt10shared_ptrINS7_8ExecutorEENS_19basic_stream_socketIS3_NS_21stream_socket_serviceIS3_EEEERKSt10error_codeEEEUlSL_NS2_23basic_resolver_iteratorIS3_EEE_NS0_26is_continuation_if_runningEEEE3ptr5resetEv.isra.219
	.section	.text.unlikely
	.align 2
	.type	_ZN4asio6detail7binder2IZN7asiopal9TCPClient12BeginConnectERKSt8functionIFvRKSt10shared_ptrINS2_8ExecutorEENS_19basic_stream_socketINS_2ip3tcpENS_21stream_socket_serviceISC_EEEERKSt10error_codeEEEUlSI_NSB_23basic_resolver_iteratorISC_EEE_SG_SO_ED2Ev, @function
_ZN4asio6detail7binder2IZN7asiopal9TCPClient12BeginConnectERKSt8functionIFvRKSt10shared_ptrINS2_8ExecutorEENS_19basic_stream_socketINS_2ip3tcpENS_21stream_socket_serviceISC_EEEERKSt10error_codeEEEUlSI_NSB_23basic_resolver_iteratorISC_EEE_SG_SO_ED2Ev:
.LFB9796:
	.cfi_startproc
	pushq	%rbx
	.cfi_def_cfa_offset 16
	.cfi_offset 3, -16
	movq	%rdi, %rbx
	movq	72(%rdi), %rdi
	testq	%rdi, %rdi
	je	.L1885
	call	_ZNSt16_Sp_counted_baseILN9__gnu_cxx12_Lock_policyE2EE10_M_releaseEv@PLT
.L1885:
	movq	%rbx, %rdi
	popq	%rbx
	.cfi_def_cfa_offset 8
	jmp	_ZZN7asiopal9TCPClient12BeginConnectERKSt8functionIFvRKSt10shared_ptrINS_8ExecutorEEN4asio19basic_stream_socketINS7_2ip3tcpENS7_21stream_socket_serviceISA_EEEERKSt10error_codeEEENUlSG_NS9_23basic_resolver_iteratorISA_EEE_D1Ev
	.cfi_endproc
.LFE9796:
	.size	_ZN4asio6detail7binder2IZN7asiopal9TCPClient12BeginConnectERKSt8functionIFvRKSt10shared_ptrINS2_8ExecutorEENS_19basic_stream_socketINS_2ip3tcpENS_21stream_socket_serviceISC_EEEERKSt10error_codeEEEUlSI_NSB_23basic_resolver_iteratorISC_EEE_SG_SO_ED2Ev, .-_ZN4asio6detail7binder2IZN7asiopal9TCPClient12BeginConnectERKSt8functionIFvRKSt10shared_ptrINS2_8ExecutorEENS_19basic_stream_socketINS_2ip3tcpENS_21stream_socket_serviceISC_EEEERKSt10error_codeEEEUlSI_NSB_23basic_resolver_iteratorISC_EEE_SG_SO_ED2Ev
	.set	_ZN4asio6detail7binder2IZN7asiopal9TCPClient12BeginConnectERKSt8functionIFvRKSt10shared_ptrINS2_8ExecutorEENS_19basic_stream_socketINS_2ip3tcpENS_21stream_socket_serviceISC_EEEERKSt10error_codeEEEUlSI_NSB_23basic_resolver_iteratorISC_EEE_SG_SO_ED1Ev,_ZN4asio6detail7binder2IZN7asiopal9TCPClient12BeginConnectERKSt8functionIFvRKSt10shared_ptrINS2_8ExecutorEENS_19basic_stream_socketINS_2ip3tcpENS_21stream_socket_serviceISC_EEEERKSt10error_codeEEEUlSI_NSB_23basic_resolver_iteratorISC_EEE_SG_SO_ED2Ev
	.align 2
	.type	_ZN4asio6detail7binder2INS0_15wrapped_handlerINS_10io_service6strandEZN7asiopal9TCPClient12BeginConnectERKSt8functionIFvRKSt10shared_ptrINS5_8ExecutorEENS_19basic_stream_socketINS_2ip3tcpENS_21stream_socket_serviceISF_EEEERKSt10error_codeEEEUlSL_NSE_23basic_resolver_iteratorISF_EEE_NS0_26is_continuation_if_runningEEESJ_SR_ED2Ev, @function
