	.file	"TCPServerIOHandler.cpp"
	.text
	.section	.rodata._ZNK4asio6detail15system_category4nameEv.str1.1,"aMS",@progbits,1
.LC0:
	.string	"asio.system"
	.section	.text._ZNK4asio6detail15system_category4nameEv,"axG",@progbits,_ZNK4asio6detail15system_category4nameEv,comdat
	.align 2
	.p2align 4,,15
	.weak	_ZNK4asio6detail15system_category4nameEv
	.type	_ZNK4asio6detail15system_category4nameEv, @function
_ZNK4asio6detail15system_category4nameEv:
.LFB2904:
	.cfi_startproc
	leaq	.LC0(%rip), %rax
	ret
	.cfi_endproc
.LFE2904:
	.size	_ZNK4asio6detail15system_category4nameEv, .-_ZNK4asio6detail15system_category4nameEv
	.section	.rodata._ZNK4asio5error6detail14netdb_category4nameEv.str1.1,"aMS",@progbits,1
.LC1:
	.string	"asio.netdb"
	.section	.text._ZNK4asio5error6detail14netdb_category4nameEv,"axG",@progbits,_ZNK4asio5error6detail14netdb_category4nameEv,comdat
	.align 2
	.p2align 4,,15
	.weak	_ZNK4asio5error6detail14netdb_category4nameEv
	.type	_ZNK4asio5error6detail14netdb_category4nameEv, @function
_ZNK4asio5error6detail14netdb_category4nameEv:
.LFB2944:
	.cfi_startproc
	leaq	.LC1(%rip), %rax
	ret
	.cfi_endproc
.LFE2944:
	.size	_ZNK4asio5error6detail14netdb_category4nameEv, .-_ZNK4asio5error6detail14netdb_category4nameEv
	.section	.rodata._ZNK4asio5error6detail17addrinfo_category4nameEv.str1.1,"aMS",@progbits,1
.LC2:
	.string	"asio.addrinfo"
	.section	.text._ZNK4asio5error6detail17addrinfo_category4nameEv,"axG",@progbits,_ZNK4asio5error6detail17addrinfo_category4nameEv,comdat
	.align 2
	.p2align 4,,15
	.weak	_ZNK4asio5error6detail17addrinfo_category4nameEv
	.type	_ZNK4asio5error6detail17addrinfo_category4nameEv, @function
_ZNK4asio5error6detail17addrinfo_category4nameEv:
.LFB2950:
	.cfi_startproc
	leaq	.LC2(%rip), %rax
	ret
	.cfi_endproc
.LFE2950:
	.size	_ZNK4asio5error6detail17addrinfo_category4nameEv, .-_ZNK4asio5error6detail17addrinfo_category4nameEv
	.section	.rodata._ZNK4asio5error6detail13misc_category4nameEv.str1.1,"aMS",@progbits,1
.LC3:
	.string	"asio.misc"
	.section	.text._ZNK4asio5error6detail13misc_category4nameEv,"axG",@progbits,_ZNK4asio5error6detail13misc_category4nameEv,comdat
	.align 2
	.p2align 4,,15
	.weak	_ZNK4asio5error6detail13misc_category4nameEv
	.type	_ZNK4asio5error6detail13misc_category4nameEv, @function
_ZNK4asio5error6detail13misc_category4nameEv:
.LFB2956:
	.cfi_startproc
	leaq	.LC3(%rip), %rax
	ret
	.cfi_endproc
.LFE2956:
	.size	_ZNK4asio5error6detail13misc_category4nameEv, .-_ZNK4asio5error6detail13misc_category4nameEv
	.section	.text._ZN8asiodnp318TCPServerIOHandler6Server10OnShutdownEv,"axG",@progbits,_ZN8asiodnp318TCPServerIOHandler6Server10OnShutdownEv,comdat
	.align 2
	.p2align 4,,15
	.weak	_ZN8asiodnp318TCPServerIOHandler6Server10OnShutdownEv
	.type	_ZN8asiodnp318TCPServerIOHandler6Server10OnShutdownEv, @function
_ZN8asiodnp318TCPServerIOHandler6Server10OnShutdownEv:
.LFB7555:
	.cfi_startproc
	rep ret
	.cfi_endproc
.LFE7555:
	.size	_ZN8asiodnp318TCPServerIOHandler6Server10OnShutdownEv, .-_ZN8asiodnp318TCPServerIOHandler6Server10OnShutdownEv
	.section	.text._ZN8asiodnp318TCPServerIOHandler17OnChannelShutdownEv,"axG",@progbits,_ZN8asiodnp318TCPServerIOHandler17OnChannelShutdownEv,comdat
	.align 2
	.p2align 4,,15
	.weak	_ZN8asiodnp318TCPServerIOHandler17OnChannelShutdownEv
	.type	_ZN8asiodnp318TCPServerIOHandler17OnChannelShutdownEv, @function
_ZN8asiodnp318TCPServerIOHandler17OnChannelShutdownEv:
.LFB7563:
	.cfi_startproc
	rep ret
	.cfi_endproc
.LFE7563:
	.size	_ZN8asiodnp318TCPServerIOHandler17OnChannelShutdownEv, .-_ZN8asiodnp318TCPServerIOHandler17OnChannelShutdownEv
	.section	.text._ZN4asio6detail7tss_ptrINS0_10call_stackINS0_15task_io_serviceENS0_27task_io_service_thread_infoEE7contextEED2Ev,"axG",@progbits,_ZN4asio6detail7tss_ptrINS0_10call_stackINS0_15task_io_serviceENS0_27task_io_service_thread_infoEE7contextEED5Ev,comdat
	.align 2
	.p2align 4,,15
	.weak	_ZN4asio6detail7tss_ptrINS0_10call_stackINS0_15task_io_serviceENS0_27task_io_service_thread_infoEE7contextEED2Ev
	.type	_ZN4asio6detail7tss_ptrINS0_10call_stackINS0_15task_io_serviceENS0_27task_io_service_thread_infoEE7contextEED2Ev, @function
_ZN4asio6detail7tss_ptrINS0_10call_stackINS0_15task_io_serviceENS0_27task_io_service_thread_infoEE7contextEED2Ev:
.LFB10256:
	.cfi_startproc
	rep ret
	.cfi_endproc
.LFE10256:
	.size	_ZN4asio6detail7tss_ptrINS0_10call_stackINS0_15task_io_serviceENS0_27task_io_service_thread_infoEE7contextEED2Ev, .-_ZN4asio6detail7tss_ptrINS0_10call_stackINS0_15task_io_serviceENS0_27task_io_service_thread_infoEE7contextEED2Ev
	.weak	_ZN4asio6detail7tss_ptrINS0_10call_stackINS0_15task_io_serviceENS0_27task_io_service_thread_infoEE7contextEED1Ev
	.set	_ZN4asio6detail7tss_ptrINS0_10call_stackINS0_15task_io_serviceENS0_27task_io_service_thread_infoEE7contextEED1Ev,_ZN4asio6detail7tss_ptrINS0_10call_stackINS0_15task_io_serviceENS0_27task_io_service_thread_infoEE7contextEED2Ev
	.section	.text._ZN4asio6detail10service_idINS0_13epoll_reactorEED2Ev,"axG",@progbits,_ZN4asio6detail10service_idINS0_13epoll_reactorEED5Ev,comdat
	.align 2
	.p2align 4,,15
	.weak	_ZN4asio6detail10service_idINS0_13epoll_reactorEED2Ev
	.type	_ZN4asio6detail10service_idINS0_13epoll_reactorEED2Ev, @function
_ZN4asio6detail10service_idINS0_13epoll_reactorEED2Ev:
.LFB10259:
	.cfi_startproc
	rep ret
	.cfi_endproc
.LFE10259:
	.size	_ZN4asio6detail10service_idINS0_13epoll_reactorEED2Ev, .-_ZN4asio6detail10service_idINS0_13epoll_reactorEED2Ev
	.weak	_ZN4asio6detail10service_idINS0_13epoll_reactorEED1Ev
	.set	_ZN4asio6detail10service_idINS0_13epoll_reactorEED1Ev,_ZN4asio6detail10service_idINS0_13epoll_reactorEED2Ev
	.section	.text._ZN4asio6detail10service_idINS0_15task_io_serviceEED2Ev,"axG",@progbits,_ZN4asio6detail10service_idINS0_15task_io_serviceEED5Ev,comdat
	.align 2
	.p2align 4,,15
	.weak	_ZN4asio6detail10service_idINS0_15task_io_serviceEED2Ev
	.type	_ZN4asio6detail10service_idINS0_15task_io_serviceEED2Ev, @function
_ZN4asio6detail10service_idINS0_15task_io_serviceEED2Ev:
.LFB10262:
	.cfi_startproc
	rep ret
	.cfi_endproc
.LFE10262:
	.size	_ZN4asio6detail10service_idINS0_15task_io_serviceEED2Ev, .-_ZN4asio6detail10service_idINS0_15task_io_serviceEED2Ev
	.weak	_ZN4asio6detail10service_idINS0_15task_io_serviceEED1Ev
	.set	_ZN4asio6detail10service_idINS0_15task_io_serviceEED1Ev,_ZN4asio6detail10service_idINS0_15task_io_serviceEED2Ev
	.section	.text._ZN4asio6detail7tss_ptrINS0_10call_stackINS0_14strand_service11strand_implEhE7contextEED2Ev,"axG",@progbits,_ZN4asio6detail7tss_ptrINS0_10call_stackINS0_14strand_service11strand_implEhE7contextEED5Ev,comdat
	.align 2
	.p2align 4,,15
	.weak	_ZN4asio6detail7tss_ptrINS0_10call_stackINS0_14strand_service11strand_implEhE7contextEED2Ev
	.type	_ZN4asio6detail7tss_ptrINS0_10call_stackINS0_14strand_service11strand_implEhE7contextEED2Ev, @function
_ZN4asio6detail7tss_ptrINS0_10call_stackINS0_14strand_service11strand_implEhE7contextEED2Ev:
.LFB10265:
	.cfi_startproc
	rep ret
	.cfi_endproc
.LFE10265:
	.size	_ZN4asio6detail7tss_ptrINS0_10call_stackINS0_14strand_service11strand_implEhE7contextEED2Ev, .-_ZN4asio6detail7tss_ptrINS0_10call_stackINS0_14strand_service11strand_implEhE7contextEED2Ev
	.weak	_ZN4asio6detail7tss_ptrINS0_10call_stackINS0_14strand_service11strand_implEhE7contextEED1Ev
	.set	_ZN4asio6detail7tss_ptrINS0_10call_stackINS0_14strand_service11strand_implEhE7contextEED1Ev,_ZN4asio6detail7tss_ptrINS0_10call_stackINS0_14strand_service11strand_implEhE7contextEED2Ev
	.section	.text._ZN4asio6detail10service_idINS0_14strand_serviceEED2Ev,"axG",@progbits,_ZN4asio6detail10service_idINS0_14strand_serviceEED5Ev,comdat
	.align 2
	.p2align 4,,15
	.weak	_ZN4asio6detail10service_idINS0_14strand_serviceEED2Ev
	.type	_ZN4asio6detail10service_idINS0_14strand_serviceEED2Ev, @function
_ZN4asio6detail10service_idINS0_14strand_serviceEED2Ev:
.LFB10268:
	.cfi_startproc
	rep ret
	.cfi_endproc
.LFE10268:
	.size	_ZN4asio6detail10service_idINS0_14strand_serviceEED2Ev, .-_ZN4asio6detail10service_idINS0_14strand_serviceEED2Ev
	.weak	_ZN4asio6detail10service_idINS0_14strand_serviceEED1Ev
	.set	_ZN4asio6detail10service_idINS0_14strand_serviceEED1Ev,_ZN4asio6detail10service_idINS0_14strand_serviceEED2Ev
	.section	.text._ZNSt23_Sp_counted_ptr_inplaceIN8asiodnp318TCPServerIOHandler6ServerESaIS2_ELN9__gnu_cxx12_Lock_policyE2EED2Ev,"axG",@progbits,_ZNSt23_Sp_counted_ptr_inplaceIN8asiodnp318TCPServerIOHandler6ServerESaIS2_ELN9__gnu_cxx12_Lock_policyE2EED5Ev,comdat
	.align 2
	.p2align 4,,15
	.weak	_ZNSt23_Sp_counted_ptr_inplaceIN8asiodnp318TCPServerIOHandler6ServerESaIS2_ELN9__gnu_cxx12_Lock_policyE2EED2Ev
	.type	_ZNSt23_Sp_counted_ptr_inplaceIN8asiodnp318TCPServerIOHandler6ServerESaIS2_ELN9__gnu_cxx12_Lock_policyE2EED2Ev, @function
_ZNSt23_Sp_counted_ptr_inplaceIN8asiodnp318TCPServerIOHandler6ServerESaIS2_ELN9__gnu_cxx12_Lock_policyE2EED2Ev:
.LFB10271:
	.cfi_startproc
	rep ret
	.cfi_endproc
.LFE10271:
	.size	_ZNSt23_Sp_counted_ptr_inplaceIN8asiodnp318TCPServerIOHandler6ServerESaIS2_ELN9__gnu_cxx12_Lock_policyE2EED2Ev, .-_ZNSt23_Sp_counted_ptr_inplaceIN8asiodnp318TCPServerIOHandler6ServerESaIS2_ELN9__gnu_cxx12_Lock_policyE2EED2Ev
	.weak	_ZNSt23_Sp_counted_ptr_inplaceIN8asiodnp318TCPServerIOHandler6ServerESaIS2_ELN9__gnu_cxx12_Lock_policyE2EED1Ev
	.set	_ZNSt23_Sp_counted_ptr_inplaceIN8asiodnp318TCPServerIOHandler6ServerESaIS2_ELN9__gnu_cxx12_Lock_policyE2EED1Ev,_ZNSt23_Sp_counted_ptr_inplaceIN8asiodnp318TCPServerIOHandler6ServerESaIS2_ELN9__gnu_cxx12_Lock_policyE2EED2Ev
	.section	.text._ZNSt23_Sp_counted_ptr_inplaceIN7asiopal13SocketChannelESaIS1_ELN9__gnu_cxx12_Lock_policyE2EED2Ev,"axG",@progbits,_ZNSt23_Sp_counted_ptr_inplaceIN7asiopal13SocketChannelESaIS1_ELN9__gnu_cxx12_Lock_policyE2EED5Ev,comdat
	.align 2
	.p2align 4,,15
	.weak	_ZNSt23_Sp_counted_ptr_inplaceIN7asiopal13SocketChannelESaIS1_ELN9__gnu_cxx12_Lock_policyE2EED2Ev
	.type	_ZNSt23_Sp_counted_ptr_inplaceIN7asiopal13SocketChannelESaIS1_ELN9__gnu_cxx12_Lock_policyE2EED2Ev, @function
_ZNSt23_Sp_counted_ptr_inplaceIN7asiopal13SocketChannelESaIS1_ELN9__gnu_cxx12_Lock_policyE2EED2Ev:
.LFB10278:
	.cfi_startproc
	rep ret
	.cfi_endproc
.LFE10278:
	.size	_ZNSt23_Sp_counted_ptr_inplaceIN7asiopal13SocketChannelESaIS1_ELN9__gnu_cxx12_Lock_policyE2EED2Ev, .-_ZNSt23_Sp_counted_ptr_inplaceIN7asiopal13SocketChannelESaIS1_ELN9__gnu_cxx12_Lock_policyE2EED2Ev
	.weak	_ZNSt23_Sp_counted_ptr_inplaceIN7asiopal13SocketChannelESaIS1_ELN9__gnu_cxx12_Lock_policyE2EED1Ev
	.set	_ZNSt23_Sp_counted_ptr_inplaceIN7asiopal13SocketChannelESaIS1_ELN9__gnu_cxx12_Lock_policyE2EED1Ev,_ZNSt23_Sp_counted_ptr_inplaceIN7asiopal13SocketChannelESaIS1_ELN9__gnu_cxx12_Lock_policyE2EED2Ev
	.section	.text._ZN4asio6detail15system_categoryD2Ev,"axG",@progbits,_ZN4asio6detail15system_categoryD5Ev,comdat
	.align 2
	.p2align 4,,15
	.weak	_ZN4asio6detail15system_categoryD2Ev
	.type	_ZN4asio6detail15system_categoryD2Ev, @function
_ZN4asio6detail15system_categoryD2Ev:
.LFB10235:
	.cfi_startproc
	movq	_ZTVN4asio6detail15system_categoryE@GOTPCREL(%rip), %rax
	addq	$16, %rax
	movq	%rax, (%rdi)
	jmp	_ZNSt3_V214error_categoryD2Ev@PLT
	.cfi_endproc
.LFE10235:
	.size	_ZN4asio6detail15system_categoryD2Ev, .-_ZN4asio6detail15system_categoryD2Ev
	.weak	_ZN4asio6detail15system_categoryD1Ev
	.set	_ZN4asio6detail15system_categoryD1Ev,_ZN4asio6detail15system_categoryD2Ev
	.section	.text._ZN4asio5error6detail14netdb_categoryD2Ev,"axG",@progbits,_ZN4asio5error6detail14netdb_categoryD5Ev,comdat
	.align 2
	.p2align 4,,15
	.weak	_ZN4asio5error6detail14netdb_categoryD2Ev
	.type	_ZN4asio5error6detail14netdb_categoryD2Ev, @function
_ZN4asio5error6detail14netdb_categoryD2Ev:
.LFB10223:
	.cfi_startproc
	movq	_ZTVN4asio5error6detail14netdb_categoryE@GOTPCREL(%rip), %rax
	addq	$16, %rax
	movq	%rax, (%rdi)
	jmp	_ZNSt3_V214error_categoryD2Ev@PLT
	.cfi_endproc
.LFE10223:
	.size	_ZN4asio5error6detail14netdb_categoryD2Ev, .-_ZN4asio5error6detail14netdb_categoryD2Ev
	.weak	_ZN4asio5error6detail14netdb_categoryD1Ev
	.set	_ZN4asio5error6detail14netdb_categoryD1Ev,_ZN4asio5error6detail14netdb_categoryD2Ev
	.section	.text._ZN4asio5error6detail17addrinfo_categoryD2Ev,"axG",@progbits,_ZN4asio5error6detail17addrinfo_categoryD5Ev,comdat
	.align 2
	.p2align 4,,15
	.weak	_ZN4asio5error6detail17addrinfo_categoryD2Ev
	.type	_ZN4asio5error6detail17addrinfo_categoryD2Ev, @function
_ZN4asio5error6detail17addrinfo_categoryD2Ev:
.LFB10219:
	.cfi_startproc
	movq	_ZTVN4asio5error6detail17addrinfo_categoryE@GOTPCREL(%rip), %rax
	addq	$16, %rax
	movq	%rax, (%rdi)
	jmp	_ZNSt3_V214error_categoryD2Ev@PLT
	.cfi_endproc
.LFE10219:
	.size	_ZN4asio5error6detail17addrinfo_categoryD2Ev, .-_ZN4asio5error6detail17addrinfo_categoryD2Ev
	.weak	_ZN4asio5error6detail17addrinfo_categoryD1Ev
	.set	_ZN4asio5error6detail17addrinfo_categoryD1Ev,_ZN4asio5error6detail17addrinfo_categoryD2Ev
	.section	.text._ZN4asio5error6detail13misc_categoryD2Ev,"axG",@progbits,_ZN4asio5error6detail13misc_categoryD5Ev,comdat
	.align 2
	.p2align 4,,15
	.weak	_ZN4asio5error6detail13misc_categoryD2Ev
	.type	_ZN4asio5error6detail13misc_categoryD2Ev, @function
_ZN4asio5error6detail13misc_categoryD2Ev:
.LFB10215:
	.cfi_startproc
	movq	_ZTVN4asio5error6detail13misc_categoryE@GOTPCREL(%rip), %rax
	addq	$16, %rax
	movq	%rax, (%rdi)
	jmp	_ZNSt3_V214error_categoryD2Ev@PLT
	.cfi_endproc
.LFE10215:
	.size	_ZN4asio5error6detail13misc_categoryD2Ev, .-_ZN4asio5error6detail13misc_categoryD2Ev
	.weak	_ZN4asio5error6detail13misc_categoryD1Ev
	.set	_ZN4asio5error6detail13misc_categoryD1Ev,_ZN4asio5error6detail13misc_categoryD2Ev
	.section	.text._ZNSt23_Sp_counted_ptr_inplaceIN8asiodnp318TCPServerIOHandler6ServerESaIS2_ELN9__gnu_cxx12_Lock_policyE2EE10_M_destroyEv,"axG",@progbits,_ZNSt23_Sp_counted_ptr_inplaceIN8asiodnp318TCPServerIOHandler6ServerESaIS2_ELN9__gnu_cxx12_Lock_policyE2EE10_M_destroyEv,comdat
	.align 2
	.p2align 4,,15
	.weak	_ZNSt23_Sp_counted_ptr_inplaceIN8asiodnp318TCPServerIOHandler6ServerESaIS2_ELN9__gnu_cxx12_Lock_policyE2EE10_M_destroyEv
	.type	_ZNSt23_Sp_counted_ptr_inplaceIN8asiodnp318TCPServerIOHandler6ServerESaIS2_ELN9__gnu_cxx12_Lock_policyE2EE10_M_destroyEv, @function
_ZNSt23_Sp_counted_ptr_inplaceIN8asiodnp318TCPServerIOHandler6ServerESaIS2_ELN9__gnu_cxx12_Lock_policyE2EE10_M_destroyEv:
.LFB10275:
	.cfi_startproc
	jmp	_ZdlPv@PLT
	.cfi_endproc
.LFE10275:
	.size	_ZNSt23_Sp_counted_ptr_inplaceIN8asiodnp318TCPServerIOHandler6ServerESaIS2_ELN9__gnu_cxx12_Lock_policyE2EE10_M_destroyEv, .-_ZNSt23_Sp_counted_ptr_inplaceIN8asiodnp318TCPServerIOHandler6ServerESaIS2_ELN9__gnu_cxx12_Lock_policyE2EE10_M_destroyEv
	.section	.text._ZNSt23_Sp_counted_ptr_inplaceIN7asiopal13SocketChannelESaIS1_ELN9__gnu_cxx12_Lock_policyE2EE10_M_destroyEv,"axG",@progbits,_ZNSt23_Sp_counted_ptr_inplaceIN7asiopal13SocketChannelESaIS1_ELN9__gnu_cxx12_Lock_policyE2EE10_M_destroyEv,comdat
	.align 2
	.p2align 4,,15
	.weak	_ZNSt23_Sp_counted_ptr_inplaceIN7asiopal13SocketChannelESaIS1_ELN9__gnu_cxx12_Lock_policyE2EE10_M_destroyEv
	.type	_ZNSt23_Sp_counted_ptr_inplaceIN7asiopal13SocketChannelESaIS1_ELN9__gnu_cxx12_Lock_policyE2EE10_M_destroyEv, @function
_ZNSt23_Sp_counted_ptr_inplaceIN7asiopal13SocketChannelESaIS1_ELN9__gnu_cxx12_Lock_policyE2EE10_M_destroyEv:
.LFB10282:
	.cfi_startproc
	jmp	_ZdlPv@PLT
	.cfi_endproc
.LFE10282:
	.size	_ZNSt23_Sp_counted_ptr_inplaceIN7asiopal13SocketChannelESaIS1_ELN9__gnu_cxx12_Lock_policyE2EE10_M_destroyEv, .-_ZNSt23_Sp_counted_ptr_inplaceIN7asiopal13SocketChannelESaIS1_ELN9__gnu_cxx12_Lock_policyE2EE10_M_destroyEv
	.section	.text._ZN4asio6detail15system_categoryD0Ev,"axG",@progbits,_ZN4asio6detail15system_categoryD5Ev,comdat
	.align 2
	.p2align 4,,15
	.weak	_ZN4asio6detail15system_categoryD0Ev
	.type	_ZN4asio6detail15system_categoryD0Ev, @function
_ZN4asio6detail15system_categoryD0Ev:
.LFB10237:
	.cfi_startproc
	movq	_ZTVN4asio6detail15system_categoryE@GOTPCREL(%rip), %rax
	pushq	%rbx
	.cfi_def_cfa_offset 16
	.cfi_offset 3, -16
	movq	%rdi, %rbx
	addq	$16, %rax
	movq	%rax, (%rdi)
	call	_ZNSt3_V214error_categoryD2Ev@PLT
	movq	%rbx, %rdi
	movl	$8, %esi
	popq	%rbx
	.cfi_def_cfa_offset 8
	jmp	_ZdlPvm@PLT
	.cfi_endproc
.LFE10237:
	.size	_ZN4asio6detail15system_categoryD0Ev, .-_ZN4asio6detail15system_categoryD0Ev
	.section	.text._ZN4asio5error6detail14netdb_categoryD0Ev,"axG",@progbits,_ZN4asio5error6detail14netdb_categoryD5Ev,comdat
	.align 2
	.p2align 4,,15
	.weak	_ZN4asio5error6detail14netdb_categoryD0Ev
	.type	_ZN4asio5error6detail14netdb_categoryD0Ev, @function
_ZN4asio5error6detail14netdb_categoryD0Ev:
.LFB10225:
	.cfi_startproc
	movq	_ZTVN4asio5error6detail14netdb_categoryE@GOTPCREL(%rip), %rax
	pushq	%rbx
	.cfi_def_cfa_offset 16
	.cfi_offset 3, -16
	movq	%rdi, %rbx
	addq	$16, %rax
	movq	%rax, (%rdi)
	call	_ZNSt3_V214error_categoryD2Ev@PLT
	movq	%rbx, %rdi
	movl	$8, %esi
	popq	%rbx
	.cfi_def_cfa_offset 8
	jmp	_ZdlPvm@PLT
	.cfi_endproc
.LFE10225:
	.size	_ZN4asio5error6detail14netdb_categoryD0Ev, .-_ZN4asio5error6detail14netdb_categoryD0Ev
	.section	.text._ZN4asio5error6detail17addrinfo_categoryD0Ev,"axG",@progbits,_ZN4asio5error6detail17addrinfo_categoryD5Ev,comdat
	.align 2
	.p2align 4,,15
	.weak	_ZN4asio5error6detail17addrinfo_categoryD0Ev
	.type	_ZN4asio5error6detail17addrinfo_categoryD0Ev, @function
_ZN4asio5error6detail17addrinfo_categoryD0Ev:
.LFB10221:
	.cfi_startproc
	movq	_ZTVN4asio5error6detail17addrinfo_categoryE@GOTPCREL(%rip), %rax
	pushq	%rbx
	.cfi_def_cfa_offset 16
	.cfi_offset 3, -16
	movq	%rdi, %rbx
	addq	$16, %rax
	movq	%rax, (%rdi)
	call	_ZNSt3_V214error_categoryD2Ev@PLT
	movq	%rbx, %rdi
	movl	$8, %esi
	popq	%rbx
	.cfi_def_cfa_offset 8
	jmp	_ZdlPvm@PLT
	.cfi_endproc
.LFE10221:
	.size	_ZN4asio5error6detail17addrinfo_categoryD0Ev, .-_ZN4asio5error6detail17addrinfo_categoryD0Ev
	.section	.text._ZN4asio5error6detail13misc_categoryD0Ev,"axG",@progbits,_ZN4asio5error6detail13misc_categoryD5Ev,comdat
	.align 2
	.p2align 4,,15
	.weak	_ZN4asio5error6detail13misc_categoryD0Ev
	.type	_ZN4asio5error6detail13misc_categoryD0Ev, @function
_ZN4asio5error6detail13misc_categoryD0Ev:
.LFB10217:
	.cfi_startproc
	movq	_ZTVN4asio5error6detail13misc_categoryE@GOTPCREL(%rip), %rax
	pushq	%rbx
	.cfi_def_cfa_offset 16
	.cfi_offset 3, -16
	movq	%rdi, %rbx
	addq	$16, %rax
	movq	%rax, (%rdi)
	call	_ZNSt3_V214error_categoryD2Ev@PLT
	movq	%rbx, %rdi
	movl	$8, %esi
	popq	%rbx
	.cfi_def_cfa_offset 8
	jmp	_ZdlPvm@PLT
	.cfi_endproc
.LFE10217:
	.size	_ZN4asio5error6detail13misc_categoryD0Ev, .-_ZN4asio5error6detail13misc_categoryD0Ev
	.section	.text._ZNSt23_Sp_counted_ptr_inplaceIN7asiopal13SocketChannelESaIS1_ELN9__gnu_cxx12_Lock_policyE2EED0Ev,"axG",@progbits,_ZNSt23_Sp_counted_ptr_inplaceIN7asiopal13SocketChannelESaIS1_ELN9__gnu_cxx12_Lock_policyE2EED5Ev,comdat
	.align 2
	.p2align 4,,15
	.weak	_ZNSt23_Sp_counted_ptr_inplaceIN7asiopal13SocketChannelESaIS1_ELN9__gnu_cxx12_Lock_policyE2EED0Ev
	.type	_ZNSt23_Sp_counted_ptr_inplaceIN7asiopal13SocketChannelESaIS1_ELN9__gnu_cxx12_Lock_policyE2EED0Ev, @function
_ZNSt23_Sp_counted_ptr_inplaceIN7asiopal13SocketChannelESaIS1_ELN9__gnu_cxx12_Lock_policyE2EED0Ev:
.LFB10280:
	.cfi_startproc
	movl	$112, %esi
	jmp	_ZdlPvm@PLT
	.cfi_endproc
.LFE10280:
	.size	_ZNSt23_Sp_counted_ptr_inplaceIN7asiopal13SocketChannelESaIS1_ELN9__gnu_cxx12_Lock_policyE2EED0Ev, .-_ZNSt23_Sp_counted_ptr_inplaceIN7asiopal13SocketChannelESaIS1_ELN9__gnu_cxx12_Lock_policyE2EED0Ev
	.section	.text._ZNSt23_Sp_counted_ptr_inplaceIN8asiodnp318TCPServerIOHandler6ServerESaIS2_ELN9__gnu_cxx12_Lock_policyE2EED0Ev,"axG",@progbits,_ZNSt23_Sp_counted_ptr_inplaceIN8asiodnp318TCPServerIOHandler6ServerESaIS2_ELN9__gnu_cxx12_Lock_policyE2EED5Ev,comdat
	.align 2
	.p2align 4,,15
	.weak	_ZNSt23_Sp_counted_ptr_inplaceIN8asiodnp318TCPServerIOHandler6ServerESaIS2_ELN9__gnu_cxx12_Lock_policyE2EED0Ev
	.type	_ZNSt23_Sp_counted_ptr_inplaceIN8asiodnp318TCPServerIOHandler6ServerESaIS2_ELN9__gnu_cxx12_Lock_policyE2EED0Ev, @function
_ZNSt23_Sp_counted_ptr_inplaceIN8asiodnp318TCPServerIOHandler6ServerESaIS2_ELN9__gnu_cxx12_Lock_policyE2EED0Ev:
.LFB10273:
	.cfi_startproc
	movl	$256, %esi
	jmp	_ZdlPvm@PLT
	.cfi_endproc
.LFE10273:
	.size	_ZNSt23_Sp_counted_ptr_inplaceIN8asiodnp318TCPServerIOHandler6ServerESaIS2_ELN9__gnu_cxx12_Lock_policyE2EED0Ev, .-_ZNSt23_Sp_counted_ptr_inplaceIN8asiodnp318TCPServerIOHandler6ServerESaIS2_ELN9__gnu_cxx12_Lock_policyE2EED0Ev
	.section	.text._ZNSt23_Sp_counted_ptr_inplaceIN7asiopal13SocketChannelESaIS1_ELN9__gnu_cxx12_Lock_policyE2EE14_M_get_deleterERKSt9type_info,"axG",@progbits,_ZNSt23_Sp_counted_ptr_inplaceIN7asiopal13SocketChannelESaIS1_ELN9__gnu_cxx12_Lock_policyE2EE14_M_get_deleterERKSt9type_info,comdat
	.align 2
	.p2align 4,,15
	.weak	_ZNSt23_Sp_counted_ptr_inplaceIN7asiopal13SocketChannelESaIS1_ELN9__gnu_cxx12_Lock_policyE2EE14_M_get_deleterERKSt9type_info
	.type	_ZNSt23_Sp_counted_ptr_inplaceIN7asiopal13SocketChannelESaIS1_ELN9__gnu_cxx12_Lock_policyE2EE14_M_get_deleterERKSt9type_info, @function
_ZNSt23_Sp_counted_ptr_inplaceIN7asiopal13SocketChannelESaIS1_ELN9__gnu_cxx12_Lock_policyE2EE14_M_get_deleterERKSt9type_info:
.LFB10283:
	.cfi_startproc
	pushq	%rbx
	.cfi_def_cfa_offset 16
	.cfi_offset 3, -16
	movq	%rdi, %rbx
	movq	8(%rsi), %rdi
	movq	_ZTSSt19_Sp_make_shared_tag@GOTPCREL(%rip), %rsi
	cmpq	%rsi, %rdi
	je	.L32
	cmpb	$42, (%rdi)
	je	.L35
	call	strcmp@PLT
	testl	%eax, %eax
	jne	.L35
.L32:
	leaq	16(%rbx), %rax
	popq	%rbx
	.cfi_remember_state
	.cfi_def_cfa_offset 8
	ret
	.p2align 4,,10
	.p2align 3
.L35:
	.cfi_restore_state
	xorl	%eax, %eax
	popq	%rbx
	.cfi_def_cfa_offset 8
	ret
	.cfi_endproc
.LFE10283:
	.size	_ZNSt23_Sp_counted_ptr_inplaceIN7asiopal13SocketChannelESaIS1_ELN9__gnu_cxx12_Lock_policyE2EE14_M_get_deleterERKSt9type_info, .-_ZNSt23_Sp_counted_ptr_inplaceIN7asiopal13SocketChannelESaIS1_ELN9__gnu_cxx12_Lock_policyE2EE14_M_get_deleterERKSt9type_info
	.section	.text._ZNSt23_Sp_counted_ptr_inplaceIN8asiodnp318TCPServerIOHandler6ServerESaIS2_ELN9__gnu_cxx12_Lock_policyE2EE14_M_get_deleterERKSt9type_info,"axG",@progbits,_ZNSt23_Sp_counted_ptr_inplaceIN8asiodnp318TCPServerIOHandler6ServerESaIS2_ELN9__gnu_cxx12_Lock_policyE2EE14_M_get_deleterERKSt9type_info,comdat
	.align 2
	.p2align 4,,15
	.weak	_ZNSt23_Sp_counted_ptr_inplaceIN8asiodnp318TCPServerIOHandler6ServerESaIS2_ELN9__gnu_cxx12_Lock_policyE2EE14_M_get_deleterERKSt9type_info
	.type	_ZNSt23_Sp_counted_ptr_inplaceIN8asiodnp318TCPServerIOHandler6ServerESaIS2_ELN9__gnu_cxx12_Lock_policyE2EE14_M_get_deleterERKSt9type_info, @function
_ZNSt23_Sp_counted_ptr_inplaceIN8asiodnp318TCPServerIOHandler6ServerESaIS2_ELN9__gnu_cxx12_Lock_policyE2EE14_M_get_deleterERKSt9type_info:
.LFB10276:
	.cfi_startproc
	pushq	%rbx
	.cfi_def_cfa_offset 16
	.cfi_offset 3, -16
	movq	%rdi, %rbx
	movq	8(%rsi), %rdi
	movq	_ZTSSt19_Sp_make_shared_tag@GOTPCREL(%rip), %rsi
	cmpq	%rsi, %rdi
	je	.L38
	cmpb	$42, (%rdi)
	je	.L41
	call	strcmp@PLT
	testl	%eax, %eax
	jne	.L41
.L38:
	leaq	16(%rbx), %rax
	popq	%rbx
	.cfi_remember_state
	.cfi_def_cfa_offset 8
	ret
	.p2align 4,,10
	.p2align 3
.L41:
	.cfi_restore_state
	xorl	%eax, %eax
	popq	%rbx
	.cfi_def_cfa_offset 8
	ret
	.cfi_endproc
.LFE10276:
	.size	_ZNSt23_Sp_counted_ptr_inplaceIN8asiodnp318TCPServerIOHandler6ServerESaIS2_ELN9__gnu_cxx12_Lock_policyE2EE14_M_get_deleterERKSt9type_info, .-_ZNSt23_Sp_counted_ptr_inplaceIN8asiodnp318TCPServerIOHandler6ServerESaIS2_ELN9__gnu_cxx12_Lock_policyE2EE14_M_get_deleterERKSt9type_info
	.section	.rodata._ZNK4asio6detail15system_category7messageB5cxx11Ei.str1.8,"aMS",@progbits,1
	.align 8
.LC4:
	.string	"basic_string::_M_construct null not valid"
	.section	.text._ZNK4asio6detail15system_category7messageB5cxx11Ei,"axG",@progbits,_ZNK4asio6detail15system_category7messageB5cxx11Ei,comdat
	.align 2
	.p2align 4,,15
	.weak	_ZNK4asio6detail15system_category7messageB5cxx11Ei
	.type	_ZNK4asio6detail15system_category7messageB5cxx11Ei, @function
_ZNK4asio6detail15system_category7messageB5cxx11Ei:
.LFB2905:
	.cfi_startproc
	pushq	%r13
	.cfi_def_cfa_offset 16
	.cfi_offset 13, -16
	pushq	%r12
	.cfi_def_cfa_offset 24
	.cfi_offset 12, -24
	pushq	%rbp
	.cfi_def_cfa_offset 32
	.cfi_offset 6, -32
	pushq	%rbx
	.cfi_def_cfa_offset 40
	.cfi_offset 3, -40
	leaq	16(%rdi), %rbp
	movq	%rdi, %rbx
	subq	$296, %rsp
	.cfi_def_cfa_offset 336
	movq	%fs:40, %rax
	movq	%rax, 280(%rsp)
	xorl	%eax, %eax
	cmpl	$125, %edx
	je	.L58
	pxor	%xmm0, %xmm0
	leaq	32(%rsp), %rdi
	movl	%edx, %r8d
	xorl	%eax, %eax
	movl	$30, %ecx
	leaq	16(%rsp), %rsi
	rep stosq
	movl	$256, %edx
	movl	%r8d, %edi
	movaps	%xmm0, 16(%rsp)
	call	strerror_r@PLT
	testq	%rax, %rax
	movq	%rax, %r12
	movq	%rbp, (%rbx)
	je	.L46
	movq	%rax, %rdi
	call	strlen@PLT
	cmpq	$15, %rax
	movq	%rax, %r13
	movq	%rax, 8(%rsp)
	ja	.L59
	cmpq	$1, %rax
	jne	.L50
	movzbl	(%r12), %edx
	movb	%dl, 16(%rbx)
.L51:
	movq	%rax, 8(%rbx)
	movb	$0, 0(%rbp,%rax)
.L43:
	movq	280(%rsp), %rcx
	xorq	%fs:40, %rcx
	movq	%rbx, %rax
	jne	.L60
	addq	$296, %rsp
	.cfi_remember_state
	.cfi_def_cfa_offset 40
	popq	%rbx
	.cfi_def_cfa_offset 32
	popq	%rbp
	.cfi_def_cfa_offset 24
	popq	%r12
	.cfi_def_cfa_offset 16
	popq	%r13
	.cfi_def_cfa_offset 8
	ret
	.p2align 4,,10
	.p2align 3
.L59:
	.cfi_restore_state
	leaq	8(%rsp), %rsi
	xorl	%edx, %edx
	movq	%rbx, %rdi
	call	_ZNSt7__cxx1112basic_stringIcSt11char_traitsIcESaIcEE9_M_createERmm@PLT
	movq	%rax, %rbp
	movq	%rax, (%rbx)
	movq	8(%rsp), %rax
	movq	%rax, 16(%rbx)
.L49:
	movq	%rbp, %rdi
	movq	%r13, %rdx
	movq	%r12, %rsi
	call	memcpy@PLT
	movq	8(%rsp), %rax
	movq	(%rbx), %rbp
	jmp	.L51
	.p2align 4,,10
	.p2align 3
.L58:
	leaq	8(%rsp), %rsi
	xorl	%edx, %edx
	movq	%rbp, (%rdi)
	movq	$18, 8(%rsp)
	call	_ZNSt7__cxx1112basic_stringIcSt11char_traitsIcESaIcEE9_M_createERmm@PLT
	movq	8(%rsp), %rdx
	movq	%rax, (%rbx)
	movdqa	.LC5(%rip), %xmm0
	movq	%rdx, 16(%rbx)
	movl	$11876, %edx
	movups	%xmm0, (%rax)
	movw	%dx, 16(%rax)
	movq	8(%rsp), %rax
	movq	(%rbx), %rdx
	movq	%rax, 8(%rbx)
	movb	$0, (%rdx,%rax)
	jmp	.L43
	.p2align 4,,10
	.p2align 3
.L50:
	testq	%rax, %rax
	je	.L51
	jmp	.L49
.L60:
	call	__stack_chk_fail@PLT
.L46:
	leaq	.LC4(%rip), %rdi
	call	_ZSt19__throw_logic_errorPKc@PLT
	.cfi_endproc
.LFE2905:
	.size	_ZNK4asio6detail15system_category7messageB5cxx11Ei, .-_ZNK4asio6detail15system_category7messageB5cxx11Ei
	.section	.text._ZNK4asio5error6detail17addrinfo_category7messageB5cxx11Ei,"axG",@progbits,_ZNK4asio5error6detail17addrinfo_category7messageB5cxx11Ei,comdat
	.align 2
	.p2align 4,,15
	.weak	_ZNK4asio5error6detail17addrinfo_category7messageB5cxx11Ei
	.type	_ZNK4asio5error6detail17addrinfo_category7messageB5cxx11Ei, @function
_ZNK4asio5error6detail17addrinfo_category7messageB5cxx11Ei:
.LFB2951:
	.cfi_startproc
	pushq	%rbx
	.cfi_def_cfa_offset 16
	.cfi_offset 3, -16
	movq	%rdi, %rbx
	subq	$16, %rsp
	.cfi_def_cfa_offset 32
	movq	%fs:40, %rax
	movq	%rax, 8(%rsp)
	xorl	%eax, %eax
	leaq	16(%rdi), %rax
	cmpl	$-8, %edx
	movq	%rax, (%rdi)
	je	.L67
	cmpl	$-7, %edx
	je	.L68
	xorl	%edx, %edx
	movq	%rsp, %rsi
	movq	$19, (%rsp)
	call	_ZNSt7__cxx1112basic_stringIcSt11char_traitsIcESaIcEE9_M_createERmm@PLT
	movq	(%rsp), %rdx
	movq	%rax, (%rbx)
	movdqa	.LC8(%rip), %xmm0
	movq	%rdx, 16(%rbx)
	movl	$28530, %edx
	movb	$114, 18(%rax)
	movups	%xmm0, (%rax)
	movw	%dx, 16(%rax)
	movq	(%rsp), %rax
	movq	(%rbx), %rdx
	movq	%rax, 8(%rbx)
	movb	$0, (%rdx,%rax)
.L61:
	movq	8(%rsp), %rcx
	xorq	%fs:40, %rcx
	movq	%rbx, %rax
	jne	.L69
	addq	$16, %rsp
	.cfi_remember_state
	.cfi_def_cfa_offset 16
	popq	%rbx
	.cfi_def_cfa_offset 8
	ret
	.p2align 4,,10
	.p2align 3
.L68:
	.cfi_restore_state
	xorl	%edx, %edx
	movq	%rsp, %rsi
	movq	$25, (%rsp)
	call	_ZNSt7__cxx1112basic_stringIcSt11char_traitsIcESaIcEE9_M_createERmm@PLT
	movq	(%rsp), %rdx
	movabsq	$7310593918082512243, %rcx
	movq	%rax, (%rbx)
	movdqa	.LC7(%rip), %xmm0
	movq	%rdx, 16(%rbx)
	movq	%rcx, 16(%rax)
	movups	%xmm0, (%rax)
	movb	$100, 24(%rax)
	movq	(%rsp), %rax
	movq	(%rbx), %rdx
	movq	%rax, 8(%rbx)
	movb	$0, (%rdx,%rax)
	jmp	.L61
	.p2align 4,,10
	.p2align 3
.L67:
	xorl	%edx, %edx
	movq	%rsp, %rsi
	movq	$17, (%rsp)
	call	_ZNSt7__cxx1112basic_stringIcSt11char_traitsIcESaIcEE9_M_createERmm@PLT
	movq	(%rsp), %rdx
	movq	%rax, (%rbx)
	movdqa	.LC6(%rip), %xmm0
	movq	%rdx, 16(%rbx)
	movb	$100, 16(%rax)
	movups	%xmm0, (%rax)
	movq	(%rsp), %rax
	movq	(%rbx), %rdx
	movq	%rax, 8(%rbx)
	movb	$0, (%rdx,%rax)
	jmp	.L61
.L69:
	call	__stack_chk_fail@PLT
	.cfi_endproc
.LFE2951:
	.size	_ZNK4asio5error6detail17addrinfo_category7messageB5cxx11Ei, .-_ZNK4asio5error6detail17addrinfo_category7messageB5cxx11Ei
	.section	.text._ZNK4asio5error6detail13misc_category7messageB5cxx11Ei,"axG",@progbits,_ZNK4asio5error6detail13misc_category7messageB5cxx11Ei,comdat
	.align 2
	.p2align 4,,15
	.weak	_ZNK4asio5error6detail13misc_category7messageB5cxx11Ei
	.type	_ZNK4asio5error6detail13misc_category7messageB5cxx11Ei, @function
_ZNK4asio5error6detail13misc_category7messageB5cxx11Ei:
.LFB2957:
	.cfi_startproc
	pushq	%rbx
	.cfi_def_cfa_offset 16
	.cfi_offset 3, -16
	movq	%rdi, %rbx
	subq	$16, %rsp
	.cfi_def_cfa_offset 32
	movq	%fs:40, %rax
	movq	%rax, 8(%rsp)
	xorl	%eax, %eax
	leaq	16(%rdi), %rax
	cmpl	$1, %edx
	movq	%rax, (%rdi)
	je	.L78
	cmpl	$2, %edx
	je	.L79
	cmpl	$3, %edx
	je	.L80
	cmpl	$4, %edx
	je	.L81
	movabsq	$8316298233121436513, %rsi
	movl	$28530, %edx
	movq	%rsi, 16(%rdi)
	movl	$1919230051, 8(%rax)
	movw	%dx, 12(%rax)
	movb	$114, 14(%rax)
	movq	$15, 8(%rdi)
	movb	$0, 31(%rdi)
.L70:
	movq	8(%rsp), %rcx
	xorq	%fs:40, %rcx
	movq	%rbx, %rax
	jne	.L82
	addq	$16, %rsp
	.cfi_remember_state
	.cfi_def_cfa_offset 16
	popq	%rbx
	.cfi_def_cfa_offset 8
	ret
	.p2align 4,,10
	.p2align 3
.L81:
	.cfi_restore_state
	xorl	%edx, %edx
	movq	%rsp, %rsi
	movq	$57, (%rsp)
	call	_ZNSt7__cxx1112basic_stringIcSt11char_traitsIcESaIcEE9_M_createERmm@PLT
	movq	(%rsp), %rdx
	movq	%rax, (%rbx)
	movabsq	$7310291504967217959, %rdi
	movdqa	.LC10(%rip), %xmm0
	movq	%rdx, 16(%rbx)
	movq	%rdi, 48(%rax)
	movups	%xmm0, (%rax)
	movb	$116, 56(%rax)
	movdqa	.LC11(%rip), %xmm0
	movups	%xmm0, 16(%rax)
	movdqa	.LC12(%rip), %xmm0
	movups	%xmm0, 32(%rax)
	movq	(%rsp), %rax
	movq	(%rbx), %rdx
	movq	%rax, 8(%rbx)
	movb	$0, (%rdx,%rax)
	jmp	.L70
	.p2align 4,,10
	.p2align 3
.L78:
	movabsq	$2340011850872286273, %rcx
	movq	%rcx, 16(%rdi)
	movl	$1852141679, 8(%rax)
	movq	$12, 8(%rdi)
	movb	$0, 28(%rdi)
	jmp	.L70
	.p2align 4,,10
	.p2align 3
.L79:
	movabsq	$7358994418594246213, %rcx
	movq	%rcx, 16(%rdi)
	movl	$27753, %ecx
	movb	$101, 10(%rax)
	movw	%cx, 8(%rax)
	movq	$11, 8(%rdi)
	movb	$0, 27(%rdi)
	jmp	.L70
	.p2align 4,,10
	.p2align 3
.L80:
	xorl	%edx, %edx
	movq	%rsp, %rsi
	movq	$17, (%rsp)
	call	_ZNSt7__cxx1112basic_stringIcSt11char_traitsIcESaIcEE9_M_createERmm@PLT
	movq	(%rsp), %rdx
	movq	%rax, (%rbx)
	movdqa	.LC9(%rip), %xmm0
	movq	%rdx, 16(%rbx)
	movb	$100, 16(%rax)
	movups	%xmm0, (%rax)
	movq	(%rsp), %rax
	movq	(%rbx), %rdx
	movq	%rax, 8(%rbx)
	movb	$0, (%rdx,%rax)
	jmp	.L70
.L82:
	call	__stack_chk_fail@PLT
	.cfi_endproc
.LFE2957:
	.size	_ZNK4asio5error6detail13misc_category7messageB5cxx11Ei, .-_ZNK4asio5error6detail13misc_category7messageB5cxx11Ei
	.section	.text._ZNK4asio5error6detail14netdb_category7messageB5cxx11Ei,"axG",@progbits,_ZNK4asio5error6detail14netdb_category7messageB5cxx11Ei,comdat
	.align 2
	.p2align 4,,15
	.weak	_ZNK4asio5error6detail14netdb_category7messageB5cxx11Ei
	.type	_ZNK4asio5error6detail14netdb_category7messageB5cxx11Ei, @function
_ZNK4asio5error6detail14netdb_category7messageB5cxx11Ei:
.LFB2945:
	.cfi_startproc
	pushq	%rbx
	.cfi_def_cfa_offset 16
	.cfi_offset 3, -16
	movq	%rdi, %rbx
	subq	$16, %rsp
	.cfi_def_cfa_offset 32
	movq	%fs:40, %rax
	movq	%rax, 8(%rsp)
	xorl	%eax, %eax
	leaq	16(%rdi), %rax
	cmpl	$1, %edx
	movq	%rax, (%rdi)
	je	.L91
	cmpl	$2, %edx
	je	.L92
	cmpl	$4, %edx
	je	.L93
	cmpl	$3, %edx
	je	.L94
	xorl	%edx, %edx
	movq	%rsp, %rsi
	movq	$16, (%rsp)
	call	_ZNSt7__cxx1112basic_stringIcSt11char_traitsIcESaIcEE9_M_createERmm@PLT
	movq	(%rsp), %rdx
	movq	%rax, (%rbx)
	movdqa	.LC22(%rip), %xmm0
	movq	%rdx, 16(%rbx)
	movups	%xmm0, (%rax)
	movq	(%rsp), %rax
	movq	(%rbx), %rdx
	movq	%rax, 8(%rbx)
	movb	$0, (%rdx,%rax)
.L83:
	movq	8(%rsp), %rcx
	xorq	%fs:40, %rcx
	movq	%rbx, %rax
	jne	.L95
	addq	$16, %rsp
	.cfi_remember_state
	.cfi_def_cfa_offset 16
	popq	%rbx
	.cfi_def_cfa_offset 8
	ret
	.p2align 4,,10
	.p2align 3
.L94:
	.cfi_restore_state
	xorl	%edx, %edx
	movq	%rsp, %rsi
	movq	$55, (%rsp)
	call	_ZNSt7__cxx1112basic_stringIcSt11char_traitsIcESaIcEE9_M_createERmm@PLT
	movq	(%rsp), %rdx
	movq	%rax, (%rbx)
	movdqa	.LC19(%rip), %xmm0
	movq	%rdx, 16(%rbx)
	movl	$30059, %edx
	movl	$1869573152, 48(%rax)
	movups	%xmm0, (%rax)
	movw	%dx, 52(%rax)
	movb	$112, 54(%rax)
	movdqa	.LC20(%rip), %xmm0
	movups	%xmm0, 16(%rax)
	movdqa	.LC21(%rip), %xmm0
	movups	%xmm0, 32(%rax)
	movq	(%rsp), %rax
	movq	(%rbx), %rdx
	movq	%rax, 8(%rbx)
	movb	$0, (%rdx,%rax)
	jmp	.L83
	.p2align 4,,10
	.p2align 3
.L91:
	movq	%rsp, %rsi
	xorl	%edx, %edx
	movq	$30, (%rsp)
	call	_ZNSt7__cxx1112basic_stringIcSt11char_traitsIcESaIcEE9_M_createERmm@PLT
	movq	(%rsp), %rdx
	movabsq	$8388361603773658465, %rcx
	movl	$10597, %esi
	movdqa	.LC13(%rip), %xmm0
	movq	%rax, (%rbx)
	movq	%rdx, 16(%rbx)
	movq	%rcx, 16(%rax)
	movups	%xmm0, (%rax)
	movl	$1986622561, 24(%rax)
	movw	%si, 28(%rax)
	movq	(%rsp), %rax
	movq	(%rbx), %rdx
	movq	%rax, 8(%rbx)
	movb	$0, (%rdx,%rax)
	jmp	.L83
	.p2align 4,,10
	.p2align 3
.L92:
	xorl	%edx, %edx
	movq	%rsp, %rsi
	movq	$51, (%rsp)
	call	_ZNSt7__cxx1112basic_stringIcSt11char_traitsIcESaIcEE9_M_createERmm@PLT
	movq	(%rsp), %rdx
	movq	%rax, (%rbx)
	movl	$25972, %ecx
	movdqa	.LC13(%rip), %xmm0
	movq	%rdx, 16(%rbx)
	movw	%cx, 48(%rax)
	movups	%xmm0, (%rax)
	movb	$114, 50(%rax)
	movdqa	.LC14(%rip), %xmm0
	movups	%xmm0, 16(%rax)
	movdqa	.LC15(%rip), %xmm0
	movups	%xmm0, 32(%rax)
	movq	(%rsp), %rax
	movq	(%rbx), %rdx
	movq	%rax, 8(%rbx)
	movb	$0, (%rdx,%rax)
	jmp	.L83
	.p2align 4,,10
	.p2align 3
.L93:
	xorl	%edx, %edx
	movq	%rsp, %rsi
	movq	$56, (%rsp)
	call	_ZNSt7__cxx1112basic_stringIcSt11char_traitsIcESaIcEE9_M_createERmm@PLT
	movq	(%rsp), %rdx
	movq	%rax, (%rbx)
	movabsq	$7022344801645520244, %rcx
	movdqa	.LC16(%rip), %xmm0
	movq	%rdx, 16(%rbx)
	movq	%rcx, 48(%rax)
	movups	%xmm0, (%rax)
	movdqa	.LC17(%rip), %xmm0
	movups	%xmm0, 16(%rax)
	movdqa	.LC18(%rip), %xmm0
	movups	%xmm0, 32(%rax)
	movq	(%rsp), %rax
	movq	(%rbx), %rdx
	movq	%rax, 8(%rbx)
	movb	$0, (%rdx,%rax)
	jmp	.L83
.L95:
	call	__stack_chk_fail@PLT
	.cfi_endproc
.LFE2945:
	.size	_ZNK4asio5error6detail14netdb_category7messageB5cxx11Ei, .-_ZNK4asio5error6detail14netdb_category7messageB5cxx11Ei
	.text
	.align 2
	.p2align 4,,15
	.globl	_ZN8asiodnp318TCPServerIOHandler12ShutdownImplEv
	.type	_ZN8asiodnp318TCPServerIOHandler12ShutdownImplEv, @function
_ZN8asiodnp318TCPServerIOHandler12ShutdownImplEv:
.LFB7585:
	.cfi_startproc
	movq	856(%rdi), %rax
	testq	%rax, %rax
	je	.L108
	pushq	%rbp
	.cfi_def_cfa_offset 16
	.cfi_offset 6, -16
	pushq	%rbx
	.cfi_def_cfa_offset 24
	.cfi_offset 3, -24
	movq	%rdi, %rbx
	movq	%rax, %rdi
	subq	$8, %rsp
	.cfi_def_cfa_offset 32
	call	_ZN7asiopal9TCPServer8ShutdownEv@PLT
	movq	864(%rbx), %rbp
	movq	$0, 856(%rbx)
	movq	$0, 864(%rbx)
	testq	%rbp, %rbp
	je	.L96
	cmpq	$0, _ZL28__gthrw___pthread_key_createPjPFvPvE@GOTPCREL(%rip)
	je	.L100
	lock subl	$1, 8(%rbp)
	jne	.L96
	movq	0(%rbp), %rax
	movq	%rbp, %rdi
	call	*16(%rax)
	movl	$-1, %eax
	lock xaddl	%eax, 12(%rbp)
.L103:
	cmpl	$1, %eax
	je	.L111
.L96:
	addq	$8, %rsp
	.cfi_def_cfa_offset 24
	popq	%rbx
	.cfi_def_cfa_offset 16
	popq	%rbp
	.cfi_def_cfa_offset 8
	ret
	.p2align 4,,10
	.p2align 3
.L108:
	.cfi_restore 3
	.cfi_restore 6
	rep ret
	.p2align 4,,10
	.p2align 3
.L100:
	.cfi_def_cfa_offset 32
	.cfi_offset 3, -24
	.cfi_offset 6, -16
	movl	8(%rbp), %eax
	leal	-1(%rax), %edx
	cmpl	$1, %eax
	movl	%edx, 8(%rbp)
	jne	.L96
	movq	0(%rbp), %rax
	movq	%rbp, %rdi
	call	*16(%rax)
	movl	12(%rbp), %eax
	leal	-1(%rax), %edx
	movl	%edx, 12(%rbp)
	jmp	.L103
	.p2align 4,,10
	.p2align 3
.L111:
	movq	0(%rbp), %rax
	movq	%rbp, %rdi
	movq	24(%rax), %rax
	addq	$8, %rsp
	.cfi_def_cfa_offset 24
	popq	%rbx
	.cfi_restore 3
	.cfi_def_cfa_offset 16
	popq	%rbp
	.cfi_restore 6
	.cfi_def_cfa_offset 8
	jmp	*%rax
	.cfi_endproc
.LFE7585:
	.size	_ZN8asiodnp318TCPServerIOHandler12ShutdownImplEv, .-_ZN8asiodnp318TCPServerIOHandler12ShutdownImplEv
	.globl	_ZN8asiodnp318TCPServerIOHandler20SuspendChannelAcceptEv
	.set	_ZN8asiodnp318TCPServerIOHandler20SuspendChannelAcceptEv,_ZN8asiodnp318TCPServerIOHandler12ShutdownImplEv
	.p2align 4,,15
	.type	_ZNSt14_Function_base13_Base_managerIZN8asiodnp318TCPServerIOHandler18BeginChannelAcceptEvEUlRKSt10shared_ptrIN7asiopal8ExecutorEEN4asio19basic_stream_socketINS9_2ip3tcpENS9_21stream_socket_serviceISC_EEEEE_E10_M_managerERSt9_Any_dataRKSI_St18_Manager_operation, @function
_ZNSt14_Function_base13_Base_managerIZN8asiodnp318TCPServerIOHandler18BeginChannelAcceptEvEUlRKSt10shared_ptrIN7asiopal8ExecutorEEN4asio19basic_stream_socketINS9_2ip3tcpENS9_21stream_socket_serviceISC_EEEEE_E10_M_managerERSt9_Any_dataRKSI_St18_Manager_operation:
.LFB8977:
	.cfi_startproc
	cmpl	$1, %edx
	je	.L114
	jb	.L115
	pushq	%rbp
	.cfi_def_cfa_offset 16
	.cfi_offset 6, -16
	pushq	%rbx
	.cfi_def_cfa_offset 24
	.cfi_offset 3, -24
	movq	%rdi, %rbx
	subq	$8, %rsp
	.cfi_def_cfa_offset 32
	cmpl	$2, %edx
	je	.L116
	cmpl	$3, %edx
	jne	.L129
	movq	(%rdi), %rbx
	testq	%rbx, %rbx
	je	.L129
	movq	8(%rbx), %rbp
	testq	%rbp, %rbp
	je	.L121
	cmpq	$0, _ZL28__gthrw___pthread_key_createPjPFvPvE@GOTPCREL(%rip)
	je	.L122
	lock subl	$1, 8(%rbp)
	jne	.L121
	movq	0(%rbp), %rax
	movq	%rbp, %rdi
	call	*16(%rax)
	movl	$-1, %eax
	lock xaddl	%eax, 12(%rbp)
.L126:
	cmpl	$1, %eax
	jne	.L121
	movq	0(%rbp), %rax
	movq	%rbp, %rdi
	call	*24(%rax)
	.p2align 4,,10
	.p2align 3
.L121:
	movl	$24, %esi
	movq	%rbx, %rdi
	call	_ZdlPvm@PLT
.L129:
	addq	$8, %rsp
	.cfi_remember_state
	.cfi_def_cfa_offset 24
	xorl	%eax, %eax
	popq	%rbx
	.cfi_def_cfa_offset 16
	popq	%rbp
	.cfi_def_cfa_offset 8
	ret
	.p2align 4,,10
	.p2align 3
.L116:
	.cfi_restore_state
	movq	(%rsi), %rbp
	movl	$24, %edi
	call	_Znwm@PLT
	movq	0(%rbp), %rdx
	movq	%rdx, (%rax)
	movq	8(%rbp), %rdx
	testq	%rdx, %rdx
	movq	%rdx, 8(%rax)
	je	.L118
	cmpq	$0, _ZL28__gthrw___pthread_key_createPjPFvPvE@GOTPCREL(%rip)
	je	.L119
	lock addl	$1, 8(%rdx)
.L118:
	movq	16(%rbp), %rdx
	movq	%rax, (%rbx)
	movq	%rdx, 16(%rax)
	addq	$8, %rsp
	.cfi_def_cfa_offset 24
	xorl	%eax, %eax
	popq	%rbx
	.cfi_def_cfa_offset 16
	popq	%rbp
	.cfi_def_cfa_offset 8
	ret
	.p2align 4,,10
	.p2align 3
.L115:
	.cfi_restore 3
	.cfi_restore 6
	leaq	_ZTIZN8asiodnp318TCPServerIOHandler18BeginChannelAcceptEvEUlRKSt10shared_ptrIN7asiopal8ExecutorEEN4asio19basic_stream_socketINS7_2ip3tcpENS7_21stream_socket_serviceISA_EEEEE_(%rip), %rax
	movq	%rax, (%rdi)
	xorl	%eax, %eax
	ret
	.p2align 4,,10
	.p2align 3
.L114:
	movq	(%rsi), %rax
	movq	%rax, (%rdi)
	xorl	%eax, %eax
	ret
	.p2align 4,,10
	.p2align 3
.L119:
	.cfi_def_cfa_offset 32
	.cfi_offset 3, -24
	.cfi_offset 6, -16
	addl	$1, 8(%rdx)
	jmp	.L118
	.p2align 4,,10
	.p2align 3
.L122:
	movl	8(%rbp), %eax
	leal	-1(%rax), %edx
	cmpl	$1, %eax
	movl	%edx, 8(%rbp)
	jne	.L121
	movq	0(%rbp), %rax
	movq	%rbp, %rdi
	call	*16(%rax)
	movl	12(%rbp), %eax
	leal	-1(%rax), %edx
	movl	%edx, 12(%rbp)
	jmp	.L126
	.cfi_endproc
.LFE8977:
	.size	_ZNSt14_Function_base13_Base_managerIZN8asiodnp318TCPServerIOHandler18BeginChannelAcceptEvEUlRKSt10shared_ptrIN7asiopal8ExecutorEEN4asio19basic_stream_socketINS9_2ip3tcpENS9_21stream_socket_serviceISC_EEEEE_E10_M_managerERSt9_Any_dataRKSI_St18_Manager_operation, .-_ZNSt14_Function_base13_Base_managerIZN8asiodnp318TCPServerIOHandler18BeginChannelAcceptEvEUlRKSt10shared_ptrIN7asiopal8ExecutorEEN4asio19basic_stream_socketINS9_2ip3tcpENS9_21stream_socket_serviceISC_EEEEE_E10_M_managerERSt9_Any_dataRKSI_St18_Manager_operation
	.section	.text._ZSt20__throw_bad_weak_ptrv,"axG",@progbits,_ZSt20__throw_bad_weak_ptrv,comdat
	.p2align 4,,15
	.weak	_ZSt20__throw_bad_weak_ptrv
	.type	_ZSt20__throw_bad_weak_ptrv, @function
_ZSt20__throw_bad_weak_ptrv:
.LFB1576:
	.cfi_startproc
	movl	$8, %edi
	subq	$8, %rsp
	.cfi_def_cfa_offset 16
	call	__cxa_allocate_exception@PLT
	movq	_ZTVSt12bad_weak_ptr@GOTPCREL(%rip), %rdx
	movq	_ZTISt12bad_weak_ptr@GOTPCREL(%rip), %rsi
	movq	%rax, %rdi
	addq	$16, %rdx
	movq	%rdx, (%rax)
	movq	_ZNSt12bad_weak_ptrD1Ev@GOTPCREL(%rip), %rdx
	call	__cxa_throw@PLT
	.cfi_endproc
.LFE1576:
	.size	_ZSt20__throw_bad_weak_ptrv, .-_ZSt20__throw_bad_weak_ptrv
	.section	.text._ZN4asio15system_categoryEv,"axG",@progbits,_ZN4asio15system_categoryEv,comdat
	.p2align 4,,15
	.weak	_ZN4asio15system_categoryEv
	.type	_ZN4asio15system_categoryEv, @function
_ZN4asio15system_categoryEv:
.LFB2908:
	.cfi_startproc
	pushq	%rbx
	.cfi_def_cfa_offset 16
	.cfi_offset 3, -16
	movq	_ZGVZN4asio15system_categoryEvE8instance@GOTPCREL(%rip), %rbx
	movzbl	(%rbx), %eax
	testb	%al, %al
	je	.L141
.L148:
	movq	_ZZN4asio15system_categoryEvE8instance@GOTPCREL(%rip), %rbx
	movq	%rbx, %rax
	popq	%rbx
	.cfi_remember_state
	.cfi_def_cfa_offset 8
	ret
	.p2align 4,,10
	.p2align 3
.L141:
	.cfi_restore_state
	movq	%rbx, %rdi
	call	__cxa_guard_acquire@PLT
	testl	%eax, %eax
	je	.L148
	movq	%rbx, %rdi
	call	__cxa_guard_release@PLT
	movq	_ZZN4asio15system_categoryEvE8instance@GOTPCREL(%rip), %rbx
	movq	_ZN4asio6detail15system_categoryD1Ev@GOTPCREL(%rip), %rdi
	leaq	__dso_handle(%rip), %rdx
	movq	%rbx, %rsi
	call	__cxa_atexit@PLT
	movq	%rbx, %rax
	popq	%rbx
	.cfi_def_cfa_offset 8
	ret
	.cfi_endproc
.LFE2908:
	.size	_ZN4asio15system_categoryEv, .-_ZN4asio15system_categoryEv
	.section	.text._ZNSt23_Sp_counted_ptr_inplaceIN8asiodnp318TCPServerIOHandler6ServerESaIS2_ELN9__gnu_cxx12_Lock_policyE2EE10_M_disposeEv,"axG",@progbits,_ZNSt23_Sp_counted_ptr_inplaceIN8asiodnp318TCPServerIOHandler6ServerESaIS2_ELN9__gnu_cxx12_Lock_policyE2EE10_M_disposeEv,comdat
	.align 2
	.p2align 4,,15
	.weak	_ZNSt23_Sp_counted_ptr_inplaceIN8asiodnp318TCPServerIOHandler6ServerESaIS2_ELN9__gnu_cxx12_Lock_policyE2EE10_M_disposeEv
	.type	_ZNSt23_Sp_counted_ptr_inplaceIN8asiodnp318TCPServerIOHandler6ServerESaIS2_ELN9__gnu_cxx12_Lock_policyE2EE10_M_disposeEv, @function
_ZNSt23_Sp_counted_ptr_inplaceIN8asiodnp318TCPServerIOHandler6ServerESaIS2_ELN9__gnu_cxx12_Lock_policyE2EE10_M_disposeEv:
.LFB10274:
	.cfi_startproc
	.cfi_personality 0x9b,DW.ref.__gxx_personality_v0
	.cfi_lsda 0x1b,.LLSDA10274
	pushq	%r15
	.cfi_def_cfa_offset 16
	.cfi_offset 15, -16
	pushq	%r14
	.cfi_def_cfa_offset 24
	.cfi_offset 14, -24
	pushq	%r13
	.cfi_def_cfa_offset 32
	.cfi_offset 13, -32
	pushq	%r12
	.cfi_def_cfa_offset 40
	.cfi_offset 12, -40
	pushq	%rbp
	.cfi_def_cfa_offset 48
	.cfi_offset 6, -48
	pushq	%rbx
	.cfi_def_cfa_offset 56
	.cfi_offset 3, -56
	movq	%rdi, %rbx
	subq	$88, %rsp
	.cfi_def_cfa_offset 144
	movq	%fs:40, %rax
	movq	%rax, 72(%rsp)
	xorl	%eax, %eax
	movq	_ZTVN8asiodnp318TCPServerIOHandler6ServerE@GOTPCREL(%rip), %rax
	addq	$16, %rax
	movq	%rax, 16(%rdi)
	movq	240(%rdi), %rax
	testq	%rax, %rax
	je	.L150
	leaq	224(%rdi), %rdi
	movl	$3, %edx
	movq	%rdi, %rsi
	call	*%rax
.L150:
	movq	_ZTVN7asiopal9TCPServerE@GOTPCREL(%rip), %rax
	movl	152(%rbx), %ebp
	addq	$16, %rax
	cmpl	$-1, %ebp
	movq	%rax, 16(%rbx)
	je	.L151
	movq	160(%rbx), %r13
	testq	%r13, %r13
	je	.L273
	movq	176(%rbx), %rax
	movzbl	156(%rbx), %r12d
	movq	40(%rax), %rax
	movq	%rax, 32(%rsp)
	leaq	40(%r13), %rax
	movq	%rax, %rdi
	movq	%rax, 40(%rsp)
	call	pthread_mutex_lock@PLT
	movq	160(%rbx), %rsi
	cmpb	$0, 144(%rsi)
	jne	.L153
	andl	$64, %r12d
	jne	.L422
.L154:
	movq	$0, 8(%rsp)
	movq	8(%rsp), %rax
	xorl	%r14d, %r14d
	movq	$0, 24(%rsp)
	movq	%rbx, 16(%rsp)
.L164:
	leaq	6(%rax), %rcx
	salq	$4, %rcx
	movq	(%rsi,%rcx), %r13
	movq	%rcx, %r12
	testq	%r13, %r13
	je	.L276
	salq	$4, %rax
	movq	_ZGVZN4asio15system_categoryEvE8instance@GOTPCREL(%rip), %rbx
	movq	_ZZN4asio15system_categoryEvE8instance@GOTPCREL(%rip), %rbp
	movq	%rax, %r15
	jmp	.L156
	.p2align 4,,10
	.p2align 3
.L158:
	leaq	(%rsi,%r15), %rdx
	movl	$125, 24(%r13)
	movq	%rbp, 32(%r13)
	movq	96(%rdx), %rax
	testq	%rax, %rax
	je	.L160
	movq	(%rax), %rcx
	testq	%rcx, %rcx
	movq	%rcx, 96(%rdx)
	je	.L423
.L161:
	movq	$0, (%rax)
.L160:
	testq	%r14, %r14
	movq	$0, 0(%r13)
	je	.L162
	movq	(%rsi,%r12), %rax
	movq	%r13, (%r14)
	testq	%rax, %rax
	je	.L155
.L163:
	movq	%r13, %r14
	movq	%rax, %r13
.L156:
	movzbl	(%rbx), %eax
	testb	%al, %al
	jne	.L158
	movq	%rbx, %rdi
	call	__cxa_guard_acquire@PLT
	testl	%eax, %eax
	je	.L406
	movq	%rbx, %rdi
	call	__cxa_guard_release@PLT
	movq	_ZN4asio6detail15system_categoryD1Ev@GOTPCREL(%rip), %rdi
	leaq	__dso_handle(%rip), %rdx
	movq	%rbp, %rsi
	call	__cxa_atexit@PLT
.L406:
	movq	16(%rsp), %rax
	movq	160(%rax), %rsi
	jmp	.L158
	.p2align 4,,10
	.p2align 3
.L153:
	movq	40(%rsp), %rdi
	call	pthread_mutex_unlock@PLT
.L408:
	movl	152(%rbx), %ebp
	cmpl	$-1, %ebp
	je	.L151
.L273:
	movzbl	156(%rbx), %r12d
	call	__errno_location@PLT
	movq	%rax, %r13
	testb	$8, %r12b
	jne	.L399
	movq	_ZGVZN4asio15system_categoryEvE8instance@GOTPCREL(%rip), %r12
.L183:
	movl	$0, 0(%r13)
	movl	%ebp, %edi
	call	close@PLT
	movl	%eax, %r14d
	movzbl	(%r12), %eax
	testb	%al, %al
	je	.L424
.L188:
	testl	%r14d, %r14d
	je	.L151
	movl	0(%r13), %r14d
	movzbl	(%r12), %eax
	testb	%al, %al
	je	.L425
.L191:
	cmpl	$11, %r14d
	je	.L193
.L419:
	movzbl	(%r12), %eax
	testb	%al, %al
	jne	.L151
	movq	%r12, %rdi
	call	__cxa_guard_acquire@PLT
	testl	%eax, %eax
	je	.L151
	movq	%r12, %rdi
	call	__cxa_guard_release@PLT
	movq	_ZZN4asio15system_categoryEvE8instance@GOTPCREL(%rip), %rsi
	movq	_ZN4asio6detail15system_categoryD1Ev@GOTPCREL(%rip), %rdi
	leaq	__dso_handle(%rip), %rdx
	call	__cxa_atexit@PLT
	.p2align 4,,10
	.p2align 3
.L151:
	movl	120(%rbx), %ebp
	cmpl	$-1, %ebp
	je	.L199
	movq	128(%rbx), %r13
	testq	%r13, %r13
	je	.L274
	movq	144(%rbx), %rax
	movzbl	124(%rbx), %r12d
	movq	40(%rax), %rax
	movq	%rax, 32(%rsp)
	leaq	40(%r13), %rax
	movq	%rax, %rdi
	movq	%rax, 40(%rsp)
	call	pthread_mutex_lock@PLT
	movq	128(%rbx), %rsi
	cmpb	$0, 144(%rsi)
	jne	.L201
	andl	$64, %r12d
	jne	.L426
.L202:
	movq	$0, 8(%rsp)
	movq	8(%rsp), %rax
	xorl	%r14d, %r14d
	movq	$0, 24(%rsp)
	movq	%rbx, 16(%rsp)
.L212:
	leaq	6(%rax), %rcx
	salq	$4, %rcx
	movq	(%rsi,%rcx), %r13
	movq	%rcx, %r12
	testq	%r13, %r13
	je	.L279
	salq	$4, %rax
	movq	_ZGVZN4asio15system_categoryEvE8instance@GOTPCREL(%rip), %rbx
	movq	_ZZN4asio15system_categoryEvE8instance@GOTPCREL(%rip), %rbp
	movq	%rax, %r15
	jmp	.L204
	.p2align 4,,10
	.p2align 3
.L206:
	leaq	(%rsi,%r15), %rdx
	movl	$125, 24(%r13)
	movq	%rbp, 32(%r13)
	movq	96(%rdx), %rax
	testq	%rax, %rax
	je	.L208
	movq	(%rax), %rcx
	testq	%rcx, %rcx
	movq	%rcx, 96(%rdx)
	je	.L427
.L209:
	movq	$0, (%rax)
.L208:
	testq	%r14, %r14
	movq	$0, 0(%r13)
	je	.L210
	movq	(%rsi,%r12), %rax
	movq	%r13, (%r14)
	testq	%rax, %rax
	je	.L203
.L211:
	movq	%r13, %r14
	movq	%rax, %r13
.L204:
	movzbl	(%rbx), %eax
	testb	%al, %al
	jne	.L206
	movq	%rbx, %rdi
	call	__cxa_guard_acquire@PLT
	testl	%eax, %eax
	je	.L410
	movq	%rbx, %rdi
	call	__cxa_guard_release@PLT
	movq	_ZN4asio6detail15system_categoryD1Ev@GOTPCREL(%rip), %rdi
	leaq	__dso_handle(%rip), %rdx
	movq	%rbp, %rsi
	call	__cxa_atexit@PLT
.L410:
	movq	16(%rsp), %rax
	movq	128(%rax), %rsi
	jmp	.L206
	.p2align 4,,10
	.p2align 3
.L201:
	movq	40(%rsp), %rdi
	call	pthread_mutex_unlock@PLT
.L412:
	movl	120(%rbx), %ebp
	cmpl	$-1, %ebp
	je	.L199
.L274:
	movzbl	124(%rbx), %r12d
	call	__errno_location@PLT
	movq	%rax, %r13
	testb	$8, %r12b
	jne	.L402
	movq	_ZGVZN4asio15system_categoryEvE8instance@GOTPCREL(%rip), %r12
.L231:
	movl	$0, 0(%r13)
	movl	%ebp, %edi
	call	close@PLT
	movl	%eax, %r14d
	movzbl	(%r12), %eax
	testb	%al, %al
	je	.L428
.L236:
	testl	%r14d, %r14d
	je	.L199
	movl	0(%r13), %r14d
	movzbl	(%r12), %eax
	testb	%al, %al
	je	.L429
.L239:
	cmpl	$11, %r14d
	je	.L241
.L421:
	movzbl	(%r12), %eax
	testb	%al, %al
	jne	.L199
	movq	%r12, %rdi
	call	__cxa_guard_acquire@PLT
	testl	%eax, %eax
	je	.L199
	movq	%r12, %rdi
	call	__cxa_guard_release@PLT
	movq	_ZZN4asio15system_categoryEvE8instance@GOTPCREL(%rip), %rsi
	movq	_ZN4asio6detail15system_categoryD1Ev@GOTPCREL(%rip), %rdi
	leaq	__dso_handle(%rip), %rdx
	call	__cxa_atexit@PLT
	.p2align 4,,10
	.p2align 3
.L199:
	movq	80(%rbx), %rbp
	testq	%rbp, %rbp
	je	.L248
	cmpq	$0, _ZL28__gthrw___pthread_key_createPjPFvPvE@GOTPCREL(%rip)
	je	.L249
	lock subl	$1, 8(%rbp)
	je	.L430
.L248:
	movq	64(%rbx), %rbp
	testq	%rbp, %rbp
	je	.L254
	cmpq	$0, _ZL28__gthrw___pthread_key_createPjPFvPvE@GOTPCREL(%rip)
	je	.L255
	lock subl	$1, 8(%rbp)
	je	.L431
.L254:
	movq	48(%rbx), %rbp
	testq	%rbp, %rbp
	je	.L260
	cmpq	$0, _ZL28__gthrw___pthread_key_createPjPFvPvE@GOTPCREL(%rip)
	je	.L261
	lock subl	$1, 8(%rbp)
	je	.L432
.L260:
	movq	32(%rbx), %rdi
	testq	%rdi, %rdi
	je	.L149
	cmpq	$0, _ZL28__gthrw___pthread_key_createPjPFvPvE@GOTPCREL(%rip)
	je	.L267
	movl	$-1, %eax
	lock xaddl	%eax, 12(%rdi)
	cmpl	$1, %eax
	je	.L433
.L149:
	movq	72(%rsp), %rax
	xorq	%fs:40, %rax
	jne	.L434
	addq	$88, %rsp
	.cfi_remember_state
	.cfi_def_cfa_offset 56
	popq	%rbx
	.cfi_def_cfa_offset 48
	popq	%rbp
	.cfi_def_cfa_offset 40
	popq	%r12
	.cfi_def_cfa_offset 32
	popq	%r13
	.cfi_def_cfa_offset 24
	popq	%r14
	.cfi_def_cfa_offset 16
	popq	%r15
	.cfi_def_cfa_offset 8
	ret
	.p2align 4,,10
	.p2align 3
.L267:
	.cfi_restore_state
	movl	12(%rdi), %eax
	leal	-1(%rax), %edx
	cmpl	$1, %eax
	movl	%edx, 12(%rdi)
	jne	.L149
.L433:
	movq	(%rdi), %rax
	call	*24(%rax)
	jmp	.L149
	.p2align 4,,10
	.p2align 3
.L261:
	movl	8(%rbp), %eax
	leal	-1(%rax), %edx
	cmpl	$1, %eax
	movl	%edx, 8(%rbp)
	jne	.L260
	movq	0(%rbp), %rax
	movq	%rbp, %rdi
	call	*16(%rax)
	movl	12(%rbp), %eax
	leal	-1(%rax), %edx
	movl	%edx, 12(%rbp)
	jmp	.L272
	.p2align 4,,10
	.p2align 3
.L255:
	movl	8(%rbp), %eax
	leal	-1(%rax), %edx
	cmpl	$1, %eax
	movl	%edx, 8(%rbp)
	jne	.L254
	movq	0(%rbp), %rax
	movq	%rbp, %rdi
	call	*16(%rax)
	movl	12(%rbp), %eax
	leal	-1(%rax), %edx
	movl	%edx, 12(%rbp)
	jmp	.L271
	.p2align 4,,10
	.p2align 3
.L249:
	movl	8(%rbp), %eax
	leal	-1(%rax), %edx
	cmpl	$1, %eax
	movl	%edx, 8(%rbp)
	jne	.L248
	movq	0(%rbp), %rax
	movq	%rbp, %rdi
	call	*16(%rax)
	movl	12(%rbp), %eax
	leal	-1(%rax), %edx
	movl	%edx, 12(%rbp)
	jmp	.L270
	.p2align 4,,10
	.p2align 3
.L432:
	movq	0(%rbp), %rax
	movq	%rbp, %rdi
	call	*16(%rax)
	movl	$-1, %eax
	lock xaddl	%eax, 12(%rbp)
.L272:
	cmpl	$1, %eax
	jne	.L260
	movq	0(%rbp), %rax
	movq	%rbp, %rdi
	call	*24(%rax)
	jmp	.L260
	.p2align 4,,10
	.p2align 3
.L431:
	movq	0(%rbp), %rax
	movq	%rbp, %rdi
	call	*16(%rax)
	movl	$-1, %eax
	lock xaddl	%eax, 12(%rbp)
.L271:
	cmpl	$1, %eax
	jne	.L254
	movq	0(%rbp), %rax
	movq	%rbp, %rdi
	call	*24(%rax)
	jmp	.L254
	.p2align 4,,10
	.p2align 3
.L430:
	movq	0(%rbp), %rax
	movq	%rbp, %rdi
	call	*16(%rax)
	movl	$-1, %eax
	lock xaddl	%eax, 12(%rbp)
.L270:
	cmpl	$1, %eax
	jne	.L248
	movq	0(%rbp), %rax
	movq	%rbp, %rdi
	call	*24(%rax)
	jmp	.L248
	.p2align 4,,10
	.p2align 3
.L210:
	movq	(%rsi,%r12), %rax
	movq	%r13, 24(%rsp)
	testq	%rax, %rax
	jne	.L211
.L203:
	addq	$1, 8(%rsp)
	movq	8(%rsp), %rax
	cmpq	$3, %rax
	je	.L435
	movq	%r13, %r14
	jmp	.L212
	.p2align 4,,10
	.p2align 3
.L162:
	movq	(%rsi,%r12), %rax
	movq	%r13, 24(%rsp)
	testq	%rax, %rax
	jne	.L163
.L155:
	addq	$1, 8(%rsp)
	movq	8(%rsp), %rax
	cmpq	$3, %rax
	je	.L436
	movq	%r13, %r14
	jmp	.L164
	.p2align 4,,10
	.p2align 3
.L423:
	movq	$0, 104(%rdx)
	jmp	.L161
	.p2align 4,,10
	.p2align 3
.L427:
	movq	$0, 104(%rdx)
	jmp	.L209
	.p2align 4,,10
	.p2align 3
.L435:
	movq	16(%rsp), %rbx
	movl	$-1, 88(%rsi)
	movq	40(%rsp), %rdi
	movq	128(%rbx), %rax
	movb	$1, 144(%rax)
	call	pthread_mutex_unlock@PLT
	movq	32(%rsp), %r15
	movq	128(%rbx), %rbp
	leaq	120(%r15), %r12
	movq	%r12, %rdi
	call	pthread_mutex_lock@PLT
	cmpq	160(%r15), %rbp
	je	.L437
.L213:
	movq	32(%rbp), %rdx
	movq	24(%rbp), %rax
	testq	%rdx, %rdx
	je	.L214
	movq	%rax, 24(%rdx)
	movq	24(%rbp), %rax
.L214:
	testq	%rax, %rax
	je	.L215
	movq	32(%rbp), %rdx
	movq	%rdx, 32(%rax)
.L215:
	movq	32(%rsp), %r15
	movq	%r12, %rdi
	movq	168(%r15), %rax
	movq	$0, 32(%rbp)
	movq	%rax, 24(%rbp)
	movq	%rbp, 168(%r15)
	call	pthread_mutex_unlock@PLT
	cmpq	$0, 24(%rsp)
	movq	$0, 128(%rbx)
	je	.L412
	movq	40(%r15), %rbp
	cmpb	$0, 40(%rbp)
	je	.L217
	.byte	0x66
	leaq	_ZN4asio6detail15keyword_tss_ptrINS0_10call_stackINS0_15task_io_serviceENS0_27task_io_service_thread_infoEE7contextEE6value_E@tlsgd(%rip), %rdi
	.value	0x6666
	rex64
	call	__tls_get_addr@PLT
	movq	(%rax), %rax
	testq	%rax, %rax
	jne	.L401
	jmp	.L217
	.p2align 4,,10
	.p2align 3
.L219:
	movq	16(%rax), %rax
	testq	%rax, %rax
	je	.L217
.L401:
	cmpq	(%rax), %rbp
	jne	.L219
	movq	8(%rax), %rax
	testq	%rax, %rax
	je	.L217
	movq	16(%rax), %rdx
	movq	24(%rsp), %rcx
	testq	%rdx, %rdx
	je	.L222
	movq	%rcx, (%rdx)
.L223:
	movq	%r13, 16(%rax)
	jmp	.L412
	.p2align 4,,10
	.p2align 3
.L436:
	movq	16(%rsp), %rbx
	movl	$-1, 88(%rsi)
	movq	40(%rsp), %rdi
	movq	160(%rbx), %rax
	movb	$1, 144(%rax)
	call	pthread_mutex_unlock@PLT
	movq	32(%rsp), %r15
	movq	160(%rbx), %rbp
	leaq	120(%r15), %r12
	movq	%r12, %rdi
	call	pthread_mutex_lock@PLT
	cmpq	160(%r15), %rbp
	je	.L438
.L165:
	movq	32(%rbp), %rdx
	movq	24(%rbp), %rax
	testq	%rdx, %rdx
	je	.L166
	movq	%rax, 24(%rdx)
	movq	24(%rbp), %rax
.L166:
	testq	%rax, %rax
	je	.L167
	movq	32(%rbp), %rdx
	movq	%rdx, 32(%rax)
.L167:
	movq	32(%rsp), %r15
	movq	%r12, %rdi
	movq	168(%r15), %rax
	movq	$0, 32(%rbp)
	movq	%rax, 24(%rbp)
	movq	%rbp, 168(%r15)
	call	pthread_mutex_unlock@PLT
	cmpq	$0, 24(%rsp)
	movq	$0, 160(%rbx)
	je	.L408
	movq	40(%r15), %rbp
	cmpb	$0, 40(%rbp)
	je	.L169
	.byte	0x66
	leaq	_ZN4asio6detail15keyword_tss_ptrINS0_10call_stackINS0_15task_io_serviceENS0_27task_io_service_thread_infoEE7contextEE6value_E@tlsgd(%rip), %rdi
	.value	0x6666
	rex64
	call	__tls_get_addr@PLT
	movq	(%rax), %rax
	testq	%rax, %rax
	jne	.L398
	jmp	.L169
	.p2align 4,,10
	.p2align 3
.L171:
	movq	16(%rax), %rax
	testq	%rax, %rax
	je	.L169
.L398:
	cmpq	(%rax), %rbp
	jne	.L171
	movq	8(%rax), %rax
	testq	%rax, %rax
	je	.L169
	movq	16(%rax), %rdx
	movq	24(%rsp), %rcx
	testq	%rdx, %rdx
	je	.L174
	movq	%rcx, (%rdx)
.L175:
	movq	%r13, 16(%rax)
	jmp	.L408
	.p2align 4,,10
	.p2align 3
.L428:
	movq	%r12, %rdi
	call	__cxa_guard_acquire@PLT
	testl	%eax, %eax
	je	.L236
	movq	%r12, %rdi
	call	__cxa_guard_release@PLT
	movq	_ZZN4asio15system_categoryEvE8instance@GOTPCREL(%rip), %rsi
	movq	_ZN4asio6detail15system_categoryD1Ev@GOTPCREL(%rip), %rdi
	leaq	__dso_handle(%rip), %rdx
	call	__cxa_atexit@PLT
	jmp	.L236
	.p2align 4,,10
	.p2align 3
.L424:
	movq	%r12, %rdi
	call	__cxa_guard_acquire@PLT
	testl	%eax, %eax
	je	.L188
	movq	%r12, %rdi
	call	__cxa_guard_release@PLT
	movq	_ZZN4asio15system_categoryEvE8instance@GOTPCREL(%rip), %rsi
	movq	_ZN4asio6detail15system_categoryD1Ev@GOTPCREL(%rip), %rdi
	leaq	__dso_handle(%rip), %rdx
	call	__cxa_atexit@PLT
	jmp	.L188
	.p2align 4,,10
	.p2align 3
.L399:
	orl	$8, %r12d
	leaq	60(%rsp), %rcx
	movl	$8, %r8d
	movb	%r12b, 156(%rbx)
	movl	$13, %edx
	movl	$0, (%rax)
	movl	$1, %esi
	movl	%ebp, %edi
	movq	$0, 60(%rsp)
	call	setsockopt@PLT
	movq	_ZGVZN4asio15system_categoryEvE8instance@GOTPCREL(%rip), %r12
	movzbl	(%r12), %eax
	testb	%al, %al
	jne	.L183
	movq	%r12, %rdi
	call	__cxa_guard_acquire@PLT
	testl	%eax, %eax
	je	.L183
	movq	%r12, %rdi
	call	__cxa_guard_release@PLT
	movq	_ZZN4asio15system_categoryEvE8instance@GOTPCREL(%rip), %rsi
	movq	_ZN4asio6detail15system_categoryD1Ev@GOTPCREL(%rip), %rdi
	leaq	__dso_handle(%rip), %rdx
	call	__cxa_atexit@PLT
	jmp	.L183
	.p2align 4,,10
	.p2align 3
.L402:
	orl	$8, %r12d
	leaq	60(%rsp), %rcx
	movl	$8, %r8d
	movb	%r12b, 124(%rbx)
	movl	$13, %edx
	movl	$0, (%rax)
	movl	$1, %esi
	movl	%ebp, %edi
	movq	$0, 60(%rsp)
	call	setsockopt@PLT
	movq	_ZGVZN4asio15system_categoryEvE8instance@GOTPCREL(%rip), %r12
	movzbl	(%r12), %eax
	testb	%al, %al
	jne	.L231
	movq	%r12, %rdi
	call	__cxa_guard_acquire@PLT
	testl	%eax, %eax
	je	.L231
	movq	%r12, %rdi
	call	__cxa_guard_release@PLT
	movq	_ZZN4asio15system_categoryEvE8instance@GOTPCREL(%rip), %rsi
	movq	_ZN4asio6detail15system_categoryD1Ev@GOTPCREL(%rip), %rdi
	leaq	__dso_handle(%rip), %rdx
	call	__cxa_atexit@PLT
	jmp	.L231
	.p2align 4,,10
	.p2align 3
.L276:
	movq	%r14, %r13
	jmp	.L155
	.p2align 4,,10
	.p2align 3
.L279:
	movq	%r14, %r13
	jmp	.L203
	.p2align 4,,10
	.p2align 3
.L169:
	leaq	48(%rbp), %r12
	movq	%r12, %rdi
	call	pthread_mutex_lock@PLT
	movq	200(%rbp), %rax
	testq	%rax, %rax
	je	.L177
	movq	24(%rsp), %rcx
	movq	%rcx, (%rax)
.L178:
	movq	136(%rbp), %rax
	movq	%r13, 200(%rbp)
	orq	$1, %rax
	cmpq	$1, %rax
	movq	%rax, 136(%rbp)
	jne	.L439
	cmpb	$0, 176(%rbp)
	jne	.L181
	movq	144(%rbp), %rax
	testq	%rax, %rax
	je	.L181
	leaq	88(%rax), %rdx
	movb	$1, 176(%rbp)
	movl	$-2147483639, 60(%rsp)
	leaq	60(%rsp), %rcx
	movl	$3, %esi
	movq	%rdx, 64(%rsp)
	movl	88(%rax), %edx
	movl	96(%rax), %edi
	call	epoll_ctl@PLT
.L181:
	movq	%r12, %rdi
	call	pthread_mutex_unlock@PLT
	jmp	.L408
	.p2align 4,,10
	.p2align 3
.L217:
	leaq	48(%rbp), %r12
	movq	%r12, %rdi
	call	pthread_mutex_lock@PLT
	movq	200(%rbp), %rax
	testq	%rax, %rax
	je	.L225
	movq	24(%rsp), %rcx
	movq	%rcx, (%rax)
.L226:
	movq	136(%rbp), %rax
	movq	%r13, 200(%rbp)
	orq	$1, %rax
	cmpq	$1, %rax
	movq	%rax, 136(%rbp)
	jne	.L440
	cmpb	$0, 176(%rbp)
	jne	.L229
	movq	144(%rbp), %rax
	testq	%rax, %rax
	je	.L229
	leaq	88(%rax), %rdx
	movb	$1, 176(%rbp)
	movl	$-2147483639, 60(%rsp)
	leaq	60(%rsp), %rcx
	movl	$3, %esi
	movq	%rdx, 64(%rsp)
	movl	88(%rax), %edx
	movl	96(%rax), %edi
	call	epoll_ctl@PLT
.L229:
	movq	%r12, %rdi
	call	pthread_mutex_unlock@PLT
	jmp	.L412
.L177:
	movq	24(%rsp), %rax
	movq	%rax, 192(%rbp)
	jmp	.L178
.L225:
	movq	24(%rsp), %rax
	movq	%rax, 192(%rbp)
	jmp	.L226
	.p2align 4,,10
	.p2align 3
.L422:
	movq	32(%rsp), %rax
	movl	$0, 60(%rsp)
	leaq	60(%rsp), %rcx
	movq	$0, 64(%rsp)
	movl	$2, %esi
	movl	%ebp, %edx
	movl	96(%rax), %edi
	call	epoll_ctl@PLT
	movq	160(%rbx), %rsi
	jmp	.L154
	.p2align 4,,10
	.p2align 3
.L426:
	movq	32(%rsp), %rax
	movl	$0, 60(%rsp)
	leaq	60(%rsp), %rcx
	movq	$0, 64(%rsp)
	movl	$2, %esi
	movl	%ebp, %edx
	movl	96(%rax), %edi
	call	epoll_ctl@PLT
	movq	128(%rbx), %rsi
	jmp	.L202
	.p2align 4,,10
	.p2align 3
.L437:
	movq	24(%rbp), %rax
	movq	32(%rsp), %rcx
	movq	%rax, 160(%rcx)
	jmp	.L213
	.p2align 4,,10
	.p2align 3
.L438:
	movq	24(%rbp), %rax
	movq	32(%rsp), %rcx
	movq	%rax, 160(%rcx)
	jmp	.L165
	.p2align 4,,10
	.p2align 3
.L429:
	movq	%r12, %rdi
	call	__cxa_guard_acquire@PLT
	testl	%eax, %eax
	je	.L239
	movq	%r12, %rdi
	call	__cxa_guard_release@PLT
	movq	_ZZN4asio15system_categoryEvE8instance@GOTPCREL(%rip), %rsi
	movq	_ZN4asio6detail15system_categoryD1Ev@GOTPCREL(%rip), %rdi
	leaq	__dso_handle(%rip), %rdx
	call	__cxa_atexit@PLT
	jmp	.L239
	.p2align 4,,10
	.p2align 3
.L425:
	movq	%r12, %rdi
	call	__cxa_guard_acquire@PLT
	testl	%eax, %eax
	je	.L191
	movq	%r12, %rdi
	call	__cxa_guard_release@PLT
	movq	_ZZN4asio15system_categoryEvE8instance@GOTPCREL(%rip), %rsi
	movq	_ZN4asio6detail15system_categoryD1Ev@GOTPCREL(%rip), %rdi
	leaq	__dso_handle(%rip), %rdx
	call	__cxa_atexit@PLT
	jmp	.L191
	.p2align 4,,10
	.p2align 3
.L241:
	leaq	60(%rsp), %rdx
	movl	%ebp, %edi
	movl	$21537, %esi
	xorl	%eax, %eax
	movl	$0, 60(%rsp)
	call	ioctl@PLT
	andb	$-4, 124(%rbx)
	movl	%ebp, %edi
	movl	$0, 0(%r13)
	call	close@PLT
	jmp	.L421
	.p2align 4,,10
	.p2align 3
.L193:
	leaq	60(%rsp), %rdx
	movl	%ebp, %edi
	movl	$21537, %esi
	xorl	%eax, %eax
	movl	$0, 60(%rsp)
	call	ioctl@PLT
	andb	$-4, 156(%rbx)
	movl	%ebp, %edi
	movl	$0, 0(%r13)
	call	close@PLT
	jmp	.L419
	.p2align 4,,10
	.p2align 3
.L440:
	movq	%r12, %rdi
	call	pthread_mutex_unlock@PLT
	leaq	88(%rbp), %rdi
	call	pthread_cond_signal@PLT
	jmp	.L412
	.p2align 4,,10
	.p2align 3
.L439:
	movq	%r12, %rdi
	call	pthread_mutex_unlock@PLT
	leaq	88(%rbp), %rdi
	call	pthread_cond_signal@PLT
	jmp	.L408
.L222:
	movq	%rcx, 8(%rax)
	jmp	.L223
.L174:
	movq	%rcx, 8(%rax)
	jmp	.L175
.L434:
	call	__stack_chk_fail@PLT
	.cfi_endproc
.LFE10274:
	.globl	__gxx_personality_v0
	.section	.gcc_except_table._ZNSt23_Sp_counted_ptr_inplaceIN8asiodnp318TCPServerIOHandler6ServerESaIS2_ELN9__gnu_cxx12_Lock_policyE2EE10_M_disposeEv,"aG",@progbits,_ZNSt23_Sp_counted_ptr_inplaceIN8asiodnp318TCPServerIOHandler6ServerESaIS2_ELN9__gnu_cxx12_Lock_policyE2EE10_M_disposeEv,comdat
.LLSDA10274:
	.byte	0xff
	.byte	0xff
	.byte	0x1
	.uleb128 .LLSDACSE10274-.LLSDACSB10274
.LLSDACSB10274:
.LLSDACSE10274:
	.section	.text._ZNSt23_Sp_counted_ptr_inplaceIN8asiodnp318TCPServerIOHandler6ServerESaIS2_ELN9__gnu_cxx12_Lock_policyE2EE10_M_disposeEv,"axG",@progbits,_ZNSt23_Sp_counted_ptr_inplaceIN8asiodnp318TCPServerIOHandler6ServerESaIS2_ELN9__gnu_cxx12_Lock_policyE2EE10_M_disposeEv,comdat
	.size	_ZNSt23_Sp_counted_ptr_inplaceIN8asiodnp318TCPServerIOHandler6ServerESaIS2_ELN9__gnu_cxx12_Lock_policyE2EE10_M_disposeEv, .-_ZNSt23_Sp_counted_ptr_inplaceIN8asiodnp318TCPServerIOHandler6ServerESaIS2_ELN9__gnu_cxx12_Lock_policyE2EE10_M_disposeEv
	.section	.text._ZN8asiodnp318TCPServerIOHandler6ServerD0Ev,"axG",@progbits,_ZN8asiodnp318TCPServerIOHandler6ServerD5Ev,comdat
	.align 2
	.p2align 4,,15
	.weak	_ZN8asiodnp318TCPServerIOHandler6ServerD0Ev
	.type	_ZN8asiodnp318TCPServerIOHandler6ServerD0Ev, @function
_ZN8asiodnp318TCPServerIOHandler6ServerD0Ev:
.LFB10185:
	.cfi_startproc
	.cfi_personality 0x9b,DW.ref.__gxx_personality_v0
	.cfi_lsda 0x1b,.LLSDA10185
	pushq	%r15
	.cfi_def_cfa_offset 16
	.cfi_offset 15, -16
	pushq	%r14
	.cfi_def_cfa_offset 24
	.cfi_offset 14, -24
	pushq	%r13
	.cfi_def_cfa_offset 32
	.cfi_offset 13, -32
	pushq	%r12
	.cfi_def_cfa_offset 40
	.cfi_offset 12, -40
	pushq	%rbp
	.cfi_def_cfa_offset 48
	.cfi_offset 6, -48
	pushq	%rbx
	.cfi_def_cfa_offset 56
	.cfi_offset 3, -56
	movq	%rdi, %rbx
	subq	$88, %rsp
	.cfi_def_cfa_offset 144
	movq	%fs:40, %rax
	movq	%rax, 72(%rsp)
	xorl	%eax, %eax
	movq	_ZTVN8asiodnp318TCPServerIOHandler6ServerE@GOTPCREL(%rip), %rax
	addq	$16, %rax
	movq	%rax, (%rdi)
	movq	224(%rdi), %rax
	testq	%rax, %rax
	je	.L442
	leaq	208(%rdi), %rdi
	movl	$3, %edx
	movq	%rdi, %rsi
	call	*%rax
.L442:
	movq	_ZTVN7asiopal9TCPServerE@GOTPCREL(%rip), %rax
	movl	136(%rbx), %ebp
	addq	$16, %rax
	cmpl	$-1, %ebp
	movq	%rax, (%rbx)
	je	.L443
	movq	144(%rbx), %r13
	testq	%r13, %r13
	je	.L565
	movq	160(%rbx), %rax
	movzbl	140(%rbx), %r12d
	movq	40(%rax), %rax
	movq	%rax, 32(%rsp)
	leaq	40(%r13), %rax
	movq	%rax, %rdi
	movq	%rax, 40(%rsp)
	call	pthread_mutex_lock@PLT
	movq	144(%rbx), %rsi
	cmpb	$0, 144(%rsi)
	jne	.L445
	andl	$64, %r12d
	jne	.L715
.L446:
	movq	$0, 8(%rsp)
	movq	8(%rsp), %rax
	xorl	%r14d, %r14d
	movq	$0, 24(%rsp)
	movq	%rbx, 16(%rsp)
.L456:
	leaq	6(%rax), %rcx
	salq	$4, %rcx
	movq	(%rsi,%rcx), %r13
	movq	%rcx, %r12
	testq	%r13, %r13
	je	.L568
	salq	$4, %rax
	movq	_ZGVZN4asio15system_categoryEvE8instance@GOTPCREL(%rip), %rbx
	movq	_ZZN4asio15system_categoryEvE8instance@GOTPCREL(%rip), %rbp
	movq	%rax, %r15
	jmp	.L448
	.p2align 4,,10
	.p2align 3
.L450:
	leaq	(%rsi,%r15), %rdx
	movl	$125, 24(%r13)
	movq	%rbp, 32(%r13)
	movq	96(%rdx), %rax
	testq	%rax, %rax
	je	.L452
	movq	(%rax), %rcx
	testq	%rcx, %rcx
	movq	%rcx, 96(%rdx)
	je	.L716
.L453:
	movq	$0, (%rax)
.L452:
	testq	%r14, %r14
	movq	$0, 0(%r13)
	je	.L454
	movq	(%rsi,%r12), %rax
	movq	%r13, (%r14)
	testq	%rax, %rax
	je	.L447
.L455:
	movq	%r13, %r14
	movq	%rax, %r13
.L448:
	movzbl	(%rbx), %eax
	testb	%al, %al
	jne	.L450
	movq	%rbx, %rdi
	call	__cxa_guard_acquire@PLT
	testl	%eax, %eax
	je	.L699
	movq	%rbx, %rdi
	call	__cxa_guard_release@PLT
	movq	_ZN4asio6detail15system_categoryD1Ev@GOTPCREL(%rip), %rdi
	leaq	__dso_handle(%rip), %rdx
	movq	%rbp, %rsi
	call	__cxa_atexit@PLT
.L699:
	movq	16(%rsp), %rax
	movq	144(%rax), %rsi
	jmp	.L450
	.p2align 4,,10
	.p2align 3
.L445:
	movq	40(%rsp), %rdi
	call	pthread_mutex_unlock@PLT
.L701:
	movl	136(%rbx), %ebp
	cmpl	$-1, %ebp
	je	.L443
.L565:
	movzbl	140(%rbx), %r12d
	call	__errno_location@PLT
	movq	%rax, %r13
	testb	$8, %r12b
	jne	.L691
	movq	_ZGVZN4asio15system_categoryEvE8instance@GOTPCREL(%rip), %r12
.L475:
	movl	$0, 0(%r13)
	movl	%ebp, %edi
	call	close@PLT
	movl	%eax, %r14d
	movzbl	(%r12), %eax
	testb	%al, %al
	je	.L717
.L480:
	testl	%r14d, %r14d
	je	.L443
	movl	0(%r13), %r14d
	movzbl	(%r12), %eax
	testb	%al, %al
	je	.L718
.L483:
	cmpl	$11, %r14d
	je	.L485
.L712:
	movzbl	(%r12), %eax
	testb	%al, %al
	jne	.L443
	movq	%r12, %rdi
	call	__cxa_guard_acquire@PLT
	testl	%eax, %eax
	je	.L443
	movq	%r12, %rdi
	call	__cxa_guard_release@PLT
	movq	_ZZN4asio15system_categoryEvE8instance@GOTPCREL(%rip), %rsi
	movq	_ZN4asio6detail15system_categoryD1Ev@GOTPCREL(%rip), %rdi
	leaq	__dso_handle(%rip), %rdx
	call	__cxa_atexit@PLT
	.p2align 4,,10
	.p2align 3
.L443:
	movl	104(%rbx), %ebp
	cmpl	$-1, %ebp
	je	.L491
	movq	112(%rbx), %r13
	testq	%r13, %r13
	je	.L566
	movq	128(%rbx), %rax
	movzbl	108(%rbx), %r12d
	movq	40(%rax), %rax
	movq	%rax, 32(%rsp)
	leaq	40(%r13), %rax
	movq	%rax, %rdi
	movq	%rax, 40(%rsp)
	call	pthread_mutex_lock@PLT
	movq	112(%rbx), %rsi
	cmpb	$0, 144(%rsi)
	jne	.L493
	andl	$64, %r12d
	jne	.L719
.L494:
	movq	$0, 8(%rsp)
	movq	8(%rsp), %rax
	xorl	%r14d, %r14d
	movq	$0, 24(%rsp)
	movq	%rbx, 16(%rsp)
.L504:
	leaq	6(%rax), %rcx
	salq	$4, %rcx
	movq	(%rsi,%rcx), %r13
	movq	%rcx, %r12
	testq	%r13, %r13
	je	.L571
	salq	$4, %rax
	movq	_ZGVZN4asio15system_categoryEvE8instance@GOTPCREL(%rip), %rbx
	movq	_ZZN4asio15system_categoryEvE8instance@GOTPCREL(%rip), %rbp
	movq	%rax, %r15
	jmp	.L496
	.p2align 4,,10
	.p2align 3
.L498:
	leaq	(%rsi,%r15), %rdx
	movl	$125, 24(%r13)
	movq	%rbp, 32(%r13)
	movq	96(%rdx), %rax
	testq	%rax, %rax
	je	.L500
	movq	(%rax), %rcx
	testq	%rcx, %rcx
	movq	%rcx, 96(%rdx)
	je	.L720
.L501:
	movq	$0, (%rax)
.L500:
	testq	%r14, %r14
	movq	$0, 0(%r13)
	je	.L502
	movq	(%rsi,%r12), %rax
	movq	%r13, (%r14)
	testq	%rax, %rax
	je	.L495
.L503:
	movq	%r13, %r14
	movq	%rax, %r13
.L496:
	movzbl	(%rbx), %eax
	testb	%al, %al
	jne	.L498
	movq	%rbx, %rdi
	call	__cxa_guard_acquire@PLT
	testl	%eax, %eax
	je	.L703
	movq	%rbx, %rdi
	call	__cxa_guard_release@PLT
	movq	_ZN4asio6detail15system_categoryD1Ev@GOTPCREL(%rip), %rdi
	leaq	__dso_handle(%rip), %rdx
	movq	%rbp, %rsi
	call	__cxa_atexit@PLT
.L703:
	movq	16(%rsp), %rax
	movq	112(%rax), %rsi
	jmp	.L498
	.p2align 4,,10
	.p2align 3
.L493:
	movq	40(%rsp), %rdi
	call	pthread_mutex_unlock@PLT
.L705:
	movl	104(%rbx), %ebp
	cmpl	$-1, %ebp
	je	.L491
.L566:
	movzbl	108(%rbx), %r12d
	call	__errno_location@PLT
	movq	%rax, %r13
	testb	$8, %r12b
	jne	.L694
	movq	_ZGVZN4asio15system_categoryEvE8instance@GOTPCREL(%rip), %r12
.L523:
	movl	$0, 0(%r13)
	movl	%ebp, %edi
	call	close@PLT
	movl	%eax, %r14d
	movzbl	(%r12), %eax
	testb	%al, %al
	je	.L721
.L528:
	testl	%r14d, %r14d
	je	.L491
	movl	0(%r13), %r14d
	movzbl	(%r12), %eax
	testb	%al, %al
	je	.L722
.L531:
	cmpl	$11, %r14d
	je	.L533
.L714:
	movzbl	(%r12), %eax
	testb	%al, %al
	jne	.L491
	movq	%r12, %rdi
	call	__cxa_guard_acquire@PLT
	testl	%eax, %eax
	je	.L491
	movq	%r12, %rdi
	call	__cxa_guard_release@PLT
	movq	_ZZN4asio15system_categoryEvE8instance@GOTPCREL(%rip), %rsi
	movq	_ZN4asio6detail15system_categoryD1Ev@GOTPCREL(%rip), %rdi
	leaq	__dso_handle(%rip), %rdx
	call	__cxa_atexit@PLT
	.p2align 4,,10
	.p2align 3
.L491:
	movq	64(%rbx), %rbp
	testq	%rbp, %rbp
	je	.L540
	cmpq	$0, _ZL28__gthrw___pthread_key_createPjPFvPvE@GOTPCREL(%rip)
	je	.L541
	lock subl	$1, 8(%rbp)
	je	.L723
.L540:
	movq	48(%rbx), %rbp
	testq	%rbp, %rbp
	je	.L546
	cmpq	$0, _ZL28__gthrw___pthread_key_createPjPFvPvE@GOTPCREL(%rip)
	je	.L547
	lock subl	$1, 8(%rbp)
	je	.L724
.L546:
	movq	32(%rbx), %rbp
	testq	%rbp, %rbp
	je	.L552
	cmpq	$0, _ZL28__gthrw___pthread_key_createPjPFvPvE@GOTPCREL(%rip)
	je	.L553
	lock subl	$1, 8(%rbp)
	je	.L725
.L552:
	movq	16(%rbx), %rdi
	testq	%rdi, %rdi
	je	.L558
	cmpq	$0, _ZL28__gthrw___pthread_key_createPjPFvPvE@GOTPCREL(%rip)
	je	.L559
	movl	$-1, %eax
	lock xaddl	%eax, 12(%rdi)
	cmpl	$1, %eax
	je	.L726
.L558:
	movl	$240, %esi
	movq	%rbx, %rdi
	call	_ZdlPvm@PLT
	movq	72(%rsp), %rax
	xorq	%fs:40, %rax
	jne	.L727
	addq	$88, %rsp
	.cfi_remember_state
	.cfi_def_cfa_offset 56
	popq	%rbx
	.cfi_def_cfa_offset 48
	popq	%rbp
	.cfi_def_cfa_offset 40
	popq	%r12
	.cfi_def_cfa_offset 32
	popq	%r13
	.cfi_def_cfa_offset 24
	popq	%r14
	.cfi_def_cfa_offset 16
	popq	%r15
	.cfi_def_cfa_offset 8
	ret
	.p2align 4,,10
	.p2align 3
.L559:
	.cfi_restore_state
	movl	12(%rdi), %eax
	leal	-1(%rax), %edx
	cmpl	$1, %eax
	movl	%edx, 12(%rdi)
	jne	.L558
.L726:
	movq	(%rdi), %rax
	call	*24(%rax)
	jmp	.L558
	.p2align 4,,10
	.p2align 3
.L553:
	movl	8(%rbp), %eax
	leal	-1(%rax), %edx
	cmpl	$1, %eax
	movl	%edx, 8(%rbp)
	jne	.L552
	movq	0(%rbp), %rax
	movq	%rbp, %rdi
	call	*16(%rax)
	movl	12(%rbp), %eax
	leal	-1(%rax), %edx
	movl	%edx, 12(%rbp)
	jmp	.L564
	.p2align 4,,10
	.p2align 3
.L547:
	movl	8(%rbp), %eax
	leal	-1(%rax), %edx
	cmpl	$1, %eax
	movl	%edx, 8(%rbp)
	jne	.L546
	movq	0(%rbp), %rax
	movq	%rbp, %rdi
	call	*16(%rax)
	movl	12(%rbp), %eax
	leal	-1(%rax), %edx
	movl	%edx, 12(%rbp)
	jmp	.L563
	.p2align 4,,10
	.p2align 3
.L541:
	movl	8(%rbp), %eax
	leal	-1(%rax), %edx
	cmpl	$1, %eax
	movl	%edx, 8(%rbp)
	jne	.L540
	movq	0(%rbp), %rax
	movq	%rbp, %rdi
	call	*16(%rax)
	movl	12(%rbp), %eax
	leal	-1(%rax), %edx
	movl	%edx, 12(%rbp)
	jmp	.L562
	.p2align 4,,10
	.p2align 3
.L725:
	movq	0(%rbp), %rax
	movq	%rbp, %rdi
	call	*16(%rax)
	movl	$-1, %eax
	lock xaddl	%eax, 12(%rbp)
.L564:
	cmpl	$1, %eax
	jne	.L552
	movq	0(%rbp), %rax
	movq	%rbp, %rdi
	call	*24(%rax)
	jmp	.L552
	.p2align 4,,10
	.p2align 3
.L724:
	movq	0(%rbp), %rax
	movq	%rbp, %rdi
	call	*16(%rax)
	movl	$-1, %eax
	lock xaddl	%eax, 12(%rbp)
.L563:
	cmpl	$1, %eax
	jne	.L546
	movq	0(%rbp), %rax
	movq	%rbp, %rdi
	call	*24(%rax)
	jmp	.L546
	.p2align 4,,10
	.p2align 3
.L723:
	movq	0(%rbp), %rax
	movq	%rbp, %rdi
	call	*16(%rax)
	movl	$-1, %eax
	lock xaddl	%eax, 12(%rbp)
.L562:
	cmpl	$1, %eax
	jne	.L540
	movq	0(%rbp), %rax
	movq	%rbp, %rdi
	call	*24(%rax)
	jmp	.L540
	.p2align 4,,10
	.p2align 3
.L502:
	movq	(%rsi,%r12), %rax
	movq	%r13, 24(%rsp)
	testq	%rax, %rax
	jne	.L503
.L495:
	addq	$1, 8(%rsp)
	movq	8(%rsp), %rax
	cmpq	$3, %rax
	je	.L728
	movq	%r13, %r14
	jmp	.L504
	.p2align 4,,10
	.p2align 3
.L454:
	movq	(%rsi,%r12), %rax
	movq	%r13, 24(%rsp)
	testq	%rax, %rax
	jne	.L455
.L447:
	addq	$1, 8(%rsp)
	movq	8(%rsp), %rax
	cmpq	$3, %rax
	je	.L729
	movq	%r13, %r14
	jmp	.L456
	.p2align 4,,10
	.p2align 3
.L716:
	movq	$0, 104(%rdx)
	jmp	.L453
	.p2align 4,,10
	.p2align 3
.L720:
	movq	$0, 104(%rdx)
	jmp	.L501
	.p2align 4,,10
	.p2align 3
.L728:
	movq	16(%rsp), %rbx
	movl	$-1, 88(%rsi)
	movq	40(%rsp), %rdi
	movq	112(%rbx), %rax
	movb	$1, 144(%rax)
	call	pthread_mutex_unlock@PLT
	movq	32(%rsp), %r15
	movq	112(%rbx), %rbp
	leaq	120(%r15), %r12
	movq	%r12, %rdi
	call	pthread_mutex_lock@PLT
	cmpq	160(%r15), %rbp
	je	.L730
.L505:
	movq	32(%rbp), %rdx
	movq	24(%rbp), %rax
	testq	%rdx, %rdx
	je	.L506
	movq	%rax, 24(%rdx)
	movq	24(%rbp), %rax
.L506:
	testq	%rax, %rax
	je	.L507
	movq	32(%rbp), %rdx
	movq	%rdx, 32(%rax)
.L507:
	movq	32(%rsp), %r15
	movq	%r12, %rdi
	movq	168(%r15), %rax
	movq	$0, 32(%rbp)
	movq	%rax, 24(%rbp)
	movq	%rbp, 168(%r15)
	call	pthread_mutex_unlock@PLT
	cmpq	$0, 24(%rsp)
	movq	$0, 112(%rbx)
	je	.L705
	movq	40(%r15), %rbp
	cmpb	$0, 40(%rbp)
	je	.L509
	.byte	0x66
	leaq	_ZN4asio6detail15keyword_tss_ptrINS0_10call_stackINS0_15task_io_serviceENS0_27task_io_service_thread_infoEE7contextEE6value_E@tlsgd(%rip), %rdi
	.value	0x6666
	rex64
	call	__tls_get_addr@PLT
	movq	(%rax), %rax
	testq	%rax, %rax
	jne	.L693
	jmp	.L509
	.p2align 4,,10
	.p2align 3
.L511:
	movq	16(%rax), %rax
	testq	%rax, %rax
	je	.L509
.L693:
	cmpq	(%rax), %rbp
	jne	.L511
	movq	8(%rax), %rax
	testq	%rax, %rax
	je	.L509
	movq	16(%rax), %rdx
	movq	24(%rsp), %rcx
	testq	%rdx, %rdx
	je	.L514
	movq	%rcx, (%rdx)
.L515:
	movq	%r13, 16(%rax)
	jmp	.L705
	.p2align 4,,10
	.p2align 3
.L729:
	movq	16(%rsp), %rbx
	movl	$-1, 88(%rsi)
	movq	40(%rsp), %rdi
	movq	144(%rbx), %rax
	movb	$1, 144(%rax)
	call	pthread_mutex_unlock@PLT
	movq	32(%rsp), %r15
	movq	144(%rbx), %rbp
	leaq	120(%r15), %r12
	movq	%r12, %rdi
	call	pthread_mutex_lock@PLT
	cmpq	160(%r15), %rbp
	je	.L731
.L457:
	movq	32(%rbp), %rdx
	movq	24(%rbp), %rax
	testq	%rdx, %rdx
	je	.L458
	movq	%rax, 24(%rdx)
	movq	24(%rbp), %rax
.L458:
	testq	%rax, %rax
	je	.L459
	movq	32(%rbp), %rdx
	movq	%rdx, 32(%rax)
.L459:
	movq	32(%rsp), %r15
	movq	%r12, %rdi
	movq	168(%r15), %rax
	movq	$0, 32(%rbp)
	movq	%rax, 24(%rbp)
	movq	%rbp, 168(%r15)
	call	pthread_mutex_unlock@PLT
	cmpq	$0, 24(%rsp)
	movq	$0, 144(%rbx)
	je	.L701
	movq	40(%r15), %rbp
	cmpb	$0, 40(%rbp)
	je	.L461
	.byte	0x66
	leaq	_ZN4asio6detail15keyword_tss_ptrINS0_10call_stackINS0_15task_io_serviceENS0_27task_io_service_thread_infoEE7contextEE6value_E@tlsgd(%rip), %rdi
	.value	0x6666
	rex64
	call	__tls_get_addr@PLT
	movq	(%rax), %rax
	testq	%rax, %rax
	jne	.L690
	jmp	.L461
	.p2align 4,,10
	.p2align 3
.L463:
	movq	16(%rax), %rax
	testq	%rax, %rax
	je	.L461
.L690:
	cmpq	(%rax), %rbp
	jne	.L463
	movq	8(%rax), %rax
	testq	%rax, %rax
	je	.L461
	movq	16(%rax), %rdx
	movq	24(%rsp), %rcx
	testq	%rdx, %rdx
	je	.L466
	movq	%rcx, (%rdx)
.L467:
	movq	%r13, 16(%rax)
	jmp	.L701
	.p2align 4,,10
	.p2align 3
.L721:
	movq	%r12, %rdi
	call	__cxa_guard_acquire@PLT
	testl	%eax, %eax
	je	.L528
	movq	%r12, %rdi
	call	__cxa_guard_release@PLT
	movq	_ZZN4asio15system_categoryEvE8instance@GOTPCREL(%rip), %rsi
	movq	_ZN4asio6detail15system_categoryD1Ev@GOTPCREL(%rip), %rdi
	leaq	__dso_handle(%rip), %rdx
	call	__cxa_atexit@PLT
	jmp	.L528
	.p2align 4,,10
	.p2align 3
.L717:
	movq	%r12, %rdi
	call	__cxa_guard_acquire@PLT
	testl	%eax, %eax
	je	.L480
	movq	%r12, %rdi
	call	__cxa_guard_release@PLT
	movq	_ZZN4asio15system_categoryEvE8instance@GOTPCREL(%rip), %rsi
	movq	_ZN4asio6detail15system_categoryD1Ev@GOTPCREL(%rip), %rdi
	leaq	__dso_handle(%rip), %rdx
	call	__cxa_atexit@PLT
	jmp	.L480
	.p2align 4,,10
	.p2align 3
.L691:
	orl	$8, %r12d
	leaq	60(%rsp), %rcx
	movl	$8, %r8d
	movb	%r12b, 140(%rbx)
	movl	$13, %edx
	movl	$0, (%rax)
	movl	$1, %esi
	movl	%ebp, %edi
	movq	$0, 60(%rsp)
	call	setsockopt@PLT
	movq	_ZGVZN4asio15system_categoryEvE8instance@GOTPCREL(%rip), %r12
	movzbl	(%r12), %eax
	testb	%al, %al
	jne	.L475
	movq	%r12, %rdi
	call	__cxa_guard_acquire@PLT
	testl	%eax, %eax
	je	.L475
	movq	%r12, %rdi
	call	__cxa_guard_release@PLT
	movq	_ZZN4asio15system_categoryEvE8instance@GOTPCREL(%rip), %rsi
	movq	_ZN4asio6detail15system_categoryD1Ev@GOTPCREL(%rip), %rdi
	leaq	__dso_handle(%rip), %rdx
	call	__cxa_atexit@PLT
	jmp	.L475
	.p2align 4,,10
	.p2align 3
.L694:
	orl	$8, %r12d
	leaq	60(%rsp), %rcx
	movl	$8, %r8d
	movb	%r12b, 108(%rbx)
	movl	$13, %edx
	movl	$0, (%rax)
	movl	$1, %esi
	movl	%ebp, %edi
	movq	$0, 60(%rsp)
	call	setsockopt@PLT
	movq	_ZGVZN4asio15system_categoryEvE8instance@GOTPCREL(%rip), %r12
	movzbl	(%r12), %eax
	testb	%al, %al
	jne	.L523
	movq	%r12, %rdi
	call	__cxa_guard_acquire@PLT
	testl	%eax, %eax
	je	.L523
	movq	%r12, %rdi
	call	__cxa_guard_release@PLT
	movq	_ZZN4asio15system_categoryEvE8instance@GOTPCREL(%rip), %rsi
	movq	_ZN4asio6detail15system_categoryD1Ev@GOTPCREL(%rip), %rdi
	leaq	__dso_handle(%rip), %rdx
	call	__cxa_atexit@PLT
	jmp	.L523
	.p2align 4,,10
	.p2align 3
.L568:
	movq	%r14, %r13
	jmp	.L447
	.p2align 4,,10
	.p2align 3
.L571:
	movq	%r14, %r13
	jmp	.L495
	.p2align 4,,10
	.p2align 3
.L461:
	leaq	48(%rbp), %r12
	movq	%r12, %rdi
	call	pthread_mutex_lock@PLT
	movq	200(%rbp), %rax
	testq	%rax, %rax
	je	.L469
	movq	24(%rsp), %rcx
	movq	%rcx, (%rax)
.L470:
	movq	136(%rbp), %rax
	movq	%r13, 200(%rbp)
	orq	$1, %rax
	cmpq	$1, %rax
	movq	%rax, 136(%rbp)
	jne	.L732
	cmpb	$0, 176(%rbp)
	jne	.L473
	movq	144(%rbp), %rax
	testq	%rax, %rax
	je	.L473
	leaq	88(%rax), %rdx
	movb	$1, 176(%rbp)
	movl	$-2147483639, 60(%rsp)
	leaq	60(%rsp), %rcx
	movl	$3, %esi
	movq	%rdx, 64(%rsp)
	movl	88(%rax), %edx
	movl	96(%rax), %edi
	call	epoll_ctl@PLT
.L473:
	movq	%r12, %rdi
	call	pthread_mutex_unlock@PLT
	jmp	.L701
	.p2align 4,,10
	.p2align 3
.L509:
	leaq	48(%rbp), %r12
	movq	%r12, %rdi
	call	pthread_mutex_lock@PLT
	movq	200(%rbp), %rax
	testq	%rax, %rax
	je	.L517
	movq	24(%rsp), %rcx
	movq	%rcx, (%rax)
.L518:
	movq	136(%rbp), %rax
	movq	%r13, 200(%rbp)
	orq	$1, %rax
	cmpq	$1, %rax
	movq	%rax, 136(%rbp)
	jne	.L733
	cmpb	$0, 176(%rbp)
	jne	.L521
	movq	144(%rbp), %rax
	testq	%rax, %rax
	je	.L521
	leaq	88(%rax), %rdx
	movb	$1, 176(%rbp)
	movl	$-2147483639, 60(%rsp)
	leaq	60(%rsp), %rcx
	movl	$3, %esi
	movq	%rdx, 64(%rsp)
	movl	88(%rax), %edx
	movl	96(%rax), %edi
	call	epoll_ctl@PLT
.L521:
	movq	%r12, %rdi
	call	pthread_mutex_unlock@PLT
	jmp	.L705
.L469:
	movq	24(%rsp), %rax
	movq	%rax, 192(%rbp)
	jmp	.L470
.L517:
	movq	24(%rsp), %rax
	movq	%rax, 192(%rbp)
	jmp	.L518
	.p2align 4,,10
	.p2align 3
.L715:
	movq	32(%rsp), %rax
	movl	$0, 60(%rsp)
	leaq	60(%rsp), %rcx
	movq	$0, 64(%rsp)
	movl	$2, %esi
	movl	%ebp, %edx
	movl	96(%rax), %edi
	call	epoll_ctl@PLT
	movq	144(%rbx), %rsi
	jmp	.L446
	.p2align 4,,10
	.p2align 3
.L719:
	movq	32(%rsp), %rax
	movl	$0, 60(%rsp)
	leaq	60(%rsp), %rcx
	movq	$0, 64(%rsp)
	movl	$2, %esi
	movl	%ebp, %edx
	movl	96(%rax), %edi
	call	epoll_ctl@PLT
	movq	112(%rbx), %rsi
	jmp	.L494
	.p2align 4,,10
	.p2align 3
.L730:
	movq	24(%rbp), %rax
	movq	32(%rsp), %rcx
	movq	%rax, 160(%rcx)
	jmp	.L505
	.p2align 4,,10
	.p2align 3
.L731:
	movq	24(%rbp), %rax
	movq	32(%rsp), %rcx
	movq	%rax, 160(%rcx)
	jmp	.L457
	.p2align 4,,10
	.p2align 3
.L722:
	movq	%r12, %rdi
	call	__cxa_guard_acquire@PLT
	testl	%eax, %eax
	je	.L531
	movq	%r12, %rdi
	call	__cxa_guard_release@PLT
	movq	_ZZN4asio15system_categoryEvE8instance@GOTPCREL(%rip), %rsi
	movq	_ZN4asio6detail15system_categoryD1Ev@GOTPCREL(%rip), %rdi
	leaq	__dso_handle(%rip), %rdx
	call	__cxa_atexit@PLT
	jmp	.L531
	.p2align 4,,10
	.p2align 3
.L718:
	movq	%r12, %rdi
	call	__cxa_guard_acquire@PLT
	testl	%eax, %eax
	je	.L483
	movq	%r12, %rdi
	call	__cxa_guard_release@PLT
	movq	_ZZN4asio15system_categoryEvE8instance@GOTPCREL(%rip), %rsi
	movq	_ZN4asio6detail15system_categoryD1Ev@GOTPCREL(%rip), %rdi
	leaq	__dso_handle(%rip), %rdx
	call	__cxa_atexit@PLT
	jmp	.L483
	.p2align 4,,10
	.p2align 3
.L533:
	leaq	60(%rsp), %rdx
	movl	%ebp, %edi
	movl	$21537, %esi
	xorl	%eax, %eax
	movl	$0, 60(%rsp)
	call	ioctl@PLT
	andb	$-4, 108(%rbx)
	movl	%ebp, %edi
	movl	$0, 0(%r13)
	call	close@PLT
	jmp	.L714
	.p2align 4,,10
	.p2align 3
.L485:
	leaq	60(%rsp), %rdx
	movl	%ebp, %edi
	movl	$21537, %esi
	xorl	%eax, %eax
	movl	$0, 60(%rsp)
	call	ioctl@PLT
	andb	$-4, 140(%rbx)
	movl	%ebp, %edi
	movl	$0, 0(%r13)
	call	close@PLT
	jmp	.L712
	.p2align 4,,10
	.p2align 3
.L733:
	movq	%r12, %rdi
	call	pthread_mutex_unlock@PLT
	leaq	88(%rbp), %rdi
	call	pthread_cond_signal@PLT
	jmp	.L705
	.p2align 4,,10
	.p2align 3
.L732:
	movq	%r12, %rdi
	call	pthread_mutex_unlock@PLT
	leaq	88(%rbp), %rdi
	call	pthread_cond_signal@PLT
	jmp	.L701
.L514:
	movq	%rcx, 8(%rax)
	jmp	.L515
.L466:
	movq	%rcx, 8(%rax)
	jmp	.L467
.L727:
	call	__stack_chk_fail@PLT
	.cfi_endproc
.LFE10185:
	.section	.gcc_except_table._ZN8asiodnp318TCPServerIOHandler6ServerD0Ev,"aG",@progbits,_ZN8asiodnp318TCPServerIOHandler6ServerD5Ev,comdat
.LLSDA10185:
	.byte	0xff
	.byte	0xff
	.byte	0x1
	.uleb128 .LLSDACSE10185-.LLSDACSB10185
.LLSDACSB10185:
.LLSDACSE10185:
	.section	.text._ZN8asiodnp318TCPServerIOHandler6ServerD0Ev,"axG",@progbits,_ZN8asiodnp318TCPServerIOHandler6ServerD5Ev,comdat
	.size	_ZN8asiodnp318TCPServerIOHandler6ServerD0Ev, .-_ZN8asiodnp318TCPServerIOHandler6ServerD0Ev
	.section	.text._ZNSt23_Sp_counted_ptr_inplaceIN7asiopal13SocketChannelESaIS1_ELN9__gnu_cxx12_Lock_policyE2EE10_M_disposeEv,"axG",@progbits,_ZNSt23_Sp_counted_ptr_inplaceIN7asiopal13SocketChannelESaIS1_ELN9__gnu_cxx12_Lock_policyE2EE10_M_disposeEv,comdat
	.align 2
	.p2align 4,,15
	.weak	_ZNSt23_Sp_counted_ptr_inplaceIN7asiopal13SocketChannelESaIS1_ELN9__gnu_cxx12_Lock_policyE2EE10_M_disposeEv
	.type	_ZNSt23_Sp_counted_ptr_inplaceIN7asiopal13SocketChannelESaIS1_ELN9__gnu_cxx12_Lock_policyE2EE10_M_disposeEv, @function
_ZNSt23_Sp_counted_ptr_inplaceIN7asiopal13SocketChannelESaIS1_ELN9__gnu_cxx12_Lock_policyE2EE10_M_disposeEv:
.LFB10281:
	.cfi_startproc
	.cfi_personality 0x9b,DW.ref.__gxx_personality_v0
	.cfi_lsda 0x1b,.LLSDA10281
	pushq	%r15
	.cfi_def_cfa_offset 16
	.cfi_offset 15, -16
	pushq	%r14
	.cfi_def_cfa_offset 24
	.cfi_offset 14, -24
	movq	%rdi, %r14
	pushq	%r13
	.cfi_def_cfa_offset 32
	.cfi_offset 13, -32
	pushq	%r12
	.cfi_def_cfa_offset 40
	.cfi_offset 12, -40
	pushq	%rbp
	.cfi_def_cfa_offset 48
	.cfi_offset 6, -48
	pushq	%rbx
	.cfi_def_cfa_offset 56
	.cfi_offset 3, -56
	subq	$88, %rsp
	.cfi_def_cfa_offset 144
	movl	80(%rdi), %ebx
	movq	%fs:40, %rax
	movq	%rax, 72(%rsp)
	xorl	%eax, %eax
	movq	_ZTVN7asiopal13SocketChannelE@GOTPCREL(%rip), %rax
	addq	$16, %rax
	cmpl	$-1, %ebx
	movq	%rax, 16(%rdi)
	je	.L735
	movq	88(%rdi), %r13
	testq	%r13, %r13
	je	.L802
	movq	104(%rdi), %rax
	movzbl	84(%rdi), %ebp
	movq	40(%rax), %rax
	movq	%rax, 32(%rsp)
	leaq	40(%r13), %rax
	movq	%rax, %rdi
	movq	%rax, 40(%rsp)
	call	pthread_mutex_lock@PLT
	movq	88(%r14), %rsi
	cmpb	$0, 144(%rsi)
	jne	.L737
	andl	$64, %ebp
	jne	.L876
.L738:
	movq	$0, 8(%rsp)
	movq	8(%rsp), %rax
	xorl	%r13d, %r13d
	movq	$0, 24(%rsp)
	movq	%r14, 16(%rsp)
.L748:
	leaq	6(%rax), %rcx
	salq	$4, %rcx
	movq	(%rsi,%rcx), %rbx
	movq	%rcx, %r12
	testq	%rbx, %rbx
	je	.L804
	salq	$4, %rax
	movq	_ZGVZN4asio15system_categoryEvE8instance@GOTPCREL(%rip), %r14
	movq	_ZZN4asio15system_categoryEvE8instance@GOTPCREL(%rip), %rbp
	movq	%rax, %r15
	jmp	.L740
	.p2align 4,,10
	.p2align 3
.L742:
	leaq	(%rsi,%r15), %rdx
	movl	$125, 24(%rbx)
	movq	%rbp, 32(%rbx)
	movq	96(%rdx), %rax
	testq	%rax, %rax
	je	.L744
	movq	(%rax), %rcx
	testq	%rcx, %rcx
	movq	%rcx, 96(%rdx)
	je	.L877
.L745:
	movq	$0, (%rax)
.L744:
	testq	%r13, %r13
	movq	$0, (%rbx)
	je	.L746
	movq	(%rsi,%r12), %rax
	movq	%rbx, 0(%r13)
	testq	%rax, %rax
	je	.L739
.L747:
	movq	%rbx, %r13
	movq	%rax, %rbx
.L740:
	movzbl	(%r14), %eax
	testb	%al, %al
	jne	.L742
	movq	%r14, %rdi
	call	__cxa_guard_acquire@PLT
	testl	%eax, %eax
	je	.L868
	movq	%r14, %rdi
	call	__cxa_guard_release@PLT
	movq	_ZN4asio6detail15system_categoryD1Ev@GOTPCREL(%rip), %rdi
	leaq	__dso_handle(%rip), %rdx
	movq	%rbp, %rsi
	call	__cxa_atexit@PLT
.L868:
	movq	16(%rsp), %rax
	movq	88(%rax), %rsi
	jmp	.L742
	.p2align 4,,10
	.p2align 3
.L737:
	movq	40(%rsp), %rdi
	call	pthread_mutex_unlock@PLT
.L870:
	movl	80(%r14), %ebx
	cmpl	$-1, %ebx
	je	.L735
.L802:
	movzbl	84(%r14), %ebp
	call	__errno_location@PLT
	movq	%rax, %r12
	testb	$8, %bpl
	jne	.L865
	movq	_ZGVZN4asio15system_categoryEvE8instance@GOTPCREL(%rip), %rbp
.L767:
	movl	$0, (%r12)
	movl	%ebx, %edi
	call	close@PLT
	movl	%eax, %r13d
	movzbl	0(%rbp), %eax
	testb	%al, %al
	je	.L878
.L772:
	testl	%r13d, %r13d
	je	.L735
	movl	(%r12), %r13d
	movzbl	0(%rbp), %eax
	testb	%al, %al
	je	.L879
.L775:
	cmpl	$11, %r13d
	je	.L777
.L875:
	movzbl	0(%rbp), %eax
	testb	%al, %al
	jne	.L735
	movq	%rbp, %rdi
	call	__cxa_guard_acquire@PLT
	testl	%eax, %eax
	je	.L735
	movq	%rbp, %rdi
	call	__cxa_guard_release@PLT
	movq	_ZZN4asio15system_categoryEvE8instance@GOTPCREL(%rip), %rsi
	movq	_ZN4asio6detail15system_categoryD1Ev@GOTPCREL(%rip), %rdi
	leaq	__dso_handle(%rip), %rdx
	call	__cxa_atexit@PLT
	.p2align 4,,10
	.p2align 3
.L735:
	movq	_ZTVN7asiopal13IAsyncChannelE@GOTPCREL(%rip), %rax
	movq	64(%r14), %rbx
	addq	$16, %rax
	testq	%rbx, %rbx
	movq	%rax, 16(%r14)
	je	.L784
	cmpq	$0, _ZL28__gthrw___pthread_key_createPjPFvPvE@GOTPCREL(%rip)
	je	.L785
	lock subl	$1, 8(%rbx)
	je	.L880
.L784:
	movq	48(%r14), %rbx
	testq	%rbx, %rbx
	je	.L790
	cmpq	$0, _ZL28__gthrw___pthread_key_createPjPFvPvE@GOTPCREL(%rip)
	je	.L791
	lock subl	$1, 8(%rbx)
	je	.L881
.L790:
	movq	32(%r14), %rdi
	testq	%rdi, %rdi
	je	.L734
	cmpq	$0, _ZL28__gthrw___pthread_key_createPjPFvPvE@GOTPCREL(%rip)
	je	.L797
	movl	$-1, %eax
	lock xaddl	%eax, 12(%rdi)
	cmpl	$1, %eax
	je	.L882
.L734:
	movq	72(%rsp), %rax
	xorq	%fs:40, %rax
	jne	.L883
	addq	$88, %rsp
	.cfi_remember_state
	.cfi_def_cfa_offset 56
	popq	%rbx
	.cfi_def_cfa_offset 48
	popq	%rbp
	.cfi_def_cfa_offset 40
	popq	%r12
	.cfi_def_cfa_offset 32
	popq	%r13
	.cfi_def_cfa_offset 24
	popq	%r14
	.cfi_def_cfa_offset 16
	popq	%r15
	.cfi_def_cfa_offset 8
	ret
	.p2align 4,,10
	.p2align 3
.L797:
	.cfi_restore_state
	movl	12(%rdi), %eax
	leal	-1(%rax), %edx
	cmpl	$1, %eax
	movl	%edx, 12(%rdi)
	jne	.L734
.L882:
	movq	(%rdi), %rax
	call	*24(%rax)
	jmp	.L734
	.p2align 4,,10
	.p2align 3
.L791:
	movl	8(%rbx), %eax
	leal	-1(%rax), %edx
	cmpl	$1, %eax
	movl	%edx, 8(%rbx)
	jne	.L790
	movq	(%rbx), %rax
	movq	%rbx, %rdi
	call	*16(%rax)
	movl	12(%rbx), %eax
	leal	-1(%rax), %edx
	movl	%edx, 12(%rbx)
	jmp	.L801
	.p2align 4,,10
	.p2align 3
.L785:
	movl	8(%rbx), %eax
	leal	-1(%rax), %edx
	cmpl	$1, %eax
	movl	%edx, 8(%rbx)
	jne	.L784
	movq	(%rbx), %rax
	movq	%rbx, %rdi
	call	*16(%rax)
	movl	12(%rbx), %eax
	leal	-1(%rax), %edx
	movl	%edx, 12(%rbx)
	jmp	.L800
	.p2align 4,,10
	.p2align 3
.L880:
	movq	(%rbx), %rax
	movq	%rbx, %rdi
	call	*16(%rax)
	movl	$-1, %eax
	lock xaddl	%eax, 12(%rbx)
.L800:
	cmpl	$1, %eax
	jne	.L784
	movq	(%rbx), %rax
	movq	%rbx, %rdi
	call	*24(%rax)
	jmp	.L784
	.p2align 4,,10
	.p2align 3
.L881:
	movq	(%rbx), %rax
	movq	%rbx, %rdi
	call	*16(%rax)
	movl	$-1, %eax
	lock xaddl	%eax, 12(%rbx)
.L801:
	cmpl	$1, %eax
	jne	.L790
	movq	(%rbx), %rax
	movq	%rbx, %rdi
	call	*24(%rax)
	jmp	.L790
	.p2align 4,,10
	.p2align 3
.L746:
	movq	(%rsi,%r12), %rax
	movq	%rbx, 24(%rsp)
	testq	%rax, %rax
	jne	.L747
.L739:
	addq	$1, 8(%rsp)
	movq	8(%rsp), %rax
	cmpq	$3, %rax
	je	.L884
	movq	%rbx, %r13
	jmp	.L748
	.p2align 4,,10
	.p2align 3
.L877:
	movq	$0, 104(%rdx)
	jmp	.L745
	.p2align 4,,10
	.p2align 3
.L884:
	movq	16(%rsp), %r14
	movl	$-1, 88(%rsi)
	movq	40(%rsp), %rdi
	movq	88(%r14), %rax
	movb	$1, 144(%rax)
	call	pthread_mutex_unlock@PLT
	movq	32(%rsp), %r15
	movq	88(%r14), %rbp
	leaq	120(%r15), %r12
	movq	%r12, %rdi
	call	pthread_mutex_lock@PLT
	cmpq	160(%r15), %rbp
	je	.L885
.L749:
	movq	32(%rbp), %rdx
	movq	24(%rbp), %rax
	testq	%rdx, %rdx
	je	.L750
	movq	%rax, 24(%rdx)
	movq	24(%rbp), %rax
.L750:
	testq	%rax, %rax
	je	.L751
	movq	32(%rbp), %rdx
	movq	%rdx, 32(%rax)
.L751:
	movq	32(%rsp), %r15
	movq	%r12, %rdi
	movq	168(%r15), %rax
	movq	$0, 32(%rbp)
	movq	%rax, 24(%rbp)
	movq	%rbp, 168(%r15)
	call	pthread_mutex_unlock@PLT
	cmpq	$0, 24(%rsp)
	movq	$0, 88(%r14)
	je	.L870
	movq	40(%r15), %rbp
	cmpb	$0, 40(%rbp)
	je	.L753
	.byte	0x66
	leaq	_ZN4asio6detail15keyword_tss_ptrINS0_10call_stackINS0_15task_io_serviceENS0_27task_io_service_thread_infoEE7contextEE6value_E@tlsgd(%rip), %rdi
	.value	0x6666
	rex64
	call	__tls_get_addr@PLT
	movq	(%rax), %rax
	testq	%rax, %rax
	jne	.L864
	jmp	.L753
	.p2align 4,,10
	.p2align 3
.L755:
	movq	16(%rax), %rax
	testq	%rax, %rax
	je	.L753
.L864:
	cmpq	(%rax), %rbp
	jne	.L755
	movq	8(%rax), %rax
	testq	%rax, %rax
	je	.L753
	movq	16(%rax), %rdx
	movq	24(%rsp), %rcx
	testq	%rdx, %rdx
	je	.L758
	movq	%rcx, (%rdx)
.L759:
	movq	%rbx, 16(%rax)
	jmp	.L870
	.p2align 4,,10
	.p2align 3
.L878:
	movq	%rbp, %rdi
	call	__cxa_guard_acquire@PLT
	testl	%eax, %eax
	je	.L772
	movq	%rbp, %rdi
	call	__cxa_guard_release@PLT
	movq	_ZZN4asio15system_categoryEvE8instance@GOTPCREL(%rip), %rsi
	movq	_ZN4asio6detail15system_categoryD1Ev@GOTPCREL(%rip), %rdi
	leaq	__dso_handle(%rip), %rdx
	call	__cxa_atexit@PLT
	jmp	.L772
	.p2align 4,,10
	.p2align 3
.L865:
	orl	$8, %ebp
	leaq	60(%rsp), %rcx
	movl	$8, %r8d
	movb	%bpl, 84(%r14)
	movl	$13, %edx
	movl	$0, (%rax)
	movl	$1, %esi
	movl	%ebx, %edi
	movq	$0, 60(%rsp)
	call	setsockopt@PLT
	movq	_ZGVZN4asio15system_categoryEvE8instance@GOTPCREL(%rip), %rbp
	movzbl	0(%rbp), %eax
	testb	%al, %al
	jne	.L767
	movq	%rbp, %rdi
	call	__cxa_guard_acquire@PLT
	testl	%eax, %eax
	je	.L767
	movq	%rbp, %rdi
	call	__cxa_guard_release@PLT
	movq	_ZZN4asio15system_categoryEvE8instance@GOTPCREL(%rip), %rsi
	movq	_ZN4asio6detail15system_categoryD1Ev@GOTPCREL(%rip), %rdi
	leaq	__dso_handle(%rip), %rdx
	call	__cxa_atexit@PLT
	jmp	.L767
	.p2align 4,,10
	.p2align 3
.L804:
	movq	%r13, %rbx
	jmp	.L739
	.p2align 4,,10
	.p2align 3
.L753:
	leaq	48(%rbp), %r12
	movq	%r12, %rdi
	call	pthread_mutex_lock@PLT
	movq	200(%rbp), %rax
	testq	%rax, %rax
	je	.L761
	movq	24(%rsp), %rcx
	movq	%rcx, (%rax)
.L762:
	movq	136(%rbp), %rax
	movq	%rbx, 200(%rbp)
	orq	$1, %rax
	cmpq	$1, %rax
	movq	%rax, 136(%rbp)
	jne	.L886
	cmpb	$0, 176(%rbp)
	jne	.L765
	movq	144(%rbp), %rax
	testq	%rax, %rax
	je	.L765
	leaq	88(%rax), %rdx
	movb	$1, 176(%rbp)
	movl	$-2147483639, 60(%rsp)
	leaq	60(%rsp), %rcx
	movl	$3, %esi
	movq	%rdx, 64(%rsp)
	movl	88(%rax), %edx
	movl	96(%rax), %edi
	call	epoll_ctl@PLT
.L765:
	movq	%r12, %rdi
	call	pthread_mutex_unlock@PLT
	jmp	.L870
.L761:
	movq	24(%rsp), %rax
	movq	%rax, 192(%rbp)
	jmp	.L762
	.p2align 4,,10
	.p2align 3
.L876:
	movq	32(%rsp), %rax
	movl	$0, 60(%rsp)
	leaq	60(%rsp), %rcx
	movq	$0, 64(%rsp)
	movl	$2, %esi
	movl	%ebx, %edx
	movl	96(%rax), %edi
	call	epoll_ctl@PLT
	movq	88(%r14), %rsi
	jmp	.L738
	.p2align 4,,10
	.p2align 3
.L885:
	movq	24(%rbp), %rax
	movq	32(%rsp), %rcx
	movq	%rax, 160(%rcx)
	jmp	.L749
	.p2align 4,,10
	.p2align 3
.L879:
	movq	%rbp, %rdi
	call	__cxa_guard_acquire@PLT
	testl	%eax, %eax
	je	.L775
	movq	%rbp, %rdi
	call	__cxa_guard_release@PLT
	movq	_ZZN4asio15system_categoryEvE8instance@GOTPCREL(%rip), %rsi
	movq	_ZN4asio6detail15system_categoryD1Ev@GOTPCREL(%rip), %rdi
	leaq	__dso_handle(%rip), %rdx
	call	__cxa_atexit@PLT
	jmp	.L775
	.p2align 4,,10
	.p2align 3
.L777:
	leaq	60(%rsp), %rdx
	movl	%ebx, %edi
	movl	$21537, %esi
	xorl	%eax, %eax
	movl	$0, 60(%rsp)
	call	ioctl@PLT
	andb	$-4, 84(%r14)
	movl	%ebx, %edi
	movl	$0, (%r12)
	call	close@PLT
	jmp	.L875
	.p2align 4,,10
	.p2align 3
.L886:
	movq	%r12, %rdi
	call	pthread_mutex_unlock@PLT
	leaq	88(%rbp), %rdi
	call	pthread_cond_signal@PLT
	jmp	.L870
.L758:
	movq	%rcx, 8(%rax)
	jmp	.L759
.L883:
	call	__stack_chk_fail@PLT
	.cfi_endproc
.LFE10281:
	.section	.gcc_except_table._ZNSt23_Sp_counted_ptr_inplaceIN7asiopal13SocketChannelESaIS1_ELN9__gnu_cxx12_Lock_policyE2EE10_M_disposeEv,"aG",@progbits,_ZNSt23_Sp_counted_ptr_inplaceIN7asiopal13SocketChannelESaIS1_ELN9__gnu_cxx12_Lock_policyE2EE10_M_disposeEv,comdat
.LLSDA10281:
	.byte	0xff
	.byte	0xff
	.byte	0x1
	.uleb128 .LLSDACSE10281-.LLSDACSB10281
.LLSDACSB10281:
.LLSDACSE10281:
	.section	.text._ZNSt23_Sp_counted_ptr_inplaceIN7asiopal13SocketChannelESaIS1_ELN9__gnu_cxx12_Lock_policyE2EE10_M_disposeEv,"axG",@progbits,_ZNSt23_Sp_counted_ptr_inplaceIN7asiopal13SocketChannelESaIS1_ELN9__gnu_cxx12_Lock_policyE2EE10_M_disposeEv,comdat
	.size	_ZNSt23_Sp_counted_ptr_inplaceIN7asiopal13SocketChannelESaIS1_ELN9__gnu_cxx12_Lock_policyE2EE10_M_disposeEv, .-_ZNSt23_Sp_counted_ptr_inplaceIN7asiopal13SocketChannelESaIS1_ELN9__gnu_cxx12_Lock_policyE2EE10_M_disposeEv
	.section	.text._ZN8asiodnp318TCPServerIOHandler6ServerD2Ev,"axG",@progbits,_ZN8asiodnp318TCPServerIOHandler6ServerD5Ev,comdat
	.align 2
	.p2align 4,,15
	.weak	_ZN8asiodnp318TCPServerIOHandler6ServerD2Ev
	.type	_ZN8asiodnp318TCPServerIOHandler6ServerD2Ev, @function
_ZN8asiodnp318TCPServerIOHandler6ServerD2Ev:
.LFB10183:
	.cfi_startproc
	.cfi_personality 0x9b,DW.ref.__gxx_personality_v0
	.cfi_lsda 0x1b,.LLSDA10183
	pushq	%r15
	.cfi_def_cfa_offset 16
	.cfi_offset 15, -16
	pushq	%r14
	.cfi_def_cfa_offset 24
	.cfi_offset 14, -24
	pushq	%r13
	.cfi_def_cfa_offset 32
	.cfi_offset 13, -32
	pushq	%r12
	.cfi_def_cfa_offset 40
	.cfi_offset 12, -40
	pushq	%rbp
	.cfi_def_cfa_offset 48
	.cfi_offset 6, -48
	pushq	%rbx
	.cfi_def_cfa_offset 56
	.cfi_offset 3, -56
	movq	%rdi, %rbx
	subq	$88, %rsp
	.cfi_def_cfa_offset 144
	movq	%fs:40, %rax
	movq	%rax, 72(%rsp)
	xorl	%eax, %eax
	movq	_ZTVN8asiodnp318TCPServerIOHandler6ServerE@GOTPCREL(%rip), %rax
	addq	$16, %rax
	movq	%rax, (%rdi)
	movq	224(%rdi), %rax
	testq	%rax, %rax
	je	.L888
	leaq	208(%rdi), %rdi
	movl	$3, %edx
	movq	%rdi, %rsi
	call	*%rax
.L888:
	movq	_ZTVN7asiopal9TCPServerE@GOTPCREL(%rip), %rax
	movl	136(%rbx), %ebp
	addq	$16, %rax
	cmpl	$-1, %ebp
	movq	%rax, (%rbx)
	je	.L889
	movq	144(%rbx), %r13
	testq	%r13, %r13
	je	.L1011
	movq	160(%rbx), %rax
	movzbl	140(%rbx), %r12d
	movq	40(%rax), %rax
	movq	%rax, 32(%rsp)
	leaq	40(%r13), %rax
	movq	%rax, %rdi
	movq	%rax, 40(%rsp)
	call	pthread_mutex_lock@PLT
	movq	144(%rbx), %rsi
	cmpb	$0, 144(%rsi)
	jne	.L891
	andl	$64, %r12d
	jne	.L1160
.L892:
	movq	$0, 8(%rsp)
	movq	8(%rsp), %rax
	xorl	%r14d, %r14d
	movq	$0, 24(%rsp)
	movq	%rbx, 16(%rsp)
.L902:
	leaq	6(%rax), %rcx
	salq	$4, %rcx
	movq	(%rsi,%rcx), %r13
	movq	%rcx, %r12
	testq	%r13, %r13
	je	.L1014
	salq	$4, %rax
	movq	_ZGVZN4asio15system_categoryEvE8instance@GOTPCREL(%rip), %rbx
	movq	_ZZN4asio15system_categoryEvE8instance@GOTPCREL(%rip), %rbp
	movq	%rax, %r15
	jmp	.L894
	.p2align 4,,10
	.p2align 3
.L896:
	leaq	(%rsi,%r15), %rdx
	movl	$125, 24(%r13)
	movq	%rbp, 32(%r13)
	movq	96(%rdx), %rax
	testq	%rax, %rax
	je	.L898
	movq	(%rax), %rcx
	testq	%rcx, %rcx
	movq	%rcx, 96(%rdx)
	je	.L1161
.L899:
	movq	$0, (%rax)
.L898:
	testq	%r14, %r14
	movq	$0, 0(%r13)
	je	.L900
	movq	(%rsi,%r12), %rax
	movq	%r13, (%r14)
	testq	%rax, %rax
	je	.L893
.L901:
	movq	%r13, %r14
	movq	%rax, %r13
.L894:
	movzbl	(%rbx), %eax
	testb	%al, %al
	jne	.L896
	movq	%rbx, %rdi
	call	__cxa_guard_acquire@PLT
	testl	%eax, %eax
	je	.L1144
	movq	%rbx, %rdi
	call	__cxa_guard_release@PLT
	movq	_ZN4asio6detail15system_categoryD1Ev@GOTPCREL(%rip), %rdi
	leaq	__dso_handle(%rip), %rdx
	movq	%rbp, %rsi
	call	__cxa_atexit@PLT
.L1144:
	movq	16(%rsp), %rax
	movq	144(%rax), %rsi
	jmp	.L896
	.p2align 4,,10
	.p2align 3
.L891:
	movq	40(%rsp), %rdi
	call	pthread_mutex_unlock@PLT
.L1146:
	movl	136(%rbx), %ebp
	cmpl	$-1, %ebp
	je	.L889
.L1011:
	movzbl	140(%rbx), %r12d
	call	__errno_location@PLT
	movq	%rax, %r13
	testb	$8, %r12b
	jne	.L1137
	movq	_ZGVZN4asio15system_categoryEvE8instance@GOTPCREL(%rip), %r12
.L921:
	movl	$0, 0(%r13)
	movl	%ebp, %edi
	call	close@PLT
	movl	%eax, %r14d
	movzbl	(%r12), %eax
	testb	%al, %al
	je	.L1162
.L926:
	testl	%r14d, %r14d
	je	.L889
	movl	0(%r13), %r14d
	movzbl	(%r12), %eax
	testb	%al, %al
	je	.L1163
.L929:
	cmpl	$11, %r14d
	je	.L931
.L1157:
	movzbl	(%r12), %eax
	testb	%al, %al
	jne	.L889
	movq	%r12, %rdi
	call	__cxa_guard_acquire@PLT
	testl	%eax, %eax
	je	.L889
	movq	%r12, %rdi
	call	__cxa_guard_release@PLT
	movq	_ZZN4asio15system_categoryEvE8instance@GOTPCREL(%rip), %rsi
	movq	_ZN4asio6detail15system_categoryD1Ev@GOTPCREL(%rip), %rdi
	leaq	__dso_handle(%rip), %rdx
	call	__cxa_atexit@PLT
	.p2align 4,,10
	.p2align 3
.L889:
	movl	104(%rbx), %ebp
	cmpl	$-1, %ebp
	je	.L937
	movq	112(%rbx), %r13
	testq	%r13, %r13
	je	.L1012
	movq	128(%rbx), %rax
	movzbl	108(%rbx), %r12d
	movq	40(%rax), %rax
	movq	%rax, 32(%rsp)
	leaq	40(%r13), %rax
	movq	%rax, %rdi
	movq	%rax, 40(%rsp)
	call	pthread_mutex_lock@PLT
	movq	112(%rbx), %rsi
	cmpb	$0, 144(%rsi)
	jne	.L939
	andl	$64, %r12d
	jne	.L1164
.L940:
	movq	$0, 8(%rsp)
	movq	8(%rsp), %rax
	xorl	%r14d, %r14d
	movq	$0, 24(%rsp)
	movq	%rbx, 16(%rsp)
.L950:
	leaq	6(%rax), %rcx
	salq	$4, %rcx
	movq	(%rsi,%rcx), %r13
	movq	%rcx, %r12
	testq	%r13, %r13
	je	.L1017
	salq	$4, %rax
	movq	_ZGVZN4asio15system_categoryEvE8instance@GOTPCREL(%rip), %rbx
	movq	_ZZN4asio15system_categoryEvE8instance@GOTPCREL(%rip), %rbp
	movq	%rax, %r15
	jmp	.L942
	.p2align 4,,10
	.p2align 3
.L944:
	leaq	(%rsi,%r15), %rdx
	movl	$125, 24(%r13)
	movq	%rbp, 32(%r13)
	movq	96(%rdx), %rax
	testq	%rax, %rax
	je	.L946
	movq	(%rax), %rcx
	testq	%rcx, %rcx
	movq	%rcx, 96(%rdx)
	je	.L1165
.L947:
	movq	$0, (%rax)
.L946:
	testq	%r14, %r14
	movq	$0, 0(%r13)
	je	.L948
	movq	(%rsi,%r12), %rax
	movq	%r13, (%r14)
	testq	%rax, %rax
	je	.L941
.L949:
	movq	%r13, %r14
	movq	%rax, %r13
.L942:
	movzbl	(%rbx), %eax
	testb	%al, %al
	jne	.L944
	movq	%rbx, %rdi
	call	__cxa_guard_acquire@PLT
	testl	%eax, %eax
	je	.L1148
	movq	%rbx, %rdi
	call	__cxa_guard_release@PLT
	movq	_ZN4asio6detail15system_categoryD1Ev@GOTPCREL(%rip), %rdi
	leaq	__dso_handle(%rip), %rdx
	movq	%rbp, %rsi
	call	__cxa_atexit@PLT
.L1148:
	movq	16(%rsp), %rax
	movq	112(%rax), %rsi
	jmp	.L944
	.p2align 4,,10
	.p2align 3
.L939:
	movq	40(%rsp), %rdi
	call	pthread_mutex_unlock@PLT
.L1150:
	movl	104(%rbx), %ebp
	cmpl	$-1, %ebp
	je	.L937
.L1012:
	movzbl	108(%rbx), %r12d
	call	__errno_location@PLT
	movq	%rax, %r13
	testb	$8, %r12b
	jne	.L1140
	movq	_ZGVZN4asio15system_categoryEvE8instance@GOTPCREL(%rip), %r12
.L969:
	movl	$0, 0(%r13)
	movl	%ebp, %edi
	call	close@PLT
	movl	%eax, %r14d
	movzbl	(%r12), %eax
	testb	%al, %al
	je	.L1166
.L974:
	testl	%r14d, %r14d
	je	.L937
	movl	0(%r13), %r14d
	movzbl	(%r12), %eax
	testb	%al, %al
	je	.L1167
.L977:
	cmpl	$11, %r14d
	je	.L979
.L1159:
	movzbl	(%r12), %eax
	testb	%al, %al
	jne	.L937
	movq	%r12, %rdi
	call	__cxa_guard_acquire@PLT
	testl	%eax, %eax
	je	.L937
	movq	%r12, %rdi
	call	__cxa_guard_release@PLT
	movq	_ZZN4asio15system_categoryEvE8instance@GOTPCREL(%rip), %rsi
	movq	_ZN4asio6detail15system_categoryD1Ev@GOTPCREL(%rip), %rdi
	leaq	__dso_handle(%rip), %rdx
	call	__cxa_atexit@PLT
	.p2align 4,,10
	.p2align 3
.L937:
	movq	64(%rbx), %rbp
	testq	%rbp, %rbp
	je	.L986
	cmpq	$0, _ZL28__gthrw___pthread_key_createPjPFvPvE@GOTPCREL(%rip)
	je	.L987
	lock subl	$1, 8(%rbp)
	je	.L1168
.L986:
	movq	48(%rbx), %rbp
	testq	%rbp, %rbp
	je	.L992
	cmpq	$0, _ZL28__gthrw___pthread_key_createPjPFvPvE@GOTPCREL(%rip)
	je	.L993
	lock subl	$1, 8(%rbp)
	je	.L1169
.L992:
	movq	32(%rbx), %rbp
	testq	%rbp, %rbp
	je	.L998
	cmpq	$0, _ZL28__gthrw___pthread_key_createPjPFvPvE@GOTPCREL(%rip)
	je	.L999
	lock subl	$1, 8(%rbp)
	je	.L1170
.L998:
	movq	16(%rbx), %rdi
	testq	%rdi, %rdi
	je	.L887
	cmpq	$0, _ZL28__gthrw___pthread_key_createPjPFvPvE@GOTPCREL(%rip)
	je	.L1005
	movl	$-1, %eax
	lock xaddl	%eax, 12(%rdi)
	cmpl	$1, %eax
	je	.L1171
.L887:
	movq	72(%rsp), %rax
	xorq	%fs:40, %rax
	jne	.L1172
	addq	$88, %rsp
	.cfi_remember_state
	.cfi_def_cfa_offset 56
	popq	%rbx
	.cfi_def_cfa_offset 48
	popq	%rbp
	.cfi_def_cfa_offset 40
	popq	%r12
	.cfi_def_cfa_offset 32
	popq	%r13
	.cfi_def_cfa_offset 24
	popq	%r14
	.cfi_def_cfa_offset 16
	popq	%r15
	.cfi_def_cfa_offset 8
	ret
	.p2align 4,,10
	.p2align 3
.L1005:
	.cfi_restore_state
	movl	12(%rdi), %eax
	leal	-1(%rax), %edx
	cmpl	$1, %eax
	movl	%edx, 12(%rdi)
	jne	.L887
.L1171:
	movq	(%rdi), %rax
	call	*24(%rax)
	jmp	.L887
	.p2align 4,,10
	.p2align 3
.L999:
	movl	8(%rbp), %eax
	leal	-1(%rax), %edx
	cmpl	$1, %eax
	movl	%edx, 8(%rbp)
	jne	.L998
	movq	0(%rbp), %rax
	movq	%rbp, %rdi
	call	*16(%rax)
	movl	12(%rbp), %eax
	leal	-1(%rax), %edx
	movl	%edx, 12(%rbp)
	jmp	.L1010
	.p2align 4,,10
	.p2align 3
.L993:
	movl	8(%rbp), %eax
	leal	-1(%rax), %edx
	cmpl	$1, %eax
	movl	%edx, 8(%rbp)
	jne	.L992
	movq	0(%rbp), %rax
	movq	%rbp, %rdi
	call	*16(%rax)
	movl	12(%rbp), %eax
	leal	-1(%rax), %edx
	movl	%edx, 12(%rbp)
	jmp	.L1009
	.p2align 4,,10
	.p2align 3
.L987:
	movl	8(%rbp), %eax
	leal	-1(%rax), %edx
	cmpl	$1, %eax
	movl	%edx, 8(%rbp)
	jne	.L986
	movq	0(%rbp), %rax
	movq	%rbp, %rdi
	call	*16(%rax)
	movl	12(%rbp), %eax
	leal	-1(%rax), %edx
	movl	%edx, 12(%rbp)
	jmp	.L1008
	.p2align 4,,10
	.p2align 3
.L1170:
	movq	0(%rbp), %rax
	movq	%rbp, %rdi
	call	*16(%rax)
	movl	$-1, %eax
	lock xaddl	%eax, 12(%rbp)
.L1010:
	cmpl	$1, %eax
	jne	.L998
	movq	0(%rbp), %rax
	movq	%rbp, %rdi
	call	*24(%rax)
	jmp	.L998
	.p2align 4,,10
	.p2align 3
.L1169:
	movq	0(%rbp), %rax
	movq	%rbp, %rdi
	call	*16(%rax)
	movl	$-1, %eax
	lock xaddl	%eax, 12(%rbp)
.L1009:
	cmpl	$1, %eax
	jne	.L992
	movq	0(%rbp), %rax
	movq	%rbp, %rdi
	call	*24(%rax)
	jmp	.L992
	.p2align 4,,10
	.p2align 3
.L1168:
	movq	0(%rbp), %rax
	movq	%rbp, %rdi
	call	*16(%rax)
	movl	$-1, %eax
	lock xaddl	%eax, 12(%rbp)
.L1008:
	cmpl	$1, %eax
	jne	.L986
	movq	0(%rbp), %rax
	movq	%rbp, %rdi
	call	*24(%rax)
	jmp	.L986
	.p2align 4,,10
	.p2align 3
.L948:
	movq	(%rsi,%r12), %rax
	movq	%r13, 24(%rsp)
	testq	%rax, %rax
	jne	.L949
.L941:
	addq	$1, 8(%rsp)
	movq	8(%rsp), %rax
	cmpq	$3, %rax
	je	.L1173
	movq	%r13, %r14
	jmp	.L950
	.p2align 4,,10
	.p2align 3
.L900:
	movq	(%rsi,%r12), %rax
	movq	%r13, 24(%rsp)
	testq	%rax, %rax
	jne	.L901
.L893:
	addq	$1, 8(%rsp)
	movq	8(%rsp), %rax
	cmpq	$3, %rax
	je	.L1174
	movq	%r13, %r14
	jmp	.L902
	.p2align 4,,10
	.p2align 3
.L1161:
	movq	$0, 104(%rdx)
	jmp	.L899
	.p2align 4,,10
	.p2align 3
.L1165:
	movq	$0, 104(%rdx)
	jmp	.L947
	.p2align 4,,10
	.p2align 3
.L1173:
	movq	16(%rsp), %rbx
	movl	$-1, 88(%rsi)
	movq	40(%rsp), %rdi
	movq	112(%rbx), %rax
	movb	$1, 144(%rax)
	call	pthread_mutex_unlock@PLT
	movq	32(%rsp), %r15
	movq	112(%rbx), %rbp
	leaq	120(%r15), %r12
	movq	%r12, %rdi
	call	pthread_mutex_lock@PLT
	cmpq	160(%r15), %rbp
	je	.L1175
.L951:
	movq	32(%rbp), %rdx
	movq	24(%rbp), %rax
	testq	%rdx, %rdx
	je	.L952
	movq	%rax, 24(%rdx)
	movq	24(%rbp), %rax
.L952:
	testq	%rax, %rax
	je	.L953
	movq	32(%rbp), %rdx
	movq	%rdx, 32(%rax)
.L953:
	movq	32(%rsp), %r15
	movq	%r12, %rdi
	movq	168(%r15), %rax
	movq	$0, 32(%rbp)
	movq	%rax, 24(%rbp)
	movq	%rbp, 168(%r15)
	call	pthread_mutex_unlock@PLT
	cmpq	$0, 24(%rsp)
	movq	$0, 112(%rbx)
	je	.L1150
	movq	40(%r15), %rbp
	cmpb	$0, 40(%rbp)
	je	.L955
	.byte	0x66
	leaq	_ZN4asio6detail15keyword_tss_ptrINS0_10call_stackINS0_15task_io_serviceENS0_27task_io_service_thread_infoEE7contextEE6value_E@tlsgd(%rip), %rdi
	.value	0x6666
	rex64
	call	__tls_get_addr@PLT
	movq	(%rax), %rax
	testq	%rax, %rax
	jne	.L1139
	jmp	.L955
	.p2align 4,,10
	.p2align 3
.L957:
	movq	16(%rax), %rax
	testq	%rax, %rax
	je	.L955
.L1139:
	cmpq	(%rax), %rbp
	jne	.L957
	movq	8(%rax), %rax
	testq	%rax, %rax
	je	.L955
	movq	16(%rax), %rdx
	movq	24(%rsp), %rcx
	testq	%rdx, %rdx
	je	.L960
	movq	%rcx, (%rdx)
.L961:
	movq	%r13, 16(%rax)
	jmp	.L1150
	.p2align 4,,10
	.p2align 3
.L1174:
	movq	16(%rsp), %rbx
	movl	$-1, 88(%rsi)
	movq	40(%rsp), %rdi
	movq	144(%rbx), %rax
	movb	$1, 144(%rax)
	call	pthread_mutex_unlock@PLT
	movq	32(%rsp), %r15
	movq	144(%rbx), %rbp
	leaq	120(%r15), %r12
	movq	%r12, %rdi
	call	pthread_mutex_lock@PLT
	cmpq	160(%r15), %rbp
	je	.L1176
.L903:
	movq	32(%rbp), %rdx
	movq	24(%rbp), %rax
	testq	%rdx, %rdx
	je	.L904
	movq	%rax, 24(%rdx)
	movq	24(%rbp), %rax
.L904:
	testq	%rax, %rax
	je	.L905
	movq	32(%rbp), %rdx
	movq	%rdx, 32(%rax)
.L905:
	movq	32(%rsp), %r15
	movq	%r12, %rdi
	movq	168(%r15), %rax
	movq	$0, 32(%rbp)
	movq	%rax, 24(%rbp)
	movq	%rbp, 168(%r15)
	call	pthread_mutex_unlock@PLT
	cmpq	$0, 24(%rsp)
	movq	$0, 144(%rbx)
	je	.L1146
	movq	40(%r15), %rbp
	cmpb	$0, 40(%rbp)
	je	.L907
	.byte	0x66
	leaq	_ZN4asio6detail15keyword_tss_ptrINS0_10call_stackINS0_15task_io_serviceENS0_27task_io_service_thread_infoEE7contextEE6value_E@tlsgd(%rip), %rdi
	.value	0x6666
	rex64
	call	__tls_get_addr@PLT
	movq	(%rax), %rax
	testq	%rax, %rax
	jne	.L1136
	jmp	.L907
	.p2align 4,,10
	.p2align 3
.L909:
	movq	16(%rax), %rax
	testq	%rax, %rax
	je	.L907
.L1136:
	cmpq	(%rax), %rbp
	jne	.L909
	movq	8(%rax), %rax
	testq	%rax, %rax
	je	.L907
	movq	16(%rax), %rdx
	movq	24(%rsp), %rcx
	testq	%rdx, %rdx
	je	.L912
	movq	%rcx, (%rdx)
.L913:
	movq	%r13, 16(%rax)
	jmp	.L1146
	.p2align 4,,10
	.p2align 3
.L1166:
	movq	%r12, %rdi
	call	__cxa_guard_acquire@PLT
	testl	%eax, %eax
	je	.L974
	movq	%r12, %rdi
	call	__cxa_guard_release@PLT
	movq	_ZZN4asio15system_categoryEvE8instance@GOTPCREL(%rip), %rsi
	movq	_ZN4asio6detail15system_categoryD1Ev@GOTPCREL(%rip), %rdi
	leaq	__dso_handle(%rip), %rdx
	call	__cxa_atexit@PLT
	jmp	.L974
	.p2align 4,,10
	.p2align 3
.L1162:
	movq	%r12, %rdi
	call	__cxa_guard_acquire@PLT
	testl	%eax, %eax
	je	.L926
	movq	%r12, %rdi
	call	__cxa_guard_release@PLT
	movq	_ZZN4asio15system_categoryEvE8instance@GOTPCREL(%rip), %rsi
	movq	_ZN4asio6detail15system_categoryD1Ev@GOTPCREL(%rip), %rdi
	leaq	__dso_handle(%rip), %rdx
	call	__cxa_atexit@PLT
	jmp	.L926
	.p2align 4,,10
	.p2align 3
.L1137:
	orl	$8, %r12d
	leaq	60(%rsp), %rcx
	movl	$8, %r8d
	movb	%r12b, 140(%rbx)
	movl	$13, %edx
	movl	$0, (%rax)
	movl	$1, %esi
	movl	%ebp, %edi
	movq	$0, 60(%rsp)
	call	setsockopt@PLT
	movq	_ZGVZN4asio15system_categoryEvE8instance@GOTPCREL(%rip), %r12
	movzbl	(%r12), %eax
	testb	%al, %al
	jne	.L921
	movq	%r12, %rdi
	call	__cxa_guard_acquire@PLT
	testl	%eax, %eax
	je	.L921
	movq	%r12, %rdi
	call	__cxa_guard_release@PLT
	movq	_ZZN4asio15system_categoryEvE8instance@GOTPCREL(%rip), %rsi
	movq	_ZN4asio6detail15system_categoryD1Ev@GOTPCREL(%rip), %rdi
	leaq	__dso_handle(%rip), %rdx
	call	__cxa_atexit@PLT
	jmp	.L921
	.p2align 4,,10
	.p2align 3
.L1140:
	orl	$8, %r12d
	leaq	60(%rsp), %rcx
	movl	$8, %r8d
	movb	%r12b, 108(%rbx)
	movl	$13, %edx
	movl	$0, (%rax)
	movl	$1, %esi
	movl	%ebp, %edi
	movq	$0, 60(%rsp)
	call	setsockopt@PLT
	movq	_ZGVZN4asio15system_categoryEvE8instance@GOTPCREL(%rip), %r12
	movzbl	(%r12), %eax
	testb	%al, %al
	jne	.L969
	movq	%r12, %rdi
	call	__cxa_guard_acquire@PLT
	testl	%eax, %eax
	je	.L969
	movq	%r12, %rdi
	call	__cxa_guard_release@PLT
	movq	_ZZN4asio15system_categoryEvE8instance@GOTPCREL(%rip), %rsi
	movq	_ZN4asio6detail15system_categoryD1Ev@GOTPCREL(%rip), %rdi
	leaq	__dso_handle(%rip), %rdx
	call	__cxa_atexit@PLT
	jmp	.L969
	.p2align 4,,10
	.p2align 3
.L1014:
	movq	%r14, %r13
	jmp	.L893
	.p2align 4,,10
	.p2align 3
.L1017:
	movq	%r14, %r13
	jmp	.L941
	.p2align 4,,10
	.p2align 3
.L907:
	leaq	48(%rbp), %r12
	movq	%r12, %rdi
	call	pthread_mutex_lock@PLT
	movq	200(%rbp), %rax
	testq	%rax, %rax
	je	.L915
	movq	24(%rsp), %rcx
	movq	%rcx, (%rax)
.L916:
	movq	136(%rbp), %rax
	movq	%r13, 200(%rbp)
	orq	$1, %rax
	cmpq	$1, %rax
	movq	%rax, 136(%rbp)
	jne	.L1177
	cmpb	$0, 176(%rbp)
	jne	.L919
	movq	144(%rbp), %rax
	testq	%rax, %rax
	je	.L919
	leaq	88(%rax), %rdx
	movb	$1, 176(%rbp)
	movl	$-2147483639, 60(%rsp)
	leaq	60(%rsp), %rcx
	movl	$3, %esi
	movq	%rdx, 64(%rsp)
	movl	88(%rax), %edx
	movl	96(%rax), %edi
	call	epoll_ctl@PLT
.L919:
	movq	%r12, %rdi
	call	pthread_mutex_unlock@PLT
	jmp	.L1146
	.p2align 4,,10
	.p2align 3
.L955:
	leaq	48(%rbp), %r12
	movq	%r12, %rdi
	call	pthread_mutex_lock@PLT
	movq	200(%rbp), %rax
	testq	%rax, %rax
	je	.L963
	movq	24(%rsp), %rcx
	movq	%rcx, (%rax)
.L964:
	movq	136(%rbp), %rax
	movq	%r13, 200(%rbp)
	orq	$1, %rax
	cmpq	$1, %rax
	movq	%rax, 136(%rbp)
	jne	.L1178
	cmpb	$0, 176(%rbp)
	jne	.L967
	movq	144(%rbp), %rax
	testq	%rax, %rax
	je	.L967
	leaq	88(%rax), %rdx
	movb	$1, 176(%rbp)
	movl	$-2147483639, 60(%rsp)
	leaq	60(%rsp), %rcx
	movl	$3, %esi
	movq	%rdx, 64(%rsp)
	movl	88(%rax), %edx
	movl	96(%rax), %edi
	call	epoll_ctl@PLT
.L967:
	movq	%r12, %rdi
	call	pthread_mutex_unlock@PLT
	jmp	.L1150
.L915:
	movq	24(%rsp), %rax
	movq	%rax, 192(%rbp)
	jmp	.L916
.L963:
	movq	24(%rsp), %rax
	movq	%rax, 192(%rbp)
	jmp	.L964
	.p2align 4,,10
	.p2align 3
.L1160:
	movq	32(%rsp), %rax
	movl	$0, 60(%rsp)
	leaq	60(%rsp), %rcx
	movq	$0, 64(%rsp)
	movl	$2, %esi
	movl	%ebp, %edx
	movl	96(%rax), %edi
	call	epoll_ctl@PLT
	movq	144(%rbx), %rsi
	jmp	.L892
	.p2align 4,,10
	.p2align 3
.L1164:
	movq	32(%rsp), %rax
	movl	$0, 60(%rsp)
	leaq	60(%rsp), %rcx
	movq	$0, 64(%rsp)
	movl	$2, %esi
	movl	%ebp, %edx
	movl	96(%rax), %edi
	call	epoll_ctl@PLT
	movq	112(%rbx), %rsi
	jmp	.L940
	.p2align 4,,10
	.p2align 3
.L1175:
	movq	24(%rbp), %rax
	movq	32(%rsp), %rcx
	movq	%rax, 160(%rcx)
	jmp	.L951
	.p2align 4,,10
	.p2align 3
.L1176:
	movq	24(%rbp), %rax
	movq	32(%rsp), %rcx
	movq	%rax, 160(%rcx)
	jmp	.L903
	.p2align 4,,10
	.p2align 3
.L1167:
	movq	%r12, %rdi
	call	__cxa_guard_acquire@PLT
	testl	%eax, %eax
	je	.L977
	movq	%r12, %rdi
	call	__cxa_guard_release@PLT
	movq	_ZZN4asio15system_categoryEvE8instance@GOTPCREL(%rip), %rsi
	movq	_ZN4asio6detail15system_categoryD1Ev@GOTPCREL(%rip), %rdi
	leaq	__dso_handle(%rip), %rdx
	call	__cxa_atexit@PLT
	jmp	.L977
	.p2align 4,,10
	.p2align 3
.L1163:
	movq	%r12, %rdi
	call	__cxa_guard_acquire@PLT
	testl	%eax, %eax
	je	.L929
	movq	%r12, %rdi
	call	__cxa_guard_release@PLT
	movq	_ZZN4asio15system_categoryEvE8instance@GOTPCREL(%rip), %rsi
	movq	_ZN4asio6detail15system_categoryD1Ev@GOTPCREL(%rip), %rdi
	leaq	__dso_handle(%rip), %rdx
	call	__cxa_atexit@PLT
	jmp	.L929
	.p2align 4,,10
	.p2align 3
.L979:
	leaq	60(%rsp), %rdx
	movl	%ebp, %edi
	movl	$21537, %esi
	xorl	%eax, %eax
	movl	$0, 60(%rsp)
	call	ioctl@PLT
	andb	$-4, 108(%rbx)
	movl	%ebp, %edi
	movl	$0, 0(%r13)
	call	close@PLT
	jmp	.L1159
	.p2align 4,,10
	.p2align 3
.L931:
	leaq	60(%rsp), %rdx
	movl	%ebp, %edi
	movl	$21537, %esi
	xorl	%eax, %eax
	movl	$0, 60(%rsp)
	call	ioctl@PLT
	andb	$-4, 140(%rbx)
	movl	%ebp, %edi
	movl	$0, 0(%r13)
	call	close@PLT
	jmp	.L1157
	.p2align 4,,10
	.p2align 3
.L1178:
	movq	%r12, %rdi
	call	pthread_mutex_unlock@PLT
	leaq	88(%rbp), %rdi
	call	pthread_cond_signal@PLT
	jmp	.L1150
	.p2align 4,,10
	.p2align 3
.L1177:
	movq	%r12, %rdi
	call	pthread_mutex_unlock@PLT
	leaq	88(%rbp), %rdi
	call	pthread_cond_signal@PLT
	jmp	.L1146
.L960:
	movq	%rcx, 8(%rax)
	jmp	.L961
.L912:
	movq	%rcx, 8(%rax)
	jmp	.L913
.L1172:
	call	__stack_chk_fail@PLT
	.cfi_endproc
.LFE10183:
	.section	.gcc_except_table._ZN8asiodnp318TCPServerIOHandler6ServerD2Ev,"aG",@progbits,_ZN8asiodnp318TCPServerIOHandler6ServerD5Ev,comdat
.LLSDA10183:
	.byte	0xff
	.byte	0xff
	.byte	0x1
	.uleb128 .LLSDACSE10183-.LLSDACSB10183
.LLSDACSB10183:
.LLSDACSE10183:
	.section	.text._ZN8asiodnp318TCPServerIOHandler6ServerD2Ev,"axG",@progbits,_ZN8asiodnp318TCPServerIOHandler6ServerD5Ev,comdat
	.size	_ZN8asiodnp318TCPServerIOHandler6ServerD2Ev, .-_ZN8asiodnp318TCPServerIOHandler6ServerD2Ev
	.weak	_ZN8asiodnp318TCPServerIOHandler6ServerD1Ev
	.set	_ZN8asiodnp318TCPServerIOHandler6ServerD1Ev,_ZN8asiodnp318TCPServerIOHandler6ServerD2Ev
	.section	.text._ZN4asio6detail28reactive_socket_service_base7destroyERNS1_24base_implementation_typeE,"axG",@progbits,_ZN4asio6detail28reactive_socket_service_base7destroyERNS1_24base_implementation_typeE,comdat
	.align 2
	.p2align 4,,15
	.weak	_ZN4asio6detail28reactive_socket_service_base7destroyERNS1_24base_implementation_typeE
	.type	_ZN4asio6detail28reactive_socket_service_base7destroyERNS1_24base_implementation_typeE, @function
_ZN4asio6detail28reactive_socket_service_base7destroyERNS1_24base_implementation_typeE:
.LFB4350:
	.cfi_startproc
	pushq	%r15
	.cfi_def_cfa_offset 16
	.cfi_offset 15, -16
	pushq	%r14
	.cfi_def_cfa_offset 24
	.cfi_offset 14, -24
	pushq	%r13
	.cfi_def_cfa_offset 32
	.cfi_offset 13, -32
	pushq	%r12
	.cfi_def_cfa_offset 40
	.cfi_offset 12, -40
	pushq	%rbp
	.cfi_def_cfa_offset 48
	.cfi_offset 6, -48
	pushq	%rbx
	.cfi_def_cfa_offset 56
	.cfi_offset 3, -56
	subq	$88, %rsp
	.cfi_def_cfa_offset 144
	movl	(%rsi), %ebp
	movq	%fs:40, %rax
	movq	%rax, 72(%rsp)
	xorl	%eax, %eax
	cmpl	$-1, %ebp
	je	.L1179
	movq	8(%rsi), %r13
	movq	%rsi, %rbx
	testq	%r13, %r13
	je	.L1229
	movq	(%rdi), %rax
	movzbl	4(%rsi), %r12d
	movq	%rax, 32(%rsp)
	leaq	40(%r13), %rax
	movq	%rax, %rdi
	movq	%rax, 40(%rsp)
	call	pthread_mutex_lock@PLT
	movq	8(%rbx), %rsi
	cmpb	$0, 144(%rsi)
	jne	.L1182
	andl	$64, %r12d
	jne	.L1308
.L1183:
	movq	$0, 8(%rsp)
	movq	8(%rsp), %rax
	xorl	%r13d, %r13d
	movq	$0, 24(%rsp)
	movq	%rbx, 16(%rsp)
.L1194:
	leaq	6(%rax), %rcx
	salq	$4, %rcx
	movq	(%rsi,%rcx), %rbp
	movq	%rcx, %r14
	testq	%rbp, %rbp
	je	.L1184
	salq	$4, %rax
	movq	_ZGVZN4asio15system_categoryEvE8instance@GOTPCREL(%rip), %rbx
	movq	_ZZN4asio15system_categoryEvE8instance@GOTPCREL(%rip), %r12
	movq	%rax, %r15
	jmp	.L1185
	.p2align 4,,10
	.p2align 3
.L1188:
	leaq	(%rsi,%r15), %rdx
	movl	$125, 24(%rbp)
	movq	%r12, 32(%rbp)
	movq	96(%rdx), %rax
	testq	%rax, %rax
	je	.L1190
	movq	(%rax), %rcx
	testq	%rcx, %rcx
	movq	%rcx, 96(%rdx)
	je	.L1309
.L1191:
	movq	$0, (%rax)
.L1190:
	testq	%r13, %r13
	movq	$0, 0(%rbp)
	je	.L1192
	movq	(%rsi,%r14), %rax
	movq	%rbp, 0(%r13)
	testq	%rax, %rax
	je	.L1193
.L1186:
	movq	%rbp, %r13
	movq	%rax, %rbp
.L1185:
	movzbl	(%rbx), %eax
	testb	%al, %al
	jne	.L1188
	movq	%rbx, %rdi
	call	__cxa_guard_acquire@PLT
	testl	%eax, %eax
	je	.L1300
	movq	%rbx, %rdi
	call	__cxa_guard_release@PLT
	movq	_ZN4asio6detail15system_categoryD1Ev@GOTPCREL(%rip), %rdi
	leaq	__dso_handle(%rip), %rdx
	movq	%r12, %rsi
	call	__cxa_atexit@PLT
.L1300:
	movq	16(%rsp), %rax
	movq	8(%rax), %rsi
	jmp	.L1188
	.p2align 4,,10
	.p2align 3
.L1182:
	movq	40(%rsp), %rdi
	call	pthread_mutex_unlock@PLT
.L1302:
	movl	(%rbx), %ebp
	cmpl	$-1, %ebp
	je	.L1179
.L1229:
	movzbl	4(%rbx), %r12d
	call	__errno_location@PLT
	movq	%rax, %r13
	testb	$8, %r12b
	jne	.L1297
	movq	_ZGVZN4asio15system_categoryEvE8instance@GOTPCREL(%rip), %r12
.L1213:
	movl	$0, 0(%r13)
	movl	%ebp, %edi
	call	close@PLT
	movl	%eax, %r14d
	movzbl	(%r12), %eax
	testb	%al, %al
	je	.L1310
.L1218:
	testl	%r14d, %r14d
	je	.L1179
	movl	0(%r13), %r14d
	movzbl	(%r12), %eax
	testb	%al, %al
	je	.L1311
.L1221:
	cmpl	$11, %r14d
	je	.L1223
.L1307:
	movzbl	(%r12), %eax
	testb	%al, %al
	jne	.L1179
	movq	%r12, %rdi
	call	__cxa_guard_acquire@PLT
	testl	%eax, %eax
	je	.L1179
	movq	%r12, %rdi
	call	__cxa_guard_release@PLT
	movq	_ZZN4asio15system_categoryEvE8instance@GOTPCREL(%rip), %rsi
	movq	_ZN4asio6detail15system_categoryD1Ev@GOTPCREL(%rip), %rdi
	leaq	__dso_handle(%rip), %rdx
	call	__cxa_atexit@PLT
	.p2align 4,,10
	.p2align 3
.L1179:
	movq	72(%rsp), %rax
	xorq	%fs:40, %rax
	jne	.L1312
	addq	$88, %rsp
	.cfi_remember_state
	.cfi_def_cfa_offset 56
	popq	%rbx
	.cfi_def_cfa_offset 48
	popq	%rbp
	.cfi_def_cfa_offset 40
	popq	%r12
	.cfi_def_cfa_offset 32
	popq	%r13
	.cfi_def_cfa_offset 24
	popq	%r14
	.cfi_def_cfa_offset 16
	popq	%r15
	.cfi_def_cfa_offset 8
	ret
	.p2align 4,,10
	.p2align 3
.L1192:
	.cfi_restore_state
	movq	(%rsi,%r14), %rax
	movq	%rbp, 24(%rsp)
	testq	%rax, %rax
	jne	.L1186
.L1193:
	movq	%rbp, %r13
.L1184:
	addq	$1, 8(%rsp)
	movq	8(%rsp), %rax
	cmpq	$3, %rax
	jne	.L1194
	movq	16(%rsp), %rbx
	movl	$-1, 88(%rsi)
	movq	40(%rsp), %rdi
	movq	8(%rbx), %rax
	movb	$1, 144(%rax)
	call	pthread_mutex_unlock@PLT
	movq	32(%rsp), %r14
	movq	8(%rbx), %rbp
	leaq	120(%r14), %r12
	movq	%r12, %rdi
	call	pthread_mutex_lock@PLT
	cmpq	160(%r14), %rbp
	je	.L1313
.L1195:
	movq	32(%rbp), %rdx
	movq	24(%rbp), %rax
	testq	%rdx, %rdx
	je	.L1196
	movq	%rax, 24(%rdx)
	movq	24(%rbp), %rax
.L1196:
	testq	%rax, %rax
	je	.L1197
	movq	32(%rbp), %rdx
	movq	%rdx, 32(%rax)
.L1197:
	movq	32(%rsp), %r15
	movq	%r12, %rdi
	movq	168(%r15), %rax
	movq	$0, 32(%rbp)
	movq	%rax, 24(%rbp)
	movq	%rbp, 168(%r15)
	call	pthread_mutex_unlock@PLT
	cmpq	$0, 24(%rsp)
	movq	$0, 8(%rbx)
	je	.L1302
	movq	40(%r15), %rbp
	cmpb	$0, 40(%rbp)
	je	.L1199
	.byte	0x66
	leaq	_ZN4asio6detail15keyword_tss_ptrINS0_10call_stackINS0_15task_io_serviceENS0_27task_io_service_thread_infoEE7contextEE6value_E@tlsgd(%rip), %rdi
	.value	0x6666
	rex64
	call	__tls_get_addr@PLT
	movq	(%rax), %rax
	testq	%rax, %rax
	jne	.L1296
	jmp	.L1199
	.p2align 4,,10
	.p2align 3
.L1201:
	movq	16(%rax), %rax
	testq	%rax, %rax
	je	.L1199
.L1296:
	cmpq	(%rax), %rbp
	jne	.L1201
	movq	8(%rax), %rax
	testq	%rax, %rax
	je	.L1199
	movq	16(%rax), %rdx
	movq	24(%rsp), %rdi
	testq	%rdx, %rdx
	je	.L1204
	movq	%rdi, (%rdx)
.L1205:
	movq	%r13, 16(%rax)
	jmp	.L1302
	.p2align 4,,10
	.p2align 3
.L1309:
	movq	$0, 104(%rdx)
	jmp	.L1191
	.p2align 4,,10
	.p2align 3
.L1310:
	movq	%r12, %rdi
	call	__cxa_guard_acquire@PLT
	testl	%eax, %eax
	je	.L1218
	movq	%r12, %rdi
	call	__cxa_guard_release@PLT
	movq	_ZZN4asio15system_categoryEvE8instance@GOTPCREL(%rip), %rsi
	movq	_ZN4asio6detail15system_categoryD1Ev@GOTPCREL(%rip), %rdi
	leaq	__dso_handle(%rip), %rdx
	call	__cxa_atexit@PLT
	jmp	.L1218
	.p2align 4,,10
	.p2align 3
.L1297:
	orl	$8, %r12d
	leaq	60(%rsp), %rcx
	movl	$8, %r8d
	movb	%r12b, 4(%rbx)
	movl	$13, %edx
	movl	$0, (%rax)
	movl	$1, %esi
	movl	%ebp, %edi
	movq	$0, 60(%rsp)
	call	setsockopt@PLT
	movq	_ZGVZN4asio15system_categoryEvE8instance@GOTPCREL(%rip), %r12
	movzbl	(%r12), %eax
	testb	%al, %al
	jne	.L1213
	movq	%r12, %rdi
	call	__cxa_guard_acquire@PLT
	testl	%eax, %eax
	je	.L1213
	movq	%r12, %rdi
	call	__cxa_guard_release@PLT
	movq	_ZZN4asio15system_categoryEvE8instance@GOTPCREL(%rip), %rsi
	movq	_ZN4asio6detail15system_categoryD1Ev@GOTPCREL(%rip), %rdi
	leaq	__dso_handle(%rip), %rdx
	call	__cxa_atexit@PLT
	jmp	.L1213
	.p2align 4,,10
	.p2align 3
.L1199:
	leaq	48(%rbp), %r12
	movq	%r12, %rdi
	call	pthread_mutex_lock@PLT
	movq	200(%rbp), %rax
	testq	%rax, %rax
	je	.L1207
	movq	24(%rsp), %rdi
	movq	%rdi, (%rax)
.L1208:
	movq	136(%rbp), %rax
	movq	%r13, 200(%rbp)
	orq	$1, %rax
	cmpq	$1, %rax
	movq	%rax, 136(%rbp)
	jne	.L1314
	cmpb	$0, 176(%rbp)
	jne	.L1211
	movq	144(%rbp), %rax
	testq	%rax, %rax
	je	.L1211
	leaq	88(%rax), %rdx
	movb	$1, 176(%rbp)
	movl	$-2147483639, 60(%rsp)
	leaq	60(%rsp), %rcx
	movl	$3, %esi
	movq	%rdx, 64(%rsp)
	movl	88(%rax), %edx
	movl	96(%rax), %edi
	call	epoll_ctl@PLT
.L1211:
	movq	%r12, %rdi
	call	pthread_mutex_unlock@PLT
	jmp	.L1302
.L1207:
	movq	24(%rsp), %rax
	movq	%rax, 192(%rbp)
	jmp	.L1208
	.p2align 4,,10
	.p2align 3
.L1308:
	movq	32(%rsp), %rax
	movl	$0, 60(%rsp)
	leaq	60(%rsp), %rcx
	movq	$0, 64(%rsp)
	movl	$2, %esi
	movl	%ebp, %edx
	movl	96(%rax), %edi
	call	epoll_ctl@PLT
	movq	8(%rbx), %rsi
	jmp	.L1183
	.p2align 4,,10
	.p2align 3
.L1313:
	movq	24(%rbp), %rax
	movq	32(%rsp), %rdi
	movq	%rax, 160(%rdi)
	jmp	.L1195
	.p2align 4,,10
	.p2align 3
.L1311:
	movq	%r12, %rdi
	call	__cxa_guard_acquire@PLT
	testl	%eax, %eax
	je	.L1221
	movq	%r12, %rdi
	call	__cxa_guard_release@PLT
	movq	_ZZN4asio15system_categoryEvE8instance@GOTPCREL(%rip), %rsi
	movq	_ZN4asio6detail15system_categoryD1Ev@GOTPCREL(%rip), %rdi
	leaq	__dso_handle(%rip), %rdx
	call	__cxa_atexit@PLT
	jmp	.L1221
	.p2align 4,,10
	.p2align 3
.L1223:
	leaq	60(%rsp), %rdx
	movl	%ebp, %edi
	movl	$21537, %esi
	xorl	%eax, %eax
	movl	$0, 60(%rsp)
	call	ioctl@PLT
	andb	$-4, 4(%rbx)
	movl	%ebp, %edi
	movl	$0, 0(%r13)
	call	close@PLT
	jmp	.L1307
	.p2align 4,,10
	.p2align 3
.L1314:
	movq	%r12, %rdi
	call	pthread_mutex_unlock@PLT
	leaq	88(%rbp), %rdi
	call	pthread_cond_signal@PLT
	jmp	.L1302
.L1204:
	movq	%rdi, 8(%rax)
	jmp	.L1205
.L1312:
	call	__stack_chk_fail@PLT
	.cfi_endproc
.LFE4350:
	.size	_ZN4asio6detail28reactive_socket_service_base7destroyERNS1_24base_implementation_typeE, .-_ZN4asio6detail28reactive_socket_service_base7destroyERNS1_24base_implementation_typeE
	.text
	.align 2
	.p2align 4,,15
	.globl	_ZN8asiodnp318TCPServerIOHandler6Server16AcceptConnectionEmRKSt10shared_ptrIN7asiopal8ExecutorEEN4asio19basic_stream_socketINS8_2ip3tcpENS8_21stream_socket_serviceISB_EEEE
	.type	_ZN8asiodnp318TCPServerIOHandler6Server16AcceptConnectionEmRKSt10shared_ptrIN7asiopal8ExecutorEEN4asio19basic_stream_socketINS8_2ip3tcpENS8_21stream_socket_serviceISB_EEEE, @function
_ZN8asiodnp318TCPServerIOHandler6Server16AcceptConnectionEmRKSt10shared_ptrIN7asiopal8ExecutorEEN4asio19basic_stream_socketINS8_2ip3tcpENS8_21stream_socket_serviceISB_EEEE:
.LFB7572:
	.cfi_startproc
	.cfi_personality 0x9b,DW.ref.__gxx_personality_v0
	.cfi_lsda 0x1b,.LLSDA7572
	pushq	%r15
	.cfi_def_cfa_offset 16
	.cfi_offset 15, -16
	pushq	%r14
	.cfi_def_cfa_offset 24
	.cfi_offset 14, -24
	movq	%rdx, %rsi
	pushq	%r13
	.cfi_def_cfa_offset 32
	.cfi_offset 13, -32
	pushq	%r12
	.cfi_def_cfa_offset 40
	.cfi_offset 12, -40
	pushq	%rbp
	.cfi_def_cfa_offset 48
	.cfi_offset 6, -48
	pushq	%rbx
	.cfi_def_cfa_offset 56
	.cfi_offset 3, -56
	subq	$104, %rsp
	.cfi_def_cfa_offset 160
	movq	24(%rcx), %rdx
	movq	%fs:40, %rbx
	movq	%rbx, 88(%rsp)
	xorl	%ebx, %ebx
	cmpq	$0, 224(%rdi)
	movq	%rdx, 72(%rsp)
	movl	(%rcx), %edx
	movl	$-1, (%rcx)
	movl	%edx, 48(%rsp)
	movzbl	4(%rcx), %edx
	movb	$0, 4(%rcx)
	movb	%dl, 52(%rsp)
	movq	8(%rcx), %rdx
	movq	$0, 8(%rcx)
	movq	%rdx, 56(%rsp)
	movl	16(%rcx), %edx
	movl	$2, 16(%rcx)
	movl	%edx, 64(%rsp)
	je	.L1446
	leaq	48(%rsp), %rbx
	movq	%rdi, %rax
	leaq	208(%rdi), %rdi
	movq	%rbx, %rdx
.LEHB0:
	call	*232(%rax)
.LEHE0:
	movl	48(%rsp), %ebx
	cmpl	$-1, %ebx
	je	.L1315
	movq	56(%rsp), %rbp
	testq	%rbp, %rbp
	je	.L1367
	movq	72(%rsp), %rax
	movzbl	52(%rsp), %r12d
	movq	40(%rax), %rax
	movq	%rax, 16(%rsp)
	leaq	40(%rbp), %rax
	movq	%rax, %rdi
	movq	%rax, 24(%rsp)
	call	pthread_mutex_lock@PLT
	movq	56(%rsp), %rdx
	cmpb	$0, 144(%rdx)
	jne	.L1319
	andl	$64, %r12d
	jne	.L1447
.L1320:
	movl	$96, %ebp
	xorl	%r13d, %r13d
	movq	$0, 8(%rsp)
	movl	$0, 4(%rsp)
.L1331:
	movq	(%rdx,%rbp), %r14
	testq	%r14, %r14
	je	.L1321
	movslq	4(%rsp), %r11
	movq	_ZGVZN4asio15system_categoryEvE8instance@GOTPCREL(%rip), %r15
	movq	_ZZN4asio15system_categoryEvE8instance@GOTPCREL(%rip), %rbx
	salq	$4, %r11
	movq	%r11, %r12
	jmp	.L1322
	.p2align 4,,10
	.p2align 3
.L1325:
	leaq	(%rdx,%r12), %rsi
	movl	$125, 24(%r14)
	movq	%rbx, 32(%r14)
	movq	96(%rsi), %rax
	testq	%rax, %rax
	je	.L1327
	movq	(%rax), %rdi
	testq	%rdi, %rdi
	movq	%rdi, 96(%rsi)
	je	.L1448
.L1328:
	movq	$0, (%rax)
.L1327:
	testq	%r13, %r13
	movq	$0, (%r14)
	je	.L1329
	movq	(%rdx,%rbp), %rax
	movq	%r14, 0(%r13)
	testq	%rax, %rax
	je	.L1330
.L1323:
	movq	%r14, %r13
	movq	%rax, %r14
.L1322:
	movzbl	(%r15), %eax
	testb	%al, %al
	jne	.L1325
	movq	%r15, %rdi
	call	__cxa_guard_acquire@PLT
	testl	%eax, %eax
	je	.L1438
	movq	%r15, %rdi
	call	__cxa_guard_release@PLT
	movq	_ZN4asio6detail15system_categoryD1Ev@GOTPCREL(%rip), %rdi
	leaq	__dso_handle(%rip), %rdx
	movq	%rbx, %rsi
	call	__cxa_atexit@PLT
.L1438:
	movq	56(%rsp), %rdx
	jmp	.L1325
	.p2align 4,,10
	.p2align 3
.L1319:
	movq	24(%rsp), %rdi
	call	pthread_mutex_unlock@PLT
.L1440:
	movl	48(%rsp), %ebx
	cmpl	$-1, %ebx
	je	.L1315
.L1367:
	movzbl	52(%rsp), %ebp
	call	__errno_location@PLT
	movq	%rax, %r12
	testb	$8, %bpl
	jne	.L1436
	movq	_ZGVZN4asio15system_categoryEvE8instance@GOTPCREL(%rip), %r15
.L1350:
	movl	$0, (%r12)
	movl	%ebx, %edi
	call	close@PLT
	movl	%eax, %ebp
	movzbl	(%r15), %eax
	testb	%al, %al
	je	.L1449
.L1355:
	testl	%ebp, %ebp
	je	.L1315
	movl	(%r12), %ebp
	movzbl	(%r15), %eax
	testb	%al, %al
	je	.L1450
.L1358:
	cmpl	$11, %ebp
	je	.L1360
.L1445:
	movzbl	(%r15), %eax
	testb	%al, %al
	jne	.L1315
	movq	%r15, %rdi
	call	__cxa_guard_acquire@PLT
	testl	%eax, %eax
	je	.L1315
	movq	%r15, %rdi
	call	__cxa_guard_release@PLT
	movq	_ZZN4asio15system_categoryEvE8instance@GOTPCREL(%rip), %rsi
	movq	_ZN4asio6detail15system_categoryD1Ev@GOTPCREL(%rip), %rdi
	leaq	__dso_handle(%rip), %rdx
	call	__cxa_atexit@PLT
	.p2align 4,,10
	.p2align 3
.L1315:
	movq	88(%rsp), %rax
	xorq	%fs:40, %rax
	jne	.L1451
	addq	$104, %rsp
	.cfi_remember_state
	.cfi_def_cfa_offset 56
	popq	%rbx
	.cfi_def_cfa_offset 48
	popq	%rbp
	.cfi_def_cfa_offset 40
	popq	%r12
	.cfi_def_cfa_offset 32
	popq	%r13
	.cfi_def_cfa_offset 24
	popq	%r14
	.cfi_def_cfa_offset 16
	popq	%r15
	.cfi_def_cfa_offset 8
	ret
	.p2align 4,,10
	.p2align 3
.L1329:
	.cfi_restore_state
	movq	(%rdx,%rbp), %rax
	movq	%r14, 8(%rsp)
	testq	%rax, %rax
	jne	.L1323
.L1330:
	movq	%r14, %r13
.L1321:
	addl	$1, 4(%rsp)
	addq	$16, %rbp
	movl	4(%rsp), %eax
	cmpl	$3, %eax
	jne	.L1331
	movq	24(%rsp), %rdi
	movl	$-1, 88(%rdx)
	movb	$1, 144(%rdx)
	call	pthread_mutex_unlock@PLT
	movq	16(%rsp), %r15
	movq	56(%rsp), %rbx
	leaq	120(%r15), %rbp
	movq	%rbp, %rdi
	call	pthread_mutex_lock@PLT
	cmpq	160(%r15), %rbx
	je	.L1452
.L1332:
	movq	32(%rbx), %rdx
	movq	24(%rbx), %rax
	testq	%rdx, %rdx
	je	.L1333
	movq	%rax, 24(%rdx)
	movq	24(%rbx), %rax
.L1333:
	testq	%rax, %rax
	je	.L1334
	movq	32(%rbx), %rdx
	movq	%rdx, 32(%rax)
.L1334:
	movq	16(%rsp), %r15
	movq	%rbp, %rdi
	movq	168(%r15), %rax
	movq	$0, 32(%rbx)
	movq	%rax, 24(%rbx)
	movq	%rbx, 168(%r15)
	call	pthread_mutex_unlock@PLT
	cmpq	$0, 8(%rsp)
	movq	$0, 56(%rsp)
	je	.L1440
	movq	40(%r15), %rbx
	cmpb	$0, 40(%rbx)
	je	.L1336
	.byte	0x66
	leaq	_ZN4asio6detail15keyword_tss_ptrINS0_10call_stackINS0_15task_io_serviceENS0_27task_io_service_thread_infoEE7contextEE6value_E@tlsgd(%rip), %rdi
	.value	0x6666
	rex64
	call	__tls_get_addr@PLT
	movq	(%rax), %rax
	testq	%rax, %rax
	jne	.L1435
	jmp	.L1336
	.p2align 4,,10
	.p2align 3
.L1338:
	movq	16(%rax), %rax
	testq	%rax, %rax
	je	.L1336
.L1435:
	cmpq	(%rax), %rbx
	jne	.L1338
	movq	8(%rax), %rax
	testq	%rax, %rax
	je	.L1336
	movq	16(%rax), %rdx
	movq	8(%rsp), %rsi
	testq	%rdx, %rdx
	je	.L1341
	movq	%rsi, (%rdx)
.L1342:
	movq	%r13, 16(%rax)
	jmp	.L1440
	.p2align 4,,10
	.p2align 3
.L1448:
	movq	$0, 104(%rsi)
	jmp	.L1328
	.p2align 4,,10
	.p2align 3
.L1449:
	movq	%r15, %rdi
	call	__cxa_guard_acquire@PLT
	testl	%eax, %eax
	je	.L1355
	movq	%r15, %rdi
	call	__cxa_guard_release@PLT
	movq	_ZZN4asio15system_categoryEvE8instance@GOTPCREL(%rip), %rsi
	movq	_ZN4asio6detail15system_categoryD1Ev@GOTPCREL(%rip), %rdi
	leaq	__dso_handle(%rip), %rdx
	call	__cxa_atexit@PLT
	jmp	.L1355
	.p2align 4,,10
	.p2align 3
.L1436:
	leaq	36(%rsp), %rcx
	orl	$8, %ebp
	movl	$0, (%rax)
	movl	$8, %r8d
	movl	$13, %edx
	movl	$1, %esi
	movl	%ebx, %edi
	movq	$0, 36(%rsp)
	movb	%bpl, 52(%rsp)
	call	setsockopt@PLT
	movq	_ZGVZN4asio15system_categoryEvE8instance@GOTPCREL(%rip), %r15
	movzbl	(%r15), %eax
	testb	%al, %al
	jne	.L1350
	movq	%r15, %rdi
	call	__cxa_guard_acquire@PLT
	testl	%eax, %eax
	je	.L1350
	movq	%r15, %rdi
	call	__cxa_guard_release@PLT
	movq	_ZZN4asio15system_categoryEvE8instance@GOTPCREL(%rip), %rsi
	movq	_ZN4asio6detail15system_categoryD1Ev@GOTPCREL(%rip), %rdi
	leaq	__dso_handle(%rip), %rdx
	call	__cxa_atexit@PLT
	jmp	.L1350
	.p2align 4,,10
	.p2align 3
.L1336:
	leaq	48(%rbx), %rbp
	movq	%rbp, %rdi
	call	pthread_mutex_lock@PLT
	movq	200(%rbx), %rax
	testq	%rax, %rax
	je	.L1344
	movq	8(%rsp), %rsi
	movq	%rsi, (%rax)
.L1345:
	movq	136(%rbx), %rax
	movq	%r13, 200(%rbx)
	orq	$1, %rax
	cmpq	$1, %rax
	movq	%rax, 136(%rbx)
	jne	.L1453
	cmpb	$0, 176(%rbx)
	jne	.L1348
	movq	144(%rbx), %rax
	testq	%rax, %rax
	je	.L1348
	leaq	88(%rax), %rdx
	movb	$1, 176(%rbx)
	movl	$-2147483639, 36(%rsp)
	leaq	36(%rsp), %rcx
	movl	$3, %esi
	movq	%rdx, 40(%rsp)
	movl	88(%rax), %edx
	movl	96(%rax), %edi
	call	epoll_ctl@PLT
.L1348:
	movq	%rbp, %rdi
	call	pthread_mutex_unlock@PLT
	jmp	.L1440
.L1344:
	movq	8(%rsp), %rax
	movq	%rax, 192(%rbx)
	jmp	.L1345
	.p2align 4,,10
	.p2align 3
.L1447:
	movq	16(%rsp), %rax
	movl	$0, 36(%rsp)
	leaq	36(%rsp), %rcx
	movq	$0, 40(%rsp)
	movl	%ebx, %edx
	movl	$2, %esi
	movl	96(%rax), %edi
	call	epoll_ctl@PLT
	movq	56(%rsp), %rdx
	jmp	.L1320
	.p2align 4,,10
	.p2align 3
.L1452:
	movq	24(%rbx), %rax
	movq	16(%rsp), %rsi
	movq	%rax, 160(%rsi)
	jmp	.L1332
	.p2align 4,,10
	.p2align 3
.L1450:
	movq	%r15, %rdi
	call	__cxa_guard_acquire@PLT
	testl	%eax, %eax
	je	.L1358
	movq	%r15, %rdi
	call	__cxa_guard_release@PLT
	movq	_ZZN4asio15system_categoryEvE8instance@GOTPCREL(%rip), %rsi
	movq	_ZN4asio6detail15system_categoryD1Ev@GOTPCREL(%rip), %rdi
	leaq	__dso_handle(%rip), %rdx
	call	__cxa_atexit@PLT
	jmp	.L1358
	.p2align 4,,10
	.p2align 3
.L1360:
	leaq	36(%rsp), %rdx
	movl	%ebx, %edi
	movl	$21537, %esi
	xorl	%eax, %eax
	movl	$0, 36(%rsp)
	call	ioctl@PLT
	movl	$0, (%r12)
	movl	%ebx, %edi
	andb	$-4, 52(%rsp)
	call	close@PLT
	jmp	.L1445
	.p2align 4,,10
	.p2align 3
.L1453:
	movq	%rbp, %rdi
	call	pthread_mutex_unlock@PLT
	leaq	88(%rbx), %rdi
	call	pthread_cond_signal@PLT
	jmp	.L1440
.L1341:
	movq	%rsi, 8(%rax)
	jmp	.L1342
.L1446:
	leaq	48(%rsp), %rbx
.LEHB1:
	call	_ZSt25__throw_bad_function_callv@PLT
.LEHE1:
.L1370:
	movq	%rax, %rbp
	movq	72(%rsp), %rax
	movq	%rbx, %rsi
	leaq	40(%rax), %rdi
	call	_ZN4asio6detail28reactive_socket_service_base7destroyERNS1_24base_implementation_typeE@PLT
	movq	%rbp, %rdi
.LEHB2:
	call	_Unwind_Resume@PLT
.LEHE2:
.L1451:
	call	__stack_chk_fail@PLT
	.cfi_endproc
.LFE7572:
	.section	.gcc_except_table,"a",@progbits
.LLSDA7572:
	.byte	0xff
	.byte	0xff
	.byte	0x1
	.uleb128 .LLSDACSE7572-.LLSDACSB7572
.LLSDACSB7572:
	.uleb128 .LEHB0-.LFB7572
	.uleb128 .LEHE0-.LEHB0
	.uleb128 .L1370-.LFB7572
	.uleb128 0
	.uleb128 .LEHB1-.LFB7572
	.uleb128 .LEHE1-.LEHB1
	.uleb128 .L1370-.LFB7572
	.uleb128 0
	.uleb128 .LEHB2-.LFB7572
	.uleb128 .LEHE2-.LEHB2
	.uleb128 0
	.uleb128 0
.LLSDACSE7572:
	.text
	.size	_ZN8asiodnp318TCPServerIOHandler6Server16AcceptConnectionEmRKSt10shared_ptrIN7asiopal8ExecutorEEN4asio19basic_stream_socketINS8_2ip3tcpENS8_21stream_socket_serviceISB_EEEE, .-_ZN8asiodnp318TCPServerIOHandler6Server16AcceptConnectionEmRKSt10shared_ptrIN7asiopal8ExecutorEEN4asio19basic_stream_socketINS8_2ip3tcpENS8_21stream_socket_serviceISB_EEEE
	.section	.text._ZNSt16_Sp_counted_baseILN9__gnu_cxx12_Lock_policyE2EE10_M_releaseEv,"axG",@progbits,_ZNSt16_Sp_counted_baseILN9__gnu_cxx12_Lock_policyE2EE10_M_releaseEv,comdat
	.align 2
	.p2align 4,,15
	.weak	_ZNSt16_Sp_counted_baseILN9__gnu_cxx12_Lock_policyE2EE10_M_releaseEv
	.type	_ZNSt16_Sp_counted_baseILN9__gnu_cxx12_Lock_policyE2EE10_M_releaseEv, @function
_ZNSt16_Sp_counted_baseILN9__gnu_cxx12_Lock_policyE2EE10_M_releaseEv:
.LFB8587:
	.cfi_startproc
	cmpq	$0, _ZL28__gthrw___pthread_key_createPjPFvPvE@GOTPCREL(%rip)
	pushq	%rbx
	.cfi_def_cfa_offset 16
	.cfi_offset 3, -16
	movq	%rdi, %rbx
	je	.L1455
	lock subl	$1, 8(%rdi)
	je	.L1462
.L1454:
	popq	%rbx
	.cfi_remember_state
	.cfi_def_cfa_offset 8
	ret
	.p2align 4,,10
	.p2align 3
.L1455:
	.cfi_restore_state
	movl	8(%rdi), %eax
	leal	-1(%rax), %edx
	cmpl	$1, %eax
	movl	%edx, 8(%rdi)
	jne	.L1454
	movq	(%rdi), %rax
	call	*16(%rax)
	movl	12(%rbx), %eax
	leal	-1(%rax), %edx
	movl	%edx, 12(%rbx)
	jmp	.L1460
	.p2align 4,,10
	.p2align 3
.L1462:
	movq	(%rdi), %rax
	call	*16(%rax)
	movl	$-1, %eax
	lock xaddl	%eax, 12(%rbx)
.L1460:
	cmpl	$1, %eax
	jne	.L1454
	movq	(%rbx), %rax
	movq	%rbx, %rdi
	popq	%rbx
	.cfi_def_cfa_offset 8
	movq	24(%rax), %rax
	jmp	*%rax
	.cfi_endproc
.LFE8587:
	.size	_ZNSt16_Sp_counted_baseILN9__gnu_cxx12_Lock_policyE2EE10_M_releaseEv, .-_ZNSt16_Sp_counted_baseILN9__gnu_cxx12_Lock_policyE2EE10_M_releaseEv
	.text
	.p2align 4,,15
	.type	_ZNSt17_Function_handlerIFvRKSt10shared_ptrIN7asiopal8ExecutorEEN4asio19basic_stream_socketINS6_2ip3tcpENS6_21stream_socket_serviceIS9_EEEEEZN8asiodnp318TCPServerIOHandler18BeginChannelAcceptEvEUlS5_SC_E_E9_M_invokeERKSt9_Any_dataS5_OSC_, @function
_ZNSt17_Function_handlerIFvRKSt10shared_ptrIN7asiopal8ExecutorEEN4asio19basic_stream_socketINS6_2ip3tcpENS6_21stream_socket_serviceIS9_EEEEEZN8asiodnp318TCPServerIOHandler18BeginChannelAcceptEvEUlS5_SC_E_E9_M_invokeERKSt9_Any_dataS5_OSC_:
.LFB8976:
	.cfi_startproc
	.cfi_personality 0x9b,DW.ref.__gxx_personality_v0
	.cfi_lsda 0x1b,.LLSDA8976
	pushq	%r15
	.cfi_def_cfa_offset 16
	.cfi_offset 15, -16
	pushq	%r14
	.cfi_def_cfa_offset 24
	.cfi_offset 14, -24
	pushq	%r13
	.cfi_def_cfa_offset 32
	.cfi_offset 13, -32
	pushq	%r12
	.cfi_def_cfa_offset 40
	.cfi_offset 12, -40
	pushq	%rbp
	.cfi_def_cfa_offset 48
	.cfi_offset 6, -48
	pushq	%rbx
	.cfi_def_cfa_offset 56
	.cfi_offset 3, -56
	subq	$216, %rsp
	.cfi_def_cfa_offset 272
	movq	(%rdi), %r10
	movzbl	4(%rdx), %r8d
	movb	$0, 4(%rdx)
	movl	(%rdx), %r9d
	movq	%fs:40, %rax
	movq	%rax, 200(%rsp)
	xorl	%eax, %eax
	movq	16(%r10), %rbx
	movq	24(%rdx), %rax
	movq	8(%rdx), %rdi
	movl	16(%rdx), %ecx
	movl	$-1, (%rdx)
	movq	$0, 8(%rdx)
	movq	%rbx, (%rsp)
	movq	8(%rsi), %rbx
	movq	%rax, 120(%rsp)
	movl	$2, 16(%rdx)
	movq	%rax, 152(%rsp)
	movl	%r9d, 128(%rsp)
	testq	%rbx, %rbx
	movl	$-1, 96(%rsp)
	movb	%r8b, 132(%rsp)
	movb	$0, 100(%rsp)
	movq	%rdi, 136(%rsp)
	movq	$0, 104(%rsp)
	movl	%ecx, 144(%rsp)
	movl	$2, 112(%rsp)
	movq	(%rsi), %r12
	je	.L1464
	cmpq	$0, _ZL28__gthrw___pthread_key_createPjPFvPvE@GOTPCREL(%rip)
	jne	.L1891
	addl	$1, 8(%rbx)
.L1464:
	movl	$112, %edi
.LEHB3:
	call	_Znwm@PLT
.LEHE3:
	movq	%rax, %rbp
	movabsq	$4294967297, %rax
	movq	%r12, 80(%rsp)
	movq	%rax, 8(%rbp)
	leaq	16(%rbp), %rdi
	movq	_ZTVSt23_Sp_counted_ptr_inplaceIN7asiopal13SocketChannelESaIS1_ELN9__gnu_cxx12_Lock_policyE2EE@GOTPCREL(%rip), %rax
	movq	%rbx, 88(%rsp)
	addq	$16, %rax
	testq	%rbx, %rbx
	movq	%rax, 0(%rbp)
	je	.L1466
	cmpq	$0, _ZL28__gthrw___pthread_key_createPjPFvPvE@GOTPCREL(%rip)
	jne	.L1892
	addl	$1, 8(%rbx)
.L1466:
	movq	152(%rsp), %rax
	leaq	160(%rsp), %r15
	leaq	80(%rsp), %rsi
	movq	%r15, %rdx
	movq	%rax, 184(%rsp)
	movl	128(%rsp), %eax
	movl	$-1, 128(%rsp)
	movl	%eax, 160(%rsp)
	movzbl	132(%rsp), %eax
	movb	$0, 132(%rsp)
	movb	%al, 164(%rsp)
	movq	136(%rsp), %rax
	movq	$0, 136(%rsp)
	movq	%rax, 168(%rsp)
	movl	144(%rsp), %eax
	movl	$2, 144(%rsp)
	movl	%eax, 176(%rsp)
.LEHB4:
	call	_ZN7asiopal13SocketChannelC1ESt10shared_ptrINS_8ExecutorEEN4asio19basic_stream_socketINS4_2ip3tcpENS4_21stream_socket_serviceIS7_EEEE@PLT
.LEHE4:
	movl	160(%rsp), %r13d
	cmpl	$-1, %r13d
	je	.L1468
	movq	168(%rsp), %rax
	testq	%rax, %rax
	je	.L1649
	movq	184(%rsp), %rdx
	addq	$40, %rax
	movzbl	164(%rsp), %r12d
	movq	%rax, 32(%rsp)
	movq	40(%rdx), %rdi
	movq	%rdi, 24(%rsp)
	movq	%rax, %rdi
	call	pthread_mutex_lock@PLT
	movq	168(%rsp), %rdx
	cmpb	$0, 144(%rdx)
	jne	.L1470
	andl	$64, %r12d
	jne	.L1893
.L1471:
	movl	$96, %r10d
	xorl	%r13d, %r13d
	movq	%rbx, 40(%rsp)
	movq	%rbp, 48(%rsp)
	movq	$0, 16(%rsp)
	movq	%r13, %rbx
	movl	$0, 8(%rsp)
	movq	%r10, %rbp
	movq	%r15, 56(%rsp)
.L1481:
	movq	(%rdx,%rbp), %r15
	testq	%r15, %r15
	je	.L1653
	movslq	8(%rsp), %r11
	movq	_ZGVZN4asio15system_categoryEvE8instance@GOTPCREL(%rip), %r13
	movq	_ZZN4asio15system_categoryEvE8instance@GOTPCREL(%rip), %r12
	salq	$4, %r11
	movq	%r11, %r14
	jmp	.L1473
	.p2align 4,,10
	.p2align 3
.L1475:
	leaq	(%rdx,%r14), %rcx
	movl	$125, 24(%r15)
	movq	%r12, 32(%r15)
	movq	96(%rcx), %rax
	testq	%rax, %rax
	je	.L1477
	movq	(%rax), %rsi
	testq	%rsi, %rsi
	movq	%rsi, 96(%rcx)
	je	.L1894
.L1478:
	movq	$0, (%rax)
.L1477:
	testq	%rbx, %rbx
	movq	$0, (%r15)
	je	.L1479
	movq	(%rdx,%rbp), %rax
	movq	%r15, (%rbx)
	testq	%rax, %rax
	je	.L1472
.L1480:
	movq	%r15, %rbx
	movq	%rax, %r15
.L1473:
	movzbl	0(%r13), %eax
	testb	%al, %al
	jne	.L1475
	movq	%r13, %rdi
	call	__cxa_guard_acquire@PLT
	testl	%eax, %eax
	je	.L1868
	movq	%r13, %rdi
	call	__cxa_guard_release@PLT
	movq	_ZN4asio6detail15system_categoryD1Ev@GOTPCREL(%rip), %rdi
	leaq	__dso_handle(%rip), %rdx
	movq	%r12, %rsi
	call	__cxa_atexit@PLT
.L1868:
	movq	168(%rsp), %rdx
	jmp	.L1475
	.p2align 4,,10
	.p2align 3
.L1470:
	movq	32(%rsp), %rdi
	call	pthread_mutex_unlock@PLT
.L1869:
	movl	160(%rsp), %r13d
	cmpl	$-1, %r13d
	je	.L1468
.L1649:
	movzbl	164(%rsp), %r12d
	call	__errno_location@PLT
	movq	%rax, %r14
	testb	$8, %r12b
	jne	.L1856
	movq	_ZGVZN4asio15system_categoryEvE8instance@GOTPCREL(%rip), %r12
.L1500:
	movl	$0, (%r14)
	movl	%r13d, %edi
	call	close@PLT
	movl	%eax, %ecx
	movzbl	(%r12), %eax
	testb	%al, %al
	je	.L1895
.L1505:
	testl	%ecx, %ecx
	je	.L1468
	movl	(%r14), %ecx
	movzbl	(%r12), %eax
	testb	%al, %al
	je	.L1896
.L1508:
	cmpl	$11, %ecx
	je	.L1510
.L1886:
	movzbl	(%r12), %eax
	testb	%al, %al
	jne	.L1468
	movq	%r12, %rdi
	call	__cxa_guard_acquire@PLT
	testl	%eax, %eax
	je	.L1468
	movq	%r12, %rdi
	call	__cxa_guard_release@PLT
	movq	_ZZN4asio15system_categoryEvE8instance@GOTPCREL(%rip), %rsi
	movq	_ZN4asio6detail15system_categoryD1Ev@GOTPCREL(%rip), %rdi
	leaq	__dso_handle(%rip), %rdx
	call	__cxa_atexit@PLT
	.p2align 4,,10
	.p2align 3
.L1468:
	movq	88(%rsp), %r12
	testq	%r12, %r12
	je	.L1520
	cmpq	$0, _ZL28__gthrw___pthread_key_createPjPFvPvE@GOTPCREL(%rip)
	je	.L1517
	lock subl	$1, 8(%r12)
	je	.L1897
.L1520:
	movq	0(%rbp), %rax
	movq	_ZTISt19_Sp_make_shared_tag@GOTPCREL(%rip), %rsi
	movq	%rbp, %rdi
	call	*32(%rax)
	testq	%rax, %rax
	je	.L1525
	movq	16(%rax), %rdi
	testq	%rdi, %rdi
	je	.L1524
	movl	8(%rdi), %edx
	testl	%edx, %edx
	jne	.L1525
.L1524:
	cmpq	$0, _ZL28__gthrw___pthread_key_createPjPFvPvE@GOTPCREL(%rip)
	movq	%rax, 8(%rax)
	je	.L1898
	lock addl	$1, 12(%rbp)
	movq	16(%rax), %rdi
	testq	%rdi, %rdi
	je	.L1527
	movl	$-1, %edx
	lock xaddl	%edx, 12(%rdi)
.L1646:
	cmpl	$1, %edx
	jne	.L1527
	movq	(%rdi), %rdx
	movq	%rax, 8(%rsp)
	call	*24(%rdx)
	movq	8(%rsp), %rax
.L1527:
	movq	%rbp, 16(%rax)
.L1525:
	movq	%rax, 8(%rsp)
	movq	(%rsp), %rdi
	movq	%r15, %rsi
	movq	8(%rsp), %xmm0
	movq	%rbp, 8(%rsp)
	movhps	8(%rsp), %xmm0
	movaps	%xmm0, 160(%rsp)
.LEHB5:
	call	_ZN8asiodnp39IOHandler12OnNewChannelERKSt10shared_ptrIN7asiopal13IAsyncChannelEE@PLT
.LEHE5:
	movq	168(%rsp), %rbp
	testq	%rbp, %rbp
	je	.L1531
	cmpq	$0, _ZL28__gthrw___pthread_key_createPjPFvPvE@GOTPCREL(%rip)
	je	.L1532
	lock subl	$1, 8(%rbp)
	je	.L1899
.L1531:
	testq	%rbx, %rbx
	je	.L1537
	cmpq	$0, _ZL28__gthrw___pthread_key_createPjPFvPvE@GOTPCREL(%rip)
	je	.L1538
	lock subl	$1, 8(%rbx)
	je	.L1900
.L1537:
	movl	128(%rsp), %ebx
	cmpl	$-1, %ebx
	je	.L1542
	movq	136(%rsp), %rbp
	testq	%rbp, %rbp
	je	.L1650
	movq	152(%rsp), %rax
	movzbl	132(%rsp), %r12d
	movq	40(%rax), %rax
	movq	%rax, 16(%rsp)
	leaq	40(%rbp), %rax
	movq	%rax, %rdi
	movq	%rax, 24(%rsp)
	call	pthread_mutex_lock@PLT
	movq	136(%rsp), %rdx
	cmpb	$0, 144(%rdx)
	jne	.L1544
	andl	$64, %r12d
	jne	.L1901
.L1545:
	movl	$96, %r14d
	xorl	%ebp, %ebp
	movq	%r15, 32(%rsp)
	movq	$0, 8(%rsp)
	movq	%r14, %r15
	movl	$0, (%rsp)
	movq	%rbp, %r14
.L1555:
	movq	(%rdx,%r15), %r13
	testq	%r13, %r13
	je	.L1656
	movslq	(%rsp), %r10
	movq	_ZGVZN4asio15system_categoryEvE8instance@GOTPCREL(%rip), %r12
	movq	_ZZN4asio15system_categoryEvE8instance@GOTPCREL(%rip), %rbx
	salq	$4, %r10
	movq	%r10, %rbp
	jmp	.L1547
	.p2align 4,,10
	.p2align 3
.L1549:
	leaq	(%rdx,%rbp), %rcx
	movl	$125, 24(%r13)
	movq	%rbx, 32(%r13)
	movq	96(%rcx), %rax
	testq	%rax, %rax
	je	.L1551
	movq	(%rax), %rsi
	testq	%rsi, %rsi
	movq	%rsi, 96(%rcx)
	je	.L1902
.L1552:
	movq	$0, (%rax)
.L1551:
	testq	%r14, %r14
	movq	$0, 0(%r13)
	je	.L1553
	movq	(%rdx,%r15), %rax
	movq	%r13, (%r14)
	testq	%rax, %rax
	je	.L1546
.L1554:
	movq	%r13, %r14
	movq	%rax, %r13
.L1547:
	movzbl	(%r12), %eax
	testb	%al, %al
	jne	.L1549
	movq	%r12, %rdi
	call	__cxa_guard_acquire@PLT
	testl	%eax, %eax
	je	.L1871
	movq	%r12, %rdi
	call	__cxa_guard_release@PLT
	movq	_ZN4asio6detail15system_categoryD1Ev@GOTPCREL(%rip), %rdi
	leaq	__dso_handle(%rip), %rdx
	movq	%rbx, %rsi
	call	__cxa_atexit@PLT
.L1871:
	movq	136(%rsp), %rdx
	jmp	.L1549
	.p2align 4,,10
	.p2align 3
.L1544:
	movq	24(%rsp), %rdi
	call	pthread_mutex_unlock@PLT
.L1873:
	movl	128(%rsp), %ebx
	cmpl	$-1, %ebx
	je	.L1542
.L1650:
	movzbl	132(%rsp), %ebp
	call	__errno_location@PLT
	movq	%rax, %r13
	testb	$8, %bpl
	jne	.L1859
	movq	_ZGVZN4asio15system_categoryEvE8instance@GOTPCREL(%rip), %r12
.L1574:
	movl	$0, 0(%r13)
	movl	%ebx, %edi
	call	close@PLT
	movl	%eax, %ebp
	movzbl	(%r12), %eax
	testb	%al, %al
	je	.L1903
.L1579:
	testl	%ebp, %ebp
	je	.L1542
	movl	0(%r13), %ebp
	movzbl	(%r12), %eax
	testb	%al, %al
	je	.L1904
.L1582:
	cmpl	$11, %ebp
	je	.L1584
.L1888:
	movzbl	(%r12), %eax
	testb	%al, %al
	jne	.L1542
	movq	%r12, %rdi
	call	__cxa_guard_acquire@PLT
	testl	%eax, %eax
	je	.L1542
	movq	%r12, %rdi
	call	__cxa_guard_release@PLT
	movq	_ZZN4asio15system_categoryEvE8instance@GOTPCREL(%rip), %rsi
	movq	_ZN4asio6detail15system_categoryD1Ev@GOTPCREL(%rip), %rdi
	leaq	__dso_handle(%rip), %rdx
	call	__cxa_atexit@PLT
	.p2align 4,,10
	.p2align 3
.L1542:
	movl	96(%rsp), %ebx
	cmpl	$-1, %ebx
	je	.L1463
	movq	104(%rsp), %rbp
	testq	%rbp, %rbp
	je	.L1651
	movq	120(%rsp), %rax
	movzbl	100(%rsp), %r12d
	movq	40(%rax), %rax
	movq	%rax, 16(%rsp)
	leaq	40(%rbp), %rax
	movq	%rax, %rdi
	movq	%rax, 24(%rsp)
	call	pthread_mutex_lock@PLT
	movq	104(%rsp), %rdx
	cmpb	$0, 144(%rdx)
	jne	.L1596
	andl	$64, %r12d
	jne	.L1905
.L1597:
	movl	$96, %r14d
	xorl	%ebp, %ebp
	movq	%r15, 32(%rsp)
	movq	$0, 8(%rsp)
	movq	%r14, %r15
	movl	$0, (%rsp)
	movq	%rbp, %r14
.L1607:
	movq	(%rdx,%r15), %r13
	testq	%r13, %r13
	je	.L1659
	movslq	(%rsp), %r10
	movq	_ZGVZN4asio15system_categoryEvE8instance@GOTPCREL(%rip), %r12
	movq	_ZZN4asio15system_categoryEvE8instance@GOTPCREL(%rip), %rbx
	salq	$4, %r10
	movq	%r10, %rbp
	jmp	.L1599
	.p2align 4,,10
	.p2align 3
.L1601:
	leaq	(%rdx,%rbp), %rcx
	movl	$125, 24(%r13)
	movq	%rbx, 32(%r13)
	movq	96(%rcx), %rax
	testq	%rax, %rax
	je	.L1603
	movq	(%rax), %rsi
	testq	%rsi, %rsi
	movq	%rsi, 96(%rcx)
	je	.L1906
.L1604:
	movq	$0, (%rax)
.L1603:
	testq	%r14, %r14
	movq	$0, 0(%r13)
	je	.L1605
	movq	(%rdx,%r15), %rax
	movq	%r13, (%r14)
	testq	%rax, %rax
	je	.L1598
.L1606:
	movq	%r13, %r14
	movq	%rax, %r13
.L1599:
	movzbl	(%r12), %eax
	testb	%al, %al
	jne	.L1601
	movq	%r12, %rdi
	call	__cxa_guard_acquire@PLT
	testl	%eax, %eax
	je	.L1875
	movq	%r12, %rdi
	call	__cxa_guard_release@PLT
	movq	_ZN4asio6detail15system_categoryD1Ev@GOTPCREL(%rip), %rdi
	leaq	__dso_handle(%rip), %rdx
	movq	%rbx, %rsi
	call	__cxa_atexit@PLT
.L1875:
	movq	104(%rsp), %rdx
	jmp	.L1601
	.p2align 4,,10
	.p2align 3
.L1596:
	movq	24(%rsp), %rdi
	call	pthread_mutex_unlock@PLT
.L1877:
	movl	96(%rsp), %ebx
	cmpl	$-1, %ebx
	je	.L1463
.L1651:
	movzbl	100(%rsp), %ebp
	call	__errno_location@PLT
	movq	%rax, %r13
	testb	$8, %bpl
	jne	.L1862
	movq	_ZGVZN4asio15system_categoryEvE8instance@GOTPCREL(%rip), %r12
.L1626:
	movl	$0, 0(%r13)
	movl	%ebx, %edi
	call	close@PLT
	movl	%eax, %ebp
	movzbl	(%r12), %eax
	testb	%al, %al
	je	.L1907
.L1631:
	testl	%ebp, %ebp
	je	.L1463
	movl	0(%r13), %ebp
	movzbl	(%r12), %eax
	testb	%al, %al
	je	.L1908
.L1634:
	cmpl	$11, %ebp
	je	.L1636
.L1890:
	movzbl	(%r12), %eax
	testb	%al, %al
	jne	.L1463
	movq	%r12, %rdi
	call	__cxa_guard_acquire@PLT
	testl	%eax, %eax
	je	.L1463
	movq	%r12, %rdi
	call	__cxa_guard_release@PLT
	movq	_ZZN4asio15system_categoryEvE8instance@GOTPCREL(%rip), %rsi
	movq	_ZN4asio6detail15system_categoryD1Ev@GOTPCREL(%rip), %rdi
	leaq	__dso_handle(%rip), %rdx
	call	__cxa_atexit@PLT
	.p2align 4,,10
	.p2align 3
.L1463:
	movq	200(%rsp), %rax
	xorq	%fs:40, %rax
	jne	.L1909
	addq	$216, %rsp
	.cfi_remember_state
	.cfi_def_cfa_offset 56
	popq	%rbx
	.cfi_def_cfa_offset 48
	popq	%rbp
	.cfi_def_cfa_offset 40
	popq	%r12
	.cfi_def_cfa_offset 32
	popq	%r13
	.cfi_def_cfa_offset 24
	popq	%r14
	.cfi_def_cfa_offset 16
	popq	%r15
	.cfi_def_cfa_offset 8
	ret
	.p2align 4,,10
	.p2align 3
.L1892:
	.cfi_restore_state
	lock addl	$1, 8(%rbx)
	jmp	.L1466
	.p2align 4,,10
	.p2align 3
.L1891:
	lock addl	$1, 8(%rbx)
	jmp	.L1464
	.p2align 4,,10
	.p2align 3
.L1538:
	movl	8(%rbx), %eax
	leal	-1(%rax), %edx
	cmpl	$1, %eax
	movl	%edx, 8(%rbx)
	jne	.L1537
	movq	(%rbx), %rax
	movq	%rbx, %rdi
	call	*16(%rax)
	movl	12(%rbx), %eax
	leal	-1(%rax), %edx
	movl	%edx, 12(%rbx)
	jmp	.L1648
	.p2align 4,,10
	.p2align 3
.L1517:
	movl	8(%r12), %eax
	leal	-1(%rax), %edx
	cmpl	$1, %eax
	movl	%edx, 8(%r12)
	jne	.L1520
	movq	(%r12), %rax
	movq	%r12, %rdi
	call	*16(%rax)
	movl	12(%r12), %eax
	leal	-1(%rax), %edx
	movl	%edx, 12(%r12)
	jmp	.L1645
	.p2align 4,,10
	.p2align 3
.L1532:
	movl	8(%rbp), %eax
	leal	-1(%rax), %edx
	cmpl	$1, %eax
	movl	%edx, 8(%rbp)
	jne	.L1531
	movq	0(%rbp), %rax
	movq	%rbp, %rdi
	call	*16(%rax)
	movl	12(%rbp), %eax
	leal	-1(%rax), %edx
	movl	%edx, 12(%rbp)
	jmp	.L1647
	.p2align 4,,10
	.p2align 3
.L1900:
	movq	(%rbx), %rax
	movq	%rbx, %rdi
	call	*16(%rax)
	movl	$-1, %eax
	lock xaddl	%eax, 12(%rbx)
.L1648:
	cmpl	$1, %eax
	jne	.L1537
	movq	(%rbx), %rax
	movq	%rbx, %rdi
	call	*24(%rax)
	jmp	.L1537
	.p2align 4,,10
	.p2align 3
.L1897:
	movq	(%r12), %rax
	movq	%r12, %rdi
	call	*16(%rax)
	movl	$-1, %eax
	lock xaddl	%eax, 12(%r12)
.L1645:
	cmpl	$1, %eax
	jne	.L1520
	movq	(%r12), %rax
	movq	%r12, %rdi
	call	*24(%rax)
	jmp	.L1520
	.p2align 4,,10
	.p2align 3
.L1899:
	movq	0(%rbp), %rax
	movq	%rbp, %rdi
	call	*16(%rax)
	movl	$-1, %eax
	lock xaddl	%eax, 12(%rbp)
.L1647:
	cmpl	$1, %eax
	jne	.L1531
	movq	0(%rbp), %rax
	movq	%rbp, %rdi
	call	*24(%rax)
	jmp	.L1531
	.p2align 4,,10
	.p2align 3
.L1605:
	movq	(%rdx,%r15), %rax
	movq	%r13, 8(%rsp)
	testq	%rax, %rax
	jne	.L1606
.L1598:
	addl	$1, (%rsp)
	addq	$16, %r15
	movl	(%rsp), %eax
	cmpl	$3, %eax
	je	.L1910
	movq	%r13, %r14
	jmp	.L1607
	.p2align 4,,10
	.p2align 3
.L1553:
	movq	(%rdx,%r15), %rax
	movq	%r13, 8(%rsp)
	testq	%rax, %rax
	jne	.L1554
.L1546:
	addl	$1, (%rsp)
	addq	$16, %r15
	movl	(%rsp), %eax
	cmpl	$3, %eax
	je	.L1911
	movq	%r13, %r14
	jmp	.L1555
	.p2align 4,,10
	.p2align 3
.L1479:
	movq	(%rdx,%rbp), %rax
	movq	%r15, 16(%rsp)
	testq	%rax, %rax
	jne	.L1480
.L1472:
	addl	$1, 8(%rsp)
	addq	$16, %rbp
	movl	8(%rsp), %eax
	cmpl	$3, %eax
	je	.L1912
	movq	%r15, %rbx
	jmp	.L1481
	.p2align 4,,10
	.p2align 3
.L1906:
	movq	$0, 104(%rcx)
	jmp	.L1604
	.p2align 4,,10
	.p2align 3
.L1902:
	movq	$0, 104(%rcx)
	jmp	.L1552
	.p2align 4,,10
	.p2align 3
.L1894:
	movq	$0, 104(%rcx)
	jmp	.L1478
	.p2align 4,,10
	.p2align 3
.L1910:
	movq	24(%rsp), %rdi
	movl	$-1, 88(%rdx)
	movb	$1, 144(%rdx)
	movq	32(%rsp), %r15
	call	pthread_mutex_unlock@PLT
	movq	16(%rsp), %r14
	movq	104(%rsp), %rbx
	leaq	120(%r14), %rbp
	movq	%rbp, %rdi
	call	pthread_mutex_lock@PLT
	cmpq	160(%r14), %rbx
	je	.L1913
.L1608:
	movq	32(%rbx), %rdx
	movq	24(%rbx), %rax
	testq	%rdx, %rdx
	je	.L1609
	movq	%rax, 24(%rdx)
	movq	24(%rbx), %rax
.L1609:
	testq	%rax, %rax
	je	.L1610
	movq	32(%rbx), %rdx
	movq	%rdx, 32(%rax)
.L1610:
	movq	16(%rsp), %r14
	movq	%rbp, %rdi
	movq	168(%r14), %rax
	movq	$0, 32(%rbx)
	movq	%rax, 24(%rbx)
	movq	%rbx, 168(%r14)
	call	pthread_mutex_unlock@PLT
	cmpq	$0, 8(%rsp)
	movq	$0, 104(%rsp)
	je	.L1877
	movq	40(%r14), %rbx
	cmpb	$0, 40(%rbx)
	je	.L1612
	.byte	0x66
	leaq	_ZN4asio6detail15keyword_tss_ptrINS0_10call_stackINS0_15task_io_serviceENS0_27task_io_service_thread_infoEE7contextEE6value_E@tlsgd(%rip), %rdi
	.value	0x6666
	rex64
	call	__tls_get_addr@PLT
	movq	(%rax), %rax
	testq	%rax, %rax
	jne	.L1861
	jmp	.L1612
	.p2align 4,,10
	.p2align 3
.L1614:
	movq	16(%rax), %rax
	testq	%rax, %rax
	je	.L1612
.L1861:
	cmpq	(%rax), %rbx
	jne	.L1614
	movq	8(%rax), %rax
	testq	%rax, %rax
	je	.L1612
	movq	16(%rax), %rdx
	movq	8(%rsp), %rsi
	testq	%rdx, %rdx
	je	.L1617
	movq	%rsi, (%rdx)
.L1618:
	movq	%r13, 16(%rax)
	jmp	.L1877
	.p2align 4,,10
	.p2align 3
.L1912:
	movq	32(%rsp), %rdi
	movl	$-1, 88(%rdx)
	movq	%r15, %r14
	movb	$1, 144(%rdx)
	movq	40(%rsp), %rbx
	movq	48(%rsp), %rbp
	movq	56(%rsp), %r15
	call	pthread_mutex_unlock@PLT
	movq	24(%rsp), %rax
	movq	168(%rsp), %r12
	leaq	120(%rax), %r13
	movq	%r13, %rdi
	call	pthread_mutex_lock@PLT
	movq	24(%rsp), %rax
	cmpq	160(%rax), %r12
	je	.L1914
.L1482:
	movq	32(%r12), %rdx
	movq	24(%r12), %rax
	testq	%rdx, %rdx
	je	.L1483
	movq	%rax, 24(%rdx)
	movq	24(%r12), %rax
.L1483:
	testq	%rax, %rax
	je	.L1484
	movq	32(%r12), %rdx
	movq	%rdx, 32(%rax)
.L1484:
	movq	24(%rsp), %rcx
	movq	%r13, %rdi
	movq	168(%rcx), %rax
	movq	$0, 32(%r12)
	movq	%rax, 24(%r12)
	movq	%r12, 168(%rcx)
	call	pthread_mutex_unlock@PLT
	cmpq	$0, 16(%rsp)
	movq	$0, 168(%rsp)
	je	.L1869
	movq	24(%rsp), %rcx
	movq	40(%rcx), %r12
	cmpb	$0, 40(%r12)
	je	.L1486
	.byte	0x66
	leaq	_ZN4asio6detail15keyword_tss_ptrINS0_10call_stackINS0_15task_io_serviceENS0_27task_io_service_thread_infoEE7contextEE6value_E@tlsgd(%rip), %rdi
	.value	0x6666
	rex64
	call	__tls_get_addr@PLT
	movq	(%rax), %rax
	testq	%rax, %rax
	je	.L1486
	cmpq	%r12, (%rax)
	jne	.L1488
	jmp	.L1487
	.p2align 4,,10
	.p2align 3
.L1855:
	cmpq	(%rax), %r12
	je	.L1487
.L1488:
	movq	16(%rax), %rax
	testq	%rax, %rax
	jne	.L1855
.L1486:
	leaq	48(%r12), %r13
	movq	%r13, %rdi
	call	pthread_mutex_lock@PLT
	movq	200(%r12), %rax
	testq	%rax, %rax
	je	.L1494
	movq	16(%rsp), %rdi
	movq	%rdi, (%rax)
.L1495:
	movq	136(%r12), %rax
	movq	%r14, 200(%r12)
	orq	$1, %rax
	cmpq	$1, %rax
	movq	%rax, 136(%r12)
	jne	.L1915
	cmpb	$0, 176(%r12)
	jne	.L1498
	movq	144(%r12), %rax
	testq	%rax, %rax
	je	.L1498
	leaq	88(%rax), %rdx
	movb	$1, 176(%r12)
	movl	$-2147483639, 68(%rsp)
	leaq	68(%rsp), %rcx
	movl	$3, %esi
	movq	%rdx, 72(%rsp)
	movl	88(%rax), %edx
	movl	96(%rax), %edi
	call	epoll_ctl@PLT
.L1498:
	movq	%r13, %rdi
	call	pthread_mutex_unlock@PLT
	jmp	.L1869
	.p2align 4,,10
	.p2align 3
.L1911:
	movq	24(%rsp), %rdi
	movl	$-1, 88(%rdx)
	movb	$1, 144(%rdx)
	movq	32(%rsp), %r15
	call	pthread_mutex_unlock@PLT
	movq	16(%rsp), %r14
	movq	136(%rsp), %rbx
	leaq	120(%r14), %rbp
	movq	%rbp, %rdi
	call	pthread_mutex_lock@PLT
	cmpq	160(%r14), %rbx
	je	.L1916
.L1556:
	movq	32(%rbx), %rdx
	movq	24(%rbx), %rax
	testq	%rdx, %rdx
	je	.L1557
	movq	%rax, 24(%rdx)
	movq	24(%rbx), %rax
.L1557:
	testq	%rax, %rax
	je	.L1558
	movq	32(%rbx), %rdx
	movq	%rdx, 32(%rax)
.L1558:
	movq	16(%rsp), %r14
	movq	%rbp, %rdi
	movq	168(%r14), %rax
	movq	$0, 32(%rbx)
	movq	%rax, 24(%rbx)
	movq	%rbx, 168(%r14)
	call	pthread_mutex_unlock@PLT
	cmpq	$0, 8(%rsp)
	movq	$0, 136(%rsp)
	je	.L1873
	movq	40(%r14), %rbx
	cmpb	$0, 40(%rbx)
	je	.L1560
	.byte	0x66
	leaq	_ZN4asio6detail15keyword_tss_ptrINS0_10call_stackINS0_15task_io_serviceENS0_27task_io_service_thread_infoEE7contextEE6value_E@tlsgd(%rip), %rdi
	.value	0x6666
	rex64
	call	__tls_get_addr@PLT
	movq	(%rax), %rax
	testq	%rax, %rax
	jne	.L1858
	jmp	.L1560
	.p2align 4,,10
	.p2align 3
.L1562:
	movq	16(%rax), %rax
	testq	%rax, %rax
	je	.L1560
.L1858:
	cmpq	(%rax), %rbx
	jne	.L1562
	movq	8(%rax), %rax
	testq	%rax, %rax
	je	.L1560
	movq	16(%rax), %rdx
	movq	8(%rsp), %rdi
	testq	%rdx, %rdx
	je	.L1565
	movq	%rdi, (%rdx)
.L1566:
	movq	%r13, 16(%rax)
	jmp	.L1873
	.p2align 4,,10
	.p2align 3
.L1907:
	movq	%r12, %rdi
	call	__cxa_guard_acquire@PLT
	testl	%eax, %eax
	je	.L1631
	movq	%r12, %rdi
	call	__cxa_guard_release@PLT
	movq	_ZZN4asio15system_categoryEvE8instance@GOTPCREL(%rip), %rsi
	movq	_ZN4asio6detail15system_categoryD1Ev@GOTPCREL(%rip), %rdi
	leaq	__dso_handle(%rip), %rdx
	call	__cxa_atexit@PLT
	jmp	.L1631
	.p2align 4,,10
	.p2align 3
.L1895:
	movq	%r12, %rdi
	movl	%ecx, 8(%rsp)
	call	__cxa_guard_acquire@PLT
	testl	%eax, %eax
	movl	8(%rsp), %ecx
	je	.L1505
	movq	%r12, %rdi
	call	__cxa_guard_release@PLT
	movq	_ZZN4asio15system_categoryEvE8instance@GOTPCREL(%rip), %rsi
	movq	_ZN4asio6detail15system_categoryD1Ev@GOTPCREL(%rip), %rdi
	leaq	__dso_handle(%rip), %rdx
	call	__cxa_atexit@PLT
	movl	8(%rsp), %ecx
	jmp	.L1505
	.p2align 4,,10
	.p2align 3
.L1903:
	movq	%r12, %rdi
	call	__cxa_guard_acquire@PLT
	testl	%eax, %eax
	je	.L1579
	movq	%r12, %rdi
	call	__cxa_guard_release@PLT
	movq	_ZZN4asio15system_categoryEvE8instance@GOTPCREL(%rip), %rsi
	movq	_ZN4asio6detail15system_categoryD1Ev@GOTPCREL(%rip), %rdi
	leaq	__dso_handle(%rip), %rdx
	call	__cxa_atexit@PLT
	jmp	.L1579
	.p2align 4,,10
	.p2align 3
.L1898:
	addl	$1, 12(%rbp)
	testq	%rdi, %rdi
	je	.L1527
	movl	12(%rdi), %edx
	leal	-1(%rdx), %ecx
	movl	%ecx, 12(%rdi)
	jmp	.L1646
	.p2align 4,,10
	.p2align 3
.L1859:
	orl	$8, %ebp
	movl	$0, (%rax)
	movl	$8, %r8d
	movq	%r15, %rcx
	movl	$13, %edx
	movl	$1, %esi
	movl	%ebx, %edi
	movq	$0, 160(%rsp)
	movb	%bpl, 132(%rsp)
	call	setsockopt@PLT
	movq	_ZGVZN4asio15system_categoryEvE8instance@GOTPCREL(%rip), %r12
	movzbl	(%r12), %eax
	testb	%al, %al
	jne	.L1574
	movq	%r12, %rdi
	call	__cxa_guard_acquire@PLT
	testl	%eax, %eax
	je	.L1574
	movq	%r12, %rdi
	call	__cxa_guard_release@PLT
	movq	_ZZN4asio15system_categoryEvE8instance@GOTPCREL(%rip), %rsi
	movq	_ZN4asio6detail15system_categoryD1Ev@GOTPCREL(%rip), %rdi
	leaq	__dso_handle(%rip), %rdx
	call	__cxa_atexit@PLT
	jmp	.L1574
	.p2align 4,,10
	.p2align 3
.L1862:
	orl	$8, %ebp
	movl	$0, (%rax)
	movl	$8, %r8d
	movq	%r15, %rcx
	movl	$13, %edx
	movl	$1, %esi
	movl	%ebx, %edi
	movq	$0, 160(%rsp)
	movb	%bpl, 100(%rsp)
	call	setsockopt@PLT
	movq	_ZGVZN4asio15system_categoryEvE8instance@GOTPCREL(%rip), %r12
	movzbl	(%r12), %eax
	testb	%al, %al
	jne	.L1626
	movq	%r12, %rdi
	call	__cxa_guard_acquire@PLT
	testl	%eax, %eax
	je	.L1626
	movq	%r12, %rdi
	call	__cxa_guard_release@PLT
	movq	_ZZN4asio15system_categoryEvE8instance@GOTPCREL(%rip), %rsi
	movq	_ZN4asio6detail15system_categoryD1Ev@GOTPCREL(%rip), %rdi
	leaq	__dso_handle(%rip), %rdx
	call	__cxa_atexit@PLT
	jmp	.L1626
	.p2align 4,,10
	.p2align 3
.L1856:
	leaq	68(%rsp), %rcx
	orl	$8, %r12d
	movl	$0, (%rax)
	movl	$8, %r8d
	movl	$13, %edx
	movl	$1, %esi
	movl	%r13d, %edi
	movb	%r12b, 164(%rsp)
	movq	$0, 68(%rsp)
	call	setsockopt@PLT
	movq	_ZGVZN4asio15system_categoryEvE8instance@GOTPCREL(%rip), %r12
	movzbl	(%r12), %eax
	testb	%al, %al
	jne	.L1500
	movq	%r12, %rdi
	call	__cxa_guard_acquire@PLT
	testl	%eax, %eax
	je	.L1500
	movq	%r12, %rdi
	call	__cxa_guard_release@PLT
	movq	_ZZN4asio15system_categoryEvE8instance@GOTPCREL(%rip), %rsi
	movq	_ZN4asio6detail15system_categoryD1Ev@GOTPCREL(%rip), %rdi
	leaq	__dso_handle(%rip), %rdx
	call	__cxa_atexit@PLT
	jmp	.L1500
	.p2align 4,,10
	.p2align 3
.L1653:
	movq	%rbx, %r15
	jmp	.L1472
	.p2align 4,,10
	.p2align 3
.L1659:
	movq	%r14, %r13
	jmp	.L1598
	.p2align 4,,10
	.p2align 3
.L1656:
	movq	%r14, %r13
	jmp	.L1546
	.p2align 4,,10
	.p2align 3
.L1612:
	leaq	48(%rbx), %rbp
	movq	%rbp, %rdi
	call	pthread_mutex_lock@PLT
	movq	200(%rbx), %rax
	testq	%rax, %rax
	je	.L1620
	movq	8(%rsp), %rdi
	movq	%rdi, (%rax)
.L1621:
	movq	136(%rbx), %rax
	movq	%r13, 200(%rbx)
	orq	$1, %rax
	cmpq	$1, %rax
	movq	%rax, 136(%rbx)
	jne	.L1917
	cmpb	$0, 176(%rbx)
	jne	.L1624
	movq	144(%rbx), %rax
	testq	%rax, %rax
	je	.L1624
	leaq	88(%rax), %rdx
	movb	$1, 176(%rbx)
	movl	$-2147483639, 160(%rsp)
	movq	%r15, %rcx
	movl	$3, %esi
	movq	%rdx, 164(%rsp)
	movl	88(%rax), %edx
	movl	96(%rax), %edi
	call	epoll_ctl@PLT
.L1624:
	movq	%rbp, %rdi
	call	pthread_mutex_unlock@PLT
	jmp	.L1877
	.p2align 4,,10
	.p2align 3
.L1560:
	leaq	48(%rbx), %rbp
	movq	%rbp, %rdi
	call	pthread_mutex_lock@PLT
	movq	200(%rbx), %rax
	testq	%rax, %rax
	je	.L1568
	movq	8(%rsp), %rsi
	movq	%rsi, (%rax)
.L1569:
	movq	136(%rbx), %rax
	movq	%r13, 200(%rbx)
	orq	$1, %rax
	cmpq	$1, %rax
	movq	%rax, 136(%rbx)
	jne	.L1918
	cmpb	$0, 176(%rbx)
	jne	.L1572
	movq	144(%rbx), %rax
	testq	%rax, %rax
	je	.L1572
	leaq	88(%rax), %rdx
	movb	$1, 176(%rbx)
	movl	$-2147483639, 160(%rsp)
	movq	%r15, %rcx
	movl	$3, %esi
	movq	%rdx, 164(%rsp)
	movl	88(%rax), %edx
	movl	96(%rax), %edi
	call	epoll_ctl@PLT
.L1572:
	movq	%rbp, %rdi
	call	pthread_mutex_unlock@PLT
	jmp	.L1873
.L1494:
	movq	16(%rsp), %rax
	movq	%rax, 192(%r12)
	jmp	.L1495
.L1620:
	movq	8(%rsp), %rax
	movq	%rax, 192(%rbx)
	jmp	.L1621
.L1568:
	movq	8(%rsp), %rax
	movq	%rax, 192(%rbx)
	jmp	.L1569
	.p2align 4,,10
	.p2align 3
.L1905:
	movq	16(%rsp), %rax
	movl	$0, 160(%rsp)
	movl	%ebx, %edx
	movq	$0, 164(%rsp)
	movq	%r15, %rcx
	movl	$2, %esi
	movl	96(%rax), %edi
	call	epoll_ctl@PLT
	movq	104(%rsp), %rdx
	jmp	.L1597
	.p2align 4,,10
	.p2align 3
.L1901:
	movq	16(%rsp), %rax
	movl	$0, 160(%rsp)
	movl	%ebx, %edx
	movq	$0, 164(%rsp)
	movq	%r15, %rcx
	movl	$2, %esi
	movl	96(%rax), %edi
	call	epoll_ctl@PLT
	movq	136(%rsp), %rdx
	jmp	.L1545
	.p2align 4,,10
	.p2align 3
.L1893:
	movq	24(%rsp), %rax
	movl	$0, 68(%rsp)
	leaq	68(%rsp), %rcx
	movq	$0, 72(%rsp)
	movl	%r13d, %edx
	movl	$2, %esi
	movl	96(%rax), %edi
	call	epoll_ctl@PLT
	movq	168(%rsp), %rdx
	jmp	.L1471
	.p2align 4,,10
	.p2align 3
.L1914:
	movq	%rax, %rdi
	movq	24(%r12), %rax
	movq	%rax, 160(%rdi)
	jmp	.L1482
	.p2align 4,,10
	.p2align 3
.L1913:
	movq	24(%rbx), %rax
	movq	16(%rsp), %rdi
	movq	%rax, 160(%rdi)
	jmp	.L1608
	.p2align 4,,10
	.p2align 3
.L1916:
	movq	24(%rbx), %rax
	movq	16(%rsp), %rdi
	movq	%rax, 160(%rdi)
	jmp	.L1556
	.p2align 4,,10
	.p2align 3
.L1904:
	movq	%r12, %rdi
	call	__cxa_guard_acquire@PLT
	testl	%eax, %eax
	je	.L1582
	movq	%r12, %rdi
	call	__cxa_guard_release@PLT
	movq	_ZZN4asio15system_categoryEvE8instance@GOTPCREL(%rip), %rsi
	movq	_ZN4asio6detail15system_categoryD1Ev@GOTPCREL(%rip), %rdi
	leaq	__dso_handle(%rip), %rdx
	call	__cxa_atexit@PLT
	jmp	.L1582
	.p2align 4,,10
	.p2align 3
.L1908:
	movq	%r12, %rdi
	call	__cxa_guard_acquire@PLT
	testl	%eax, %eax
	je	.L1634
	movq	%r12, %rdi
	call	__cxa_guard_release@PLT
	movq	_ZZN4asio15system_categoryEvE8instance@GOTPCREL(%rip), %rsi
	movq	_ZN4asio6detail15system_categoryD1Ev@GOTPCREL(%rip), %rdi
	leaq	__dso_handle(%rip), %rdx
	call	__cxa_atexit@PLT
	jmp	.L1634
	.p2align 4,,10
	.p2align 3
.L1896:
	movq	%r12, %rdi
	movl	%ecx, 8(%rsp)
	call	__cxa_guard_acquire@PLT
	testl	%eax, %eax
	movl	8(%rsp), %ecx
	je	.L1508
	movq	%r12, %rdi
	call	__cxa_guard_release@PLT
	movq	_ZZN4asio15system_categoryEvE8instance@GOTPCREL(%rip), %rsi
	movq	_ZN4asio6detail15system_categoryD1Ev@GOTPCREL(%rip), %rdi
	leaq	__dso_handle(%rip), %rdx
	call	__cxa_atexit@PLT
	movl	8(%rsp), %ecx
	jmp	.L1508
	.p2align 4,,10
	.p2align 3
.L1487:
	movq	8(%rax), %rax
	testq	%rax, %rax
	je	.L1486
	movq	16(%rax), %rdx
	testq	%rdx, %rdx
	je	.L1491
	movq	16(%rsp), %rdi
	movq	%rdi, (%rdx)
.L1492:
	movq	%r14, 16(%rax)
	jmp	.L1869
	.p2align 4,,10
	.p2align 3
.L1584:
	movl	%ebx, %edi
	movq	%r15, %rdx
	movl	$21537, %esi
	xorl	%eax, %eax
	movl	$0, 160(%rsp)
	call	ioctl@PLT
	movl	$0, 0(%r13)
	movl	%ebx, %edi
	andb	$-4, 132(%rsp)
	call	close@PLT
	jmp	.L1888
	.p2align 4,,10
	.p2align 3
.L1636:
	movl	%ebx, %edi
	movq	%r15, %rdx
	movl	$21537, %esi
	xorl	%eax, %eax
	movl	$0, 160(%rsp)
	call	ioctl@PLT
	movl	$0, 0(%r13)
	movl	%ebx, %edi
	andb	$-4, 100(%rsp)
	call	close@PLT
	jmp	.L1890
	.p2align 4,,10
	.p2align 3
.L1510:
	leaq	68(%rsp), %rdx
	movl	%r13d, %edi
	movl	$21537, %esi
	xorl	%eax, %eax
	movl	$0, 68(%rsp)
	call	ioctl@PLT
	movl	$0, (%r14)
	movl	%r13d, %edi
	andb	$-4, 164(%rsp)
	call	close@PLT
	jmp	.L1886
	.p2align 4,,10
	.p2align 3
.L1915:
	movq	%r13, %rdi
	call	pthread_mutex_unlock@PLT
	leaq	88(%r12), %rdi
	call	pthread_cond_signal@PLT
	jmp	.L1869
	.p2align 4,,10
	.p2align 3
.L1918:
	movq	%rbp, %rdi
	call	pthread_mutex_unlock@PLT
	leaq	88(%rbx), %rdi
	call	pthread_cond_signal@PLT
	jmp	.L1873
	.p2align 4,,10
	.p2align 3
.L1917:
	movq	%rbp, %rdi
	call	pthread_mutex_unlock@PLT
	leaq	88(%rbx), %rdi
	call	pthread_cond_signal@PLT
	jmp	.L1877
.L1617:
	movq	%rsi, 8(%rax)
	jmp	.L1618
.L1565:
	movq	%rdi, 8(%rax)
	jmp	.L1566
.L1491:
	movq	16(%rsp), %rsi
	movq	%rsi, 8(%rax)
	jmp	.L1492
.L1909:
	call	__stack_chk_fail@PLT
.L1664:
	movq	%rax, %r12
	movq	184(%rsp), %rax
	movq	%r15, %rsi
	leaq	40(%rax), %rdi
	call	_ZN4asio6detail28reactive_socket_service_base7destroyERNS1_24base_implementation_typeE@PLT
	movq	88(%rsp), %rdi
	testq	%rdi, %rdi
	je	.L1522
	call	_ZNSt16_Sp_counted_baseILN9__gnu_cxx12_Lock_policyE2EE10_M_releaseEv@PLT
.L1522:
	movq	%rbp, %rdi
	movq	%r12, %rbp
	call	_ZdlPv@PLT
.L1523:
	testq	%rbx, %rbx
	je	.L1594
	movq	%rbx, %rdi
	call	_ZNSt16_Sp_counted_baseILN9__gnu_cxx12_Lock_policyE2EE10_M_releaseEv@PLT
.L1594:
	movq	152(%rsp), %rax
	leaq	128(%rsp), %rsi
	leaq	40(%rax), %rdi
	call	_ZN4asio6detail28reactive_socket_service_base7destroyERNS1_24base_implementation_typeE@PLT
	movq	120(%rsp), %rax
	leaq	96(%rsp), %rsi
	leaq	40(%rax), %rdi
	call	_ZN4asio6detail28reactive_socket_service_base7destroyERNS1_24base_implementation_typeE@PLT
	movq	%rbp, %rdi
.LEHB6:
	call	_Unwind_Resume@PLT
.LEHE6:
.L1662:
	movq	%rax, %rbp
	jmp	.L1523
.L1663:
	movq	168(%rsp), %rdi
	movq	%rax, %rbp
	testq	%rdi, %rdi
	je	.L1523
	call	_ZNSt16_Sp_counted_baseILN9__gnu_cxx12_Lock_policyE2EE10_M_releaseEv@PLT
	jmp	.L1523
	.cfi_endproc
.LFE8976:
	.section	.gcc_except_table
.LLSDA8976:
	.byte	0xff
	.byte	0xff
	.byte	0x1
	.uleb128 .LLSDACSE8976-.LLSDACSB8976
.LLSDACSB8976:
	.uleb128 .LEHB3-.LFB8976
	.uleb128 .LEHE3-.LEHB3
	.uleb128 .L1662-.LFB8976
	.uleb128 0
	.uleb128 .LEHB4-.LFB8976
	.uleb128 .LEHE4-.LEHB4
	.uleb128 .L1664-.LFB8976
	.uleb128 0
	.uleb128 .LEHB5-.LFB8976
	.uleb128 .LEHE5-.LEHB5
	.uleb128 .L1663-.LFB8976
	.uleb128 0
	.uleb128 .LEHB6-.LFB8976
	.uleb128 .LEHE6-.LEHB6
	.uleb128 0
	.uleb128 0
.LLSDACSE8976:
	.text
	.size	_ZNSt17_Function_handlerIFvRKSt10shared_ptrIN7asiopal8ExecutorEEN4asio19basic_stream_socketINS6_2ip3tcpENS6_21stream_socket_serviceIS9_EEEEEZN8asiodnp318TCPServerIOHandler18BeginChannelAcceptEvEUlS5_SC_E_E9_M_invokeERKSt9_Any_dataS5_OSC_, .-_ZNSt17_Function_handlerIFvRKSt10shared_ptrIN7asiopal8ExecutorEEN4asio19basic_stream_socketINS6_2ip3tcpENS6_21stream_socket_serviceIS9_EEEEEZN8asiodnp318TCPServerIOHandler18BeginChannelAcceptEvEUlS5_SC_E_E9_M_invokeERKSt9_Any_dataS5_OSC_
	.section	.rodata.str1.8,"aMS",@progbits,1
	.align 8
.LC23:
	.string	"/home/raihan/OpenPLC_v3/utils/dnp3_src/cpp/libs/src/asiodnp3/TCPServerIOHandler.cpp(81)"
	.text
	.align 2
	.p2align 4,,15
	.globl	_ZN8asiodnp318TCPServerIOHandler18BeginChannelAcceptEv
	.type	_ZN8asiodnp318TCPServerIOHandler18BeginChannelAcceptEv, @function
_ZN8asiodnp318TCPServerIOHandler18BeginChannelAcceptEv:
.LFB7586:
	.cfi_startproc
	.cfi_personality 0x9b,DW.ref.__gxx_personality_v0
	.cfi_lsda 0x1b,.LLSDA7586
	pushq	%r15
	.cfi_def_cfa_offset 16
	.cfi_offset 15, -16
	pushq	%r14
	.cfi_def_cfa_offset 24
	.cfi_offset 14, -24
	pushq	%r13
	.cfi_def_cfa_offset 32
	.cfi_offset 13, -32
	pushq	%r12
	.cfi_def_cfa_offset 40
	.cfi_offset 12, -40
	pushq	%rbp
	.cfi_def_cfa_offset 48
	.cfi_offset 6, -48
	pushq	%rbx
	.cfi_def_cfa_offset 56
	.cfi_offset 3, -56
	subq	$136, %rsp
	.cfi_def_cfa_offset 192
	movq	24(%rdi), %rbp
	movq	%fs:40, %rax
	movq	%rax, 120(%rsp)
	xorl	%eax, %eax
	testq	%rbp, %rbp
	je	.L1920
	movl	8(%rbp), %eax
	leaq	8(%rbp), %r13
	testl	%eax, %eax
	je	.L1920
	leal	1(%rax), %edx
	movq	%rdi, %r12
	lock cmpxchgl	%edx, 0(%r13)
	jne	.L1923
.L1922:
	movq	856(%r12), %rbx
	movq	16(%r12), %r15
	testq	%rbx, %rbx
	je	.L1925
	movq	_ZL28__gthrw___pthread_key_createPjPFvPvE@GOTPCREL(%rip), %r14
	testq	%r14, %r14
	jne	.L2044
	addl	$1, 8(%rbp)
.L1927:
	movl	$24, %edi
	movq	$0, 96(%rsp)
.LEHB7:
	call	_Znwm@PLT
.LEHE7:
	leaq	_ZNSt14_Function_base13_Base_managerIZN8asiodnp318TCPServerIOHandler18BeginChannelAcceptEvEUlRKSt10shared_ptrIN7asiopal8ExecutorEEN4asio19basic_stream_socketINS9_2ip3tcpENS9_21stream_socket_serviceISC_EEEEE_E10_M_managerERSt9_Any_dataRKSI_St18_Manager_operation(%rip), %rsi
	movq	%r15, (%rax)
	leaq	48(%rsp), %r15
	movq	%r12, 16(%rax)
	leaq	80(%rsp), %r12
	movl	$2, %edx
	movq	%rbp, 8(%rax)
	movq	%rax, 80(%rsp)
	leaq	_ZNSt17_Function_handlerIFvRKSt10shared_ptrIN7asiopal8ExecutorEEN4asio19basic_stream_socketINS6_2ip3tcpENS6_21stream_socket_serviceIS9_EEEEEZN8asiodnp318TCPServerIOHandler18BeginChannelAcceptEvEUlS5_SC_E_E9_M_invokeERKSt9_Any_dataS5_OSC_(%rip), %rax
	movq	%rsi, 8(%rsp)
	movq	%r15, %rdi
	movq	%r12, %rsi
	movq	8(%rsp), %xmm0
	movq	%rax, 8(%rsp)
	movhps	8(%rsp), %xmm0
	movq	$0, 64(%rsp)
	movaps	%xmm0, 96(%rsp)
.LEHB8:
	call	_ZNSt14_Function_base13_Base_managerIZN8asiodnp318TCPServerIOHandler18BeginChannelAcceptEvEUlRKSt10shared_ptrIN7asiopal8ExecutorEEN4asio19basic_stream_socketINS9_2ip3tcpENS9_21stream_socket_serviceISC_EEEEE_E10_M_managerERSt9_Any_dataRKSI_St18_Manager_operation
.LEHE8:
	movdqu	208(%rbx), %xmm1
	movq	96(%rsp), %rcx
	movq	104(%rsp), %rdx
	movdqa	48(%rsp), %xmm0
	movaps	%xmm1, 48(%rsp)
	movq	224(%rbx), %rax
	movups	%xmm0, 208(%rbx)
	testq	%rax, %rax
	movq	%rax, 64(%rsp)
	movq	%rcx, 224(%rbx)
	movq	232(%rbx), %rcx
	movq	%rcx, 72(%rsp)
	movq	%rdx, 232(%rbx)
	je	.L1933
	movl	$3, %edx
	movq	%r15, %rsi
	movq	%r15, %rdi
	call	*%rax
.L1933:
	movq	%rbx, %rdi
.LEHB9:
	call	_ZN7asiopal9TCPServer11StartAcceptEv@PLT
.LEHE9:
	movq	96(%rsp), %rax
	testq	%rax, %rax
	je	.L1938
	movl	$3, %edx
	movq	%r12, %rsi
	movq	%r12, %rdi
	call	*%rax
.L1938:
	testq	%r14, %r14
	je	.L1969
.L2050:
	lock subl	$1, 0(%r13)
	je	.L2045
.L1919:
	movq	120(%rsp), %rax
	xorq	%fs:40, %rax
	jne	.L2046
	addq	$136, %rsp
	.cfi_remember_state
	.cfi_def_cfa_offset 56
	popq	%rbx
	.cfi_def_cfa_offset 48
	popq	%rbp
	.cfi_def_cfa_offset 40
	popq	%r12
	.cfi_def_cfa_offset 32
	popq	%r13
	.cfi_def_cfa_offset 24
	popq	%r14
	.cfi_def_cfa_offset 16
	popq	%r15
	.cfi_def_cfa_offset 8
	ret
	.p2align 4,,10
	.p2align 3
.L2044:
	.cfi_restore_state
	lock addl	$1, 0(%r13)
	jmp	.L1927
	.p2align 4,,10
	.p2align 3
.L1925:
	movl	$0, 32(%rsp)
	leaq	32(%r12), %rbx
	call	_ZNSt3_V215system_categoryEv@PLT
	leaq	800(%r12), %rsi
	movl	$256, %edi
	movq	%rax, 40(%rsp)
	movq	%rsi, 8(%rsp)
.LEHB10:
	call	_Znwm@PLT
.LEHE10:
	movabsq	$4294967297, %rdi
	movq	%rax, %r14
	leaq	32(%rsp), %r8
	movq	%rdi, 8(%rax)
	movq	_ZTVSt23_Sp_counted_ptr_inplaceIN8asiodnp318TCPServerIOHandler6ServerESaIS2_ELN9__gnu_cxx12_Lock_policyE2EE@GOTPCREL(%rip), %rax
	leaq	16(%r14), %rdi
	leaq	816(%r12), %rcx
	leaq	800(%r12), %rdx
	movq	%rbx, %rsi
	addq	$16, %rax
	movq	%rax, (%r14)
.LEHB11:
	call	_ZN7asiopal9TCPServerC2ERKN7openpal6LoggerERKSt10shared_ptrINS_8ExecutorEERKNS_10IPEndpointERSt10error_code@PLT
.LEHE11:
	movq	_ZTVN8asiodnp318TCPServerIOHandler6ServerE@GOTPCREL(%rip), %rax
	movq	$0, 240(%r14)
	movq	%r14, %rdi
	movq	_ZTISt19_Sp_make_shared_tag@GOTPCREL(%rip), %rsi
	addq	$16, %rax
	movq	%rax, 16(%r14)
	movq	(%r14), %rax
	call	*32(%rax)
	testq	%rax, %rax
	je	.L1940
	movq	16(%rax), %rdi
	testq	%rdi, %rdi
	je	.L1943
	movl	8(%rdi), %edx
	testl	%edx, %edx
	jne	.L1940
.L1943:
	cmpq	$0, _ZL28__gthrw___pthread_key_createPjPFvPvE@GOTPCREL(%rip)
	movq	%rax, 8(%rax)
	je	.L2047
	lock addl	$1, 12(%r14)
	movq	16(%rax), %rdi
	testq	%rdi, %rdi
	je	.L1945
	movl	$-1, %edx
	lock xaddl	%edx, 12(%rdi)
.L1980:
	cmpl	$1, %edx
	jne	.L1945
	movq	(%rdi), %rdx
	movq	%rax, 8(%rsp)
	call	*24(%rdx)
	movq	8(%rsp), %rax
.L1945:
	movq	%r14, 16(%rax)
.L1940:
	movq	%rax, 856(%r12)
	movq	864(%r12), %rax
	movq	%r14, 864(%r12)
	testq	%rax, %rax
	je	.L1949
	cmpq	$0, _ZL28__gthrw___pthread_key_createPjPFvPvE@GOTPCREL(%rip)
	je	.L1950
	lock subl	$1, 8(%rax)
	je	.L2048
.L1949:
	movl	32(%rsp), %eax
	testl	%eax, %eax
	jne	.L2049
	movq	_ZL28__gthrw___pthread_key_createPjPFvPvE@GOTPCREL(%rip), %r14
	movq	856(%r12), %rbx
	testq	%r14, %r14
	je	.L1957
	lock addl	$1, 0(%r13)
.L1958:
	movl	$24, %edi
	movq	$0, 64(%rsp)
.LEHB12:
	call	_Znwm@PLT
.LEHE12:
	leaq	_ZNSt14_Function_base13_Base_managerIZN8asiodnp318TCPServerIOHandler18BeginChannelAcceptEvEUlRKSt10shared_ptrIN7asiopal8ExecutorEEN4asio19basic_stream_socketINS9_2ip3tcpENS9_21stream_socket_serviceISC_EEEEE_E10_M_managerERSt9_Any_dataRKSI_St18_Manager_operation(%rip), %rcx
	movq	%r15, (%rax)
	movq	%r12, 16(%rax)
	movq	%rbp, 8(%rax)
	movq	%rax, 48(%rsp)
	leaq	_ZNSt17_Function_handlerIFvRKSt10shared_ptrIN7asiopal8ExecutorEEN4asio19basic_stream_socketINS6_2ip3tcpENS6_21stream_socket_serviceIS9_EEEEEZN8asiodnp318TCPServerIOHandler18BeginChannelAcceptEvEUlS5_SC_E_E9_M_invokeERKSt9_Any_dataS5_OSC_(%rip), %rax
	movq	%rcx, 8(%rsp)
	leaq	48(%rsp), %r15
	leaq	80(%rsp), %r12
	movq	8(%rsp), %xmm0
	movq	%rax, 8(%rsp)
	movhps	8(%rsp), %xmm0
	movl	$2, %edx
	movq	%r15, %rsi
	movq	%r12, %rdi
	movq	$0, 96(%rsp)
	movaps	%xmm0, 64(%rsp)
.LEHB13:
	call	_ZNSt14_Function_base13_Base_managerIZN8asiodnp318TCPServerIOHandler18BeginChannelAcceptEvEUlRKSt10shared_ptrIN7asiopal8ExecutorEEN4asio19basic_stream_socketINS9_2ip3tcpENS9_21stream_socket_serviceISC_EEEEE_E10_M_managerERSt9_Any_dataRKSI_St18_Manager_operation
.LEHE13:
	movdqu	208(%rbx), %xmm1
	movq	64(%rsp), %rcx
	movq	72(%rsp), %rdx
	movdqa	80(%rsp), %xmm0
	movaps	%xmm1, 80(%rsp)
	movq	224(%rbx), %rax
	movups	%xmm0, 208(%rbx)
	testq	%rax, %rax
	movq	%rax, 96(%rsp)
	movq	%rcx, 224(%rbx)
	movq	232(%rbx), %rcx
	movq	%rcx, 104(%rsp)
	movq	%rdx, 232(%rbx)
	je	.L1964
	movl	$3, %edx
	movq	%r12, %rsi
	movq	%r12, %rdi
	call	*%rax
.L1964:
	movq	%rbx, %rdi
.LEHB14:
	call	_ZN7asiopal9TCPServer11StartAcceptEv@PLT
.LEHE14:
	movq	64(%rsp), %rax
	testq	%rax, %rax
	je	.L1938
	movl	$3, %edx
	movq	%r15, %rsi
	movq	%r15, %rdi
	call	*%rax
	testq	%r14, %r14
	jne	.L2050
	.p2align 4,,10
	.p2align 3
.L1969:
	movl	8(%rbp), %eax
	leal	-1(%rax), %edx
	cmpl	$1, %eax
	movl	%edx, 8(%rbp)
	jne	.L1919
	movq	0(%rbp), %rax
	movq	%rbp, %rdi
	call	*16(%rax)
	movl	12(%rbp), %eax
	leal	-1(%rax), %edx
	movl	%edx, 12(%rbp)
.L1982:
	cmpl	$1, %eax
	jne	.L1919
	movq	0(%rbp), %rax
	movq	%rbp, %rdi
	call	*24(%rax)
	jmp	.L1919
	.p2align 4,,10
	.p2align 3
.L2049:
	leaq	28(%rsp), %r14
	movq	%rbx, %rdi
	movl	$4, 28(%rsp)
	movq	%r14, %rsi
.LEHB15:
	call	_ZNK7openpal6Logger9IsEnabledERKNS_10LogFiltersE@PLT
	testb	%al, %al
	jne	.L2037
.L2043:
	movq	_ZL28__gthrw___pthread_key_createPjPFvPvE@GOTPCREL(%rip), %r14
	jmp	.L1938
	.p2align 4,,10
	.p2align 3
.L2045:
	movq	0(%rbp), %rax
	movq	%rbp, %rdi
	call	*16(%rax)
	movl	$-1, %eax
	lock xaddl	%eax, 12(%rbp)
	jmp	.L1982
	.p2align 4,,10
	.p2align 3
.L1950:
	movl	8(%rax), %edx
	leal	-1(%rdx), %ecx
	cmpl	$1, %edx
	movl	%ecx, 8(%rax)
	jne	.L1949
	movq	(%rax), %rdx
	movq	%rax, %rdi
	movq	%rax, 8(%rsp)
	call	*16(%rdx)
	movq	8(%rsp), %rax
	movl	12(%rax), %edx
	leal	-1(%rdx), %ecx
	movl	%ecx, 12(%rax)
	jmp	.L1981
	.p2align 4,,10
	.p2align 3
.L2037:
	movq	40(%rsp), %rsi
	leaq	80(%rsp), %r12
	movl	32(%rsp), %edx
	movq	%r12, %rdi
	movq	(%rsi), %rax
	call	*32(%rax)
.LEHE15:
	movq	80(%rsp), %rcx
	leaq	.LC23(%rip), %rdx
	movq	%r14, %rsi
	movq	%rbx, %rdi
	movl	$4, 28(%rsp)
.LEHB16:
	call	_ZN7openpal6Logger3LogERKNS_10LogFiltersEPKcS5_@PLT
.LEHE16:
	movq	80(%rsp), %rdi
	addq	$16, %r12
	cmpq	%r12, %rdi
	je	.L2043
	call	_ZdlPv@PLT
	jmp	.L2043
	.p2align 4,,10
	.p2align 3
.L1957:
	addl	$1, 8(%rbp)
	jmp	.L1958
	.p2align 4,,10
	.p2align 3
.L2048:
	movq	(%rax), %rdx
	movq	%rax, %rdi
	movq	%rax, 8(%rsp)
	call	*16(%rdx)
	movq	8(%rsp), %rax
	movl	$-1, %edx
	lock xaddl	%edx, 12(%rax)
.L1981:
	cmpl	$1, %edx
	jne	.L1949
	movq	(%rax), %rdx
	movq	%rax, %rdi
	call	*24(%rdx)
	jmp	.L1949
	.p2align 4,,10
	.p2align 3
.L2047:
	addl	$1, 12(%r14)
	testq	%rdi, %rdi
	je	.L1945
	movl	12(%rdi), %edx
	leal	-1(%rdx), %ecx
	movl	%ecx, 12(%rdi)
	jmp	.L1980
.L1920:
.LEHB17:
	call	_ZSt20__throw_bad_weak_ptrv@PLT
.LEHE17:
.L2046:
	call	__stack_chk_fail@PLT
.L1923:
	testl	%eax, %eax
	je	.L1920
	leal	1(%rax), %edx
	lock cmpxchgl	%edx, 0(%r13)
	je	.L1922
	jmp	.L1923
.L1988:
	movq	%rax, %rbx
	movq	96(%rsp), %rax
	testq	%rax, %rax
	je	.L1961
	leaq	80(%rsp), %rdi
	movl	$3, %edx
	movq	%rdi, %rsi
	call	*%rax
.L1961:
	movq	%rbp, %rdi
	call	_ZNSt16_Sp_counted_baseILN9__gnu_cxx12_Lock_policyE2EE10_M_releaseEv@PLT
.L1942:
	movq	%rbp, %rdi
	call	_ZNSt16_Sp_counted_baseILN9__gnu_cxx12_Lock_policyE2EE10_M_releaseEv@PLT
	movq	%rbx, %rdi
.LEHB18:
	call	_Unwind_Resume@PLT
.LEHE18:
.L1986:
	movq	80(%rsp), %rdi
	addq	$16, %r12
	movq	%rax, %rbx
	cmpq	%r12, %rdi
	je	.L1942
	call	_ZdlPv@PLT
	jmp	.L1942
.L1991:
	movq	%rax, %rbx
	movq	64(%rsp), %rax
	testq	%rax, %rax
	je	.L1961
	leaq	48(%rsp), %rdi
	movl	$3, %edx
	movq	%rdi, %rsi
	call	*%rax
	jmp	.L1961
.L1987:
	movq	%rax, %rbx
.L1967:
	movq	64(%rsp), %rax
	testq	%rax, %rax
	je	.L1942
	movl	$3, %edx
	movq	%r15, %rsi
	movq	%r15, %rdi
	call	*%rax
	jmp	.L1942
.L1992:
	movq	%rax, %rbx
	movq	96(%rsp), %rax
	testq	%rax, %rax
	je	.L1967
	movl	$3, %edx
	movq	%r12, %rsi
	movq	%r12, %rdi
	call	*%rax
	jmp	.L1967
.L1989:
	movq	%rax, %rbx
	movq	64(%rsp), %rax
	testq	%rax, %rax
	je	.L1936
	movl	$3, %edx
	movq	%r15, %rsi
	movq	%r15, %rdi
	call	*%rax
.L1936:
	movq	96(%rsp), %rax
	testq	%rax, %rax
	je	.L1942
	movl	$3, %edx
	movq	%r12, %rsi
	movq	%r12, %rdi
	call	*%rax
	jmp	.L1942
.L1984:
	movq	%rax, %rbx
	jmp	.L1936
.L1985:
	movq	%rax, %rbx
	jmp	.L1942
.L1990:
	movq	%r14, %rdi
	movq	%rax, %rbx
	call	_ZdlPv@PLT
	jmp	.L1942
	.cfi_endproc
.LFE7586:
	.section	.gcc_except_table
.LLSDA7586:
	.byte	0xff
	.byte	0xff
	.byte	0x1
	.uleb128 .LLSDACSE7586-.LLSDACSB7586
.LLSDACSB7586:
	.uleb128 .LEHB7-.LFB7586
	.uleb128 .LEHE7-.LEHB7
	.uleb128 .L1988-.LFB7586
	.uleb128 0
	.uleb128 .LEHB8-.LFB7586
	.uleb128 .LEHE8-.LEHB8
	.uleb128 .L1989-.LFB7586
	.uleb128 0
	.uleb128 .LEHB9-.LFB7586
	.uleb128 .LEHE9-.LEHB9
	.uleb128 .L1984-.LFB7586
	.uleb128 0
	.uleb128 .LEHB10-.LFB7586
	.uleb128 .LEHE10-.LEHB10
	.uleb128 .L1985-.LFB7586
	.uleb128 0
	.uleb128 .LEHB11-.LFB7586
	.uleb128 .LEHE11-.LEHB11
	.uleb128 .L1990-.LFB7586
	.uleb128 0
	.uleb128 .LEHB12-.LFB7586
	.uleb128 .LEHE12-.LEHB12
	.uleb128 .L1991-.LFB7586
	.uleb128 0
	.uleb128 .LEHB13-.LFB7586
	.uleb128 .LEHE13-.LEHB13
	.uleb128 .L1992-.LFB7586
	.uleb128 0
	.uleb128 .LEHB14-.LFB7586
	.uleb128 .LEHE14-.LEHB14
	.uleb128 .L1987-.LFB7586
	.uleb128 0
	.uleb128 .LEHB15-.LFB7586
	.uleb128 .LEHE15-.LEHB15
	.uleb128 .L1985-.LFB7586
	.uleb128 0
	.uleb128 .LEHB16-.LFB7586
	.uleb128 .LEHE16-.LEHB16
	.uleb128 .L1986-.LFB7586
	.uleb128 0
	.uleb128 .LEHB17-.LFB7586
	.uleb128 .LEHE17-.LEHB17
	.uleb128 0
	.uleb128 0
	.uleb128 .LEHB18-.LFB7586
	.uleb128 .LEHE18-.LEHB18
	.uleb128 0
	.uleb128 0
.LLSDACSE7586:
	.text
	.size	_ZN8asiodnp318TCPServerIOHandler18BeginChannelAcceptEv, .-_ZN8asiodnp318TCPServerIOHandler18BeginChannelAcceptEv
	.section	.text._ZNSt8_Rb_treeIPN8opendnp317IScheduleCallbackES2_St9_IdentityIS2_ESt4lessIS2_ESaIS2_EE8_M_eraseEPSt13_Rb_tree_nodeIS2_E,"axG",@progbits,_ZNSt8_Rb_treeIPN8opendnp317IScheduleCallbackES2_St9_IdentityIS2_ESt4lessIS2_ESaIS2_EE8_M_eraseEPSt13_Rb_tree_nodeIS2_E,comdat
	.align 2
	.p2align 4,,15
	.weak	_ZNSt8_Rb_treeIPN8opendnp317IScheduleCallbackES2_St9_IdentityIS2_ESt4lessIS2_ESaIS2_EE8_M_eraseEPSt13_Rb_tree_nodeIS2_E
	.type	_ZNSt8_Rb_treeIPN8opendnp317IScheduleCallbackES2_St9_IdentityIS2_ESt4lessIS2_ESaIS2_EE8_M_eraseEPSt13_Rb_tree_nodeIS2_E, @function
_ZNSt8_Rb_treeIPN8opendnp317IScheduleCallbackES2_St9_IdentityIS2_ESt4lessIS2_ESaIS2_EE8_M_eraseEPSt13_Rb_tree_nodeIS2_E:
.LFB8914:
	.cfi_startproc
	pushq	%r15
	.cfi_def_cfa_offset 16
	.cfi_offset 15, -16
	pushq	%r14
	.cfi_def_cfa_offset 24
	.cfi_offset 14, -24
	pushq	%r13
	.cfi_def_cfa_offset 32
	.cfi_offset 13, -32
	pushq	%r12
	.cfi_def_cfa_offset 40
	.cfi_offset 12, -40
	pushq	%rbp
	.cfi_def_cfa_offset 48
	.cfi_offset 6, -48
	pushq	%rbx
	.cfi_def_cfa_offset 56
	.cfi_offset 3, -56
	subq	$56, %rsp
	.cfi_def_cfa_offset 112
	testq	%rsi, %rsi
	movq	%rsi, 40(%rsp)
	je	.L2051
	movq	%rdi, %rbp
	movq	%rsi, %rax
.L2069:
	movq	24(%rax), %rax
	testq	%rax, %rax
	movq	%rax, 32(%rsp)
	je	.L2053
.L2068:
	movq	24(%rax), %rax
	testq	%rax, %rax
	movq	%rax, 24(%rsp)
	je	.L2054
.L2067:
	movq	24(%rax), %rax
	testq	%rax, %rax
	movq	%rax, 16(%rsp)
	je	.L2055
.L2066:
	movq	24(%rax), %rax
	testq	%rax, %rax
	movq	%rax, 8(%rsp)
	je	.L2056
.L2065:
	movq	24(%rax), %r13
	testq	%r13, %r13
	je	.L2057
.L2064:
	movq	24(%r13), %r12
	testq	%r12, %r12
	je	.L2058
.L2063:
	movq	24(%r12), %r15
	testq	%r15, %r15
	je	.L2059
.L2062:
	movq	24(%r15), %r14
	testq	%r14, %r14
	je	.L2060
.L2061:
	movq	24(%r14), %rsi
	movq	%rbp, %rdi
	call	_ZNSt8_Rb_treeIPN8opendnp317IScheduleCallbackES2_St9_IdentityIS2_ESt4lessIS2_ESaIS2_EE8_M_eraseEPSt13_Rb_tree_nodeIS2_E@PLT
	movq	16(%r14), %rbx
	movq	%r14, %rdi
	call	_ZdlPv@PLT
	testq	%rbx, %rbx
	movq	%rbx, %r14
	jne	.L2061
.L2060:
	movq	16(%r15), %rbx
	movq	%r15, %rdi
	call	_ZdlPv@PLT
	testq	%rbx, %rbx
	movq	%rbx, %r15
	jne	.L2062
.L2059:
	movq	16(%r12), %rbx
	movq	%r12, %rdi
	call	_ZdlPv@PLT
	testq	%rbx, %rbx
	movq	%rbx, %r12
	jne	.L2063
.L2058:
	movq	16(%r13), %rbx
	movq	%r13, %rdi
	call	_ZdlPv@PLT
	testq	%rbx, %rbx
	movq	%rbx, %r13
	jne	.L2064
.L2057:
	movq	8(%rsp), %rdi
	movq	16(%rdi), %rbx
	call	_ZdlPv@PLT
	testq	%rbx, %rbx
	movq	%rbx, %rax
	movq	%rbx, 8(%rsp)
	jne	.L2065
.L2056:
	movq	16(%rsp), %rdi
	movq	16(%rdi), %rbx
	call	_ZdlPv@PLT
	testq	%rbx, %rbx
	movq	%rbx, %rax
	movq	%rbx, 16(%rsp)
	jne	.L2066
.L2055:
	movq	24(%rsp), %rdi
	movq	16(%rdi), %rbx
	call	_ZdlPv@PLT
	testq	%rbx, %rbx
	movq	%rbx, %rax
	movq	%rbx, 24(%rsp)
	jne	.L2067
.L2054:
	movq	32(%rsp), %rdi
	movq	16(%rdi), %rbx
	call	_ZdlPv@PLT
	testq	%rbx, %rbx
	movq	%rbx, %rax
	movq	%rbx, 32(%rsp)
	jne	.L2068
.L2053:
	movq	40(%rsp), %rdi
	movq	16(%rdi), %rbx
	call	_ZdlPv@PLT
	testq	%rbx, %rbx
	movq	%rbx, %rax
	movq	%rbx, 40(%rsp)
	jne	.L2069
.L2051:
	addq	$56, %rsp
	.cfi_def_cfa_offset 56
	popq	%rbx
	.cfi_def_cfa_offset 48
	popq	%rbp
	.cfi_def_cfa_offset 40
	popq	%r12
	.cfi_def_cfa_offset 32
	popq	%r13
	.cfi_def_cfa_offset 24
	popq	%r14
	.cfi_def_cfa_offset 16
	popq	%r15
	.cfi_def_cfa_offset 8
	ret
	.cfi_endproc
.LFE8914:
	.size	_ZNSt8_Rb_treeIPN8opendnp317IScheduleCallbackES2_St9_IdentityIS2_ESt4lessIS2_ESaIS2_EE8_M_eraseEPSt13_Rb_tree_nodeIS2_E, .-_ZNSt8_Rb_treeIPN8opendnp317IScheduleCallbackES2_St9_IdentityIS2_ESt4lessIS2_ESaIS2_EE8_M_eraseEPSt13_Rb_tree_nodeIS2_E
	.section	.text._ZN8asiodnp39IOHandlerD2Ev,"axG",@progbits,_ZN8asiodnp39IOHandlerD5Ev,comdat
	.align 2
	.p2align 4,,15
	.weak	_ZN8asiodnp39IOHandlerD2Ev
	.type	_ZN8asiodnp39IOHandlerD2Ev, @function
_ZN8asiodnp39IOHandlerD2Ev:
.LFB7473:
	.cfi_startproc
	pushq	%r15
	.cfi_def_cfa_offset 16
	.cfi_offset 15, -16
	pushq	%r14
	.cfi_def_cfa_offset 24
	.cfi_offset 14, -24
	pushq	%r13
	.cfi_def_cfa_offset 32
	.cfi_offset 13, -32
	pushq	%r12
	.cfi_def_cfa_offset 40
	.cfi_offset 12, -40
	pushq	%rbp
	.cfi_def_cfa_offset 48
	.cfi_offset 6, -48
	pushq	%rbx
	.cfi_def_cfa_offset 56
	.cfi_offset 3, -56
	movq	%rdi, %rbx
	subq	$56, %rsp
	.cfi_def_cfa_offset 112
	movq	_ZTVN8asiodnp39IOHandlerE@GOTPCREL(%rip), %rax
	leaq	16(%rax), %rdx
	addq	$104, %rax
	movq	%rax, 8(%rdi)
	movq	_ZTVN8opendnp317MultidropTaskLockE@GOTPCREL(%rip), %rax
	movq	%rdx, (%rdi)
	addq	$16, %rax
	movq	%rax, 648(%rdi)
	movq	712(%rdi), %rdi
	testq	%rdi, %rdi
	je	.L2108
	movq	784(%rbx), %rax
	movq	752(%rbx), %rbp
	leaq	8(%rax), %r12
	cmpq	%rbp, %r12
	jbe	.L2109
	.p2align 4,,10
	.p2align 3
.L2110:
	movq	0(%rbp), %rdi
	addq	$8, %rbp
	call	_ZdlPv@PLT
	cmpq	%rbp, %r12
	ja	.L2110
	movq	712(%rbx), %rdi
.L2109:
	call	_ZdlPv@PLT
.L2108:
	movq	680(%rbx), %rbp
	testq	%rbp, %rbp
	je	.L2111
	leaq	664(%rbx), %r13
.L2112:
	movq	24(%rbp), %rsi
	movq	%r13, %rdi
	call	_ZNSt8_Rb_treeIPN8opendnp317IScheduleCallbackES2_St9_IdentityIS2_ESt4lessIS2_ESaIS2_EE8_M_eraseEPSt13_Rb_tree_nodeIS2_E@PLT
	movq	16(%rbp), %r12
	movq	%rbp, %rdi
	call	_ZdlPv@PLT
	testq	%r12, %r12
	movq	%r12, %rbp
	jne	.L2112
.L2111:
	movq	640(%rbx), %rbp
	testq	%rbp, %rbp
	je	.L2114
	cmpq	$0, _ZL28__gthrw___pthread_key_createPjPFvPvE@GOTPCREL(%rip)
	je	.L2115
	lock subl	$1, 8(%rbp)
	je	.L2260
.L2114:
	movq	240(%rbx), %rbp
	testq	%rbp, %rbp
	je	.L2120
	cmpq	$0, _ZL28__gthrw___pthread_key_createPjPFvPvE@GOTPCREL(%rip)
	je	.L2121
	lock subl	$1, 8(%rbp)
	je	.L2261
.L2120:
	movq	224(%rbx), %rbp
	testq	%rbp, %rbp
	je	.L2126
	cmpq	$0, _ZL28__gthrw___pthread_key_createPjPFvPvE@GOTPCREL(%rip)
	je	.L2127
	lock subl	$1, 8(%rbp)
	je	.L2262
.L2126:
	movq	184(%rbx), %rax
	movq	176(%rbx), %rcx
	movq	168(%rbx), %rdx
	movq	152(%rbx), %r12
	movq	%rax, 24(%rsp)
	movq	192(%rbx), %rax
	leaq	8(%rcx), %rbp
	movq	%rdx, 32(%rsp)
	movq	%rcx, 40(%rsp)
	movq	%rax, 8(%rsp)
	movq	208(%rbx), %rax
	cmpq	%rbp, %rax
	movq	%rax, 16(%rsp)
	jbe	.L2131
	.p2align 4,,10
	.p2align 3
.L2144:
	cmpq	$0, _ZL28__gthrw___pthread_key_createPjPFvPvE@GOTPCREL(%rip)
	movq	0(%rbp), %r14
	leaq	512(%r14), %r15
	jne	.L2143
	jmp	.L2138
	.p2align 4,,10
	.p2align 3
.L2140:
	addq	$32, %r14
	cmpq	%r15, %r14
	je	.L2137
.L2143:
	movq	24(%r14), %r13
	testq	%r13, %r13
	je	.L2140
	lock subl	$1, 8(%r13)
	jne	.L2140
	movq	0(%r13), %rsi
	movq	%r13, %rdi
	call	*16(%rsi)
	lock subl	$1, 12(%r13)
	jne	.L2140
	movq	0(%r13), %rsi
	addq	$32, %r14
	movq	%r13, %rdi
	call	*24(%rsi)
	cmpq	%r15, %r14
	jne	.L2143
	.p2align 4,,10
	.p2align 3
.L2137:
	addq	$8, %rbp
	cmpq	%rbp, 16(%rsp)
	ja	.L2144
.L2131:
	movq	40(%rsp), %rdx
	cmpq	%rdx, 16(%rsp)
	je	.L2145
	cmpq	32(%rsp), %r12
	je	.L2263
	cmpq	$0, _ZL28__gthrw___pthread_key_createPjPFvPvE@GOTPCREL(%rip)
	je	.L2155
	.p2align 4,,10
	.p2align 3
.L2149:
	movq	24(%r12), %rbp
	testq	%rbp, %rbp
	je	.L2157
	lock subl	$1, 8(%rbp)
	je	.L2264
.L2157:
	addq	$32, %r12
	cmpq	%r12, 32(%rsp)
	jne	.L2149
.L2278:
	movq	8(%rsp), %rcx
	cmpq	%rcx, 24(%rsp)
	je	.L2147
	.p2align 4,,10
	.p2align 3
.L2171:
	movq	8(%rsp), %rax
	movq	24(%rax), %rbp
	testq	%rbp, %rbp
	je	.L2168
	lock subl	$1, 8(%rbp)
	je	.L2265
.L2168:
	addq	$32, 8(%rsp)
	movq	8(%rsp), %rax
	cmpq	%rax, 24(%rsp)
	jne	.L2171
.L2147:
	movq	136(%rbx), %rdi
	testq	%rdi, %rdi
	je	.L2182
	movq	208(%rbx), %rax
	movq	176(%rbx), %rbp
	leaq	8(%rax), %r12
	cmpq	%rbp, %r12
	jbe	.L2183
	.p2align 4,,10
	.p2align 3
.L2184:
	movq	0(%rbp), %rdi
	addq	$8, %rbp
	call	_ZdlPv@PLT
	cmpq	%rbp, %r12
	ja	.L2184
	movq	136(%rbx), %rdi
.L2183:
	call	_ZdlPv@PLT
.L2182:
	movq	120(%rbx), %rax
	movq	112(%rbx), %rdi
	cmpq	%rdi, %rax
	je	.L2185
	leaq	24(%rdi), %rbp
	subq	%rbp, %rax
	shrq	$3, %rax
	cmpq	$0, _ZL28__gthrw___pthread_key_createPjPFvPvE@GOTPCREL(%rip)
	leaq	24(%rdi,%rax,8), %r13
	jne	.L2197
	jmp	.L2192
	.p2align 4,,10
	.p2align 3
.L2267:
	addq	$24, %rbp
.L2197:
	movq	16(%rdi), %r12
	testq	%r12, %r12
	je	.L2194
	lock subl	$1, 8(%r12)
	je	.L2266
.L2194:
	cmpq	%r13, %rbp
	movq	%rbp, %rdi
	jne	.L2267
.L2191:
	movq	112(%rbx), %rdi
.L2185:
	testq	%rdi, %rdi
	je	.L2198
	call	_ZdlPv@PLT
.L2198:
	movq	72(%rbx), %rbp
	testq	%rbp, %rbp
	je	.L2200
	cmpq	$0, _ZL28__gthrw___pthread_key_createPjPFvPvE@GOTPCREL(%rip)
	je	.L2201
	lock subl	$1, 8(%rbp)
	je	.L2268
.L2200:
	movq	56(%rbx), %rbp
	testq	%rbp, %rbp
	je	.L2206
	cmpq	$0, _ZL28__gthrw___pthread_key_createPjPFvPvE@GOTPCREL(%rip)
	je	.L2207
	lock subl	$1, 8(%rbp)
	je	.L2269
.L2206:
	movq	40(%rbx), %rbp
	testq	%rbp, %rbp
	je	.L2212
	cmpq	$0, _ZL28__gthrw___pthread_key_createPjPFvPvE@GOTPCREL(%rip)
	je	.L2213
	lock subl	$1, 8(%rbp)
	je	.L2270
.L2212:
	movq	24(%rbx), %rdi
	testq	%rdi, %rdi
	je	.L2107
	cmpq	$0, _ZL28__gthrw___pthread_key_createPjPFvPvE@GOTPCREL(%rip)
	je	.L2219
	movl	$-1, %eax
	lock xaddl	%eax, 12(%rdi)
	cmpl	$1, %eax
	je	.L2271
.L2107:
	addq	$56, %rsp
	.cfi_remember_state
	.cfi_def_cfa_offset 56
	popq	%rbx
	.cfi_def_cfa_offset 48
	popq	%rbp
	.cfi_def_cfa_offset 40
	popq	%r12
	.cfi_def_cfa_offset 32
	popq	%r13
	.cfi_def_cfa_offset 24
	popq	%r14
	.cfi_def_cfa_offset 16
	popq	%r15
	.cfi_def_cfa_offset 8
	ret
	.p2align 4,,10
	.p2align 3
.L2272:
	.cfi_restore_state
	movq	0(%r13), %rsi
	movq	%r13, %rdi
	call	*16(%rsi)
	movl	12(%r13), %esi
	leal	-1(%rsi), %edi
	cmpl	$1, %esi
	movl	%edi, 12(%r13)
	jne	.L2135
	movq	0(%r13), %rsi
	movq	%r13, %rdi
	call	*24(%rsi)
	.p2align 4,,10
	.p2align 3
.L2135:
	addq	$32, %r14
	cmpq	%r14, %r15
	je	.L2137
.L2138:
	movq	24(%r14), %r13
	testq	%r13, %r13
	je	.L2135
	movl	8(%r13), %esi
	leal	-1(%rsi), %edi
	cmpl	$1, %esi
	movl	%edi, 8(%r13)
	jne	.L2135
	jmp	.L2272
.L2274:
	movq	0(%rbp), %rax
	movq	%rbp, %rdi
	call	*16(%rax)
	movl	12(%rbp), %eax
	leal	-1(%rax), %edx
	cmpl	$1, %eax
	movl	%edx, 12(%rbp)
	jne	.L2152
	movq	0(%rbp), %rax
	movq	%rbp, %rdi
	call	*24(%rax)
	.p2align 4,,10
	.p2align 3
.L2152:
	addq	$32, %r12
	cmpq	32(%rsp), %r12
	je	.L2273
.L2155:
	movq	24(%r12), %rbp
	testq	%rbp, %rbp
	je	.L2152
	movl	8(%rbp), %eax
	leal	-1(%rax), %edx
	cmpl	$1, %eax
	movl	%edx, 8(%rbp)
	je	.L2274
	addq	$32, %r12
	cmpq	32(%rsp), %r12
	jne	.L2155
	jmp	.L2273
	.p2align 4,,10
	.p2align 3
.L2276:
	addq	$24, %rbp
.L2192:
	movq	16(%rdi), %r12
	testq	%r12, %r12
	je	.L2189
	movl	8(%r12), %eax
	leal	-1(%rax), %edx
	cmpl	$1, %eax
	movl	%edx, 8(%r12)
	je	.L2275
.L2189:
	cmpq	%rbp, %r13
	movq	%rbp, %rdi
	jne	.L2276
	jmp	.L2191
.L2273:
	movq	8(%rsp), %rdx
	cmpq	%rdx, 24(%rsp)
	je	.L2147
	.p2align 4,,10
	.p2align 3
.L2166:
	movq	8(%rsp), %rax
	movq	24(%rax), %rbp
	testq	%rbp, %rbp
	je	.L2164
	movl	8(%rbp), %eax
	leal	-1(%rax), %edx
	cmpl	$1, %eax
	movl	%edx, 8(%rbp)
	je	.L2277
.L2164:
	addq	$32, 8(%rsp)
	movq	8(%rsp), %rax
	cmpq	%rax, 24(%rsp)
	jne	.L2166
	jmp	.L2147
.L2127:
	movl	8(%rbp), %eax
	leal	-1(%rax), %edx
	cmpl	$1, %eax
	movl	%edx, 8(%rbp)
	jne	.L2126
	movq	0(%rbp), %rax
	movq	%rbp, %rdi
	call	*16(%rax)
	movl	12(%rbp), %eax
	leal	-1(%rax), %edx
	movl	%edx, 12(%rbp)
	jmp	.L2224
.L2121:
	movl	8(%rbp), %eax
	leal	-1(%rax), %edx
	cmpl	$1, %eax
	movl	%edx, 8(%rbp)
	jne	.L2120
	movq	0(%rbp), %rax
	movq	%rbp, %rdi
	call	*16(%rax)
	movl	12(%rbp), %eax
	leal	-1(%rax), %edx
	movl	%edx, 12(%rbp)
	jmp	.L2223
.L2115:
	movl	8(%rbp), %eax
	leal	-1(%rax), %edx
	cmpl	$1, %eax
	movl	%edx, 8(%rbp)
	jne	.L2114
	movq	0(%rbp), %rax
	movq	%rbp, %rdi
	call	*16(%rax)
	movl	12(%rbp), %eax
	leal	-1(%rax), %edx
	movl	%edx, 12(%rbp)
	jmp	.L2222
.L2264:
	movq	0(%rbp), %rax
	movq	%rbp, %rdi
	call	*16(%rax)
	lock subl	$1, 12(%rbp)
	jne	.L2157
	movq	0(%rbp), %rax
	movq	%rbp, %rdi
	addq	$32, %r12
	call	*24(%rax)
	cmpq	%r12, 32(%rsp)
	jne	.L2149
	jmp	.L2278
	.p2align 4,,10
	.p2align 3
.L2266:
	movq	(%r12), %rax
	movq	%r12, %rdi
	call	*16(%rax)
	lock subl	$1, 12(%r12)
	jne	.L2194
	movq	(%r12), %rax
	movq	%r12, %rdi
	call	*24(%rax)
	jmp	.L2194
.L2275:
	movq	(%r12), %rax
	movq	%r12, %rdi
	call	*16(%rax)
	movl	12(%r12), %eax
	leal	-1(%rax), %edx
	cmpl	$1, %eax
	movl	%edx, 12(%r12)
	jne	.L2189
	movq	(%r12), %rax
	movq	%r12, %rdi
	call	*24(%rax)
	jmp	.L2189
.L2265:
	movq	0(%rbp), %rax
	movq	%rbp, %rdi
	call	*16(%rax)
	lock subl	$1, 12(%rbp)
	jne	.L2168
	movq	0(%rbp), %rax
	movq	%rbp, %rdi
	call	*24(%rax)
	jmp	.L2168
.L2145:
	cmpq	%r12, 24(%rsp)
	je	.L2147
	cmpq	$0, _ZL28__gthrw___pthread_key_createPjPFvPvE@GOTPCREL(%rip)
	je	.L2177
	.p2align 4,,10
	.p2align 3
.L2172:
	movq	24(%r12), %rbp
	testq	%rbp, %rbp
	je	.L2179
	lock subl	$1, 8(%rbp)
	je	.L2279
.L2179:
	addq	$32, %r12
	cmpq	%r12, 24(%rsp)
	jne	.L2172
	jmp	.L2147
.L2280:
	movq	0(%rbp), %rax
	movq	%rbp, %rdi
	call	*16(%rax)
	movl	12(%rbp), %eax
	leal	-1(%rax), %edx
	cmpl	$1, %eax
	movl	%edx, 12(%rbp)
	jne	.L2175
	movq	0(%rbp), %rax
	movq	%rbp, %rdi
	call	*24(%rax)
	.p2align 4,,10
	.p2align 3
.L2175:
	addq	$32, %r12
	cmpq	24(%rsp), %r12
	je	.L2147
.L2177:
	movq	24(%r12), %rbp
	testq	%rbp, %rbp
	je	.L2175
	movl	8(%rbp), %eax
	leal	-1(%rax), %edx
	cmpl	$1, %eax
	movl	%edx, 8(%rbp)
	je	.L2280
	addq	$32, %r12
	cmpq	24(%rsp), %r12
	jne	.L2177
	jmp	.L2147
	.p2align 4,,10
	.p2align 3
.L2277:
	movq	0(%rbp), %rax
	movq	%rbp, %rdi
	call	*16(%rax)
	movl	12(%rbp), %eax
	leal	-1(%rax), %edx
	cmpl	$1, %eax
	movl	%edx, 12(%rbp)
	jne	.L2164
	movq	0(%rbp), %rax
	movq	%rbp, %rdi
	call	*24(%rax)
	jmp	.L2164
.L2213:
	movl	8(%rbp), %eax
	leal	-1(%rax), %edx
	cmpl	$1, %eax
	movl	%edx, 8(%rbp)
	jne	.L2212
	movq	0(%rbp), %rax
	movq	%rbp, %rdi
	call	*16(%rax)
	movl	12(%rbp), %eax
	leal	-1(%rax), %edx
	movl	%edx, 12(%rbp)
.L2232:
	cmpl	$1, %eax
	jne	.L2212
	movq	0(%rbp), %rax
	movq	%rbp, %rdi
	call	*24(%rax)
	jmp	.L2212
.L2219:
	movl	12(%rdi), %eax
	leal	-1(%rax), %edx
	cmpl	$1, %eax
	movl	%edx, 12(%rdi)
	jne	.L2107
.L2271:
	movq	(%rdi), %rax
	movq	24(%rax), %rax
	addq	$56, %rsp
	.cfi_remember_state
	.cfi_def_cfa_offset 56
	popq	%rbx
	.cfi_def_cfa_offset 48
	popq	%rbp
	.cfi_def_cfa_offset 40
	popq	%r12
	.cfi_def_cfa_offset 32
	popq	%r13
	.cfi_def_cfa_offset 24
	popq	%r14
	.cfi_def_cfa_offset 16
	popq	%r15
	.cfi_def_cfa_offset 8
	jmp	*%rax
.L2201:
	.cfi_restore_state
	movl	8(%rbp), %eax
	leal	-1(%rax), %edx
	cmpl	$1, %eax
	movl	%edx, 8(%rbp)
	jne	.L2200
	movq	0(%rbp), %rax
	movq	%rbp, %rdi
	call	*16(%rax)
	movl	12(%rbp), %eax
	leal	-1(%rax), %edx
	movl	%edx, 12(%rbp)
.L2230:
	cmpl	$1, %eax
	jne	.L2200
	movq	0(%rbp), %rax
	movq	%rbp, %rdi
	call	*24(%rax)
	jmp	.L2200
.L2207:
	movl	8(%rbp), %eax
	leal	-1(%rax), %edx
	cmpl	$1, %eax
	movl	%edx, 8(%rbp)
	jne	.L2206
	movq	0(%rbp), %rax
	movq	%rbp, %rdi
	call	*16(%rax)
	movl	12(%rbp), %eax
	leal	-1(%rax), %edx
	movl	%edx, 12(%rbp)
.L2231:
	cmpl	$1, %eax
	jne	.L2206
	movq	0(%rbp), %rax
	movq	%rbp, %rdi
	call	*24(%rax)
	jmp	.L2206
.L2262:
	movq	0(%rbp), %rax
	movq	%rbp, %rdi
	call	*16(%rax)
	movl	$-1, %eax
	lock xaddl	%eax, 12(%rbp)
.L2224:
	cmpl	$1, %eax
	jne	.L2126
	movq	0(%rbp), %rax
	movq	%rbp, %rdi
	call	*24(%rax)
	jmp	.L2126
.L2260:
	movq	0(%rbp), %rax
	movq	%rbp, %rdi
	call	*16(%rax)
	movl	$-1, %eax
	lock xaddl	%eax, 12(%rbp)
.L2222:
	cmpl	$1, %eax
	jne	.L2114
	movq	0(%rbp), %rax
	movq	%rbp, %rdi
	call	*24(%rax)
	jmp	.L2114
.L2261:
	movq	0(%rbp), %rax
	movq	%rbp, %rdi
	call	*16(%rax)
	movl	$-1, %eax
	lock xaddl	%eax, 12(%rbp)
.L2223:
	cmpl	$1, %eax
	jne	.L2120
	movq	0(%rbp), %rax
	movq	%rbp, %rdi
	call	*24(%rax)
	jmp	.L2120
.L2279:
	movq	0(%rbp), %rax
	movq	%rbp, %rdi
	call	*16(%rax)
	lock subl	$1, 12(%rbp)
	jne	.L2179
	movq	0(%rbp), %rax
	movq	%rbp, %rdi
	call	*24(%rax)
	jmp	.L2179
.L2263:
	movq	8(%rsp), %rdx
	cmpq	%rdx, 24(%rsp)
	je	.L2147
	cmpq	$0, _ZL28__gthrw___pthread_key_createPjPFvPvE@GOTPCREL(%rip)
	jne	.L2171
	jmp	.L2166
.L2268:
	movq	0(%rbp), %rax
	movq	%rbp, %rdi
	call	*16(%rax)
	movl	$-1, %eax
	lock xaddl	%eax, 12(%rbp)
	jmp	.L2230
.L2270:
	movq	0(%rbp), %rax
	movq	%rbp, %rdi
	call	*16(%rax)
	movl	$-1, %eax
	lock xaddl	%eax, 12(%rbp)
	jmp	.L2232
.L2269:
	movq	0(%rbp), %rax
	movq	%rbp, %rdi
	call	*16(%rax)
	movl	$-1, %eax
	lock xaddl	%eax, 12(%rbp)
	jmp	.L2231
	.cfi_endproc
.LFE7473:
	.size	_ZN8asiodnp39IOHandlerD2Ev, .-_ZN8asiodnp39IOHandlerD2Ev
	.set	.LTHUNK0,_ZN8asiodnp39IOHandlerD2Ev
	.p2align 4,,15
	.weak	_ZThn8_N8asiodnp39IOHandlerD1Ev
	.type	_ZThn8_N8asiodnp39IOHandlerD1Ev, @function
_ZThn8_N8asiodnp39IOHandlerD1Ev:
.LFB10538:
	.cfi_startproc
	subq	$8, %rdi
	jmp	.LTHUNK0
	.cfi_endproc
.LFE10538:
	.size	_ZThn8_N8asiodnp39IOHandlerD1Ev, .-_ZThn8_N8asiodnp39IOHandlerD1Ev
	.weak	_ZN8asiodnp39IOHandlerD1Ev
	.set	_ZN8asiodnp39IOHandlerD1Ev,_ZN8asiodnp39IOHandlerD2Ev
	.section	.text._ZN8asiodnp39IOHandlerD0Ev,"axG",@progbits,_ZN8asiodnp39IOHandlerD5Ev,comdat
	.align 2
	.p2align 4,,15
	.weak	_ZN8asiodnp39IOHandlerD0Ev
	.type	_ZN8asiodnp39IOHandlerD0Ev, @function
_ZN8asiodnp39IOHandlerD0Ev:
.LFB7475:
	.cfi_startproc
	pushq	%rbx
	.cfi_def_cfa_offset 16
	.cfi_offset 3, -16
	movq	%rdi, %rbx
	call	_ZN8asiodnp39IOHandlerD1Ev@PLT
	movq	%rbx, %rdi
	movl	$800, %esi
	popq	%rbx
	.cfi_def_cfa_offset 8
	jmp	_ZdlPvm@PLT
	.cfi_endproc
.LFE7475:
	.size	_ZN8asiodnp39IOHandlerD0Ev, .-_ZN8asiodnp39IOHandlerD0Ev
	.p2align 4,,15
	.weak	_ZThn8_N8asiodnp39IOHandlerD0Ev
	.type	_ZThn8_N8asiodnp39IOHandlerD0Ev, @function
_ZThn8_N8asiodnp39IOHandlerD0Ev:
.LFB10529:
	.cfi_startproc
	pushq	%rbx
	.cfi_def_cfa_offset 16
	.cfi_offset 3, -16
	leaq	-8(%rdi), %rbx
	movq	%rbx, %rdi
	call	_ZN8asiodnp39IOHandlerD1Ev@PLT
	movq	%rbx, %rdi
	movl	$800, %esi
	popq	%rbx
	.cfi_def_cfa_offset 8
	jmp	_ZdlPvm@PLT
	.cfi_endproc
.LFE10529:
	.size	_ZThn8_N8asiodnp39IOHandlerD0Ev, .-_ZThn8_N8asiodnp39IOHandlerD0Ev
	.text
	.align 2
	.p2align 4,,15
	.globl	_ZN8asiodnp318TCPServerIOHandlerC2ERKN7openpal6LoggerERKSt10shared_ptrINS_16IChannelListenerEERKS5_IN7asiopal8ExecutorEERKNSA_10IPEndpointERSt10error_code
	.type	_ZN8asiodnp318TCPServerIOHandlerC2ERKN7openpal6LoggerERKSt10shared_ptrINS_16IChannelListenerEERKS5_IN7asiopal8ExecutorEERKNSA_10IPEndpointERSt10error_code, @function
_ZN8asiodnp318TCPServerIOHandlerC2ERKN7openpal6LoggerERKSt10shared_ptrINS_16IChannelListenerEERKS5_IN7asiopal8ExecutorEERKNSA_10IPEndpointERSt10error_code:
.LFB7583:
	.cfi_startproc
	.cfi_personality 0x9b,DW.ref.__gxx_personality_v0
	.cfi_lsda 0x1b,.LLSDA7583
	pushq	%r13
	.cfi_def_cfa_offset 16
	.cfi_offset 13, -16
	pushq	%r12
	.cfi_def_cfa_offset 24
	.cfi_offset 12, -24
	movq	%r8, %r12
	pushq	%rbp
	.cfi_def_cfa_offset 32
	.cfi_offset 6, -32
	pushq	%rbx
	.cfi_def_cfa_offset 40
	.cfi_offset 3, -40
	movq	%rcx, %rbp
	movq	%rdi, %rbx
	subq	$24, %rsp
	.cfi_def_cfa_offset 64
	movq	%fs:40, %rax
	movq	%rax, 8(%rsp)
	xorl	%eax, %eax
.LEHB19:
	call	_ZN8asiodnp39IOHandlerC2ERKN7openpal6LoggerERKSt10shared_ptrINS_16IChannelListenerEE@PLT
.LEHE19:
	movq	_ZTVN8asiodnp318TCPServerIOHandlerE@GOTPCREL(%rip), %rax
	leaq	16(%rax), %rdx
	addq	$104, %rax
	movq	%rax, 8(%rbx)
	movq	%rdx, (%rbx)
	movq	0(%rbp), %rax
	movq	%rax, 800(%rbx)
	movq	8(%rbp), %rax
	testq	%rax, %rax
	movq	%rax, 808(%rbx)
	je	.L2286
	cmpq	$0, _ZL28__gthrw___pthread_key_createPjPFvPvE@GOTPCREL(%rip)
	jne	.L2314
	addl	$1, 8(%rax)
.L2286:
	leaq	832(%rbx), %rax
	movq	%rax, 816(%rbx)
	movq	(%r12), %r13
	movq	8(%r12), %rbp
	movq	%r13, %rcx
	addq	%rbp, %rcx
	je	.L2288
	testq	%r13, %r13
	je	.L2315
.L2288:
	cmpq	$15, %rbp
	movq	%rbp, (%rsp)
	ja	.L2316
	cmpq	$1, %rbp
	jne	.L2291
	movzbl	0(%r13), %edx
	movb	%dl, 832(%rbx)
.L2292:
	movq	%rbp, 824(%rbx)
	movb	$0, (%rax,%rbp)
	movzwl	32(%r12), %eax
	movq	$0, 856(%rbx)
	movq	$0, 864(%rbx)
	movw	%ax, 848(%rbx)
	movq	8(%rsp), %rax
	xorq	%fs:40, %rax
	jne	.L2317
	addq	$24, %rsp
	.cfi_remember_state
	.cfi_def_cfa_offset 40
	popq	%rbx
	.cfi_def_cfa_offset 32
	popq	%rbp
	.cfi_def_cfa_offset 24
	popq	%r12
	.cfi_def_cfa_offset 16
	popq	%r13
	.cfi_def_cfa_offset 8
	ret
	.p2align 4,,10
	.p2align 3
.L2314:
	.cfi_restore_state
	lock addl	$1, 8(%rax)
	jmp	.L2286
	.p2align 4,,10
	.p2align 3
.L2316:
	leaq	816(%rbx), %rdi
	movq	%rsp, %rsi
	xorl	%edx, %edx
.LEHB20:
	call	_ZNSt7__cxx1112basic_stringIcSt11char_traitsIcESaIcEE9_M_createERmm@PLT
	movq	(%rsp), %rdx
	movq	%rax, 816(%rbx)
	movq	%rdx, 832(%rbx)
.L2290:
	movq	%rbp, %rdx
	movq	%r13, %rsi
	movq	%rax, %rdi
	call	memcpy@PLT
	movq	(%rsp), %rbp
	movq	816(%rbx), %rax
	jmp	.L2292
	.p2align 4,,10
	.p2align 3
.L2291:
	testq	%rbp, %rbp
	je	.L2292
	jmp	.L2290
.L2315:
	leaq	.LC4(%rip), %rdi
	call	_ZSt19__throw_logic_errorPKc@PLT
.LEHE20:
.L2296:
	movq	808(%rbx), %rdi
	movq	%rax, %rbp
	testq	%rdi, %rdi
	je	.L2294
	call	_ZNSt16_Sp_counted_baseILN9__gnu_cxx12_Lock_policyE2EE10_M_releaseEv@PLT
.L2294:
	movq	%rbx, %rdi
	call	_ZN8asiodnp39IOHandlerD2Ev@PLT
	movq	%rbp, %rdi
.LEHB21:
	call	_Unwind_Resume@PLT
.LEHE21:
.L2317:
	call	__stack_chk_fail@PLT
	.cfi_endproc
.LFE7583:
	.section	.gcc_except_table
.LLSDA7583:
	.byte	0xff
	.byte	0xff
	.byte	0x1
	.uleb128 .LLSDACSE7583-.LLSDACSB7583
.LLSDACSB7583:
	.uleb128 .LEHB19-.LFB7583
	.uleb128 .LEHE19-.LEHB19
	.uleb128 0
	.uleb128 0
	.uleb128 .LEHB20-.LFB7583
	.uleb128 .LEHE20-.LEHB20
	.uleb128 .L2296-.LFB7583
	.uleb128 0
	.uleb128 .LEHB21-.LFB7583
	.uleb128 .LEHE21-.LEHB21
	.uleb128 0
	.uleb128 0
.LLSDACSE7583:
	.text
	.size	_ZN8asiodnp318TCPServerIOHandlerC2ERKN7openpal6LoggerERKSt10shared_ptrINS_16IChannelListenerEERKS5_IN7asiopal8ExecutorEERKNSA_10IPEndpointERSt10error_code, .-_ZN8asiodnp318TCPServerIOHandlerC2ERKN7openpal6LoggerERKSt10shared_ptrINS_16IChannelListenerEERKS5_IN7asiopal8ExecutorEERKNSA_10IPEndpointERSt10error_code
	.globl	_ZN8asiodnp318TCPServerIOHandlerC1ERKN7openpal6LoggerERKSt10shared_ptrINS_16IChannelListenerEERKS5_IN7asiopal8ExecutorEERKNSA_10IPEndpointERSt10error_code
	.set	_ZN8asiodnp318TCPServerIOHandlerC1ERKN7openpal6LoggerERKSt10shared_ptrINS_16IChannelListenerEERKS5_IN7asiopal8ExecutorEERKNSA_10IPEndpointERSt10error_code,_ZN8asiodnp318TCPServerIOHandlerC2ERKN7openpal6LoggerERKSt10shared_ptrINS_16IChannelListenerEERKS5_IN7asiopal8ExecutorEERKNSA_10IPEndpointERSt10error_code
	.section	.text._ZN8asiodnp318TCPServerIOHandlerD2Ev,"axG",@progbits,_ZN8asiodnp318TCPServerIOHandlerD5Ev,comdat
	.align 2
	.p2align 4,,15
	.weak	_ZN8asiodnp318TCPServerIOHandlerD2Ev
	.type	_ZN8asiodnp318TCPServerIOHandlerD2Ev, @function
_ZN8asiodnp318TCPServerIOHandlerD2Ev:
.LFB10179:
	.cfi_startproc
	pushq	%rbp
	.cfi_def_cfa_offset 16
	.cfi_offset 6, -16
	pushq	%rbx
	.cfi_def_cfa_offset 24
	.cfi_offset 3, -24
	movq	%rdi, %rbx
	subq	$8, %rsp
	.cfi_def_cfa_offset 32
	movq	_ZTVN8asiodnp318TCPServerIOHandlerE@GOTPCREL(%rip), %rax
	movq	864(%rdi), %rbp
	leaq	16(%rax), %rdx
	addq	$104, %rax
	testq	%rbp, %rbp
	movq	%rax, 8(%rdi)
	movq	%rdx, (%rdi)
	je	.L2320
	cmpq	$0, _ZL28__gthrw___pthread_key_createPjPFvPvE@GOTPCREL(%rip)
	je	.L2321
	lock subl	$1, 8(%rbp)
	je	.L2335
.L2320:
	movq	816(%rbx), %rdi
	leaq	832(%rbx), %rax
	cmpq	%rax, %rdi
	je	.L2325
	call	_ZdlPv@PLT
.L2325:
	movq	808(%rbx), %rbp
	testq	%rbp, %rbp
	je	.L2327
	cmpq	$0, _ZL28__gthrw___pthread_key_createPjPFvPvE@GOTPCREL(%rip)
	je	.L2328
	lock subl	$1, 8(%rbp)
	je	.L2336
.L2327:
	addq	$8, %rsp
	.cfi_remember_state
	.cfi_def_cfa_offset 24
	movq	%rbx, %rdi
	popq	%rbx
	.cfi_def_cfa_offset 16
	popq	%rbp
	.cfi_def_cfa_offset 8
	jmp	_ZN8asiodnp39IOHandlerD2Ev@PLT
	.p2align 4,,10
	.p2align 3
.L2328:
	.cfi_restore_state
	movl	8(%rbp), %eax
	leal	-1(%rax), %edx
	cmpl	$1, %eax
	movl	%edx, 8(%rbp)
	jne	.L2327
	movq	0(%rbp), %rax
	movq	%rbp, %rdi
	call	*16(%rax)
	movl	12(%rbp), %eax
	leal	-1(%rax), %edx
	movl	%edx, 12(%rbp)
	jmp	.L2333
	.p2align 4,,10
	.p2align 3
.L2321:
	movl	8(%rbp), %eax
	leal	-1(%rax), %edx
	cmpl	$1, %eax
	movl	%edx, 8(%rbp)
	jne	.L2320
	movq	0(%rbp), %rax
	movq	%rbp, %rdi
	call	*16(%rax)
	movl	12(%rbp), %eax
	leal	-1(%rax), %edx
	movl	%edx, 12(%rbp)
	jmp	.L2332
	.p2align 4,,10
	.p2align 3
.L2336:
	movq	0(%rbp), %rax
	movq	%rbp, %rdi
	call	*16(%rax)
	movl	$-1, %eax
	lock xaddl	%eax, 12(%rbp)
.L2333:
	cmpl	$1, %eax
	jne	.L2327
	movq	0(%rbp), %rax
	movq	%rbp, %rdi
	call	*24(%rax)
	jmp	.L2327
	.p2align 4,,10
	.p2align 3
.L2335:
	movq	0(%rbp), %rax
	movq	%rbp, %rdi
	call	*16(%rax)
	movl	$-1, %eax
	lock xaddl	%eax, 12(%rbp)
.L2332:
	cmpl	$1, %eax
	jne	.L2320
	movq	0(%rbp), %rax
	movq	%rbp, %rdi
	call	*24(%rax)
	jmp	.L2320
	.cfi_endproc
.LFE10179:
	.size	_ZN8asiodnp318TCPServerIOHandlerD2Ev, .-_ZN8asiodnp318TCPServerIOHandlerD2Ev
	.weak	_ZN8asiodnp318TCPServerIOHandlerD1Ev
	.set	_ZN8asiodnp318TCPServerIOHandlerD1Ev,_ZN8asiodnp318TCPServerIOHandlerD2Ev
	.section	.text._ZN8asiodnp318TCPServerIOHandlerD0Ev,"axG",@progbits,_ZN8asiodnp318TCPServerIOHandlerD5Ev,comdat
	.p2align 4,,15
	.weak	_ZThn8_N8asiodnp318TCPServerIOHandlerD0Ev
	.type	_ZThn8_N8asiodnp318TCPServerIOHandlerD0Ev, @function
_ZThn8_N8asiodnp318TCPServerIOHandlerD0Ev:
.LFB10530:
	.cfi_startproc
	movq	_ZTVN8asiodnp318TCPServerIOHandlerE@GOTPCREL(%rip), %rax
	pushq	%r12
	.cfi_def_cfa_offset 16
	.cfi_offset 12, -16
	leaq	-8(%rdi), %r12
	pushq	%rbp
	.cfi_def_cfa_offset 24
	.cfi_offset 6, -24
	pushq	%rbx
	.cfi_def_cfa_offset 32
	.cfi_offset 3, -32
	movq	%rdi, %rbx
	movq	856(%rdi), %rbp
	leaq	16(%rax), %rdx
	addq	$104, %rax
	movq	%rax, (%rdi)
	testq	%rbp, %rbp
	movq	%rdx, -8(%rdi)
	je	.L2339
	cmpq	$0, _ZL28__gthrw___pthread_key_createPjPFvPvE@GOTPCREL(%rip)
	je	.L2340
	lock subl	$1, 8(%rbp)
	je	.L2354
.L2339:
	movq	808(%rbx), %rdi
	leaq	824(%rbx), %rax
	cmpq	%rax, %rdi
	je	.L2344
	call	_ZdlPv@PLT
.L2344:
	movq	800(%rbx), %rbx
	testq	%rbx, %rbx
	je	.L2346
	cmpq	$0, _ZL28__gthrw___pthread_key_createPjPFvPvE@GOTPCREL(%rip)
	je	.L2347
	lock subl	$1, 8(%rbx)
	je	.L2355
.L2346:
	movq	%r12, %rdi
	call	_ZN8asiodnp39IOHandlerD2Ev@PLT
	popq	%rbx
	.cfi_remember_state
	.cfi_def_cfa_offset 24
	movq	%r12, %rdi
	movl	$872, %esi
	popq	%rbp
	.cfi_def_cfa_offset 16
	popq	%r12
	.cfi_def_cfa_offset 8
	jmp	_ZdlPvm@PLT
	.p2align 4,,10
	.p2align 3
.L2347:
	.cfi_restore_state
	movl	8(%rbx), %eax
	leal	-1(%rax), %edx
	cmpl	$1, %eax
	movl	%edx, 8(%rbx)
	jne	.L2346
	movq	(%rbx), %rax
	movq	%rbx, %rdi
	call	*16(%rax)
	movl	12(%rbx), %eax
	leal	-1(%rax), %edx
	movl	%edx, 12(%rbx)
	jmp	.L2352
	.p2align 4,,10
	.p2align 3
.L2340:
	movl	8(%rbp), %eax
	leal	-1(%rax), %edx
	cmpl	$1, %eax
	movl	%edx, 8(%rbp)
	jne	.L2339
	movq	0(%rbp), %rax
	movq	%rbp, %rdi
	call	*16(%rax)
	movl	12(%rbp), %eax
	leal	-1(%rax), %edx
	movl	%edx, 12(%rbp)
	jmp	.L2351
	.p2align 4,,10
	.p2align 3
.L2355:
	movq	(%rbx), %rax
	movq	%rbx, %rdi
	call	*16(%rax)
	movl	$-1, %eax
	lock xaddl	%eax, 12(%rbx)
.L2352:
	cmpl	$1, %eax
	jne	.L2346
	movq	(%rbx), %rax
	movq	%rbx, %rdi
	call	*24(%rax)
	jmp	.L2346
	.p2align 4,,10
	.p2align 3
.L2354:
	movq	0(%rbp), %rax
	movq	%rbp, %rdi
	call	*16(%rax)
	movl	$-1, %eax
	lock xaddl	%eax, 12(%rbp)
.L2351:
	cmpl	$1, %eax
	jne	.L2339
	movq	0(%rbp), %rax
	movq	%rbp, %rdi
	call	*24(%rax)
	jmp	.L2339
	.cfi_endproc
.LFE10530:
	.size	_ZThn8_N8asiodnp318TCPServerIOHandlerD0Ev, .-_ZThn8_N8asiodnp318TCPServerIOHandlerD0Ev
	.align 2
	.p2align 4,,15
	.weak	_ZN8asiodnp318TCPServerIOHandlerD0Ev
	.type	_ZN8asiodnp318TCPServerIOHandlerD0Ev, @function
_ZN8asiodnp318TCPServerIOHandlerD0Ev:
.LFB10181:
	.cfi_startproc
	pushq	%rbp
	.cfi_def_cfa_offset 16
	.cfi_offset 6, -16
	pushq	%rbx
	.cfi_def_cfa_offset 24
	.cfi_offset 3, -24
	movq	%rdi, %rbx
	subq	$8, %rsp
	.cfi_def_cfa_offset 32
	movq	_ZTVN8asiodnp318TCPServerIOHandlerE@GOTPCREL(%rip), %rax
	movq	864(%rdi), %rbp
	leaq	16(%rax), %rdx
	addq	$104, %rax
	testq	%rbp, %rbp
	movq	%rax, 8(%rdi)
	movq	%rdx, (%rdi)
	je	.L2358
	cmpq	$0, _ZL28__gthrw___pthread_key_createPjPFvPvE@GOTPCREL(%rip)
	je	.L2359
	lock subl	$1, 8(%rbp)
	je	.L2373
.L2358:
	movq	816(%rbx), %rdi
	leaq	832(%rbx), %rax
	cmpq	%rax, %rdi
	je	.L2363
	call	_ZdlPv@PLT
.L2363:
	movq	808(%rbx), %rbp
	testq	%rbp, %rbp
	je	.L2365
	cmpq	$0, _ZL28__gthrw___pthread_key_createPjPFvPvE@GOTPCREL(%rip)
	je	.L2366
	lock subl	$1, 8(%rbp)
	je	.L2374
.L2365:
	movq	%rbx, %rdi
	call	_ZN8asiodnp39IOHandlerD2Ev@PLT
	addq	$8, %rsp
	.cfi_remember_state
	.cfi_def_cfa_offset 24
	movq	%rbx, %rdi
	movl	$872, %esi
	popq	%rbx
	.cfi_def_cfa_offset 16
	popq	%rbp
	.cfi_def_cfa_offset 8
	jmp	_ZdlPvm@PLT
	.p2align 4,,10
	.p2align 3
.L2366:
	.cfi_restore_state
	movl	8(%rbp), %eax
	leal	-1(%rax), %edx
	cmpl	$1, %eax
	movl	%edx, 8(%rbp)
	jne	.L2365
	movq	0(%rbp), %rax
	movq	%rbp, %rdi
	call	*16(%rax)
	movl	12(%rbp), %eax
	leal	-1(%rax), %edx
	movl	%edx, 12(%rbp)
	jmp	.L2371
	.p2align 4,,10
	.p2align 3
.L2359:
	movl	8(%rbp), %eax
	leal	-1(%rax), %edx
	cmpl	$1, %eax
	movl	%edx, 8(%rbp)
	jne	.L2358
	movq	0(%rbp), %rax
	movq	%rbp, %rdi
	call	*16(%rax)
	movl	12(%rbp), %eax
	leal	-1(%rax), %edx
	movl	%edx, 12(%rbp)
	jmp	.L2370
	.p2align 4,,10
	.p2align 3
.L2374:
	movq	0(%rbp), %rax
	movq	%rbp, %rdi
	call	*16(%rax)
	movl	$-1, %eax
	lock xaddl	%eax, 12(%rbp)
.L2371:
	cmpl	$1, %eax
	jne	.L2365
	movq	0(%rbp), %rax
	movq	%rbp, %rdi
	call	*24(%rax)
	jmp	.L2365
	.p2align 4,,10
	.p2align 3
.L2373:
	movq	0(%rbp), %rax
	movq	%rbp, %rdi
	call	*16(%rax)
	movl	$-1, %eax
	lock xaddl	%eax, 12(%rbp)
.L2370:
	cmpl	$1, %eax
	jne	.L2358
	movq	0(%rbp), %rax
	movq	%rbp, %rdi
	call	*24(%rax)
	jmp	.L2358
	.cfi_endproc
.LFE10181:
	.size	_ZN8asiodnp318TCPServerIOHandlerD0Ev, .-_ZN8asiodnp318TCPServerIOHandlerD0Ev
	.section	.text._ZN8asiodnp318TCPServerIOHandlerD2Ev,"axG",@progbits,_ZN8asiodnp318TCPServerIOHandlerD5Ev,comdat
	.p2align 4,,15
	.weak	_ZThn8_N8asiodnp318TCPServerIOHandlerD1Ev
	.type	_ZThn8_N8asiodnp318TCPServerIOHandlerD1Ev, @function
_ZThn8_N8asiodnp318TCPServerIOHandlerD1Ev:
.LFB10531:
	.cfi_startproc
	pushq	%rbp
	.cfi_def_cfa_offset 16
	.cfi_offset 6, -16
	pushq	%rbx
	.cfi_def_cfa_offset 24
	.cfi_offset 3, -24
	movq	%rdi, %rbx
	subq	$8, %rsp
	.cfi_def_cfa_offset 32
	movq	_ZTVN8asiodnp318TCPServerIOHandlerE@GOTPCREL(%rip), %rax
	movq	856(%rdi), %rbp
	leaq	16(%rax), %rdx
	addq	$104, %rax
	testq	%rbp, %rbp
	movq	%rax, (%rdi)
	movq	%rdx, -8(%rdi)
	je	.L2377
	cmpq	$0, _ZL28__gthrw___pthread_key_createPjPFvPvE@GOTPCREL(%rip)
	je	.L2378
	lock subl	$1, 8(%rbp)
	je	.L2392
.L2377:
	movq	808(%rbx), %rdi
	leaq	824(%rbx), %rax
	cmpq	%rax, %rdi
	je	.L2382
	call	_ZdlPv@PLT
.L2382:
	movq	800(%rbx), %rbp
	testq	%rbp, %rbp
	je	.L2384
	cmpq	$0, _ZL28__gthrw___pthread_key_createPjPFvPvE@GOTPCREL(%rip)
	je	.L2385
	lock subl	$1, 8(%rbp)
	je	.L2393
.L2384:
	addq	$8, %rsp
	.cfi_remember_state
	.cfi_def_cfa_offset 24
	leaq	-8(%rbx), %rdi
	popq	%rbx
	.cfi_def_cfa_offset 16
	popq	%rbp
	.cfi_def_cfa_offset 8
	jmp	_ZN8asiodnp39IOHandlerD2Ev@PLT
	.p2align 4,,10
	.p2align 3
.L2385:
	.cfi_restore_state
	movl	8(%rbp), %eax
	leal	-1(%rax), %edx
	cmpl	$1, %eax
	movl	%edx, 8(%rbp)
	jne	.L2384
	movq	0(%rbp), %rax
	movq	%rbp, %rdi
	call	*16(%rax)
	movl	12(%rbp), %eax
	leal	-1(%rax), %edx
	movl	%edx, 12(%rbp)
	jmp	.L2390
	.p2align 4,,10
	.p2align 3
.L2378:
	movl	8(%rbp), %eax
	leal	-1(%rax), %edx
	cmpl	$1, %eax
	movl	%edx, 8(%rbp)
	jne	.L2377
	movq	0(%rbp), %rax
	movq	%rbp, %rdi
	call	*16(%rax)
	movl	12(%rbp), %eax
	leal	-1(%rax), %edx
	movl	%edx, 12(%rbp)
	jmp	.L2389
	.p2align 4,,10
	.p2align 3
.L2393:
	movq	0(%rbp), %rax
	movq	%rbp, %rdi
	call	*16(%rax)
	movl	$-1, %eax
	lock xaddl	%eax, 12(%rbp)
.L2390:
	cmpl	$1, %eax
	jne	.L2384
	movq	0(%rbp), %rax
	movq	%rbp, %rdi
	call	*24(%rax)
	jmp	.L2384
	.p2align 4,,10
	.p2align 3
.L2392:
	movq	0(%rbp), %rax
	movq	%rbp, %rdi
	call	*16(%rax)
	movl	$-1, %eax
	lock xaddl	%eax, 12(%rbp)
.L2389:
	cmpl	$1, %eax
	jne	.L2377
	movq	0(%rbp), %rax
	movq	%rbp, %rdi
	call	*24(%rax)
	jmp	.L2377
	.cfi_endproc
.LFE10531:
	.size	_ZThn8_N8asiodnp318TCPServerIOHandlerD1Ev, .-_ZThn8_N8asiodnp318TCPServerIOHandlerD1Ev
	.section	.text.startup,"ax",@progbits
	.p2align 4,,15
	.type	_GLOBAL__sub_I_TCPServerIOHandler.cpp, @function
_GLOBAL__sub_I_TCPServerIOHandler.cpp:
.LFB10386:
	.cfi_startproc
	pushq	%rbx
	.cfi_def_cfa_offset 16
	.cfi_offset 3, -16
	call	_ZN4asio15system_categoryEv@PLT
	movq	_ZGVZN4asio5error18get_netdb_categoryEvE8instance@GOTPCREL(%rip), %rbx
	movzbl	(%rbx), %eax
	testb	%al, %al
	je	.L2419
.L2396:
	movq	_ZGVZN4asio5error21get_addrinfo_categoryEvE8instance@GOTPCREL(%rip), %rbx
	movzbl	(%rbx), %eax
	testb	%al, %al
	je	.L2420
.L2399:
	movq	_ZGVZN4asio5error17get_misc_categoryEvE8instance@GOTPCREL(%rip), %rbx
	movzbl	(%rbx), %eax
	testb	%al, %al
	je	.L2421
.L2402:
	movq	_ZGVN4asio6detail10call_stackINS0_15task_io_serviceENS0_27task_io_service_thread_infoEE4top_E@GOTPCREL(%rip), %rax
	cmpb	$0, (%rax)
	je	.L2422
.L2404:
	movq	_ZGVN4asio6detail12service_baseINS0_13epoll_reactorEE2idE@GOTPCREL(%rip), %rax
	cmpb	$0, (%rax)
	je	.L2423
.L2405:
	movq	_ZGVN4asio6detail12service_baseINS0_15task_io_serviceEE2idE@GOTPCREL(%rip), %rax
	cmpb	$0, (%rax)
	je	.L2424
.L2406:
	movq	_ZGVN4asio6detail10call_stackINS0_14strand_service11strand_implEhE4top_E@GOTPCREL(%rip), %rax
	cmpb	$0, (%rax)
	je	.L2425
.L2407:
	movq	_ZGVN4asio6detail12service_baseINS0_14strand_serviceEE2idE@GOTPCREL(%rip), %rax
	cmpb	$0, (%rax)
	je	.L2426
	popq	%rbx
	.cfi_remember_state
	.cfi_def_cfa_offset 8
	ret
.L2419:
	.cfi_restore_state
	movq	%rbx, %rdi
	call	__cxa_guard_acquire@PLT
	testl	%eax, %eax
	je	.L2396
	movq	%rbx, %rdi
	call	__cxa_guard_release@PLT
	movq	_ZZN4asio5error18get_netdb_categoryEvE8instance@GOTPCREL(%rip), %rsi
	movq	_ZN4asio5error6detail14netdb_categoryD1Ev@GOTPCREL(%rip), %rdi
	leaq	__dso_handle(%rip), %rdx
	call	__cxa_atexit@PLT
	jmp	.L2396
.L2426:
	movb	$1, (%rax)
	movq	_ZN4asio6detail12service_baseINS0_14strand_serviceEE2idE@GOTPCREL(%rip), %rsi
	leaq	__dso_handle(%rip), %rdx
	popq	%rbx
	.cfi_remember_state
	.cfi_def_cfa_offset 8
	movq	_ZN4asio6detail10service_idINS0_14strand_serviceEED1Ev@GOTPCREL(%rip), %rdi
	jmp	__cxa_atexit@PLT
.L2421:
	.cfi_restore_state
	movq	%rbx, %rdi
	call	__cxa_guard_acquire@PLT
	testl	%eax, %eax
	je	.L2402
	movq	%rbx, %rdi
	call	__cxa_guard_release@PLT
	movq	_ZZN4asio5error17get_misc_categoryEvE8instance@GOTPCREL(%rip), %rsi
	movq	_ZN4asio5error6detail13misc_categoryD1Ev@GOTPCREL(%rip), %rdi
	leaq	__dso_handle(%rip), %rdx
	call	__cxa_atexit@PLT
	jmp	.L2402
.L2420:
	movq	%rbx, %rdi
	call	__cxa_guard_acquire@PLT
	testl	%eax, %eax
	je	.L2399
	movq	%rbx, %rdi
	call	__cxa_guard_release@PLT
	movq	_ZZN4asio5error21get_addrinfo_categoryEvE8instance@GOTPCREL(%rip), %rsi
	movq	_ZN4asio5error6detail17addrinfo_categoryD1Ev@GOTPCREL(%rip), %rdi
	leaq	__dso_handle(%rip), %rdx
	call	__cxa_atexit@PLT
	jmp	.L2399
.L2425:
	movq	_ZN4asio6detail10call_stackINS0_14strand_service11strand_implEhE4top_E@GOTPCREL(%rip), %rsi
	movq	_ZN4asio6detail7tss_ptrINS0_10call_stackINS0_14strand_service11strand_implEhE7contextEED1Ev@GOTPCREL(%rip), %rdi
	leaq	__dso_handle(%rip), %rdx
	movb	$1, (%rax)
	call	__cxa_atexit@PLT
	jmp	.L2407
.L2424:
	movq	_ZN4asio6detail12service_baseINS0_15task_io_serviceEE2idE@GOTPCREL(%rip), %rsi
	movq	_ZN4asio6detail10service_idINS0_15task_io_serviceEED1Ev@GOTPCREL(%rip), %rdi
	leaq	__dso_handle(%rip), %rdx
	movb	$1, (%rax)
	call	__cxa_atexit@PLT
	jmp	.L2406
.L2423:
	movq	_ZN4asio6detail12service_baseINS0_13epoll_reactorEE2idE@GOTPCREL(%rip), %rsi
	movq	_ZN4asio6detail10service_idINS0_13epoll_reactorEED1Ev@GOTPCREL(%rip), %rdi
	leaq	__dso_handle(%rip), %rdx
	movb	$1, (%rax)
	call	__cxa_atexit@PLT
	jmp	.L2405
.L2422:
	movq	_ZN4asio6detail10call_stackINS0_15task_io_serviceENS0_27task_io_service_thread_infoEE4top_E@GOTPCREL(%rip), %rsi
	movq	_ZN4asio6detail7tss_ptrINS0_10call_stackINS0_15task_io_serviceENS0_27task_io_service_thread_infoEE7contextEED1Ev@GOTPCREL(%rip), %rdi
	leaq	__dso_handle(%rip), %rdx
	movb	$1, (%rax)
	call	__cxa_atexit@PLT
	jmp	.L2404
	.cfi_endproc
.LFE10386:
	.size	_GLOBAL__sub_I_TCPServerIOHandler.cpp, .-_GLOBAL__sub_I_TCPServerIOHandler.cpp
	.section	.init_array,"aw"
	.align 8
	.quad	_GLOBAL__sub_I_TCPServerIOHandler.cpp
	.weak	_ZTSSt11_Mutex_baseILN9__gnu_cxx12_Lock_policyE2EE
	.section	.rodata._ZTSSt11_Mutex_baseILN9__gnu_cxx12_Lock_policyE2EE,"aG",@progbits,_ZTSSt11_Mutex_baseILN9__gnu_cxx12_Lock_policyE2EE,comdat
	.align 32
	.type	_ZTSSt11_Mutex_baseILN9__gnu_cxx12_Lock_policyE2EE, @object
	.size	_ZTSSt11_Mutex_baseILN9__gnu_cxx12_Lock_policyE2EE, 47
_ZTSSt11_Mutex_baseILN9__gnu_cxx12_Lock_policyE2EE:
	.string	"St11_Mutex_baseILN9__gnu_cxx12_Lock_policyE2EE"
	.weak	_ZTISt11_Mutex_baseILN9__gnu_cxx12_Lock_policyE2EE
	.section	.data.rel.ro._ZTISt11_Mutex_baseILN9__gnu_cxx12_Lock_policyE2EE,"awG",@progbits,_ZTISt11_Mutex_baseILN9__gnu_cxx12_Lock_policyE2EE,comdat
	.align 8
	.type	_ZTISt11_Mutex_baseILN9__gnu_cxx12_Lock_policyE2EE, @object
	.size	_ZTISt11_Mutex_baseILN9__gnu_cxx12_Lock_policyE2EE, 16
_ZTISt11_Mutex_baseILN9__gnu_cxx12_Lock_policyE2EE:
	.quad	_ZTVN10__cxxabiv117__class_type_infoE+16
	.quad	_ZTSSt11_Mutex_baseILN9__gnu_cxx12_Lock_policyE2EE
	.weak	_ZTSN7openpal10UncopyableE
	.section	.rodata._ZTSN7openpal10UncopyableE,"aG",@progbits,_ZTSN7openpal10UncopyableE,comdat
	.align 16
	.type	_ZTSN7openpal10UncopyableE, @object
	.size	_ZTSN7openpal10UncopyableE, 23
_ZTSN7openpal10UncopyableE:
	.string	"N7openpal10UncopyableE"
	.weak	_ZTIN7openpal10UncopyableE
	.section	.data.rel.ro._ZTIN7openpal10UncopyableE,"awG",@progbits,_ZTIN7openpal10UncopyableE,comdat
	.align 8
	.type	_ZTIN7openpal10UncopyableE, @object
	.size	_ZTIN7openpal10UncopyableE, 16
_ZTIN7openpal10UncopyableE:
	.quad	_ZTVN10__cxxabiv117__class_type_infoE+16
	.quad	_ZTSN7openpal10UncopyableE
	.weak	_ZTSSt23enable_shared_from_thisIN7asiopal13IAsyncChannelEE
	.section	.rodata._ZTSSt23enable_shared_from_thisIN7asiopal13IAsyncChannelEE,"aG",@progbits,_ZTSSt23enable_shared_from_thisIN7asiopal13IAsyncChannelEE,comdat
	.align 32
	.type	_ZTSSt23enable_shared_from_thisIN7asiopal13IAsyncChannelEE, @object
	.size	_ZTSSt23enable_shared_from_thisIN7asiopal13IAsyncChannelEE, 55
_ZTSSt23enable_shared_from_thisIN7asiopal13IAsyncChannelEE:
	.string	"St23enable_shared_from_thisIN7asiopal13IAsyncChannelEE"
	.weak	_ZTISt23enable_shared_from_thisIN7asiopal13IAsyncChannelEE
	.section	.data.rel.ro._ZTISt23enable_shared_from_thisIN7asiopal13IAsyncChannelEE,"awG",@progbits,_ZTISt23enable_shared_from_thisIN7asiopal13IAsyncChannelEE,comdat
	.align 8
	.type	_ZTISt23enable_shared_from_thisIN7asiopal13IAsyncChannelEE, @object
	.size	_ZTISt23enable_shared_from_thisIN7asiopal13IAsyncChannelEE, 16
_ZTISt23enable_shared_from_thisIN7asiopal13IAsyncChannelEE:
	.quad	_ZTVN10__cxxabiv117__class_type_infoE+16
	.quad	_ZTSSt23enable_shared_from_thisIN7asiopal13IAsyncChannelEE
	.weak	_ZGVN4asio6detail12service_baseINS0_14strand_serviceEE2idE
	.section	.bss._ZGVN4asio6detail12service_baseINS0_14strand_serviceEE2idE,"awG",@nobits,_ZGVN4asio6detail12service_baseINS0_14strand_serviceEE2idE,comdat
	.align 8
	.type	_ZGVN4asio6detail12service_baseINS0_14strand_serviceEE2idE, @gnu_unique_object
	.size	_ZGVN4asio6detail12service_baseINS0_14strand_serviceEE2idE, 8
_ZGVN4asio6detail12service_baseINS0_14strand_serviceEE2idE:
	.zero	8
	.weak	_ZGVN4asio6detail10call_stackINS0_14strand_service11strand_implEhE4top_E
	.section	.bss._ZGVN4asio6detail10call_stackINS0_14strand_service11strand_implEhE4top_E,"awG",@nobits,_ZGVN4asio6detail10call_stackINS0_14strand_service11strand_implEhE4top_E,comdat
	.align 8
	.type	_ZGVN4asio6detail10call_stackINS0_14strand_service11strand_implEhE4top_E, @gnu_unique_object
	.size	_ZGVN4asio6detail10call_stackINS0_14strand_service11strand_implEhE4top_E, 8
_ZGVN4asio6detail10call_stackINS0_14strand_service11strand_implEhE4top_E:
	.zero	8
	.weak	_ZGVN4asio6detail12service_baseINS0_15task_io_serviceEE2idE
	.section	.bss._ZGVN4asio6detail12service_baseINS0_15task_io_serviceEE2idE,"awG",@nobits,_ZGVN4asio6detail12service_baseINS0_15task_io_serviceEE2idE,comdat
	.align 8
	.type	_ZGVN4asio6detail12service_baseINS0_15task_io_serviceEE2idE, @gnu_unique_object
	.size	_ZGVN4asio6detail12service_baseINS0_15task_io_serviceEE2idE, 8
_ZGVN4asio6detail12service_baseINS0_15task_io_serviceEE2idE:
	.zero	8
	.weak	_ZGVN4asio6detail12service_baseINS0_13epoll_reactorEE2idE
	.section	.bss._ZGVN4asio6detail12service_baseINS0_13epoll_reactorEE2idE,"awG",@nobits,_ZGVN4asio6detail12service_baseINS0_13epoll_reactorEE2idE,comdat
	.align 8
	.type	_ZGVN4asio6detail12service_baseINS0_13epoll_reactorEE2idE, @gnu_unique_object
	.size	_ZGVN4asio6detail12service_baseINS0_13epoll_reactorEE2idE, 8
_ZGVN4asio6detail12service_baseINS0_13epoll_reactorEE2idE:
	.zero	8
	.weak	_ZGVN4asio6detail10call_stackINS0_15task_io_serviceENS0_27task_io_service_thread_infoEE4top_E
	.section	.bss._ZGVN4asio6detail10call_stackINS0_15task_io_serviceENS0_27task_io_service_thread_infoEE4top_E,"awG",@nobits,_ZGVN4asio6detail10call_stackINS0_15task_io_serviceENS0_27task_io_service_thread_infoEE4top_E,comdat
	.align 8
	.type	_ZGVN4asio6detail10call_stackINS0_15task_io_serviceENS0_27task_io_service_thread_infoEE4top_E, @gnu_unique_object
	.size	_ZGVN4asio6detail10call_stackINS0_15task_io_serviceENS0_27task_io_service_thread_infoEE4top_E, 8
_ZGVN4asio6detail10call_stackINS0_15task_io_serviceENS0_27task_io_service_thread_infoEE4top_E:
	.zero	8
	.weak	_ZN4asio6detail12service_baseINS0_14strand_serviceEE2idE
	.section	.bss._ZN4asio6detail12service_baseINS0_14strand_serviceEE2idE,"awG",@nobits,_ZN4asio6detail12service_baseINS0_14strand_serviceEE2idE,comdat
	.type	_ZN4asio6detail12service_baseINS0_14strand_serviceEE2idE, @gnu_unique_object
	.size	_ZN4asio6detail12service_baseINS0_14strand_serviceEE2idE, 1
_ZN4asio6detail12service_baseINS0_14strand_serviceEE2idE:
	.zero	1
	.weak	_ZN4asio6detail10call_stackINS0_14strand_service11strand_implEhE4top_E
	.section	.bss._ZN4asio6detail10call_stackINS0_14strand_service11strand_implEhE4top_E,"awG",@nobits,_ZN4asio6detail10call_stackINS0_14strand_service11strand_implEhE4top_E,comdat
	.type	_ZN4asio6detail10call_stackINS0_14strand_service11strand_implEhE4top_E, @gnu_unique_object
	.size	_ZN4asio6detail10call_stackINS0_14strand_service11strand_implEhE4top_E, 1
_ZN4asio6detail10call_stackINS0_14strand_service11strand_implEhE4top_E:
	.zero	1
	.weak	_ZN4asio6detail12service_baseINS0_15task_io_serviceEE2idE
	.section	.bss._ZN4asio6detail12service_baseINS0_15task_io_serviceEE2idE,"awG",@nobits,_ZN4asio6detail12service_baseINS0_15task_io_serviceEE2idE,comdat
	.type	_ZN4asio6detail12service_baseINS0_15task_io_serviceEE2idE, @gnu_unique_object
	.size	_ZN4asio6detail12service_baseINS0_15task_io_serviceEE2idE, 1
_ZN4asio6detail12service_baseINS0_15task_io_serviceEE2idE:
	.zero	1
	.weak	_ZN4asio6detail12service_baseINS0_13epoll_reactorEE2idE
	.section	.bss._ZN4asio6detail12service_baseINS0_13epoll_reactorEE2idE,"awG",@nobits,_ZN4asio6detail12service_baseINS0_13epoll_reactorEE2idE,comdat
	.type	_ZN4asio6detail12service_baseINS0_13epoll_reactorEE2idE, @gnu_unique_object
	.size	_ZN4asio6detail12service_baseINS0_13epoll_reactorEE2idE, 1
_ZN4asio6detail12service_baseINS0_13epoll_reactorEE2idE:
	.zero	1
	.weak	_ZN4asio6detail10call_stackINS0_15task_io_serviceENS0_27task_io_service_thread_infoEE4top_E
	.section	.bss._ZN4asio6detail10call_stackINS0_15task_io_serviceENS0_27task_io_service_thread_infoEE4top_E,"awG",@nobits,_ZN4asio6detail10call_stackINS0_15task_io_serviceENS0_27task_io_service_thread_infoEE4top_E,comdat
	.type	_ZN4asio6detail10call_stackINS0_15task_io_serviceENS0_27task_io_service_thread_infoEE4top_E, @gnu_unique_object
	.size	_ZN4asio6detail10call_stackINS0_15task_io_serviceENS0_27task_io_service_thread_infoEE4top_E, 1
_ZN4asio6detail10call_stackINS0_15task_io_serviceENS0_27task_io_service_thread_infoEE4top_E:
	.zero	1
	.weak	_ZTSSt16_Sp_counted_baseILN9__gnu_cxx12_Lock_policyE2EE
	.section	.rodata._ZTSSt16_Sp_counted_baseILN9__gnu_cxx12_Lock_policyE2EE,"aG",@progbits,_ZTSSt16_Sp_counted_baseILN9__gnu_cxx12_Lock_policyE2EE,comdat
	.align 32
	.type	_ZTSSt16_Sp_counted_baseILN9__gnu_cxx12_Lock_policyE2EE, @object
	.size	_ZTSSt16_Sp_counted_baseILN9__gnu_cxx12_Lock_policyE2EE, 52
_ZTSSt16_Sp_counted_baseILN9__gnu_cxx12_Lock_policyE2EE:
	.string	"St16_Sp_counted_baseILN9__gnu_cxx12_Lock_policyE2EE"
	.weak	_ZTISt16_Sp_counted_baseILN9__gnu_cxx12_Lock_policyE2EE
	.section	.data.rel.ro._ZTISt16_Sp_counted_baseILN9__gnu_cxx12_Lock_policyE2EE,"awG",@progbits,_ZTISt16_Sp_counted_baseILN9__gnu_cxx12_Lock_policyE2EE,comdat
	.align 8
	.type	_ZTISt16_Sp_counted_baseILN9__gnu_cxx12_Lock_policyE2EE, @object
	.size	_ZTISt16_Sp_counted_baseILN9__gnu_cxx12_Lock_policyE2EE, 24
_ZTISt16_Sp_counted_baseILN9__gnu_cxx12_Lock_policyE2EE:
	.quad	_ZTVN10__cxxabiv120__si_class_type_infoE+16
	.quad	_ZTSSt16_Sp_counted_baseILN9__gnu_cxx12_Lock_policyE2EE
	.quad	_ZTISt11_Mutex_baseILN9__gnu_cxx12_Lock_policyE2EE
	.weak	_ZTSN4asio6detail15system_categoryE
	.section	.rodata._ZTSN4asio6detail15system_categoryE,"aG",@progbits,_ZTSN4asio6detail15system_categoryE,comdat
	.align 32
	.type	_ZTSN4asio6detail15system_categoryE, @object
	.size	_ZTSN4asio6detail15system_categoryE, 32
_ZTSN4asio6detail15system_categoryE:
	.string	"N4asio6detail15system_categoryE"
	.weak	_ZTIN4asio6detail15system_categoryE
	.section	.data.rel.ro._ZTIN4asio6detail15system_categoryE,"awG",@progbits,_ZTIN4asio6detail15system_categoryE,comdat
	.align 8
	.type	_ZTIN4asio6detail15system_categoryE, @object
	.size	_ZTIN4asio6detail15system_categoryE, 24
_ZTIN4asio6detail15system_categoryE:
	.quad	_ZTVN10__cxxabiv120__si_class_type_infoE+16
	.quad	_ZTSN4asio6detail15system_categoryE
	.quad	_ZTINSt3_V214error_categoryE
	.weak	_ZTSN4asio5error6detail14netdb_categoryE
	.section	.rodata._ZTSN4asio5error6detail14netdb_categoryE,"aG",@progbits,_ZTSN4asio5error6detail14netdb_categoryE,comdat
	.align 32
	.type	_ZTSN4asio5error6detail14netdb_categoryE, @object
	.size	_ZTSN4asio5error6detail14netdb_categoryE, 37
_ZTSN4asio5error6detail14netdb_categoryE:
	.string	"N4asio5error6detail14netdb_categoryE"
	.weak	_ZTIN4asio5error6detail14netdb_categoryE
	.section	.data.rel.ro._ZTIN4asio5error6detail14netdb_categoryE,"awG",@progbits,_ZTIN4asio5error6detail14netdb_categoryE,comdat
	.align 8
	.type	_ZTIN4asio5error6detail14netdb_categoryE, @object
	.size	_ZTIN4asio5error6detail14netdb_categoryE, 24
_ZTIN4asio5error6detail14netdb_categoryE:
	.quad	_ZTVN10__cxxabiv120__si_class_type_infoE+16
	.quad	_ZTSN4asio5error6detail14netdb_categoryE
	.quad	_ZTINSt3_V214error_categoryE
	.weak	_ZTSN4asio5error6detail17addrinfo_categoryE
	.section	.rodata._ZTSN4asio5error6detail17addrinfo_categoryE,"aG",@progbits,_ZTSN4asio5error6detail17addrinfo_categoryE,comdat
	.align 32
	.type	_ZTSN4asio5error6detail17addrinfo_categoryE, @object
	.size	_ZTSN4asio5error6detail17addrinfo_categoryE, 40
_ZTSN4asio5error6detail17addrinfo_categoryE:
	.string	"N4asio5error6detail17addrinfo_categoryE"
	.weak	_ZTIN4asio5error6detail17addrinfo_categoryE
	.section	.data.rel.ro._ZTIN4asio5error6detail17addrinfo_categoryE,"awG",@progbits,_ZTIN4asio5error6detail17addrinfo_categoryE,comdat
	.align 8
	.type	_ZTIN4asio5error6detail17addrinfo_categoryE, @object
	.size	_ZTIN4asio5error6detail17addrinfo_categoryE, 24
_ZTIN4asio5error6detail17addrinfo_categoryE:
	.quad	_ZTVN10__cxxabiv120__si_class_type_infoE+16
	.quad	_ZTSN4asio5error6detail17addrinfo_categoryE
	.quad	_ZTINSt3_V214error_categoryE
	.weak	_ZTSN4asio5error6detail13misc_categoryE
	.section	.rodata._ZTSN4asio5error6detail13misc_categoryE,"aG",@progbits,_ZTSN4asio5error6detail13misc_categoryE,comdat
	.align 32
	.type	_ZTSN4asio5error6detail13misc_categoryE, @object
	.size	_ZTSN4asio5error6detail13misc_categoryE, 36
_ZTSN4asio5error6detail13misc_categoryE:
	.string	"N4asio5error6detail13misc_categoryE"
	.weak	_ZTIN4asio5error6detail13misc_categoryE
	.section	.data.rel.ro._ZTIN4asio5error6detail13misc_categoryE,"awG",@progbits,_ZTIN4asio5error6detail13misc_categoryE,comdat
	.align 8
	.type	_ZTIN4asio5error6detail13misc_categoryE, @object
	.size	_ZTIN4asio5error6detail13misc_categoryE, 24
_ZTIN4asio5error6detail13misc_categoryE:
	.quad	_ZTVN10__cxxabiv120__si_class_type_infoE+16
	.quad	_ZTSN4asio5error6detail13misc_categoryE
	.quad	_ZTINSt3_V214error_categoryE
	.weak	_ZTSN7asiopal13IAsyncChannelE
	.section	.rodata._ZTSN7asiopal13IAsyncChannelE,"aG",@progbits,_ZTSN7asiopal13IAsyncChannelE,comdat
	.align 16
	.type	_ZTSN7asiopal13IAsyncChannelE, @object
	.size	_ZTSN7asiopal13IAsyncChannelE, 26
_ZTSN7asiopal13IAsyncChannelE:
	.string	"N7asiopal13IAsyncChannelE"
	.weak	_ZTIN7asiopal13IAsyncChannelE
	.section	.data.rel.ro._ZTIN7asiopal13IAsyncChannelE,"awG",@progbits,_ZTIN7asiopal13IAsyncChannelE,comdat
	.align 8
	.type	_ZTIN7asiopal13IAsyncChannelE, @object
	.size	_ZTIN7asiopal13IAsyncChannelE, 56
_ZTIN7asiopal13IAsyncChannelE:
	.quad	_ZTVN10__cxxabiv121__vmi_class_type_infoE+16
	.quad	_ZTSN7asiopal13IAsyncChannelE
	.long	0
	.long	2
	.quad	_ZTISt23enable_shared_from_thisIN7asiopal13IAsyncChannelEE
	.quad	2050
	.quad	_ZTIN7openpal10UncopyableE
	.quad	0
	.weak	_ZTSN8asiodnp318TCPServerIOHandler6ServerE
	.section	.rodata._ZTSN8asiodnp318TCPServerIOHandler6ServerE,"aG",@progbits,_ZTSN8asiodnp318TCPServerIOHandler6ServerE,comdat
	.align 32
	.type	_ZTSN8asiodnp318TCPServerIOHandler6ServerE, @object
	.size	_ZTSN8asiodnp318TCPServerIOHandler6ServerE, 39
_ZTSN8asiodnp318TCPServerIOHandler6ServerE:
	.string	"N8asiodnp318TCPServerIOHandler6ServerE"
	.weak	_ZTIN8asiodnp318TCPServerIOHandler6ServerE
	.section	.data.rel.ro._ZTIN8asiodnp318TCPServerIOHandler6ServerE,"awG",@progbits,_ZTIN8asiodnp318TCPServerIOHandler6ServerE,comdat
	.align 8
	.type	_ZTIN8asiodnp318TCPServerIOHandler6ServerE, @object
	.size	_ZTIN8asiodnp318TCPServerIOHandler6ServerE, 24
_ZTIN8asiodnp318TCPServerIOHandler6ServerE:
	.quad	_ZTVN10__cxxabiv120__si_class_type_infoE+16
	.quad	_ZTSN8asiodnp318TCPServerIOHandler6ServerE
	.quad	_ZTIN7asiopal9TCPServerE
	.weak	_ZTSN8asiodnp318TCPServerIOHandlerE
	.section	.rodata._ZTSN8asiodnp318TCPServerIOHandlerE,"aG",@progbits,_ZTSN8asiodnp318TCPServerIOHandlerE,comdat
	.align 32
	.type	_ZTSN8asiodnp318TCPServerIOHandlerE, @object
	.size	_ZTSN8asiodnp318TCPServerIOHandlerE, 32
_ZTSN8asiodnp318TCPServerIOHandlerE:
	.string	"N8asiodnp318TCPServerIOHandlerE"
	.weak	_ZTIN8asiodnp318TCPServerIOHandlerE
	.section	.data.rel.ro._ZTIN8asiodnp318TCPServerIOHandlerE,"awG",@progbits,_ZTIN8asiodnp318TCPServerIOHandlerE,comdat
	.align 8
	.type	_ZTIN8asiodnp318TCPServerIOHandlerE, @object
	.size	_ZTIN8asiodnp318TCPServerIOHandlerE, 24
_ZTIN8asiodnp318TCPServerIOHandlerE:
	.quad	_ZTVN10__cxxabiv120__si_class_type_infoE+16
	.quad	_ZTSN8asiodnp318TCPServerIOHandlerE
	.quad	_ZTIN8asiodnp39IOHandlerE
	.section	.data.rel.ro,"aw",@progbits
	.align 8
	.type	_ZTIZN8asiodnp318TCPServerIOHandler18BeginChannelAcceptEvEUlRKSt10shared_ptrIN7asiopal8ExecutorEEN4asio19basic_stream_socketINS7_2ip3tcpENS7_21stream_socket_serviceISA_EEEEE_, @object
	.size	_ZTIZN8asiodnp318TCPServerIOHandler18BeginChannelAcceptEvEUlRKSt10shared_ptrIN7asiopal8ExecutorEEN4asio19basic_stream_socketINS7_2ip3tcpENS7_21stream_socket_serviceISA_EEEEE_, 16
_ZTIZN8asiodnp318TCPServerIOHandler18BeginChannelAcceptEvEUlRKSt10shared_ptrIN7asiopal8ExecutorEEN4asio19basic_stream_socketINS7_2ip3tcpENS7_21stream_socket_serviceISA_EEEEE_:
	.quad	_ZTVN10__cxxabiv117__class_type_infoE+16
	.quad	_ZTSZN8asiodnp318TCPServerIOHandler18BeginChannelAcceptEvEUlRKSt10shared_ptrIN7asiopal8ExecutorEEN4asio19basic_stream_socketINS7_2ip3tcpENS7_21stream_socket_serviceISA_EEEEE_
	.section	.rodata
	.align 32
	.type	_ZTSZN8asiodnp318TCPServerIOHandler18BeginChannelAcceptEvEUlRKSt10shared_ptrIN7asiopal8ExecutorEEN4asio19basic_stream_socketINS7_2ip3tcpENS7_21stream_socket_serviceISA_EEEEE_, @object
	.size	_ZTSZN8asiodnp318TCPServerIOHandler18BeginChannelAcceptEvEUlRKSt10shared_ptrIN7asiopal8ExecutorEEN4asio19basic_stream_socketINS7_2ip3tcpENS7_21stream_socket_serviceISA_EEEEE_, 172
_ZTSZN8asiodnp318TCPServerIOHandler18BeginChannelAcceptEvEUlRKSt10shared_ptrIN7asiopal8ExecutorEEN4asio19basic_stream_socketINS7_2ip3tcpENS7_21stream_socket_serviceISA_EEEEE_:
	.string	"*ZN8asiodnp318TCPServerIOHandler18BeginChannelAcceptEvEUlRKSt10shared_ptrIN7asiopal8ExecutorEEN4asio19basic_stream_socketINS7_2ip3tcpENS7_21stream_socket_serviceISA_EEEEE_"
	.weak	_ZTSSt19_Sp_make_shared_tag
	.section	.rodata._ZTSSt19_Sp_make_shared_tag,"aG",@progbits,_ZTSSt19_Sp_make_shared_tag,comdat
	.align 16
	.type	_ZTSSt19_Sp_make_shared_tag, @object
	.size	_ZTSSt19_Sp_make_shared_tag, 24
_ZTSSt19_Sp_make_shared_tag:
	.string	"St19_Sp_make_shared_tag"
	.weak	_ZTISt19_Sp_make_shared_tag
	.section	.data.rel.ro._ZTISt19_Sp_make_shared_tag,"awG",@progbits,_ZTISt19_Sp_make_shared_tag,comdat
	.align 8
	.type	_ZTISt19_Sp_make_shared_tag, @object
	.size	_ZTISt19_Sp_make_shared_tag, 16
_ZTISt19_Sp_make_shared_tag:
	.quad	_ZTVN10__cxxabiv117__class_type_infoE+16
	.quad	_ZTSSt19_Sp_make_shared_tag
	.weak	_ZTSSt23_Sp_counted_ptr_inplaceIN7asiopal13SocketChannelESaIS1_ELN9__gnu_cxx12_Lock_policyE2EE
	.section	.rodata._ZTSSt23_Sp_counted_ptr_inplaceIN7asiopal13SocketChannelESaIS1_ELN9__gnu_cxx12_Lock_policyE2EE,"aG",@progbits,_ZTSSt23_Sp_counted_ptr_inplaceIN7asiopal13SocketChannelESaIS1_ELN9__gnu_cxx12_Lock_policyE2EE,comdat
	.align 32
	.type	_ZTSSt23_Sp_counted_ptr_inplaceIN7asiopal13SocketChannelESaIS1_ELN9__gnu_cxx12_Lock_policyE2EE, @object
	.size	_ZTSSt23_Sp_counted_ptr_inplaceIN7asiopal13SocketChannelESaIS1_ELN9__gnu_cxx12_Lock_policyE2EE, 91
_ZTSSt23_Sp_counted_ptr_inplaceIN7asiopal13SocketChannelESaIS1_ELN9__gnu_cxx12_Lock_policyE2EE:
	.string	"St23_Sp_counted_ptr_inplaceIN7asiopal13SocketChannelESaIS1_ELN9__gnu_cxx12_Lock_policyE2EE"
	.weak	_ZTISt23_Sp_counted_ptr_inplaceIN7asiopal13SocketChannelESaIS1_ELN9__gnu_cxx12_Lock_policyE2EE
	.section	.data.rel.ro._ZTISt23_Sp_counted_ptr_inplaceIN7asiopal13SocketChannelESaIS1_ELN9__gnu_cxx12_Lock_policyE2EE,"awG",@progbits,_ZTISt23_Sp_counted_ptr_inplaceIN7asiopal13SocketChannelESaIS1_ELN9__gnu_cxx12_Lock_policyE2EE,comdat
	.align 8
	.type	_ZTISt23_Sp_counted_ptr_inplaceIN7asiopal13SocketChannelESaIS1_ELN9__gnu_cxx12_Lock_policyE2EE, @object
	.size	_ZTISt23_Sp_counted_ptr_inplaceIN7asiopal13SocketChannelESaIS1_ELN9__gnu_cxx12_Lock_policyE2EE, 24
_ZTISt23_Sp_counted_ptr_inplaceIN7asiopal13SocketChannelESaIS1_ELN9__gnu_cxx12_Lock_policyE2EE:
	.quad	_ZTVN10__cxxabiv120__si_class_type_infoE+16
	.quad	_ZTSSt23_Sp_counted_ptr_inplaceIN7asiopal13SocketChannelESaIS1_ELN9__gnu_cxx12_Lock_policyE2EE
	.quad	_ZTISt16_Sp_counted_baseILN9__gnu_cxx12_Lock_policyE2EE
	.weak	_ZTSSt23_Sp_counted_ptr_inplaceIN8asiodnp318TCPServerIOHandler6ServerESaIS2_ELN9__gnu_cxx12_Lock_policyE2EE
	.section	.rodata._ZTSSt23_Sp_counted_ptr_inplaceIN8asiodnp318TCPServerIOHandler6ServerESaIS2_ELN9__gnu_cxx12_Lock_policyE2EE,"aG",@progbits,_ZTSSt23_Sp_counted_ptr_inplaceIN8asiodnp318TCPServerIOHandler6ServerESaIS2_ELN9__gnu_cxx12_Lock_policyE2EE,comdat
	.align 32
	.type	_ZTSSt23_Sp_counted_ptr_inplaceIN8asiodnp318TCPServerIOHandler6ServerESaIS2_ELN9__gnu_cxx12_Lock_policyE2EE, @object
	.size	_ZTSSt23_Sp_counted_ptr_inplaceIN8asiodnp318TCPServerIOHandler6ServerESaIS2_ELN9__gnu_cxx12_Lock_policyE2EE, 104
_ZTSSt23_Sp_counted_ptr_inplaceIN8asiodnp318TCPServerIOHandler6ServerESaIS2_ELN9__gnu_cxx12_Lock_policyE2EE:
	.string	"St23_Sp_counted_ptr_inplaceIN8asiodnp318TCPServerIOHandler6ServerESaIS2_ELN9__gnu_cxx12_Lock_policyE2EE"
	.weak	_ZTISt23_Sp_counted_ptr_inplaceIN8asiodnp318TCPServerIOHandler6ServerESaIS2_ELN9__gnu_cxx12_Lock_policyE2EE
	.section	.data.rel.ro._ZTISt23_Sp_counted_ptr_inplaceIN8asiodnp318TCPServerIOHandler6ServerESaIS2_ELN9__gnu_cxx12_Lock_policyE2EE,"awG",@progbits,_ZTISt23_Sp_counted_ptr_inplaceIN8asiodnp318TCPServerIOHandler6ServerESaIS2_ELN9__gnu_cxx12_Lock_policyE2EE,comdat
	.align 8
	.type	_ZTISt23_Sp_counted_ptr_inplaceIN8asiodnp318TCPServerIOHandler6ServerESaIS2_ELN9__gnu_cxx12_Lock_policyE2EE, @object
	.size	_ZTISt23_Sp_counted_ptr_inplaceIN8asiodnp318TCPServerIOHandler6ServerESaIS2_ELN9__gnu_cxx12_Lock_policyE2EE, 24
_ZTISt23_Sp_counted_ptr_inplaceIN8asiodnp318TCPServerIOHandler6ServerESaIS2_ELN9__gnu_cxx12_Lock_policyE2EE:
	.quad	_ZTVN10__cxxabiv120__si_class_type_infoE+16
	.quad	_ZTSSt23_Sp_counted_ptr_inplaceIN8asiodnp318TCPServerIOHandler6ServerESaIS2_ELN9__gnu_cxx12_Lock_policyE2EE
	.quad	_ZTISt16_Sp_counted_baseILN9__gnu_cxx12_Lock_policyE2EE
	.weak	_ZTVN4asio6detail15system_categoryE
	.section	.data.rel.ro._ZTVN4asio6detail15system_categoryE,"awG",@progbits,_ZTVN4asio6detail15system_categoryE,comdat
	.align 8
	.type	_ZTVN4asio6detail15system_categoryE, @object
	.size	_ZTVN4asio6detail15system_categoryE, 80
_ZTVN4asio6detail15system_categoryE:
	.quad	0
	.quad	_ZTIN4asio6detail15system_categoryE
	.quad	_ZN4asio6detail15system_categoryD1Ev
	.quad	_ZN4asio6detail15system_categoryD0Ev
	.quad	_ZNK4asio6detail15system_category4nameEv
	.quad	_ZNKSt3_V214error_category10_M_messageB5cxx11Ei
	.quad	_ZNK4asio6detail15system_category7messageB5cxx11Ei
	.quad	_ZNKSt3_V214error_category23default_error_conditionEi
	.quad	_ZNKSt3_V214error_category10equivalentEiRKSt15error_condition
	.quad	_ZNKSt3_V214error_category10equivalentERKSt10error_codei
	.weak	_ZTVN4asio5error6detail14netdb_categoryE
	.section	.data.rel.ro._ZTVN4asio5error6detail14netdb_categoryE,"awG",@progbits,_ZTVN4asio5error6detail14netdb_categoryE,comdat
	.align 8
	.type	_ZTVN4asio5error6detail14netdb_categoryE, @object
	.size	_ZTVN4asio5error6detail14netdb_categoryE, 80
_ZTVN4asio5error6detail14netdb_categoryE:
	.quad	0
	.quad	_ZTIN4asio5error6detail14netdb_categoryE
	.quad	_ZN4asio5error6detail14netdb_categoryD1Ev
	.quad	_ZN4asio5error6detail14netdb_categoryD0Ev
	.quad	_ZNK4asio5error6detail14netdb_category4nameEv
	.quad	_ZNKSt3_V214error_category10_M_messageB5cxx11Ei
	.quad	_ZNK4asio5error6detail14netdb_category7messageB5cxx11Ei
	.quad	_ZNKSt3_V214error_category23default_error_conditionEi
	.quad	_ZNKSt3_V214error_category10equivalentEiRKSt15error_condition
	.quad	_ZNKSt3_V214error_category10equivalentERKSt10error_codei
	.weak	_ZTVN4asio5error6detail17addrinfo_categoryE
	.section	.data.rel.ro._ZTVN4asio5error6detail17addrinfo_categoryE,"awG",@progbits,_ZTVN4asio5error6detail17addrinfo_categoryE,comdat
	.align 8
	.type	_ZTVN4asio5error6detail17addrinfo_categoryE, @object
	.size	_ZTVN4asio5error6detail17addrinfo_categoryE, 80
_ZTVN4asio5error6detail17addrinfo_categoryE:
	.quad	0
	.quad	_ZTIN4asio5error6detail17addrinfo_categoryE
	.quad	_ZN4asio5error6detail17addrinfo_categoryD1Ev
	.quad	_ZN4asio5error6detail17addrinfo_categoryD0Ev
	.quad	_ZNK4asio5error6detail17addrinfo_category4nameEv
	.quad	_ZNKSt3_V214error_category10_M_messageB5cxx11Ei
	.quad	_ZNK4asio5error6detail17addrinfo_category7messageB5cxx11Ei
	.quad	_ZNKSt3_V214error_category23default_error_conditionEi
	.quad	_ZNKSt3_V214error_category10equivalentEiRKSt15error_condition
	.quad	_ZNKSt3_V214error_category10equivalentERKSt10error_codei
	.weak	_ZTVN4asio5error6detail13misc_categoryE
	.section	.data.rel.ro._ZTVN4asio5error6detail13misc_categoryE,"awG",@progbits,_ZTVN4asio5error6detail13misc_categoryE,comdat
	.align 8
	.type	_ZTVN4asio5error6detail13misc_categoryE, @object
	.size	_ZTVN4asio5error6detail13misc_categoryE, 80
_ZTVN4asio5error6detail13misc_categoryE:
	.quad	0
	.quad	_ZTIN4asio5error6detail13misc_categoryE
	.quad	_ZN4asio5error6detail13misc_categoryD1Ev
	.quad	_ZN4asio5error6detail13misc_categoryD0Ev
	.quad	_ZNK4asio5error6detail13misc_category4nameEv
	.quad	_ZNKSt3_V214error_category10_M_messageB5cxx11Ei
	.quad	_ZNK4asio5error6detail13misc_category7messageB5cxx11Ei
	.quad	_ZNKSt3_V214error_category23default_error_conditionEi
	.quad	_ZNKSt3_V214error_category10equivalentEiRKSt15error_condition
	.quad	_ZNKSt3_V214error_category10equivalentERKSt10error_codei
	.weak	_ZTVN7asiopal13IAsyncChannelE
	.section	.data.rel.ro._ZTVN7asiopal13IAsyncChannelE,"awG",@progbits,_ZTVN7asiopal13IAsyncChannelE,comdat
	.align 8
	.type	_ZTVN7asiopal13IAsyncChannelE, @object
	.size	_ZTVN7asiopal13IAsyncChannelE, 56
_ZTVN7asiopal13IAsyncChannelE:
	.quad	0
	.quad	_ZTIN7asiopal13IAsyncChannelE
	.quad	0
	.quad	0
	.quad	__cxa_pure_virtual
	.quad	__cxa_pure_virtual
	.quad	__cxa_pure_virtual
	.weak	_ZTVN8asiodnp318TCPServerIOHandler6ServerE
	.section	.data.rel.ro._ZTVN8asiodnp318TCPServerIOHandler6ServerE,"awG",@progbits,_ZTVN8asiodnp318TCPServerIOHandler6ServerE,comdat
	.align 8
	.type	_ZTVN8asiodnp318TCPServerIOHandler6ServerE, @object
	.size	_ZTVN8asiodnp318TCPServerIOHandler6ServerE, 56
_ZTVN8asiodnp318TCPServerIOHandler6ServerE:
	.quad	0
	.quad	_ZTIN8asiodnp318TCPServerIOHandler6ServerE
	.quad	_ZN8asiodnp318TCPServerIOHandler6ServerD1Ev
	.quad	_ZN8asiodnp318TCPServerIOHandler6ServerD0Ev
	.quad	_ZN7asiopal9TCPServer8ShutdownEv
	.quad	_ZN8asiodnp318TCPServerIOHandler6Server10OnShutdownEv
	.quad	_ZN8asiodnp318TCPServerIOHandler6Server16AcceptConnectionEmRKSt10shared_ptrIN7asiopal8ExecutorEEN4asio19basic_stream_socketINS8_2ip3tcpENS8_21stream_socket_serviceISB_EEEE
	.weak	_ZTVN8asiodnp318TCPServerIOHandlerE
	.section	.data.rel.ro._ZTVN8asiodnp318TCPServerIOHandlerE,"awG",@progbits,_ZTVN8asiodnp318TCPServerIOHandlerE,comdat
	.align 8
	.type	_ZTVN8asiodnp318TCPServerIOHandlerE, @object
	.size	_ZTVN8asiodnp318TCPServerIOHandlerE, 136
_ZTVN8asiodnp318TCPServerIOHandlerE:
	.quad	0
	.quad	_ZTIN8asiodnp318TCPServerIOHandlerE
	.quad	_ZN8asiodnp318TCPServerIOHandlerD1Ev
	.quad	_ZN8asiodnp318TCPServerIOHandlerD0Ev
	.quad	_ZN8asiodnp39IOHandler7OnFrameERKN8opendnp316LinkHeaderFieldsERKN7openpal6RSliceE
	.quad	_ZN8asiodnp39IOHandler14OnReadCompleteERKSt10error_codem
	.quad	_ZN8asiodnp39IOHandler15OnWriteCompleteERKSt10error_codem
	.quad	_ZN8asiodnp318TCPServerIOHandler18BeginChannelAcceptEv
	.quad	_ZN8asiodnp318TCPServerIOHandler20SuspendChannelAcceptEv
	.quad	_ZN8asiodnp318TCPServerIOHandler12ShutdownImplEv
	.quad	_ZN8asiodnp318TCPServerIOHandler17OnChannelShutdownEv
	.quad	-8
	.quad	_ZTIN8asiodnp318TCPServerIOHandlerE
	.quad	_ZThn8_N8asiodnp318TCPServerIOHandlerD1Ev
	.quad	_ZThn8_N8asiodnp318TCPServerIOHandlerD0Ev
	.quad	_ZThn8_N8asiodnp39IOHandler14OnReadCompleteERKSt10error_codem
	.quad	_ZThn8_N8asiodnp39IOHandler15OnWriteCompleteERKSt10error_codem
	.weak	_ZTVSt23_Sp_counted_ptr_inplaceIN7asiopal13SocketChannelESaIS1_ELN9__gnu_cxx12_Lock_policyE2EE
	.section	.data.rel.ro._ZTVSt23_Sp_counted_ptr_inplaceIN7asiopal13SocketChannelESaIS1_ELN9__gnu_cxx12_Lock_policyE2EE,"awG",@progbits,_ZTVSt23_Sp_counted_ptr_inplaceIN7asiopal13SocketChannelESaIS1_ELN9__gnu_cxx12_Lock_policyE2EE,comdat
	.align 8
	.type	_ZTVSt23_Sp_counted_ptr_inplaceIN7asiopal13SocketChannelESaIS1_ELN9__gnu_cxx12_Lock_policyE2EE, @object
	.size	_ZTVSt23_Sp_counted_ptr_inplaceIN7asiopal13SocketChannelESaIS1_ELN9__gnu_cxx12_Lock_policyE2EE, 56
_ZTVSt23_Sp_counted_ptr_inplaceIN7asiopal13SocketChannelESaIS1_ELN9__gnu_cxx12_Lock_policyE2EE:
	.quad	0
	.quad	_ZTISt23_Sp_counted_ptr_inplaceIN7asiopal13SocketChannelESaIS1_ELN9__gnu_cxx12_Lock_policyE2EE
	.quad	_ZNSt23_Sp_counted_ptr_inplaceIN7asiopal13SocketChannelESaIS1_ELN9__gnu_cxx12_Lock_policyE2EED1Ev
	.quad	_ZNSt23_Sp_counted_ptr_inplaceIN7asiopal13SocketChannelESaIS1_ELN9__gnu_cxx12_Lock_policyE2EED0Ev
	.quad	_ZNSt23_Sp_counted_ptr_inplaceIN7asiopal13SocketChannelESaIS1_ELN9__gnu_cxx12_Lock_policyE2EE10_M_disposeEv
	.quad	_ZNSt23_Sp_counted_ptr_inplaceIN7asiopal13SocketChannelESaIS1_ELN9__gnu_cxx12_Lock_policyE2EE10_M_destroyEv
	.quad	_ZNSt23_Sp_counted_ptr_inplaceIN7asiopal13SocketChannelESaIS1_ELN9__gnu_cxx12_Lock_policyE2EE14_M_get_deleterERKSt9type_info
	.weak	_ZTVSt23_Sp_counted_ptr_inplaceIN8asiodnp318TCPServerIOHandler6ServerESaIS2_ELN9__gnu_cxx12_Lock_policyE2EE
	.section	.data.rel.ro._ZTVSt23_Sp_counted_ptr_inplaceIN8asiodnp318TCPServerIOHandler6ServerESaIS2_ELN9__gnu_cxx12_Lock_policyE2EE,"awG",@progbits,_ZTVSt23_Sp_counted_ptr_inplaceIN8asiodnp318TCPServerIOHandler6ServerESaIS2_ELN9__gnu_cxx12_Lock_policyE2EE,comdat
	.align 8
	.type	_ZTVSt23_Sp_counted_ptr_inplaceIN8asiodnp318TCPServerIOHandler6ServerESaIS2_ELN9__gnu_cxx12_Lock_policyE2EE, @object
	.size	_ZTVSt23_Sp_counted_ptr_inplaceIN8asiodnp318TCPServerIOHandler6ServerESaIS2_ELN9__gnu_cxx12_Lock_policyE2EE, 56
_ZTVSt23_Sp_counted_ptr_inplaceIN8asiodnp318TCPServerIOHandler6ServerESaIS2_ELN9__gnu_cxx12_Lock_policyE2EE:
	.quad	0
	.quad	_ZTISt23_Sp_counted_ptr_inplaceIN8asiodnp318TCPServerIOHandler6ServerESaIS2_ELN9__gnu_cxx12_Lock_policyE2EE
	.quad	_ZNSt23_Sp_counted_ptr_inplaceIN8asiodnp318TCPServerIOHandler6ServerESaIS2_ELN9__gnu_cxx12_Lock_policyE2EED1Ev
	.quad	_ZNSt23_Sp_counted_ptr_inplaceIN8asiodnp318TCPServerIOHandler6ServerESaIS2_ELN9__gnu_cxx12_Lock_policyE2EED0Ev
	.quad	_ZNSt23_Sp_counted_ptr_inplaceIN8asiodnp318TCPServerIOHandler6ServerESaIS2_ELN9__gnu_cxx12_Lock_policyE2EE10_M_disposeEv
	.quad	_ZNSt23_Sp_counted_ptr_inplaceIN8asiodnp318TCPServerIOHandler6ServerESaIS2_ELN9__gnu_cxx12_Lock_policyE2EE10_M_destroyEv
	.quad	_ZNSt23_Sp_counted_ptr_inplaceIN8asiodnp318TCPServerIOHandler6ServerESaIS2_ELN9__gnu_cxx12_Lock_policyE2EE14_M_get_deleterERKSt9type_info
	.weak	_ZGVZN4asio5error17get_misc_categoryEvE8instance
	.section	.bss._ZGVZN4asio5error17get_misc_categoryEvE8instance,"awG",@nobits,_ZGVZN4asio5error17get_misc_categoryEvE8instance,comdat
	.align 8
	.type	_ZGVZN4asio5error17get_misc_categoryEvE8instance, @gnu_unique_object
	.size	_ZGVZN4asio5error17get_misc_categoryEvE8instance, 8
_ZGVZN4asio5error17get_misc_categoryEvE8instance:
	.zero	8
	.weak	_ZZN4asio5error17get_misc_categoryEvE8instance
	.section	.data.rel._ZZN4asio5error17get_misc_categoryEvE8instance,"awG",@progbits,_ZZN4asio5error17get_misc_categoryEvE8instance,comdat
	.align 8
	.type	_ZZN4asio5error17get_misc_categoryEvE8instance, @gnu_unique_object
	.size	_ZZN4asio5error17get_misc_categoryEvE8instance, 8
_ZZN4asio5error17get_misc_categoryEvE8instance:
	.quad	_ZTVN4asio5error6detail13misc_categoryE+16
	.weak	_ZGVZN4asio5error21get_addrinfo_categoryEvE8instance
	.section	.bss._ZGVZN4asio5error21get_addrinfo_categoryEvE8instance,"awG",@nobits,_ZGVZN4asio5error21get_addrinfo_categoryEvE8instance,comdat
	.align 8
	.type	_ZGVZN4asio5error21get_addrinfo_categoryEvE8instance, @gnu_unique_object
	.size	_ZGVZN4asio5error21get_addrinfo_categoryEvE8instance, 8
_ZGVZN4asio5error21get_addrinfo_categoryEvE8instance:
	.zero	8
	.weak	_ZZN4asio5error21get_addrinfo_categoryEvE8instance
	.section	.data.rel._ZZN4asio5error21get_addrinfo_categoryEvE8instance,"awG",@progbits,_ZZN4asio5error21get_addrinfo_categoryEvE8instance,comdat
	.align 8
	.type	_ZZN4asio5error21get_addrinfo_categoryEvE8instance, @gnu_unique_object
	.size	_ZZN4asio5error21get_addrinfo_categoryEvE8instance, 8
_ZZN4asio5error21get_addrinfo_categoryEvE8instance:
	.quad	_ZTVN4asio5error6detail17addrinfo_categoryE+16
	.weak	_ZGVZN4asio5error18get_netdb_categoryEvE8instance
	.section	.bss._ZGVZN4asio5error18get_netdb_categoryEvE8instance,"awG",@nobits,_ZGVZN4asio5error18get_netdb_categoryEvE8instance,comdat
	.align 8
	.type	_ZGVZN4asio5error18get_netdb_categoryEvE8instance, @gnu_unique_object
	.size	_ZGVZN4asio5error18get_netdb_categoryEvE8instance, 8
_ZGVZN4asio5error18get_netdb_categoryEvE8instance:
	.zero	8
	.weak	_ZZN4asio5error18get_netdb_categoryEvE8instance
	.section	.data.rel._ZZN4asio5error18get_netdb_categoryEvE8instance,"awG",@progbits,_ZZN4asio5error18get_netdb_categoryEvE8instance,comdat
	.align 8
	.type	_ZZN4asio5error18get_netdb_categoryEvE8instance, @gnu_unique_object
	.size	_ZZN4asio5error18get_netdb_categoryEvE8instance, 8
_ZZN4asio5error18get_netdb_categoryEvE8instance:
	.quad	_ZTVN4asio5error6detail14netdb_categoryE+16
	.weak	_ZGVZN4asio15system_categoryEvE8instance
	.section	.bss._ZGVZN4asio15system_categoryEvE8instance,"awG",@nobits,_ZGVZN4asio15system_categoryEvE8instance,comdat
	.align 8
	.type	_ZGVZN4asio15system_categoryEvE8instance, @gnu_unique_object
	.size	_ZGVZN4asio15system_categoryEvE8instance, 8
_ZGVZN4asio15system_categoryEvE8instance:
	.zero	8
	.weak	_ZZN4asio15system_categoryEvE8instance
	.section	.data.rel._ZZN4asio15system_categoryEvE8instance,"awG",@progbits,_ZZN4asio15system_categoryEvE8instance,comdat
	.align 8
	.type	_ZZN4asio15system_categoryEvE8instance, @gnu_unique_object
	.size	_ZZN4asio15system_categoryEvE8instance, 8
_ZZN4asio15system_categoryEvE8instance:
	.quad	_ZTVN4asio6detail15system_categoryE+16
	.weak	_ZN4asio6detail15keyword_tss_ptrINS0_10call_stackINS0_15task_io_serviceENS0_27task_io_service_thread_infoEE7contextEE6value_E
	.section	.tbss._ZN4asio6detail15keyword_tss_ptrINS0_10call_stackINS0_15task_io_serviceENS0_27task_io_service_thread_infoEE7contextEE6value_E,"awTG",@nobits,_ZN4asio6detail15keyword_tss_ptrINS0_10call_stackINS0_15task_io_serviceENS0_27task_io_service_thread_infoEE7contextEE6value_E,comdat
	.align 8
	.type	_ZN4asio6detail15keyword_tss_ptrINS0_10call_stackINS0_15task_io_serviceENS0_27task_io_service_thread_infoEE7contextEE6value_E, @gnu_unique_object
	.size	_ZN4asio6detail15keyword_tss_ptrINS0_10call_stackINS0_15task_io_serviceENS0_27task_io_service_thread_infoEE7contextEE6value_E, 8
_ZN4asio6detail15keyword_tss_ptrINS0_10call_stackINS0_15task_io_serviceENS0_27task_io_service_thread_infoEE7contextEE6value_E:
	.zero	8
	.weakref	_ZL28__gthrw___pthread_key_createPjPFvPvE,__pthread_key_create
	.section	.rodata.cst16,"aM",@progbits,16
	.align 16
.LC5:
	.quad	8028075772644520015
	.quad	7310593917846626414
	.align 16
.LC6:
	.quad	2334381286471394643
	.quad	7959390400869068654
	.align 16
.LC7:
	.quad	8367816086596579155
	.quad	2338616625292734585
	.align 16
.LC8:
	.quad	7234013753529430881
	.quad	8243030355803531634
	.align 16
.LC9:
	.quad	2338615488418245701
	.quad	7959390400869068654
	.align 16
.LC10:
	.quad	7166182912791242836
	.quad	7214892426067994994
	.align 16
.LC11:
	.quad	2338616625293649263
	.quad	8031165433303558502
	.align 16
.LC12:
	.quad	7810775711721485344
	.quad	7812726531955123045
	.align 16
.LC13:
	.quad	8390045716486254408
	.quad	2891421386351273504
	.align 16
.LC14:
	.quad	7526769937477431150
	.quad	8532478930943832687
	.align 16
.LC15:
	.quad	2340027324477221221
	.quad	7020021577750243169
	.align 16
.LC16:
	.quad	8243123821706831956
	.quad	7809653110584451193
	.align 16
.LC17:
	.quad	2338623170819155049
	.quad	2338324160631043177
	.align 16
.LC18:
	.quad	7311138144931573614
	.quad	7019250824563089696
	.align 16
.LC19:
	.quad	7309955097514876993
	.quad	7809911847770287971
	.align 16
.LC20:
	.quad	2338053693894893669
	.quad	7234314212361855855
	.align 16
.LC21:
	.quad	2334956330985808928
	.quad	7310293695322153316
	.align 16
.LC22:
	.quad	8387231026764149601
	.quad	8245935278387126884
	.hidden	DW.ref.__gxx_personality_v0
	.weak	DW.ref.__gxx_personality_v0
	.section	.data.rel.local.DW.ref.__gxx_personality_v0,"awG",@progbits,DW.ref.__gxx_personality_v0,comdat
	.align 8
	.type	DW.ref.__gxx_personality_v0, @object
	.size	DW.ref.__gxx_personality_v0, 8
DW.ref.__gxx_personality_v0:
	.quad	__gxx_personality_v0
	.hidden	__dso_handle
	.ident	"GCC: (Ubuntu 7.5.0-3ubuntu1~18.04) 7.5.0"
	.section	.note.GNU-stack,"",@progbits
