	.file	"ThreadPool.cpp"
	.text
	.section	.rodata._ZNK4asio6detail15system_category4nameEv.str1.1,"aMS",@progbits,1
.LC0:
	.string	"asio.system"
	.section	.text._ZNK4asio6detail15system_category4nameEv,"axG",@progbits,_ZNK4asio6detail15system_category4nameEv,comdat
	.align 2
	.p2align 4,,15
	.weak	_ZNK4asio6detail15system_category4nameEv
	.type	_ZNK4asio6detail15system_category4nameEv, @function
_ZNK4asio6detail15system_category4nameEv:
.LFB2653:
	.cfi_startproc
	leaq	.LC0(%rip), %rax
	ret
	.cfi_endproc
.LFE2653:
	.size	_ZNK4asio6detail15system_category4nameEv, .-_ZNK4asio6detail15system_category4nameEv
	.section	.rodata._ZNK4asio5error6detail14netdb_category4nameEv.str1.1,"aMS",@progbits,1
.LC1:
	.string	"asio.netdb"
	.section	.text._ZNK4asio5error6detail14netdb_category4nameEv,"axG",@progbits,_ZNK4asio5error6detail14netdb_category4nameEv,comdat
	.align 2
	.p2align 4,,15
	.weak	_ZNK4asio5error6detail14netdb_category4nameEv
	.type	_ZNK4asio5error6detail14netdb_category4nameEv, @function
_ZNK4asio5error6detail14netdb_category4nameEv:
.LFB2693:
	.cfi_startproc
	leaq	.LC1(%rip), %rax
	ret
	.cfi_endproc
.LFE2693:
	.size	_ZNK4asio5error6detail14netdb_category4nameEv, .-_ZNK4asio5error6detail14netdb_category4nameEv
	.section	.rodata._ZNK4asio5error6detail17addrinfo_category4nameEv.str1.1,"aMS",@progbits,1
.LC2:
	.string	"asio.addrinfo"
	.section	.text._ZNK4asio5error6detail17addrinfo_category4nameEv,"axG",@progbits,_ZNK4asio5error6detail17addrinfo_category4nameEv,comdat
	.align 2
	.p2align 4,,15
	.weak	_ZNK4asio5error6detail17addrinfo_category4nameEv
	.type	_ZNK4asio5error6detail17addrinfo_category4nameEv, @function
_ZNK4asio5error6detail17addrinfo_category4nameEv:
.LFB2699:
	.cfi_startproc
	leaq	.LC2(%rip), %rax
	ret
	.cfi_endproc
.LFE2699:
	.size	_ZNK4asio5error6detail17addrinfo_category4nameEv, .-_ZNK4asio5error6detail17addrinfo_category4nameEv
	.section	.rodata._ZNK4asio5error6detail13misc_category4nameEv.str1.1,"aMS",@progbits,1
.LC3:
	.string	"asio.misc"
	.section	.text._ZNK4asio5error6detail13misc_category4nameEv,"axG",@progbits,_ZNK4asio5error6detail13misc_category4nameEv,comdat
	.align 2
	.p2align 4,,15
	.weak	_ZNK4asio5error6detail13misc_category4nameEv
	.type	_ZNK4asio5error6detail13misc_category4nameEv, @function
_ZNK4asio5error6detail13misc_category4nameEv:
.LFB2705:
	.cfi_startproc
	leaq	.LC3(%rip), %rax
	ret
	.cfi_endproc
.LFE2705:
	.size	_ZNK4asio5error6detail13misc_category4nameEv, .-_ZNK4asio5error6detail13misc_category4nameEv
	.section	.text._ZN4asio10io_service7service12fork_serviceENS0_10fork_eventE,"axG",@progbits,_ZN4asio10io_service7service12fork_serviceENS0_10fork_eventE,comdat
	.align 2
	.p2align 4,,15
	.weak	_ZN4asio10io_service7service12fork_serviceENS0_10fork_eventE
	.type	_ZN4asio10io_service7service12fork_serviceENS0_10fork_eventE, @function
_ZN4asio10io_service7service12fork_serviceENS0_10fork_eventE:
.LFB3485:
	.cfi_startproc
	rep ret
	.cfi_endproc
.LFE3485:
	.size	_ZN4asio10io_service7service12fork_serviceENS0_10fork_eventE, .-_ZN4asio10io_service7service12fork_serviceENS0_10fork_eventE
	.section	.text._ZN4asio6detail7tss_ptrINS0_10call_stackINS0_15task_io_serviceENS0_27task_io_service_thread_infoEE7contextEED2Ev,"axG",@progbits,_ZN4asio6detail7tss_ptrINS0_10call_stackINS0_15task_io_serviceENS0_27task_io_service_thread_infoEE7contextEED5Ev,comdat
	.align 2
	.p2align 4,,15
	.weak	_ZN4asio6detail7tss_ptrINS0_10call_stackINS0_15task_io_serviceENS0_27task_io_service_thread_infoEE7contextEED2Ev
	.type	_ZN4asio6detail7tss_ptrINS0_10call_stackINS0_15task_io_serviceENS0_27task_io_service_thread_infoEE7contextEED2Ev, @function
_ZN4asio6detail7tss_ptrINS0_10call_stackINS0_15task_io_serviceENS0_27task_io_service_thread_infoEE7contextEED2Ev:
.LFB9359:
	.cfi_startproc
	rep ret
	.cfi_endproc
.LFE9359:
	.size	_ZN4asio6detail7tss_ptrINS0_10call_stackINS0_15task_io_serviceENS0_27task_io_service_thread_infoEE7contextEED2Ev, .-_ZN4asio6detail7tss_ptrINS0_10call_stackINS0_15task_io_serviceENS0_27task_io_service_thread_infoEE7contextEED2Ev
	.weak	_ZN4asio6detail7tss_ptrINS0_10call_stackINS0_15task_io_serviceENS0_27task_io_service_thread_infoEE7contextEED1Ev
	.set	_ZN4asio6detail7tss_ptrINS0_10call_stackINS0_15task_io_serviceENS0_27task_io_service_thread_infoEE7contextEED1Ev,_ZN4asio6detail7tss_ptrINS0_10call_stackINS0_15task_io_serviceENS0_27task_io_service_thread_infoEE7contextEED2Ev
	.section	.text._ZN4asio6detail10service_idINS0_13epoll_reactorEED2Ev,"axG",@progbits,_ZN4asio6detail10service_idINS0_13epoll_reactorEED5Ev,comdat
	.align 2
	.p2align 4,,15
	.weak	_ZN4asio6detail10service_idINS0_13epoll_reactorEED2Ev
	.type	_ZN4asio6detail10service_idINS0_13epoll_reactorEED2Ev, @function
_ZN4asio6detail10service_idINS0_13epoll_reactorEED2Ev:
.LFB9362:
	.cfi_startproc
	rep ret
	.cfi_endproc
.LFE9362:
	.size	_ZN4asio6detail10service_idINS0_13epoll_reactorEED2Ev, .-_ZN4asio6detail10service_idINS0_13epoll_reactorEED2Ev
	.weak	_ZN4asio6detail10service_idINS0_13epoll_reactorEED1Ev
	.set	_ZN4asio6detail10service_idINS0_13epoll_reactorEED1Ev,_ZN4asio6detail10service_idINS0_13epoll_reactorEED2Ev
	.section	.text._ZN4asio6detail10service_idINS0_15task_io_serviceEED2Ev,"axG",@progbits,_ZN4asio6detail10service_idINS0_15task_io_serviceEED5Ev,comdat
	.align 2
	.p2align 4,,15
	.weak	_ZN4asio6detail10service_idINS0_15task_io_serviceEED2Ev
	.type	_ZN4asio6detail10service_idINS0_15task_io_serviceEED2Ev, @function
_ZN4asio6detail10service_idINS0_15task_io_serviceEED2Ev:
.LFB9365:
	.cfi_startproc
	rep ret
	.cfi_endproc
.LFE9365:
	.size	_ZN4asio6detail10service_idINS0_15task_io_serviceEED2Ev, .-_ZN4asio6detail10service_idINS0_15task_io_serviceEED2Ev
	.weak	_ZN4asio6detail10service_idINS0_15task_io_serviceEED1Ev
	.set	_ZN4asio6detail10service_idINS0_15task_io_serviceEED1Ev,_ZN4asio6detail10service_idINS0_15task_io_serviceEED2Ev
	.section	.text._ZN4asio6detail7tss_ptrINS0_10call_stackINS0_14strand_service11strand_implEhE7contextEED2Ev,"axG",@progbits,_ZN4asio6detail7tss_ptrINS0_10call_stackINS0_14strand_service11strand_implEhE7contextEED5Ev,comdat
	.align 2
	.p2align 4,,15
	.weak	_ZN4asio6detail7tss_ptrINS0_10call_stackINS0_14strand_service11strand_implEhE7contextEED2Ev
	.type	_ZN4asio6detail7tss_ptrINS0_10call_stackINS0_14strand_service11strand_implEhE7contextEED2Ev, @function
_ZN4asio6detail7tss_ptrINS0_10call_stackINS0_14strand_service11strand_implEhE7contextEED2Ev:
.LFB9368:
	.cfi_startproc
	rep ret
	.cfi_endproc
.LFE9368:
	.size	_ZN4asio6detail7tss_ptrINS0_10call_stackINS0_14strand_service11strand_implEhE7contextEED2Ev, .-_ZN4asio6detail7tss_ptrINS0_10call_stackINS0_14strand_service11strand_implEhE7contextEED2Ev
	.weak	_ZN4asio6detail7tss_ptrINS0_10call_stackINS0_14strand_service11strand_implEhE7contextEED1Ev
	.set	_ZN4asio6detail7tss_ptrINS0_10call_stackINS0_14strand_service11strand_implEhE7contextEED1Ev,_ZN4asio6detail7tss_ptrINS0_10call_stackINS0_14strand_service11strand_implEhE7contextEED2Ev
	.section	.text._ZN4asio6detail10service_idINS0_14strand_serviceEED2Ev,"axG",@progbits,_ZN4asio6detail10service_idINS0_14strand_serviceEED5Ev,comdat
	.align 2
	.p2align 4,,15
	.weak	_ZN4asio6detail10service_idINS0_14strand_serviceEED2Ev
	.type	_ZN4asio6detail10service_idINS0_14strand_serviceEED2Ev, @function
_ZN4asio6detail10service_idINS0_14strand_serviceEED2Ev:
.LFB9371:
	.cfi_startproc
	rep ret
	.cfi_endproc
.LFE9371:
	.size	_ZN4asio6detail10service_idINS0_14strand_serviceEED2Ev, .-_ZN4asio6detail10service_idINS0_14strand_serviceEED2Ev
	.weak	_ZN4asio6detail10service_idINS0_14strand_serviceEED1Ev
	.set	_ZN4asio6detail10service_idINS0_14strand_serviceEED1Ev,_ZN4asio6detail10service_idINS0_14strand_serviceEED2Ev
	.section	.text._ZN4asio6detail10service_idINS_22waitable_timer_serviceINSt6chrono3_V212steady_clockENS_11wait_traitsIS5_EEEEED2Ev,"axG",@progbits,_ZN4asio6detail10service_idINS_22waitable_timer_serviceINSt6chrono3_V212steady_clockENS_11wait_traitsIS5_EEEEED5Ev,comdat
	.align 2
	.p2align 4,,15
	.weak	_ZN4asio6detail10service_idINS_22waitable_timer_serviceINSt6chrono3_V212steady_clockENS_11wait_traitsIS5_EEEEED2Ev
	.type	_ZN4asio6detail10service_idINS_22waitable_timer_serviceINSt6chrono3_V212steady_clockENS_11wait_traitsIS5_EEEEED2Ev, @function
_ZN4asio6detail10service_idINS_22waitable_timer_serviceINSt6chrono3_V212steady_clockENS_11wait_traitsIS5_EEEEED2Ev:
.LFB9374:
	.cfi_startproc
	rep ret
	.cfi_endproc
.LFE9374:
	.size	_ZN4asio6detail10service_idINS_22waitable_timer_serviceINSt6chrono3_V212steady_clockENS_11wait_traitsIS5_EEEEED2Ev, .-_ZN4asio6detail10service_idINS_22waitable_timer_serviceINSt6chrono3_V212steady_clockENS_11wait_traitsIS5_EEEEED2Ev
	.weak	_ZN4asio6detail10service_idINS_22waitable_timer_serviceINSt6chrono3_V212steady_clockENS_11wait_traitsIS5_EEEEED1Ev
	.set	_ZN4asio6detail10service_idINS_22waitable_timer_serviceINSt6chrono3_V212steady_clockENS_11wait_traitsIS5_EEEEED1Ev,_ZN4asio6detail10service_idINS_22waitable_timer_serviceINSt6chrono3_V212steady_clockENS_11wait_traitsIS5_EEEEED2Ev
	.section	.text._ZN4asio22waitable_timer_serviceINSt6chrono3_V212steady_clockENS_11wait_traitsIS3_EEE16shutdown_serviceEv,"axG",@progbits,_ZN4asio22waitable_timer_serviceINSt6chrono3_V212steady_clockENS_11wait_traitsIS3_EEE16shutdown_serviceEv,comdat
	.align 2
	.p2align 4,,15
	.weak	_ZN4asio22waitable_timer_serviceINSt6chrono3_V212steady_clockENS_11wait_traitsIS3_EEE16shutdown_serviceEv
	.type	_ZN4asio22waitable_timer_serviceINSt6chrono3_V212steady_clockENS_11wait_traitsIS3_EEE16shutdown_serviceEv, @function
_ZN4asio22waitable_timer_serviceINSt6chrono3_V212steady_clockENS_11wait_traitsIS3_EEE16shutdown_serviceEv:
.LFB9413:
	.cfi_startproc
	rep ret
	.cfi_endproc
.LFE9413:
	.size	_ZN4asio22waitable_timer_serviceINSt6chrono3_V212steady_clockENS_11wait_traitsIS3_EEE16shutdown_serviceEv, .-_ZN4asio22waitable_timer_serviceINSt6chrono3_V212steady_clockENS_11wait_traitsIS3_EEE16shutdown_serviceEv
	.section	.text._ZNK4asio6detail11timer_queueINS0_18chrono_time_traitsINSt6chrono3_V212steady_clockENS_11wait_traitsIS5_EEEEE5emptyEv,"axG",@progbits,_ZNK4asio6detail11timer_queueINS0_18chrono_time_traitsINSt6chrono3_V212steady_clockENS_11wait_traitsIS5_EEEEE5emptyEv,comdat
	.align 2
	.p2align 4,,15
	.weak	_ZNK4asio6detail11timer_queueINS0_18chrono_time_traitsINSt6chrono3_V212steady_clockENS_11wait_traitsIS5_EEEEE5emptyEv
	.type	_ZNK4asio6detail11timer_queueINS0_18chrono_time_traitsINSt6chrono3_V212steady_clockENS_11wait_traitsIS5_EEEEE5emptyEv, @function
_ZNK4asio6detail11timer_queueINS0_18chrono_time_traitsINSt6chrono3_V212steady_clockENS_11wait_traitsIS5_EEEEE5emptyEv:
.LFB9414:
	.cfi_startproc
	cmpq	$0, 16(%rdi)
	sete	%al
	ret
	.cfi_endproc
.LFE9414:
	.size	_ZNK4asio6detail11timer_queueINS0_18chrono_time_traitsINSt6chrono3_V212steady_clockENS_11wait_traitsIS5_EEEEE5emptyEv, .-_ZNK4asio6detail11timer_queueINS0_18chrono_time_traitsINSt6chrono3_V212steady_clockENS_11wait_traitsIS5_EEEEE5emptyEv
	.section	.text._ZN4asio6detail11timer_queueINS0_18chrono_time_traitsINSt6chrono3_V212steady_clockENS_11wait_traitsIS5_EEEEE14get_all_timersERNS0_8op_queueINS0_25task_io_service_operationEEE,"axG",@progbits,_ZN4asio6detail11timer_queueINS0_18chrono_time_traitsINSt6chrono3_V212steady_clockENS_11wait_traitsIS5_EEEEE14get_all_timersERNS0_8op_queueINS0_25task_io_service_operationEEE,comdat
	.align 2
	.p2align 4,,15
	.weak	_ZN4asio6detail11timer_queueINS0_18chrono_time_traitsINSt6chrono3_V212steady_clockENS_11wait_traitsIS5_EEEEE14get_all_timersERNS0_8op_queueINS0_25task_io_service_operationEEE
	.type	_ZN4asio6detail11timer_queueINS0_18chrono_time_traitsINSt6chrono3_V212steady_clockENS_11wait_traitsIS5_EEEEE14get_all_timersERNS0_8op_queueINS0_25task_io_service_operationEEE, @function
_ZN4asio6detail11timer_queueINS0_18chrono_time_traitsINSt6chrono3_V212steady_clockENS_11wait_traitsIS5_EEEEE14get_all_timersERNS0_8op_queueINS0_25task_io_service_operationEEE:
.LFB9418:
	.cfi_startproc
	movq	16(%rdi), %rax
	testq	%rax, %rax
	jne	.L20
	jmp	.L16
	.p2align 4,,10
	.p2align 3
.L29:
	movq	%rdx, (%r8)
.L19:
	movq	8(%rax), %rdx
	movq	%rdx, 8(%rsi)
	movq	$0, (%rax)
	movq	$0, 8(%rax)
.L17:
	testq	%rcx, %rcx
	movq	$0, 24(%rax)
	movq	$0, 32(%rax)
	movq	%rcx, %rax
	je	.L28
.L20:
	movq	(%rax), %rdx
	movq	24(%rax), %rcx
	testq	%rdx, %rdx
	je	.L17
	movq	8(%rsi), %r8
	testq	%r8, %r8
	jne	.L29
	movq	%rdx, (%rsi)
	jmp	.L19
.L28:
	movq	$0, 16(%rdi)
.L16:
	movq	24(%rdi), %rax
	movq	%rax, 32(%rdi)
	ret
	.cfi_endproc
.LFE9418:
	.size	_ZN4asio6detail11timer_queueINS0_18chrono_time_traitsINSt6chrono3_V212steady_clockENS_11wait_traitsIS5_EEEEE14get_all_timersERNS0_8op_queueINS0_25task_io_service_operationEEE, .-_ZN4asio6detail11timer_queueINS0_18chrono_time_traitsINSt6chrono3_V212steady_clockENS_11wait_traitsIS5_EEEEE14get_all_timersERNS0_8op_queueINS0_25task_io_service_operationEEE
	.section	.text._ZN4asio6detail11timer_queueINS0_18chrono_time_traitsINSt6chrono3_V212steady_clockENS_11wait_traitsIS5_EEEEED2Ev,"axG",@progbits,_ZN4asio6detail11timer_queueINS0_18chrono_time_traitsINSt6chrono3_V212steady_clockENS_11wait_traitsIS5_EEEEED5Ev,comdat
	.align 2
	.p2align 4,,15
	.weak	_ZN4asio6detail11timer_queueINS0_18chrono_time_traitsINSt6chrono3_V212steady_clockENS_11wait_traitsIS5_EEEEED2Ev
	.type	_ZN4asio6detail11timer_queueINS0_18chrono_time_traitsINSt6chrono3_V212steady_clockENS_11wait_traitsIS5_EEEEED2Ev, @function
_ZN4asio6detail11timer_queueINS0_18chrono_time_traitsINSt6chrono3_V212steady_clockENS_11wait_traitsIS5_EEEEED2Ev:
.LFB9105:
	.cfi_startproc
	movq	_ZTVN4asio6detail11timer_queueINS0_18chrono_time_traitsINSt6chrono3_V212steady_clockENS_11wait_traitsIS5_EEEEEE@GOTPCREL(%rip), %rax
	addq	$16, %rax
	movq	%rax, (%rdi)
	movq	24(%rdi), %rdi
	testq	%rdi, %rdi
	je	.L30
	jmp	_ZdlPv@PLT
	.p2align 4,,10
	.p2align 3
.L30:
	rep ret
	.cfi_endproc
.LFE9105:
	.size	_ZN4asio6detail11timer_queueINS0_18chrono_time_traitsINSt6chrono3_V212steady_clockENS_11wait_traitsIS5_EEEEED2Ev, .-_ZN4asio6detail11timer_queueINS0_18chrono_time_traitsINSt6chrono3_V212steady_clockENS_11wait_traitsIS5_EEEEED2Ev
	.weak	_ZN4asio6detail11timer_queueINS0_18chrono_time_traitsINSt6chrono3_V212steady_clockENS_11wait_traitsIS5_EEEEED1Ev
	.set	_ZN4asio6detail11timer_queueINS0_18chrono_time_traitsINSt6chrono3_V212steady_clockENS_11wait_traitsIS5_EEEEED1Ev,_ZN4asio6detail11timer_queueINS0_18chrono_time_traitsINSt6chrono3_V212steady_clockENS_11wait_traitsIS5_EEEEED2Ev
	.section	.text._ZN4asio22waitable_timer_serviceINSt6chrono3_V212steady_clockENS_11wait_traitsIS3_EEED0Ev,"axG",@progbits,_ZN4asio22waitable_timer_serviceINSt6chrono3_V212steady_clockENS_11wait_traitsIS3_EEED5Ev,comdat
	.align 2
	.p2align 4,,15
	.weak	_ZN4asio22waitable_timer_serviceINSt6chrono3_V212steady_clockENS_11wait_traitsIS3_EEED0Ev
	.type	_ZN4asio22waitable_timer_serviceINSt6chrono3_V212steady_clockENS_11wait_traitsIS3_EEED0Ev, @function
_ZN4asio22waitable_timer_serviceINSt6chrono3_V212steady_clockENS_11wait_traitsIS3_EEED0Ev:
.LFB9304:
	.cfi_startproc
	pushq	%r12
	.cfi_def_cfa_offset 16
	.cfi_offset 12, -16
	pushq	%rbp
	.cfi_def_cfa_offset 24
	.cfi_offset 6, -24
	pushq	%rbx
	.cfi_def_cfa_offset 32
	.cfi_offset 3, -32
	movq	88(%rdi), %rbp
	movq	%rdi, %rbx
	movq	_ZTVN4asio22waitable_timer_serviceINSt6chrono3_V212steady_clockENS_11wait_traitsIS3_EEEE@GOTPCREL(%rip), %rax
	leaq	48(%rbp), %r12
	addq	$16, %rax
	movq	%rax, (%rdi)
	movq	%r12, %rdi
	call	pthread_mutex_lock@PLT
	movq	104(%rbp), %rdx
	testq	%rdx, %rdx
	je	.L33
	leaq	40(%rbx), %rcx
	cmpq	%rdx, %rcx
	jne	.L34
	jmp	.L48
	.p2align 4,,10
	.p2align 3
.L50:
	cmpq	%rax, %rcx
	je	.L49
	movq	%rax, %rdx
.L34:
	movq	8(%rdx), %rax
	testq	%rax, %rax
	jne	.L50
.L33:
	movq	%r12, %rdi
	call	pthread_mutex_unlock@PLT
	movq	_ZTVN4asio6detail11timer_queueINS0_18chrono_time_traitsINSt6chrono3_V212steady_clockENS_11wait_traitsIS5_EEEEEE@GOTPCREL(%rip), %rax
	movq	64(%rbx), %rdi
	addq	$16, %rax
	testq	%rdi, %rdi
	movq	%rax, 40(%rbx)
	je	.L35
	call	_ZdlPv@PLT
.L35:
	movq	%rbx, %rdi
	movl	$96, %esi
	popq	%rbx
	.cfi_remember_state
	.cfi_def_cfa_offset 24
	popq	%rbp
	.cfi_def_cfa_offset 16
	popq	%r12
	.cfi_def_cfa_offset 8
	jmp	_ZdlPvm@PLT
	.p2align 4,,10
	.p2align 3
.L49:
	.cfi_restore_state
	movq	48(%rbx), %rax
	movq	%rax, 8(%rdx)
	movq	$0, 48(%rbx)
	jmp	.L33
	.p2align 4,,10
	.p2align 3
.L48:
	movq	48(%rbx), %rax
	movq	%rax, 104(%rbp)
	movq	$0, 48(%rbx)
	jmp	.L33
	.cfi_endproc
.LFE9304:
	.size	_ZN4asio22waitable_timer_serviceINSt6chrono3_V212steady_clockENS_11wait_traitsIS3_EEED0Ev, .-_ZN4asio22waitable_timer_serviceINSt6chrono3_V212steady_clockENS_11wait_traitsIS3_EEED0Ev
	.section	.text._ZN4asio6detail11timer_queueINS0_18chrono_time_traitsINSt6chrono3_V212steady_clockENS_11wait_traitsIS5_EEEEED0Ev,"axG",@progbits,_ZN4asio6detail11timer_queueINS0_18chrono_time_traitsINSt6chrono3_V212steady_clockENS_11wait_traitsIS5_EEEEED5Ev,comdat
	.align 2
	.p2align 4,,15
	.weak	_ZN4asio6detail11timer_queueINS0_18chrono_time_traitsINSt6chrono3_V212steady_clockENS_11wait_traitsIS5_EEEEED0Ev
	.type	_ZN4asio6detail11timer_queueINS0_18chrono_time_traitsINSt6chrono3_V212steady_clockENS_11wait_traitsIS5_EEEEED0Ev, @function
_ZN4asio6detail11timer_queueINS0_18chrono_time_traitsINSt6chrono3_V212steady_clockENS_11wait_traitsIS5_EEEEED0Ev:
.LFB9107:
	.cfi_startproc
	movq	_ZTVN4asio6detail11timer_queueINS0_18chrono_time_traitsINSt6chrono3_V212steady_clockENS_11wait_traitsIS5_EEEEEE@GOTPCREL(%rip), %rax
	pushq	%rbx
	.cfi_def_cfa_offset 16
	.cfi_offset 3, -16
	movq	%rdi, %rbx
	addq	$16, %rax
	movq	%rax, (%rdi)
	movq	24(%rdi), %rdi
	testq	%rdi, %rdi
	je	.L52
	call	_ZdlPv@PLT
.L52:
	movq	%rbx, %rdi
	movl	$48, %esi
	popq	%rbx
	.cfi_def_cfa_offset 8
	jmp	_ZdlPvm@PLT
	.cfi_endproc
.LFE9107:
	.size	_ZN4asio6detail11timer_queueINS0_18chrono_time_traitsINSt6chrono3_V212steady_clockENS_11wait_traitsIS5_EEEEED0Ev, .-_ZN4asio6detail11timer_queueINS0_18chrono_time_traitsINSt6chrono3_V212steady_clockENS_11wait_traitsIS5_EEEEED0Ev
	.section	.text._ZN4asio6detail15system_categoryD2Ev,"axG",@progbits,_ZN4asio6detail15system_categoryD5Ev,comdat
	.align 2
	.p2align 4,,15
	.weak	_ZN4asio6detail15system_categoryD2Ev
	.type	_ZN4asio6detail15system_categoryD2Ev, @function
_ZN4asio6detail15system_categoryD2Ev:
.LFB9338:
	.cfi_startproc
	movq	_ZTVN4asio6detail15system_categoryE@GOTPCREL(%rip), %rax
	addq	$16, %rax
	movq	%rax, (%rdi)
	jmp	_ZNSt3_V214error_categoryD2Ev@PLT
	.cfi_endproc
.LFE9338:
	.size	_ZN4asio6detail15system_categoryD2Ev, .-_ZN4asio6detail15system_categoryD2Ev
	.weak	_ZN4asio6detail15system_categoryD1Ev
	.set	_ZN4asio6detail15system_categoryD1Ev,_ZN4asio6detail15system_categoryD2Ev
	.section	.text._ZN4asio6detail15system_categoryD0Ev,"axG",@progbits,_ZN4asio6detail15system_categoryD5Ev,comdat
	.align 2
	.p2align 4,,15
	.weak	_ZN4asio6detail15system_categoryD0Ev
	.type	_ZN4asio6detail15system_categoryD0Ev, @function
_ZN4asio6detail15system_categoryD0Ev:
.LFB9340:
	.cfi_startproc
	movq	_ZTVN4asio6detail15system_categoryE@GOTPCREL(%rip), %rax
	pushq	%rbx
	.cfi_def_cfa_offset 16
	.cfi_offset 3, -16
	movq	%rdi, %rbx
	addq	$16, %rax
	movq	%rax, (%rdi)
	call	_ZNSt3_V214error_categoryD2Ev@PLT
	movq	%rbx, %rdi
	movl	$8, %esi
	popq	%rbx
	.cfi_def_cfa_offset 8
	jmp	_ZdlPvm@PLT
	.cfi_endproc
.LFE9340:
	.size	_ZN4asio6detail15system_categoryD0Ev, .-_ZN4asio6detail15system_categoryD0Ev
	.section	.text._ZN4asio5error6detail14netdb_categoryD2Ev,"axG",@progbits,_ZN4asio5error6detail14netdb_categoryD5Ev,comdat
	.align 2
	.p2align 4,,15
	.weak	_ZN4asio5error6detail14netdb_categoryD2Ev
	.type	_ZN4asio5error6detail14netdb_categoryD2Ev, @function
_ZN4asio5error6detail14netdb_categoryD2Ev:
.LFB9326:
	.cfi_startproc
	movq	_ZTVN4asio5error6detail14netdb_categoryE@GOTPCREL(%rip), %rax
	addq	$16, %rax
	movq	%rax, (%rdi)
	jmp	_ZNSt3_V214error_categoryD2Ev@PLT
	.cfi_endproc
.LFE9326:
	.size	_ZN4asio5error6detail14netdb_categoryD2Ev, .-_ZN4asio5error6detail14netdb_categoryD2Ev
	.weak	_ZN4asio5error6detail14netdb_categoryD1Ev
	.set	_ZN4asio5error6detail14netdb_categoryD1Ev,_ZN4asio5error6detail14netdb_categoryD2Ev
	.section	.text._ZN4asio5error6detail14netdb_categoryD0Ev,"axG",@progbits,_ZN4asio5error6detail14netdb_categoryD5Ev,comdat
	.align 2
	.p2align 4,,15
	.weak	_ZN4asio5error6detail14netdb_categoryD0Ev
	.type	_ZN4asio5error6detail14netdb_categoryD0Ev, @function
_ZN4asio5error6detail14netdb_categoryD0Ev:
.LFB9328:
	.cfi_startproc
	movq	_ZTVN4asio5error6detail14netdb_categoryE@GOTPCREL(%rip), %rax
	pushq	%rbx
	.cfi_def_cfa_offset 16
	.cfi_offset 3, -16
	movq	%rdi, %rbx
	addq	$16, %rax
	movq	%rax, (%rdi)
	call	_ZNSt3_V214error_categoryD2Ev@PLT
	movq	%rbx, %rdi
	movl	$8, %esi
	popq	%rbx
	.cfi_def_cfa_offset 8
	jmp	_ZdlPvm@PLT
	.cfi_endproc
.LFE9328:
	.size	_ZN4asio5error6detail14netdb_categoryD0Ev, .-_ZN4asio5error6detail14netdb_categoryD0Ev
	.section	.text._ZN4asio5error6detail17addrinfo_categoryD2Ev,"axG",@progbits,_ZN4asio5error6detail17addrinfo_categoryD5Ev,comdat
	.align 2
	.p2align 4,,15
	.weak	_ZN4asio5error6detail17addrinfo_categoryD2Ev
	.type	_ZN4asio5error6detail17addrinfo_categoryD2Ev, @function
_ZN4asio5error6detail17addrinfo_categoryD2Ev:
.LFB9322:
	.cfi_startproc
	movq	_ZTVN4asio5error6detail17addrinfo_categoryE@GOTPCREL(%rip), %rax
	addq	$16, %rax
	movq	%rax, (%rdi)
	jmp	_ZNSt3_V214error_categoryD2Ev@PLT
	.cfi_endproc
.LFE9322:
	.size	_ZN4asio5error6detail17addrinfo_categoryD2Ev, .-_ZN4asio5error6detail17addrinfo_categoryD2Ev
	.weak	_ZN4asio5error6detail17addrinfo_categoryD1Ev
	.set	_ZN4asio5error6detail17addrinfo_categoryD1Ev,_ZN4asio5error6detail17addrinfo_categoryD2Ev
	.section	.text._ZN4asio5error6detail17addrinfo_categoryD0Ev,"axG",@progbits,_ZN4asio5error6detail17addrinfo_categoryD5Ev,comdat
	.align 2
	.p2align 4,,15
	.weak	_ZN4asio5error6detail17addrinfo_categoryD0Ev
	.type	_ZN4asio5error6detail17addrinfo_categoryD0Ev, @function
_ZN4asio5error6detail17addrinfo_categoryD0Ev:
.LFB9324:
	.cfi_startproc
	movq	_ZTVN4asio5error6detail17addrinfo_categoryE@GOTPCREL(%rip), %rax
	pushq	%rbx
	.cfi_def_cfa_offset 16
	.cfi_offset 3, -16
	movq	%rdi, %rbx
	addq	$16, %rax
	movq	%rax, (%rdi)
	call	_ZNSt3_V214error_categoryD2Ev@PLT
	movq	%rbx, %rdi
	movl	$8, %esi
	popq	%rbx
	.cfi_def_cfa_offset 8
	jmp	_ZdlPvm@PLT
	.cfi_endproc
.LFE9324:
	.size	_ZN4asio5error6detail17addrinfo_categoryD0Ev, .-_ZN4asio5error6detail17addrinfo_categoryD0Ev
	.section	.text._ZN4asio5error6detail13misc_categoryD2Ev,"axG",@progbits,_ZN4asio5error6detail13misc_categoryD5Ev,comdat
	.align 2
	.p2align 4,,15
	.weak	_ZN4asio5error6detail13misc_categoryD2Ev
	.type	_ZN4asio5error6detail13misc_categoryD2Ev, @function
_ZN4asio5error6detail13misc_categoryD2Ev:
.LFB9318:
	.cfi_startproc
	movq	_ZTVN4asio5error6detail13misc_categoryE@GOTPCREL(%rip), %rax
	addq	$16, %rax
	movq	%rax, (%rdi)
	jmp	_ZNSt3_V214error_categoryD2Ev@PLT
	.cfi_endproc
.LFE9318:
	.size	_ZN4asio5error6detail13misc_categoryD2Ev, .-_ZN4asio5error6detail13misc_categoryD2Ev
	.weak	_ZN4asio5error6detail13misc_categoryD1Ev
	.set	_ZN4asio5error6detail13misc_categoryD1Ev,_ZN4asio5error6detail13misc_categoryD2Ev
	.section	.text._ZN4asio5error6detail13misc_categoryD0Ev,"axG",@progbits,_ZN4asio5error6detail13misc_categoryD5Ev,comdat
	.align 2
	.p2align 4,,15
	.weak	_ZN4asio5error6detail13misc_categoryD0Ev
	.type	_ZN4asio5error6detail13misc_categoryD0Ev, @function
_ZN4asio5error6detail13misc_categoryD0Ev:
.LFB9320:
	.cfi_startproc
	movq	_ZTVN4asio5error6detail13misc_categoryE@GOTPCREL(%rip), %rax
	pushq	%rbx
	.cfi_def_cfa_offset 16
	.cfi_offset 3, -16
	movq	%rdi, %rbx
	addq	$16, %rax
	movq	%rax, (%rdi)
	call	_ZNSt3_V214error_categoryD2Ev@PLT
	movq	%rbx, %rdi
	movl	$8, %esi
	popq	%rbx
	.cfi_def_cfa_offset 8
	jmp	_ZdlPvm@PLT
	.cfi_endproc
.LFE9320:
	.size	_ZN4asio5error6detail13misc_categoryD0Ev, .-_ZN4asio5error6detail13misc_categoryD0Ev
	.text
	.align 2
	.p2align 4,,15
	.type	_ZNSt6thread11_State_implINS_8_InvokerISt5tupleIJZN7asiopal10ThreadPoolC4ERKN7openpal6LoggerERKSt10shared_ptrINS3_2IOEEjSt8functionIFvvEESG_EUlvE0_EEEEED2Ev, @function
_ZNSt6thread11_State_implINS_8_InvokerISt5tupleIJZN7asiopal10ThreadPoolC4ERKN7openpal6LoggerERKSt10shared_ptrINS3_2IOEEjSt8functionIFvvEESG_EUlvE0_EEEEED2Ev:
.LFB9278:
	.cfi_startproc
	leaq	16+_ZTVNSt6thread11_State_implINS_8_InvokerISt5tupleIJZN7asiopal10ThreadPoolC4ERKN7openpal6LoggerERKSt10shared_ptrINS3_2IOEEjSt8functionIFvvEESG_EUlvE0_EEEEEE(%rip), %rax
	movq	%rax, (%rdi)
	jmp	_ZNSt6thread6_StateD2Ev@PLT
	.cfi_endproc
.LFE9278:
	.size	_ZNSt6thread11_State_implINS_8_InvokerISt5tupleIJZN7asiopal10ThreadPoolC4ERKN7openpal6LoggerERKSt10shared_ptrINS3_2IOEEjSt8functionIFvvEESG_EUlvE0_EEEEED2Ev, .-_ZNSt6thread11_State_implINS_8_InvokerISt5tupleIJZN7asiopal10ThreadPoolC4ERKN7openpal6LoggerERKSt10shared_ptrINS3_2IOEEjSt8functionIFvvEESG_EUlvE0_EEEEED2Ev
	.set	_ZNSt6thread11_State_implINS_8_InvokerISt5tupleIJZN7asiopal10ThreadPoolC4ERKN7openpal6LoggerERKSt10shared_ptrINS3_2IOEEjSt8functionIFvvEESG_EUlvE0_EEEEED1Ev,_ZNSt6thread11_State_implINS_8_InvokerISt5tupleIJZN7asiopal10ThreadPoolC4ERKN7openpal6LoggerERKSt10shared_ptrINS3_2IOEEjSt8functionIFvvEESG_EUlvE0_EEEEED2Ev
	.align 2
	.p2align 4,,15
	.type	_ZNSt6thread11_State_implINS_8_InvokerISt5tupleIJZN7asiopal10ThreadPoolC4ERKN7openpal6LoggerERKSt10shared_ptrINS3_2IOEEjSt8functionIFvvEESG_EUlvE0_EEEEED0Ev, @function
_ZNSt6thread11_State_implINS_8_InvokerISt5tupleIJZN7asiopal10ThreadPoolC4ERKN7openpal6LoggerERKSt10shared_ptrINS3_2IOEEjSt8functionIFvvEESG_EUlvE0_EEEEED0Ev:
.LFB9280:
	.cfi_startproc
	leaq	16+_ZTVNSt6thread11_State_implINS_8_InvokerISt5tupleIJZN7asiopal10ThreadPoolC4ERKN7openpal6LoggerERKSt10shared_ptrINS3_2IOEEjSt8functionIFvvEESG_EUlvE0_EEEEEE(%rip), %rax
	pushq	%rbx
	.cfi_def_cfa_offset 16
	.cfi_offset 3, -16
	movq	%rdi, %rbx
	movq	%rax, (%rdi)
	call	_ZNSt6thread6_StateD2Ev@PLT
	movq	%rbx, %rdi
	movl	$24, %esi
	popq	%rbx
	.cfi_def_cfa_offset 8
	jmp	_ZdlPvm@PLT
	.cfi_endproc
.LFE9280:
	.size	_ZNSt6thread11_State_implINS_8_InvokerISt5tupleIJZN7asiopal10ThreadPoolC4ERKN7openpal6LoggerERKSt10shared_ptrINS3_2IOEEjSt8functionIFvvEESG_EUlvE0_EEEEED0Ev, .-_ZNSt6thread11_State_implINS_8_InvokerISt5tupleIJZN7asiopal10ThreadPoolC4ERKN7openpal6LoggerERKSt10shared_ptrINS3_2IOEEjSt8functionIFvvEESG_EUlvE0_EEEEED0Ev
	.section	.text._ZN4asio22waitable_timer_serviceINSt6chrono3_V212steady_clockENS_11wait_traitsIS3_EEED2Ev,"axG",@progbits,_ZN4asio22waitable_timer_serviceINSt6chrono3_V212steady_clockENS_11wait_traitsIS3_EEED5Ev,comdat
	.align 2
	.p2align 4,,15
	.weak	_ZN4asio22waitable_timer_serviceINSt6chrono3_V212steady_clockENS_11wait_traitsIS3_EEED2Ev
	.type	_ZN4asio22waitable_timer_serviceINSt6chrono3_V212steady_clockENS_11wait_traitsIS3_EEED2Ev, @function
_ZN4asio22waitable_timer_serviceINSt6chrono3_V212steady_clockENS_11wait_traitsIS3_EEED2Ev:
.LFB9302:
	.cfi_startproc
	pushq	%r12
	.cfi_def_cfa_offset 16
	.cfi_offset 12, -16
	pushq	%rbp
	.cfi_def_cfa_offset 24
	.cfi_offset 6, -24
	pushq	%rbx
	.cfi_def_cfa_offset 32
	.cfi_offset 3, -32
	movq	88(%rdi), %rbp
	movq	%rdi, %rbx
	movq	_ZTVN4asio22waitable_timer_serviceINSt6chrono3_V212steady_clockENS_11wait_traitsIS3_EEEE@GOTPCREL(%rip), %rax
	leaq	48(%rbp), %r12
	addq	$16, %rax
	movq	%rax, (%rdi)
	movq	%r12, %rdi
	call	pthread_mutex_lock@PLT
	movq	104(%rbp), %rdx
	testq	%rdx, %rdx
	je	.L73
	leaq	40(%rbx), %rcx
	cmpq	%rdx, %rcx
	jne	.L74
	jmp	.L85
	.p2align 4,,10
	.p2align 3
.L87:
	cmpq	%rax, %rcx
	je	.L86
	movq	%rax, %rdx
.L74:
	movq	8(%rdx), %rax
	testq	%rax, %rax
	jne	.L87
.L73:
	movq	%r12, %rdi
	call	pthread_mutex_unlock@PLT
	movq	_ZTVN4asio6detail11timer_queueINS0_18chrono_time_traitsINSt6chrono3_V212steady_clockENS_11wait_traitsIS5_EEEEEE@GOTPCREL(%rip), %rax
	movq	64(%rbx), %rdi
	addq	$16, %rax
	testq	%rdi, %rdi
	movq	%rax, 40(%rbx)
	je	.L72
	popq	%rbx
	.cfi_remember_state
	.cfi_def_cfa_offset 24
	popq	%rbp
	.cfi_def_cfa_offset 16
	popq	%r12
	.cfi_def_cfa_offset 8
	jmp	_ZdlPv@PLT
	.p2align 4,,10
	.p2align 3
.L72:
	.cfi_restore_state
	popq	%rbx
	.cfi_remember_state
	.cfi_def_cfa_offset 24
	popq	%rbp
	.cfi_def_cfa_offset 16
	popq	%r12
	.cfi_def_cfa_offset 8
	ret
	.p2align 4,,10
	.p2align 3
.L86:
	.cfi_restore_state
	movq	48(%rbx), %rax
	movq	%rax, 8(%rdx)
	movq	$0, 48(%rbx)
	jmp	.L73
	.p2align 4,,10
	.p2align 3
.L85:
	movq	48(%rbx), %rax
	movq	%rax, 104(%rbp)
	movq	$0, 48(%rbx)
	jmp	.L73
	.cfi_endproc
.LFE9302:
	.size	_ZN4asio22waitable_timer_serviceINSt6chrono3_V212steady_clockENS_11wait_traitsIS3_EEED2Ev, .-_ZN4asio22waitable_timer_serviceINSt6chrono3_V212steady_clockENS_11wait_traitsIS3_EEED2Ev
	.weak	_ZN4asio22waitable_timer_serviceINSt6chrono3_V212steady_clockENS_11wait_traitsIS3_EEED1Ev
	.set	_ZN4asio22waitable_timer_serviceINSt6chrono3_V212steady_clockENS_11wait_traitsIS3_EEED1Ev,_ZN4asio22waitable_timer_serviceINSt6chrono3_V212steady_clockENS_11wait_traitsIS3_EEED2Ev
	.section	.text._ZN4asio6detail13epoll_reactorD2Ev,"axG",@progbits,_ZN4asio6detail13epoll_reactorD5Ev,comdat
	.align 2
	.p2align 4,,15
	.weak	_ZN4asio6detail13epoll_reactorD2Ev
	.type	_ZN4asio6detail13epoll_reactorD2Ev, @function
_ZN4asio6detail13epoll_reactorD2Ev:
.LFB3362:
	.cfi_startproc
	.cfi_personality 0x9b,DW.ref.__gxx_personality_v0
	.cfi_lsda 0x1b,.LLSDA3362
	pushq	%r15
	.cfi_def_cfa_offset 16
	.cfi_offset 15, -16
	pushq	%r14
	.cfi_def_cfa_offset 24
	.cfi_offset 14, -24
	pushq	%r13
	.cfi_def_cfa_offset 32
	.cfi_offset 13, -32
	pushq	%r12
	.cfi_def_cfa_offset 40
	.cfi_offset 12, -40
	pushq	%rbp
	.cfi_def_cfa_offset 48
	.cfi_offset 6, -48
	pushq	%rbx
	.cfi_def_cfa_offset 56
	.cfi_offset 3, -56
	subq	$56, %rsp
	.cfi_def_cfa_offset 112
	movq	%fs:40, %rax
	movq	%rax, 40(%rsp)
	xorl	%eax, %eax
	movq	_ZTVN4asio6detail13epoll_reactorE@GOTPCREL(%rip), %rax
	movq	%rdi, 8(%rsp)
	addq	$16, %rax
	movq	%rax, (%rdi)
	movl	96(%rdi), %edi
	cmpl	$-1, %edi
	je	.L89
	call	close@PLT
.L89:
	movq	8(%rsp), %rax
	movl	100(%rax), %edi
	cmpl	$-1, %edi
	je	.L90
	call	close@PLT
	movq	8(%rsp), %rax
.L90:
	movq	160(%rax), %r12
	testq	%r12, %r12
	je	.L91
	leaq	16(%rsp), %rbp
	.p2align 4,,10
	.p2align 3
.L97:
	movq	24(%r12), %r15
	leaq	128(%r12), %r14
	leaq	80(%r12), %r13
.L96:
	movq	(%r14), %rsi
	testq	%rsi, %rsi
	movq	%rsi, (%rsp)
	je	.L92
	call	_ZNSt3_V215system_categoryEv@PLT
	movq	(%rsp), %rsi
	movq	%rax, %rbx
	jmp	.L93
	.p2align 4,,10
	.p2align 3
.L94:
	movq	$0, (%rsi)
	movq	8(%rsi), %rax
	xorl	%ecx, %ecx
	xorl	%edi, %edi
	movl	$0, 16(%rsp)
	movq	%rbx, 24(%rsp)
	movq	%rbp, %rdx
	call	*%rax
	movq	(%r14), %rsi
	testq	%rsi, %rsi
	je	.L92
.L93:
	movq	(%rsi), %rax
	testq	%rax, %rax
	movq	%rax, (%r14)
	jne	.L94
	movq	$0, 8(%r14)
	jmp	.L94
	.p2align 4,,10
	.p2align 3
.L92:
	subq	$16, %r14
	cmpq	%r13, %r14
	jne	.L96
	leaq	40(%r12), %rdi
	call	pthread_mutex_destroy@PLT
	movq	%r12, %rdi
	movl	$152, %esi
	movq	%r15, %r12
	call	_ZdlPvm@PLT
	testq	%r15, %r15
	jne	.L97
.L91:
	movq	8(%rsp), %rax
	movq	168(%rax), %r12
	testq	%r12, %r12
	je	.L98
	leaq	16(%rsp), %rbp
	.p2align 4,,10
	.p2align 3
.L104:
	movq	24(%r12), %r15
	leaq	128(%r12), %r14
	leaq	80(%r12), %r13
.L103:
	movq	(%r14), %rsi
	testq	%rsi, %rsi
	movq	%rsi, (%rsp)
	je	.L99
	call	_ZNSt3_V215system_categoryEv@PLT
	movq	(%rsp), %rsi
	movq	%rax, %rbx
	jmp	.L100
	.p2align 4,,10
	.p2align 3
.L101:
	movq	$0, (%rsi)
	movq	8(%rsi), %rax
	xorl	%ecx, %ecx
	xorl	%edi, %edi
	movl	$0, 16(%rsp)
	movq	%rbx, 24(%rsp)
	movq	%rbp, %rdx
	call	*%rax
	movq	(%r14), %rsi
	testq	%rsi, %rsi
	je	.L99
.L100:
	movq	(%rsi), %rax
	testq	%rax, %rax
	movq	%rax, (%r14)
	jne	.L101
	movq	$0, 8(%r14)
	jmp	.L101
	.p2align 4,,10
	.p2align 3
.L99:
	subq	$16, %r14
	cmpq	%r14, %r13
	jne	.L103
	leaq	40(%r12), %rdi
	call	pthread_mutex_destroy@PLT
	movq	%r12, %rdi
	movl	$152, %esi
	movq	%r15, %r12
	call	_ZdlPvm@PLT
	testq	%r15, %r15
	jne	.L104
.L98:
	movq	8(%rsp), %rbx
	leaq	120(%rbx), %rdi
	call	pthread_mutex_destroy@PLT
	movl	92(%rbx), %eax
	cmpl	$-1, %eax
	je	.L105
	movl	88(%rbx), %edi
	cmpl	%edi, %eax
	jne	.L146
.L106:
	call	close@PLT
.L107:
	movq	8(%rsp), %rdi
	addq	$48, %rdi
	call	pthread_mutex_destroy@PLT
	movq	40(%rsp), %rax
	xorq	%fs:40, %rax
	jne	.L147
	addq	$56, %rsp
	.cfi_remember_state
	.cfi_def_cfa_offset 56
	popq	%rbx
	.cfi_def_cfa_offset 48
	popq	%rbp
	.cfi_def_cfa_offset 40
	popq	%r12
	.cfi_def_cfa_offset 32
	popq	%r13
	.cfi_def_cfa_offset 24
	popq	%r14
	.cfi_def_cfa_offset 16
	popq	%r15
	.cfi_def_cfa_offset 8
	ret
.L146:
	.cfi_restore_state
	movl	%eax, %edi
	call	close@PLT
.L105:
	movq	8(%rsp), %rax
	movl	88(%rax), %edi
	cmpl	$-1, %edi
	je	.L107
	jmp	.L106
.L147:
	call	__stack_chk_fail@PLT
	.cfi_endproc
.LFE3362:
	.globl	__gxx_personality_v0
	.section	.gcc_except_table._ZN4asio6detail13epoll_reactorD2Ev,"aG",@progbits,_ZN4asio6detail13epoll_reactorD5Ev,comdat
.LLSDA3362:
	.byte	0xff
	.byte	0xff
	.byte	0x1
	.uleb128 .LLSDACSE3362-.LLSDACSB3362
.LLSDACSB3362:
.LLSDACSE3362:
	.section	.text._ZN4asio6detail13epoll_reactorD2Ev,"axG",@progbits,_ZN4asio6detail13epoll_reactorD5Ev,comdat
	.size	_ZN4asio6detail13epoll_reactorD2Ev, .-_ZN4asio6detail13epoll_reactorD2Ev
	.weak	_ZN4asio6detail13epoll_reactorD1Ev
	.set	_ZN4asio6detail13epoll_reactorD1Ev,_ZN4asio6detail13epoll_reactorD2Ev
	.text
	.p2align 4,,15
	.type	_ZN4asio6detail12wait_handlerIZN7asiopal10ThreadPoolC4ERKN7openpal6LoggerERKSt10shared_ptrINS2_2IOEEjSt8functionIFvvEESF_EUlRKSt10error_codeE_E11do_completeEPNS0_15task_io_serviceEPNS0_25task_io_service_operationESI_m, @function
_ZN4asio6detail12wait_handlerIZN7asiopal10ThreadPoolC4ERKN7openpal6LoggerERKSt10shared_ptrINS2_2IOEEjSt8functionIFvvEESF_EUlRKSt10error_codeE_E11do_completeEPNS0_15task_io_serviceEPNS0_25task_io_service_operationESI_m:
.LFB8767:
	.cfi_startproc
	.cfi_personality 0x9b,DW.ref.__gxx_personality_v0
	pushq	%rbp
	.cfi_def_cfa_offset 16
	.cfi_offset 6, -16
	pushq	%rbx
	.cfi_def_cfa_offset 24
	.cfi_offset 3, -24
	movq	%rdi, %rbp
	movq	%rsi, %rbx
	subq	$8, %rsp
	.cfi_def_cfa_offset 32
	.byte	0x66
	leaq	_ZN4asio6detail15keyword_tss_ptrINS0_10call_stackINS0_15task_io_serviceENS0_27task_io_service_thread_infoEE7contextEE6value_E@tlsgd(%rip), %rdi
	.value	0x6666
	rex64
	call	__tls_get_addr@PLT
	movq	(%rax), %rax
	testq	%rax, %rax
	je	.L149
	movq	8(%rax), %rax
	testq	%rax, %rax
	je	.L149
	cmpq	$0, (%rax)
	je	.L162
.L149:
	movq	%rbx, %rdi
	call	_ZdlPv@PLT
.L150:
	testq	%rbp, %rbp
	je	.L148
	sfence
.L148:
	addq	$8, %rsp
	.cfi_remember_state
	.cfi_def_cfa_offset 24
	popq	%rbx
	.cfi_def_cfa_offset 16
	popq	%rbp
	.cfi_def_cfa_offset 8
	ret
	.p2align 4,,10
	.p2align 3
.L162:
	.cfi_restore_state
	movzbl	48(%rbx), %edx
	movb	%dl, (%rbx)
	movq	%rbx, (%rax)
	jmp	.L150
	.cfi_endproc
.LFE8767:
	.size	_ZN4asio6detail12wait_handlerIZN7asiopal10ThreadPoolC4ERKN7openpal6LoggerERKSt10shared_ptrINS2_2IOEEjSt8functionIFvvEESF_EUlRKSt10error_codeE_E11do_completeEPNS0_15task_io_serviceEPNS0_25task_io_service_operationESI_m, .-_ZN4asio6detail12wait_handlerIZN7asiopal10ThreadPoolC4ERKN7openpal6LoggerERKSt10shared_ptrINS2_2IOEEjSt8functionIFvvEESF_EUlRKSt10error_codeE_E11do_completeEPNS0_15task_io_serviceEPNS0_25task_io_service_operationESI_m
	.section	.text._ZN4asio6detail13epoll_reactor16shutdown_serviceEv,"axG",@progbits,_ZN4asio6detail13epoll_reactor16shutdown_serviceEv,comdat
	.align 2
	.p2align 4,,15
	.weak	_ZN4asio6detail13epoll_reactor16shutdown_serviceEv
	.type	_ZN4asio6detail13epoll_reactor16shutdown_serviceEv, @function
_ZN4asio6detail13epoll_reactor16shutdown_serviceEv:
.LFB3365:
	.cfi_startproc
	.cfi_personality 0x9b,DW.ref.__gxx_personality_v0
	.cfi_lsda 0x1b,.LLSDA3365
	pushq	%r13
	.cfi_def_cfa_offset 16
	.cfi_offset 13, -16
	pushq	%r12
	.cfi_def_cfa_offset 24
	.cfi_offset 12, -24
	pushq	%rbp
	.cfi_def_cfa_offset 32
	.cfi_offset 6, -32
	leaq	48(%rdi), %rbp
	pushq	%rbx
	.cfi_def_cfa_offset 40
	.cfi_offset 3, -40
	movq	%rdi, %rbx
	subq	$72, %rsp
	.cfi_def_cfa_offset 112
	movq	%rbp, %rdi
	movq	%fs:40, %rax
	movq	%rax, 56(%rsp)
	xorl	%eax, %eax
	call	pthread_mutex_lock@PLT
	movb	$1, 112(%rbx)
	movq	%rbp, %rdi
	call	pthread_mutex_unlock@PLT
	movq	160(%rbx), %rax
	pxor	%xmm0, %xmm0
	testq	%rax, %rax
	movaps	%xmm0, 16(%rsp)
	je	.L165
	xorl	%edi, %edi
	xorl	%edx, %edx
	xorl	%r8d, %r8d
	xorl	%r9d, %r9d
	jmp	.L164
	.p2align 4,,10
	.p2align 3
.L175:
	movq	32(%rax), %rsi
	testq	%rsi, %rsi
	je	.L176
	movq	%rcx, 24(%rsi)
	movq	24(%rax), %rcx
.L176:
	testq	%rcx, %rcx
	je	.L177
	movq	32(%rax), %rsi
	movq	%rsi, 32(%rcx)
.L177:
	movq	168(%rbx), %rcx
	movq	$0, 32(%rax)
	movq	%rcx, 24(%rax)
	movq	%rax, 168(%rbx)
	movq	160(%rbx), %rax
	testq	%rax, %rax
	je	.L256
.L164:
	movq	96(%rax), %rcx
	testq	%rcx, %rcx
	je	.L166
	testq	%rdx, %rdx
	je	.L257
	movq	%rcx, (%rdx)
.L168:
	movq	104(%rax), %rdx
	movq	$0, 96(%rax)
	movl	$1, %edi
	movq	$0, 104(%rax)
.L166:
	movq	112(%rax), %rcx
	testq	%rcx, %rcx
	je	.L169
	testq	%rdx, %rdx
	je	.L258
	movq	%rcx, (%rdx)
.L171:
	movq	120(%rax), %rdx
	movq	$0, 112(%rax)
	movl	$1, %edi
	movq	$0, 120(%rax)
.L169:
	movq	128(%rax), %rcx
	testq	%rcx, %rcx
	je	.L172
	testq	%rdx, %rdx
	je	.L259
	movq	%rcx, (%rdx)
.L174:
	movq	136(%rax), %rdx
	movq	$0, 128(%rax)
	movl	$1, %edi
	movq	$0, 136(%rax)
.L172:
	movb	$1, 144(%rax)
	cmpq	%rax, 160(%rbx)
	movq	24(%rax), %rcx
	jne	.L175
	movq	%rcx, 160(%rbx)
	movq	24(%rax), %rcx
	jmp	.L175
	.p2align 4,,10
	.p2align 3
.L257:
	movq	%rcx, %r9
	movl	$1, %r8d
	jmp	.L168
	.p2align 4,,10
	.p2align 3
.L258:
	movq	%rcx, %r9
	movl	$1, %r8d
	jmp	.L171
	.p2align 4,,10
	.p2align 3
.L259:
	movq	%rcx, %r9
	movl	$1, %r8d
	jmp	.L174
	.p2align 4,,10
	.p2align 3
.L256:
	testb	%r8b, %r8b
	jne	.L260
.L180:
	testb	%dil, %dil
	jne	.L261
.L165:
	movq	104(%rbx), %rbx
	testq	%rbx, %rbx
	je	.L182
	movq	_ZN4asio6detail11timer_queueINS0_18chrono_time_traitsINSt6chrono3_V212steady_clockENS_11wait_traitsIS5_EEEEE14get_all_timersERNS0_8op_queueINS0_25task_io_service_operationEEE@GOTPCREL(%rip), %rbp
	leaq	16(%rsp), %r12
	.p2align 4,,10
	.p2align 3
.L191:
	movq	(%rbx), %rax
	movq	48(%rax), %rax
	cmpq	%rbp, %rax
	jne	.L183
	movq	16(%rbx), %rax
	testq	%rax, %rax
	je	.L184
	movq	24(%rsp), %rcx
	movq	16(%rsp), %r9
	xorl	%edi, %edi
	xorl	%r8d, %r8d
	jmp	.L187
	.p2align 4,,10
	.p2align 3
.L263:
	movq	%rdx, (%rcx)
.L186:
	movq	8(%rax), %rcx
	movq	$0, (%rax)
	movl	$1, %edi
	movq	$0, 8(%rax)
.L185:
	testq	%rsi, %rsi
	movq	$0, 24(%rax)
	movq	$0, 32(%rax)
	movq	%rsi, %rax
	je	.L262
.L187:
	movq	(%rax), %rdx
	movq	24(%rax), %rsi
	testq	%rdx, %rdx
	je	.L185
	testq	%rcx, %rcx
	jne	.L263
	movq	%rdx, %r9
	movl	$1, %r8d
	jmp	.L186
	.p2align 4,,10
	.p2align 3
.L262:
	testb	%r8b, %r8b
	jne	.L264
.L188:
	testb	%dil, %dil
	je	.L189
	movq	%rcx, 24(%rsp)
.L189:
	movq	$0, 16(%rbx)
	.p2align 4,,10
	.p2align 3
.L184:
	movq	24(%rbx), %rax
	movq	%rax, 32(%rbx)
.L190:
	movq	8(%rbx), %rbx
	testq	%rbx, %rbx
	jne	.L191
.L182:
	movq	16(%rsp), %rsi
	testq	%rsi, %rsi
	movq	%rsi, 8(%rsp)
	je	.L163
	pxor	%xmm0, %xmm0
	leaq	32(%rsp), %rbx
	movaps	%xmm0, 16(%rsp)
	call	_ZNSt3_V215system_categoryEv@PLT
	movq	%rax, %r12
	movq	8(%rsp), %rsi
	.p2align 4,,10
	.p2align 3
.L193:
	movq	(%rsi), %rbp
	movq	8(%rsi), %rax
	xorl	%ecx, %ecx
	movq	$0, (%rsi)
	xorl	%edi, %edi
	movl	$0, 32(%rsp)
	movq	%r12, 40(%rsp)
	movq	%rbx, %rdx
	call	*%rax
	testq	%rbp, %rbp
	movq	%rbp, %rsi
	jne	.L193
	movq	16(%rsp), %rsi
	testq	%rsi, %rsi
	movq	%rsi, 8(%rsp)
	je	.L163
	call	_ZNSt3_V215system_categoryEv@PLT
	movq	8(%rsp), %rsi
	movq	%rax, %rbp
	jmp	.L195
	.p2align 4,,10
	.p2align 3
.L196:
	movq	$0, (%rsi)
	movq	8(%rsi), %rax
	xorl	%ecx, %ecx
	xorl	%edi, %edi
	movl	$0, 32(%rsp)
	movq	%rbp, 40(%rsp)
	movq	%rbx, %rdx
	call	*%rax
	movq	16(%rsp), %rsi
	testq	%rsi, %rsi
	je	.L163
.L195:
	movq	(%rsi), %rax
	testq	%rax, %rax
	movq	%rax, 16(%rsp)
	jne	.L196
	movq	$0, 24(%rsp)
	jmp	.L196
	.p2align 4,,10
	.p2align 3
.L183:
	movq	%r12, %rsi
	movq	%rbx, %rdi
.LEHB0:
	call	*%rax
.LEHE0:
	jmp	.L190
	.p2align 4,,10
	.p2align 3
.L163:
	movq	56(%rsp), %rax
	xorq	%fs:40, %rax
	jne	.L265
	addq	$72, %rsp
	.cfi_remember_state
	.cfi_def_cfa_offset 40
	popq	%rbx
	.cfi_def_cfa_offset 32
	popq	%rbp
	.cfi_def_cfa_offset 24
	popq	%r12
	.cfi_def_cfa_offset 16
	popq	%r13
	.cfi_def_cfa_offset 8
	ret
.L264:
	.cfi_restore_state
	movq	%r9, 16(%rsp)
	jmp	.L188
.L261:
	movq	%rdx, 24(%rsp)
	jmp	.L165
.L260:
	movq	%r9, 16(%rsp)
	jmp	.L180
.L265:
	call	__stack_chk_fail@PLT
.L204:
	leaq	32(%rsp), %r12
	movq	%rax, %rbp
.L198:
	movq	16(%rsp), %rbx
	testq	%rbx, %rbx
	je	.L199
	movq	(%rbx), %rax
	testq	%rax, %rax
	movq	%rax, 16(%rsp)
	jne	.L200
	movq	$0, 24(%rsp)
.L200:
	movq	$0, (%rbx)
	movq	8(%rbx), %r13
	movl	$0, 32(%rsp)
	call	_ZNSt3_V215system_categoryEv@PLT
	xorl	%ecx, %ecx
	movq	%rax, 40(%rsp)
	movq	%r12, %rdx
	movq	%rbx, %rsi
	xorl	%edi, %edi
	call	*%r13
	jmp	.L198
.L199:
	movq	%rbp, %rdi
.LEHB1:
	call	_Unwind_Resume@PLT
.LEHE1:
	.cfi_endproc
.LFE3365:
	.section	.gcc_except_table._ZN4asio6detail13epoll_reactor16shutdown_serviceEv,"aG",@progbits,_ZN4asio6detail13epoll_reactor16shutdown_serviceEv,comdat
.LLSDA3365:
	.byte	0xff
	.byte	0xff
	.byte	0x1
	.uleb128 .LLSDACSE3365-.LLSDACSB3365
.LLSDACSB3365:
	.uleb128 .LEHB0-.LFB3365
	.uleb128 .LEHE0-.LEHB0
	.uleb128 .L204-.LFB3365
	.uleb128 0
	.uleb128 .LEHB1-.LFB3365
	.uleb128 .LEHE1-.LEHB1
	.uleb128 0
	.uleb128 0
.LLSDACSE3365:
	.section	.text._ZN4asio6detail13epoll_reactor16shutdown_serviceEv,"axG",@progbits,_ZN4asio6detail13epoll_reactor16shutdown_serviceEv,comdat
	.size	_ZN4asio6detail13epoll_reactor16shutdown_serviceEv, .-_ZN4asio6detail13epoll_reactor16shutdown_serviceEv
	.section	.text._ZNK4asio6detail11timer_queueINS0_18chrono_time_traitsINSt6chrono3_V212steady_clockENS_11wait_traitsIS5_EEEEE18wait_duration_usecEl,"axG",@progbits,_ZNK4asio6detail11timer_queueINS0_18chrono_time_traitsINSt6chrono3_V212steady_clockENS_11wait_traitsIS5_EEEEE18wait_duration_usecEl,comdat
	.align 2
	.p2align 4,,15
	.weak	_ZNK4asio6detail11timer_queueINS0_18chrono_time_traitsINSt6chrono3_V212steady_clockENS_11wait_traitsIS5_EEEEE18wait_duration_usecEl
	.type	_ZNK4asio6detail11timer_queueINS0_18chrono_time_traitsINSt6chrono3_V212steady_clockENS_11wait_traitsIS5_EEEEE18wait_duration_usecEl, @function
_ZNK4asio6detail11timer_queueINS0_18chrono_time_traitsINSt6chrono3_V212steady_clockENS_11wait_traitsIS5_EEEEE18wait_duration_usecEl:
.LFB9416:
	.cfi_startproc
	pushq	%rbp
	.cfi_def_cfa_offset 16
	.cfi_offset 6, -16
	pushq	%rbx
	.cfi_def_cfa_offset 24
	.cfi_offset 3, -24
	movq	%rsi, %rax
	subq	$8, %rsp
	.cfi_def_cfa_offset 32
	movq	32(%rdi), %rbx
	cmpq	%rbx, 24(%rdi)
	je	.L266
	movq	%rdi, %rbx
	movq	%rsi, %rbp
	call	_ZNSt6chrono3_V212steady_clock3nowEv@PLT
	movq	%rax, %rcx
	movq	24(%rbx), %rax
	movq	(%rax), %rdx
	testq	%rdx, %rdx
	js	.L268
	testq	%rcx, %rcx
	js	.L269
.L282:
	subq	%rcx, %rdx
	xorl	%eax, %eax
	testq	%rdx, %rdx
	movq	%rdx, %rcx
	jle	.L266
.L272:
	movq	%rcx, %rax
	movabsq	$2361183241434822607, %rdx
	sarq	$63, %rcx
	imulq	%rdx
	movl	$1, %eax
	sarq	$7, %rdx
	subq	%rcx, %rdx
	jne	.L271
.L266:
	addq	$8, %rsp
	.cfi_remember_state
	.cfi_def_cfa_offset 24
	popq	%rbx
	.cfi_def_cfa_offset 16
	popq	%rbp
	.cfi_def_cfa_offset 8
	ret
	.p2align 4,,10
	.p2align 3
.L268:
	.cfi_restore_state
	xorl	%eax, %eax
	testq	%rcx, %rcx
	js	.L282
	addq	$8, %rsp
	.cfi_remember_state
	.cfi_def_cfa_offset 24
	popq	%rbx
	.cfi_def_cfa_offset 16
	popq	%rbp
	.cfi_def_cfa_offset 8
	ret
	.p2align 4,,10
	.p2align 3
.L276:
	.cfi_restore_state
	movabsq	$9223372036854775, %rdx
.L271:
	cmpq	%rdx, %rbp
	movq	%rdx, %rax
	cmovle	%rbp, %rax
	addq	$8, %rsp
	.cfi_remember_state
	.cfi_def_cfa_offset 24
	popq	%rbx
	.cfi_def_cfa_offset 16
	popq	%rbp
	.cfi_def_cfa_offset 8
	ret
	.p2align 4,,10
	.p2align 3
.L269:
	.cfi_restore_state
	movabsq	$-9223372036854775808, %rax
	cmpq	%rax, %rcx
	je	.L276
	subq	$1, %rax
	movq	%rcx, %rsi
	negq	%rsi
	subq	%rdx, %rax
	cmpq	%rax, %rsi
	jg	.L276
	subq	%rcx, %rdx
	movq	%rdx, %rcx
	jmp	.L272
	.cfi_endproc
.LFE9416:
	.size	_ZNK4asio6detail11timer_queueINS0_18chrono_time_traitsINSt6chrono3_V212steady_clockENS_11wait_traitsIS5_EEEEE18wait_duration_usecEl, .-_ZNK4asio6detail11timer_queueINS0_18chrono_time_traitsINSt6chrono3_V212steady_clockENS_11wait_traitsIS5_EEEEE18wait_duration_usecEl
	.section	.text._ZNK4asio6detail11timer_queueINS0_18chrono_time_traitsINSt6chrono3_V212steady_clockENS_11wait_traitsIS5_EEEEE18wait_duration_msecEl,"axG",@progbits,_ZNK4asio6detail11timer_queueINS0_18chrono_time_traitsINSt6chrono3_V212steady_clockENS_11wait_traitsIS5_EEEEE18wait_duration_msecEl,comdat
	.align 2
	.p2align 4,,15
	.weak	_ZNK4asio6detail11timer_queueINS0_18chrono_time_traitsINSt6chrono3_V212steady_clockENS_11wait_traitsIS5_EEEEE18wait_duration_msecEl
	.type	_ZNK4asio6detail11timer_queueINS0_18chrono_time_traitsINSt6chrono3_V212steady_clockENS_11wait_traitsIS5_EEEEE18wait_duration_msecEl, @function
_ZNK4asio6detail11timer_queueINS0_18chrono_time_traitsINSt6chrono3_V212steady_clockENS_11wait_traitsIS5_EEEEE18wait_duration_msecEl:
.LFB9415:
	.cfi_startproc
	pushq	%rbp
	.cfi_def_cfa_offset 16
	.cfi_offset 6, -16
	pushq	%rbx
	.cfi_def_cfa_offset 24
	.cfi_offset 3, -24
	movq	%rsi, %rax
	subq	$8, %rsp
	.cfi_def_cfa_offset 32
	movq	32(%rdi), %rbx
	cmpq	%rbx, 24(%rdi)
	je	.L284
	movq	%rdi, %rbx
	movq	%rsi, %rbp
	call	_ZNSt6chrono3_V212steady_clock3nowEv@PLT
	movq	%rax, %rcx
	movq	24(%rbx), %rax
	movq	(%rax), %rdx
	testq	%rdx, %rdx
	js	.L286
	testq	%rcx, %rcx
	js	.L287
.L300:
	subq	%rcx, %rdx
	xorl	%eax, %eax
	testq	%rdx, %rdx
	movq	%rdx, %rcx
	jle	.L284
.L290:
	movq	%rcx, %rax
	movabsq	$4835703278458516699, %rdx
	sarq	$63, %rcx
	imulq	%rdx
	movl	$1, %eax
	sarq	$18, %rdx
	subq	%rcx, %rdx
	jne	.L289
.L284:
	addq	$8, %rsp
	.cfi_remember_state
	.cfi_def_cfa_offset 24
	popq	%rbx
	.cfi_def_cfa_offset 16
	popq	%rbp
	.cfi_def_cfa_offset 8
	ret
	.p2align 4,,10
	.p2align 3
.L286:
	.cfi_restore_state
	xorl	%eax, %eax
	testq	%rcx, %rcx
	js	.L300
	addq	$8, %rsp
	.cfi_remember_state
	.cfi_def_cfa_offset 24
	popq	%rbx
	.cfi_def_cfa_offset 16
	popq	%rbp
	.cfi_def_cfa_offset 8
	ret
	.p2align 4,,10
	.p2align 3
.L294:
	.cfi_restore_state
	movabsq	$9223372036854, %rdx
.L289:
	cmpq	%rdx, %rbp
	movq	%rdx, %rax
	cmovle	%rbp, %rax
	addq	$8, %rsp
	.cfi_remember_state
	.cfi_def_cfa_offset 24
	popq	%rbx
	.cfi_def_cfa_offset 16
	popq	%rbp
	.cfi_def_cfa_offset 8
	ret
	.p2align 4,,10
	.p2align 3
.L287:
	.cfi_restore_state
	movabsq	$-9223372036854775808, %rax
	cmpq	%rax, %rcx
	je	.L294
	subq	$1, %rax
	movq	%rcx, %rsi
	negq	%rsi
	subq	%rdx, %rax
	cmpq	%rax, %rsi
	jg	.L294
	subq	%rcx, %rdx
	movq	%rdx, %rcx
	jmp	.L290
	.cfi_endproc
.LFE9415:
	.size	_ZNK4asio6detail11timer_queueINS0_18chrono_time_traitsINSt6chrono3_V212steady_clockENS_11wait_traitsIS5_EEEEE18wait_duration_msecEl, .-_ZNK4asio6detail11timer_queueINS0_18chrono_time_traitsINSt6chrono3_V212steady_clockENS_11wait_traitsIS5_EEEEE18wait_duration_msecEl
	.section	.text._ZN4asio6detail13epoll_reactorD0Ev,"axG",@progbits,_ZN4asio6detail13epoll_reactorD5Ev,comdat
	.align 2
	.p2align 4,,15
	.weak	_ZN4asio6detail13epoll_reactorD0Ev
	.type	_ZN4asio6detail13epoll_reactorD0Ev, @function
_ZN4asio6detail13epoll_reactorD0Ev:
.LFB3364:
	.cfi_startproc
	.cfi_personality 0x9b,DW.ref.__gxx_personality_v0
	.cfi_lsda 0x1b,.LLSDA3364
	pushq	%r15
	.cfi_def_cfa_offset 16
	.cfi_offset 15, -16
	pushq	%r14
	.cfi_def_cfa_offset 24
	.cfi_offset 14, -24
	movq	%rdi, %r15
	pushq	%r13
	.cfi_def_cfa_offset 32
	.cfi_offset 13, -32
	pushq	%r12
	.cfi_def_cfa_offset 40
	.cfi_offset 12, -40
	pushq	%rbp
	.cfi_def_cfa_offset 48
	.cfi_offset 6, -48
	pushq	%rbx
	.cfi_def_cfa_offset 56
	.cfi_offset 3, -56
	subq	$56, %rsp
	.cfi_def_cfa_offset 112
	movq	%fs:40, %rax
	movq	%rax, 40(%rsp)
	xorl	%eax, %eax
	movq	_ZTVN4asio6detail13epoll_reactorE@GOTPCREL(%rip), %rax
	addq	$16, %rax
	movq	%rax, (%rdi)
	movl	96(%rdi), %edi
	cmpl	$-1, %edi
	je	.L303
	call	close@PLT
.L303:
	movl	100(%r15), %edi
	cmpl	$-1, %edi
	je	.L304
	call	close@PLT
.L304:
	movq	160(%r15), %r12
	testq	%r12, %r12
	je	.L305
	leaq	16(%rsp), %rbp
	.p2align 4,,10
	.p2align 3
.L311:
	movq	24(%r12), %rax
	leaq	128(%r12), %r14
	leaq	80(%r12), %r13
	movq	%rax, 8(%rsp)
.L310:
	movq	(%r14), %rsi
	testq	%rsi, %rsi
	movq	%rsi, (%rsp)
	je	.L306
	call	_ZNSt3_V215system_categoryEv@PLT
	movq	(%rsp), %rsi
	movq	%rax, %rbx
	jmp	.L307
	.p2align 4,,10
	.p2align 3
.L308:
	movq	$0, (%rsi)
	movq	8(%rsi), %rax
	xorl	%ecx, %ecx
	xorl	%edi, %edi
	movl	$0, 16(%rsp)
	movq	%rbx, 24(%rsp)
	movq	%rbp, %rdx
	call	*%rax
	movq	(%r14), %rsi
	testq	%rsi, %rsi
	je	.L306
.L307:
	movq	(%rsi), %rax
	testq	%rax, %rax
	movq	%rax, (%r14)
	jne	.L308
	movq	$0, 8(%r14)
	jmp	.L308
	.p2align 4,,10
	.p2align 3
.L306:
	subq	$16, %r14
	cmpq	%r13, %r14
	jne	.L310
	leaq	40(%r12), %rdi
	call	pthread_mutex_destroy@PLT
	movq	%r12, %rdi
	movl	$152, %esi
	call	_ZdlPvm@PLT
	movq	8(%rsp), %r12
	testq	%r12, %r12
	jne	.L311
.L305:
	movq	168(%r15), %r12
	testq	%r12, %r12
	je	.L312
	leaq	16(%rsp), %rbp
	.p2align 4,,10
	.p2align 3
.L318:
	movq	24(%r12), %rax
	leaq	144(%r12), %r14
	leaq	96(%r12), %r13
	movq	%rax, 8(%rsp)
.L317:
	subq	$16, %r14
	movq	(%r14), %rsi
	testq	%rsi, %rsi
	movq	%rsi, (%rsp)
	je	.L313
	call	_ZNSt3_V215system_categoryEv@PLT
	movq	(%rsp), %rsi
	movq	%rax, %rbx
	jmp	.L314
	.p2align 4,,10
	.p2align 3
.L315:
	movq	$0, (%rsi)
	movq	8(%rsi), %rax
	xorl	%ecx, %ecx
	xorl	%edi, %edi
	movl	$0, 16(%rsp)
	movq	%rbx, 24(%rsp)
	movq	%rbp, %rdx
	call	*%rax
	movq	(%r14), %rsi
	testq	%rsi, %rsi
	je	.L313
.L314:
	movq	(%rsi), %rax
	testq	%rax, %rax
	movq	%rax, (%r14)
	jne	.L315
	movq	$0, 8(%r14)
	jmp	.L315
	.p2align 4,,10
	.p2align 3
.L313:
	cmpq	%r13, %r14
	jne	.L317
	leaq	40(%r12), %rdi
	call	pthread_mutex_destroy@PLT
	movq	%r12, %rdi
	movl	$152, %esi
	call	_ZdlPvm@PLT
	movq	8(%rsp), %r12
	testq	%r12, %r12
	jne	.L318
.L312:
	leaq	120(%r15), %rdi
	call	pthread_mutex_destroy@PLT
	movl	92(%r15), %eax
	cmpl	$-1, %eax
	je	.L319
	movl	88(%r15), %edi
	cmpl	%edi, %eax
	jne	.L360
.L320:
	call	close@PLT
.L321:
	leaq	48(%r15), %rdi
	call	pthread_mutex_destroy@PLT
	movl	$176, %esi
	movq	%r15, %rdi
	call	_ZdlPvm@PLT
	movq	40(%rsp), %rax
	xorq	%fs:40, %rax
	jne	.L361
	addq	$56, %rsp
	.cfi_remember_state
	.cfi_def_cfa_offset 56
	popq	%rbx
	.cfi_def_cfa_offset 48
	popq	%rbp
	.cfi_def_cfa_offset 40
	popq	%r12
	.cfi_def_cfa_offset 32
	popq	%r13
	.cfi_def_cfa_offset 24
	popq	%r14
	.cfi_def_cfa_offset 16
	popq	%r15
	.cfi_def_cfa_offset 8
	ret
.L360:
	.cfi_restore_state
	movl	%eax, %edi
	call	close@PLT
.L319:
	movl	88(%r15), %edi
	cmpl	$-1, %edi
	je	.L321
	jmp	.L320
.L361:
	call	__stack_chk_fail@PLT
	.cfi_endproc
.LFE3364:
	.section	.gcc_except_table._ZN4asio6detail13epoll_reactorD0Ev,"aG",@progbits,_ZN4asio6detail13epoll_reactorD5Ev,comdat
.LLSDA3364:
	.byte	0xff
	.byte	0xff
	.byte	0x1
	.uleb128 .LLSDACSE3364-.LLSDACSB3364
.LLSDACSB3364:
.LLSDACSE3364:
	.section	.text._ZN4asio6detail13epoll_reactorD0Ev,"axG",@progbits,_ZN4asio6detail13epoll_reactorD5Ev,comdat
	.size	_ZN4asio6detail13epoll_reactorD0Ev, .-_ZN4asio6detail13epoll_reactorD0Ev
	.section	.text._ZN4asio6detail11timer_queueINS0_18chrono_time_traitsINSt6chrono3_V212steady_clockENS_11wait_traitsIS5_EEEEE16get_ready_timersERNS0_8op_queueINS0_25task_io_service_operationEEE,"axG",@progbits,_ZN4asio6detail11timer_queueINS0_18chrono_time_traitsINSt6chrono3_V212steady_clockENS_11wait_traitsIS5_EEEEE16get_ready_timersERNS0_8op_queueINS0_25task_io_service_operationEEE,comdat
	.align 2
	.p2align 4,,15
	.weak	_ZN4asio6detail11timer_queueINS0_18chrono_time_traitsINSt6chrono3_V212steady_clockENS_11wait_traitsIS5_EEEEE16get_ready_timersERNS0_8op_queueINS0_25task_io_service_operationEEE
	.type	_ZN4asio6detail11timer_queueINS0_18chrono_time_traitsINSt6chrono3_V212steady_clockENS_11wait_traitsIS5_EEEEE16get_ready_timersERNS0_8op_queueINS0_25task_io_service_operationEEE, @function
_ZN4asio6detail11timer_queueINS0_18chrono_time_traitsINSt6chrono3_V212steady_clockENS_11wait_traitsIS5_EEEEE16get_ready_timersERNS0_8op_queueINS0_25task_io_service_operationEEE:
.LFB9417:
	.cfi_startproc
	movq	32(%rdi), %rax
	cmpq	%rax, 24(%rdi)
	je	.L398
	pushq	%r15
	.cfi_def_cfa_offset 16
	.cfi_offset 15, -16
	pushq	%r14
	.cfi_def_cfa_offset 24
	.cfi_offset 14, -24
	pushq	%r13
	.cfi_def_cfa_offset 32
	.cfi_offset 13, -32
	pushq	%r12
	.cfi_def_cfa_offset 40
	.cfi_offset 12, -40
	movq	%rsi, %r12
	pushq	%rbp
	.cfi_def_cfa_offset 48
	.cfi_offset 6, -48
	pushq	%rbx
	.cfi_def_cfa_offset 56
	.cfi_offset 3, -56
	movq	%rdi, %rbp
	subq	$8, %rsp
	.cfi_def_cfa_offset 64
	call	_ZNSt6chrono3_V212steady_clock3nowEv@PLT
	movq	32(%rbp), %rbx
	movq	24(%rbp), %rcx
	cmpq	%rcx, %rbx
	je	.L362
	.p2align 4,,10
	.p2align 3
.L380:
	cmpq	(%rcx), %rax
	jl	.L362
	movq	8(%rcx), %rdx
	movq	(%rdx), %rsi
	testq	%rsi, %rsi
	je	.L366
	movq	8(%r12), %rdi
	testq	%rdi, %rdi
	je	.L367
	movq	%rsi, (%rdi)
.L368:
	movq	8(%rdx), %rsi
	movq	%rsi, 8(%r12)
	movq	$0, (%rdx)
	movq	$0, 8(%rdx)
.L366:
	movq	16(%rdx), %r8
	movq	%rbx, %r9
	subq	%rcx, %r9
	sarq	$4, %r9
	cmpq	%r9, %r8
	jnb	.L401
	subq	$1, %r9
	subq	$16, %rbx
	cmpq	%r9, %r8
	je	.L402
	movq	%r8, %rsi
	movq	%r9, %rdi
	salq	$4, %rsi
	salq	$4, %rdi
	addq	%rcx, %rsi
	addq	%rcx, %rdi
	testq	%r8, %r8
	movq	(%rsi), %r11
	movq	8(%rsi), %r10
	movdqu	(%rdi), %xmm0
	movups	%xmm0, (%rsi)
	movq	%r11, (%rdi)
	movq	%r10, 8(%rdi)
	movq	8(%rsi), %r11
	movq	%r8, 16(%r11)
	movq	%r9, 16(%r10)
	movq	%rbx, 32(%rbp)
	je	.L372
	leaq	-1(%r8), %r9
	movq	(%rsi), %r13
	shrq	%r9
	movq	%r9, %rdi
	salq	$4, %rdi
	addq	%rcx, %rdi
	cmpq	%r13, (%rdi)
	jg	.L373
.L372:
	movq	%rbx, %rdi
	leaq	1(%r8,%r8), %r9
	subq	%rcx, %rdi
	sarq	$4, %rdi
	cmpq	%rdi, %r9
	jnb	.L370
	movq	(%rsi), %r13
	jmp	.L375
	.p2align 4,,10
	.p2align 3
.L403:
	leaq	16(%rcx,%r14), %r14
	movq	(%r14), %r15
	cmpq	%r15, %rsi
	jl	.L381
	movq	%r8, %r9
	movq	%r15, %rsi
	movq	%r14, %r11
	salq	$4, %r9
	addq	%rcx, %r9
	cmpq	%rsi, %r13
	jl	.L370
.L404:
	movq	8(%r9), %rsi
	movdqu	(%r11), %xmm0
	movups	%xmm0, (%r9)
	movq	%r13, (%r11)
	movq	%rsi, 8(%r11)
	movq	8(%r9), %r9
	movq	%r8, 16(%r9)
	leaq	1(%r10,%r10), %r9
	movq	%r10, 16(%rsi)
	movq	%r10, %r8
	cmpq	%rdi, %r9
	jnb	.L370
.L375:
	movq	%r9, %r14
	leaq	1(%r9), %r10
	salq	$4, %r14
	leaq	(%rcx,%r14), %r11
	cmpq	%rdi, %r10
	movq	(%r11), %rsi
	jne	.L403
.L381:
	movq	%r9, %r10
	movq	%r8, %r9
	salq	$4, %r9
	addq	%rcx, %r9
	cmpq	%rsi, %r13
	jge	.L404
	.p2align 4,,10
	.p2align 3
.L370:
	cmpq	16(%rbp), %rdx
	movq	24(%rdx), %rsi
	je	.L405
.L377:
	movq	32(%rdx), %rdi
	testq	%rdi, %rdi
	je	.L378
	movq	%rsi, 24(%rdi)
	movq	24(%rdx), %rsi
.L378:
	testq	%rsi, %rsi
	je	.L379
	movq	%rdi, 32(%rsi)
.L379:
	cmpq	%rcx, %rbx
	movq	$0, 24(%rdx)
	movq	$0, 32(%rdx)
	jne	.L380
.L362:
	addq	$8, %rsp
	.cfi_remember_state
	.cfi_def_cfa_offset 56
	popq	%rbx
	.cfi_def_cfa_offset 48
	popq	%rbp
	.cfi_def_cfa_offset 40
	popq	%r12
	.cfi_def_cfa_offset 32
	popq	%r13
	.cfi_def_cfa_offset 24
	popq	%r14
	.cfi_def_cfa_offset 16
	popq	%r15
	.cfi_def_cfa_offset 8
	ret
	.p2align 4,,10
	.p2align 3
.L376:
	.cfi_restore_state
	leaq	-1(%r9), %r10
	movq	%r9, %rsi
	salq	$4, %rsi
	shrq	%r10
	addq	%rcx, %rsi
	movq	%r10, %rdi
	movq	(%rsi), %r13
	salq	$4, %rdi
	addq	%rcx, %rdi
	cmpq	%r13, (%rdi)
	jle	.L370
	movq	8(%rsi), %r11
	movq	%r9, %r8
	movq	%r10, %r9
.L373:
	movdqu	(%rdi), %xmm0
	testq	%r9, %r9
	movups	%xmm0, (%rsi)
	movq	%r13, (%rdi)
	movq	%r11, 8(%rdi)
	movq	8(%rsi), %rsi
	movq	%r8, 16(%rsi)
	movq	%r9, 16(%r11)
	jne	.L376
	jmp	.L370
	.p2align 4,,10
	.p2align 3
.L401:
	cmpq	16(%rbp), %rdx
	movq	32(%rbp), %rbx
	movq	24(%rdx), %rsi
	jne	.L377
.L405:
	movq	%rsi, 16(%rbp)
	jmp	.L377
	.p2align 4,,10
	.p2align 3
.L367:
	movq	%rsi, (%r12)
	jmp	.L368
	.p2align 4,,10
	.p2align 3
.L398:
	.cfi_def_cfa_offset 8
	.cfi_restore 3
	.cfi_restore 6
	.cfi_restore 12
	.cfi_restore 13
	.cfi_restore 14
	.cfi_restore 15
	rep ret
	.p2align 4,,10
	.p2align 3
.L402:
	.cfi_def_cfa_offset 64
	.cfi_offset 3, -56
	.cfi_offset 6, -48
	.cfi_offset 12, -40
	.cfi_offset 13, -32
	.cfi_offset 14, -24
	.cfi_offset 15, -16
	movq	%rbx, 32(%rbp)
	jmp	.L370
	.cfi_endproc
.LFE9417:
	.size	_ZN4asio6detail11timer_queueINS0_18chrono_time_traitsINSt6chrono3_V212steady_clockENS_11wait_traitsIS5_EEEEE16get_ready_timersERNS0_8op_queueINS0_25task_io_service_operationEEE, .-_ZN4asio6detail11timer_queueINS0_18chrono_time_traitsINSt6chrono3_V212steady_clockENS_11wait_traitsIS5_EEEEE16get_ready_timersERNS0_8op_queueINS0_25task_io_service_operationEEE
	.section	.rodata._ZNK4asio6detail15system_category7messageB5cxx11Ei.str1.8,"aMS",@progbits,1
	.align 8
.LC4:
	.string	"basic_string::_M_construct null not valid"
	.section	.text._ZNK4asio6detail15system_category7messageB5cxx11Ei,"axG",@progbits,_ZNK4asio6detail15system_category7messageB5cxx11Ei,comdat
	.align 2
	.p2align 4,,15
	.weak	_ZNK4asio6detail15system_category7messageB5cxx11Ei
	.type	_ZNK4asio6detail15system_category7messageB5cxx11Ei, @function
_ZNK4asio6detail15system_category7messageB5cxx11Ei:
.LFB2654:
	.cfi_startproc
	pushq	%r13
	.cfi_def_cfa_offset 16
	.cfi_offset 13, -16
	pushq	%r12
	.cfi_def_cfa_offset 24
	.cfi_offset 12, -24
	pushq	%rbp
	.cfi_def_cfa_offset 32
	.cfi_offset 6, -32
	pushq	%rbx
	.cfi_def_cfa_offset 40
	.cfi_offset 3, -40
	leaq	16(%rdi), %rbp
	movq	%rdi, %rbx
	subq	$296, %rsp
	.cfi_def_cfa_offset 336
	movq	%fs:40, %rax
	movq	%rax, 280(%rsp)
	xorl	%eax, %eax
	cmpl	$125, %edx
	je	.L421
	pxor	%xmm0, %xmm0
	leaq	32(%rsp), %rdi
	movl	%edx, %r8d
	xorl	%eax, %eax
	movl	$30, %ecx
	leaq	16(%rsp), %rsi
	rep stosq
	movl	$256, %edx
	movl	%r8d, %edi
	movaps	%xmm0, 16(%rsp)
	call	strerror_r@PLT
	testq	%rax, %rax
	movq	%rax, %r12
	movq	%rbp, (%rbx)
	je	.L409
	movq	%rax, %rdi
	call	strlen@PLT
	cmpq	$15, %rax
	movq	%rax, %r13
	movq	%rax, 8(%rsp)
	ja	.L422
	cmpq	$1, %rax
	jne	.L413
	movzbl	(%r12), %edx
	movb	%dl, 16(%rbx)
.L414:
	movq	%rax, 8(%rbx)
	movb	$0, 0(%rbp,%rax)
.L406:
	movq	280(%rsp), %rcx
	xorq	%fs:40, %rcx
	movq	%rbx, %rax
	jne	.L423
	addq	$296, %rsp
	.cfi_remember_state
	.cfi_def_cfa_offset 40
	popq	%rbx
	.cfi_def_cfa_offset 32
	popq	%rbp
	.cfi_def_cfa_offset 24
	popq	%r12
	.cfi_def_cfa_offset 16
	popq	%r13
	.cfi_def_cfa_offset 8
	ret
	.p2align 4,,10
	.p2align 3
.L422:
	.cfi_restore_state
	leaq	8(%rsp), %rsi
	xorl	%edx, %edx
	movq	%rbx, %rdi
	call	_ZNSt7__cxx1112basic_stringIcSt11char_traitsIcESaIcEE9_M_createERmm@PLT
	movq	%rax, %rbp
	movq	%rax, (%rbx)
	movq	8(%rsp), %rax
	movq	%rax, 16(%rbx)
.L412:
	movq	%rbp, %rdi
	movq	%r13, %rdx
	movq	%r12, %rsi
	call	memcpy@PLT
	movq	8(%rsp), %rax
	movq	(%rbx), %rbp
	jmp	.L414
	.p2align 4,,10
	.p2align 3
.L421:
	leaq	8(%rsp), %rsi
	xorl	%edx, %edx
	movq	%rbp, (%rdi)
	movq	$18, 8(%rsp)
	call	_ZNSt7__cxx1112basic_stringIcSt11char_traitsIcESaIcEE9_M_createERmm@PLT
	movq	8(%rsp), %rdx
	movq	%rax, (%rbx)
	movdqa	.LC5(%rip), %xmm0
	movq	%rdx, 16(%rbx)
	movl	$11876, %edx
	movups	%xmm0, (%rax)
	movw	%dx, 16(%rax)
	movq	8(%rsp), %rax
	movq	(%rbx), %rdx
	movq	%rax, 8(%rbx)
	movb	$0, (%rdx,%rax)
	jmp	.L406
	.p2align 4,,10
	.p2align 3
.L413:
	testq	%rax, %rax
	je	.L414
	jmp	.L412
.L423:
	call	__stack_chk_fail@PLT
.L409:
	leaq	.LC4(%rip), %rdi
	call	_ZSt19__throw_logic_errorPKc@PLT
	.cfi_endproc
.LFE2654:
	.size	_ZNK4asio6detail15system_category7messageB5cxx11Ei, .-_ZNK4asio6detail15system_category7messageB5cxx11Ei
	.text
	.align 2
	.p2align 4,,15
	.type	_ZN4asio6detail13epoll_reactor12cancel_timerINS0_18chrono_time_traitsINSt6chrono3_V212steady_clockENS_11wait_traitsIS6_EEEEEEmRNS0_11timer_queueIT_EERNSC_14per_timer_dataEm.constprop.174, @function
_ZN4asio6detail13epoll_reactor12cancel_timerINS0_18chrono_time_traitsINSt6chrono3_V212steady_clockENS_11wait_traitsIS6_EEEEEEmRNS0_11timer_queueIT_EERNSC_14per_timer_dataEm.constprop.174:
.LFB9667:
	.cfi_startproc
	pushq	%r15
	.cfi_def_cfa_offset 16
	.cfi_offset 15, -16
	pushq	%r14
	.cfi_def_cfa_offset 24
	.cfi_offset 14, -24
	movq	%rdi, %rax
	pushq	%r13
	.cfi_def_cfa_offset 32
	.cfi_offset 13, -32
	pushq	%r12
	.cfi_def_cfa_offset 40
	.cfi_offset 12, -40
	addq	$48, %rax
	pushq	%rbp
	.cfi_def_cfa_offset 48
	.cfi_offset 6, -48
	pushq	%rbx
	.cfi_def_cfa_offset 56
	.cfi_offset 3, -56
	movq	%rdx, %r14
	subq	$72, %rsp
	.cfi_def_cfa_offset 128
	movq	%rdi, 16(%rsp)
	movq	%rax, %rdi
	movq	%rsi, 24(%rsp)
	movq	%fs:40, %rcx
	movq	%rcx, 56(%rsp)
	xorl	%ecx, %ecx
	movq	%rax, 8(%rsp)
	call	pthread_mutex_lock@PLT
	cmpq	$0, 32(%r14)
	je	.L512
.L425:
	movq	(%r14), %r15
	xorl	%r13d, %r13d
	xorl	%r12d, %r12d
	xorl	%ebx, %ebx
	jmp	.L434
	.p2align 4,,10
	.p2align 3
.L510:
	movq	_ZZN4asio15system_categoryEvE8instance@GOTPCREL(%rip), %rbp
.L429:
	movq	(%r14), %rdx
	xorl	%eax, %eax
	movl	$125, 24(%r15)
	movq	%rbp, 32(%r15)
	testq	%rdx, %rdx
	je	.L431
	movq	(%rdx), %rax
	testq	%rax, %rax
	movq	%rax, (%r14)
	je	.L513
.L432:
	movq	$0, (%rdx)
.L431:
	testq	%r13, %r13
	movq	$0, (%r15)
	je	.L463
	addq	$1, %rbx
	movq	%r15, 0(%r13)
	movq	%r15, %r13
	cmpq	$-1, %rbx
	je	.L514
.L464:
	movq	%rax, %r15
.L434:
	testq	%r15, %r15
	je	.L427
	movq	_ZGVZN4asio15system_categoryEvE8instance@GOTPCREL(%rip), %rbp
	movzbl	0(%rbp), %eax
	testb	%al, %al
	jne	.L510
	movq	%rbp, %rdi
	call	__cxa_guard_acquire@PLT
	testl	%eax, %eax
	je	.L510
	movq	%rbp, %rdi
	call	__cxa_guard_release@PLT
	movq	_ZZN4asio15system_categoryEvE8instance@GOTPCREL(%rip), %rbp
	movq	_ZN4asio6detail15system_categoryD1Ev@GOTPCREL(%rip), %rdi
	leaq	__dso_handle(%rip), %rdx
	movq	%rbp, %rsi
	call	__cxa_atexit@PLT
	jmp	.L429
	.p2align 4,,10
	.p2align 3
.L463:
	addq	$1, %rbx
	movq	%r15, %r12
	movq	%r15, %r13
	cmpq	$-1, %rbx
	jne	.L464
.L514:
	testq	%rax, %rax
	je	.L427
.L435:
	movq	8(%rsp), %rdi
	call	pthread_mutex_unlock@PLT
	movq	16(%rsp), %rax
	testq	%r12, %r12
	movq	40(%rax), %rbp
	je	.L424
	cmpb	$0, 40(%rbp)
	je	.L449
	.byte	0x66
	leaq	_ZN4asio6detail15keyword_tss_ptrINS0_10call_stackINS0_15task_io_serviceENS0_27task_io_service_thread_infoEE7contextEE6value_E@tlsgd(%rip), %rdi
	.value	0x6666
	rex64
	call	__tls_get_addr@PLT
	movq	(%rax), %rax
	testq	%rax, %rax
	jne	.L503
	jmp	.L449
	.p2align 4,,10
	.p2align 3
.L451:
	movq	16(%rax), %rax
	testq	%rax, %rax
	je	.L449
.L503:
	cmpq	(%rax), %rbp
	jne	.L451
	movq	8(%rax), %rax
	testq	%rax, %rax
	je	.L449
	movq	16(%rax), %rdx
	testq	%rdx, %rdx
	je	.L454
	movq	%r12, (%rdx)
.L455:
	movq	%r15, 16(%rax)
.L424:
	movq	56(%rsp), %rcx
	xorq	%fs:40, %rcx
	movq	%rbx, %rax
	jne	.L515
	addq	$72, %rsp
	.cfi_remember_state
	.cfi_def_cfa_offset 56
	popq	%rbx
	.cfi_def_cfa_offset 48
	popq	%rbp
	.cfi_def_cfa_offset 40
	popq	%r12
	.cfi_def_cfa_offset 32
	popq	%r13
	.cfi_def_cfa_offset 24
	popq	%r14
	.cfi_def_cfa_offset 16
	popq	%r15
	.cfi_def_cfa_offset 8
	ret
	.p2align 4,,10
	.p2align 3
.L513:
	.cfi_restore_state
	movq	$0, 8(%r14)
	jmp	.L432
	.p2align 4,,10
	.p2align 3
.L449:
	leaq	48(%rbp), %r13
	movq	%r13, %rdi
	call	pthread_mutex_lock@PLT
	movq	200(%rbp), %rax
	testq	%rax, %rax
	je	.L456
	movq	%r12, (%rax)
.L457:
	movq	136(%rbp), %rax
	movq	%r15, 200(%rbp)
	orq	$1, %rax
	cmpq	$1, %rax
	movq	%rax, 136(%rbp)
	jne	.L516
	cmpb	$0, 176(%rbp)
	jne	.L460
	movq	144(%rbp), %rax
	testq	%rax, %rax
	je	.L460
	leaq	88(%rax), %rdx
	movb	$1, 176(%rbp)
	movl	96(%rax), %edi
	leaq	44(%rsp), %rcx
	movl	$3, %esi
	movl	$-2147483639, 44(%rsp)
	movq	%rdx, 48(%rsp)
	movl	88(%rax), %edx
	call	epoll_ctl@PLT
.L460:
	movq	%r13, %rdi
	call	pthread_mutex_unlock@PLT
	jmp	.L424
	.p2align 4,,10
	.p2align 3
.L512:
	movq	24(%rsp), %rax
	cmpq	16(%rax), %r14
	je	.L425
	movq	8(%rsp), %rdi
	xorl	%ebx, %ebx
	call	pthread_mutex_unlock@PLT
	jmp	.L424
	.p2align 4,,10
	.p2align 3
.L516:
	movq	%r13, %rdi
	call	pthread_mutex_unlock@PLT
	leaq	88(%rbp), %rdi
	call	pthread_cond_signal@PLT
	jmp	.L424
	.p2align 4,,10
	.p2align 3
.L427:
	movq	24(%rsp), %rax
	movq	32(%rax), %rdi
	movq	24(%rax), %rax
	cmpq	%rax, %rdi
	je	.L437
	movq	16(%r14), %rdx
	movq	%rdi, %rsi
	subq	%rax, %rsi
	sarq	$4, %rsi
	cmpq	%rsi, %rdx
	jnb	.L437
	subq	$1, %rsi
	subq	$16, %rdi
	cmpq	%rsi, %rdx
	je	.L517
	movq	%rdx, %r10
	movq	%rsi, %r9
	movq	24(%rsp), %rcx
	salq	$4, %r10
	salq	$4, %r9
	addq	%rax, %r10
	addq	%rax, %r9
	testq	%rdx, %rdx
	movq	(%r10), %r11
	movq	8(%r10), %rbp
	movdqu	(%r9), %xmm0
	movups	%xmm0, (%r10)
	movq	%r11, (%r9)
	movq	%rbp, 8(%r9)
	movq	8(%r10), %r11
	movq	%rdx, 16(%r11)
	movq	%rsi, 16(%rbp)
	movq	%rdi, 32(%rcx)
	je	.L440
	leaq	-1(%rdx), %r9
	movq	(%r10), %rbp
	shrq	%r9
	movq	%r9, %rsi
	salq	$4, %rsi
	addq	%rax, %rsi
	cmpq	%rbp, (%rsi)
	jg	.L441
.L440:
	subq	%rax, %rdi
	leaq	1(%rdx,%rdx), %r9
	sarq	$4, %rdi
	cmpq	%rdi, %r9
	movq	%rdi, %r8
	jnb	.L437
	movq	(%r10), %rcx
	jmp	.L443
	.p2align 4,,10
	.p2align 3
.L518:
	leaq	16(%rax,%rsi), %rsi
	movq	(%rsi), %rbp
	cmpq	%r11, %rbp
	jg	.L466
	movq	%rbp, %r11
	movq	%rsi, %r10
.L442:
	movq	%rdx, %rsi
	salq	$4, %rsi
	addq	%rax, %rsi
	cmpq	%rcx, %r11
	jg	.L437
	movq	8(%rsi), %r9
	movdqu	(%r10), %xmm0
	movups	%xmm0, (%rsi)
	movq	%r9, 8(%r10)
	movq	%rcx, (%r10)
	movq	8(%rsi), %rsi
	movq	%rdx, 16(%rsi)
	movq	%rdi, 16(%r9)
	leaq	1(%rdi,%rdi), %r9
	movq	%rdi, %rdx
	cmpq	%r8, %r9
	jnb	.L437
.L443:
	movq	%r9, %rsi
	leaq	1(%r9), %rdi
	salq	$4, %rsi
	leaq	(%rax,%rsi), %r10
	cmpq	%r8, %rdi
	movq	(%r10), %r11
	jne	.L518
.L466:
	movq	%r9, %rdi
	jmp	.L442
.L517:
	movq	24(%rsp), %rax
	movq	%rdi, 32(%rax)
	.p2align 4,,10
	.p2align 3
.L437:
	movq	24(%rsp), %rcx
	movq	24(%r14), %rax
	cmpq	16(%rcx), %r14
	je	.L519
.L445:
	movq	32(%r14), %rdx
	testq	%rdx, %rdx
	je	.L446
	movq	%rax, 24(%rdx)
	movq	24(%r14), %rax
.L446:
	testq	%rax, %rax
	je	.L447
	movq	%rdx, 32(%rax)
.L447:
	movq	$0, 24(%r14)
	movq	$0, 32(%r14)
	movq	%r13, %r15
	jmp	.L435
	.p2align 4,,10
	.p2align 3
.L454:
	movq	%r12, 8(%rax)
	jmp	.L455
	.p2align 4,,10
	.p2align 3
.L456:
	movq	%r12, 192(%rbp)
	jmp	.L457
.L502:
	leaq	-1(%r9), %rcx
	movq	%r9, %r10
	salq	$4, %r10
	shrq	%rcx
	addq	%rax, %r10
	movq	%rcx, %rsi
	movq	(%r10), %rbp
	salq	$4, %rsi
	addq	%rax, %rsi
	cmpq	%rbp, (%rsi)
	jle	.L437
	movq	8(%r10), %r11
	movq	%r9, %rdx
	movq	%rcx, %r9
.L441:
	movdqu	(%rsi), %xmm0
	testq	%r9, %r9
	movups	%xmm0, (%r10)
	movq	%rbp, (%rsi)
	movq	%r11, 8(%rsi)
	movq	8(%r10), %rcx
	movq	%rdx, 16(%rcx)
	movq	%r9, 16(%r11)
	jne	.L502
	jmp	.L437
	.p2align 4,,10
	.p2align 3
.L519:
	movq	%rax, 16(%rcx)
	jmp	.L445
.L515:
	call	__stack_chk_fail@PLT
	.cfi_endproc
.LFE9667:
	.size	_ZN4asio6detail13epoll_reactor12cancel_timerINS0_18chrono_time_traitsINSt6chrono3_V212steady_clockENS_11wait_traitsIS6_EEEEEEmRNS0_11timer_queueIT_EERNSC_14per_timer_dataEm.constprop.174, .-_ZN4asio6detail13epoll_reactor12cancel_timerINS0_18chrono_time_traitsINSt6chrono3_V212steady_clockENS_11wait_traitsIS6_EEEEEEmRNS0_11timer_queueIT_EERNSC_14per_timer_dataEm.constprop.174
	.section	.text._ZNK4asio5error6detail17addrinfo_category7messageB5cxx11Ei,"axG",@progbits,_ZNK4asio5error6detail17addrinfo_category7messageB5cxx11Ei,comdat
	.align 2
	.p2align 4,,15
	.weak	_ZNK4asio5error6detail17addrinfo_category7messageB5cxx11Ei
	.type	_ZNK4asio5error6detail17addrinfo_category7messageB5cxx11Ei, @function
_ZNK4asio5error6detail17addrinfo_category7messageB5cxx11Ei:
.LFB2700:
	.cfi_startproc
	pushq	%rbx
	.cfi_def_cfa_offset 16
	.cfi_offset 3, -16
	movq	%rdi, %rbx
	subq	$16, %rsp
	.cfi_def_cfa_offset 32
	movq	%fs:40, %rax
	movq	%rax, 8(%rsp)
	xorl	%eax, %eax
	leaq	16(%rdi), %rax
	cmpl	$-8, %edx
	movq	%rax, (%rdi)
	je	.L526
	cmpl	$-7, %edx
	je	.L527
	xorl	%edx, %edx
	movq	%rsp, %rsi
	movq	$19, (%rsp)
	call	_ZNSt7__cxx1112basic_stringIcSt11char_traitsIcESaIcEE9_M_createERmm@PLT
	movq	(%rsp), %rdx
	movq	%rax, (%rbx)
	movdqa	.LC8(%rip), %xmm0
	movq	%rdx, 16(%rbx)
	movl	$28530, %edx
	movb	$114, 18(%rax)
	movups	%xmm0, (%rax)
	movw	%dx, 16(%rax)
	movq	(%rsp), %rax
	movq	(%rbx), %rdx
	movq	%rax, 8(%rbx)
	movb	$0, (%rdx,%rax)
.L520:
	movq	8(%rsp), %rcx
	xorq	%fs:40, %rcx
	movq	%rbx, %rax
	jne	.L528
	addq	$16, %rsp
	.cfi_remember_state
	.cfi_def_cfa_offset 16
	popq	%rbx
	.cfi_def_cfa_offset 8
	ret
	.p2align 4,,10
	.p2align 3
.L527:
	.cfi_restore_state
	xorl	%edx, %edx
	movq	%rsp, %rsi
	movq	$25, (%rsp)
	call	_ZNSt7__cxx1112basic_stringIcSt11char_traitsIcESaIcEE9_M_createERmm@PLT
	movq	(%rsp), %rdx
	movabsq	$7310593918082512243, %rcx
	movq	%rax, (%rbx)
	movdqa	.LC7(%rip), %xmm0
	movq	%rdx, 16(%rbx)
	movq	%rcx, 16(%rax)
	movups	%xmm0, (%rax)
	movb	$100, 24(%rax)
	movq	(%rsp), %rax
	movq	(%rbx), %rdx
	movq	%rax, 8(%rbx)
	movb	$0, (%rdx,%rax)
	jmp	.L520
	.p2align 4,,10
	.p2align 3
.L526:
	xorl	%edx, %edx
	movq	%rsp, %rsi
	movq	$17, (%rsp)
	call	_ZNSt7__cxx1112basic_stringIcSt11char_traitsIcESaIcEE9_M_createERmm@PLT
	movq	(%rsp), %rdx
	movq	%rax, (%rbx)
	movdqa	.LC6(%rip), %xmm0
	movq	%rdx, 16(%rbx)
	movb	$100, 16(%rax)
	movups	%xmm0, (%rax)
	movq	(%rsp), %rax
	movq	(%rbx), %rdx
	movq	%rax, 8(%rbx)
	movb	$0, (%rdx,%rax)
	jmp	.L520
.L528:
	call	__stack_chk_fail@PLT
	.cfi_endproc
.LFE2700:
	.size	_ZNK4asio5error6detail17addrinfo_category7messageB5cxx11Ei, .-_ZNK4asio5error6detail17addrinfo_category7messageB5cxx11Ei
	.section	.text._ZNK4asio5error6detail13misc_category7messageB5cxx11Ei,"axG",@progbits,_ZNK4asio5error6detail13misc_category7messageB5cxx11Ei,comdat
	.align 2
	.p2align 4,,15
	.weak	_ZNK4asio5error6detail13misc_category7messageB5cxx11Ei
	.type	_ZNK4asio5error6detail13misc_category7messageB5cxx11Ei, @function
_ZNK4asio5error6detail13misc_category7messageB5cxx11Ei:
.LFB2706:
	.cfi_startproc
	pushq	%rbx
	.cfi_def_cfa_offset 16
	.cfi_offset 3, -16
	movq	%rdi, %rbx
	subq	$16, %rsp
	.cfi_def_cfa_offset 32
	movq	%fs:40, %rax
	movq	%rax, 8(%rsp)
	xorl	%eax, %eax
	leaq	16(%rdi), %rax
	cmpl	$1, %edx
	movq	%rax, (%rdi)
	je	.L537
	cmpl	$2, %edx
	je	.L538
	cmpl	$3, %edx
	je	.L539
	cmpl	$4, %edx
	je	.L540
	movabsq	$8316298233121436513, %rsi
	movl	$28530, %edx
	movq	%rsi, 16(%rdi)
	movl	$1919230051, 8(%rax)
	movw	%dx, 12(%rax)
	movb	$114, 14(%rax)
	movq	$15, 8(%rdi)
	movb	$0, 31(%rdi)
.L529:
	movq	8(%rsp), %rcx
	xorq	%fs:40, %rcx
	movq	%rbx, %rax
	jne	.L541
	addq	$16, %rsp
	.cfi_remember_state
	.cfi_def_cfa_offset 16
	popq	%rbx
	.cfi_def_cfa_offset 8
	ret
	.p2align 4,,10
	.p2align 3
.L540:
	.cfi_restore_state
	xorl	%edx, %edx
	movq	%rsp, %rsi
	movq	$57, (%rsp)
	call	_ZNSt7__cxx1112basic_stringIcSt11char_traitsIcESaIcEE9_M_createERmm@PLT
	movq	(%rsp), %rdx
	movq	%rax, (%rbx)
	movabsq	$7310291504967217959, %rdi
	movdqa	.LC10(%rip), %xmm0
	movq	%rdx, 16(%rbx)
	movq	%rdi, 48(%rax)
	movups	%xmm0, (%rax)
	movb	$116, 56(%rax)
	movdqa	.LC11(%rip), %xmm0
	movups	%xmm0, 16(%rax)
	movdqa	.LC12(%rip), %xmm0
	movups	%xmm0, 32(%rax)
	movq	(%rsp), %rax
	movq	(%rbx), %rdx
	movq	%rax, 8(%rbx)
	movb	$0, (%rdx,%rax)
	jmp	.L529
	.p2align 4,,10
	.p2align 3
.L537:
	movabsq	$2340011850872286273, %rcx
	movq	%rcx, 16(%rdi)
	movl	$1852141679, 8(%rax)
	movq	$12, 8(%rdi)
	movb	$0, 28(%rdi)
	jmp	.L529
	.p2align 4,,10
	.p2align 3
.L538:
	movabsq	$7358994418594246213, %rcx
	movq	%rcx, 16(%rdi)
	movl	$27753, %ecx
	movb	$101, 10(%rax)
	movw	%cx, 8(%rax)
	movq	$11, 8(%rdi)
	movb	$0, 27(%rdi)
	jmp	.L529
	.p2align 4,,10
	.p2align 3
.L539:
	xorl	%edx, %edx
	movq	%rsp, %rsi
	movq	$17, (%rsp)
	call	_ZNSt7__cxx1112basic_stringIcSt11char_traitsIcESaIcEE9_M_createERmm@PLT
	movq	(%rsp), %rdx
	movq	%rax, (%rbx)
	movdqa	.LC9(%rip), %xmm0
	movq	%rdx, 16(%rbx)
	movb	$100, 16(%rax)
	movups	%xmm0, (%rax)
	movq	(%rsp), %rax
	movq	(%rbx), %rdx
	movq	%rax, 8(%rbx)
	movb	$0, (%rdx,%rax)
	jmp	.L529
.L541:
	call	__stack_chk_fail@PLT
	.cfi_endproc
.LFE2706:
	.size	_ZNK4asio5error6detail13misc_category7messageB5cxx11Ei, .-_ZNK4asio5error6detail13misc_category7messageB5cxx11Ei
	.section	.text._ZNK4asio5error6detail14netdb_category7messageB5cxx11Ei,"axG",@progbits,_ZNK4asio5error6detail14netdb_category7messageB5cxx11Ei,comdat
	.align 2
	.p2align 4,,15
	.weak	_ZNK4asio5error6detail14netdb_category7messageB5cxx11Ei
	.type	_ZNK4asio5error6detail14netdb_category7messageB5cxx11Ei, @function
_ZNK4asio5error6detail14netdb_category7messageB5cxx11Ei:
.LFB2694:
	.cfi_startproc
	pushq	%rbx
	.cfi_def_cfa_offset 16
	.cfi_offset 3, -16
	movq	%rdi, %rbx
	subq	$16, %rsp
	.cfi_def_cfa_offset 32
	movq	%fs:40, %rax
	movq	%rax, 8(%rsp)
	xorl	%eax, %eax
	leaq	16(%rdi), %rax
	cmpl	$1, %edx
	movq	%rax, (%rdi)
	je	.L550
	cmpl	$2, %edx
	je	.L551
	cmpl	$4, %edx
	je	.L552
	cmpl	$3, %edx
	je	.L553
	xorl	%edx, %edx
	movq	%rsp, %rsi
	movq	$16, (%rsp)
	call	_ZNSt7__cxx1112basic_stringIcSt11char_traitsIcESaIcEE9_M_createERmm@PLT
	movq	(%rsp), %rdx
	movq	%rax, (%rbx)
	movdqa	.LC22(%rip), %xmm0
	movq	%rdx, 16(%rbx)
	movups	%xmm0, (%rax)
	movq	(%rsp), %rax
	movq	(%rbx), %rdx
	movq	%rax, 8(%rbx)
	movb	$0, (%rdx,%rax)
.L542:
	movq	8(%rsp), %rcx
	xorq	%fs:40, %rcx
	movq	%rbx, %rax
	jne	.L554
	addq	$16, %rsp
	.cfi_remember_state
	.cfi_def_cfa_offset 16
	popq	%rbx
	.cfi_def_cfa_offset 8
	ret
	.p2align 4,,10
	.p2align 3
.L553:
	.cfi_restore_state
	xorl	%edx, %edx
	movq	%rsp, %rsi
	movq	$55, (%rsp)
	call	_ZNSt7__cxx1112basic_stringIcSt11char_traitsIcESaIcEE9_M_createERmm@PLT
	movq	(%rsp), %rdx
	movq	%rax, (%rbx)
	movdqa	.LC19(%rip), %xmm0
	movq	%rdx, 16(%rbx)
	movl	$30059, %edx
	movl	$1869573152, 48(%rax)
	movups	%xmm0, (%rax)
	movw	%dx, 52(%rax)
	movb	$112, 54(%rax)
	movdqa	.LC20(%rip), %xmm0
	movups	%xmm0, 16(%rax)
	movdqa	.LC21(%rip), %xmm0
	movups	%xmm0, 32(%rax)
	movq	(%rsp), %rax
	movq	(%rbx), %rdx
	movq	%rax, 8(%rbx)
	movb	$0, (%rdx,%rax)
	jmp	.L542
	.p2align 4,,10
	.p2align 3
.L550:
	movq	%rsp, %rsi
	xorl	%edx, %edx
	movq	$30, (%rsp)
	call	_ZNSt7__cxx1112basic_stringIcSt11char_traitsIcESaIcEE9_M_createERmm@PLT
	movq	(%rsp), %rdx
	movabsq	$8388361603773658465, %rcx
	movl	$10597, %esi
	movdqa	.LC13(%rip), %xmm0
	movq	%rax, (%rbx)
	movq	%rdx, 16(%rbx)
	movq	%rcx, 16(%rax)
	movups	%xmm0, (%rax)
	movl	$1986622561, 24(%rax)
	movw	%si, 28(%rax)
	movq	(%rsp), %rax
	movq	(%rbx), %rdx
	movq	%rax, 8(%rbx)
	movb	$0, (%rdx,%rax)
	jmp	.L542
	.p2align 4,,10
	.p2align 3
.L551:
	xorl	%edx, %edx
	movq	%rsp, %rsi
	movq	$51, (%rsp)
	call	_ZNSt7__cxx1112basic_stringIcSt11char_traitsIcESaIcEE9_M_createERmm@PLT
	movq	(%rsp), %rdx
	movq	%rax, (%rbx)
	movl	$25972, %ecx
	movdqa	.LC13(%rip), %xmm0
	movq	%rdx, 16(%rbx)
	movw	%cx, 48(%rax)
	movups	%xmm0, (%rax)
	movb	$114, 50(%rax)
	movdqa	.LC14(%rip), %xmm0
	movups	%xmm0, 16(%rax)
	movdqa	.LC15(%rip), %xmm0
	movups	%xmm0, 32(%rax)
	movq	(%rsp), %rax
	movq	(%rbx), %rdx
	movq	%rax, 8(%rbx)
	movb	$0, (%rdx,%rax)
	jmp	.L542
	.p2align 4,,10
	.p2align 3
.L552:
	xorl	%edx, %edx
	movq	%rsp, %rsi
	movq	$56, (%rsp)
	call	_ZNSt7__cxx1112basic_stringIcSt11char_traitsIcESaIcEE9_M_createERmm@PLT
	movq	(%rsp), %rdx
	movq	%rax, (%rbx)
	movabsq	$7022344801645520244, %rcx
	movdqa	.LC16(%rip), %xmm0
	movq	%rdx, 16(%rbx)
	movq	%rcx, 48(%rax)
	movups	%xmm0, (%rax)
	movdqa	.LC17(%rip), %xmm0
	movups	%xmm0, 16(%rax)
	movdqa	.LC18(%rip), %xmm0
	movups	%xmm0, 32(%rax)
	movq	(%rsp), %rax
	movq	(%rbx), %rdx
	movq	%rax, 8(%rbx)
	movb	$0, (%rdx,%rax)
	jmp	.L542
.L554:
	call	__stack_chk_fail@PLT
	.cfi_endproc
.LFE2694:
	.size	_ZNK4asio5error6detail14netdb_category7messageB5cxx11Ei, .-_ZNK4asio5error6detail14netdb_category7messageB5cxx11Ei
	.section	.text._ZN7openpal6LoggerD2Ev,"axG",@progbits,_ZN7openpal6LoggerD5Ev,comdat
	.align 2
	.p2align 4,,15
	.weak	_ZN7openpal6LoggerD2Ev
	.type	_ZN7openpal6LoggerD2Ev, @function
_ZN7openpal6LoggerD2Ev:
.LFB1967:
	.cfi_startproc
	pushq	%rbp
	.cfi_def_cfa_offset 16
	.cfi_offset 6, -16
	pushq	%rbx
	.cfi_def_cfa_offset 24
	.cfi_offset 3, -24
	movq	%rdi, %rbp
	subq	$8, %rsp
	.cfi_def_cfa_offset 32
	movq	24(%rdi), %rbx
	testq	%rbx, %rbx
	je	.L557
	cmpq	$0, _ZL28__gthrw___pthread_key_createPjPFvPvE@GOTPCREL(%rip)
	je	.L558
	lock subl	$1, 8(%rbx)
	je	.L571
.L557:
	movq	8(%rbp), %rbx
	testq	%rbx, %rbx
	je	.L555
	cmpq	$0, _ZL28__gthrw___pthread_key_createPjPFvPvE@GOTPCREL(%rip)
	je	.L564
	lock subl	$1, 8(%rbx)
	je	.L572
.L555:
	addq	$8, %rsp
	.cfi_remember_state
	.cfi_def_cfa_offset 24
	popq	%rbx
	.cfi_def_cfa_offset 16
	popq	%rbp
	.cfi_def_cfa_offset 8
	ret
	.p2align 4,,10
	.p2align 3
.L564:
	.cfi_restore_state
	movl	8(%rbx), %eax
	leal	-1(%rax), %edx
	cmpl	$1, %eax
	movl	%edx, 8(%rbx)
	jne	.L555
	movq	(%rbx), %rax
	movq	%rbx, %rdi
	call	*16(%rax)
	movl	12(%rbx), %eax
	leal	-1(%rax), %edx
	movl	%edx, 12(%rbx)
	jmp	.L569
	.p2align 4,,10
	.p2align 3
.L558:
	movl	8(%rbx), %eax
	leal	-1(%rax), %edx
	cmpl	$1, %eax
	movl	%edx, 8(%rbx)
	jne	.L557
	movq	(%rbx), %rax
	movq	%rbx, %rdi
	call	*16(%rax)
	movl	12(%rbx), %eax
	leal	-1(%rax), %edx
	movl	%edx, 12(%rbx)
	jmp	.L568
	.p2align 4,,10
	.p2align 3
.L572:
	movq	(%rbx), %rax
	movq	%rbx, %rdi
	call	*16(%rax)
	movl	$-1, %eax
	lock xaddl	%eax, 12(%rbx)
.L569:
	cmpl	$1, %eax
	jne	.L555
	movq	(%rbx), %rax
	movq	%rbx, %rdi
	movq	24(%rax), %rax
	addq	$8, %rsp
	.cfi_remember_state
	.cfi_def_cfa_offset 24
	popq	%rbx
	.cfi_def_cfa_offset 16
	popq	%rbp
	.cfi_def_cfa_offset 8
	jmp	*%rax
	.p2align 4,,10
	.p2align 3
.L571:
	.cfi_restore_state
	movq	(%rbx), %rax
	movq	%rbx, %rdi
	call	*16(%rax)
	movl	$-1, %eax
	lock xaddl	%eax, 12(%rbx)
.L568:
	cmpl	$1, %eax
	jne	.L557
	movq	(%rbx), %rax
	movq	%rbx, %rdi
	call	*24(%rax)
	jmp	.L557
	.cfi_endproc
.LFE1967:
	.size	_ZN7openpal6LoggerD2Ev, .-_ZN7openpal6LoggerD2Ev
	.weak	_ZN7openpal6LoggerD1Ev
	.set	_ZN7openpal6LoggerD1Ev,_ZN7openpal6LoggerD2Ev
	.section	.rodata._ZNSt12system_errorC2ESt10error_codePKc.str1.1,"aMS",@progbits,1
.LC23:
	.string	": "
	.section	.text._ZNSt12system_errorC2ESt10error_codePKc,"axG",@progbits,_ZNSt12system_errorC5ESt10error_codePKc,comdat
	.align 2
	.p2align 4,,15
	.weak	_ZNSt12system_errorC2ESt10error_codePKc
	.type	_ZNSt12system_errorC2ESt10error_codePKc, @function
_ZNSt12system_errorC2ESt10error_codePKc:
.LFB2594:
	.cfi_startproc
	.cfi_personality 0x9b,DW.ref.__gxx_personality_v0
	.cfi_lsda 0x1b,.LLSDA2594
	pushq	%r15
	.cfi_def_cfa_offset 16
	.cfi_offset 15, -16
	pushq	%r14
	.cfi_def_cfa_offset 24
	.cfi_offset 14, -24
	movq	%rdx, %r14
	pushq	%r13
	.cfi_def_cfa_offset 32
	.cfi_offset 13, -32
	pushq	%r12
	.cfi_def_cfa_offset 40
	.cfi_offset 12, -40
	movq	%rdi, %r13
	pushq	%rbp
	.cfi_def_cfa_offset 48
	.cfi_offset 6, -48
	pushq	%rbx
	.cfi_def_cfa_offset 56
	.cfi_offset 3, -56
	movq	%rcx, %r12
	movq	%rsi, %r15
	subq	$120, %rsp
	.cfi_def_cfa_offset 176
	movq	%fs:40, %rax
	movq	%rax, 104(%rsp)
	xorl	%eax, %eax
	movq	(%rdx), %rax
	leaq	64(%rsp), %rbx
	movl	%esi, %edx
	movq	%r14, %rsi
	movq	%rbx, %rdi
.LEHB2:
	call	*32(%rax)
.LEHE2:
	leaq	.LC23(%rip), %rcx
	movl	$2, %r8d
	xorl	%edx, %edx
	xorl	%esi, %esi
	movq	%rbx, %rdi
.LEHB3:
	call	_ZNSt7__cxx1112basic_stringIcSt11char_traitsIcESaIcEE10_M_replaceEmmPKcm@PLT
.LEHE3:
	leaq	32(%rsp), %rbp
	leaq	16(%rbp), %rdx
	movq	%rdx, 32(%rsp)
	movq	(%rax), %rcx
	leaq	16(%rax), %rdx
	cmpq	%rdx, %rcx
	je	.L593
	movq	%rcx, 32(%rsp)
	movq	16(%rax), %rcx
	movq	%rcx, 48(%rsp)
.L575:
	movq	8(%rax), %rcx
	movq	%r12, %rdi
	movb	$0, 16(%rax)
	movq	%rcx, 40(%rsp)
	movq	%rdx, (%rax)
	movq	$0, 8(%rax)
	call	strlen@PLT
	movq	%r12, %rcx
	movq	%rax, %r8
	xorl	%edx, %edx
	xorl	%esi, %esi
	movq	%rbp, %rdi
.LEHB4:
	call	_ZNSt7__cxx1112basic_stringIcSt11char_traitsIcESaIcEE10_M_replaceEmmPKcm@PLT
.LEHE4:
	movq	%rsp, %r12
	leaq	16(%r12), %rdx
	movq	%rdx, (%rsp)
	movq	(%rax), %rcx
	leaq	16(%rax), %rdx
	cmpq	%rdx, %rcx
	je	.L594
	movq	%rcx, (%rsp)
	movq	16(%rax), %rcx
	movq	%rcx, 16(%rsp)
.L577:
	movq	8(%rax), %rcx
	movb	$0, 16(%rax)
	movq	%r12, %rsi
	movq	%r13, %rdi
	movq	%rcx, 8(%rsp)
	movq	%rdx, (%rax)
	movq	$0, 8(%rax)
.LEHB5:
	call	_ZNSt13runtime_errorC2ERKNSt7__cxx1112basic_stringIcSt11char_traitsIcESaIcEEE@PLT
.LEHE5:
	movq	(%rsp), %rdi
	addq	$16, %r12
	cmpq	%r12, %rdi
	je	.L578
	call	_ZdlPv@PLT
.L578:
	movq	32(%rsp), %rdi
	addq	$16, %rbp
	cmpq	%rbp, %rdi
	je	.L579
	call	_ZdlPv@PLT
.L579:
	movq	64(%rsp), %rdi
	addq	$16, %rbx
	cmpq	%rbx, %rdi
	je	.L580
	call	_ZdlPv@PLT
.L580:
	movq	_ZTVSt12system_error@GOTPCREL(%rip), %rax
	movq	%r15, 16(%r13)
	movq	%r14, 24(%r13)
	addq	$16, %rax
	movq	%rax, 0(%r13)
	movq	104(%rsp), %rax
	xorq	%fs:40, %rax
	jne	.L595
	addq	$120, %rsp
	.cfi_remember_state
	.cfi_def_cfa_offset 56
	popq	%rbx
	.cfi_def_cfa_offset 48
	popq	%rbp
	.cfi_def_cfa_offset 40
	popq	%r12
	.cfi_def_cfa_offset 32
	popq	%r13
	.cfi_def_cfa_offset 24
	popq	%r14
	.cfi_def_cfa_offset 16
	popq	%r15
	.cfi_def_cfa_offset 8
	ret
	.p2align 4,,10
	.p2align 3
.L593:
	.cfi_restore_state
	movdqu	16(%rax), %xmm0
	movaps	%xmm0, 48(%rsp)
	jmp	.L575
	.p2align 4,,10
	.p2align 3
.L594:
	movdqu	16(%rax), %xmm0
	movaps	%xmm0, 16(%rsp)
	jmp	.L577
.L595:
	call	__stack_chk_fail@PLT
.L590:
	movq	(%rsp), %rdi
	addq	$16, %r12
	movq	%rax, %r13
	cmpq	%r12, %rdi
	je	.L582
	call	_ZdlPv@PLT
.L582:
	movq	%r13, %r12
.L583:
	movq	32(%rsp), %rdi
	addq	$16, %rbp
	cmpq	%rbp, %rdi
	je	.L585
	call	_ZdlPv@PLT
.L585:
	movq	64(%rsp), %rdi
	addq	$16, %rbx
	cmpq	%rbx, %rdi
	je	.L586
	call	_ZdlPv@PLT
.L586:
	movq	%r12, %rdi
.LEHB6:
	call	_Unwind_Resume@PLT
.LEHE6:
.L588:
	movq	%rax, %r12
	jmp	.L585
.L589:
	movq	%rax, %r12
	jmp	.L583
	.cfi_endproc
.LFE2594:
	.section	.gcc_except_table._ZNSt12system_errorC2ESt10error_codePKc,"aG",@progbits,_ZNSt12system_errorC5ESt10error_codePKc,comdat
.LLSDA2594:
	.byte	0xff
	.byte	0xff
	.byte	0x1
	.uleb128 .LLSDACSE2594-.LLSDACSB2594
.LLSDACSB2594:
	.uleb128 .LEHB2-.LFB2594
	.uleb128 .LEHE2-.LEHB2
	.uleb128 0
	.uleb128 0
	.uleb128 .LEHB3-.LFB2594
	.uleb128 .LEHE3-.LEHB3
	.uleb128 .L588-.LFB2594
	.uleb128 0
	.uleb128 .LEHB4-.LFB2594
	.uleb128 .LEHE4-.LEHB4
	.uleb128 .L589-.LFB2594
	.uleb128 0
	.uleb128 .LEHB5-.LFB2594
	.uleb128 .LEHE5-.LEHB5
	.uleb128 .L590-.LFB2594
	.uleb128 0
	.uleb128 .LEHB6-.LFB2594
	.uleb128 .LEHE6-.LEHB6
	.uleb128 0
	.uleb128 0
.LLSDACSE2594:
	.section	.text._ZNSt12system_errorC2ESt10error_codePKc,"axG",@progbits,_ZNSt12system_errorC5ESt10error_codePKc,comdat
	.size	_ZNSt12system_errorC2ESt10error_codePKc, .-_ZNSt12system_errorC2ESt10error_codePKc
	.weak	_ZNSt12system_errorC1ESt10error_codePKc
	.set	_ZNSt12system_errorC1ESt10error_codePKc,_ZNSt12system_errorC2ESt10error_codePKc
	.section	.text._ZN4asio6detail15task_io_service12task_cleanupD2Ev,"axG",@progbits,_ZN4asio6detail15task_io_service12task_cleanupD5Ev,comdat
	.align 2
	.p2align 4,,15
	.weak	_ZN4asio6detail15task_io_service12task_cleanupD2Ev
	.type	_ZN4asio6detail15task_io_service12task_cleanupD2Ev, @function
_ZN4asio6detail15task_io_service12task_cleanupD2Ev:
.LFB3398:
	.cfi_startproc
	pushq	%rbp
	.cfi_def_cfa_offset 16
	.cfi_offset 6, -16
	pushq	%rbx
	.cfi_def_cfa_offset 24
	.cfi_offset 3, -24
	movq	%rdi, %rbx
	subq	$8, %rsp
	.cfi_def_cfa_offset 32
	movq	16(%rdi), %rax
	movq	24(%rax), %rdx
	testq	%rdx, %rdx
	jle	.L597
	movq	(%rdi), %rax
	lock addq	%rdx, 184(%rax)
	movq	16(%rdi), %rax
.L597:
	movq	8(%rbx), %rbp
	movq	$0, 24(%rax)
	cmpb	$0, 8(%rbp)
	je	.L608
.L598:
	movq	(%rbx), %rax
	movb	$1, 176(%rax)
	movq	16(%rbx), %rdx
	movq	(%rbx), %rax
	movq	8(%rdx), %rcx
	testq	%rcx, %rcx
	je	.L599
	movq	200(%rax), %rsi
	testq	%rsi, %rsi
	je	.L600
	movq	%rcx, (%rsi)
.L601:
	movq	16(%rdx), %rcx
	movq	%rcx, 200(%rax)
	movq	$0, 8(%rdx)
	movq	$0, 16(%rdx)
.L599:
	movq	200(%rax), %rcx
	leaq	152(%rax), %rdx
	movq	$0, 152(%rax)
	testq	%rcx, %rcx
	je	.L602
	movq	%rdx, (%rcx)
	movq	%rdx, 200(%rax)
	addq	$8, %rsp
	.cfi_remember_state
	.cfi_def_cfa_offset 24
	popq	%rbx
	.cfi_def_cfa_offset 16
	popq	%rbp
	.cfi_def_cfa_offset 8
	ret
	.p2align 4,,10
	.p2align 3
.L600:
	.cfi_restore_state
	movq	%rcx, 192(%rax)
	jmp	.L601
	.p2align 4,,10
	.p2align 3
.L602:
	movq	%rdx, 200(%rax)
	movq	%rdx, 192(%rax)
	addq	$8, %rsp
	.cfi_remember_state
	.cfi_def_cfa_offset 24
	popq	%rbx
	.cfi_def_cfa_offset 16
	popq	%rbp
	.cfi_def_cfa_offset 8
	ret
	.p2align 4,,10
	.p2align 3
.L608:
	.cfi_restore_state
	movq	0(%rbp), %rdi
	call	pthread_mutex_lock@PLT
	movb	$1, 8(%rbp)
	jmp	.L598
	.cfi_endproc
.LFE3398:
	.size	_ZN4asio6detail15task_io_service12task_cleanupD2Ev, .-_ZN4asio6detail15task_io_service12task_cleanupD2Ev
	.weak	_ZN4asio6detail15task_io_service12task_cleanupD1Ev
	.set	_ZN4asio6detail15task_io_service12task_cleanupD1Ev,_ZN4asio6detail15task_io_service12task_cleanupD2Ev
	.section	.text._ZN4asio6detail15task_io_service12work_cleanupD2Ev,"axG",@progbits,_ZN4asio6detail15task_io_service12work_cleanupD5Ev,comdat
	.align 2
	.p2align 4,,15
	.weak	_ZN4asio6detail15task_io_service12work_cleanupD2Ev
	.type	_ZN4asio6detail15task_io_service12work_cleanupD2Ev, @function
_ZN4asio6detail15task_io_service12work_cleanupD2Ev:
.LFB3401:
	.cfi_startproc
	pushq	%r12
	.cfi_def_cfa_offset 16
	.cfi_offset 12, -16
	pushq	%rbp
	.cfi_def_cfa_offset 24
	.cfi_offset 6, -24
	pushq	%rbx
	.cfi_def_cfa_offset 32
	.cfi_offset 3, -32
	movq	%rdi, %rbx
	subq	$32, %rsp
	.cfi_def_cfa_offset 64
	movq	%fs:40, %rax
	movq	%rax, 24(%rsp)
	xorl	%eax, %eax
	movq	16(%rdi), %rax
	movq	24(%rax), %rdx
	cmpq	$1, %rdx
	jg	.L634
	jne	.L635
.L611:
	movq	8(%rax), %rdx
	movq	$0, 24(%rax)
	testq	%rdx, %rdx
	je	.L609
	movq	8(%rbx), %rbp
	cmpb	$0, 8(%rbp)
	je	.L636
.L633:
	movq	(%rbx), %rcx
	movq	200(%rcx), %rsi
	testq	%rsi, %rsi
	je	.L618
	movq	%rdx, (%rsi)
.L619:
	movq	16(%rax), %rdx
	movq	%rdx, 200(%rcx)
	movq	$0, 8(%rax)
	movq	$0, 16(%rax)
.L609:
	movq	24(%rsp), %rax
	xorq	%fs:40, %rax
	jne	.L637
	addq	$32, %rsp
	.cfi_remember_state
	.cfi_def_cfa_offset 32
	popq	%rbx
	.cfi_def_cfa_offset 24
	popq	%rbp
	.cfi_def_cfa_offset 16
	popq	%r12
	.cfi_def_cfa_offset 8
	ret
	.p2align 4,,10
	.p2align 3
.L636:
	.cfi_restore_state
	movq	0(%rbp), %rdi
	call	pthread_mutex_lock@PLT
	movq	16(%rbx), %rax
	movb	$1, 8(%rbp)
	movq	8(%rax), %rdx
	testq	%rdx, %rdx
	je	.L609
	jmp	.L633
	.p2align 4,,10
	.p2align 3
.L634:
	movq	(%rdi), %rax
	subq	$1, %rdx
	lock addq	%rdx, 184(%rax)
	movq	16(%rdi), %rax
	jmp	.L611
	.p2align 4,,10
	.p2align 3
.L618:
	movq	%rdx, 192(%rcx)
	jmp	.L619
	.p2align 4,,10
	.p2align 3
.L635:
	movq	(%rdi), %rbp
	lock subq	$1, 184(%rbp)
	je	.L612
.L632:
	movq	16(%rbx), %rax
	jmp	.L611
	.p2align 4,,10
	.p2align 3
.L612:
	leaq	48(%rbp), %r12
	movq	%r12, %rdi
	call	pthread_mutex_lock@PLT
	orq	$1, 136(%rbp)
	leaq	88(%rbp), %rdi
	movb	$1, 208(%rbp)
	call	pthread_cond_broadcast@PLT
	cmpb	$0, 176(%rbp)
	jne	.L613
	movq	144(%rbp), %rax
	testq	%rax, %rax
	je	.L613
	leaq	88(%rax), %rdx
	movb	$1, 176(%rbp)
	movl	96(%rax), %edi
	leaq	12(%rsp), %rcx
	movl	$3, %esi
	movl	$-2147483639, 12(%rsp)
	movq	%rdx, 16(%rsp)
	movl	88(%rax), %edx
	call	epoll_ctl@PLT
.L613:
	movq	%r12, %rdi
	call	pthread_mutex_unlock@PLT
	jmp	.L632
.L637:
	call	__stack_chk_fail@PLT
	.cfi_endproc
.LFE3401:
	.size	_ZN4asio6detail15task_io_service12work_cleanupD2Ev, .-_ZN4asio6detail15task_io_service12work_cleanupD2Ev
	.weak	_ZN4asio6detail15task_io_service12work_cleanupD1Ev
	.set	_ZN4asio6detail15task_io_service12work_cleanupD1Ev,_ZN4asio6detail15task_io_service12work_cleanupD2Ev
	.section	.text._ZN4asio6detail15throw_exceptionISt12system_errorEEvRKT_,"axG",@progbits,_ZN4asio6detail15throw_exceptionISt12system_errorEEvRKT_,comdat
	.p2align 4,,15
	.weak	_ZN4asio6detail15throw_exceptionISt12system_errorEEvRKT_
	.type	_ZN4asio6detail15throw_exceptionISt12system_errorEEvRKT_, @function
_ZN4asio6detail15throw_exceptionISt12system_errorEEvRKT_:
.LFB7156:
	.cfi_startproc
	pushq	%rbp
	.cfi_def_cfa_offset 16
	.cfi_offset 6, -16
	pushq	%rbx
	.cfi_def_cfa_offset 24
	.cfi_offset 3, -24
	movq	%rdi, %rbp
	movl	$32, %edi
	subq	$8, %rsp
	.cfi_def_cfa_offset 32
	call	__cxa_allocate_exception@PLT
	movq	%rbp, %rsi
	movq	%rax, %rdi
	movq	%rax, %rbx
	call	_ZNSt13runtime_errorC2ERKS_@PLT
	movq	_ZTVSt12system_error@GOTPCREL(%rip), %rax
	movq	_ZNSt12system_errorD1Ev@GOTPCREL(%rip), %rdx
	movq	%rbx, %rdi
	movq	_ZTISt12system_error@GOTPCREL(%rip), %rsi
	movdqu	16(%rbp), %xmm0
	addq	$16, %rax
	movq	%rax, (%rbx)
	movups	%xmm0, 16(%rbx)
	call	__cxa_throw@PLT
	.cfi_endproc
.LFE7156:
	.size	_ZN4asio6detail15throw_exceptionISt12system_errorEEvRKT_, .-_ZN4asio6detail15throw_exceptionISt12system_errorEEvRKT_
	.section	.text._ZN4asio6detail14do_throw_errorERKSt10error_code,"axG",@progbits,_ZN4asio6detail14do_throw_errorERKSt10error_code,comdat
	.p2align 4,,15
	.weak	_ZN4asio6detail14do_throw_errorERKSt10error_code
	.type	_ZN4asio6detail14do_throw_errorERKSt10error_code, @function
_ZN4asio6detail14do_throw_errorERKSt10error_code:
.LFB2686:
	.cfi_startproc
	.cfi_personality 0x9b,DW.ref.__gxx_personality_v0
	.cfi_lsda 0x1b,.LLSDA2686
	pushq	%r13
	.cfi_def_cfa_offset 16
	.cfi_offset 13, -16
	pushq	%r12
	.cfi_def_cfa_offset 24
	.cfi_offset 12, -24
	pushq	%rbp
	.cfi_def_cfa_offset 32
	.cfi_offset 6, -32
	pushq	%rbx
	.cfi_def_cfa_offset 40
	.cfi_offset 3, -40
	subq	$88, %rsp
	.cfi_def_cfa_offset 128
	movq	8(%rdi), %rbp
	movl	(%rdi), %r13d
	movq	%fs:40, %rax
	movq	%rax, 72(%rsp)
	xorl	%eax, %eax
	leaq	32(%rsp), %rbx
	movq	%rsp, %r12
	movq	0(%rbp), %rax
	movq	%rbp, %rsi
	movl	%r13d, %edx
	movq	%rbx, %rdi
.LEHB7:
	call	*32(%rax)
.LEHE7:
	movq	%rbx, %rsi
	movq	%r12, %rdi
.LEHB8:
	call	_ZNSt13runtime_errorC2ERKNSt7__cxx1112basic_stringIcSt11char_traitsIcESaIcEEE@PLT
.LEHE8:
	movq	32(%rsp), %rdi
	addq	$16, %rbx
	cmpq	%rbx, %rdi
	je	.L641
	call	_ZdlPv@PLT
.L641:
	movq	_ZTVSt12system_error@GOTPCREL(%rip), %rax
	movq	%r12, %rdi
	movl	%r13d, 16(%rsp)
	movq	%rbp, 24(%rsp)
	addq	$16, %rax
	movq	%rax, (%rsp)
.LEHB9:
	call	_ZN4asio6detail15throw_exceptionISt12system_errorEEvRKT_@PLT
.LEHE9:
.L646:
	movq	%rax, %rbx
	movq	%r12, %rdi
	call	_ZNSt12system_errorD1Ev@PLT
	movq	%rbx, %rdi
.LEHB10:
	call	_Unwind_Resume@PLT
.L647:
	movq	32(%rsp), %rdi
	addq	$16, %rbx
	movq	%rax, %rbp
	cmpq	%rbx, %rdi
	je	.L643
	call	_ZdlPv@PLT
.L643:
	movq	%rbp, %rdi
	call	_Unwind_Resume@PLT
.LEHE10:
	.cfi_endproc
.LFE2686:
	.section	.gcc_except_table._ZN4asio6detail14do_throw_errorERKSt10error_code,"aG",@progbits,_ZN4asio6detail14do_throw_errorERKSt10error_code,comdat
.LLSDA2686:
	.byte	0xff
	.byte	0xff
	.byte	0x1
	.uleb128 .LLSDACSE2686-.LLSDACSB2686
.LLSDACSB2686:
	.uleb128 .LEHB7-.LFB2686
	.uleb128 .LEHE7-.LEHB7
	.uleb128 0
	.uleb128 0
	.uleb128 .LEHB8-.LFB2686
	.uleb128 .LEHE8-.LEHB8
	.uleb128 .L647-.LFB2686
	.uleb128 0
	.uleb128 .LEHB9-.LFB2686
	.uleb128 .LEHE9-.LEHB9
	.uleb128 .L646-.LFB2686
	.uleb128 0
	.uleb128 .LEHB10-.LFB2686
	.uleb128 .LEHE10-.LEHB10
	.uleb128 0
	.uleb128 0
.LLSDACSE2686:
	.section	.text._ZN4asio6detail14do_throw_errorERKSt10error_code,"axG",@progbits,_ZN4asio6detail14do_throw_errorERKSt10error_code,comdat
	.size	_ZN4asio6detail14do_throw_errorERKSt10error_code, .-_ZN4asio6detail14do_throw_errorERKSt10error_code
	.section	.rodata.str1.1,"aMS",@progbits,1
.LC24:
	.string	"Starting thread (%d)"
	.section	.rodata.str1.8,"aMS",@progbits,1
	.align 8
.LC25:
	.string	"/home/raihan/OpenPLC_v3/utils/dnp3_src/cpp/libs/src/asiopal/ThreadPool.cpp(89)"
	.section	.rodata.str1.1
.LC26:
	.string	"Exiting thread (%d)"
	.section	.rodata.str1.8
	.align 8
.LC27:
	.string	"/home/raihan/OpenPLC_v3/utils/dnp3_src/cpp/libs/src/asiopal/ThreadPool.cpp(93)"
	.text
	.align 2
	.p2align 4,,15
	.globl	_ZN7asiopal10ThreadPool3RunEi
	.type	_ZN7asiopal10ThreadPool3RunEi, @function
_ZN7asiopal10ThreadPool3RunEi:
.LFB6884:
	.cfi_startproc
	.cfi_personality 0x9b,DW.ref.__gxx_personality_v0
	.cfi_lsda 0x1b,.LLSDA6884
	pushq	%r15
	.cfi_def_cfa_offset 16
	.cfi_offset 15, -16
	pushq	%r14
	.cfi_def_cfa_offset 24
	.cfi_offset 14, -24
	pushq	%r13
	.cfi_def_cfa_offset 32
	.cfi_offset 13, -32
	pushq	%r12
	.cfi_def_cfa_offset 40
	.cfi_offset 12, -40
	pushq	%rbp
	.cfi_def_cfa_offset 48
	.cfi_offset 6, -48
	pushq	%rbx
	.cfi_def_cfa_offset 56
	.cfi_offset 3, -56
	subq	$1928, %rsp
	.cfi_def_cfa_offset 1984
	movq	%fs:40, %rbx
	movq	%rbx, 1912(%rsp)
	xorl	%ebx, %ebx
	cmpq	$0, 64(%rdi)
	movq	%rdi, 40(%rsp)
	movl	%esi, 60(%rsp)
	je	.L770
	movq	%rdi, %rax
	movq	%rdi, %rbx
	leaq	48(%rdi), %rdi
.LEHB11:
	call	*72(%rax)
	leaq	224(%rsp), %rax
	movq	%rbx, %rdi
	movl	$8, 224(%rsp)
	movq	%rax, %rsi
	movq	%rax, 32(%rsp)
	call	_ZNK7openpal6Logger9IsEnabledERKNS_10LogFiltersE@PLT
.LEHE11:
	testb	%al, %al
	jne	.L898
.L651:
	movq	40(%rsp), %rax
	movq	32(%rax), %rax
	movq	16(%rax), %rbp
	call	_ZNSt3_V215system_categoryEv@PLT
	movl	$0, 64(%rsp)
	movq	%rax, 48(%rsp)
	movq	%rax, 72(%rsp)
	movq	184(%rbp), %rax
	leaq	48(%rbp), %rbx
	testq	%rax, %rax
	je	.L899
	leaq	160(%rsp), %rax
	movq	$0, 160(%rsp)
	movq	$0, 168(%rsp)
	movq	$0, 176(%rsp)
	movq	$0, 184(%rsp)
	movq	%rbp, 96(%rsp)
	movq	%rax, 8(%rsp)
	movq	%rax, 104(%rsp)
	.byte	0x66
	leaq	_ZN4asio6detail15keyword_tss_ptrINS0_10call_stackINS0_15task_io_serviceENS0_27task_io_service_thread_infoEE7contextEE6value_E@tlsgd(%rip), %rdi
	.value	0x6666
	rex64
	call	__tls_get_addr@PLT
	movq	%rbx, %rdi
	movq	%rbx, 80(%rsp)
	movq	(%rax), %rdx
	movq	%rdx, 112(%rsp)
	leaq	96(%rsp), %rdx
	movq	%rdx, (%rax)
	call	pthread_mutex_lock@PLT
	movb	$1, 88(%rsp)
	.p2align 4,,10
	.p2align 3
.L655:
	movzbl	208(%rbp), %r12d
	testb	%r12b, %r12b
	jne	.L657
.L908:
	movq	192(%rbp), %rbx
	testq	%rbx, %rbx
	je	.L658
	movq	(%rbx), %rax
	testq	%rax, %rax
	movq	%rax, 192(%rbp)
	je	.L900
.L659:
	movq	$0, (%rbx)
	movq	192(%rbp), %r14
	leaq	152(%rbp), %rax
	testq	%r14, %r14
	setne	%dl
	cmpq	%rax, %rbx
	jne	.L660
	testq	%r14, %r14
	movb	%dl, 176(%rbp)
	movzbl	88(%rsp), %eax
	je	.L661
	cmpb	$0, 40(%rbp)
	je	.L901
.L661:
	testb	%al, %al
	jne	.L902
.L664:
	movq	144(%rbp), %r15
	leaq	80(%rsp), %rax
	movq	%rbp, 128(%rsp)
	movq	%rax, 136(%rsp)
	movq	8(%rsp), %rax
	cmpl	$-1, 100(%r15)
	movq	%rax, 144(%rsp)
	je	.L666
	xorl	%ecx, %ecx
	testq	%r14, %r14
	sete	%cl
	negl	%ecx
.L667:
	leaq	256(%rsp), %rbx
	movl	96(%r15), %edi
	movl	$128, %edx
	movq	%rbx, %rsi
.LEHB12:
	call	epoll_wait@PLT
.LEHE12:
	cmpl	$-1, 100(%r15)
	sete	%dil
	testl	%eax, %eax
	jle	.L679
	subl	$1, %eax
	leaq	12(%rbx), %rdx
	movq	%rbx, %rsi
	leaq	(%rax,%rax,2), %rax
	movq	176(%rsp), %rcx
	movq	168(%rsp), %r13
	leaq	88(%r15), %r9
	xorl	%r11d, %r11d
	leaq	100(%r15), %r10
	leaq	(%rdx,%rax,4), %r8
	movl	$1, %ebx
	jmp	.L682
	.p2align 4,,10
	.p2align 3
.L680:
	cmpq	%r10, %rax
	je	.L781
	movl	(%rsi), %esi
	testq	%rcx, %rcx
	movq	$0, (%rax)
	movl	%esi, 16(%rax)
	je	.L782
	movq	%rax, (%rcx)
	movl	$1, %r11d
	movq	%rax, %rcx
.L681:
	cmpq	%r8, %rdx
	movq	%rdx, %rsi
	je	.L881
.L903:
	addq	$12, %rdx
.L682:
	movq	4(%rsi), %rax
	cmpq	%r9, %rax
	jne	.L680
	cmpl	$-1, 100(%r15)
	movq	%rdx, %rsi
	cmove	%ebx, %edi
	cmpq	%r8, %rdx
	jne	.L903
.L881:
	testb	%r12b, %r12b
	jne	.L904
.L683:
	testb	%r11b, %r11b
	jne	.L905
	.p2align 4,,10
	.p2align 3
.L679:
	testb	%dil, %dil
	jne	.L906
.L685:
	movq	144(%rsp), %rdx
	movq	24(%rdx), %rax
	testq	%rax, %rax
	jle	.L722
	movq	128(%rsp), %rdx
	lock addq	%rax, 184(%rdx)
	movq	144(%rsp), %rdx
.L722:
	movq	136(%rsp), %rbx
	movq	$0, 24(%rdx)
	cmpb	$0, 8(%rbx)
	je	.L907
.L726:
	movq	128(%rsp), %rax
	movb	$1, 176(%rax)
	movq	8(%rdx), %rsi
	movq	200(%rax), %rcx
	testq	%rsi, %rsi
	je	.L727
	testq	%rcx, %rcx
	je	.L728
	movq	%rsi, (%rcx)
.L729:
	movq	16(%rdx), %rcx
	movq	%rcx, 200(%rax)
	movq	$0, 8(%rdx)
	movq	$0, 16(%rdx)
	movq	200(%rax), %rcx
.L727:
	testq	%rcx, %rcx
	leaq	152(%rax), %rdx
	movq	$0, 152(%rax)
	je	.L730
	movq	%rdx, (%rcx)
	movq	%rdx, 200(%rax)
	movzbl	208(%rbp), %r12d
	testb	%r12b, %r12b
	je	.L908
.L657:
	cmpb	$0, 88(%rsp)
	jne	.L909
.L754:
	.byte	0x66
	leaq	_ZN4asio6detail15keyword_tss_ptrINS0_10call_stackINS0_15task_io_serviceENS0_27task_io_service_thread_infoEE7contextEE6value_E@tlsgd(%rip), %rdi
	.value	0x6666
	rex64
	call	__tls_get_addr@PLT
	movq	168(%rsp), %rsi
	movq	112(%rsp), %rdx
	testq	%rsi, %rsi
	movq	%rdx, (%rax)
	jne	.L758
.L757:
	movq	160(%rsp), %rdi
	testq	%rdi, %rdi
	je	.L654
	call	_ZdlPv@PLT
.L654:
	movl	64(%rsp), %eax
	testl	%eax, %eax
	jne	.L910
	movq	32(%rsp), %rsi
	movq	40(%rsp), %rdi
	movl	$8, 224(%rsp)
.LEHB13:
	call	_ZNK7openpal6Logger9IsEnabledERKNS_10LogFiltersE@PLT
	testb	%al, %al
	jne	.L911
.L769:
	movq	40(%rsp), %rax
	cmpq	$0, 96(%rax)
	je	.L770
	leaq	80(%rax), %rdi
	call	*104(%rax)
.LEHE13:
	movq	1912(%rsp), %rax
	xorq	%fs:40, %rax
	jne	.L912
	addq	$1928, %rsp
	.cfi_remember_state
	.cfi_def_cfa_offset 56
	popq	%rbx
	.cfi_def_cfa_offset 48
	popq	%rbp
	.cfi_def_cfa_offset 40
	popq	%r12
	.cfi_def_cfa_offset 32
	popq	%r13
	.cfi_def_cfa_offset 24
	popq	%r14
	.cfi_def_cfa_offset 16
	popq	%r15
	.cfi_def_cfa_offset 8
	ret
	.p2align 4,,10
	.p2align 3
.L781:
	.cfi_restore_state
	movl	$1, %edi
	jmp	.L681
	.p2align 4,,10
	.p2align 3
.L782:
	movq	%rax, %rcx
	movq	%rax, %r13
	movl	$1, %r11d
	movl	$1, %r12d
	jmp	.L681
	.p2align 4,,10
	.p2align 3
.L906:
	leaq	48(%r15), %rax
	movq	%rax, %rdi
	movq	%rax, 16(%rsp)
	call	pthread_mutex_lock@PLT
	movq	104(%r15), %rbx
	testq	%rbx, %rbx
	je	.L686
	movq	8(%rsp), %rax
	addq	$8, %rax
	movq	%rax, 24(%rsp)
	.p2align 4,,10
	.p2align 3
.L689:
	movq	(%rbx), %rax
	movq	40(%rax), %rax
	cmpq	_ZN4asio6detail11timer_queueINS0_18chrono_time_traitsINSt6chrono3_V212steady_clockENS_11wait_traitsIS5_EEEEE16get_ready_timersERNS0_8op_queueINS0_25task_io_service_operationEEE@GOTPCREL(%rip), %rax
	jne	.L687
	movq	24(%rbx), %rax
	cmpq	%rax, 32(%rbx)
	je	.L690
	call	_ZNSt6chrono3_V212steady_clock3nowEv@PLT
	movq	32(%rbx), %r10
	movq	24(%rbx), %rcx
	cmpq	%r10, %rcx
	je	.L690
	cmpq	%rax, (%rcx)
	jg	.L690
	movq	%rbp, (%rsp)
	movq	%rax, %r14
	.p2align 4,,10
	.p2align 3
.L691:
	movq	8(%rcx), %rax
	movq	(%rax), %rdx
	testq	%rdx, %rdx
	je	.L692
	movq	176(%rsp), %rsi
	testq	%rsi, %rsi
	je	.L693
	movq	%rdx, (%rsi)
.L694:
	movq	8(%rax), %rdx
	movq	%rdx, 176(%rsp)
	movq	$0, (%rax)
	movq	$0, 8(%rax)
.L692:
	movq	16(%rax), %rdx
	movq	%r10, %rsi
	subq	%rcx, %rsi
	sarq	$4, %rsi
	cmpq	%rsi, %rdx
	jnb	.L913
	subq	$1, %rsi
	subq	$16, %r10
	cmpq	%rsi, %rdx
	je	.L914
	movq	%rdx, %rdi
	movq	%rsi, %r8
	salq	$4, %rdi
	salq	$4, %r8
	addq	%rcx, %rdi
	addq	%rcx, %r8
	testq	%rdx, %rdx
	movq	(%rdi), %r11
	movq	8(%rdi), %r9
	movdqu	(%r8), %xmm0
	movups	%xmm0, (%rdi)
	movq	%r11, (%r8)
	movq	%r9, 8(%r8)
	movq	8(%rdi), %r11
	movq	%rdx, 16(%r11)
	movq	%rsi, 16(%r9)
	movq	%r10, 32(%rbx)
	je	.L698
	leaq	-1(%rdx), %r8
	movq	(%rdi), %rbp
	shrq	%r8
	movq	%r8, %rsi
	salq	$4, %rsi
	addq	%rcx, %rsi
	cmpq	%rbp, (%rsi)
	jg	.L699
.L698:
	movq	%r10, %r11
	leaq	1(%rdx,%rdx), %r8
	subq	%rcx, %r11
	sarq	$4, %r11
	cmpq	%r11, %r8
	jnb	.L696
	movq	(%rdi), %rbp
	jmp	.L701
	.p2align 4,,10
	.p2align 3
.L915:
	leaq	16(%rcx,%rsi), %rsi
	movq	(%rsi), %r13
	cmpq	%r12, %r13
	jg	.L783
	movq	%rsi, %r9
	movq	%rdx, %rsi
	movq	%r13, %r12
	salq	$4, %rsi
	addq	%rcx, %rsi
	cmpq	%r12, %rbp
	jl	.L696
.L916:
	movq	8(%rsi), %r8
	movdqu	(%r9), %xmm0
	movups	%xmm0, (%rsi)
	movq	%r8, 8(%r9)
	movq	%rbp, (%r9)
	movq	8(%rsi), %rsi
	movq	%rdx, 16(%rsi)
	movq	%rdi, 16(%r8)
	leaq	1(%rdi,%rdi), %r8
	movq	%rdi, %rdx
	cmpq	%r11, %r8
	jnb	.L696
.L701:
	movq	%r8, %rsi
	leaq	1(%r8), %rdi
	salq	$4, %rsi
	leaq	(%rcx,%rsi), %r9
	cmpq	%r11, %rdi
	movq	(%r9), %r12
	jne	.L915
.L783:
	movq	%rdx, %rsi
	movq	%r8, %rdi
	salq	$4, %rsi
	addq	%rcx, %rsi
	cmpq	%r12, %rbp
	jge	.L916
	.p2align 4,,10
	.p2align 3
.L696:
	cmpq	16(%rbx), %rax
	movq	24(%rax), %rdx
	je	.L917
.L703:
	movq	32(%rax), %rsi
	testq	%rsi, %rsi
	je	.L704
	movq	%rdx, 24(%rsi)
	movq	24(%rax), %rdx
.L704:
	testq	%rdx, %rdx
	je	.L705
	movq	%rsi, 32(%rdx)
.L705:
	cmpq	%r10, %rcx
	movq	$0, 24(%rax)
	movq	$0, 32(%rax)
	je	.L886
	cmpq	(%rcx), %r14
	jge	.L691
.L886:
	movq	(%rsp), %rbp
.L690:
	movq	8(%rbx), %rbx
	testq	%rbx, %rbx
	jne	.L689
.L686:
	movl	100(%r15), %edi
	cmpl	$-1, %edi
	je	.L707
	movq	104(%r15), %rbx
	pxor	%xmm0, %xmm0
	testq	%rbx, %rbx
	movaps	%xmm0, 192(%rsp)
	je	.L708
	movl	$300000000, %r14d
	movabsq	$9223372036854775807, %r13
	movq	_ZNK4asio6detail11timer_queueINS0_18chrono_time_traitsINSt6chrono3_V212steady_clockENS_11wait_traitsIS5_EEEEE18wait_duration_usecEl@GOTPCREL(%rip), %r12
	jmp	.L718
	.p2align 4,,10
	.p2align 3
.L919:
	movq	24(%rbx), %rax
	cmpq	%rax, 32(%rbx)
	je	.L710
	call	_ZNSt6chrono3_V212steady_clock3nowEv@PLT
	movq	24(%rbx), %rdx
	movq	(%rdx), %rdx
	testq	%rdx, %rdx
	js	.L711
	testq	%rax, %rax
	js	.L712
.L892:
	movq	%rdx, %rcx
	subq	%rax, %rcx
	testq	%rcx, %rcx
	jle	.L788
.L715:
	movabsq	$2361183241434822607, %rax
	imulq	%rcx
	sarq	$63, %rcx
	sarq	$7, %rdx
	subq	%rcx, %rdx
	jne	.L714
	movl	$1, %r14d
	.p2align 4,,10
	.p2align 3
.L710:
	movq	8(%rbx), %rbx
	testq	%rbx, %rbx
	je	.L918
.L718:
	movq	(%rbx), %rax
	movq	32(%rax), %rax
	cmpq	%r12, %rax
	je	.L919
	movq	%r14, %rsi
	movq	%rbx, %rdi
.LEHB14:
	call	*%rax
	movq	8(%rbx), %rbx
	movq	%rax, %r14
	testq	%rbx, %rbx
	jne	.L718
	.p2align 4,,10
	.p2align 3
.L918:
	movq	%r14, %rax
	movabsq	$4835703278458516699, %rdx
	xorl	%esi, %esi
	imulq	%rdx
	movq	%r14, %rax
	sarq	$63, %rax
	sarq	$18, %rdx
	subq	%rax, %rdx
	testq	%r14, %r14
	movl	$1, %eax
	movq	%rdx, 208(%rsp)
	sete	%sil
	movl	100(%r15), %edi
	je	.L720
	imulq	$1000000, %rdx, %rdx
	subq	%rdx, %r14
	imulq	$1000, %r14, %rax
.L720:
	movq	32(%rsp), %rcx
	leaq	192(%rsp), %rdx
	movq	%rax, 216(%rsp)
	call	timerfd_settime@PLT
.L707:
	movq	16(%rsp), %rdi
	call	pthread_mutex_unlock@PLT
	jmp	.L685
	.p2align 4,,10
	.p2align 3
.L702:
	leaq	-1(%r8), %r9
	movq	%r8, %rdi
	salq	$4, %rdi
	shrq	%r9
	addq	%rcx, %rdi
	movq	%r9, %rsi
	movq	(%rdi), %rbp
	salq	$4, %rsi
	addq	%rcx, %rsi
	cmpq	%rbp, (%rsi)
	jle	.L696
	movq	8(%rdi), %r11
	movq	%r8, %rdx
	movq	%r9, %r8
.L699:
	movdqu	(%rsi), %xmm0
	testq	%r8, %r8
	movups	%xmm0, (%rdi)
	movq	%rbp, (%rsi)
	movq	%r11, 8(%rsi)
	movq	8(%rdi), %rsi
	movq	%rdx, 16(%rsi)
	movq	%r8, 16(%r11)
	jne	.L702
	cmpq	16(%rbx), %rax
	movq	24(%rax), %rdx
	jne	.L703
	.p2align 4,,10
	.p2align 3
.L917:
	movq	%rdx, 16(%rbx)
	jmp	.L703
	.p2align 4,,10
	.p2align 3
.L913:
	movq	32(%rbx), %r10
	jmp	.L696
	.p2align 4,,10
	.p2align 3
.L693:
	movq	%rdx, 168(%rsp)
	jmp	.L694
	.p2align 4,,10
	.p2align 3
.L914:
	movq	%r10, 32(%rbx)
	jmp	.L696
	.p2align 4,,10
	.p2align 3
.L687:
	movq	24(%rsp), %rsi
	movq	%rbx, %rdi
	call	*%rax
.LEHE14:
	jmp	.L690
	.p2align 4,,10
	.p2align 3
.L730:
	movq	%rdx, 200(%rax)
	movq	%rdx, 192(%rax)
	jmp	.L655
	.p2align 4,,10
	.p2align 3
.L907:
	movq	(%rbx), %rdi
	call	pthread_mutex_lock@PLT
	movb	$1, 8(%rbx)
	movq	144(%rsp), %rdx
	jmp	.L726
	.p2align 4,,10
	.p2align 3
.L900:
	movq	$0, 200(%rbp)
	jmp	.L659
	.p2align 4,,10
	.p2align 3
.L902:
	movq	80(%rsp), %rdi
	call	pthread_mutex_unlock@PLT
	movb	$0, 88(%rsp)
	jmp	.L664
	.p2align 4,,10
	.p2align 3
.L901:
	movq	136(%rbp), %rbx
	orq	$1, %rbx
	testb	%al, %al
	movq	%rbx, 136(%rbp)
	jne	.L920
.L662:
	cmpq	$1, %rbx
	je	.L664
	leaq	88(%rbp), %rdi
	call	pthread_cond_signal@PLT
	jmp	.L664
	.p2align 4,,10
	.p2align 3
.L711:
	testq	%rax, %rax
	js	.L892
.L788:
	xorl	%r14d, %r14d
	jmp	.L710
	.p2align 4,,10
	.p2align 3
.L658:
	movq	136(%rbp), %rax
	leaq	88(%rbp), %rbx
	andq	$-2, %rax
	.p2align 4,,10
	.p2align 3
.L752:
	movq	80(%rsp), %rsi
	addq	$2, %rax
	movq	%rbx, %rdi
	movq	%rax, 136(%rbp)
.LEHB15:
	call	pthread_cond_wait@PLT
.LEHE15:
	movq	136(%rbp), %rax
	subq	$2, %rax
	testb	$1, %al
	movq	%rax, 136(%rbp)
	je	.L752
	jmp	.L655
	.p2align 4,,10
	.p2align 3
.L728:
	movq	%rsi, 192(%rax)
	jmp	.L729
	.p2align 4,,10
	.p2align 3
.L786:
	movabsq	$9223372036854775, %rdx
.L714:
	cmpq	%rdx, %r14
	cmovg	%rdx, %r14
	jmp	.L710
	.p2align 4,,10
	.p2align 3
.L666:
	leaq	48(%r15), %r13
	movq	%r13, %rdi
	call	pthread_mutex_lock@PLT
	testq	%r14, %r14
	jne	.L773
	movq	104(%r15), %rbx
	testq	%rbx, %rbx
	je	.L774
	movl	$300000, %r14d
	jmp	.L678
	.p2align 4,,10
	.p2align 3
.L922:
	movq	24(%rbx), %rax
	cmpq	%rax, 32(%rbx)
	je	.L671
	call	_ZNSt6chrono3_V212steady_clock3nowEv@PLT
	movq	24(%rbx), %rdx
	movq	(%rdx), %rdx
	testq	%rdx, %rdx
	js	.L672
	testq	%rax, %rax
	js	.L673
.L891:
	movq	%rdx, %rcx
	subq	%rax, %rcx
	testq	%rcx, %rcx
	jle	.L778
.L676:
	movabsq	$4835703278458516699, %rax
	imulq	%rcx
	sarq	$63, %rcx
	sarq	$18, %rdx
	subq	%rcx, %rdx
	jne	.L675
	movl	$1, %r14d
	.p2align 4,,10
	.p2align 3
.L671:
	movq	8(%rbx), %rbx
	testq	%rbx, %rbx
	je	.L921
.L678:
	movq	(%rbx), %rax
	movq	24(%rax), %rax
	cmpq	_ZNK4asio6detail11timer_queueINS0_18chrono_time_traitsINSt6chrono3_V212steady_clockENS_11wait_traitsIS5_EEEEE18wait_duration_msecEl@GOTPCREL(%rip), %rax
	je	.L922
	movq	%r14, %rsi
	movq	%rbx, %rdi
.LEHB16:
	call	*%rax
.LEHE16:
	movq	8(%rbx), %rbx
	movq	%rax, %r14
	testq	%rbx, %rbx
	jne	.L678
	.p2align 4,,10
	.p2align 3
.L921:
	movl	%r14d, %ecx
.L668:
	movq	%r13, %rdi
	movl	%ecx, (%rsp)
	call	pthread_mutex_unlock@PLT
	movl	(%rsp), %ecx
	jmp	.L667
	.p2align 4,,10
	.p2align 3
.L712:
	movabsq	$-9223372036854775808, %rdi
	cmpq	%rdi, %rax
	je	.L786
	movq	%rax, %rsi
	movq	%r13, %rcx
	negq	%rsi
	subq	%rdx, %rcx
	cmpq	%rcx, %rsi
	jg	.L786
	movq	%rdx, %rcx
	subq	%rax, %rcx
	jmp	.L715
	.p2align 4,,10
	.p2align 3
.L672:
	testq	%rax, %rax
	js	.L891
.L778:
	xorl	%r14d, %r14d
	jmp	.L671
.L776:
	movabsq	$9223372036854, %rdx
.L675:
	cmpq	%rdx, %r14
	cmovg	%rdx, %r14
	jmp	.L671
.L923:
	movq	$0, 176(%rsp)
.L759:
	movq	48(%rsp), %rbx
	movq	$0, (%rsi)
	xorl	%ecx, %ecx
	movq	8(%rsi), %rax
	xorl	%edi, %edi
	movl	$0, 224(%rsp)
	movq	32(%rsp), %rdx
	movq	%rbx, 232(%rsp)
	call	*%rax
	movq	168(%rsp), %rsi
	testq	%rsi, %rsi
	je	.L757
.L758:
	movq	(%rsi), %rax
	testq	%rax, %rax
	movq	%rax, 168(%rsp)
	jne	.L759
	jmp	.L923
	.p2align 4,,10
	.p2align 3
.L673:
	movabsq	$-9223372036854775808, %rdi
	cmpq	%rdi, %rax
	je	.L776
	movq	%rax, %rdi
	movabsq	$9223372036854775807, %rcx
	negq	%rdi
	subq	%rdx, %rcx
	cmpq	%rcx, %rdi
	jg	.L776
	movq	%rdx, %rcx
	subq	%rax, %rcx
	jmp	.L676
	.p2align 4,,10
	.p2align 3
.L660:
	testq	%r14, %r14
	movl	16(%rbx), %r12d
	je	.L733
	cmpb	$0, 40(%rbp)
	je	.L924
.L733:
	cmpb	$0, 88(%rsp)
	je	.L736
	movq	80(%rsp), %rdi
	call	pthread_mutex_unlock@PLT
	movb	$0, 88(%rsp)
.L736:
	leaq	80(%rsp), %rax
	movq	%rbp, 224(%rsp)
	leaq	64(%rsp), %rdx
	movq	%r12, %rcx
	movq	%rbx, %rsi
	movq	%rbp, %rdi
	movq	%rax, 232(%rsp)
	movq	8(%rsp), %rax
	movq	%rax, 240(%rsp)
.LEHB17:
	call	*8(%rbx)
.LEHE17:
	movq	240(%rsp), %rax
	movq	24(%rax), %rdx
	cmpq	$1, %rdx
	jg	.L925
	jne	.L926
.L741:
	movq	8(%rax), %rdx
	movq	$0, 24(%rax)
	testq	%rdx, %rdx
	je	.L745
	movq	232(%rsp), %rbx
	cmpb	$0, 8(%rbx)
	je	.L927
.L895:
	movq	224(%rsp), %rcx
	movq	200(%rcx), %rsi
	testq	%rsi, %rsi
	je	.L748
	movq	%rdx, (%rsi)
.L749:
	movq	16(%rax), %rdx
	movq	%rdx, 200(%rcx)
	movq	$0, 8(%rax)
	movq	$0, 16(%rax)
.L745:
	cmpb	$0, 88(%rsp)
	jne	.L655
	movq	80(%rsp), %rdi
	call	pthread_mutex_lock@PLT
	movb	$1, 88(%rsp)
	jmp	.L655
	.p2align 4,,10
	.p2align 3
.L920:
	movq	80(%rsp), %rdi
	call	pthread_mutex_unlock@PLT
	movb	$0, 88(%rsp)
	jmp	.L662
	.p2align 4,,10
	.p2align 3
.L773:
	xorl	%ecx, %ecx
	jmp	.L668
.L925:
	movq	224(%rsp), %rax
	subq	$1, %rdx
	lock addq	%rdx, 184(%rax)
	movq	240(%rsp), %rax
	jmp	.L741
.L708:
	movq	$300, 208(%rsp)
	xorl	%esi, %esi
	xorl	%eax, %eax
	jmp	.L720
.L899:
	movq	%rbx, %rdi
	call	pthread_mutex_lock@PLT
	orq	$1, 136(%rbp)
	leaq	88(%rbp), %rdi
	movb	$1, 208(%rbp)
	call	pthread_cond_broadcast@PLT
	cmpb	$0, 176(%rbp)
	jne	.L653
	movq	144(%rbp), %rax
	testq	%rax, %rax
	je	.L653
	leaq	88(%rax), %rdx
	movb	$1, 176(%rbp)
	movq	32(%rsp), %rcx
	movl	$-2147483639, 224(%rsp)
	movl	$3, %esi
	movq	%rdx, 228(%rsp)
	movl	88(%rax), %edx
	movl	96(%rax), %edi
	call	epoll_ctl@PLT
.L653:
	movq	%rbx, %rdi
	call	pthread_mutex_unlock@PLT
	jmp	.L654
.L774:
	movl	$300000, %ecx
	jmp	.L668
.L927:
	movq	(%rbx), %rdi
	call	pthread_mutex_lock@PLT
	movq	240(%rsp), %rax
	movb	$1, 8(%rbx)
	movq	8(%rax), %rdx
	testq	%rdx, %rdx
	je	.L745
	jmp	.L895
.L924:
	movq	136(%rbp), %rax
	orq	$1, %rax
	cmpq	$1, %rax
	movq	%rax, 136(%rbp)
	jne	.L928
	cmpb	$0, 176(%rbp)
	jne	.L733
	movq	144(%rbp), %rax
	testq	%rax, %rax
	je	.L733
	leaq	88(%rax), %rdx
	movb	$1, 176(%rbp)
	movq	32(%rsp), %rcx
	movl	$-2147483639, 224(%rsp)
	movl	$3, %esi
	movq	%rdx, 228(%rsp)
	movl	88(%rax), %edx
	movl	96(%rax), %edi
	call	epoll_ctl@PLT
	jmp	.L733
.L911:
	leaq	1792(%rsp), %rbx
	movl	60(%rsp), %r9d
	leaq	.LC26(%rip), %r8
	movl	$120, %ecx
	movl	$1, %edx
	movl	$120, %esi
	movq	%rbx, %rdi
	xorl	%eax, %eax
	call	__snprintf_chk@PLT
	movq	32(%rsp), %rsi
	movq	40(%rsp), %rdi
	leaq	.LC27(%rip), %rdx
	movq	%rbx, %rcx
	movl	$8, 224(%rsp)
.LEHB18:
	call	_ZN7openpal6Logger3LogERKNS_10LogFiltersEPKcS5_@PLT
	jmp	.L769
.L898:
	leaq	1792(%rsp), %rbx
	movl	60(%rsp), %r9d
	leaq	.LC24(%rip), %r8
	movl	$120, %ecx
	movl	$1, %edx
	movl	$120, %esi
	movq	%rbx, %rdi
	xorl	%eax, %eax
	call	__snprintf_chk@PLT
	movq	32(%rsp), %rsi
	movq	40(%rsp), %rdi
	leaq	.LC25(%rip), %rdx
	movq	%rbx, %rcx
	movl	$8, 224(%rsp)
	call	_ZN7openpal6Logger3LogERKNS_10LogFiltersEPKcS5_@PLT
.LEHE18:
	jmp	.L651
.L748:
	movq	%rdx, 192(%rcx)
	jmp	.L749
.L909:
	movq	80(%rsp), %rdi
	call	pthread_mutex_unlock@PLT
	jmp	.L754
.L926:
	movq	224(%rsp), %r12
	lock subq	$1, 184(%r12)
	je	.L742
.L894:
	movq	240(%rsp), %rax
	jmp	.L741
.L928:
	cmpb	$0, 88(%rsp)
	je	.L735
	movq	80(%rsp), %rdi
	call	pthread_mutex_unlock@PLT
	movb	$0, 88(%rsp)
.L735:
	leaq	88(%rbp), %rdi
	call	pthread_cond_signal@PLT
	jmp	.L736
.L742:
	leaq	48(%r12), %rbx
	movq	%rbx, %rdi
	call	pthread_mutex_lock@PLT
	orq	$1, 136(%r12)
	leaq	88(%r12), %rdi
	movb	$1, 208(%r12)
	call	pthread_cond_broadcast@PLT
	cmpb	$0, 176(%r12)
	jne	.L743
	movq	144(%r12), %rax
	testq	%rax, %rax
	je	.L743
	leaq	88(%rax), %rdx
	movb	$1, 176(%r12)
	movl	$-2147483639, 192(%rsp)
	leaq	192(%rsp), %rcx
	movl	$3, %esi
	movq	%rdx, 196(%rsp)
	movl	88(%rax), %edx
	movl	96(%rax), %edi
	call	epoll_ctl@PLT
.L743:
	movq	%rbx, %rdi
	call	pthread_mutex_unlock@PLT
	jmp	.L894
.L792:
	movq	32(%rsp), %rdi
	movq	%rax, %rbx
	call	_ZN4asio6detail15task_io_service12work_cleanupD1Ev@PLT
.L755:
	cmpb	$0, 88(%rsp)
	je	.L764
	movq	80(%rsp), %rdi
	call	pthread_mutex_unlock@PLT
.L764:
	.byte	0x66
	leaq	_ZN4asio6detail15keyword_tss_ptrINS0_10call_stackINS0_15task_io_serviceENS0_27task_io_service_thread_infoEE7contextEE6value_E@tlsgd(%rip), %rdi
	.value	0x6666
	rex64
	call	__tls_get_addr@PLT
	movq	112(%rsp), %rdx
	leaq	192(%rsp), %rbp
	movq	%rdx, (%rax)
.L767:
	movq	168(%rsp), %rsi
	testq	%rsi, %rsi
	je	.L765
	movq	(%rsi), %rax
	testq	%rax, %rax
	movq	%rax, 168(%rsp)
	jne	.L766
	movq	$0, 176(%rsp)
.L766:
	movq	48(%rsp), %rdi
	movq	$0, (%rsi)
	xorl	%ecx, %ecx
	movq	8(%rsi), %rax
	movq	%rbp, %rdx
	movl	$0, 192(%rsp)
	movq	%rdi, 200(%rsp)
	xorl	%edi, %edi
	call	*%rax
	jmp	.L767
.L765:
	movq	160(%rsp), %rdi
	testq	%rdi, %rdi
	je	.L768
	call	_ZdlPv@PLT
.L768:
	movq	%rbx, %rdi
.LEHB19:
	call	_Unwind_Resume@PLT
.L793:
	movq	%rax, %rbx
.L724:
	leaq	128(%rsp), %rdi
	call	_ZN4asio6detail15task_io_service12task_cleanupD1Ev@PLT
	jmp	.L755
.L912:
	call	__stack_chk_fail@PLT
.L910:
	leaq	64(%rsp), %rdi
	call	_ZN4asio6detail14do_throw_errorERKSt10error_code@PLT
.L791:
	movq	%rax, %rbx
	jmp	.L755
.L794:
	movq	16(%rsp), %rdi
	movq	%rax, %rbx
	call	pthread_mutex_unlock@PLT
	jmp	.L724
.L905:
	movq	%rcx, 176(%rsp)
	jmp	.L679
.L904:
	movq	%r13, 168(%rsp)
	jmp	.L683
.L770:
	call	_ZSt25__throw_bad_function_callv@PLT
.LEHE19:
.L795:
	movq	%r13, %rdi
	movq	%rax, %rbx
	call	pthread_mutex_unlock@PLT
	jmp	.L724
	.cfi_endproc
.LFE6884:
	.section	.gcc_except_table,"a",@progbits
.LLSDA6884:
	.byte	0xff
	.byte	0xff
	.byte	0x1
	.uleb128 .LLSDACSE6884-.LLSDACSB6884
.LLSDACSB6884:
	.uleb128 .LEHB11-.LFB6884
	.uleb128 .LEHE11-.LEHB11
	.uleb128 0
	.uleb128 0
	.uleb128 .LEHB12-.LFB6884
	.uleb128 .LEHE12-.LEHB12
	.uleb128 .L793-.LFB6884
	.uleb128 0
	.uleb128 .LEHB13-.LFB6884
	.uleb128 .LEHE13-.LEHB13
	.uleb128 0
	.uleb128 0
	.uleb128 .LEHB14-.LFB6884
	.uleb128 .LEHE14-.LEHB14
	.uleb128 .L794-.LFB6884
	.uleb128 0
	.uleb128 .LEHB15-.LFB6884
	.uleb128 .LEHE15-.LEHB15
	.uleb128 .L791-.LFB6884
	.uleb128 0
	.uleb128 .LEHB16-.LFB6884
	.uleb128 .LEHE16-.LEHB16
	.uleb128 .L795-.LFB6884
	.uleb128 0
	.uleb128 .LEHB17-.LFB6884
	.uleb128 .LEHE17-.LEHB17
	.uleb128 .L792-.LFB6884
	.uleb128 0
	.uleb128 .LEHB18-.LFB6884
	.uleb128 .LEHE18-.LEHB18
	.uleb128 0
	.uleb128 0
	.uleb128 .LEHB19-.LFB6884
	.uleb128 .LEHE19-.LEHB19
	.uleb128 0
	.uleb128 0
.LLSDACSE6884:
	.text
	.size	_ZN7asiopal10ThreadPool3RunEi, .-_ZN7asiopal10ThreadPool3RunEi
	.align 2
	.p2align 4,,15
	.type	_ZNSt6thread11_State_implINS_8_InvokerISt5tupleIJZN7asiopal10ThreadPoolC4ERKN7openpal6LoggerERKSt10shared_ptrINS3_2IOEEjSt8functionIFvvEESG_EUlvE0_EEEEE6_M_runEv, @function
_ZNSt6thread11_State_implINS_8_InvokerISt5tupleIJZN7asiopal10ThreadPoolC4ERKN7openpal6LoggerERKSt10shared_ptrINS3_2IOEEjSt8functionIFvvEESG_EUlvE0_EEEEE6_M_runEv:
.LFB9411:
	.cfi_startproc
	movl	16(%rdi), %esi
	movq	8(%rdi), %rdi
	jmp	_ZN7asiopal10ThreadPool3RunEi@PLT
	.cfi_endproc
.LFE9411:
	.size	_ZNSt6thread11_State_implINS_8_InvokerISt5tupleIJZN7asiopal10ThreadPoolC4ERKN7openpal6LoggerERKSt10shared_ptrINS3_2IOEEjSt8functionIFvvEESG_EUlvE0_EEEEE6_M_runEv, .-_ZNSt6thread11_State_implINS_8_InvokerISt5tupleIJZN7asiopal10ThreadPoolC4ERKN7openpal6LoggerERKSt10shared_ptrINS3_2IOEEjSt8functionIFvvEESG_EUlvE0_EEEEE6_M_runEv
	.section	.text._ZN4asio6detail14do_throw_errorERKSt10error_codePKc,"axG",@progbits,_ZN4asio6detail14do_throw_errorERKSt10error_codePKc,comdat
	.p2align 4,,15
	.weak	_ZN4asio6detail14do_throw_errorERKSt10error_codePKc
	.type	_ZN4asio6detail14do_throw_errorERKSt10error_codePKc, @function
_ZN4asio6detail14do_throw_errorERKSt10error_codePKc:
.LFB2687:
	.cfi_startproc
	.cfi_personality 0x9b,DW.ref.__gxx_personality_v0
	.cfi_lsda 0x1b,.LLSDA2687
	pushq	%rbp
	.cfi_def_cfa_offset 16
	.cfi_offset 6, -16
	pushq	%rbx
	.cfi_def_cfa_offset 24
	.cfi_offset 3, -24
	movq	%rsi, %rcx
	subq	$56, %rsp
	.cfi_def_cfa_offset 80
	movl	(%rdi), %esi
	movq	8(%rdi), %rdx
	movq	%rsp, %rbx
	movq	%rbx, %rdi
	movq	%fs:40, %rax
	movq	%rax, 40(%rsp)
	xorl	%eax, %eax
.LEHB20:
	call	_ZNSt12system_errorC1ESt10error_codePKc@PLT
.LEHE20:
	movq	%rbx, %rdi
.LEHB21:
	call	_ZN4asio6detail15throw_exceptionISt12system_errorEEvRKT_@PLT
.LEHE21:
.L933:
	movq	%rax, %rbp
	movq	%rbx, %rdi
	call	_ZNSt12system_errorD1Ev@PLT
	movq	%rbp, %rdi
.LEHB22:
	call	_Unwind_Resume@PLT
.LEHE22:
	.cfi_endproc
.LFE2687:
	.section	.gcc_except_table
.LLSDA2687:
	.byte	0xff
	.byte	0xff
	.byte	0x1
	.uleb128 .LLSDACSE2687-.LLSDACSB2687
.LLSDACSB2687:
	.uleb128 .LEHB20-.LFB2687
	.uleb128 .LEHE20-.LEHB20
	.uleb128 0
	.uleb128 0
	.uleb128 .LEHB21-.LFB2687
	.uleb128 .LEHE21-.LEHB21
	.uleb128 .L933-.LFB2687
	.uleb128 0
	.uleb128 .LEHB22-.LFB2687
	.uleb128 .LEHE22-.LEHB22
	.uleb128 0
	.uleb128 0
.LLSDACSE2687:
	.section	.text._ZN4asio6detail14do_throw_errorERKSt10error_codePKc,"axG",@progbits,_ZN4asio6detail14do_throw_errorERKSt10error_codePKc,comdat
	.size	_ZN4asio6detail14do_throw_errorERKSt10error_codePKc, .-_ZN4asio6detail14do_throw_errorERKSt10error_codePKc
	.section	.rodata._ZN4asio6detail13epoll_reactor12fork_serviceENS_10io_service10fork_eventE.str1.1,"aMS",@progbits,1
.LC28:
	.string	"epoll"
.LC29:
	.string	"eventfd_select_interrupter"
.LC30:
	.string	"epoll re-registration"
	.section	.text._ZN4asio6detail13epoll_reactor12fork_serviceENS_10io_service10fork_eventE,"axG",@progbits,_ZN4asio6detail13epoll_reactor12fork_serviceENS_10io_service10fork_eventE,comdat
	.align 2
	.p2align 4,,15
	.weak	_ZN4asio6detail13epoll_reactor12fork_serviceENS_10io_service10fork_eventE
	.type	_ZN4asio6detail13epoll_reactor12fork_serviceENS_10io_service10fork_eventE, @function
_ZN4asio6detail13epoll_reactor12fork_serviceENS_10io_service10fork_eventE:
.LFB3366:
	.cfi_startproc
	.cfi_personality 0x9b,DW.ref.__gxx_personality_v0
	.cfi_lsda 0x1b,.LLSDA3366
	pushq	%r15
	.cfi_def_cfa_offset 16
	.cfi_offset 15, -16
	pushq	%r14
	.cfi_def_cfa_offset 24
	.cfi_offset 14, -24
	pushq	%r13
	.cfi_def_cfa_offset 32
	.cfi_offset 13, -32
	pushq	%r12
	.cfi_def_cfa_offset 40
	.cfi_offset 12, -40
	pushq	%rbp
	.cfi_def_cfa_offset 48
	.cfi_offset 6, -48
	pushq	%rbx
	.cfi_def_cfa_offset 56
	.cfi_offset 3, -56
	subq	$104, %rsp
	.cfi_def_cfa_offset 160
	movq	%fs:40, %rax
	movq	%rax, 88(%rsp)
	xorl	%eax, %eax
	cmpl	$2, %esi
	je	.L1052
.L935:
	movq	88(%rsp), %rax
	xorq	%fs:40, %rax
	jne	.L1053
	addq	$104, %rsp
	.cfi_remember_state
	.cfi_def_cfa_offset 56
	popq	%rbx
	.cfi_def_cfa_offset 48
	popq	%rbp
	.cfi_def_cfa_offset 40
	popq	%r12
	.cfi_def_cfa_offset 32
	popq	%r13
	.cfi_def_cfa_offset 24
	popq	%r14
	.cfi_def_cfa_offset 16
	popq	%r15
	.cfi_def_cfa_offset 8
	ret
	.p2align 4,,10
	.p2align 3
.L1052:
	.cfi_restore_state
	movq	%rdi, %rbx
	movl	96(%rdi), %edi
	cmpl	$-1, %edi
	jne	.L1054
.L937:
	movl	$-1, 96(%rbx)
	movl	$524288, %edi
	call	epoll_create1@PLT
	cmpl	$-1, %eax
	movl	%eax, %ebp
	je	.L1055
.L938:
	movl	100(%rbx), %edi
	movl	%ebp, 96(%rbx)
	cmpl	$-1, %edi
	jne	.L1056
.L944:
	movl	$-1, 100(%rbx)
	movl	$524288, %esi
	movl	$1, %edi
	call	timerfd_create@PLT
	cmpl	$-1, %eax
	movl	%eax, %ebp
	je	.L1057
.L945:
	movl	92(%rbx), %edi
	movl	%ebp, 100(%rbx)
	leaq	88(%rbx), %r14
	movl	88(%rbx), %eax
	cmpl	$-1, %edi
	je	.L946
	cmpl	%eax, %edi
	jne	.L1058
.L947:
	movl	%eax, %edi
.LEHB23:
	call	close@PLT
.L948:
	xorl	%edi, %edi
	movq	$-1, 88(%rbx)
	movl	$526336, %esi
	call	eventfd@PLT
	cmpl	$-1, %eax
	movl	%eax, 88(%rbx)
	movl	%eax, 92(%rbx)
	je	.L1059
.L949:
	movl	96(%rbx), %edi
	leaq	4(%rsp), %rbp
	movl	%eax, %edx
	movl	$1, %esi
	movl	$-2147483639, 4(%rsp)
	movq	%r14, 8(%rsp)
	movq	%rbp, %rcx
	leaq	48(%rsp), %r13
	call	epoll_ctl@PLT
	movl	92(%rbx), %edi
	movl	$8, %edx
	movq	%r13, %rsi
	movq	$1, 48(%rsp)
	call	write@PLT
.LEHE23:
	movl	100(%rbx), %edx
	cmpl	$-1, %edx
	jne	.L1060
.L957:
	movl	88(%rbx), %edx
	movl	96(%rbx), %edi
	movq	%r13, %rcx
	movl	$3, %esi
	movl	$-2147483639, 48(%rsp)
	movq	%r14, 52(%rsp)
	call	epoll_ctl@PLT
.L971:
	leaq	120(%rbx), %r14
	movq	%r14, %rdi
	call	pthread_mutex_lock@PLT
	movq	160(%rbx), %r15
	testq	%r15, %r15
	jne	.L978
	jmp	.L972
	.p2align 4,,10
	.p2align 3
.L973:
	movq	24(%r15), %r15
	testq	%r15, %r15
	je	.L972
.L978:
	movl	92(%r15), %eax
	movl	88(%r15), %edx
	movq	%rbp, %rcx
	movl	96(%rbx), %edi
	movl	$1, %esi
	movq	%r15, 8(%rsp)
	movl	%eax, 4(%rsp)
	call	epoll_ctl@PLT
	testl	%eax, %eax
	je	.L973
	movq	_ZGVZN4asio15system_categoryEvE8instance@GOTPCREL(%rip), %r12
	movzbl	(%r12), %eax
	testb	%al, %al
	je	.L974
.L1051:
	movq	_ZZN4asio15system_categoryEvE8instance@GOTPCREL(%rip), %r12
.L975:
	call	__errno_location@PLT
	movl	(%rax), %eax
	movq	%r12, 56(%rsp)
	testl	%eax, %eax
	movl	%eax, 48(%rsp)
	je	.L973
	leaq	.LC30(%rip), %rsi
	movq	%r13, %rdi
.LEHB24:
	call	_ZN4asio6detail14do_throw_errorERKSt10error_codePKc@PLT
.LEHE24:
	.p2align 4,,10
	.p2align 3
.L1058:
.LEHB25:
	call	close@PLT
	movl	88(%rbx), %eax
.L946:
	cmpl	$-1, %eax
	je	.L948
	jmp	.L947
	.p2align 4,,10
	.p2align 3
.L1060:
	movl	96(%rbx), %edi
	leaq	100(%rbx), %rax
	movq	%rbp, %rcx
	movl	$1, %esi
	movl	$9, 4(%rsp)
	movq	%rax, 8(%rsp)
	call	epoll_ctl@PLT
	movl	100(%rbx), %edi
	cmpl	$-1, %edi
	je	.L957
	movq	104(%rbx), %r14
	pxor	%xmm0, %xmm0
	testq	%r14, %r14
	movaps	%xmm0, 16(%rsp)
	je	.L958
	movl	$300000000, %r15d
	movq	_ZNK4asio6detail11timer_queueINS0_18chrono_time_traitsINSt6chrono3_V212steady_clockENS_11wait_traitsIS5_EEEEE18wait_duration_usecEl@GOTPCREL(%rip), %r12
	jmp	.L968
	.p2align 4,,10
	.p2align 3
.L1062:
	movq	24(%r14), %rax
	cmpq	%rax, 32(%r14)
	je	.L960
	call	_ZNSt6chrono3_V212steady_clock3nowEv@PLT
	movq	24(%r14), %rdx
	movq	(%rdx), %rdx
	testq	%rdx, %rdx
	js	.L961
	testq	%rax, %rax
	js	.L962
.L1050:
	subq	%rax, %rdx
	testq	%rdx, %rdx
	movq	%rdx, %rdi
	jle	.L986
.L965:
	movabsq	$2361183241434822607, %rax
	imulq	%rdi
	sarq	$63, %rdi
	sarq	$7, %rdx
	subq	%rdi, %rdx
	jne	.L964
	movl	$1, %r15d
	.p2align 4,,10
	.p2align 3
.L960:
	movq	8(%r14), %r14
	testq	%r14, %r14
	je	.L1061
.L968:
	movq	(%r14), %rax
	movq	32(%rax), %rax
	cmpq	%r12, %rax
	je	.L1062
	movq	%r15, %rsi
	movq	%r14, %rdi
	call	*%rax
	movq	8(%r14), %r14
	movq	%rax, %r15
	testq	%r14, %r14
	jne	.L968
.L1061:
	movq	%r15, %rax
	movabsq	$4835703278458516699, %rdx
	xorl	%esi, %esi
	imulq	%rdx
	movq	%r15, %rax
	movl	100(%rbx), %edi
	sarq	$63, %rax
	sarq	$18, %rdx
	subq	%rax, %rdx
	testq	%r15, %r15
	movl	$1, %eax
	movq	%rdx, 32(%rsp)
	sete	%sil
	je	.L970
	imulq	$1000000, %rdx, %rdx
	movq	%r15, %r8
	subq	%rdx, %r8
	imulq	$1000, %r8, %rax
.L970:
	leaq	16(%rsp), %rdx
	movq	%r13, %rcx
	movq	%rax, 40(%rsp)
	call	timerfd_settime@PLT
	jmp	.L971
	.p2align 4,,10
	.p2align 3
.L1056:
	call	close@PLT
	jmp	.L944
	.p2align 4,,10
	.p2align 3
.L1054:
	call	close@PLT
	jmp	.L937
	.p2align 4,,10
	.p2align 3
.L974:
	movq	%r12, %rdi
	call	__cxa_guard_acquire@PLT
	testl	%eax, %eax
	je	.L1051
	movq	%r12, %rdi
	call	__cxa_guard_release@PLT
	movq	_ZZN4asio15system_categoryEvE8instance@GOTPCREL(%rip), %r12
	movq	_ZN4asio6detail15system_categoryD1Ev@GOTPCREL(%rip), %rdi
	leaq	__dso_handle(%rip), %rdx
	movq	%r12, %rsi
	call	__cxa_atexit@PLT
	jmp	.L975
	.p2align 4,,10
	.p2align 3
.L972:
	movq	%r14, %rdi
	call	pthread_mutex_unlock@PLT
	jmp	.L935
	.p2align 4,,10
	.p2align 3
.L961:
	testq	%rax, %rax
	js	.L1050
.L986:
	xorl	%r15d, %r15d
	jmp	.L960
	.p2align 4,,10
	.p2align 3
.L984:
	movabsq	$9223372036854775, %rdx
.L964:
	cmpq	%rdx, %r15
	cmovg	%rdx, %r15
	jmp	.L960
	.p2align 4,,10
	.p2align 3
.L962:
	movabsq	$-9223372036854775808, %rcx
	cmpq	%rcx, %rax
	je	.L984
	movq	%rax, %rdi
	movabsq	$9223372036854775807, %rsi
	negq	%rdi
	subq	%rdx, %rsi
	cmpq	%rsi, %rdi
	jg	.L984
	subq	%rax, %rdx
	movq	%rdx, %rdi
	jmp	.L965
	.p2align 4,,10
	.p2align 3
.L1057:
	call	__errno_location@PLT
	cmpl	$22, (%rax)
	jne	.L945
	xorl	%esi, %esi
	movl	$1, %edi
	call	timerfd_create@PLT
	cmpl	$-1, %eax
	movl	%eax, %ebp
	je	.L945
	movl	%eax, %edi
	movl	$1, %edx
	movl	$2, %esi
	xorl	%eax, %eax
	call	fcntl@PLT
	jmp	.L945
	.p2align 4,,10
	.p2align 3
.L1059:
	call	__errno_location@PLT
	cmpl	$22, (%rax)
	movq	%rax, %rbp
	je	.L1063
.L951:
	leaq	80(%rsp), %rdi
	call	pipe@PLT
	testl	%eax, %eax
	jne	.L1064
	movl	80(%rsp), %edi
	movl	$2048, %edx
	movl	$4, %esi
	xorl	%eax, %eax
	movl	%edi, 88(%rbx)
	call	fcntl@PLT
	movl	88(%rbx), %edi
	movl	$1, %edx
	movl	$2, %esi
	xorl	%eax, %eax
	call	fcntl@PLT
	movl	84(%rsp), %edi
	movl	$2048, %edx
	movl	$4, %esi
	xorl	%eax, %eax
	movl	%edi, 92(%rbx)
	call	fcntl@PLT
	movl	92(%rbx), %edi
	movl	$1, %edx
	movl	$2, %esi
	xorl	%eax, %eax
	call	fcntl@PLT
.L952:
	movl	88(%rbx), %eax
	jmp	.L949
	.p2align 4,,10
	.p2align 3
.L1055:
	call	__errno_location@PLT
	movq	%rax, %r13
	movl	(%rax), %eax
	subl	$22, %eax
	andl	$-17, %eax
	jne	.L939
	movl	$20000, %edi
	call	epoll_create@PLT
	cmpl	$-1, %eax
	movl	%eax, %r12d
	je	.L939
	movl	%eax, %edi
	movl	$1, %edx
	movl	$2, %esi
	xorl	%eax, %eax
	movl	%r12d, %ebp
	call	fcntl@PLT
	jmp	.L938
	.p2align 4,,10
	.p2align 3
.L939:
	movq	_ZGVZN4asio15system_categoryEvE8instance@GOTPCREL(%rip), %r12
	movzbl	(%r12), %eax
	testb	%al, %al
	je	.L940
.L1048:
	movq	_ZZN4asio15system_categoryEvE8instance@GOTPCREL(%rip), %r12
.L941:
	movl	0(%r13), %eax
	movq	%r12, 56(%rsp)
	testl	%eax, %eax
	movl	%eax, 48(%rsp)
	je	.L938
	leaq	48(%rsp), %rdi
	leaq	.LC28(%rip), %rsi
	call	_ZN4asio6detail14do_throw_errorERKSt10error_codePKc@PLT
.L989:
	movq	%rax, %rbx
	movq	%r14, %rdi
	call	pthread_mutex_unlock@PLT
	movq	%rbx, %rdi
	call	_Unwind_Resume@PLT
	.p2align 4,,10
	.p2align 3
.L1064:
	movq	_ZGVZN4asio15system_categoryEvE8instance@GOTPCREL(%rip), %r12
	movzbl	(%r12), %eax
	testb	%al, %al
	je	.L953
.L1049:
	movq	_ZZN4asio15system_categoryEvE8instance@GOTPCREL(%rip), %r12
.L954:
	movl	0(%rbp), %eax
	movq	%r12, 56(%rsp)
	testl	%eax, %eax
	movl	%eax, 48(%rsp)
	je	.L952
	leaq	48(%rsp), %rdi
	leaq	.LC29(%rip), %rsi
	call	_ZN4asio6detail14do_throw_errorERKSt10error_codePKc@PLT
	.p2align 4,,10
	.p2align 3
.L958:
	movq	$300, 32(%rsp)
	xorl	%esi, %esi
	xorl	%eax, %eax
	jmp	.L970
.L940:
	movq	%r12, %rdi
	call	__cxa_guard_acquire@PLT
	testl	%eax, %eax
	je	.L1048
	movq	%r12, %rdi
	call	__cxa_guard_release@PLT
	movq	_ZZN4asio15system_categoryEvE8instance@GOTPCREL(%rip), %r12
	movq	_ZN4asio6detail15system_categoryD1Ev@GOTPCREL(%rip), %rdi
	leaq	__dso_handle(%rip), %rdx
	movq	%r12, %rsi
	call	__cxa_atexit@PLT
	jmp	.L941
.L1063:
	xorl	%esi, %esi
	xorl	%edi, %edi
	call	eventfd@PLT
	cmpl	$-1, %eax
	movl	%eax, 88(%rbx)
	movl	%eax, 92(%rbx)
	je	.L951
	movl	%eax, %edi
	movl	$2048, %edx
	movl	$4, %esi
	xorl	%eax, %eax
	call	fcntl@PLT
	movl	88(%rbx), %edi
	xorl	%eax, %eax
	movl	$1, %edx
	movl	$2, %esi
	call	fcntl@PLT
.LEHE25:
	movl	88(%rbx), %eax
	cmpl	$-1, %eax
	jne	.L949
	jmp	.L951
	.p2align 4,,10
	.p2align 3
.L953:
	movq	%r12, %rdi
	call	__cxa_guard_acquire@PLT
	testl	%eax, %eax
	je	.L1049
	movq	%r12, %rdi
	call	__cxa_guard_release@PLT
	movq	_ZZN4asio15system_categoryEvE8instance@GOTPCREL(%rip), %r12
	movq	_ZN4asio6detail15system_categoryD1Ev@GOTPCREL(%rip), %rdi
	leaq	__dso_handle(%rip), %rdx
	movq	%r12, %rsi
	call	__cxa_atexit@PLT
	jmp	.L954
.L1053:
	call	__stack_chk_fail@PLT
	.cfi_endproc
.LFE3366:
	.section	.gcc_except_table
.LLSDA3366:
	.byte	0xff
	.byte	0xff
	.byte	0x1
	.uleb128 .LLSDACSE3366-.LLSDACSB3366
.LLSDACSB3366:
	.uleb128 .LEHB23-.LFB3366
	.uleb128 .LEHE23-.LEHB23
	.uleb128 0
	.uleb128 0
	.uleb128 .LEHB24-.LFB3366
	.uleb128 .LEHE24-.LEHB24
	.uleb128 .L989-.LFB3366
	.uleb128 0
	.uleb128 .LEHB25-.LFB3366
	.uleb128 .LEHE25-.LEHB25
	.uleb128 0
	.uleb128 0
.LLSDACSE3366:
	.section	.text._ZN4asio6detail13epoll_reactor12fork_serviceENS_10io_service10fork_eventE,"axG",@progbits,_ZN4asio6detail13epoll_reactor12fork_serviceENS_10io_service10fork_eventE,comdat
	.size	_ZN4asio6detail13epoll_reactor12fork_serviceENS_10io_service10fork_eventE, .-_ZN4asio6detail13epoll_reactor12fork_serviceENS_10io_service10fork_eventE
	.text
	.align 2
	.p2align 4,,15
	.globl	_ZN7asiopal10ThreadPool8ShutdownEv
	.type	_ZN7asiopal10ThreadPool8ShutdownEv, @function
_ZN7asiopal10ThreadPool8ShutdownEv:
.LFB6883:
	.cfi_startproc
	cmpb	$0, 112(%rdi)
	je	.L1075
	rep ret
	.p2align 4,,10
	.p2align 3
.L1075:
	pushq	%rbp
	.cfi_def_cfa_offset 16
	.cfi_offset 6, -16
	pushq	%rbx
	.cfi_def_cfa_offset 24
	.cfi_offset 3, -24
	movq	%rdi, %rbx
	subq	$8, %rsp
	.cfi_def_cfa_offset 32
	cmpb	$0, 136(%rdi)
	movb	$1, 112(%rdi)
	je	.L1067
	movq	120(%rdi), %rax
	leaq	144(%rdi), %rdx
	movq	88(%rax), %rdi
	leaq	40(%rax), %rsi
	call	_ZN4asio6detail13epoll_reactor12cancel_timerINS0_18chrono_time_traitsINSt6chrono3_V212steady_clockENS_11wait_traitsIS6_EEEEEEmRNS0_11timer_queueIT_EERNSC_14per_timer_dataEm.constprop.174
	movb	$0, 136(%rbx)
.L1067:
	movq	192(%rbx), %rax
	movq	184(%rbx), %rdx
	cmpq	%rax, %rdx
	movq	%rdx, %rbx
	movq	%rax, %rbp
	je	.L1065
	.p2align 4,,10
	.p2align 3
.L1068:
	movq	(%rbx), %rdi
	addq	$8, %rbx
	call	_ZNSt6thread4joinEv@PLT
	cmpq	%rbx, %rbp
	jne	.L1068
.L1065:
	addq	$8, %rsp
	.cfi_def_cfa_offset 24
	popq	%rbx
	.cfi_def_cfa_offset 16
	popq	%rbp
	.cfi_def_cfa_offset 8
	ret
	.cfi_endproc
.LFE6883:
	.size	_ZN7asiopal10ThreadPool8ShutdownEv, .-_ZN7asiopal10ThreadPool8ShutdownEv
	.align 2
	.p2align 4,,15
	.globl	_ZN7asiopal10ThreadPoolD2Ev
	.type	_ZN7asiopal10ThreadPoolD2Ev, @function
_ZN7asiopal10ThreadPoolD2Ev:
.LFB6881:
	.cfi_startproc
	.cfi_personality 0x9b,DW.ref.__gxx_personality_v0
	.cfi_lsda 0x1b,.LLSDA6881
	pushq	%r13
	.cfi_def_cfa_offset 16
	.cfi_offset 13, -16
	pushq	%r12
	.cfi_def_cfa_offset 24
	.cfi_offset 12, -24
	pushq	%rbp
	.cfi_def_cfa_offset 32
	.cfi_offset 6, -32
	pushq	%rbx
	.cfi_def_cfa_offset 40
	.cfi_offset 3, -40
	movq	%rdi, %rbp
	subq	$40, %rsp
	.cfi_def_cfa_offset 80
	movq	%fs:40, %rax
	movq	%rax, 24(%rsp)
	xorl	%eax, %eax
	call	_ZN7asiopal10ThreadPool8ShutdownEv@PLT
	movq	184(%rbp), %r13
	movq	192(%rbp), %rbx
	cmpq	%rbx, %r13
	je	.L1081
	movq	%r13, %r12
	.p2align 4,,10
	.p2align 3
.L1080:
	movq	(%r12), %rdi
	testq	%rdi, %rdi
	je	.L1078
	cmpq	$0, (%rdi)
	jne	.L1083
	movl	$8, %esi
	call	_ZdlPvm@PLT
.L1078:
	addq	$8, %r12
	cmpq	%r12, %rbx
	jne	.L1080
	movq	184(%rbp), %rbx
	movq	%r13, 192(%rbp)
	cmpq	%rbx, %r13
	je	.L1081
	.p2align 4,,10
	.p2align 3
.L1084:
	movq	(%rbx), %rdi
	testq	%rdi, %rdi
	je	.L1082
	cmpq	$0, (%rdi)
	jne	.L1083
	movl	$8, %esi
	call	_ZdlPvm@PLT
.L1082:
	addq	$8, %rbx
	cmpq	%r13, %rbx
	jne	.L1084
	movq	184(%rbp), %rbx
.L1081:
	testq	%rbx, %rbx
	je	.L1085
	movq	%rbx, %rdi
	call	_ZdlPv@PLT
.L1085:
	call	_ZNSt3_V215system_categoryEv@PLT
	cmpb	$0, 136(%rbp)
	movq	120(%rbp), %r12
	movq	%rax, %rbx
	je	.L1086
	movq	88(%r12), %rdi
	leaq	144(%rbp), %rdx
	leaq	40(%r12), %rsi
	call	_ZN4asio6detail13epoll_reactor12cancel_timerINS0_18chrono_time_traitsINSt6chrono3_V212steady_clockENS_11wait_traitsIS6_EEEEEEmRNS0_11timer_queueIT_EERNSC_14per_timer_dataEm.constprop.174
	movb	$0, 136(%rbp)
.L1086:
	movq	144(%rbp), %rsi
	testq	%rsi, %rsi
	je	.L1087
	movq	%rsp, %r12
	jmp	.L1088
	.p2align 4,,10
	.p2align 3
.L1089:
	movq	$0, (%rsi)
	movq	8(%rsi), %rax
	xorl	%ecx, %ecx
	xorl	%edi, %edi
	movl	$0, (%rsp)
	movq	%rbx, 8(%rsp)
	movq	%r12, %rdx
	call	*%rax
	movq	144(%rbp), %rsi
	testq	%rsi, %rsi
	je	.L1087
.L1088:
	movq	(%rsi), %rax
	testq	%rax, %rax
	movq	%rax, 144(%rbp)
	jne	.L1089
	movq	$0, 152(%rbp)
	jmp	.L1089
	.p2align 4,,10
	.p2align 3
.L1087:
	movq	96(%rbp), %rax
	testq	%rax, %rax
	je	.L1091
	leaq	80(%rbp), %rdi
	movl	$3, %edx
	movq	%rdi, %rsi
	call	*%rax
.L1091:
	movq	64(%rbp), %rax
	testq	%rax, %rax
	je	.L1092
	leaq	48(%rbp), %rdi
	movl	$3, %edx
	movq	%rdi, %rsi
	call	*%rax
.L1092:
	movq	40(%rbp), %rbx
	testq	%rbx, %rbx
	je	.L1094
	cmpq	$0, _ZL28__gthrw___pthread_key_createPjPFvPvE@GOTPCREL(%rip)
	je	.L1095
	lock subl	$1, 8(%rbx)
	je	.L1140
.L1094:
	movq	24(%rbp), %rbx
	testq	%rbx, %rbx
	je	.L1100
	cmpq	$0, _ZL28__gthrw___pthread_key_createPjPFvPvE@GOTPCREL(%rip)
	je	.L1101
	lock subl	$1, 8(%rbx)
	je	.L1141
.L1100:
	movq	8(%rbp), %rbx
	testq	%rbx, %rbx
	je	.L1076
	cmpq	$0, _ZL28__gthrw___pthread_key_createPjPFvPvE@GOTPCREL(%rip)
	je	.L1107
	lock subl	$1, 8(%rbx)
	je	.L1142
.L1076:
	movq	24(%rsp), %rax
	xorq	%fs:40, %rax
	jne	.L1143
	addq	$40, %rsp
	.cfi_remember_state
	.cfi_def_cfa_offset 40
	popq	%rbx
	.cfi_def_cfa_offset 32
	popq	%rbp
	.cfi_def_cfa_offset 24
	popq	%r12
	.cfi_def_cfa_offset 16
	popq	%r13
	.cfi_def_cfa_offset 8
	ret
	.p2align 4,,10
	.p2align 3
.L1095:
	.cfi_restore_state
	movl	8(%rbx), %eax
	leal	-1(%rax), %edx
	cmpl	$1, %eax
	movl	%edx, 8(%rbx)
	jne	.L1094
	movq	(%rbx), %rax
	movq	%rbx, %rdi
	call	*16(%rax)
	movl	12(%rbx), %eax
	leal	-1(%rax), %edx
	movl	%edx, 12(%rbx)
	jmp	.L1111
	.p2align 4,,10
	.p2align 3
.L1107:
	movl	8(%rbx), %eax
	leal	-1(%rax), %edx
	cmpl	$1, %eax
	movl	%edx, 8(%rbx)
	jne	.L1076
	movq	(%rbx), %rax
	movq	%rbx, %rdi
	call	*16(%rax)
	movl	12(%rbx), %eax
	leal	-1(%rax), %edx
	movl	%edx, 12(%rbx)
	jmp	.L1113
	.p2align 4,,10
	.p2align 3
.L1101:
	movl	8(%rbx), %eax
	leal	-1(%rax), %edx
	cmpl	$1, %eax
	movl	%edx, 8(%rbx)
	jne	.L1100
	movq	(%rbx), %rax
	movq	%rbx, %rdi
	call	*16(%rax)
	movl	12(%rbx), %eax
	leal	-1(%rax), %edx
	movl	%edx, 12(%rbx)
	jmp	.L1112
	.p2align 4,,10
	.p2align 3
.L1140:
	movq	(%rbx), %rax
	movq	%rbx, %rdi
	call	*16(%rax)
	movl	$-1, %eax
	lock xaddl	%eax, 12(%rbx)
.L1111:
	cmpl	$1, %eax
	jne	.L1094
	movq	(%rbx), %rax
	movq	%rbx, %rdi
	call	*24(%rax)
	jmp	.L1094
	.p2align 4,,10
	.p2align 3
.L1142:
	movq	(%rbx), %rax
	movq	%rbx, %rdi
	call	*16(%rax)
	movl	$-1, %eax
	lock xaddl	%eax, 12(%rbx)
.L1113:
	cmpl	$1, %eax
	jne	.L1076
	movq	(%rbx), %rax
	movq	%rbx, %rdi
	call	*24(%rax)
	jmp	.L1076
	.p2align 4,,10
	.p2align 3
.L1141:
	movq	(%rbx), %rax
	movq	%rbx, %rdi
	call	*16(%rax)
	movl	$-1, %eax
	lock xaddl	%eax, 12(%rbx)
.L1112:
	cmpl	$1, %eax
	jne	.L1100
	movq	(%rbx), %rax
	movq	%rbx, %rdi
	call	*24(%rax)
	jmp	.L1100
.L1083:
	call	_ZSt9terminatev@PLT
.L1143:
	call	__stack_chk_fail@PLT
	.cfi_endproc
.LFE6881:
	.section	.gcc_except_table
.LLSDA6881:
	.byte	0xff
	.byte	0xff
	.byte	0x1
	.uleb128 .LLSDACSE6881-.LLSDACSB6881
.LLSDACSB6881:
.LLSDACSE6881:
	.text
	.size	_ZN7asiopal10ThreadPoolD2Ev, .-_ZN7asiopal10ThreadPoolD2Ev
	.globl	_ZN7asiopal10ThreadPoolD1Ev
	.set	_ZN7asiopal10ThreadPoolD1Ev,_ZN7asiopal10ThreadPoolD2Ev
	.section	.text._ZN4asio6detail11object_poolINS0_13epoll_reactor16descriptor_stateEED2Ev,"axG",@progbits,_ZN4asio6detail11object_poolINS0_13epoll_reactor16descriptor_stateEED5Ev,comdat
	.align 2
	.p2align 4,,15
	.weak	_ZN4asio6detail11object_poolINS0_13epoll_reactor16descriptor_stateEED2Ev
	.type	_ZN4asio6detail11object_poolINS0_13epoll_reactor16descriptor_stateEED2Ev, @function
_ZN4asio6detail11object_poolINS0_13epoll_reactor16descriptor_stateEED2Ev:
.LFB7215:
	.cfi_startproc
	.cfi_personality 0x9b,DW.ref.__gxx_personality_v0
	.cfi_lsda 0x1b,.LLSDA7215
	pushq	%r15
	.cfi_def_cfa_offset 16
	.cfi_offset 15, -16
	pushq	%r14
	.cfi_def_cfa_offset 24
	.cfi_offset 14, -24
	pushq	%r13
	.cfi_def_cfa_offset 32
	.cfi_offset 13, -32
	pushq	%r12
	.cfi_def_cfa_offset 40
	.cfi_offset 12, -40
	pushq	%rbp
	.cfi_def_cfa_offset 48
	.cfi_offset 6, -48
	pushq	%rbx
	.cfi_def_cfa_offset 56
	.cfi_offset 3, -56
	subq	$56, %rsp
	.cfi_def_cfa_offset 112
	movq	(%rdi), %r12
	movq	%fs:40, %rdx
	movq	%rdx, 40(%rsp)
	xorl	%edx, %edx
	movq	%rdi, 8(%rsp)
	testq	%r12, %r12
	je	.L1145
	leaq	16(%rsp), %rbp
	.p2align 4,,10
	.p2align 3
.L1151:
	movq	24(%r12), %r14
	leaq	128(%r12), %r15
	leaq	80(%r12), %r13
.L1150:
	movq	(%r15), %rsi
	testq	%rsi, %rsi
	movq	%rsi, (%rsp)
	je	.L1146
	call	_ZNSt3_V215system_categoryEv@PLT
	movq	(%rsp), %rsi
	movq	%rax, %rbx
	jmp	.L1147
	.p2align 4,,10
	.p2align 3
.L1148:
	movq	$0, (%rsi)
	movq	8(%rsi), %rax
	xorl	%ecx, %ecx
	xorl	%edi, %edi
	movl	$0, 16(%rsp)
	movq	%rbx, 24(%rsp)
	movq	%rbp, %rdx
	call	*%rax
	movq	(%r15), %rsi
	testq	%rsi, %rsi
	je	.L1146
.L1147:
	movq	(%rsi), %rax
	testq	%rax, %rax
	movq	%rax, (%r15)
	jne	.L1148
	movq	$0, 8(%r15)
	jmp	.L1148
	.p2align 4,,10
	.p2align 3
.L1146:
	subq	$16, %r15
	cmpq	%r13, %r15
	jne	.L1150
	leaq	40(%r12), %rdi
	call	pthread_mutex_destroy@PLT
	movq	%r12, %rdi
	movl	$152, %esi
	movq	%r14, %r12
	call	_ZdlPvm@PLT
	testq	%r14, %r14
	jne	.L1151
.L1145:
	movq	8(%rsp), %rax
	movq	8(%rax), %r12
	testq	%r12, %r12
	je	.L1144
	leaq	16(%rsp), %rbp
	.p2align 4,,10
	.p2align 3
.L1158:
	movq	24(%r12), %r14
	leaq	128(%r12), %r15
	leaq	80(%r12), %r13
.L1157:
	movq	(%r15), %rsi
	testq	%rsi, %rsi
	movq	%rsi, (%rsp)
	je	.L1153
	call	_ZNSt3_V215system_categoryEv@PLT
	movq	(%rsp), %rsi
	movq	%rax, %rbx
	jmp	.L1154
	.p2align 4,,10
	.p2align 3
.L1155:
	movq	$0, (%rsi)
	movq	8(%rsi), %rax
	xorl	%ecx, %ecx
	xorl	%edi, %edi
	movl	$0, 16(%rsp)
	movq	%rbx, 24(%rsp)
	movq	%rbp, %rdx
	call	*%rax
	movq	(%r15), %rsi
	testq	%rsi, %rsi
	je	.L1153
.L1154:
	movq	(%rsi), %rax
	testq	%rax, %rax
	movq	%rax, (%r15)
	jne	.L1155
	movq	$0, 8(%r15)
	jmp	.L1155
	.p2align 4,,10
	.p2align 3
.L1153:
	subq	$16, %r15
	cmpq	%r15, %r13
	jne	.L1157
	leaq	40(%r12), %rdi
	call	pthread_mutex_destroy@PLT
	movq	%r12, %rdi
	movl	$152, %esi
	movq	%r14, %r12
	call	_ZdlPvm@PLT
	testq	%r14, %r14
	jne	.L1158
.L1144:
	movq	40(%rsp), %rax
	xorq	%fs:40, %rax
	jne	.L1185
	addq	$56, %rsp
	.cfi_remember_state
	.cfi_def_cfa_offset 56
	popq	%rbx
	.cfi_def_cfa_offset 48
	popq	%rbp
	.cfi_def_cfa_offset 40
	popq	%r12
	.cfi_def_cfa_offset 32
	popq	%r13
	.cfi_def_cfa_offset 24
	popq	%r14
	.cfi_def_cfa_offset 16
	popq	%r15
	.cfi_def_cfa_offset 8
	ret
.L1185:
	.cfi_restore_state
	call	__stack_chk_fail@PLT
	.cfi_endproc
.LFE7215:
	.section	.gcc_except_table
.LLSDA7215:
	.byte	0xff
	.byte	0xff
	.byte	0x1
	.uleb128 .LLSDACSE7215-.LLSDACSB7215
.LLSDACSB7215:
.LLSDACSE7215:
	.section	.text._ZN4asio6detail11object_poolINS0_13epoll_reactor16descriptor_stateEED2Ev,"axG",@progbits,_ZN4asio6detail11object_poolINS0_13epoll_reactor16descriptor_stateEED5Ev,comdat
	.size	_ZN4asio6detail11object_poolINS0_13epoll_reactor16descriptor_stateEED2Ev, .-_ZN4asio6detail11object_poolINS0_13epoll_reactor16descriptor_stateEED2Ev
	.weak	_ZN4asio6detail11object_poolINS0_13epoll_reactor16descriptor_stateEED1Ev
	.set	_ZN4asio6detail11object_poolINS0_13epoll_reactor16descriptor_stateEED1Ev,_ZN4asio6detail11object_poolINS0_13epoll_reactor16descriptor_stateEED2Ev
	.section	.text._ZNSt16_Sp_counted_baseILN9__gnu_cxx12_Lock_policyE2EE10_M_releaseEv,"axG",@progbits,_ZNSt16_Sp_counted_baseILN9__gnu_cxx12_Lock_policyE2EE10_M_releaseEv,comdat
	.align 2
	.p2align 4,,15
	.weak	_ZNSt16_Sp_counted_baseILN9__gnu_cxx12_Lock_policyE2EE10_M_releaseEv
	.type	_ZNSt16_Sp_counted_baseILN9__gnu_cxx12_Lock_policyE2EE10_M_releaseEv, @function
_ZNSt16_Sp_counted_baseILN9__gnu_cxx12_Lock_policyE2EE10_M_releaseEv:
.LFB7784:
	.cfi_startproc
	cmpq	$0, _ZL28__gthrw___pthread_key_createPjPFvPvE@GOTPCREL(%rip)
	pushq	%rbx
	.cfi_def_cfa_offset 16
	.cfi_offset 3, -16
	movq	%rdi, %rbx
	je	.L1187
	lock subl	$1, 8(%rdi)
	je	.L1194
.L1186:
	popq	%rbx
	.cfi_remember_state
	.cfi_def_cfa_offset 8
	ret
	.p2align 4,,10
	.p2align 3
.L1187:
	.cfi_restore_state
	movl	8(%rdi), %eax
	leal	-1(%rax), %edx
	cmpl	$1, %eax
	movl	%edx, 8(%rdi)
	jne	.L1186
	movq	(%rdi), %rax
	call	*16(%rax)
	movl	12(%rbx), %eax
	leal	-1(%rax), %edx
	movl	%edx, 12(%rbx)
	jmp	.L1192
	.p2align 4,,10
	.p2align 3
.L1194:
	movq	(%rdi), %rax
	call	*16(%rax)
	movl	$-1, %eax
	lock xaddl	%eax, 12(%rbx)
.L1192:
	cmpl	$1, %eax
	jne	.L1186
	movq	(%rbx), %rax
	movq	%rbx, %rdi
	popq	%rbx
	.cfi_def_cfa_offset 8
	movq	24(%rax), %rax
	jmp	*%rax
	.cfi_endproc
.LFE7784:
	.size	_ZNSt16_Sp_counted_baseILN9__gnu_cxx12_Lock_policyE2EE10_M_releaseEv, .-_ZNSt16_Sp_counted_baseILN9__gnu_cxx12_Lock_policyE2EE10_M_releaseEv
	.section	.rodata._ZN4asio6detail16service_registry6createINS0_13epoll_reactorEEEPNS_10io_service7serviceERS4_.str1.1,"aMS",@progbits,1
.LC31:
	.string	"mutex"
	.section	.text._ZN4asio6detail16service_registry6createINS0_13epoll_reactorEEEPNS_10io_service7serviceERS4_,"axG",@progbits,_ZN4asio6detail16service_registry6createINS0_13epoll_reactorEEEPNS_10io_service7serviceERS4_,comdat
	.align 2
	.p2align 4,,15
	.weak	_ZN4asio6detail16service_registry6createINS0_13epoll_reactorEEEPNS_10io_service7serviceERS4_
	.type	_ZN4asio6detail16service_registry6createINS0_13epoll_reactorEEEPNS_10io_service7serviceERS4_, @function
_ZN4asio6detail16service_registry6createINS0_13epoll_reactorEEEPNS_10io_service7serviceERS4_:
.LFB8191:
	.cfi_startproc
	.cfi_personality 0x9b,DW.ref.__gxx_personality_v0
	.cfi_lsda 0x1b,.LLSDA8191
	pushq	%r15
	.cfi_def_cfa_offset 16
	.cfi_offset 15, -16
	pushq	%r14
	.cfi_def_cfa_offset 24
	.cfi_offset 14, -24
	pushq	%r13
	.cfi_def_cfa_offset 32
	.cfi_offset 13, -32
	pushq	%r12
	.cfi_def_cfa_offset 40
	.cfi_offset 12, -40
	pushq	%rbp
	.cfi_def_cfa_offset 48
	.cfi_offset 6, -48
	pushq	%rbx
	.cfi_def_cfa_offset 56
	.cfi_offset 3, -56
	movq	%rdi, %rbp
	movl	$176, %edi
	subq	$120, %rsp
	.cfi_def_cfa_offset 176
	movq	%fs:40, %rax
	movq	%rax, 104(%rsp)
	xorl	%eax, %eax
.LEHB26:
	call	_Znwm@PLT
.LEHE26:
	movq	%rbp, 24(%rax)
	movq	%rax, %rbx
	movq	$0, 8(%rax)
	movq	$0, 16(%rax)
	movq	$0, 32(%rax)
	leaq	48(%rbx), %r13
	movq	_ZTVN4asio6detail13epoll_reactorE@GOTPCREL(%rip), %rax
	xorl	%esi, %esi
	movq	%r13, %rdi
	addq	$16, %rax
	movq	%rax, (%rbx)
	movq	8(%rbp), %rax
	movq	%rax, 40(%rbx)
	call	pthread_mutex_init@PLT
	movq	_ZGVZN4asio15system_categoryEvE8instance@GOTPCREL(%rip), %rbp
	movl	%eax, %r14d
	movzbl	0(%rbp), %eax
	testb	%al, %al
	je	.L1196
.L1278:
	movq	_ZZN4asio15system_categoryEvE8instance@GOTPCREL(%rip), %r12
.L1197:
	testl	%r14d, %r14d
	movl	%r14d, 32(%rsp)
	movq	%r12, 40(%rsp)
	jne	.L1279
	xorl	%edi, %edi
	movl	$526336, %esi
	leaq	88(%rbx), %r14
	call	eventfd@PLT
	cmpl	$-1, %eax
	movl	%eax, 88(%rbx)
	movl	%eax, 92(%rbx)
	je	.L1280
.L1201:
	movl	$524288, %edi
	call	epoll_create1@PLT
	cmpl	$-1, %eax
	movl	%eax, %r15d
	je	.L1281
.L1210:
	movl	$524288, %esi
	movl	$1, %edi
	movl	%r15d, 96(%rbx)
	call	timerfd_create@PLT
	cmpl	$-1, %eax
	movl	%eax, %r15d
	je	.L1282
.L1216:
	movl	%r15d, 100(%rbx)
	leaq	120(%rbx), %r15
	xorl	%esi, %esi
	movq	$0, 104(%rbx)
	movb	$0, 112(%rbx)
	movq	%r15, %rdi
	call	pthread_mutex_init@PLT
	movl	%eax, %ecx
	movzbl	0(%rbp), %eax
	testb	%al, %al
	je	.L1283
.L1220:
	testl	%ecx, %ecx
	movl	%ecx, 80(%rsp)
	movq	%r12, 88(%rsp)
	jne	.L1284
	movl	88(%rbx), %edx
	movl	96(%rbx), %edi
	leaq	80(%rsp), %rbp
	movl	$1, %esi
	movq	$0, 160(%rbx)
	movq	$0, 168(%rbx)
	movq	%rbp, %rcx
	movl	$-2147483639, 80(%rsp)
	movq	%r14, 84(%rsp)
	call	epoll_ctl@PLT
	movl	92(%rbx), %edi
	leaq	24(%rsp), %rsi
	movl	$8, %edx
	movq	$1, 24(%rsp)
.LEHB27:
	call	write@PLT
.LEHE27:
	movl	100(%rbx), %edx
	cmpl	$-1, %edx
	je	.L1195
	movl	96(%rbx), %edi
	leaq	100(%rbx), %rax
	movq	%rbp, %rcx
	movl	$1, %esi
	movl	$9, 80(%rsp)
	movq	%rax, 84(%rsp)
	call	epoll_ctl@PLT
.L1195:
	movq	104(%rsp), %rcx
	xorq	%fs:40, %rcx
	movq	%rbx, %rax
	jne	.L1285
	addq	$120, %rsp
	.cfi_remember_state
	.cfi_def_cfa_offset 56
	popq	%rbx
	.cfi_def_cfa_offset 48
	popq	%rbp
	.cfi_def_cfa_offset 40
	popq	%r12
	.cfi_def_cfa_offset 32
	popq	%r13
	.cfi_def_cfa_offset 24
	popq	%r14
	.cfi_def_cfa_offset 16
	popq	%r15
	.cfi_def_cfa_offset 8
	ret
	.p2align 4,,10
	.p2align 3
.L1282:
	.cfi_restore_state
	call	__errno_location@PLT
	cmpl	$22, (%rax)
	jne	.L1216
	xorl	%esi, %esi
	movl	$1, %edi
	call	timerfd_create@PLT
	cmpl	$-1, %eax
	je	.L1216
	movl	%eax, %r15d
	movl	%eax, %edi
	movl	$1, %edx
	movl	$2, %esi
	xorl	%eax, %eax
.LEHB28:
	call	fcntl@PLT
.LEHE28:
	jmp	.L1216
	.p2align 4,,10
	.p2align 3
.L1196:
	movq	%rbp, %rdi
	call	__cxa_guard_acquire@PLT
	testl	%eax, %eax
	je	.L1278
	movq	%rbp, %rdi
	call	__cxa_guard_release@PLT
	movq	_ZZN4asio15system_categoryEvE8instance@GOTPCREL(%rip), %r12
	movq	_ZN4asio6detail15system_categoryD1Ev@GOTPCREL(%rip), %rdi
	leaq	__dso_handle(%rip), %rdx
	movq	%r12, %rsi
	call	__cxa_atexit@PLT
	jmp	.L1197
	.p2align 4,,10
	.p2align 3
.L1283:
	movq	%rbp, %rdi
	movl	%ecx, (%rsp)
	call	__cxa_guard_acquire@PLT
	testl	%eax, %eax
	movl	(%rsp), %ecx
	je	.L1220
	movq	%rbp, %rdi
	call	__cxa_guard_release@PLT
	movq	_ZN4asio6detail15system_categoryD1Ev@GOTPCREL(%rip), %rdi
	leaq	__dso_handle(%rip), %rdx
	movq	%r12, %rsi
	call	__cxa_atexit@PLT
	movl	(%rsp), %ecx
	jmp	.L1220
	.p2align 4,,10
	.p2align 3
.L1280:
	call	__errno_location@PLT
	cmpl	$22, (%rax)
	movq	%rax, %r15
	je	.L1286
.L1203:
	leaq	96(%rsp), %rdi
	call	pipe@PLT
	testl	%eax, %eax
	jne	.L1287
	movl	96(%rsp), %edi
	movl	$2048, %edx
	movl	$4, %esi
	xorl	%eax, %eax
	movl	%edi, 88(%rbx)
.LEHB29:
	call	fcntl@PLT
	movl	88(%rbx), %edi
	movl	$1, %edx
	movl	$2, %esi
	xorl	%eax, %eax
	call	fcntl@PLT
	movl	100(%rsp), %edi
	movl	$2048, %edx
	movl	$4, %esi
	xorl	%eax, %eax
	movl	%edi, 92(%rbx)
	call	fcntl@PLT
	movl	92(%rbx), %edi
	movl	$1, %edx
	movl	$2, %esi
	xorl	%eax, %eax
	call	fcntl@PLT
.LEHE29:
	jmp	.L1201
	.p2align 4,,10
	.p2align 3
.L1281:
	call	__errno_location@PLT
	movq	%rax, %r8
	movl	(%rax), %eax
	subl	$22, %eax
	andl	$-17, %eax
	jne	.L1211
	movl	$20000, %edi
	movq	%r8, (%rsp)
	call	epoll_create@PLT
	cmpl	$-1, %eax
	movl	%eax, 12(%rsp)
	movl	%eax, %edi
	movq	(%rsp), %r8
	jne	.L1288
.L1211:
	movzbl	0(%rbp), %eax
	testb	%al, %al
	je	.L1289
.L1213:
	movl	(%r8), %eax
	movq	%r12, 72(%rsp)
	testl	%eax, %eax
	movl	%eax, 64(%rsp)
	je	.L1210
	leaq	64(%rsp), %rdi
	leaq	.LC28(%rip), %rsi
.LEHB30:
	call	_ZN4asio6detail14do_throw_errorERKSt10error_codePKc@PLT
	.p2align 4,,10
	.p2align 3
.L1288:
	movl	$1, %edx
	movl	$2, %esi
	xorl	%eax, %eax
	call	fcntl@PLT
.LEHE30:
	movl	12(%rsp), %r15d
	jmp	.L1210
	.p2align 4,,10
	.p2align 3
.L1287:
	movzbl	0(%rbp), %eax
	testb	%al, %al
	je	.L1290
.L1207:
	movl	(%r15), %eax
	movq	%r12, 56(%rsp)
	testl	%eax, %eax
	movl	%eax, 48(%rsp)
	je	.L1201
	leaq	48(%rsp), %rdi
	leaq	.LC29(%rip), %rsi
.LEHB31:
	call	_ZN4asio6detail14do_throw_errorERKSt10error_codePKc@PLT
	.p2align 4,,10
	.p2align 3
.L1289:
	movq	%rbp, %rdi
	movq	%r8, (%rsp)
	call	__cxa_guard_acquire@PLT
	testl	%eax, %eax
	movq	(%rsp), %r8
	je	.L1213
	movq	%rbp, %rdi
	call	__cxa_guard_release@PLT
	movq	_ZN4asio6detail15system_categoryD1Ev@GOTPCREL(%rip), %rdi
	leaq	__dso_handle(%rip), %rdx
	movq	%r12, %rsi
	call	__cxa_atexit@PLT
	movq	(%rsp), %r8
	jmp	.L1213
	.p2align 4,,10
	.p2align 3
.L1286:
	xorl	%esi, %esi
	xorl	%edi, %edi
	call	eventfd@PLT
	cmpl	$-1, %eax
	movl	%eax, 88(%rbx)
	movl	%eax, 92(%rbx)
	je	.L1203
	movl	%eax, %edi
	movl	$2048, %edx
	movl	$4, %esi
	xorl	%eax, %eax
	call	fcntl@PLT
	movl	88(%rbx), %edi
	movl	$1, %edx
	movl	$2, %esi
	xorl	%eax, %eax
	call	fcntl@PLT
.LEHE31:
	cmpl	$-1, 88(%rbx)
	jne	.L1201
	jmp	.L1203
.L1237:
	movq	%rax, %rbp
.L1225:
	movl	92(%rbx), %edi
	movl	88(%rbx), %eax
	cmpl	$-1, %edi
	je	.L1226
	cmpl	%edi, %eax
	je	.L1227
	call	close@PLT
	movl	88(%rbx), %eax
.L1226:
	cmpl	$-1, %eax
	movl	%eax, %edi
	je	.L1229
.L1227:
	call	close@PLT
.L1229:
	movq	%r13, %rdi
	call	pthread_mutex_destroy@PLT
.L1230:
	movq	%rbx, %rdi
	movl	$176, %esi
	call	_ZdlPvm@PLT
	movq	%rbp, %rdi
.LEHB32:
	call	_Unwind_Resume@PLT
.LEHE32:
	.p2align 4,,10
	.p2align 3
.L1290:
	movq	%rbp, %rdi
	call	__cxa_guard_acquire@PLT
	testl	%eax, %eax
	je	.L1207
	movq	%rbp, %rdi
	call	__cxa_guard_release@PLT
	movq	_ZN4asio6detail15system_categoryD1Ev@GOTPCREL(%rip), %rdi
	leaq	__dso_handle(%rip), %rdx
	movq	%r12, %rsi
	call	__cxa_atexit@PLT
	jmp	.L1207
.L1279:
	leaq	32(%rsp), %rdi
	leaq	.LC31(%rip), %rsi
.LEHB33:
	call	_ZN4asio6detail14do_throw_errorERKSt10error_codePKc@PLT
.LEHE33:
.L1235:
	movq	%rax, %rbp
	jmp	.L1230
.L1284:
	leaq	80(%rsp), %rdi
	leaq	.LC31(%rip), %rsi
.LEHB34:
	call	_ZN4asio6detail14do_throw_errorERKSt10error_codePKc@PLT
.LEHE34:
.L1285:
	call	__stack_chk_fail@PLT
.L1238:
	leaq	160(%rbx), %rdi
	movq	%rax, %rbp
	call	_ZN4asio6detail11object_poolINS0_13epoll_reactor16descriptor_stateEED1Ev@PLT
	movq	%r15, %rdi
	call	pthread_mutex_destroy@PLT
	jmp	.L1225
.L1236:
	movq	%rax, %rbp
	jmp	.L1229
	.cfi_endproc
.LFE8191:
	.section	.gcc_except_table
.LLSDA8191:
	.byte	0xff
	.byte	0xff
	.byte	0x1
	.uleb128 .LLSDACSE8191-.LLSDACSB8191
.LLSDACSB8191:
	.uleb128 .LEHB26-.LFB8191
	.uleb128 .LEHE26-.LEHB26
	.uleb128 0
	.uleb128 0
	.uleb128 .LEHB27-.LFB8191
	.uleb128 .LEHE27-.LEHB27
	.uleb128 .L1238-.LFB8191
	.uleb128 0
	.uleb128 .LEHB28-.LFB8191
	.uleb128 .LEHE28-.LEHB28
	.uleb128 .L1237-.LFB8191
	.uleb128 0
	.uleb128 .LEHB29-.LFB8191
	.uleb128 .LEHE29-.LEHB29
	.uleb128 .L1236-.LFB8191
	.uleb128 0
	.uleb128 .LEHB30-.LFB8191
	.uleb128 .LEHE30-.LEHB30
	.uleb128 .L1237-.LFB8191
	.uleb128 0
	.uleb128 .LEHB31-.LFB8191
	.uleb128 .LEHE31-.LEHB31
	.uleb128 .L1236-.LFB8191
	.uleb128 0
	.uleb128 .LEHB32-.LFB8191
	.uleb128 .LEHE32-.LEHB32
	.uleb128 0
	.uleb128 0
	.uleb128 .LEHB33-.LFB8191
	.uleb128 .LEHE33-.LEHB33
	.uleb128 .L1235-.LFB8191
	.uleb128 0
	.uleb128 .LEHB34-.LFB8191
	.uleb128 .LEHE34-.LEHB34
	.uleb128 .L1237-.LFB8191
	.uleb128 0
.LLSDACSE8191:
	.section	.text._ZN4asio6detail16service_registry6createINS0_13epoll_reactorEEEPNS_10io_service7serviceERS4_,"axG",@progbits,_ZN4asio6detail16service_registry6createINS0_13epoll_reactorEEEPNS_10io_service7serviceERS4_,comdat
	.size	_ZN4asio6detail16service_registry6createINS0_13epoll_reactorEEEPNS_10io_service7serviceERS4_, .-_ZN4asio6detail16service_registry6createINS0_13epoll_reactorEEEPNS_10io_service7serviceERS4_
	.section	.text._ZNSt6vectorISt10unique_ptrISt6threadSt14default_deleteIS1_EESaIS4_EE17_M_realloc_insertIJS4_EEEvN9__gnu_cxx17__normal_iteratorIPS4_S6_EEDpOT_,"axG",@progbits,_ZNSt6vectorISt10unique_ptrISt6threadSt14default_deleteIS1_EESaIS4_EE17_M_realloc_insertIJS4_EEEvN9__gnu_cxx17__normal_iteratorIPS4_S6_EEDpOT_,comdat
	.align 2
	.p2align 4,,15
	.weak	_ZNSt6vectorISt10unique_ptrISt6threadSt14default_deleteIS1_EESaIS4_EE17_M_realloc_insertIJS4_EEEvN9__gnu_cxx17__normal_iteratorIPS4_S6_EEDpOT_
	.type	_ZNSt6vectorISt10unique_ptrISt6threadSt14default_deleteIS1_EESaIS4_EE17_M_realloc_insertIJS4_EEEvN9__gnu_cxx17__normal_iteratorIPS4_S6_EEDpOT_, @function
_ZNSt6vectorISt10unique_ptrISt6threadSt14default_deleteIS1_EESaIS4_EE17_M_realloc_insertIJS4_EEEvN9__gnu_cxx17__normal_iteratorIPS4_S6_EEDpOT_:
.LFB8436:
	.cfi_startproc
	pushq	%r15
	.cfi_def_cfa_offset 16
	.cfi_offset 15, -16
	pushq	%r14
	.cfi_def_cfa_offset 24
	.cfi_offset 14, -24
	movq	%rsi, %rcx
	pushq	%r13
	.cfi_def_cfa_offset 32
	.cfi_offset 13, -32
	pushq	%r12
	.cfi_def_cfa_offset 40
	.cfi_offset 12, -40
	movq	%rdi, %r14
	pushq	%rbp
	.cfi_def_cfa_offset 48
	.cfi_offset 6, -48
	pushq	%rbx
	.cfi_def_cfa_offset 56
	.cfi_offset 3, -56
	subq	$40, %rsp
	.cfi_def_cfa_offset 96
	movq	8(%rdi), %r12
	movq	(%rdi), %rbx
	movq	%r12, %rax
	subq	%rbx, %rcx
	subq	%rbx, %rax
	movq	%rcx, 8(%rsp)
	sarq	$3, %rax
	testq	%rax, %rax
	je	.L1312
	leaq	(%rax,%rax), %rbp
	cmpq	%rbp, %rax
	jbe	.L1332
.L1314:
	movq	$-8, %rbp
.L1293:
	movq	%rbp, %rdi
	movq	%rdx, 24(%rsp)
	movq	%rsi, 16(%rsp)
	call	_Znwm@PLT
	movq	(%r14), %rbx
	movq	%rax, %r15
	leaq	8(%rax), %r13
	movq	8(%r14), %r12
	movq	16(%rsp), %rsi
	movq	24(%rsp), %rdx
	movq	8(%rsp), %rax
.L1294:
	addq	%r15, %rax
	je	.L1295
	movq	(%rdx), %rcx
	movq	$0, (%rdx)
	movq	%rcx, (%rax)
.L1295:
	cmpq	%rbx, %rsi
	je	.L1296
	movq	%r15, %rcx
	movq	%rbx, %rdx
	.p2align 4,,10
	.p2align 3
.L1298:
	testq	%rcx, %rcx
	je	.L1333
.L1300:
	movq	(%rdx), %rdi
	movq	$0, (%rdx)
	addq	$8, %rdx
	addq	$8, %rcx
	movq	%rdi, -8(%rcx)
	cmpq	%rsi, %rdx
	jne	.L1298
.L1299:
	movq	%rsi, %rdx
	subq	%rbx, %rdx
	cmpq	%r12, %rsi
	leaq	8(%r15,%rdx), %r13
	je	.L1309
.L1311:
	movq	%rsi, %rdx
	movq	%r13, %rcx
	.p2align 4,,10
	.p2align 3
.L1303:
	testq	%rcx, %rcx
	je	.L1334
.L1305:
	movq	(%rdx), %rdi
	movq	$0, (%rdx)
	addq	$8, %rdx
	addq	$8, %rcx
	movq	%rdi, -8(%rcx)
	cmpq	%r12, %rdx
	jne	.L1303
.L1304:
	addq	$8, %rsi
	movq	%r12, %rdx
	subq	%rsi, %rdx
	shrq	$3, %rdx
	cmpq	%rbx, %r12
	leaq	8(%r13,%rdx,8), %r13
	je	.L1306
	.p2align 4,,10
	.p2align 3
.L1309:
	movq	(%rbx), %rdi
	testq	%rdi, %rdi
	je	.L1307
	cmpq	$0, (%rdi)
	jne	.L1335
	movl	$8, %esi
	call	_ZdlPvm@PLT
.L1307:
	addq	$8, %rbx
	cmpq	%r12, %rbx
	jne	.L1309
	movq	(%r14), %rbx
.L1306:
	testq	%rbx, %rbx
	je	.L1310
	movq	%rbx, %rdi
	call	_ZdlPv@PLT
.L1310:
	leaq	(%r15,%rbp), %rax
	movq	%r15, (%r14)
	movq	%r13, 8(%r14)
	movq	%rax, 16(%r14)
	addq	$40, %rsp
	.cfi_remember_state
	.cfi_def_cfa_offset 56
	popq	%rbx
	.cfi_def_cfa_offset 48
	popq	%rbp
	.cfi_def_cfa_offset 40
	popq	%r12
	.cfi_def_cfa_offset 32
	popq	%r13
	.cfi_def_cfa_offset 24
	popq	%r14
	.cfi_def_cfa_offset 16
	popq	%r15
	.cfi_def_cfa_offset 8
	ret
	.p2align 4,,10
	.p2align 3
.L1312:
	.cfi_restore_state
	movl	$1, %ebp
.L1292:
	salq	$3, %rbp
	jmp	.L1293
	.p2align 4,,10
	.p2align 3
.L1332:
	movabsq	$2305843009213693951, %rax
	cmpq	%rax, %rbp
	ja	.L1314
	testq	%rbp, %rbp
	jne	.L1292
	movl	$8, %r13d
	xorl	%r15d, %r15d
	movq	%rcx, %rax
	jmp	.L1294
	.p2align 4,,10
	.p2align 3
.L1296:
	cmpq	%rsi, %r12
	jne	.L1311
	jmp	.L1306
.L1334:
	addq	$8, %rdx
	cmpq	%r12, %rdx
	je	.L1304
	movl	$8, %ecx
	jmp	.L1305
.L1333:
	addq	$8, %rdx
	cmpq	%rdx, %rsi
	je	.L1299
	movl	$8, %ecx
	jmp	.L1300
.L1335:
	call	_ZSt9terminatev@PLT
	.cfi_endproc
.LFE8436:
	.size	_ZNSt6vectorISt10unique_ptrISt6threadSt14default_deleteIS1_EESaIS4_EE17_M_realloc_insertIJS4_EEEvN9__gnu_cxx17__normal_iteratorIPS4_S6_EEDpOT_, .-_ZNSt6vectorISt10unique_ptrISt6threadSt14default_deleteIS1_EESaIS4_EE17_M_realloc_insertIJS4_EEEvN9__gnu_cxx17__normal_iteratorIPS4_S6_EEDpOT_
	.section	.text._ZN4asio6detail16service_registry6createINS_22waitable_timer_serviceINSt6chrono3_V212steady_clockENS_11wait_traitsIS6_EEEEEEPNS_10io_service7serviceERSA_,"axG",@progbits,_ZN4asio6detail16service_registry6createINS_22waitable_timer_serviceINSt6chrono3_V212steady_clockENS_11wait_traitsIS6_EEEEEEPNS_10io_service7serviceERSA_,comdat
	.align 2
	.p2align 4,,15
	.weak	_ZN4asio6detail16service_registry6createINS_22waitable_timer_serviceINSt6chrono3_V212steady_clockENS_11wait_traitsIS6_EEEEEEPNS_10io_service7serviceERSA_
	.type	_ZN4asio6detail16service_registry6createINS_22waitable_timer_serviceINSt6chrono3_V212steady_clockENS_11wait_traitsIS6_EEEEEEPNS_10io_service7serviceERSA_, @function
_ZN4asio6detail16service_registry6createINS_22waitable_timer_serviceINSt6chrono3_V212steady_clockENS_11wait_traitsIS6_EEEEEEPNS_10io_service7serviceERSA_:
.LFB8757:
	.cfi_startproc
	.cfi_personality 0x9b,DW.ref.__gxx_personality_v0
	.cfi_lsda 0x1b,.LLSDA8757
	pushq	%r15
	.cfi_def_cfa_offset 16
	.cfi_offset 15, -16
	pushq	%r14
	.cfi_def_cfa_offset 24
	.cfi_offset 14, -24
	pushq	%r13
	.cfi_def_cfa_offset 32
	.cfi_offset 13, -32
	pushq	%r12
	.cfi_def_cfa_offset 40
	.cfi_offset 12, -40
	pushq	%rbp
	.cfi_def_cfa_offset 48
	.cfi_offset 6, -48
	pushq	%rbx
	.cfi_def_cfa_offset 56
	.cfi_offset 3, -56
	movq	%rdi, %rbp
	movl	$96, %edi
	subq	$72, %rsp
	.cfi_def_cfa_offset 128
	movq	%fs:40, %rax
	movq	%rax, 56(%rsp)
	xorl	%eax, %eax
.LEHB35:
	call	_Znwm@PLT
.LEHE35:
	movq	%rbp, 24(%rax)
	movq	%rax, %rbx
	movq	$0, 8(%rax)
	movq	$0, 16(%rax)
	movq	$0, 32(%rax)
	leaq	40(%rbx), %r13
	movq	_ZTVN4asio22waitable_timer_serviceINSt6chrono3_V212steady_clockENS_11wait_traitsIS3_EEEE@GOTPCREL(%rip), %rax
	movq	0(%rbp), %r12
	movq	$0, 48(%rbx)
	movq	$0, 56(%rbx)
	movq	$0, 64(%rbx)
	movq	$0, 72(%rbx)
	addq	$16, %rax
	leaq	8(%r12), %r14
	movq	$0, 80(%rbx)
	movq	%rax, (%rbx)
	movq	_ZTVN4asio6detail11timer_queueINS0_18chrono_time_traitsINSt6chrono3_V212steady_clockENS_11wait_traitsIS5_EEEEEE@GOTPCREL(%rip), %rax
	movq	%r14, %rdi
	addq	$16, %rax
	movq	%rax, 40(%rbx)
	call	pthread_mutex_lock@PLT
	movq	56(%r12), %rbp
	testq	%rbp, %rbp
	jne	.L1340
	jmp	.L1337
	.p2align 4,,10
	.p2align 3
.L1414:
	cmpb	$42, (%rdi)
	je	.L1338
	call	strcmp@PLT
	testl	%eax, %eax
	je	.L1339
.L1338:
	movq	32(%rbp), %rbp
	testq	%rbp, %rbp
	je	.L1337
.L1340:
	movq	8(%rbp), %rax
	testq	%rax, %rax
	je	.L1338
	movq	8(%rax), %rdi
	movq	_ZTSN4asio6detail14typeid_wrapperINS0_13epoll_reactorEEE@GOTPCREL(%rip), %rsi
	cmpq	%rsi, %rdi
	jne	.L1414
.L1339:
	movq	%r14, %rdi
	call	pthread_mutex_unlock@PLT
	movq	%rbp, 88(%rbx)
	movq	40(%rbp), %rbp
	leaq	48(%rbp), %r12
	movq	%r12, %rdi
	call	pthread_mutex_lock@PLT
	cmpb	$0, 209(%rbp)
	jne	.L1358
	cmpq	$0, 144(%rbp)
	je	.L1415
.L1358:
	movq	%r12, %rdi
	call	pthread_mutex_unlock@PLT
.L1362:
	movq	88(%rbx), %rbp
	leaq	48(%rbp), %r12
	movq	%r12, %rdi
	call	pthread_mutex_lock@PLT
	movq	104(%rbp), %rax
	movq	%r12, %rdi
	movq	%rax, 48(%rbx)
	movq	%r13, 104(%rbp)
	call	pthread_mutex_unlock@PLT
	movq	56(%rsp), %rcx
	xorq	%fs:40, %rcx
	movq	%rbx, %rax
	jne	.L1416
	addq	$72, %rsp
	.cfi_remember_state
	.cfi_def_cfa_offset 56
	popq	%rbx
	.cfi_def_cfa_offset 48
	popq	%rbp
	.cfi_def_cfa_offset 40
	popq	%r12
	.cfi_def_cfa_offset 32
	popq	%r13
	.cfi_def_cfa_offset 24
	popq	%r14
	.cfi_def_cfa_offset 16
	popq	%r15
	.cfi_def_cfa_offset 8
	ret
	.p2align 4,,10
	.p2align 3
.L1337:
	.cfi_restore_state
	movq	%r14, %rdi
	call	pthread_mutex_unlock@PLT
	movq	48(%r12), %rdi
.LEHB36:
	call	_ZN4asio6detail16service_registry6createINS0_13epoll_reactorEEEPNS_10io_service7serviceERS4_@PLT
.LEHE36:
	movq	%rax, %r15
	movq	_ZTIN4asio6detail14typeid_wrapperINS0_13epoll_reactorEEE@GOTPCREL(%rip), %rax
	movq	%r14, %rdi
	movq	$0, 16(%r15)
	movq	%rax, 8(%r15)
	call	pthread_mutex_lock@PLT
	movq	56(%r12), %rdx
	testq	%rdx, %rdx
	je	.L1341
	movq	%rdx, %rbp
	jmp	.L1344
	.p2align 4,,10
	.p2align 3
.L1417:
	cmpb	$42, (%rdi)
	je	.L1342
	movq	%rdx, 8(%rsp)
	call	strcmp@PLT
	testl	%eax, %eax
	movq	8(%rsp), %rdx
	je	.L1343
.L1342:
	movq	32(%rbp), %rbp
	testq	%rbp, %rbp
	je	.L1341
.L1344:
	movq	8(%rbp), %rax
	testq	%rax, %rax
	je	.L1342
	movq	8(%rax), %rdi
	movq	_ZTSN4asio6detail14typeid_wrapperINS0_13epoll_reactorEEE@GOTPCREL(%rip), %rsi
	cmpq	%rsi, %rdi
	jne	.L1417
.L1343:
	movq	(%r15), %rax
	movq	%r15, %rdi
	call	*8(%rax)
	jmp	.L1339
	.p2align 4,,10
	.p2align 3
.L1341:
	movq	%rdx, 32(%r15)
	movq	%r15, %rbp
	movq	%r15, 56(%r12)
	jmp	.L1339
	.p2align 4,,10
	.p2align 3
.L1415:
	movq	24(%rbp), %rax
	movq	(%rax), %r14
	leaq	8(%r14), %rax
	movq	%rax, %rdi
	movq	%rax, 8(%rsp)
	call	pthread_mutex_lock@PLT
	movq	56(%r14), %r15
	testq	%r15, %r15
	jne	.L1349
	jmp	.L1346
	.p2align 4,,10
	.p2align 3
.L1418:
	cmpb	$42, (%rdi)
	je	.L1347
	call	strcmp@PLT
	testl	%eax, %eax
	je	.L1348
.L1347:
	movq	32(%r15), %r15
	testq	%r15, %r15
	je	.L1346
.L1349:
	movq	8(%r15), %rax
	testq	%rax, %rax
	je	.L1347
	movq	8(%rax), %rdi
	movq	_ZTSN4asio6detail14typeid_wrapperINS0_13epoll_reactorEEE@GOTPCREL(%rip), %rsi
	cmpq	%rsi, %rdi
	jne	.L1418
.L1348:
	movq	8(%rsp), %rdi
	call	pthread_mutex_unlock@PLT
	movq	200(%rbp), %rdx
	movq	%r15, 144(%rbp)
	leaq	152(%rbp), %rax
	movq	$0, 152(%rbp)
	testq	%rdx, %rdx
	je	.L1354
	movq	%rax, (%rdx)
	movq	%rax, 200(%rbp)
.L1355:
	movq	136(%rbp), %rax
	orq	$1, %rax
	cmpq	$1, %rax
	movq	%rax, 136(%rbp)
	jne	.L1419
	cmpb	$0, 176(%rbp)
	jne	.L1358
	movq	144(%rbp), %rax
	testq	%rax, %rax
	je	.L1358
	leaq	88(%rax), %rdx
	movb	$1, 176(%rbp)
	movl	96(%rax), %edi
	leaq	44(%rsp), %rcx
	movl	$3, %esi
	movl	$-2147483639, 44(%rsp)
	movq	%rdx, 48(%rsp)
	movl	88(%rax), %edx
	call	epoll_ctl@PLT
	jmp	.L1358
.L1419:
	movq	%r12, %rdi
	call	pthread_mutex_unlock@PLT
	leaq	88(%rbp), %rdi
	call	pthread_cond_signal@PLT
	jmp	.L1362
.L1346:
	movq	8(%rsp), %r15
	movq	%r15, %rdi
	call	pthread_mutex_unlock@PLT
	movq	48(%r14), %rdi
.LEHB37:
	call	_ZN4asio6detail16service_registry6createINS0_13epoll_reactorEEEPNS_10io_service7serviceERS4_@PLT
.LEHE37:
	movq	%rax, %rcx
	movq	_ZTIN4asio6detail14typeid_wrapperINS0_13epoll_reactorEEE@GOTPCREL(%rip), %rax
	movq	%r15, %rdi
	movq	$0, 16(%rcx)
	movq	%rcx, 16(%rsp)
	movq	%rax, 8(%rcx)
	call	pthread_mutex_lock@PLT
	movq	56(%r14), %r8
	movq	16(%rsp), %rcx
	testq	%r8, %r8
	je	.L1350
	movq	%r8, %r15
	jmp	.L1353
	.p2align 4,,10
	.p2align 3
.L1420:
	cmpb	$42, (%rdi)
	je	.L1351
	movq	%r8, 24(%rsp)
	movq	%rcx, 16(%rsp)
	call	strcmp@PLT
	testl	%eax, %eax
	movq	16(%rsp), %rcx
	movq	24(%rsp), %r8
	je	.L1352
.L1351:
	movq	32(%r15), %r15
	testq	%r15, %r15
	je	.L1350
.L1353:
	movq	8(%r15), %rax
	testq	%rax, %rax
	je	.L1351
	movq	8(%rax), %rdi
	movq	_ZTSN4asio6detail14typeid_wrapperINS0_13epoll_reactorEEE@GOTPCREL(%rip), %rsi
	cmpq	%rsi, %rdi
	jne	.L1420
.L1352:
	movq	(%rcx), %rax
	movq	%rcx, %rdi
	call	*8(%rax)
	jmp	.L1348
.L1354:
	movq	%rax, 200(%rbp)
	movq	%rax, 192(%rbp)
	jmp	.L1355
.L1350:
	movq	%r8, 32(%rcx)
	movq	%rcx, %r15
	movq	%rcx, 56(%r14)
	jmp	.L1348
.L1416:
	call	__stack_chk_fail@PLT
.L1365:
	movq	%r12, %rdi
	movq	%rax, %rbp
	call	pthread_mutex_unlock@PLT
.L1360:
	movq	_ZTVN4asio6detail11timer_queueINS0_18chrono_time_traitsINSt6chrono3_V212steady_clockENS_11wait_traitsIS5_EEEEEE@GOTPCREL(%rip), %rax
	movq	64(%rbx), %rdi
	addq	$16, %rax
	testq	%rdi, %rdi
	movq	%rax, 40(%rbx)
	je	.L1361
	call	_ZdlPv@PLT
.L1361:
	movq	%rbx, %rdi
	movl	$96, %esi
	call	_ZdlPvm@PLT
	movq	%rbp, %rdi
.LEHB38:
	call	_Unwind_Resume@PLT
.LEHE38:
.L1364:
	movq	%rax, %rbp
	jmp	.L1360
	.cfi_endproc
.LFE8757:
	.section	.gcc_except_table
.LLSDA8757:
	.byte	0xff
	.byte	0xff
	.byte	0x1
	.uleb128 .LLSDACSE8757-.LLSDACSB8757
.LLSDACSB8757:
	.uleb128 .LEHB35-.LFB8757
	.uleb128 .LEHE35-.LEHB35
	.uleb128 0
	.uleb128 0
	.uleb128 .LEHB36-.LFB8757
	.uleb128 .LEHE36-.LEHB36
	.uleb128 .L1364-.LFB8757
	.uleb128 0
	.uleb128 .LEHB37-.LFB8757
	.uleb128 .LEHE37-.LEHB37
	.uleb128 .L1365-.LFB8757
	.uleb128 0
	.uleb128 .LEHB38-.LFB8757
	.uleb128 .LEHE38-.LEHB38
	.uleb128 0
	.uleb128 0
.LLSDACSE8757:
	.section	.text._ZN4asio6detail16service_registry6createINS_22waitable_timer_serviceINSt6chrono3_V212steady_clockENS_11wait_traitsIS6_EEEEEEPNS_10io_service7serviceERSA_,"axG",@progbits,_ZN4asio6detail16service_registry6createINS_22waitable_timer_serviceINSt6chrono3_V212steady_clockENS_11wait_traitsIS6_EEEEEEPNS_10io_service7serviceERSA_,comdat
	.size	_ZN4asio6detail16service_registry6createINS_22waitable_timer_serviceINSt6chrono3_V212steady_clockENS_11wait_traitsIS6_EEEEEEPNS_10io_service7serviceERSA_, .-_ZN4asio6detail16service_registry6createINS_22waitable_timer_serviceINSt6chrono3_V212steady_clockENS_11wait_traitsIS6_EEEEEEPNS_10io_service7serviceERSA_
	.section	.text._ZNSt6vectorIN4asio6detail11timer_queueINS1_18chrono_time_traitsINSt6chrono3_V212steady_clockENS0_11wait_traitsIS6_EEEEE10heap_entryESaISB_EE17_M_realloc_insertIJRKSB_EEEvN9__gnu_cxx17__normal_iteratorIPSB_SD_EEDpOT_,"axG",@progbits,_ZNSt6vectorIN4asio6detail11timer_queueINS1_18chrono_time_traitsINSt6chrono3_V212steady_clockENS0_11wait_traitsIS6_EEEEE10heap_entryESaISB_EE17_M_realloc_insertIJRKSB_EEEvN9__gnu_cxx17__normal_iteratorIPSB_SD_EEDpOT_,comdat
	.align 2
	.p2align 4,,15
	.weak	_ZNSt6vectorIN4asio6detail11timer_queueINS1_18chrono_time_traitsINSt6chrono3_V212steady_clockENS0_11wait_traitsIS6_EEEEE10heap_entryESaISB_EE17_M_realloc_insertIJRKSB_EEEvN9__gnu_cxx17__normal_iteratorIPSB_SD_EEDpOT_
	.type	_ZNSt6vectorIN4asio6detail11timer_queueINS1_18chrono_time_traitsINSt6chrono3_V212steady_clockENS0_11wait_traitsIS6_EEEEE10heap_entryESaISB_EE17_M_realloc_insertIJRKSB_EEEvN9__gnu_cxx17__normal_iteratorIPSB_SD_EEDpOT_, @function
_ZNSt6vectorIN4asio6detail11timer_queueINS1_18chrono_time_traitsINSt6chrono3_V212steady_clockENS0_11wait_traitsIS6_EEEEE10heap_entryESaISB_EE17_M_realloc_insertIJRKSB_EEEvN9__gnu_cxx17__normal_iteratorIPSB_SD_EEDpOT_:
.LFB9117:
	.cfi_startproc
	pushq	%r15
	.cfi_def_cfa_offset 16
	.cfi_offset 15, -16
	pushq	%r14
	.cfi_def_cfa_offset 24
	.cfi_offset 14, -24
	pushq	%r13
	.cfi_def_cfa_offset 32
	.cfi_offset 13, -32
	pushq	%r12
	.cfi_def_cfa_offset 40
	.cfi_offset 12, -40
	pushq	%rbp
	.cfi_def_cfa_offset 48
	.cfi_offset 6, -48
	pushq	%rbx
	.cfi_def_cfa_offset 56
	.cfi_offset 3, -56
	movq	%rdi, %rbp
	movq	%rsi, %rbx
	subq	$24, %rsp
	.cfi_def_cfa_offset 80
	movq	8(%rbp), %rsi
	movq	(%rdi), %rdi
	movq	%rbx, %r13
	movq	%rsi, %rax
	subq	%rdi, %r13
	subq	%rdi, %rax
	sarq	$4, %rax
	testq	%rax, %rax
	je	.L1437
	leaq	(%rax,%rax), %rcx
	movq	$-16, %r14
	cmpq	%rcx, %rax
	jbe	.L1452
.L1423:
	movq	%r14, %rdi
	movq	%rdx, 8(%rsp)
	call	_Znwm@PLT
	movq	0(%rbp), %rdi
	movq	8(%rbp), %rsi
	leaq	16(%rax), %r15
	movq	8(%rsp), %rdx
	movq	%rax, %r12
	addq	%rax, %r14
.L1424:
	addq	%r12, %r13
	je	.L1425
	movdqu	(%rdx), %xmm0
	movups	%xmm0, 0(%r13)
.L1425:
	cmpq	%rdi, %rbx
	je	.L1426
	movq	%r12, %rcx
	movq	%rdi, %rdx
	.p2align 4,,10
	.p2align 3
.L1428:
	testq	%rcx, %rcx
	je	.L1453
.L1430:
	movdqu	(%rdx), %xmm0
	addq	$16, %rdx
	addq	$16, %rcx
	movups	%xmm0, -16(%rcx)
	cmpq	%rdx, %rbx
	jne	.L1428
.L1429:
	leaq	16(%rdi), %rax
	movq	%rbx, %rcx
	subq	%rax, %rcx
	movq	%rcx, %rax
	andq	$-16, %rax
	leaq	32(%r12,%rax), %r15
.L1426:
	cmpq	%rsi, %rbx
	je	.L1431
	movq	%rbx, %rdx
	movq	%r15, %rcx
	.p2align 4,,10
	.p2align 3
.L1433:
	testq	%rcx, %rcx
	je	.L1454
.L1435:
	movdqu	(%rdx), %xmm0
	addq	$16, %rdx
	addq	$16, %rcx
	movups	%xmm0, -16(%rcx)
	cmpq	%rsi, %rdx
	jne	.L1433
.L1434:
	addq	$16, %rbx
	subq	%rbx, %rsi
	andq	$-16, %rsi
	leaq	16(%r15,%rsi), %r15
.L1431:
	testq	%rdi, %rdi
	je	.L1436
	call	_ZdlPv@PLT
.L1436:
	movq	%r12, 0(%rbp)
	movq	%r15, 8(%rbp)
	movq	%r14, 16(%rbp)
	addq	$24, %rsp
	.cfi_remember_state
	.cfi_def_cfa_offset 56
	popq	%rbx
	.cfi_def_cfa_offset 48
	popq	%rbp
	.cfi_def_cfa_offset 40
	popq	%r12
	.cfi_def_cfa_offset 32
	popq	%r13
	.cfi_def_cfa_offset 24
	popq	%r14
	.cfi_def_cfa_offset 16
	popq	%r15
	.cfi_def_cfa_offset 8
	ret
	.p2align 4,,10
	.p2align 3
.L1437:
	.cfi_restore_state
	movl	$1, %ecx
.L1422:
	salq	$4, %rcx
	movq	%rcx, %r14
	jmp	.L1423
	.p2align 4,,10
	.p2align 3
.L1452:
	movabsq	$1152921504606846975, %rax
	cmpq	%rax, %rcx
	ja	.L1423
	testq	%rcx, %rcx
	jne	.L1422
	movl	$16, %r15d
	xorl	%r14d, %r14d
	xorl	%r12d, %r12d
	jmp	.L1424
	.p2align 4,,10
	.p2align 3
.L1453:
	addq	$16, %rdx
	cmpq	%rdx, %rbx
	je	.L1429
	movl	$16, %ecx
	jmp	.L1430
.L1454:
	addq	$16, %rdx
	cmpq	%rsi, %rdx
	je	.L1434
	movl	$16, %ecx
	jmp	.L1435
	.cfi_endproc
.LFE9117:
	.size	_ZNSt6vectorIN4asio6detail11timer_queueINS1_18chrono_time_traitsINSt6chrono3_V212steady_clockENS0_11wait_traitsIS6_EEEEE10heap_entryESaISB_EE17_M_realloc_insertIJRKSB_EEEvN9__gnu_cxx17__normal_iteratorIPSB_SD_EEDpOT_, .-_ZNSt6vectorIN4asio6detail11timer_queueINS1_18chrono_time_traitsINSt6chrono3_V212steady_clockENS0_11wait_traitsIS6_EEEEE10heap_entryESaISB_EE17_M_realloc_insertIJRKSB_EEEvN9__gnu_cxx17__normal_iteratorIPSB_SD_EEDpOT_
	.section	.text._ZN4asio6detail13epoll_reactor14schedule_timerINS0_18chrono_time_traitsINSt6chrono3_V212steady_clockENS_11wait_traitsIS6_EEEEEEvRNS0_11timer_queueIT_EERKNSB_9time_typeERNSC_14per_timer_dataEPNS0_7wait_opE,"axG",@progbits,_ZN4asio6detail13epoll_reactor14schedule_timerINS0_18chrono_time_traitsINSt6chrono3_V212steady_clockENS_11wait_traitsIS6_EEEEEEvRNS0_11timer_queueIT_EERKNSB_9time_typeERNSC_14per_timer_dataEPNS0_7wait_opE,comdat
	.align 2
	.p2align 4,,15
	.weak	_ZN4asio6detail13epoll_reactor14schedule_timerINS0_18chrono_time_traitsINSt6chrono3_V212steady_clockENS_11wait_traitsIS6_EEEEEEvRNS0_11timer_queueIT_EERKNSB_9time_typeERNSC_14per_timer_dataEPNS0_7wait_opE
	.type	_ZN4asio6detail13epoll_reactor14schedule_timerINS0_18chrono_time_traitsINSt6chrono3_V212steady_clockENS_11wait_traitsIS6_EEEEEEvRNS0_11timer_queueIT_EERKNSB_9time_typeERNSC_14per_timer_dataEPNS0_7wait_opE, @function
_ZN4asio6detail13epoll_reactor14schedule_timerINS0_18chrono_time_traitsINSt6chrono3_V212steady_clockENS_11wait_traitsIS6_EEEEEEvRNS0_11timer_queueIT_EERKNSB_9time_typeERNSC_14per_timer_dataEPNS0_7wait_opE:
.LFB8582:
	.cfi_startproc
	.cfi_personality 0x9b,DW.ref.__gxx_personality_v0
	.cfi_lsda 0x1b,.LLSDA8582
	pushq	%r15
	.cfi_def_cfa_offset 16
	.cfi_offset 15, -16
	pushq	%r14
	.cfi_def_cfa_offset 24
	.cfi_offset 14, -24
	movq	%rdx, %r15
	pushq	%r13
	.cfi_def_cfa_offset 32
	.cfi_offset 13, -32
	pushq	%r12
	.cfi_def_cfa_offset 40
	.cfi_offset 12, -40
	leaq	48(%rdi), %r12
	pushq	%rbp
	.cfi_def_cfa_offset 48
	.cfi_offset 6, -48
	pushq	%rbx
	.cfi_def_cfa_offset 56
	.cfi_offset 3, -56
	movq	%rdi, %rbp
	movq	%r12, %rdi
	movq	%rsi, %r14
	movq	%rcx, %rbx
	subq	$88, %rsp
	.cfi_def_cfa_offset 144
	movq	%r8, %r13
	movq	%fs:40, %rax
	movq	%rax, 72(%rsp)
	xorl	%eax, %eax
	call	pthread_mutex_lock@PLT
	cmpb	$0, 112(%rbp)
	jne	.L1531
	cmpq	$0, 32(%rbx)
	je	.L1532
.L1470:
	movq	8(%rbx), %rax
	movq	$0, 0(%r13)
	testq	%rax, %rax
	je	.L1480
	movq	%r13, (%rax)
	movq	%r13, 8(%rbx)
.L1481:
	movq	40(%rbp), %rax
	addq	$184, %rax
	cmpq	$0, 16(%rbx)
	jne	.L1530
	cmpq	(%rbx), %r13
	je	.L1484
.L1530:
	lock addq	$1, (%rax)
.L1483:
	movq	%r12, %rdi
	call	pthread_mutex_unlock@PLT
	movq	72(%rsp), %rax
	xorq	%fs:40, %rax
	jne	.L1533
	addq	$88, %rsp
	.cfi_remember_state
	.cfi_def_cfa_offset 56
	popq	%rbx
	.cfi_def_cfa_offset 48
	popq	%rbp
	.cfi_def_cfa_offset 40
	popq	%r12
	.cfi_def_cfa_offset 32
	popq	%r13
	.cfi_def_cfa_offset 24
	popq	%r14
	.cfi_def_cfa_offset 16
	popq	%r15
	.cfi_def_cfa_offset 8
	ret
	.p2align 4,,10
	.p2align 3
.L1531:
	.cfi_restore_state
	movq	40(%rbp), %rbx
	cmpb	$0, 40(%rbx)
	je	.L1457
	.byte	0x66
	leaq	_ZN4asio6detail15keyword_tss_ptrINS0_10call_stackINS0_15task_io_serviceENS0_27task_io_service_thread_infoEE7contextEE6value_E@tlsgd(%rip), %rdi
	.value	0x6666
	rex64
	call	__tls_get_addr@PLT
	movq	(%rax), %rax
	testq	%rax, %rax
	jne	.L1525
	jmp	.L1457
	.p2align 4,,10
	.p2align 3
.L1459:
	movq	16(%rax), %rax
	testq	%rax, %rax
	je	.L1457
.L1525:
	cmpq	(%rax), %rbx
	jne	.L1459
	movq	8(%rax), %rax
	testq	%rax, %rax
	je	.L1457
	addq	$1, 24(%rax)
	cmpq	$0, 16(%rax)
	movq	$0, 0(%r13)
	je	.L1462
	movq	16(%rax), %rdx
	movq	%r13, (%rdx)
	movq	%r13, 16(%rax)
	jmp	.L1483
	.p2align 4,,10
	.p2align 3
.L1457:
	lock addq	$1, 184(%rbx)
	leaq	48(%rbx), %rbp
	movq	%rbp, %rdi
	call	pthread_mutex_lock@PLT
	cmpq	$0, 200(%rbx)
	movq	$0, 0(%r13)
	je	.L1464
	movq	200(%rbx), %rax
	movq	%r13, (%rax)
	movq	%r13, 200(%rbx)
.L1465:
	movq	136(%rbx), %rax
	orq	$1, %rax
	cmpq	$1, %rax
	movq	%rax, 136(%rbx)
	jne	.L1534
	cmpb	$0, 176(%rbx)
	jne	.L1468
	movq	144(%rbx), %rax
	testq	%rax, %rax
	je	.L1468
	leaq	88(%rax), %rdx
	movb	$1, 176(%rbx)
	movl	$-2147483639, 32(%rsp)
	leaq	32(%rsp), %rcx
	movl	$3, %esi
	movq	%rdx, 36(%rsp)
	movl	88(%rax), %edx
	movl	96(%rax), %edi
	call	epoll_ctl@PLT
.L1468:
	movq	%rbp, %rdi
	call	pthread_mutex_unlock@PLT
	jmp	.L1483
	.p2align 4,,10
	.p2align 3
.L1484:
	lock addq	$1, (%rax)
	movl	100(%rbp), %edi
	cmpl	$-1, %edi
	je	.L1485
	movq	104(%rbp), %rbx
	pxor	%xmm0, %xmm0
	testq	%rbx, %rbx
	movaps	%xmm0, (%rsp)
	je	.L1486
	movl	$300000000, %r15d
	movabsq	$2361183241434822607, %r14
	movq	_ZNK4asio6detail11timer_queueINS0_18chrono_time_traitsINSt6chrono3_V212steady_clockENS_11wait_traitsIS5_EEEEE18wait_duration_usecEl@GOTPCREL(%rip), %r13
	jmp	.L1496
	.p2align 4,,10
	.p2align 3
.L1536:
	movq	24(%rbx), %rax
	cmpq	%rax, 32(%rbx)
	je	.L1488
	call	_ZNSt6chrono3_V212steady_clock3nowEv@PLT
	movq	24(%rbx), %rdx
	movq	(%rdx), %rdx
	testq	%rdx, %rdx
	js	.L1489
	testq	%rax, %rax
	js	.L1490
.L1529:
	movq	%rdx, %rcx
	subq	%rax, %rcx
	testq	%rcx, %rcx
	jle	.L1504
.L1493:
	movq	%rcx, %rax
	sarq	$63, %rcx
	imulq	%r14
	sarq	$7, %rdx
	subq	%rcx, %rdx
	jne	.L1492
	movl	$1, %r15d
	.p2align 4,,10
	.p2align 3
.L1488:
	movq	8(%rbx), %rbx
	testq	%rbx, %rbx
	je	.L1535
.L1496:
	movq	(%rbx), %rax
	movq	32(%rax), %rax
	cmpq	%r13, %rax
	je	.L1536
	movq	%r15, %rsi
	movq	%rbx, %rdi
.LEHB39:
	call	*%rax
	movq	8(%rbx), %rbx
	movq	%rax, %r15
	testq	%rbx, %rbx
	jne	.L1496
	.p2align 4,,10
	.p2align 3
.L1535:
	movq	%r15, %rax
	movabsq	$4835703278458516699, %rdx
	xorl	%esi, %esi
	imulq	%rdx
	movq	%r15, %rax
	movl	100(%rbp), %edi
	sarq	$63, %rax
	sarq	$18, %rdx
	subq	%rax, %rdx
	testq	%r15, %r15
	movl	$1, %eax
	movq	%rdx, 16(%rsp)
	sete	%sil
	je	.L1498
	imulq	$1000000, %rdx, %rdx
	movq	%r15, %r8
	subq	%rdx, %r8
	imulq	$1000, %r8, %rax
.L1498:
	leaq	32(%rsp), %rcx
	movq	%rsp, %rdx
	movq	%rax, 24(%rsp)
	call	timerfd_settime@PLT
	jmp	.L1483
	.p2align 4,,10
	.p2align 3
.L1532:
	movq	16(%r14), %r8
	cmpq	%r8, %rbx
	je	.L1470
	movq	32(%r14), %rsi
	movq	24(%r14), %rdi
	movq	%rbx, 40(%rsp)
	movq	%rsi, %rax
	subq	%rdi, %rax
	sarq	$4, %rax
	cmpq	40(%r14), %rsi
	movq	%rax, 16(%rbx)
	movq	(%r15), %rax
	movq	%rax, 32(%rsp)
	je	.L1471
	testq	%rsi, %rsi
	je	.L1472
	movdqa	32(%rsp), %xmm0
	movups	%xmm0, (%rsi)
.L1472:
	addq	$16, %rsi
	movq	%rsi, 32(%r14)
.L1473:
	subq	%rdi, %rsi
	sarq	$4, %rsi
	movq	%rsi, %r10
	subq	$1, %r10
	je	.L1477
	leaq	-2(%rsi), %rax
	movq	%r10, %rcx
	salq	$4, %rcx
	shrq	%rax
	addq	%rdi, %rcx
	movq	%rax, %rdx
	movq	(%rcx), %r9
	salq	$4, %rdx
	addq	%rdi, %rdx
	cmpq	(%rdx), %r9
	jl	.L1478
	jmp	.L1477
	.p2align 4,,10
	.p2align 3
.L1526:
	leaq	-1(%rax), %rsi
	movq	%rax, %rcx
	movq	%rax, %r10
	salq	$4, %rcx
	shrq	%rsi
	addq	%rdi, %rcx
	movq	%rsi, %rdx
	movq	(%rcx), %r9
	salq	$4, %rdx
	addq	%rdi, %rdx
	cmpq	%r9, (%rdx)
	jle	.L1477
	movq	%rsi, %rax
.L1478:
	movq	8(%rcx), %rsi
	testq	%rax, %rax
	movdqu	(%rdx), %xmm0
	movups	%xmm0, (%rcx)
	movq	%r9, (%rdx)
	movq	%rsi, 8(%rdx)
	movq	8(%rcx), %rdx
	movq	%r10, 16(%rdx)
	movq	%rax, 16(%rsi)
	jne	.L1526
.L1477:
	testq	%r8, %r8
	movq	%r8, 24(%rbx)
	movq	$0, 32(%rbx)
	je	.L1476
	movq	%rbx, 32(%r8)
.L1476:
	movq	%rbx, 16(%r14)
	jmp	.L1470
	.p2align 4,,10
	.p2align 3
.L1480:
	movq	%r13, 8(%rbx)
	movq	%r13, (%rbx)
	jmp	.L1481
	.p2align 4,,10
	.p2align 3
.L1534:
	movq	%rbp, %rdi
	call	pthread_mutex_unlock@PLT
	leaq	88(%rbx), %rdi
	call	pthread_cond_signal@PLT
	jmp	.L1483
	.p2align 4,,10
	.p2align 3
.L1485:
	movl	88(%rbp), %edx
	movl	96(%rbp), %edi
	leaq	88(%rbp), %rax
	leaq	32(%rsp), %rcx
	movl	$3, %esi
	movl	$-2147483639, 32(%rsp)
	movq	%rax, 36(%rsp)
	call	epoll_ctl@PLT
	jmp	.L1483
	.p2align 4,,10
	.p2align 3
.L1489:
	testq	%rax, %rax
	js	.L1529
.L1504:
	xorl	%r15d, %r15d
	jmp	.L1488
	.p2align 4,,10
	.p2align 3
.L1490:
	movabsq	$-9223372036854775808, %rdi
	cmpq	%rdi, %rax
	je	.L1502
	movq	%rax, %rsi
	movabsq	$9223372036854775807, %rcx
	negq	%rsi
	subq	%rdx, %rcx
	cmpq	%rcx, %rsi
	jle	.L1537
.L1502:
	movabsq	$9223372036854775, %rdx
.L1492:
	cmpq	%rdx, %r15
	cmovg	%rdx, %r15
	jmp	.L1488
	.p2align 4,,10
	.p2align 3
.L1464:
	movq	%r13, 200(%rbx)
	movq	%r13, 192(%rbx)
	jmp	.L1465
	.p2align 4,,10
	.p2align 3
.L1537:
	movq	%rdx, %rcx
	subq	%rax, %rcx
	jmp	.L1493
	.p2align 4,,10
	.p2align 3
.L1462:
	movq	%r13, 16(%rax)
	movq	%r13, 8(%rax)
	jmp	.L1483
	.p2align 4,,10
	.p2align 3
.L1486:
	movq	$300, 16(%rsp)
	xorl	%esi, %esi
	xorl	%eax, %eax
	jmp	.L1498
	.p2align 4,,10
	.p2align 3
.L1471:
	leaq	32(%rsp), %rdx
	leaq	24(%r14), %rdi
	call	_ZNSt6vectorIN4asio6detail11timer_queueINS1_18chrono_time_traitsINSt6chrono3_V212steady_clockENS0_11wait_traitsIS6_EEEEE10heap_entryESaISB_EE17_M_realloc_insertIJRKSB_EEEvN9__gnu_cxx17__normal_iteratorIPSB_SD_EEDpOT_@PLT
.LEHE39:
	movq	24(%r14), %rdi
	movq	32(%r14), %rsi
	movq	16(%r14), %r8
	jmp	.L1473
.L1533:
	call	__stack_chk_fail@PLT
.L1507:
	movq	%rax, %rbx
	movq	%r12, %rdi
	call	pthread_mutex_unlock@PLT
	movq	%rbx, %rdi
.LEHB40:
	call	_Unwind_Resume@PLT
.LEHE40:
	.cfi_endproc
.LFE8582:
	.section	.gcc_except_table
.LLSDA8582:
	.byte	0xff
	.byte	0xff
	.byte	0x1
	.uleb128 .LLSDACSE8582-.LLSDACSB8582
.LLSDACSB8582:
	.uleb128 .LEHB39-.LFB8582
	.uleb128 .LEHE39-.LEHB39
	.uleb128 .L1507-.LFB8582
	.uleb128 0
	.uleb128 .LEHB40-.LFB8582
	.uleb128 .LEHE40-.LEHB40
	.uleb128 0
	.uleb128 0
.LLSDACSE8582:
	.section	.text._ZN4asio6detail13epoll_reactor14schedule_timerINS0_18chrono_time_traitsINSt6chrono3_V212steady_clockENS_11wait_traitsIS6_EEEEEEvRNS0_11timer_queueIT_EERKNSB_9time_typeERNSC_14per_timer_dataEPNS0_7wait_opE,"axG",@progbits,_ZN4asio6detail13epoll_reactor14schedule_timerINS0_18chrono_time_traitsINSt6chrono3_V212steady_clockENS_11wait_traitsIS6_EEEEEEvRNS0_11timer_queueIT_EERKNSB_9time_typeERNSC_14per_timer_dataEPNS0_7wait_opE,comdat
	.size	_ZN4asio6detail13epoll_reactor14schedule_timerINS0_18chrono_time_traitsINSt6chrono3_V212steady_clockENS_11wait_traitsIS6_EEEEEEvRNS0_11timer_queueIT_EERKNSB_9time_typeERNSC_14per_timer_dataEPNS0_7wait_opE, .-_ZN4asio6detail13epoll_reactor14schedule_timerINS0_18chrono_time_traitsINSt6chrono3_V212steady_clockENS_11wait_traitsIS6_EEEEEEvRNS0_11timer_queueIT_EERKNSB_9time_typeERNSC_14per_timer_dataEPNS0_7wait_opE
	.section	.rodata.str1.8
	.align 8
.LC32:
	.string	"Concurrency was set to 0, defaulting to 1 thread"
	.align 8
.LC33:
	.string	"/home/raihan/OpenPLC_v3/utils/dnp3_src/cpp/libs/src/asiopal/ThreadPool.cpp(51)"
	.text
	.align 2
	.p2align 4,,15
	.globl	_ZN7asiopal10ThreadPoolC2ERKN7openpal6LoggerERKSt10shared_ptrINS_2IOEEjSt8functionIFvvEESC_
	.type	_ZN7asiopal10ThreadPoolC2ERKN7openpal6LoggerERKSt10shared_ptrINS_2IOEEjSt8functionIFvvEESC_, @function
_ZN7asiopal10ThreadPoolC2ERKN7openpal6LoggerERKSt10shared_ptrINS_2IOEEjSt8functionIFvvEESC_:
.LFB6878:
	.cfi_startproc
	.cfi_personality 0x9b,DW.ref.__gxx_personality_v0
	.cfi_lsda 0x1b,.LLSDA6878
	pushq	%r15
	.cfi_def_cfa_offset 16
	.cfi_offset 15, -16
	pushq	%r14
	.cfi_def_cfa_offset 24
	.cfi_offset 14, -24
	movq	%r8, %r14
	pushq	%r13
	.cfi_def_cfa_offset 32
	.cfi_offset 13, -32
	pushq	%r12
	.cfi_def_cfa_offset 40
	.cfi_offset 12, -40
	movl	%ecx, %r13d
	pushq	%rbp
	.cfi_def_cfa_offset 48
	.cfi_offset 6, -48
	pushq	%rbx
	.cfi_def_cfa_offset 56
	.cfi_offset 3, -56
	movq	%rdx, %rbp
	movq	%rdi, %rbx
	movq	%r9, %r12
	subq	$88, %rsp
	.cfi_def_cfa_offset 144
	movq	%fs:40, %rax
	movq	%rax, 72(%rsp)
	xorl	%eax, %eax
	movq	(%rsi), %rax
	movq	%rax, (%rdi)
	movq	8(%rsi), %rax
	testq	%rax, %rax
	movq	%rax, 8(%rdi)
	je	.L1539
	cmpq	$0, _ZL28__gthrw___pthread_key_createPjPFvPvE@GOTPCREL(%rip)
	jne	.L1712
	addl	$1, 8(%rax)
	movq	16(%rsi), %rax
	movq	%rax, 16(%rdi)
	movq	24(%rsi), %rax
	testq	%rax, %rax
	movq	%rax, 24(%rdi)
	je	.L1706
.L1543:
	addl	$1, 8(%rax)
.L1706:
	movq	0(%rbp), %rax
	movq	%rax, 32(%rbx)
	movq	8(%rbp), %rax
	testq	%rax, %rax
	movq	%rax, 40(%rbx)
	je	.L1547
.L1548:
	addl	$1, 8(%rax)
.L1547:
	leaq	48(%rbx), %rax
	movq	$0, 64(%rbx)
	movq	%rax, %rdi
	movq	%rax, 16(%rsp)
	movq	16(%r14), %rax
	testq	%rax, %rax
	je	.L1550
	movl	$2, %edx
	movq	%r14, %rsi
.LEHB41:
	call	*%rax
.LEHE41:
	movdqu	16(%r14), %xmm0
	movups	%xmm0, 64(%rbx)
.L1550:
	leaq	80(%rbx), %rax
	movq	$0, 96(%rbx)
	movq	%rax, %rdi
	movq	%rax, 24(%rsp)
	movq	16(%r12), %rax
	testq	%rax, %rax
	je	.L1554
	movl	$2, %edx
	movq	%r12, %rsi
.LEHB42:
	call	*%rax
.LEHE42:
	movdqu	16(%r12), %xmm0
	movups	%xmm0, 96(%rbx)
.L1554:
	movb	$0, 112(%rbx)
	movq	0(%rbp), %rax
	movq	8(%rax), %r12
	leaq	8(%r12), %r14
	movq	%r14, %rdi
	call	pthread_mutex_lock@PLT
	movq	56(%r12), %rbp
	testq	%rbp, %rbp
	jne	.L1561
	jmp	.L1558
	.p2align 4,,10
	.p2align 3
.L1713:
	cmpb	$42, (%rdi)
	je	.L1559
	call	strcmp@PLT
	testl	%eax, %eax
	je	.L1560
.L1559:
	movq	32(%rbp), %rbp
	testq	%rbp, %rbp
	je	.L1558
.L1561:
	movq	8(%rbp), %rax
	testq	%rax, %rax
	je	.L1559
	movq	8(%rax), %rdi
	movq	_ZTSN4asio6detail14typeid_wrapperINS_22waitable_timer_serviceINSt6chrono3_V212steady_clockENS_11wait_traitsIS5_EEEEEE@GOTPCREL(%rip), %rsi
	cmpq	%rsi, %rdi
	jne	.L1713
.L1560:
	movq	%r14, %rdi
	call	pthread_mutex_unlock@PLT
	leaq	184(%rbx), %rax
	testl	%r13d, %r13d
	movq	%rbp, 120(%rbx)
	movq	$0, 144(%rbx)
	movq	$0, 152(%rbx)
	movq	$0, 168(%rbx)
	movq	$0, 176(%rbx)
	movq	$0, 128(%rbx)
	movb	$0, 136(%rbx)
	movq	%rax, (%rsp)
	movq	$0, 184(%rbx)
	movq	$0, 192(%rbx)
	movq	$0, 200(%rbx)
	je	.L1566
	leaq	128(%rbx), %r14
	call	_ZNSt3_V215system_categoryEv@PLT
	movq	%rax, %r15
.L1567:
	movabsq	$9223372036854775807, %rax
	movq	%rax, 128(%rbx)
	.byte	0x66
	leaq	_ZN4asio6detail15keyword_tss_ptrINS0_10call_stackINS0_15task_io_serviceENS0_27task_io_service_thread_infoEE7contextEE6value_E@tlsgd(%rip), %rdi
	.value	0x6666
	rex64
	call	__tls_get_addr@PLT
	movq	(%rax), %rax
	testq	%rax, %rax
	je	.L1570
	movq	8(%rax), %rax
	testq	%rax, %rax
	je	.L1570
	movq	(%rax), %r12
	testq	%r12, %r12
	je	.L1570
	movq	$0, (%rax)
	movzbl	(%r12), %eax
	cmpb	$47, %al
	jbe	.L1571
	movb	%al, 48(%r12)
.L1572:
	leaq	_ZN4asio6detail12wait_handlerIZN7asiopal10ThreadPoolC4ERKN7openpal6LoggerERKSt10shared_ptrINS2_2IOEEjSt8functionIFvvEESF_EUlRKSt10error_codeE_E11do_completeEPNS0_15task_io_serviceEPNS0_25task_io_service_operationESI_m(%rip), %rax
	movq	88(%rbp), %rdi
	leaq	144(%rbx), %rcx
	leaq	40(%rbp), %rsi
	movq	$0, (%r12)
	movl	$0, 16(%r12)
	movq	%rax, 8(%r12)
	movl	$0, 24(%r12)
	movq	%r12, %r8
	movq	%r15, 32(%r12)
	movq	%r14, %rdx
	movb	$1, 136(%rbx)
.LEHB43:
	call	_ZN4asio6detail13epoll_reactor14schedule_timerINS0_18chrono_time_traitsINSt6chrono3_V212steady_clockENS_11wait_traitsIS6_EEEEEEvRNS0_11timer_queueIT_EERKNSB_9time_typeERNSC_14per_timer_dataEPNS0_7wait_opE@PLT
.LEHE43:
	leaq	48(%rsp), %rax
	xorl	%r12d, %r12d
	leaq	16+_ZTVNSt6thread11_State_implINS_8_InvokerISt5tupleIJZN7asiopal10ThreadPoolC4ERKN7openpal6LoggerERKSt10shared_ptrINS3_2IOEEjSt8functionIFvvEESG_EUlvE0_EEEEEE(%rip), %r14
	leaq	40(%rsp), %r15
	movq	%rax, 8(%rsp)
	jmp	.L1573
	.p2align 4,,10
	.p2align 3
.L1579:
	testq	%rsi, %rsi
	je	.L1584
	movq	$0, 48(%rsp)
	movq	%rbp, (%rsi)
	movq	48(%rsp), %rbp
.L1584:
	addq	$8, %rsi
	movq	%rsi, 192(%rbx)
.L1585:
	testq	%rbp, %rbp
	je	.L1586
	cmpq	$0, 0(%rbp)
	jne	.L1590
	movl	$8, %esi
	movq	%rbp, %rdi
	call	_ZdlPvm@PLT
.L1586:
	addl	$1, %r12d
	cmpl	%r13d, %r12d
	je	.L1714
.L1573:
	movl	$8, %edi
.LEHB44:
	call	_Znwm@PLT
.LEHE44:
	movq	$0, (%rax)
	movl	$24, %edi
	movq	%rax, %rbp
.LEHB45:
	call	_Znwm@PLT
.LEHE45:
	movq	pthread_create@GOTPCREL(%rip), %rdx
	movq	%r14, (%rax)
	movq	%r15, %rsi
	movq	%rbx, 8(%rax)
	movl	%r12d, 16(%rax)
	movq	%rbp, %rdi
	movq	%rax, 40(%rsp)
.LEHB46:
	call	_ZNSt6thread15_M_start_threadESt10unique_ptrINS_6_StateESt14default_deleteIS1_EEPFvvE@PLT
.LEHE46:
	movq	40(%rsp), %rdi
	testq	%rdi, %rdi
	je	.L1578
	movq	(%rdi), %rax
	call	*8(%rax)
.L1578:
	movq	192(%rbx), %rsi
	cmpq	200(%rbx), %rsi
	movq	%rbp, 48(%rsp)
	jne	.L1579
	movq	8(%rsp), %rdx
	movq	(%rsp), %rdi
.LEHB47:
	call	_ZNSt6vectorISt10unique_ptrISt6threadSt14default_deleteIS1_EESaIS4_EE17_M_realloc_insertIJS4_EEEvN9__gnu_cxx17__normal_iteratorIPS4_S6_EEDpOT_@PLT
.LEHE47:
	movq	48(%rsp), %rbp
	jmp	.L1585
	.p2align 4,,10
	.p2align 3
.L1712:
	lock addl	$1, 8(%rax)
	movq	24(%rsi), %rdx
	movq	16(%rsi), %rax
	testq	%rdx, %rdx
	movq	%rax, 16(%rdi)
	movq	%rdx, 24(%rdi)
	leaq	8(%rdx), %rax
	je	.L1715
.L1604:
	lock addl	$1, (%rax)
	movq	8(%rbp), %rdx
	movq	0(%rbp), %rax
	testq	%rdx, %rdx
	movq	%rax, 32(%rbx)
	movq	%rdx, 40(%rbx)
	leaq	8(%rdx), %rax
	je	.L1547
.L1605:
	lock addl	$1, (%rax)
	jmp	.L1547
	.p2align 4,,10
	.p2align 3
.L1714:
	movq	72(%rsp), %rax
	xorq	%fs:40, %rax
	jne	.L1716
	addq	$88, %rsp
	.cfi_remember_state
	.cfi_def_cfa_offset 56
	popq	%rbx
	.cfi_def_cfa_offset 48
	popq	%rbp
	.cfi_def_cfa_offset 40
	popq	%r12
	.cfi_def_cfa_offset 32
	popq	%r13
	.cfi_def_cfa_offset 24
	popq	%r14
	.cfi_def_cfa_offset 16
	popq	%r15
	.cfi_def_cfa_offset 8
	ret
	.p2align 4,,10
	.p2align 3
.L1571:
	.cfi_restore_state
	movq	%r12, %rdi
	call	_ZdlPv@PLT
.L1570:
	movl	$49, %edi
.LEHB48:
	call	_Znwm@PLT
.LEHE48:
	movq	%rax, %r12
	movb	$48, 48(%rax)
	jmp	.L1572
	.p2align 4,,10
	.p2align 3
.L1558:
	movq	%r14, %rdi
	call	pthread_mutex_unlock@PLT
	movq	48(%r12), %rdi
.LEHB49:
	call	_ZN4asio6detail16service_registry6createINS_22waitable_timer_serviceINSt6chrono3_V212steady_clockENS_11wait_traitsIS6_EEEEEEPNS_10io_service7serviceERSA_@PLT
.LEHE49:
	movq	%rax, %r15
	movq	_ZTIN4asio6detail14typeid_wrapperINS_22waitable_timer_serviceINSt6chrono3_V212steady_clockENS_11wait_traitsIS5_EEEEEE@GOTPCREL(%rip), %rax
	movq	%r14, %rdi
	movq	$0, 16(%r15)
	movq	%rax, 8(%r15)
	call	pthread_mutex_lock@PLT
	movq	56(%r12), %rdx
	testq	%rdx, %rdx
	je	.L1562
	movq	%rdx, %rbp
	jmp	.L1565
	.p2align 4,,10
	.p2align 3
.L1717:
	cmpb	$42, (%rdi)
	je	.L1563
	movq	%rdx, (%rsp)
	call	strcmp@PLT
	testl	%eax, %eax
	movq	(%rsp), %rdx
	je	.L1564
.L1563:
	movq	32(%rbp), %rbp
	testq	%rbp, %rbp
	je	.L1562
.L1565:
	movq	8(%rbp), %rax
	testq	%rax, %rax
	je	.L1563
	movq	8(%rax), %rdi
	movq	_ZTSN4asio6detail14typeid_wrapperINS_22waitable_timer_serviceINSt6chrono3_V212steady_clockENS_11wait_traitsIS5_EEEEEE@GOTPCREL(%rip), %rsi
	cmpq	%rsi, %rdi
	jne	.L1717
.L1564:
	movq	(%r15), %rax
	movq	%r15, %rdi
	call	*8(%rax)
	jmp	.L1560
	.p2align 4,,10
	.p2align 3
.L1566:
	leaq	48(%rsp), %rbp
	movq	%rbx, %rdi
	movl	$4, 48(%rsp)
	movq	%rbp, %rsi
.LEHB50:
	call	_ZNK7openpal6Logger9IsEnabledERKNS_10LogFiltersE@PLT
	testb	%al, %al
	jne	.L1568
.L1711:
	movzbl	136(%rbx), %r12d
	movq	120(%rbx), %rbp
	leaq	128(%rbx), %r14
	call	_ZNSt3_V215system_categoryEv@PLT
	movl	$1, %r13d
	movq	%rax, %r15
	testb	%r12b, %r12b
	je	.L1567
	movq	88(%rbp), %rdi
	leaq	40(%rbp), %rsi
	leaq	144(%rbx), %rdx
	call	_ZN4asio6detail13epoll_reactor12cancel_timerINS0_18chrono_time_traitsINSt6chrono3_V212steady_clockENS_11wait_traitsIS6_EEEEEEmRNS0_11timer_queueIT_EERNSC_14per_timer_dataEm.constprop.174
	movb	$0, 136(%rbx)
	movq	120(%rbx), %rbp
	jmp	.L1567
	.p2align 4,,10
	.p2align 3
.L1562:
	movq	%rdx, 32(%r15)
	movq	%r15, %rbp
	movq	%r15, 56(%r12)
	jmp	.L1560
	.p2align 4,,10
	.p2align 3
.L1539:
	movq	16(%rsi), %rax
	movq	%rax, 16(%rdi)
	movq	24(%rsi), %rax
	testq	%rax, %rax
	movq	%rax, 24(%rdi)
	je	.L1545
	cmpq	$0, _ZL28__gthrw___pthread_key_createPjPFvPvE@GOTPCREL(%rip)
	je	.L1543
	addq	$8, %rax
	jmp	.L1604
	.p2align 4,,10
	.p2align 3
.L1545:
	movq	(%rdx), %rax
	movq	%rax, 32(%rdi)
	movq	8(%rdx), %rax
	testq	%rax, %rax
	movq	%rax, 40(%rdi)
	je	.L1547
	cmpq	$0, _ZL28__gthrw___pthread_key_createPjPFvPvE@GOTPCREL(%rip)
	je	.L1548
.L1606:
	addq	$8, %rax
	jmp	.L1605
	.p2align 4,,10
	.p2align 3
.L1568:
	leaq	.LC32(%rip), %rcx
	leaq	.LC33(%rip), %rdx
	movq	%rbp, %rsi
	movq	%rbx, %rdi
	movl	$4, 48(%rsp)
	call	_ZN7openpal6Logger3LogERKNS_10LogFiltersEPKcS5_@PLT
.LEHE50:
	jmp	.L1711
	.p2align 4,,10
	.p2align 3
.L1715:
	movq	0(%rbp), %rax
	movq	%rax, 32(%rdi)
	movq	8(%rbp), %rax
	testq	%rax, %rax
	movq	%rax, 40(%rdi)
	jne	.L1606
	jmp	.L1547
.L1716:
	call	__stack_chk_fail@PLT
.L1590:
	call	_ZSt9terminatev@PLT
.L1611:
	movq	48(%rsp), %rdi
	movq	%rax, %rbp
	testq	%rdi, %rdi
	je	.L1577
	cmpq	$0, (%rdi)
	jne	.L1590
	movl	$8, %esi
	call	_ZdlPvm@PLT
.L1577:
	movq	192(%rbx), %r13
	movq	184(%rbx), %r12
.L1593:
	cmpq	%r12, %r13
	je	.L1591
	movq	(%r12), %rdi
	testq	%rdi, %rdi
	je	.L1592
	cmpq	$0, (%rdi)
	jne	.L1590
	movl	$8, %esi
	call	_ZdlPvm@PLT
.L1592:
	addq	$8, %r12
	jmp	.L1593
.L1591:
	movq	184(%rbx), %rdi
	testq	%rdi, %rdi
	je	.L1594
	call	_ZdlPv@PLT
.L1594:
	call	_ZNSt3_V215system_categoryEv@PLT
	cmpb	$0, 136(%rbx)
	movq	120(%rbx), %r12
	movq	%rax, %r13
	je	.L1595
	movq	88(%r12), %rdi
	leaq	144(%rbx), %rdx
	leaq	40(%r12), %rsi
	call	_ZN4asio6detail13epoll_reactor12cancel_timerINS0_18chrono_time_traitsINSt6chrono3_V212steady_clockENS_11wait_traitsIS6_EEEEEEmRNS0_11timer_queueIT_EERNSC_14per_timer_dataEm.constprop.174
	movb	$0, 136(%rbx)
.L1595:
	leaq	48(%rsp), %r12
.L1598:
	movq	144(%rbx), %rsi
	testq	%rsi, %rsi
	je	.L1599
	movq	(%rsi), %rax
	testq	%rax, %rax
	movq	%rax, 144(%rbx)
	jne	.L1597
	movq	$0, 152(%rbx)
.L1597:
	movq	$0, (%rsi)
	movq	8(%rsi), %rax
	xorl	%ecx, %ecx
	movl	$0, 48(%rsp)
	movq	%r13, 56(%rsp)
	movq	%r12, %rdx
	xorl	%edi, %edi
	call	*%rax
	jmp	.L1598
.L1609:
	movq	%rax, %rbp
.L1599:
	movq	96(%rbx), %rax
	testq	%rax, %rax
	je	.L1557
	movq	24(%rsp), %rdi
	movl	$3, %edx
	movq	%rdi, %rsi
	call	*%rax
.L1557:
	movq	64(%rbx), %rax
	testq	%rax, %rax
	je	.L1553
	movq	16(%rsp), %rdi
	movl	$3, %edx
	movq	%rdi, %rsi
	call	*%rax
.L1553:
	movq	40(%rbx), %rdi
	testq	%rdi, %rdi
	je	.L1602
	call	_ZNSt16_Sp_counted_baseILN9__gnu_cxx12_Lock_policyE2EE10_M_releaseEv@PLT
.L1602:
	movq	%rbx, %rdi
	call	_ZN7openpal6LoggerD1Ev@PLT
	movq	%rbp, %rdi
.LEHB51:
	call	_Unwind_Resume@PLT
.LEHE51:
.L1615:
	movq	%rax, %r12
.L1583:
	movq	%rbp, %rdi
	movl	$8, %esi
	movq	%r12, %rbp
	call	_ZdlPvm@PLT
	jmp	.L1577
.L1616:
	movq	40(%rsp), %rdi
	movq	%rax, %r12
	testq	%rdi, %rdi
	je	.L1583
	movq	(%rdi), %rax
	call	*8(%rax)
	jmp	.L1583
.L1612:
	movq	%rax, %rbp
	movq	64(%rbx), %rax
	testq	%rax, %rax
	je	.L1553
	movq	16(%rsp), %rdi
	movl	$3, %edx
	movq	%rdi, %rsi
	call	*%rax
	jmp	.L1553
.L1613:
	movq	%rax, %rbp
	movq	96(%rbx), %rax
	testq	%rax, %rax
	je	.L1557
	movq	24(%rsp), %rdi
	movl	$3, %edx
	movq	%rdi, %rsi
	call	*%rax
	jmp	.L1557
.L1614:
	movq	%rax, %rbp
	.byte	0x66
	leaq	_ZN4asio6detail15keyword_tss_ptrINS0_10call_stackINS0_15task_io_serviceENS0_27task_io_service_thread_infoEE7contextEE6value_E@tlsgd(%rip), %rdi
	.value	0x6666
	rex64
	call	__tls_get_addr@PLT
	movq	(%rax), %rax
	testq	%rax, %rax
	je	.L1575
	movq	8(%rax), %rax
	testq	%rax, %rax
	je	.L1575
	cmpq	$0, (%rax)
	je	.L1718
.L1575:
	movq	%r12, %rdi
	call	_ZdlPv@PLT
	jmp	.L1577
.L1610:
	movq	%rax, %rbp
	jmp	.L1577
.L1718:
	movzbl	48(%r12), %edx
	movb	%dl, (%r12)
	movq	%r12, (%rax)
	jmp	.L1577
	.cfi_endproc
.LFE6878:
	.section	.gcc_except_table
.LLSDA6878:
	.byte	0xff
	.byte	0xff
	.byte	0x1
	.uleb128 .LLSDACSE6878-.LLSDACSB6878
.LLSDACSB6878:
	.uleb128 .LEHB41-.LFB6878
	.uleb128 .LEHE41-.LEHB41
	.uleb128 .L1612-.LFB6878
	.uleb128 0
	.uleb128 .LEHB42-.LFB6878
	.uleb128 .LEHE42-.LEHB42
	.uleb128 .L1613-.LFB6878
	.uleb128 0
	.uleb128 .LEHB43-.LFB6878
	.uleb128 .LEHE43-.LEHB43
	.uleb128 .L1614-.LFB6878
	.uleb128 0
	.uleb128 .LEHB44-.LFB6878
	.uleb128 .LEHE44-.LEHB44
	.uleb128 .L1610-.LFB6878
	.uleb128 0
	.uleb128 .LEHB45-.LFB6878
	.uleb128 .LEHE45-.LEHB45
	.uleb128 .L1615-.LFB6878
	.uleb128 0
	.uleb128 .LEHB46-.LFB6878
	.uleb128 .LEHE46-.LEHB46
	.uleb128 .L1616-.LFB6878
	.uleb128 0
	.uleb128 .LEHB47-.LFB6878
	.uleb128 .LEHE47-.LEHB47
	.uleb128 .L1611-.LFB6878
	.uleb128 0
	.uleb128 .LEHB48-.LFB6878
	.uleb128 .LEHE48-.LEHB48
	.uleb128 .L1610-.LFB6878
	.uleb128 0
	.uleb128 .LEHB49-.LFB6878
	.uleb128 .LEHE49-.LEHB49
	.uleb128 .L1609-.LFB6878
	.uleb128 0
	.uleb128 .LEHB50-.LFB6878
	.uleb128 .LEHE50-.LEHB50
	.uleb128 .L1610-.LFB6878
	.uleb128 0
	.uleb128 .LEHB51-.LFB6878
	.uleb128 .LEHE51-.LEHB51
	.uleb128 0
	.uleb128 0
.LLSDACSE6878:
	.text
	.size	_ZN7asiopal10ThreadPoolC2ERKN7openpal6LoggerERKSt10shared_ptrINS_2IOEEjSt8functionIFvvEESC_, .-_ZN7asiopal10ThreadPoolC2ERKN7openpal6LoggerERKSt10shared_ptrINS_2IOEEjSt8functionIFvvEESC_
	.globl	_ZN7asiopal10ThreadPoolC1ERKN7openpal6LoggerERKSt10shared_ptrINS_2IOEEjSt8functionIFvvEESC_
	.set	_ZN7asiopal10ThreadPoolC1ERKN7openpal6LoggerERKSt10shared_ptrINS_2IOEEjSt8functionIFvvEESC_,_ZN7asiopal10ThreadPoolC2ERKN7openpal6LoggerERKSt10shared_ptrINS_2IOEEjSt8functionIFvvEESC_
	.section	.text.startup,"ax",@progbits
	.p2align 4,,15
	.type	_GLOBAL__sub_I_ThreadPool.cpp, @function
_GLOBAL__sub_I_ThreadPool.cpp:
.LFB9491:
	.cfi_startproc
	pushq	%rbx
	.cfi_def_cfa_offset 16
	.cfi_offset 3, -16
	movq	_ZGVZN4asio15system_categoryEvE8instance@GOTPCREL(%rip), %rbx
	movzbl	(%rbx), %eax
	testb	%al, %al
	je	.L1751
.L1721:
	movq	_ZGVZN4asio5error18get_netdb_categoryEvE8instance@GOTPCREL(%rip), %rbx
	movzbl	(%rbx), %eax
	testb	%al, %al
	je	.L1752
.L1724:
	movq	_ZGVZN4asio5error21get_addrinfo_categoryEvE8instance@GOTPCREL(%rip), %rbx
	movzbl	(%rbx), %eax
	testb	%al, %al
	je	.L1753
.L1727:
	movq	_ZGVZN4asio5error17get_misc_categoryEvE8instance@GOTPCREL(%rip), %rbx
	movzbl	(%rbx), %eax
	testb	%al, %al
	je	.L1754
.L1730:
	movq	_ZGVN4asio6detail10call_stackINS0_15task_io_serviceENS0_27task_io_service_thread_infoEE4top_E@GOTPCREL(%rip), %rax
	cmpb	$0, (%rax)
	je	.L1755
.L1732:
	movq	_ZGVN4asio6detail12service_baseINS0_13epoll_reactorEE2idE@GOTPCREL(%rip), %rax
	cmpb	$0, (%rax)
	je	.L1756
.L1733:
	movq	_ZGVN4asio6detail12service_baseINS0_15task_io_serviceEE2idE@GOTPCREL(%rip), %rax
	cmpb	$0, (%rax)
	je	.L1757
.L1734:
	movq	_ZGVN4asio6detail10call_stackINS0_14strand_service11strand_implEhE4top_E@GOTPCREL(%rip), %rax
	cmpb	$0, (%rax)
	je	.L1758
.L1735:
	movq	_ZGVN4asio6detail12service_baseINS0_14strand_serviceEE2idE@GOTPCREL(%rip), %rax
	cmpb	$0, (%rax)
	je	.L1759
.L1736:
	movq	_ZGVN4asio6detail12service_baseINS_22waitable_timer_serviceINSt6chrono3_V212steady_clockENS_11wait_traitsIS5_EEEEE2idE@GOTPCREL(%rip), %rax
	cmpb	$0, (%rax)
	je	.L1760
	popq	%rbx
	.cfi_remember_state
	.cfi_def_cfa_offset 8
	ret
.L1751:
	.cfi_restore_state
	movq	%rbx, %rdi
	call	__cxa_guard_acquire@PLT
	testl	%eax, %eax
	je	.L1721
	movq	%rbx, %rdi
	call	__cxa_guard_release@PLT
	movq	_ZZN4asio15system_categoryEvE8instance@GOTPCREL(%rip), %rsi
	movq	_ZN4asio6detail15system_categoryD1Ev@GOTPCREL(%rip), %rdi
	leaq	__dso_handle(%rip), %rdx
	call	__cxa_atexit@PLT
	jmp	.L1721
.L1760:
	movb	$1, (%rax)
	movq	_ZN4asio6detail12service_baseINS_22waitable_timer_serviceINSt6chrono3_V212steady_clockENS_11wait_traitsIS5_EEEEE2idE@GOTPCREL(%rip), %rsi
	leaq	__dso_handle(%rip), %rdx
	popq	%rbx
	.cfi_remember_state
	.cfi_def_cfa_offset 8
	movq	_ZN4asio6detail10service_idINS_22waitable_timer_serviceINSt6chrono3_V212steady_clockENS_11wait_traitsIS5_EEEEED1Ev@GOTPCREL(%rip), %rdi
	jmp	__cxa_atexit@PLT
.L1754:
	.cfi_restore_state
	movq	%rbx, %rdi
	call	__cxa_guard_acquire@PLT
	testl	%eax, %eax
	je	.L1730
	movq	%rbx, %rdi
	call	__cxa_guard_release@PLT
	movq	_ZZN4asio5error17get_misc_categoryEvE8instance@GOTPCREL(%rip), %rsi
	movq	_ZN4asio5error6detail13misc_categoryD1Ev@GOTPCREL(%rip), %rdi
	leaq	__dso_handle(%rip), %rdx
	call	__cxa_atexit@PLT
	jmp	.L1730
.L1753:
	movq	%rbx, %rdi
	call	__cxa_guard_acquire@PLT
	testl	%eax, %eax
	je	.L1727
	movq	%rbx, %rdi
	call	__cxa_guard_release@PLT
	movq	_ZZN4asio5error21get_addrinfo_categoryEvE8instance@GOTPCREL(%rip), %rsi
	movq	_ZN4asio5error6detail17addrinfo_categoryD1Ev@GOTPCREL(%rip), %rdi
	leaq	__dso_handle(%rip), %rdx
	call	__cxa_atexit@PLT
	jmp	.L1727
.L1752:
	movq	%rbx, %rdi
	call	__cxa_guard_acquire@PLT
	testl	%eax, %eax
	je	.L1724
	movq	%rbx, %rdi
	call	__cxa_guard_release@PLT
	movq	_ZZN4asio5error18get_netdb_categoryEvE8instance@GOTPCREL(%rip), %rsi
	movq	_ZN4asio5error6detail14netdb_categoryD1Ev@GOTPCREL(%rip), %rdi
	leaq	__dso_handle(%rip), %rdx
	call	__cxa_atexit@PLT
	jmp	.L1724
.L1755:
	movq	_ZN4asio6detail10call_stackINS0_15task_io_serviceENS0_27task_io_service_thread_infoEE4top_E@GOTPCREL(%rip), %rsi
	movq	_ZN4asio6detail7tss_ptrINS0_10call_stackINS0_15task_io_serviceENS0_27task_io_service_thread_infoEE7contextEED1Ev@GOTPCREL(%rip), %rdi
	leaq	__dso_handle(%rip), %rdx
	movb	$1, (%rax)
	call	__cxa_atexit@PLT
	jmp	.L1732
.L1759:
	movq	_ZN4asio6detail12service_baseINS0_14strand_serviceEE2idE@GOTPCREL(%rip), %rsi
	movq	_ZN4asio6detail10service_idINS0_14strand_serviceEED1Ev@GOTPCREL(%rip), %rdi
	leaq	__dso_handle(%rip), %rdx
	movb	$1, (%rax)
	call	__cxa_atexit@PLT
	jmp	.L1736
.L1758:
	movq	_ZN4asio6detail10call_stackINS0_14strand_service11strand_implEhE4top_E@GOTPCREL(%rip), %rsi
	movq	_ZN4asio6detail7tss_ptrINS0_10call_stackINS0_14strand_service11strand_implEhE7contextEED1Ev@GOTPCREL(%rip), %rdi
	leaq	__dso_handle(%rip), %rdx
	movb	$1, (%rax)
	call	__cxa_atexit@PLT
	jmp	.L1735
.L1757:
	movq	_ZN4asio6detail12service_baseINS0_15task_io_serviceEE2idE@GOTPCREL(%rip), %rsi
	movq	_ZN4asio6detail10service_idINS0_15task_io_serviceEED1Ev@GOTPCREL(%rip), %rdi
	leaq	__dso_handle(%rip), %rdx
	movb	$1, (%rax)
	call	__cxa_atexit@PLT
	jmp	.L1734
.L1756:
	movq	_ZN4asio6detail12service_baseINS0_13epoll_reactorEE2idE@GOTPCREL(%rip), %rsi
	movq	_ZN4asio6detail10service_idINS0_13epoll_reactorEED1Ev@GOTPCREL(%rip), %rdi
	leaq	__dso_handle(%rip), %rdx
	movb	$1, (%rax)
	call	__cxa_atexit@PLT
	jmp	.L1733
	.cfi_endproc
.LFE9491:
	.size	_GLOBAL__sub_I_ThreadPool.cpp, .-_GLOBAL__sub_I_ThreadPool.cpp
	.section	.init_array,"aw"
	.align 8
	.quad	_GLOBAL__sub_I_ThreadPool.cpp
	.weak	_ZTSN4asio6detail11noncopyableE
	.section	.rodata._ZTSN4asio6detail11noncopyableE,"aG",@progbits,_ZTSN4asio6detail11noncopyableE,comdat
	.align 16
	.type	_ZTSN4asio6detail11noncopyableE, @object
	.size	_ZTSN4asio6detail11noncopyableE, 28
_ZTSN4asio6detail11noncopyableE:
	.string	"N4asio6detail11noncopyableE"
	.weak	_ZTIN4asio6detail11noncopyableE
	.section	.data.rel.ro._ZTIN4asio6detail11noncopyableE,"awG",@progbits,_ZTIN4asio6detail11noncopyableE,comdat
	.align 8
	.type	_ZTIN4asio6detail11noncopyableE, @object
	.size	_ZTIN4asio6detail11noncopyableE, 16
_ZTIN4asio6detail11noncopyableE:
	.quad	_ZTVN10__cxxabiv117__class_type_infoE+16
	.quad	_ZTSN4asio6detail11noncopyableE
	.weak	_ZGVN4asio6detail12service_baseINS_22waitable_timer_serviceINSt6chrono3_V212steady_clockENS_11wait_traitsIS5_EEEEE2idE
	.section	.bss._ZGVN4asio6detail12service_baseINS_22waitable_timer_serviceINSt6chrono3_V212steady_clockENS_11wait_traitsIS5_EEEEE2idE,"awG",@nobits,_ZGVN4asio6detail12service_baseINS_22waitable_timer_serviceINSt6chrono3_V212steady_clockENS_11wait_traitsIS5_EEEEE2idE,comdat
	.align 8
	.type	_ZGVN4asio6detail12service_baseINS_22waitable_timer_serviceINSt6chrono3_V212steady_clockENS_11wait_traitsIS5_EEEEE2idE, @gnu_unique_object
	.size	_ZGVN4asio6detail12service_baseINS_22waitable_timer_serviceINSt6chrono3_V212steady_clockENS_11wait_traitsIS5_EEEEE2idE, 8
_ZGVN4asio6detail12service_baseINS_22waitable_timer_serviceINSt6chrono3_V212steady_clockENS_11wait_traitsIS5_EEEEE2idE:
	.zero	8
	.weak	_ZGVN4asio6detail12service_baseINS0_14strand_serviceEE2idE
	.section	.bss._ZGVN4asio6detail12service_baseINS0_14strand_serviceEE2idE,"awG",@nobits,_ZGVN4asio6detail12service_baseINS0_14strand_serviceEE2idE,comdat
	.align 8
	.type	_ZGVN4asio6detail12service_baseINS0_14strand_serviceEE2idE, @gnu_unique_object
	.size	_ZGVN4asio6detail12service_baseINS0_14strand_serviceEE2idE, 8
_ZGVN4asio6detail12service_baseINS0_14strand_serviceEE2idE:
	.zero	8
	.weak	_ZGVN4asio6detail10call_stackINS0_14strand_service11strand_implEhE4top_E
	.section	.bss._ZGVN4asio6detail10call_stackINS0_14strand_service11strand_implEhE4top_E,"awG",@nobits,_ZGVN4asio6detail10call_stackINS0_14strand_service11strand_implEhE4top_E,comdat
	.align 8
	.type	_ZGVN4asio6detail10call_stackINS0_14strand_service11strand_implEhE4top_E, @gnu_unique_object
	.size	_ZGVN4asio6detail10call_stackINS0_14strand_service11strand_implEhE4top_E, 8
_ZGVN4asio6detail10call_stackINS0_14strand_service11strand_implEhE4top_E:
	.zero	8
	.weak	_ZGVN4asio6detail12service_baseINS0_15task_io_serviceEE2idE
	.section	.bss._ZGVN4asio6detail12service_baseINS0_15task_io_serviceEE2idE,"awG",@nobits,_ZGVN4asio6detail12service_baseINS0_15task_io_serviceEE2idE,comdat
	.align 8
	.type	_ZGVN4asio6detail12service_baseINS0_15task_io_serviceEE2idE, @gnu_unique_object
	.size	_ZGVN4asio6detail12service_baseINS0_15task_io_serviceEE2idE, 8
_ZGVN4asio6detail12service_baseINS0_15task_io_serviceEE2idE:
	.zero	8
	.weak	_ZGVN4asio6detail12service_baseINS0_13epoll_reactorEE2idE
	.section	.bss._ZGVN4asio6detail12service_baseINS0_13epoll_reactorEE2idE,"awG",@nobits,_ZGVN4asio6detail12service_baseINS0_13epoll_reactorEE2idE,comdat
	.align 8
	.type	_ZGVN4asio6detail12service_baseINS0_13epoll_reactorEE2idE, @gnu_unique_object
	.size	_ZGVN4asio6detail12service_baseINS0_13epoll_reactorEE2idE, 8
_ZGVN4asio6detail12service_baseINS0_13epoll_reactorEE2idE:
	.zero	8
	.weak	_ZGVN4asio6detail10call_stackINS0_15task_io_serviceENS0_27task_io_service_thread_infoEE4top_E
	.section	.bss._ZGVN4asio6detail10call_stackINS0_15task_io_serviceENS0_27task_io_service_thread_infoEE4top_E,"awG",@nobits,_ZGVN4asio6detail10call_stackINS0_15task_io_serviceENS0_27task_io_service_thread_infoEE4top_E,comdat
	.align 8
	.type	_ZGVN4asio6detail10call_stackINS0_15task_io_serviceENS0_27task_io_service_thread_infoEE4top_E, @gnu_unique_object
	.size	_ZGVN4asio6detail10call_stackINS0_15task_io_serviceENS0_27task_io_service_thread_infoEE4top_E, 8
_ZGVN4asio6detail10call_stackINS0_15task_io_serviceENS0_27task_io_service_thread_infoEE4top_E:
	.zero	8
	.weak	_ZN4asio6detail12service_baseINS_22waitable_timer_serviceINSt6chrono3_V212steady_clockENS_11wait_traitsIS5_EEEEE2idE
	.section	.bss._ZN4asio6detail12service_baseINS_22waitable_timer_serviceINSt6chrono3_V212steady_clockENS_11wait_traitsIS5_EEEEE2idE,"awG",@nobits,_ZN4asio6detail12service_baseINS_22waitable_timer_serviceINSt6chrono3_V212steady_clockENS_11wait_traitsIS5_EEEEE2idE,comdat
	.type	_ZN4asio6detail12service_baseINS_22waitable_timer_serviceINSt6chrono3_V212steady_clockENS_11wait_traitsIS5_EEEEE2idE, @gnu_unique_object
	.size	_ZN4asio6detail12service_baseINS_22waitable_timer_serviceINSt6chrono3_V212steady_clockENS_11wait_traitsIS5_EEEEE2idE, 1
_ZN4asio6detail12service_baseINS_22waitable_timer_serviceINSt6chrono3_V212steady_clockENS_11wait_traitsIS5_EEEEE2idE:
	.zero	1
	.weak	_ZN4asio6detail12service_baseINS0_14strand_serviceEE2idE
	.section	.bss._ZN4asio6detail12service_baseINS0_14strand_serviceEE2idE,"awG",@nobits,_ZN4asio6detail12service_baseINS0_14strand_serviceEE2idE,comdat
	.type	_ZN4asio6detail12service_baseINS0_14strand_serviceEE2idE, @gnu_unique_object
	.size	_ZN4asio6detail12service_baseINS0_14strand_serviceEE2idE, 1
_ZN4asio6detail12service_baseINS0_14strand_serviceEE2idE:
	.zero	1
	.weak	_ZN4asio6detail10call_stackINS0_14strand_service11strand_implEhE4top_E
	.section	.bss._ZN4asio6detail10call_stackINS0_14strand_service11strand_implEhE4top_E,"awG",@nobits,_ZN4asio6detail10call_stackINS0_14strand_service11strand_implEhE4top_E,comdat
	.type	_ZN4asio6detail10call_stackINS0_14strand_service11strand_implEhE4top_E, @gnu_unique_object
	.size	_ZN4asio6detail10call_stackINS0_14strand_service11strand_implEhE4top_E, 1
_ZN4asio6detail10call_stackINS0_14strand_service11strand_implEhE4top_E:
	.zero	1
	.weak	_ZN4asio6detail12service_baseINS0_15task_io_serviceEE2idE
	.section	.bss._ZN4asio6detail12service_baseINS0_15task_io_serviceEE2idE,"awG",@nobits,_ZN4asio6detail12service_baseINS0_15task_io_serviceEE2idE,comdat
	.type	_ZN4asio6detail12service_baseINS0_15task_io_serviceEE2idE, @gnu_unique_object
	.size	_ZN4asio6detail12service_baseINS0_15task_io_serviceEE2idE, 1
_ZN4asio6detail12service_baseINS0_15task_io_serviceEE2idE:
	.zero	1
	.weak	_ZN4asio6detail12service_baseINS0_13epoll_reactorEE2idE
	.section	.bss._ZN4asio6detail12service_baseINS0_13epoll_reactorEE2idE,"awG",@nobits,_ZN4asio6detail12service_baseINS0_13epoll_reactorEE2idE,comdat
	.type	_ZN4asio6detail12service_baseINS0_13epoll_reactorEE2idE, @gnu_unique_object
	.size	_ZN4asio6detail12service_baseINS0_13epoll_reactorEE2idE, 1
_ZN4asio6detail12service_baseINS0_13epoll_reactorEE2idE:
	.zero	1
	.weak	_ZN4asio6detail10call_stackINS0_15task_io_serviceENS0_27task_io_service_thread_infoEE4top_E
	.section	.bss._ZN4asio6detail10call_stackINS0_15task_io_serviceENS0_27task_io_service_thread_infoEE4top_E,"awG",@nobits,_ZN4asio6detail10call_stackINS0_15task_io_serviceENS0_27task_io_service_thread_infoEE4top_E,comdat
	.type	_ZN4asio6detail10call_stackINS0_15task_io_serviceENS0_27task_io_service_thread_infoEE4top_E, @gnu_unique_object
	.size	_ZN4asio6detail10call_stackINS0_15task_io_serviceENS0_27task_io_service_thread_infoEE4top_E, 1
_ZN4asio6detail10call_stackINS0_15task_io_serviceENS0_27task_io_service_thread_infoEE4top_E:
	.zero	1
	.weak	_ZTSN4asio6detail15system_categoryE
	.section	.rodata._ZTSN4asio6detail15system_categoryE,"aG",@progbits,_ZTSN4asio6detail15system_categoryE,comdat
	.align 32
	.type	_ZTSN4asio6detail15system_categoryE, @object
	.size	_ZTSN4asio6detail15system_categoryE, 32
_ZTSN4asio6detail15system_categoryE:
	.string	"N4asio6detail15system_categoryE"
	.weak	_ZTIN4asio6detail15system_categoryE
	.section	.data.rel.ro._ZTIN4asio6detail15system_categoryE,"awG",@progbits,_ZTIN4asio6detail15system_categoryE,comdat
	.align 8
	.type	_ZTIN4asio6detail15system_categoryE, @object
	.size	_ZTIN4asio6detail15system_categoryE, 24
_ZTIN4asio6detail15system_categoryE:
	.quad	_ZTVN10__cxxabiv120__si_class_type_infoE+16
	.quad	_ZTSN4asio6detail15system_categoryE
	.quad	_ZTINSt3_V214error_categoryE
	.weak	_ZTSN4asio10io_service7serviceE
	.section	.rodata._ZTSN4asio10io_service7serviceE,"aG",@progbits,_ZTSN4asio10io_service7serviceE,comdat
	.align 16
	.type	_ZTSN4asio10io_service7serviceE, @object
	.size	_ZTSN4asio10io_service7serviceE, 28
_ZTSN4asio10io_service7serviceE:
	.string	"N4asio10io_service7serviceE"
	.weak	_ZTIN4asio10io_service7serviceE
	.section	.data.rel.ro._ZTIN4asio10io_service7serviceE,"awG",@progbits,_ZTIN4asio10io_service7serviceE,comdat
	.align 8
	.type	_ZTIN4asio10io_service7serviceE, @object
	.size	_ZTIN4asio10io_service7serviceE, 40
_ZTIN4asio10io_service7serviceE:
	.quad	_ZTVN10__cxxabiv121__vmi_class_type_infoE+16
	.quad	_ZTSN4asio10io_service7serviceE
	.long	0
	.long	1
	.quad	_ZTIN4asio6detail11noncopyableE
	.quad	0
	.weak	_ZTSN4asio5error6detail14netdb_categoryE
	.section	.rodata._ZTSN4asio5error6detail14netdb_categoryE,"aG",@progbits,_ZTSN4asio5error6detail14netdb_categoryE,comdat
	.align 32
	.type	_ZTSN4asio5error6detail14netdb_categoryE, @object
	.size	_ZTSN4asio5error6detail14netdb_categoryE, 37
_ZTSN4asio5error6detail14netdb_categoryE:
	.string	"N4asio5error6detail14netdb_categoryE"
	.weak	_ZTIN4asio5error6detail14netdb_categoryE
	.section	.data.rel.ro._ZTIN4asio5error6detail14netdb_categoryE,"awG",@progbits,_ZTIN4asio5error6detail14netdb_categoryE,comdat
	.align 8
	.type	_ZTIN4asio5error6detail14netdb_categoryE, @object
	.size	_ZTIN4asio5error6detail14netdb_categoryE, 24
_ZTIN4asio5error6detail14netdb_categoryE:
	.quad	_ZTVN10__cxxabiv120__si_class_type_infoE+16
	.quad	_ZTSN4asio5error6detail14netdb_categoryE
	.quad	_ZTINSt3_V214error_categoryE
	.weak	_ZTSN4asio5error6detail17addrinfo_categoryE
	.section	.rodata._ZTSN4asio5error6detail17addrinfo_categoryE,"aG",@progbits,_ZTSN4asio5error6detail17addrinfo_categoryE,comdat
	.align 32
	.type	_ZTSN4asio5error6detail17addrinfo_categoryE, @object
	.size	_ZTSN4asio5error6detail17addrinfo_categoryE, 40
_ZTSN4asio5error6detail17addrinfo_categoryE:
	.string	"N4asio5error6detail17addrinfo_categoryE"
	.weak	_ZTIN4asio5error6detail17addrinfo_categoryE
	.section	.data.rel.ro._ZTIN4asio5error6detail17addrinfo_categoryE,"awG",@progbits,_ZTIN4asio5error6detail17addrinfo_categoryE,comdat
	.align 8
	.type	_ZTIN4asio5error6detail17addrinfo_categoryE, @object
	.size	_ZTIN4asio5error6detail17addrinfo_categoryE, 24
_ZTIN4asio5error6detail17addrinfo_categoryE:
	.quad	_ZTVN10__cxxabiv120__si_class_type_infoE+16
	.quad	_ZTSN4asio5error6detail17addrinfo_categoryE
	.quad	_ZTINSt3_V214error_categoryE
	.weak	_ZTSN4asio5error6detail13misc_categoryE
	.section	.rodata._ZTSN4asio5error6detail13misc_categoryE,"aG",@progbits,_ZTSN4asio5error6detail13misc_categoryE,comdat
	.align 32
	.type	_ZTSN4asio5error6detail13misc_categoryE, @object
	.size	_ZTSN4asio5error6detail13misc_categoryE, 36
_ZTSN4asio5error6detail13misc_categoryE:
	.string	"N4asio5error6detail13misc_categoryE"
	.weak	_ZTIN4asio5error6detail13misc_categoryE
	.section	.data.rel.ro._ZTIN4asio5error6detail13misc_categoryE,"awG",@progbits,_ZTIN4asio5error6detail13misc_categoryE,comdat
	.align 8
	.type	_ZTIN4asio5error6detail13misc_categoryE, @object
	.size	_ZTIN4asio5error6detail13misc_categoryE, 24
_ZTIN4asio5error6detail13misc_categoryE:
	.quad	_ZTVN10__cxxabiv120__si_class_type_infoE+16
	.quad	_ZTSN4asio5error6detail13misc_categoryE
	.quad	_ZTINSt3_V214error_categoryE
	.weak	_ZTSN4asio6detail16timer_queue_baseE
	.section	.rodata._ZTSN4asio6detail16timer_queue_baseE,"aG",@progbits,_ZTSN4asio6detail16timer_queue_baseE,comdat
	.align 32
	.type	_ZTSN4asio6detail16timer_queue_baseE, @object
	.size	_ZTSN4asio6detail16timer_queue_baseE, 33
_ZTSN4asio6detail16timer_queue_baseE:
	.string	"N4asio6detail16timer_queue_baseE"
	.weak	_ZTIN4asio6detail16timer_queue_baseE
	.section	.data.rel.ro._ZTIN4asio6detail16timer_queue_baseE,"awG",@progbits,_ZTIN4asio6detail16timer_queue_baseE,comdat
	.align 8
	.type	_ZTIN4asio6detail16timer_queue_baseE, @object
	.size	_ZTIN4asio6detail16timer_queue_baseE, 40
_ZTIN4asio6detail16timer_queue_baseE:
	.quad	_ZTVN10__cxxabiv121__vmi_class_type_infoE+16
	.quad	_ZTSN4asio6detail16timer_queue_baseE
	.long	0
	.long	1
	.quad	_ZTIN4asio6detail11noncopyableE
	.quad	0
	.weak	_ZTSN4asio6detail12service_baseINS0_13epoll_reactorEEE
	.section	.rodata._ZTSN4asio6detail12service_baseINS0_13epoll_reactorEEE,"aG",@progbits,_ZTSN4asio6detail12service_baseINS0_13epoll_reactorEEE,comdat
	.align 32
	.type	_ZTSN4asio6detail12service_baseINS0_13epoll_reactorEEE, @object
	.size	_ZTSN4asio6detail12service_baseINS0_13epoll_reactorEEE, 51
_ZTSN4asio6detail12service_baseINS0_13epoll_reactorEEE:
	.string	"N4asio6detail12service_baseINS0_13epoll_reactorEEE"
	.weak	_ZTIN4asio6detail12service_baseINS0_13epoll_reactorEEE
	.section	.data.rel.ro._ZTIN4asio6detail12service_baseINS0_13epoll_reactorEEE,"awG",@progbits,_ZTIN4asio6detail12service_baseINS0_13epoll_reactorEEE,comdat
	.align 8
	.type	_ZTIN4asio6detail12service_baseINS0_13epoll_reactorEEE, @object
	.size	_ZTIN4asio6detail12service_baseINS0_13epoll_reactorEEE, 24
_ZTIN4asio6detail12service_baseINS0_13epoll_reactorEEE:
	.quad	_ZTVN10__cxxabiv120__si_class_type_infoE+16
	.quad	_ZTSN4asio6detail12service_baseINS0_13epoll_reactorEEE
	.quad	_ZTIN4asio10io_service7serviceE
	.weak	_ZTSN4asio6detail13epoll_reactorE
	.section	.rodata._ZTSN4asio6detail13epoll_reactorE,"aG",@progbits,_ZTSN4asio6detail13epoll_reactorE,comdat
	.align 16
	.type	_ZTSN4asio6detail13epoll_reactorE, @object
	.size	_ZTSN4asio6detail13epoll_reactorE, 30
_ZTSN4asio6detail13epoll_reactorE:
	.string	"N4asio6detail13epoll_reactorE"
	.weak	_ZTIN4asio6detail13epoll_reactorE
	.section	.data.rel.ro._ZTIN4asio6detail13epoll_reactorE,"awG",@progbits,_ZTIN4asio6detail13epoll_reactorE,comdat
	.align 8
	.type	_ZTIN4asio6detail13epoll_reactorE, @object
	.size	_ZTIN4asio6detail13epoll_reactorE, 24
_ZTIN4asio6detail13epoll_reactorE:
	.quad	_ZTVN10__cxxabiv120__si_class_type_infoE+16
	.quad	_ZTSN4asio6detail13epoll_reactorE
	.quad	_ZTIN4asio6detail12service_baseINS0_13epoll_reactorEEE
	.weak	_ZTSN4asio6detail12service_baseINS_22waitable_timer_serviceINSt6chrono3_V212steady_clockENS_11wait_traitsIS5_EEEEEE
	.section	.rodata._ZTSN4asio6detail12service_baseINS_22waitable_timer_serviceINSt6chrono3_V212steady_clockENS_11wait_traitsIS5_EEEEEE,"aG",@progbits,_ZTSN4asio6detail12service_baseINS_22waitable_timer_serviceINSt6chrono3_V212steady_clockENS_11wait_traitsIS5_EEEEEE,comdat
	.align 32
	.type	_ZTSN4asio6detail12service_baseINS_22waitable_timer_serviceINSt6chrono3_V212steady_clockENS_11wait_traitsIS5_EEEEEE, @object
	.size	_ZTSN4asio6detail12service_baseINS_22waitable_timer_serviceINSt6chrono3_V212steady_clockENS_11wait_traitsIS5_EEEEEE, 112
_ZTSN4asio6detail12service_baseINS_22waitable_timer_serviceINSt6chrono3_V212steady_clockENS_11wait_traitsIS5_EEEEEE:
	.string	"N4asio6detail12service_baseINS_22waitable_timer_serviceINSt6chrono3_V212steady_clockENS_11wait_traitsIS5_EEEEEE"
	.weak	_ZTIN4asio6detail12service_baseINS_22waitable_timer_serviceINSt6chrono3_V212steady_clockENS_11wait_traitsIS5_EEEEEE
	.section	.data.rel.ro._ZTIN4asio6detail12service_baseINS_22waitable_timer_serviceINSt6chrono3_V212steady_clockENS_11wait_traitsIS5_EEEEEE,"awG",@progbits,_ZTIN4asio6detail12service_baseINS_22waitable_timer_serviceINSt6chrono3_V212steady_clockENS_11wait_traitsIS5_EEEEEE,comdat
	.align 8
	.type	_ZTIN4asio6detail12service_baseINS_22waitable_timer_serviceINSt6chrono3_V212steady_clockENS_11wait_traitsIS5_EEEEEE, @object
	.size	_ZTIN4asio6detail12service_baseINS_22waitable_timer_serviceINSt6chrono3_V212steady_clockENS_11wait_traitsIS5_EEEEEE, 24
_ZTIN4asio6detail12service_baseINS_22waitable_timer_serviceINSt6chrono3_V212steady_clockENS_11wait_traitsIS5_EEEEEE:
	.quad	_ZTVN10__cxxabiv120__si_class_type_infoE+16
	.quad	_ZTSN4asio6detail12service_baseINS_22waitable_timer_serviceINSt6chrono3_V212steady_clockENS_11wait_traitsIS5_EEEEEE
	.quad	_ZTIN4asio10io_service7serviceE
	.weak	_ZTSN4asio6detail11timer_queueINS0_18chrono_time_traitsINSt6chrono3_V212steady_clockENS_11wait_traitsIS5_EEEEEE
	.section	.rodata._ZTSN4asio6detail11timer_queueINS0_18chrono_time_traitsINSt6chrono3_V212steady_clockENS_11wait_traitsIS5_EEEEEE,"aG",@progbits,_ZTSN4asio6detail11timer_queueINS0_18chrono_time_traitsINSt6chrono3_V212steady_clockENS_11wait_traitsIS5_EEEEEE,comdat
	.align 32
	.type	_ZTSN4asio6detail11timer_queueINS0_18chrono_time_traitsINSt6chrono3_V212steady_clockENS_11wait_traitsIS5_EEEEEE, @object
	.size	_ZTSN4asio6detail11timer_queueINS0_18chrono_time_traitsINSt6chrono3_V212steady_clockENS_11wait_traitsIS5_EEEEEE, 108
_ZTSN4asio6detail11timer_queueINS0_18chrono_time_traitsINSt6chrono3_V212steady_clockENS_11wait_traitsIS5_EEEEEE:
	.string	"N4asio6detail11timer_queueINS0_18chrono_time_traitsINSt6chrono3_V212steady_clockENS_11wait_traitsIS5_EEEEEE"
	.weak	_ZTIN4asio6detail11timer_queueINS0_18chrono_time_traitsINSt6chrono3_V212steady_clockENS_11wait_traitsIS5_EEEEEE
	.section	.data.rel.ro._ZTIN4asio6detail11timer_queueINS0_18chrono_time_traitsINSt6chrono3_V212steady_clockENS_11wait_traitsIS5_EEEEEE,"awG",@progbits,_ZTIN4asio6detail11timer_queueINS0_18chrono_time_traitsINSt6chrono3_V212steady_clockENS_11wait_traitsIS5_EEEEEE,comdat
	.align 8
	.type	_ZTIN4asio6detail11timer_queueINS0_18chrono_time_traitsINSt6chrono3_V212steady_clockENS_11wait_traitsIS5_EEEEEE, @object
	.size	_ZTIN4asio6detail11timer_queueINS0_18chrono_time_traitsINSt6chrono3_V212steady_clockENS_11wait_traitsIS5_EEEEEE, 24
_ZTIN4asio6detail11timer_queueINS0_18chrono_time_traitsINSt6chrono3_V212steady_clockENS_11wait_traitsIS5_EEEEEE:
	.quad	_ZTVN10__cxxabiv120__si_class_type_infoE+16
	.quad	_ZTSN4asio6detail11timer_queueINS0_18chrono_time_traitsINSt6chrono3_V212steady_clockENS_11wait_traitsIS5_EEEEEE
	.quad	_ZTIN4asio6detail16timer_queue_baseE
	.weak	_ZTSN4asio22waitable_timer_serviceINSt6chrono3_V212steady_clockENS_11wait_traitsIS3_EEEE
	.section	.rodata._ZTSN4asio22waitable_timer_serviceINSt6chrono3_V212steady_clockENS_11wait_traitsIS3_EEEE,"aG",@progbits,_ZTSN4asio22waitable_timer_serviceINSt6chrono3_V212steady_clockENS_11wait_traitsIS3_EEEE,comdat
	.align 32
	.type	_ZTSN4asio22waitable_timer_serviceINSt6chrono3_V212steady_clockENS_11wait_traitsIS3_EEEE, @object
	.size	_ZTSN4asio22waitable_timer_serviceINSt6chrono3_V212steady_clockENS_11wait_traitsIS3_EEEE, 85
_ZTSN4asio22waitable_timer_serviceINSt6chrono3_V212steady_clockENS_11wait_traitsIS3_EEEE:
	.string	"N4asio22waitable_timer_serviceINSt6chrono3_V212steady_clockENS_11wait_traitsIS3_EEEE"
	.weak	_ZTIN4asio22waitable_timer_serviceINSt6chrono3_V212steady_clockENS_11wait_traitsIS3_EEEE
	.section	.data.rel.ro._ZTIN4asio22waitable_timer_serviceINSt6chrono3_V212steady_clockENS_11wait_traitsIS3_EEEE,"awG",@progbits,_ZTIN4asio22waitable_timer_serviceINSt6chrono3_V212steady_clockENS_11wait_traitsIS3_EEEE,comdat
	.align 8
	.type	_ZTIN4asio22waitable_timer_serviceINSt6chrono3_V212steady_clockENS_11wait_traitsIS3_EEEE, @object
	.size	_ZTIN4asio22waitable_timer_serviceINSt6chrono3_V212steady_clockENS_11wait_traitsIS3_EEEE, 24
_ZTIN4asio22waitable_timer_serviceINSt6chrono3_V212steady_clockENS_11wait_traitsIS3_EEEE:
	.quad	_ZTVN10__cxxabiv120__si_class_type_infoE+16
	.quad	_ZTSN4asio22waitable_timer_serviceINSt6chrono3_V212steady_clockENS_11wait_traitsIS3_EEEE
	.quad	_ZTIN4asio6detail12service_baseINS_22waitable_timer_serviceINSt6chrono3_V212steady_clockENS_11wait_traitsIS5_EEEEEE
	.weak	_ZTSN4asio6detail14typeid_wrapperINS0_13epoll_reactorEEE
	.section	.rodata._ZTSN4asio6detail14typeid_wrapperINS0_13epoll_reactorEEE,"aG",@progbits,_ZTSN4asio6detail14typeid_wrapperINS0_13epoll_reactorEEE,comdat
	.align 32
	.type	_ZTSN4asio6detail14typeid_wrapperINS0_13epoll_reactorEEE, @object
	.size	_ZTSN4asio6detail14typeid_wrapperINS0_13epoll_reactorEEE, 53
_ZTSN4asio6detail14typeid_wrapperINS0_13epoll_reactorEEE:
	.string	"N4asio6detail14typeid_wrapperINS0_13epoll_reactorEEE"
	.weak	_ZTIN4asio6detail14typeid_wrapperINS0_13epoll_reactorEEE
	.section	.data.rel.ro._ZTIN4asio6detail14typeid_wrapperINS0_13epoll_reactorEEE,"awG",@progbits,_ZTIN4asio6detail14typeid_wrapperINS0_13epoll_reactorEEE,comdat
	.align 8
	.type	_ZTIN4asio6detail14typeid_wrapperINS0_13epoll_reactorEEE, @object
	.size	_ZTIN4asio6detail14typeid_wrapperINS0_13epoll_reactorEEE, 16
_ZTIN4asio6detail14typeid_wrapperINS0_13epoll_reactorEEE:
	.quad	_ZTVN10__cxxabiv117__class_type_infoE+16
	.quad	_ZTSN4asio6detail14typeid_wrapperINS0_13epoll_reactorEEE
	.section	.data.rel.ro,"aw",@progbits
	.align 8
	.type	_ZTINSt6thread11_State_implINS_8_InvokerISt5tupleIJZN7asiopal10ThreadPoolC4ERKN7openpal6LoggerERKSt10shared_ptrINS3_2IOEEjSt8functionIFvvEESG_EUlvE0_EEEEEE, @object
	.size	_ZTINSt6thread11_State_implINS_8_InvokerISt5tupleIJZN7asiopal10ThreadPoolC4ERKN7openpal6LoggerERKSt10shared_ptrINS3_2IOEEjSt8functionIFvvEESG_EUlvE0_EEEEEE, 24
_ZTINSt6thread11_State_implINS_8_InvokerISt5tupleIJZN7asiopal10ThreadPoolC4ERKN7openpal6LoggerERKSt10shared_ptrINS3_2IOEEjSt8functionIFvvEESG_EUlvE0_EEEEEE:
	.quad	_ZTVN10__cxxabiv120__si_class_type_infoE+16
	.quad	_ZTSNSt6thread11_State_implINS_8_InvokerISt5tupleIJZN7asiopal10ThreadPoolC4ERKN7openpal6LoggerERKSt10shared_ptrINS3_2IOEEjSt8functionIFvvEESG_EUlvE0_EEEEEE
	.quad	_ZTINSt6thread6_StateE
	.section	.rodata
	.align 32
	.type	_ZTSNSt6thread11_State_implINS_8_InvokerISt5tupleIJZN7asiopal10ThreadPoolC4ERKN7openpal6LoggerERKSt10shared_ptrINS3_2IOEEjSt8functionIFvvEESG_EUlvE0_EEEEEE, @object
	.size	_ZTSNSt6thread11_State_implINS_8_InvokerISt5tupleIJZN7asiopal10ThreadPoolC4ERKN7openpal6LoggerERKSt10shared_ptrINS3_2IOEEjSt8functionIFvvEESG_EUlvE0_EEEEEE, 153
_ZTSNSt6thread11_State_implINS_8_InvokerISt5tupleIJZN7asiopal10ThreadPoolC4ERKN7openpal6LoggerERKSt10shared_ptrINS3_2IOEEjSt8functionIFvvEESG_EUlvE0_EEEEEE:
	.string	"*NSt6thread11_State_implINS_8_InvokerISt5tupleIJZN7asiopal10ThreadPoolC4ERKN7openpal6LoggerERKSt10shared_ptrINS3_2IOEEjSt8functionIFvvEESG_EUlvE0_EEEEEE"
	.weak	_ZTSN4asio6detail14typeid_wrapperINS_22waitable_timer_serviceINSt6chrono3_V212steady_clockENS_11wait_traitsIS5_EEEEEE
	.section	.rodata._ZTSN4asio6detail14typeid_wrapperINS_22waitable_timer_serviceINSt6chrono3_V212steady_clockENS_11wait_traitsIS5_EEEEEE,"aG",@progbits,_ZTSN4asio6detail14typeid_wrapperINS_22waitable_timer_serviceINSt6chrono3_V212steady_clockENS_11wait_traitsIS5_EEEEEE,comdat
	.align 32
	.type	_ZTSN4asio6detail14typeid_wrapperINS_22waitable_timer_serviceINSt6chrono3_V212steady_clockENS_11wait_traitsIS5_EEEEEE, @object
	.size	_ZTSN4asio6detail14typeid_wrapperINS_22waitable_timer_serviceINSt6chrono3_V212steady_clockENS_11wait_traitsIS5_EEEEEE, 114
_ZTSN4asio6detail14typeid_wrapperINS_22waitable_timer_serviceINSt6chrono3_V212steady_clockENS_11wait_traitsIS5_EEEEEE:
	.string	"N4asio6detail14typeid_wrapperINS_22waitable_timer_serviceINSt6chrono3_V212steady_clockENS_11wait_traitsIS5_EEEEEE"
	.weak	_ZTIN4asio6detail14typeid_wrapperINS_22waitable_timer_serviceINSt6chrono3_V212steady_clockENS_11wait_traitsIS5_EEEEEE
	.section	.data.rel.ro._ZTIN4asio6detail14typeid_wrapperINS_22waitable_timer_serviceINSt6chrono3_V212steady_clockENS_11wait_traitsIS5_EEEEEE,"awG",@progbits,_ZTIN4asio6detail14typeid_wrapperINS_22waitable_timer_serviceINSt6chrono3_V212steady_clockENS_11wait_traitsIS5_EEEEEE,comdat
	.align 8
	.type	_ZTIN4asio6detail14typeid_wrapperINS_22waitable_timer_serviceINSt6chrono3_V212steady_clockENS_11wait_traitsIS5_EEEEEE, @object
	.size	_ZTIN4asio6detail14typeid_wrapperINS_22waitable_timer_serviceINSt6chrono3_V212steady_clockENS_11wait_traitsIS5_EEEEEE, 16
_ZTIN4asio6detail14typeid_wrapperINS_22waitable_timer_serviceINSt6chrono3_V212steady_clockENS_11wait_traitsIS5_EEEEEE:
	.quad	_ZTVN10__cxxabiv117__class_type_infoE+16
	.quad	_ZTSN4asio6detail14typeid_wrapperINS_22waitable_timer_serviceINSt6chrono3_V212steady_clockENS_11wait_traitsIS5_EEEEEE
	.weak	_ZTVN4asio6detail15system_categoryE
	.section	.data.rel.ro._ZTVN4asio6detail15system_categoryE,"awG",@progbits,_ZTVN4asio6detail15system_categoryE,comdat
	.align 8
	.type	_ZTVN4asio6detail15system_categoryE, @object
	.size	_ZTVN4asio6detail15system_categoryE, 80
_ZTVN4asio6detail15system_categoryE:
	.quad	0
	.quad	_ZTIN4asio6detail15system_categoryE
	.quad	_ZN4asio6detail15system_categoryD1Ev
	.quad	_ZN4asio6detail15system_categoryD0Ev
	.quad	_ZNK4asio6detail15system_category4nameEv
	.quad	_ZNKSt3_V214error_category10_M_messageB5cxx11Ei
	.quad	_ZNK4asio6detail15system_category7messageB5cxx11Ei
	.quad	_ZNKSt3_V214error_category23default_error_conditionEi
	.quad	_ZNKSt3_V214error_category10equivalentEiRKSt15error_condition
	.quad	_ZNKSt3_V214error_category10equivalentERKSt10error_codei
	.weak	_ZTVN4asio5error6detail14netdb_categoryE
	.section	.data.rel.ro._ZTVN4asio5error6detail14netdb_categoryE,"awG",@progbits,_ZTVN4asio5error6detail14netdb_categoryE,comdat
	.align 8
	.type	_ZTVN4asio5error6detail14netdb_categoryE, @object
	.size	_ZTVN4asio5error6detail14netdb_categoryE, 80
_ZTVN4asio5error6detail14netdb_categoryE:
	.quad	0
	.quad	_ZTIN4asio5error6detail14netdb_categoryE
	.quad	_ZN4asio5error6detail14netdb_categoryD1Ev
	.quad	_ZN4asio5error6detail14netdb_categoryD0Ev
	.quad	_ZNK4asio5error6detail14netdb_category4nameEv
	.quad	_ZNKSt3_V214error_category10_M_messageB5cxx11Ei
	.quad	_ZNK4asio5error6detail14netdb_category7messageB5cxx11Ei
	.quad	_ZNKSt3_V214error_category23default_error_conditionEi
	.quad	_ZNKSt3_V214error_category10equivalentEiRKSt15error_condition
	.quad	_ZNKSt3_V214error_category10equivalentERKSt10error_codei
	.weak	_ZTVN4asio5error6detail17addrinfo_categoryE
	.section	.data.rel.ro._ZTVN4asio5error6detail17addrinfo_categoryE,"awG",@progbits,_ZTVN4asio5error6detail17addrinfo_categoryE,comdat
	.align 8
	.type	_ZTVN4asio5error6detail17addrinfo_categoryE, @object
	.size	_ZTVN4asio5error6detail17addrinfo_categoryE, 80
_ZTVN4asio5error6detail17addrinfo_categoryE:
	.quad	0
	.quad	_ZTIN4asio5error6detail17addrinfo_categoryE
	.quad	_ZN4asio5error6detail17addrinfo_categoryD1Ev
	.quad	_ZN4asio5error6detail17addrinfo_categoryD0Ev
	.quad	_ZNK4asio5error6detail17addrinfo_category4nameEv
	.quad	_ZNKSt3_V214error_category10_M_messageB5cxx11Ei
	.quad	_ZNK4asio5error6detail17addrinfo_category7messageB5cxx11Ei
	.quad	_ZNKSt3_V214error_category23default_error_conditionEi
	.quad	_ZNKSt3_V214error_category10equivalentEiRKSt15error_condition
	.quad	_ZNKSt3_V214error_category10equivalentERKSt10error_codei
	.weak	_ZTVN4asio5error6detail13misc_categoryE
	.section	.data.rel.ro._ZTVN4asio5error6detail13misc_categoryE,"awG",@progbits,_ZTVN4asio5error6detail13misc_categoryE,comdat
	.align 8
	.type	_ZTVN4asio5error6detail13misc_categoryE, @object
	.size	_ZTVN4asio5error6detail13misc_categoryE, 80
_ZTVN4asio5error6detail13misc_categoryE:
	.quad	0
	.quad	_ZTIN4asio5error6detail13misc_categoryE
	.quad	_ZN4asio5error6detail13misc_categoryD1Ev
	.quad	_ZN4asio5error6detail13misc_categoryD0Ev
	.quad	_ZNK4asio5error6detail13misc_category4nameEv
	.quad	_ZNKSt3_V214error_category10_M_messageB5cxx11Ei
	.quad	_ZNK4asio5error6detail13misc_category7messageB5cxx11Ei
	.quad	_ZNKSt3_V214error_category23default_error_conditionEi
	.quad	_ZNKSt3_V214error_category10equivalentEiRKSt15error_condition
	.quad	_ZNKSt3_V214error_category10equivalentERKSt10error_codei
	.weak	_ZTVN4asio6detail13epoll_reactorE
	.section	.data.rel.ro._ZTVN4asio6detail13epoll_reactorE,"awG",@progbits,_ZTVN4asio6detail13epoll_reactorE,comdat
	.align 8
	.type	_ZTVN4asio6detail13epoll_reactorE, @object
	.size	_ZTVN4asio6detail13epoll_reactorE, 48
_ZTVN4asio6detail13epoll_reactorE:
	.quad	0
	.quad	_ZTIN4asio6detail13epoll_reactorE
	.quad	_ZN4asio6detail13epoll_reactorD1Ev
	.quad	_ZN4asio6detail13epoll_reactorD0Ev
	.quad	_ZN4asio6detail13epoll_reactor16shutdown_serviceEv
	.quad	_ZN4asio6detail13epoll_reactor12fork_serviceENS_10io_service10fork_eventE
	.weak	_ZTVN4asio6detail11timer_queueINS0_18chrono_time_traitsINSt6chrono3_V212steady_clockENS_11wait_traitsIS5_EEEEEE
	.section	.data.rel.ro._ZTVN4asio6detail11timer_queueINS0_18chrono_time_traitsINSt6chrono3_V212steady_clockENS_11wait_traitsIS5_EEEEEE,"awG",@progbits,_ZTVN4asio6detail11timer_queueINS0_18chrono_time_traitsINSt6chrono3_V212steady_clockENS_11wait_traitsIS5_EEEEEE,comdat
	.align 8
	.type	_ZTVN4asio6detail11timer_queueINS0_18chrono_time_traitsINSt6chrono3_V212steady_clockENS_11wait_traitsIS5_EEEEEE, @object
	.size	_ZTVN4asio6detail11timer_queueINS0_18chrono_time_traitsINSt6chrono3_V212steady_clockENS_11wait_traitsIS5_EEEEEE, 72
_ZTVN4asio6detail11timer_queueINS0_18chrono_time_traitsINSt6chrono3_V212steady_clockENS_11wait_traitsIS5_EEEEEE:
	.quad	0
	.quad	_ZTIN4asio6detail11timer_queueINS0_18chrono_time_traitsINSt6chrono3_V212steady_clockENS_11wait_traitsIS5_EEEEEE
	.quad	_ZN4asio6detail11timer_queueINS0_18chrono_time_traitsINSt6chrono3_V212steady_clockENS_11wait_traitsIS5_EEEEED1Ev
	.quad	_ZN4asio6detail11timer_queueINS0_18chrono_time_traitsINSt6chrono3_V212steady_clockENS_11wait_traitsIS5_EEEEED0Ev
	.quad	_ZNK4asio6detail11timer_queueINS0_18chrono_time_traitsINSt6chrono3_V212steady_clockENS_11wait_traitsIS5_EEEEE5emptyEv
	.quad	_ZNK4asio6detail11timer_queueINS0_18chrono_time_traitsINSt6chrono3_V212steady_clockENS_11wait_traitsIS5_EEEEE18wait_duration_msecEl
	.quad	_ZNK4asio6detail11timer_queueINS0_18chrono_time_traitsINSt6chrono3_V212steady_clockENS_11wait_traitsIS5_EEEEE18wait_duration_usecEl
	.quad	_ZN4asio6detail11timer_queueINS0_18chrono_time_traitsINSt6chrono3_V212steady_clockENS_11wait_traitsIS5_EEEEE16get_ready_timersERNS0_8op_queueINS0_25task_io_service_operationEEE
	.quad	_ZN4asio6detail11timer_queueINS0_18chrono_time_traitsINSt6chrono3_V212steady_clockENS_11wait_traitsIS5_EEEEE14get_all_timersERNS0_8op_queueINS0_25task_io_service_operationEEE
	.weak	_ZTVN4asio22waitable_timer_serviceINSt6chrono3_V212steady_clockENS_11wait_traitsIS3_EEEE
	.section	.data.rel.ro._ZTVN4asio22waitable_timer_serviceINSt6chrono3_V212steady_clockENS_11wait_traitsIS3_EEEE,"awG",@progbits,_ZTVN4asio22waitable_timer_serviceINSt6chrono3_V212steady_clockENS_11wait_traitsIS3_EEEE,comdat
	.align 8
	.type	_ZTVN4asio22waitable_timer_serviceINSt6chrono3_V212steady_clockENS_11wait_traitsIS3_EEEE, @object
	.size	_ZTVN4asio22waitable_timer_serviceINSt6chrono3_V212steady_clockENS_11wait_traitsIS3_EEEE, 48
_ZTVN4asio22waitable_timer_serviceINSt6chrono3_V212steady_clockENS_11wait_traitsIS3_EEEE:
	.quad	0
	.quad	_ZTIN4asio22waitable_timer_serviceINSt6chrono3_V212steady_clockENS_11wait_traitsIS3_EEEE
	.quad	_ZN4asio22waitable_timer_serviceINSt6chrono3_V212steady_clockENS_11wait_traitsIS3_EEED1Ev
	.quad	_ZN4asio22waitable_timer_serviceINSt6chrono3_V212steady_clockENS_11wait_traitsIS3_EEED0Ev
	.quad	_ZN4asio22waitable_timer_serviceINSt6chrono3_V212steady_clockENS_11wait_traitsIS3_EEE16shutdown_serviceEv
	.quad	_ZN4asio10io_service7service12fork_serviceENS0_10fork_eventE
	.section	.data.rel.ro.local,"aw",@progbits
	.align 8
	.type	_ZTVNSt6thread11_State_implINS_8_InvokerISt5tupleIJZN7asiopal10ThreadPoolC4ERKN7openpal6LoggerERKSt10shared_ptrINS3_2IOEEjSt8functionIFvvEESG_EUlvE0_EEEEEE, @object
	.size	_ZTVNSt6thread11_State_implINS_8_InvokerISt5tupleIJZN7asiopal10ThreadPoolC4ERKN7openpal6LoggerERKSt10shared_ptrINS3_2IOEEjSt8functionIFvvEESG_EUlvE0_EEEEEE, 40
_ZTVNSt6thread11_State_implINS_8_InvokerISt5tupleIJZN7asiopal10ThreadPoolC4ERKN7openpal6LoggerERKSt10shared_ptrINS3_2IOEEjSt8functionIFvvEESG_EUlvE0_EEEEEE:
	.quad	0
	.quad	_ZTINSt6thread11_State_implINS_8_InvokerISt5tupleIJZN7asiopal10ThreadPoolC4ERKN7openpal6LoggerERKSt10shared_ptrINS3_2IOEEjSt8functionIFvvEESG_EUlvE0_EEEEEE
	.quad	_ZNSt6thread11_State_implINS_8_InvokerISt5tupleIJZN7asiopal10ThreadPoolC4ERKN7openpal6LoggerERKSt10shared_ptrINS3_2IOEEjSt8functionIFvvEESG_EUlvE0_EEEEED1Ev
	.quad	_ZNSt6thread11_State_implINS_8_InvokerISt5tupleIJZN7asiopal10ThreadPoolC4ERKN7openpal6LoggerERKSt10shared_ptrINS3_2IOEEjSt8functionIFvvEESG_EUlvE0_EEEEED0Ev
	.quad	_ZNSt6thread11_State_implINS_8_InvokerISt5tupleIJZN7asiopal10ThreadPoolC4ERKN7openpal6LoggerERKSt10shared_ptrINS3_2IOEEjSt8functionIFvvEESG_EUlvE0_EEEEE6_M_runEv
	.weak	_ZGVZN4asio5error17get_misc_categoryEvE8instance
	.section	.bss._ZGVZN4asio5error17get_misc_categoryEvE8instance,"awG",@nobits,_ZGVZN4asio5error17get_misc_categoryEvE8instance,comdat
	.align 8
	.type	_ZGVZN4asio5error17get_misc_categoryEvE8instance, @gnu_unique_object
	.size	_ZGVZN4asio5error17get_misc_categoryEvE8instance, 8
_ZGVZN4asio5error17get_misc_categoryEvE8instance:
	.zero	8
	.weak	_ZZN4asio5error17get_misc_categoryEvE8instance
	.section	.data.rel._ZZN4asio5error17get_misc_categoryEvE8instance,"awG",@progbits,_ZZN4asio5error17get_misc_categoryEvE8instance,comdat
	.align 8
	.type	_ZZN4asio5error17get_misc_categoryEvE8instance, @gnu_unique_object
	.size	_ZZN4asio5error17get_misc_categoryEvE8instance, 8
_ZZN4asio5error17get_misc_categoryEvE8instance:
	.quad	_ZTVN4asio5error6detail13misc_categoryE+16
	.weak	_ZGVZN4asio5error21get_addrinfo_categoryEvE8instance
	.section	.bss._ZGVZN4asio5error21get_addrinfo_categoryEvE8instance,"awG",@nobits,_ZGVZN4asio5error21get_addrinfo_categoryEvE8instance,comdat
	.align 8
	.type	_ZGVZN4asio5error21get_addrinfo_categoryEvE8instance, @gnu_unique_object
	.size	_ZGVZN4asio5error21get_addrinfo_categoryEvE8instance, 8
_ZGVZN4asio5error21get_addrinfo_categoryEvE8instance:
	.zero	8
	.weak	_ZZN4asio5error21get_addrinfo_categoryEvE8instance
	.section	.data.rel._ZZN4asio5error21get_addrinfo_categoryEvE8instance,"awG",@progbits,_ZZN4asio5error21get_addrinfo_categoryEvE8instance,comdat
	.align 8
	.type	_ZZN4asio5error21get_addrinfo_categoryEvE8instance, @gnu_unique_object
	.size	_ZZN4asio5error21get_addrinfo_categoryEvE8instance, 8
_ZZN4asio5error21get_addrinfo_categoryEvE8instance:
	.quad	_ZTVN4asio5error6detail17addrinfo_categoryE+16
	.weak	_ZGVZN4asio5error18get_netdb_categoryEvE8instance
	.section	.bss._ZGVZN4asio5error18get_netdb_categoryEvE8instance,"awG",@nobits,_ZGVZN4asio5error18get_netdb_categoryEvE8instance,comdat
	.align 8
	.type	_ZGVZN4asio5error18get_netdb_categoryEvE8instance, @gnu_unique_object
	.size	_ZGVZN4asio5error18get_netdb_categoryEvE8instance, 8
_ZGVZN4asio5error18get_netdb_categoryEvE8instance:
	.zero	8
	.weak	_ZZN4asio5error18get_netdb_categoryEvE8instance
	.section	.data.rel._ZZN4asio5error18get_netdb_categoryEvE8instance,"awG",@progbits,_ZZN4asio5error18get_netdb_categoryEvE8instance,comdat
	.align 8
	.type	_ZZN4asio5error18get_netdb_categoryEvE8instance, @gnu_unique_object
	.size	_ZZN4asio5error18get_netdb_categoryEvE8instance, 8
_ZZN4asio5error18get_netdb_categoryEvE8instance:
	.quad	_ZTVN4asio5error6detail14netdb_categoryE+16
	.weak	_ZGVZN4asio15system_categoryEvE8instance
	.section	.bss._ZGVZN4asio15system_categoryEvE8instance,"awG",@nobits,_ZGVZN4asio15system_categoryEvE8instance,comdat
	.align 8
	.type	_ZGVZN4asio15system_categoryEvE8instance, @gnu_unique_object
	.size	_ZGVZN4asio15system_categoryEvE8instance, 8
_ZGVZN4asio15system_categoryEvE8instance:
	.zero	8
	.weak	_ZZN4asio15system_categoryEvE8instance
	.section	.data.rel._ZZN4asio15system_categoryEvE8instance,"awG",@progbits,_ZZN4asio15system_categoryEvE8instance,comdat
	.align 8
	.type	_ZZN4asio15system_categoryEvE8instance, @gnu_unique_object
	.size	_ZZN4asio15system_categoryEvE8instance, 8
_ZZN4asio15system_categoryEvE8instance:
	.quad	_ZTVN4asio6detail15system_categoryE+16
	.weak	_ZN4asio6detail15keyword_tss_ptrINS0_10call_stackINS0_15task_io_serviceENS0_27task_io_service_thread_infoEE7contextEE6value_E
	.section	.tbss._ZN4asio6detail15keyword_tss_ptrINS0_10call_stackINS0_15task_io_serviceENS0_27task_io_service_thread_infoEE7contextEE6value_E,"awTG",@nobits,_ZN4asio6detail15keyword_tss_ptrINS0_10call_stackINS0_15task_io_serviceENS0_27task_io_service_thread_infoEE7contextEE6value_E,comdat
	.align 8
	.type	_ZN4asio6detail15keyword_tss_ptrINS0_10call_stackINS0_15task_io_serviceENS0_27task_io_service_thread_infoEE7contextEE6value_E, @gnu_unique_object
	.size	_ZN4asio6detail15keyword_tss_ptrINS0_10call_stackINS0_15task_io_serviceENS0_27task_io_service_thread_infoEE7contextEE6value_E, 8
_ZN4asio6detail15keyword_tss_ptrINS0_10call_stackINS0_15task_io_serviceENS0_27task_io_service_thread_infoEE7contextEE6value_E:
	.zero	8
	.weakref	_ZL28__gthrw___pthread_key_createPjPFvPvE,__pthread_key_create
	.section	.rodata.cst16,"aM",@progbits,16
	.align 16
.LC5:
	.quad	8028075772644520015
	.quad	7310593917846626414
	.align 16
.LC6:
	.quad	2334381286471394643
	.quad	7959390400869068654
	.align 16
.LC7:
	.quad	8367816086596579155
	.quad	2338616625292734585
	.align 16
.LC8:
	.quad	7234013753529430881
	.quad	8243030355803531634
	.align 16
.LC9:
	.quad	2338615488418245701
	.quad	7959390400869068654
	.align 16
.LC10:
	.quad	7166182912791242836
	.quad	7214892426067994994
	.align 16
.LC11:
	.quad	2338616625293649263
	.quad	8031165433303558502
	.align 16
.LC12:
	.quad	7810775711721485344
	.quad	7812726531955123045
	.align 16
.LC13:
	.quad	8390045716486254408
	.quad	2891421386351273504
	.align 16
.LC14:
	.quad	7526769937477431150
	.quad	8532478930943832687
	.align 16
.LC15:
	.quad	2340027324477221221
	.quad	7020021577750243169
	.align 16
.LC16:
	.quad	8243123821706831956
	.quad	7809653110584451193
	.align 16
.LC17:
	.quad	2338623170819155049
	.quad	2338324160631043177
	.align 16
.LC18:
	.quad	7311138144931573614
	.quad	7019250824563089696
	.align 16
.LC19:
	.quad	7309955097514876993
	.quad	7809911847770287971
	.align 16
.LC20:
	.quad	2338053693894893669
	.quad	7234314212361855855
	.align 16
.LC21:
	.quad	2334956330985808928
	.quad	7310293695322153316
	.align 16
.LC22:
	.quad	8387231026764149601
	.quad	8245935278387126884
	.hidden	DW.ref.__gxx_personality_v0
	.weak	DW.ref.__gxx_personality_v0
	.section	.data.rel.local.DW.ref.__gxx_personality_v0,"awG",@progbits,DW.ref.__gxx_personality_v0,comdat
	.align 8
	.type	DW.ref.__gxx_personality_v0, @object
	.size	DW.ref.__gxx_personality_v0, 8
DW.ref.__gxx_personality_v0:
	.quad	__gxx_personality_v0
	.hidden	__dso_handle
	.ident	"GCC: (Ubuntu 7.5.0-3ubuntu1~18.04) 7.5.0"
	.section	.note.GNU-stack,"",@progbits
