	.file	"Timer.cpp"
	.text
	.section	.rodata._ZNK4asio6detail15system_category4nameEv.str1.1,"aMS",@progbits,1
.LC0:
	.string	"asio.system"
	.section	.text._ZNK4asio6detail15system_category4nameEv,"axG",@progbits,_ZNK4asio6detail15system_category4nameEv,comdat
	.align 2
	.p2align 4,,15
	.weak	_ZNK4asio6detail15system_category4nameEv
	.type	_ZNK4asio6detail15system_category4nameEv, @function
_ZNK4asio6detail15system_category4nameEv:
.LFB2185:
	.cfi_startproc
	leaq	.LC0(%rip), %rax
	ret
	.cfi_endproc
.LFE2185:
	.size	_ZNK4asio6detail15system_category4nameEv, .-_ZNK4asio6detail15system_category4nameEv
	.section	.rodata._ZNK4asio5error6detail14netdb_category4nameEv.str1.1,"aMS",@progbits,1
.LC1:
	.string	"asio.netdb"
	.section	.text._ZNK4asio5error6detail14netdb_category4nameEv,"axG",@progbits,_ZNK4asio5error6detail14netdb_category4nameEv,comdat
	.align 2
	.p2align 4,,15
	.weak	_ZNK4asio5error6detail14netdb_category4nameEv
	.type	_ZNK4asio5error6detail14netdb_category4nameEv, @function
_ZNK4asio5error6detail14netdb_category4nameEv:
.LFB2225:
	.cfi_startproc
	leaq	.LC1(%rip), %rax
	ret
	.cfi_endproc
.LFE2225:
	.size	_ZNK4asio5error6detail14netdb_category4nameEv, .-_ZNK4asio5error6detail14netdb_category4nameEv
	.section	.rodata._ZNK4asio5error6detail17addrinfo_category4nameEv.str1.1,"aMS",@progbits,1
.LC2:
	.string	"asio.addrinfo"
	.section	.text._ZNK4asio5error6detail17addrinfo_category4nameEv,"axG",@progbits,_ZNK4asio5error6detail17addrinfo_category4nameEv,comdat
	.align 2
	.p2align 4,,15
	.weak	_ZNK4asio5error6detail17addrinfo_category4nameEv
	.type	_ZNK4asio5error6detail17addrinfo_category4nameEv, @function
_ZNK4asio5error6detail17addrinfo_category4nameEv:
.LFB2231:
	.cfi_startproc
	leaq	.LC2(%rip), %rax
	ret
	.cfi_endproc
.LFE2231:
	.size	_ZNK4asio5error6detail17addrinfo_category4nameEv, .-_ZNK4asio5error6detail17addrinfo_category4nameEv
	.section	.rodata._ZNK4asio5error6detail13misc_category4nameEv.str1.1,"aMS",@progbits,1
.LC3:
	.string	"asio.misc"
	.section	.text._ZNK4asio5error6detail13misc_category4nameEv,"axG",@progbits,_ZNK4asio5error6detail13misc_category4nameEv,comdat
	.align 2
	.p2align 4,,15
	.weak	_ZNK4asio5error6detail13misc_category4nameEv
	.type	_ZNK4asio5error6detail13misc_category4nameEv, @function
_ZNK4asio5error6detail13misc_category4nameEv:
.LFB2237:
	.cfi_startproc
	leaq	.LC3(%rip), %rax
	ret
	.cfi_endproc
.LFE2237:
	.size	_ZNK4asio5error6detail13misc_category4nameEv, .-_ZNK4asio5error6detail13misc_category4nameEv
	.section	.text._ZN4asio10io_service7service12fork_serviceENS0_10fork_eventE,"axG",@progbits,_ZN4asio10io_service7service12fork_serviceENS0_10fork_eventE,comdat
	.align 2
	.p2align 4,,15
	.weak	_ZN4asio10io_service7service12fork_serviceENS0_10fork_eventE
	.type	_ZN4asio10io_service7service12fork_serviceENS0_10fork_eventE, @function
_ZN4asio10io_service7service12fork_serviceENS0_10fork_eventE:
.LFB3188:
	.cfi_startproc
	rep ret
	.cfi_endproc
.LFE3188:
	.size	_ZN4asio10io_service7service12fork_serviceENS0_10fork_eventE, .-_ZN4asio10io_service7service12fork_serviceENS0_10fork_eventE
	.section	.text._ZN4asio6detail7tss_ptrINS0_10call_stackINS0_15task_io_serviceENS0_27task_io_service_thread_infoEE7contextEED2Ev,"axG",@progbits,_ZN4asio6detail7tss_ptrINS0_10call_stackINS0_15task_io_serviceENS0_27task_io_service_thread_infoEE7contextEED5Ev,comdat
	.align 2
	.p2align 4,,15
	.weak	_ZN4asio6detail7tss_ptrINS0_10call_stackINS0_15task_io_serviceENS0_27task_io_service_thread_infoEE7contextEED2Ev
	.type	_ZN4asio6detail7tss_ptrINS0_10call_stackINS0_15task_io_serviceENS0_27task_io_service_thread_infoEE7contextEED2Ev, @function
_ZN4asio6detail7tss_ptrINS0_10call_stackINS0_15task_io_serviceENS0_27task_io_service_thread_infoEE7contextEED2Ev:
.LFB7580:
	.cfi_startproc
	rep ret
	.cfi_endproc
.LFE7580:
	.size	_ZN4asio6detail7tss_ptrINS0_10call_stackINS0_15task_io_serviceENS0_27task_io_service_thread_infoEE7contextEED2Ev, .-_ZN4asio6detail7tss_ptrINS0_10call_stackINS0_15task_io_serviceENS0_27task_io_service_thread_infoEE7contextEED2Ev
	.weak	_ZN4asio6detail7tss_ptrINS0_10call_stackINS0_15task_io_serviceENS0_27task_io_service_thread_infoEE7contextEED1Ev
	.set	_ZN4asio6detail7tss_ptrINS0_10call_stackINS0_15task_io_serviceENS0_27task_io_service_thread_infoEE7contextEED1Ev,_ZN4asio6detail7tss_ptrINS0_10call_stackINS0_15task_io_serviceENS0_27task_io_service_thread_infoEE7contextEED2Ev
	.section	.text._ZN4asio6detail10service_idINS0_13epoll_reactorEED2Ev,"axG",@progbits,_ZN4asio6detail10service_idINS0_13epoll_reactorEED5Ev,comdat
	.align 2
	.p2align 4,,15
	.weak	_ZN4asio6detail10service_idINS0_13epoll_reactorEED2Ev
	.type	_ZN4asio6detail10service_idINS0_13epoll_reactorEED2Ev, @function
_ZN4asio6detail10service_idINS0_13epoll_reactorEED2Ev:
.LFB7583:
	.cfi_startproc
	rep ret
	.cfi_endproc
.LFE7583:
	.size	_ZN4asio6detail10service_idINS0_13epoll_reactorEED2Ev, .-_ZN4asio6detail10service_idINS0_13epoll_reactorEED2Ev
	.weak	_ZN4asio6detail10service_idINS0_13epoll_reactorEED1Ev
	.set	_ZN4asio6detail10service_idINS0_13epoll_reactorEED1Ev,_ZN4asio6detail10service_idINS0_13epoll_reactorEED2Ev
	.section	.text._ZN4asio6detail10service_idINS0_15task_io_serviceEED2Ev,"axG",@progbits,_ZN4asio6detail10service_idINS0_15task_io_serviceEED5Ev,comdat
	.align 2
	.p2align 4,,15
	.weak	_ZN4asio6detail10service_idINS0_15task_io_serviceEED2Ev
	.type	_ZN4asio6detail10service_idINS0_15task_io_serviceEED2Ev, @function
_ZN4asio6detail10service_idINS0_15task_io_serviceEED2Ev:
.LFB7586:
	.cfi_startproc
	rep ret
	.cfi_endproc
.LFE7586:
	.size	_ZN4asio6detail10service_idINS0_15task_io_serviceEED2Ev, .-_ZN4asio6detail10service_idINS0_15task_io_serviceEED2Ev
	.weak	_ZN4asio6detail10service_idINS0_15task_io_serviceEED1Ev
	.set	_ZN4asio6detail10service_idINS0_15task_io_serviceEED1Ev,_ZN4asio6detail10service_idINS0_15task_io_serviceEED2Ev
	.section	.text._ZN4asio6detail7tss_ptrINS0_10call_stackINS0_14strand_service11strand_implEhE7contextEED2Ev,"axG",@progbits,_ZN4asio6detail7tss_ptrINS0_10call_stackINS0_14strand_service11strand_implEhE7contextEED5Ev,comdat
	.align 2
	.p2align 4,,15
	.weak	_ZN4asio6detail7tss_ptrINS0_10call_stackINS0_14strand_service11strand_implEhE7contextEED2Ev
	.type	_ZN4asio6detail7tss_ptrINS0_10call_stackINS0_14strand_service11strand_implEhE7contextEED2Ev, @function
_ZN4asio6detail7tss_ptrINS0_10call_stackINS0_14strand_service11strand_implEhE7contextEED2Ev:
.LFB7589:
	.cfi_startproc
	rep ret
	.cfi_endproc
.LFE7589:
	.size	_ZN4asio6detail7tss_ptrINS0_10call_stackINS0_14strand_service11strand_implEhE7contextEED2Ev, .-_ZN4asio6detail7tss_ptrINS0_10call_stackINS0_14strand_service11strand_implEhE7contextEED2Ev
	.weak	_ZN4asio6detail7tss_ptrINS0_10call_stackINS0_14strand_service11strand_implEhE7contextEED1Ev
	.set	_ZN4asio6detail7tss_ptrINS0_10call_stackINS0_14strand_service11strand_implEhE7contextEED1Ev,_ZN4asio6detail7tss_ptrINS0_10call_stackINS0_14strand_service11strand_implEhE7contextEED2Ev
	.section	.text._ZN4asio6detail10service_idINS0_14strand_serviceEED2Ev,"axG",@progbits,_ZN4asio6detail10service_idINS0_14strand_serviceEED5Ev,comdat
	.align 2
	.p2align 4,,15
	.weak	_ZN4asio6detail10service_idINS0_14strand_serviceEED2Ev
	.type	_ZN4asio6detail10service_idINS0_14strand_serviceEED2Ev, @function
_ZN4asio6detail10service_idINS0_14strand_serviceEED2Ev:
.LFB7592:
	.cfi_startproc
	rep ret
	.cfi_endproc
.LFE7592:
	.size	_ZN4asio6detail10service_idINS0_14strand_serviceEED2Ev, .-_ZN4asio6detail10service_idINS0_14strand_serviceEED2Ev
	.weak	_ZN4asio6detail10service_idINS0_14strand_serviceEED1Ev
	.set	_ZN4asio6detail10service_idINS0_14strand_serviceEED1Ev,_ZN4asio6detail10service_idINS0_14strand_serviceEED2Ev
	.section	.text._ZN4asio6detail10service_idINS_22waitable_timer_serviceINSt6chrono3_V212steady_clockENS_11wait_traitsIS5_EEEEED2Ev,"axG",@progbits,_ZN4asio6detail10service_idINS_22waitable_timer_serviceINSt6chrono3_V212steady_clockENS_11wait_traitsIS5_EEEEED5Ev,comdat
	.align 2
	.p2align 4,,15
	.weak	_ZN4asio6detail10service_idINS_22waitable_timer_serviceINSt6chrono3_V212steady_clockENS_11wait_traitsIS5_EEEEED2Ev
	.type	_ZN4asio6detail10service_idINS_22waitable_timer_serviceINSt6chrono3_V212steady_clockENS_11wait_traitsIS5_EEEEED2Ev, @function
_ZN4asio6detail10service_idINS_22waitable_timer_serviceINSt6chrono3_V212steady_clockENS_11wait_traitsIS5_EEEEED2Ev:
.LFB7595:
	.cfi_startproc
	rep ret
	.cfi_endproc
.LFE7595:
	.size	_ZN4asio6detail10service_idINS_22waitable_timer_serviceINSt6chrono3_V212steady_clockENS_11wait_traitsIS5_EEEEED2Ev, .-_ZN4asio6detail10service_idINS_22waitable_timer_serviceINSt6chrono3_V212steady_clockENS_11wait_traitsIS5_EEEEED2Ev
	.weak	_ZN4asio6detail10service_idINS_22waitable_timer_serviceINSt6chrono3_V212steady_clockENS_11wait_traitsIS5_EEEEED1Ev
	.set	_ZN4asio6detail10service_idINS_22waitable_timer_serviceINSt6chrono3_V212steady_clockENS_11wait_traitsIS5_EEEEED1Ev,_ZN4asio6detail10service_idINS_22waitable_timer_serviceINSt6chrono3_V212steady_clockENS_11wait_traitsIS5_EEEEED2Ev
	.section	.text._ZN4asio22waitable_timer_serviceINSt6chrono3_V212steady_clockENS_11wait_traitsIS3_EEE16shutdown_serviceEv,"axG",@progbits,_ZN4asio22waitable_timer_serviceINSt6chrono3_V212steady_clockENS_11wait_traitsIS3_EEE16shutdown_serviceEv,comdat
	.align 2
	.p2align 4,,15
	.weak	_ZN4asio22waitable_timer_serviceINSt6chrono3_V212steady_clockENS_11wait_traitsIS3_EEE16shutdown_serviceEv
	.type	_ZN4asio22waitable_timer_serviceINSt6chrono3_V212steady_clockENS_11wait_traitsIS3_EEE16shutdown_serviceEv, @function
_ZN4asio22waitable_timer_serviceINSt6chrono3_V212steady_clockENS_11wait_traitsIS3_EEE16shutdown_serviceEv:
.LFB7605:
	.cfi_startproc
	rep ret
	.cfi_endproc
.LFE7605:
	.size	_ZN4asio22waitable_timer_serviceINSt6chrono3_V212steady_clockENS_11wait_traitsIS3_EEE16shutdown_serviceEv, .-_ZN4asio22waitable_timer_serviceINSt6chrono3_V212steady_clockENS_11wait_traitsIS3_EEE16shutdown_serviceEv
	.section	.text._ZNK4asio6detail11timer_queueINS0_18chrono_time_traitsINSt6chrono3_V212steady_clockENS_11wait_traitsIS5_EEEEE5emptyEv,"axG",@progbits,_ZNK4asio6detail11timer_queueINS0_18chrono_time_traitsINSt6chrono3_V212steady_clockENS_11wait_traitsIS5_EEEEE5emptyEv,comdat
	.align 2
	.p2align 4,,15
	.weak	_ZNK4asio6detail11timer_queueINS0_18chrono_time_traitsINSt6chrono3_V212steady_clockENS_11wait_traitsIS5_EEEEE5emptyEv
	.type	_ZNK4asio6detail11timer_queueINS0_18chrono_time_traitsINSt6chrono3_V212steady_clockENS_11wait_traitsIS5_EEEEE5emptyEv, @function
_ZNK4asio6detail11timer_queueINS0_18chrono_time_traitsINSt6chrono3_V212steady_clockENS_11wait_traitsIS5_EEEEE5emptyEv:
.LFB7606:
	.cfi_startproc
	cmpq	$0, 16(%rdi)
	sete	%al
	ret
	.cfi_endproc
.LFE7606:
	.size	_ZNK4asio6detail11timer_queueINS0_18chrono_time_traitsINSt6chrono3_V212steady_clockENS_11wait_traitsIS5_EEEEE5emptyEv, .-_ZNK4asio6detail11timer_queueINS0_18chrono_time_traitsINSt6chrono3_V212steady_clockENS_11wait_traitsIS5_EEEEE5emptyEv
	.section	.text._ZN4asio6detail11timer_queueINS0_18chrono_time_traitsINSt6chrono3_V212steady_clockENS_11wait_traitsIS5_EEEEE14get_all_timersERNS0_8op_queueINS0_25task_io_service_operationEEE,"axG",@progbits,_ZN4asio6detail11timer_queueINS0_18chrono_time_traitsINSt6chrono3_V212steady_clockENS_11wait_traitsIS5_EEEEE14get_all_timersERNS0_8op_queueINS0_25task_io_service_operationEEE,comdat
	.align 2
	.p2align 4,,15
	.weak	_ZN4asio6detail11timer_queueINS0_18chrono_time_traitsINSt6chrono3_V212steady_clockENS_11wait_traitsIS5_EEEEE14get_all_timersERNS0_8op_queueINS0_25task_io_service_operationEEE
	.type	_ZN4asio6detail11timer_queueINS0_18chrono_time_traitsINSt6chrono3_V212steady_clockENS_11wait_traitsIS5_EEEEE14get_all_timersERNS0_8op_queueINS0_25task_io_service_operationEEE, @function
_ZN4asio6detail11timer_queueINS0_18chrono_time_traitsINSt6chrono3_V212steady_clockENS_11wait_traitsIS5_EEEEE14get_all_timersERNS0_8op_queueINS0_25task_io_service_operationEEE:
.LFB7610:
	.cfi_startproc
	movq	16(%rdi), %rax
	testq	%rax, %rax
	jne	.L20
	jmp	.L16
	.p2align 4,,10
	.p2align 3
.L29:
	movq	%rdx, (%r8)
.L19:
	movq	8(%rax), %rdx
	movq	%rdx, 8(%rsi)
	movq	$0, (%rax)
	movq	$0, 8(%rax)
.L17:
	testq	%rcx, %rcx
	movq	$0, 24(%rax)
	movq	$0, 32(%rax)
	movq	%rcx, %rax
	je	.L28
.L20:
	movq	(%rax), %rdx
	movq	24(%rax), %rcx
	testq	%rdx, %rdx
	je	.L17
	movq	8(%rsi), %r8
	testq	%r8, %r8
	jne	.L29
	movq	%rdx, (%rsi)
	jmp	.L19
.L28:
	movq	$0, 16(%rdi)
.L16:
	movq	24(%rdi), %rax
	movq	%rax, 32(%rdi)
	ret
	.cfi_endproc
.LFE7610:
	.size	_ZN4asio6detail11timer_queueINS0_18chrono_time_traitsINSt6chrono3_V212steady_clockENS_11wait_traitsIS5_EEEEE14get_all_timersERNS0_8op_queueINS0_25task_io_service_operationEEE, .-_ZN4asio6detail11timer_queueINS0_18chrono_time_traitsINSt6chrono3_V212steady_clockENS_11wait_traitsIS5_EEEEE14get_all_timersERNS0_8op_queueINS0_25task_io_service_operationEEE
	.section	.text._ZN4asio6detail15system_categoryD2Ev,"axG",@progbits,_ZN4asio6detail15system_categoryD5Ev,comdat
	.align 2
	.p2align 4,,15
	.weak	_ZN4asio6detail15system_categoryD2Ev
	.type	_ZN4asio6detail15system_categoryD2Ev, @function
_ZN4asio6detail15system_categoryD2Ev:
.LFB7559:
	.cfi_startproc
	movq	_ZTVN4asio6detail15system_categoryE@GOTPCREL(%rip), %rax
	addq	$16, %rax
	movq	%rax, (%rdi)
	jmp	_ZNSt3_V214error_categoryD2Ev@PLT
	.cfi_endproc
.LFE7559:
	.size	_ZN4asio6detail15system_categoryD2Ev, .-_ZN4asio6detail15system_categoryD2Ev
	.weak	_ZN4asio6detail15system_categoryD1Ev
	.set	_ZN4asio6detail15system_categoryD1Ev,_ZN4asio6detail15system_categoryD2Ev
	.section	.text._ZN4asio5error6detail14netdb_categoryD2Ev,"axG",@progbits,_ZN4asio5error6detail14netdb_categoryD5Ev,comdat
	.align 2
	.p2align 4,,15
	.weak	_ZN4asio5error6detail14netdb_categoryD2Ev
	.type	_ZN4asio5error6detail14netdb_categoryD2Ev, @function
_ZN4asio5error6detail14netdb_categoryD2Ev:
.LFB7547:
	.cfi_startproc
	movq	_ZTVN4asio5error6detail14netdb_categoryE@GOTPCREL(%rip), %rax
	addq	$16, %rax
	movq	%rax, (%rdi)
	jmp	_ZNSt3_V214error_categoryD2Ev@PLT
	.cfi_endproc
.LFE7547:
	.size	_ZN4asio5error6detail14netdb_categoryD2Ev, .-_ZN4asio5error6detail14netdb_categoryD2Ev
	.weak	_ZN4asio5error6detail14netdb_categoryD1Ev
	.set	_ZN4asio5error6detail14netdb_categoryD1Ev,_ZN4asio5error6detail14netdb_categoryD2Ev
	.section	.text._ZN4asio5error6detail17addrinfo_categoryD2Ev,"axG",@progbits,_ZN4asio5error6detail17addrinfo_categoryD5Ev,comdat
	.align 2
	.p2align 4,,15
	.weak	_ZN4asio5error6detail17addrinfo_categoryD2Ev
	.type	_ZN4asio5error6detail17addrinfo_categoryD2Ev, @function
_ZN4asio5error6detail17addrinfo_categoryD2Ev:
.LFB7543:
	.cfi_startproc
	movq	_ZTVN4asio5error6detail17addrinfo_categoryE@GOTPCREL(%rip), %rax
	addq	$16, %rax
	movq	%rax, (%rdi)
	jmp	_ZNSt3_V214error_categoryD2Ev@PLT
	.cfi_endproc
.LFE7543:
	.size	_ZN4asio5error6detail17addrinfo_categoryD2Ev, .-_ZN4asio5error6detail17addrinfo_categoryD2Ev
	.weak	_ZN4asio5error6detail17addrinfo_categoryD1Ev
	.set	_ZN4asio5error6detail17addrinfo_categoryD1Ev,_ZN4asio5error6detail17addrinfo_categoryD2Ev
	.section	.text._ZN4asio5error6detail13misc_categoryD2Ev,"axG",@progbits,_ZN4asio5error6detail13misc_categoryD5Ev,comdat
	.align 2
	.p2align 4,,15
	.weak	_ZN4asio5error6detail13misc_categoryD2Ev
	.type	_ZN4asio5error6detail13misc_categoryD2Ev, @function
_ZN4asio5error6detail13misc_categoryD2Ev:
.LFB7539:
	.cfi_startproc
	movq	_ZTVN4asio5error6detail13misc_categoryE@GOTPCREL(%rip), %rax
	addq	$16, %rax
	movq	%rax, (%rdi)
	jmp	_ZNSt3_V214error_categoryD2Ev@PLT
	.cfi_endproc
.LFE7539:
	.size	_ZN4asio5error6detail13misc_categoryD2Ev, .-_ZN4asio5error6detail13misc_categoryD2Ev
	.weak	_ZN4asio5error6detail13misc_categoryD1Ev
	.set	_ZN4asio5error6detail13misc_categoryD1Ev,_ZN4asio5error6detail13misc_categoryD2Ev
	.section	.text._ZN4asio6detail11timer_queueINS0_18chrono_time_traitsINSt6chrono3_V212steady_clockENS_11wait_traitsIS5_EEEEED2Ev,"axG",@progbits,_ZN4asio6detail11timer_queueINS0_18chrono_time_traitsINSt6chrono3_V212steady_clockENS_11wait_traitsIS5_EEEEED5Ev,comdat
	.align 2
	.p2align 4,,15
	.weak	_ZN4asio6detail11timer_queueINS0_18chrono_time_traitsINSt6chrono3_V212steady_clockENS_11wait_traitsIS5_EEEEED2Ev
	.type	_ZN4asio6detail11timer_queueINS0_18chrono_time_traitsINSt6chrono3_V212steady_clockENS_11wait_traitsIS5_EEEEED2Ev, @function
_ZN4asio6detail11timer_queueINS0_18chrono_time_traitsINSt6chrono3_V212steady_clockENS_11wait_traitsIS5_EEEEED2Ev:
.LFB7436:
	.cfi_startproc
	movq	_ZTVN4asio6detail11timer_queueINS0_18chrono_time_traitsINSt6chrono3_V212steady_clockENS_11wait_traitsIS5_EEEEEE@GOTPCREL(%rip), %rax
	addq	$16, %rax
	movq	%rax, (%rdi)
	movq	24(%rdi), %rdi
	testq	%rdi, %rdi
	je	.L34
	jmp	_ZdlPv@PLT
	.p2align 4,,10
	.p2align 3
.L34:
	rep ret
	.cfi_endproc
.LFE7436:
	.size	_ZN4asio6detail11timer_queueINS0_18chrono_time_traitsINSt6chrono3_V212steady_clockENS_11wait_traitsIS5_EEEEED2Ev, .-_ZN4asio6detail11timer_queueINS0_18chrono_time_traitsINSt6chrono3_V212steady_clockENS_11wait_traitsIS5_EEEEED2Ev
	.weak	_ZN4asio6detail11timer_queueINS0_18chrono_time_traitsINSt6chrono3_V212steady_clockENS_11wait_traitsIS5_EEEEED1Ev
	.set	_ZN4asio6detail11timer_queueINS0_18chrono_time_traitsINSt6chrono3_V212steady_clockENS_11wait_traitsIS5_EEEEED1Ev,_ZN4asio6detail11timer_queueINS0_18chrono_time_traitsINSt6chrono3_V212steady_clockENS_11wait_traitsIS5_EEEEED2Ev
	.section	.text._ZN4asio6detail15system_categoryD0Ev,"axG",@progbits,_ZN4asio6detail15system_categoryD5Ev,comdat
	.align 2
	.p2align 4,,15
	.weak	_ZN4asio6detail15system_categoryD0Ev
	.type	_ZN4asio6detail15system_categoryD0Ev, @function
_ZN4asio6detail15system_categoryD0Ev:
.LFB7561:
	.cfi_startproc
	movq	_ZTVN4asio6detail15system_categoryE@GOTPCREL(%rip), %rax
	pushq	%rbx
	.cfi_def_cfa_offset 16
	.cfi_offset 3, -16
	movq	%rdi, %rbx
	addq	$16, %rax
	movq	%rax, (%rdi)
	call	_ZNSt3_V214error_categoryD2Ev@PLT
	movq	%rbx, %rdi
	movl	$8, %esi
	popq	%rbx
	.cfi_def_cfa_offset 8
	jmp	_ZdlPvm@PLT
	.cfi_endproc
.LFE7561:
	.size	_ZN4asio6detail15system_categoryD0Ev, .-_ZN4asio6detail15system_categoryD0Ev
	.section	.text._ZN4asio5error6detail14netdb_categoryD0Ev,"axG",@progbits,_ZN4asio5error6detail14netdb_categoryD5Ev,comdat
	.align 2
	.p2align 4,,15
	.weak	_ZN4asio5error6detail14netdb_categoryD0Ev
	.type	_ZN4asio5error6detail14netdb_categoryD0Ev, @function
_ZN4asio5error6detail14netdb_categoryD0Ev:
.LFB7549:
	.cfi_startproc
	movq	_ZTVN4asio5error6detail14netdb_categoryE@GOTPCREL(%rip), %rax
	pushq	%rbx
	.cfi_def_cfa_offset 16
	.cfi_offset 3, -16
	movq	%rdi, %rbx
	addq	$16, %rax
	movq	%rax, (%rdi)
	call	_ZNSt3_V214error_categoryD2Ev@PLT
	movq	%rbx, %rdi
	movl	$8, %esi
	popq	%rbx
	.cfi_def_cfa_offset 8
	jmp	_ZdlPvm@PLT
	.cfi_endproc
.LFE7549:
	.size	_ZN4asio5error6detail14netdb_categoryD0Ev, .-_ZN4asio5error6detail14netdb_categoryD0Ev
	.section	.text._ZN4asio5error6detail17addrinfo_categoryD0Ev,"axG",@progbits,_ZN4asio5error6detail17addrinfo_categoryD5Ev,comdat
	.align 2
	.p2align 4,,15
	.weak	_ZN4asio5error6detail17addrinfo_categoryD0Ev
	.type	_ZN4asio5error6detail17addrinfo_categoryD0Ev, @function
_ZN4asio5error6detail17addrinfo_categoryD0Ev:
.LFB7545:
	.cfi_startproc
	movq	_ZTVN4asio5error6detail17addrinfo_categoryE@GOTPCREL(%rip), %rax
	pushq	%rbx
	.cfi_def_cfa_offset 16
	.cfi_offset 3, -16
	movq	%rdi, %rbx
	addq	$16, %rax
	movq	%rax, (%rdi)
	call	_ZNSt3_V214error_categoryD2Ev@PLT
	movq	%rbx, %rdi
	movl	$8, %esi
	popq	%rbx
	.cfi_def_cfa_offset 8
	jmp	_ZdlPvm@PLT
	.cfi_endproc
.LFE7545:
	.size	_ZN4asio5error6detail17addrinfo_categoryD0Ev, .-_ZN4asio5error6detail17addrinfo_categoryD0Ev
	.section	.text._ZN4asio5error6detail13misc_categoryD0Ev,"axG",@progbits,_ZN4asio5error6detail13misc_categoryD5Ev,comdat
	.align 2
	.p2align 4,,15
	.weak	_ZN4asio5error6detail13misc_categoryD0Ev
	.type	_ZN4asio5error6detail13misc_categoryD0Ev, @function
_ZN4asio5error6detail13misc_categoryD0Ev:
.LFB7541:
	.cfi_startproc
	movq	_ZTVN4asio5error6detail13misc_categoryE@GOTPCREL(%rip), %rax
	pushq	%rbx
	.cfi_def_cfa_offset 16
	.cfi_offset 3, -16
	movq	%rdi, %rbx
	addq	$16, %rax
	movq	%rax, (%rdi)
	call	_ZNSt3_V214error_categoryD2Ev@PLT
	movq	%rbx, %rdi
	movl	$8, %esi
	popq	%rbx
	.cfi_def_cfa_offset 8
	jmp	_ZdlPvm@PLT
	.cfi_endproc
.LFE7541:
	.size	_ZN4asio5error6detail13misc_categoryD0Ev, .-_ZN4asio5error6detail13misc_categoryD0Ev
	.section	.text._ZN4asio6detail11timer_queueINS0_18chrono_time_traitsINSt6chrono3_V212steady_clockENS_11wait_traitsIS5_EEEEED0Ev,"axG",@progbits,_ZN4asio6detail11timer_queueINS0_18chrono_time_traitsINSt6chrono3_V212steady_clockENS_11wait_traitsIS5_EEEEED5Ev,comdat
	.align 2
	.p2align 4,,15
	.weak	_ZN4asio6detail11timer_queueINS0_18chrono_time_traitsINSt6chrono3_V212steady_clockENS_11wait_traitsIS5_EEEEED0Ev
	.type	_ZN4asio6detail11timer_queueINS0_18chrono_time_traitsINSt6chrono3_V212steady_clockENS_11wait_traitsIS5_EEEEED0Ev, @function
_ZN4asio6detail11timer_queueINS0_18chrono_time_traitsINSt6chrono3_V212steady_clockENS_11wait_traitsIS5_EEEEED0Ev:
.LFB7438:
	.cfi_startproc
	movq	_ZTVN4asio6detail11timer_queueINS0_18chrono_time_traitsINSt6chrono3_V212steady_clockENS_11wait_traitsIS5_EEEEEE@GOTPCREL(%rip), %rax
	pushq	%rbx
	.cfi_def_cfa_offset 16
	.cfi_offset 3, -16
	movq	%rdi, %rbx
	addq	$16, %rax
	movq	%rax, (%rdi)
	movq	24(%rdi), %rdi
	testq	%rdi, %rdi
	je	.L45
	call	_ZdlPv@PLT
.L45:
	movq	%rbx, %rdi
	movl	$48, %esi
	popq	%rbx
	.cfi_def_cfa_offset 8
	jmp	_ZdlPvm@PLT
	.cfi_endproc
.LFE7438:
	.size	_ZN4asio6detail11timer_queueINS0_18chrono_time_traitsINSt6chrono3_V212steady_clockENS_11wait_traitsIS5_EEEEED0Ev, .-_ZN4asio6detail11timer_queueINS0_18chrono_time_traitsINSt6chrono3_V212steady_clockENS_11wait_traitsIS5_EEEEED0Ev
	.section	.text._ZN4asio22waitable_timer_serviceINSt6chrono3_V212steady_clockENS_11wait_traitsIS3_EEED0Ev,"axG",@progbits,_ZN4asio22waitable_timer_serviceINSt6chrono3_V212steady_clockENS_11wait_traitsIS3_EEED5Ev,comdat
	.align 2
	.p2align 4,,15
	.weak	_ZN4asio22waitable_timer_serviceINSt6chrono3_V212steady_clockENS_11wait_traitsIS3_EEED0Ev
	.type	_ZN4asio22waitable_timer_serviceINSt6chrono3_V212steady_clockENS_11wait_traitsIS3_EEED0Ev, @function
_ZN4asio22waitable_timer_serviceINSt6chrono3_V212steady_clockENS_11wait_traitsIS3_EEED0Ev:
.LFB7525:
	.cfi_startproc
	pushq	%r12
	.cfi_def_cfa_offset 16
	.cfi_offset 12, -16
	pushq	%rbp
	.cfi_def_cfa_offset 24
	.cfi_offset 6, -24
	pushq	%rbx
	.cfi_def_cfa_offset 32
	.cfi_offset 3, -32
	movq	88(%rdi), %rbp
	movq	%rdi, %rbx
	movq	_ZTVN4asio22waitable_timer_serviceINSt6chrono3_V212steady_clockENS_11wait_traitsIS3_EEEE@GOTPCREL(%rip), %rax
	leaq	48(%rbp), %r12
	addq	$16, %rax
	movq	%rax, (%rdi)
	movq	%r12, %rdi
	call	pthread_mutex_lock@PLT
	movq	104(%rbp), %rdx
	testq	%rdx, %rdx
	je	.L51
	leaq	40(%rbx), %rcx
	cmpq	%rdx, %rcx
	jne	.L52
	jmp	.L66
	.p2align 4,,10
	.p2align 3
.L68:
	cmpq	%rax, %rcx
	je	.L67
	movq	%rax, %rdx
.L52:
	movq	8(%rdx), %rax
	testq	%rax, %rax
	jne	.L68
.L51:
	movq	%r12, %rdi
	call	pthread_mutex_unlock@PLT
	movq	_ZTVN4asio6detail11timer_queueINS0_18chrono_time_traitsINSt6chrono3_V212steady_clockENS_11wait_traitsIS5_EEEEEE@GOTPCREL(%rip), %rax
	movq	64(%rbx), %rdi
	addq	$16, %rax
	testq	%rdi, %rdi
	movq	%rax, 40(%rbx)
	je	.L53
	call	_ZdlPv@PLT
.L53:
	movq	%rbx, %rdi
	movl	$96, %esi
	popq	%rbx
	.cfi_remember_state
	.cfi_def_cfa_offset 24
	popq	%rbp
	.cfi_def_cfa_offset 16
	popq	%r12
	.cfi_def_cfa_offset 8
	jmp	_ZdlPvm@PLT
	.p2align 4,,10
	.p2align 3
.L67:
	.cfi_restore_state
	movq	48(%rbx), %rax
	movq	%rax, 8(%rdx)
	movq	$0, 48(%rbx)
	jmp	.L51
	.p2align 4,,10
	.p2align 3
.L66:
	movq	48(%rbx), %rax
	movq	%rax, 104(%rbp)
	movq	$0, 48(%rbx)
	jmp	.L51
	.cfi_endproc
.LFE7525:
	.size	_ZN4asio22waitable_timer_serviceINSt6chrono3_V212steady_clockENS_11wait_traitsIS3_EEED0Ev, .-_ZN4asio22waitable_timer_serviceINSt6chrono3_V212steady_clockENS_11wait_traitsIS3_EEED0Ev
	.text
	.align 2
	.p2align 4,,15
	.globl	_ZN7asiopal5Timer9ExpiresAtEv
	.type	_ZN7asiopal5Timer9ExpiresAtEv, @function
_ZN7asiopal5Timer9ExpiresAtEv:
.LFB6274:
	.cfi_startproc
	subq	$24, %rsp
	.cfi_def_cfa_offset 32
	movq	16(%rdi), %rcx
	movabsq	$4835703278458516699, %rdx
	movq	%fs:40, %rax
	movq	%rax, 8(%rsp)
	xorl	%eax, %eax
	movq	%rsp, %rdi
	movq	%rcx, %rax
	sarq	$63, %rcx
	imulq	%rdx
	sarq	$18, %rdx
	movq	%rdx, %rsi
	subq	%rcx, %rsi
	call	_ZN7openpal18MonotonicTimestampC1El@PLT
	movq	8(%rsp), %rcx
	xorq	%fs:40, %rcx
	movq	(%rsp), %rax
	jne	.L72
	addq	$24, %rsp
	.cfi_remember_state
	.cfi_def_cfa_offset 8
	ret
.L72:
	.cfi_restore_state
	call	__stack_chk_fail@PLT
	.cfi_endproc
.LFE6274:
	.size	_ZN7asiopal5Timer9ExpiresAtEv, .-_ZN7asiopal5Timer9ExpiresAtEv
	.section	.text._ZN4asio22waitable_timer_serviceINSt6chrono3_V212steady_clockENS_11wait_traitsIS3_EEED2Ev,"axG",@progbits,_ZN4asio22waitable_timer_serviceINSt6chrono3_V212steady_clockENS_11wait_traitsIS3_EEED5Ev,comdat
	.align 2
	.p2align 4,,15
	.weak	_ZN4asio22waitable_timer_serviceINSt6chrono3_V212steady_clockENS_11wait_traitsIS3_EEED2Ev
	.type	_ZN4asio22waitable_timer_serviceINSt6chrono3_V212steady_clockENS_11wait_traitsIS3_EEED2Ev, @function
_ZN4asio22waitable_timer_serviceINSt6chrono3_V212steady_clockENS_11wait_traitsIS3_EEED2Ev:
.LFB7523:
	.cfi_startproc
	pushq	%r12
	.cfi_def_cfa_offset 16
	.cfi_offset 12, -16
	pushq	%rbp
	.cfi_def_cfa_offset 24
	.cfi_offset 6, -24
	pushq	%rbx
	.cfi_def_cfa_offset 32
	.cfi_offset 3, -32
	movq	88(%rdi), %rbp
	movq	%rdi, %rbx
	movq	_ZTVN4asio22waitable_timer_serviceINSt6chrono3_V212steady_clockENS_11wait_traitsIS3_EEEE@GOTPCREL(%rip), %rax
	leaq	48(%rbp), %r12
	addq	$16, %rax
	movq	%rax, (%rdi)
	movq	%r12, %rdi
	call	pthread_mutex_lock@PLT
	movq	104(%rbp), %rdx
	testq	%rdx, %rdx
	je	.L74
	leaq	40(%rbx), %rcx
	cmpq	%rdx, %rcx
	jne	.L75
	jmp	.L86
	.p2align 4,,10
	.p2align 3
.L88:
	cmpq	%rax, %rcx
	je	.L87
	movq	%rax, %rdx
.L75:
	movq	8(%rdx), %rax
	testq	%rax, %rax
	jne	.L88
.L74:
	movq	%r12, %rdi
	call	pthread_mutex_unlock@PLT
	movq	_ZTVN4asio6detail11timer_queueINS0_18chrono_time_traitsINSt6chrono3_V212steady_clockENS_11wait_traitsIS5_EEEEEE@GOTPCREL(%rip), %rax
	movq	64(%rbx), %rdi
	addq	$16, %rax
	testq	%rdi, %rdi
	movq	%rax, 40(%rbx)
	je	.L73
	popq	%rbx
	.cfi_remember_state
	.cfi_def_cfa_offset 24
	popq	%rbp
	.cfi_def_cfa_offset 16
	popq	%r12
	.cfi_def_cfa_offset 8
	jmp	_ZdlPv@PLT
	.p2align 4,,10
	.p2align 3
.L73:
	.cfi_restore_state
	popq	%rbx
	.cfi_remember_state
	.cfi_def_cfa_offset 24
	popq	%rbp
	.cfi_def_cfa_offset 16
	popq	%r12
	.cfi_def_cfa_offset 8
	ret
	.p2align 4,,10
	.p2align 3
.L87:
	.cfi_restore_state
	movq	48(%rbx), %rax
	movq	%rax, 8(%rdx)
	movq	$0, 48(%rbx)
	jmp	.L74
	.p2align 4,,10
	.p2align 3
.L86:
	movq	48(%rbx), %rax
	movq	%rax, 104(%rbp)
	movq	$0, 48(%rbx)
	jmp	.L74
	.cfi_endproc
.LFE7523:
	.size	_ZN4asio22waitable_timer_serviceINSt6chrono3_V212steady_clockENS_11wait_traitsIS3_EEED2Ev, .-_ZN4asio22waitable_timer_serviceINSt6chrono3_V212steady_clockENS_11wait_traitsIS3_EEED2Ev
	.weak	_ZN4asio22waitable_timer_serviceINSt6chrono3_V212steady_clockENS_11wait_traitsIS3_EEED1Ev
	.set	_ZN4asio22waitable_timer_serviceINSt6chrono3_V212steady_clockENS_11wait_traitsIS3_EEED1Ev,_ZN4asio22waitable_timer_serviceINSt6chrono3_V212steady_clockENS_11wait_traitsIS3_EEED2Ev
	.section	.text._ZN4asio6detail13epoll_reactorD2Ev,"axG",@progbits,_ZN4asio6detail13epoll_reactorD5Ev,comdat
	.align 2
	.p2align 4,,15
	.weak	_ZN4asio6detail13epoll_reactorD2Ev
	.type	_ZN4asio6detail13epoll_reactorD2Ev, @function
_ZN4asio6detail13epoll_reactorD2Ev:
.LFB3065:
	.cfi_startproc
	.cfi_personality 0x9b,DW.ref.__gxx_personality_v0
	.cfi_lsda 0x1b,.LLSDA3065
	pushq	%r15
	.cfi_def_cfa_offset 16
	.cfi_offset 15, -16
	pushq	%r14
	.cfi_def_cfa_offset 24
	.cfi_offset 14, -24
	pushq	%r13
	.cfi_def_cfa_offset 32
	.cfi_offset 13, -32
	pushq	%r12
	.cfi_def_cfa_offset 40
	.cfi_offset 12, -40
	pushq	%rbp
	.cfi_def_cfa_offset 48
	.cfi_offset 6, -48
	pushq	%rbx
	.cfi_def_cfa_offset 56
	.cfi_offset 3, -56
	subq	$56, %rsp
	.cfi_def_cfa_offset 112
	movq	%fs:40, %rax
	movq	%rax, 40(%rsp)
	xorl	%eax, %eax
	movq	_ZTVN4asio6detail13epoll_reactorE@GOTPCREL(%rip), %rax
	movq	%rdi, 8(%rsp)
	addq	$16, %rax
	movq	%rax, (%rdi)
	movl	96(%rdi), %edi
	cmpl	$-1, %edi
	je	.L90
	call	close@PLT
.L90:
	movq	8(%rsp), %rax
	movl	100(%rax), %edi
	cmpl	$-1, %edi
	je	.L91
	call	close@PLT
	movq	8(%rsp), %rax
.L91:
	movq	160(%rax), %r12
	testq	%r12, %r12
	je	.L92
	leaq	16(%rsp), %rbp
	.p2align 4,,10
	.p2align 3
.L98:
	movq	24(%r12), %r15
	leaq	128(%r12), %r14
	leaq	80(%r12), %r13
.L97:
	movq	(%r14), %rsi
	testq	%rsi, %rsi
	movq	%rsi, (%rsp)
	je	.L93
	call	_ZNSt3_V215system_categoryEv@PLT
	movq	(%rsp), %rsi
	movq	%rax, %rbx
	jmp	.L94
	.p2align 4,,10
	.p2align 3
.L95:
	movq	$0, (%rsi)
	movq	8(%rsi), %rax
	xorl	%ecx, %ecx
	xorl	%edi, %edi
	movl	$0, 16(%rsp)
	movq	%rbx, 24(%rsp)
	movq	%rbp, %rdx
	call	*%rax
	movq	(%r14), %rsi
	testq	%rsi, %rsi
	je	.L93
.L94:
	movq	(%rsi), %rax
	testq	%rax, %rax
	movq	%rax, (%r14)
	jne	.L95
	movq	$0, 8(%r14)
	jmp	.L95
	.p2align 4,,10
	.p2align 3
.L93:
	subq	$16, %r14
	cmpq	%r13, %r14
	jne	.L97
	leaq	40(%r12), %rdi
	call	pthread_mutex_destroy@PLT
	movq	%r12, %rdi
	movl	$152, %esi
	movq	%r15, %r12
	call	_ZdlPvm@PLT
	testq	%r15, %r15
	jne	.L98
.L92:
	movq	8(%rsp), %rax
	movq	168(%rax), %r12
	testq	%r12, %r12
	je	.L99
	leaq	16(%rsp), %rbp
	.p2align 4,,10
	.p2align 3
.L105:
	movq	24(%r12), %r15
	leaq	128(%r12), %r14
	leaq	80(%r12), %r13
.L104:
	movq	(%r14), %rsi
	testq	%rsi, %rsi
	movq	%rsi, (%rsp)
	je	.L100
	call	_ZNSt3_V215system_categoryEv@PLT
	movq	(%rsp), %rsi
	movq	%rax, %rbx
	jmp	.L101
	.p2align 4,,10
	.p2align 3
.L102:
	movq	$0, (%rsi)
	movq	8(%rsi), %rax
	xorl	%ecx, %ecx
	xorl	%edi, %edi
	movl	$0, 16(%rsp)
	movq	%rbx, 24(%rsp)
	movq	%rbp, %rdx
	call	*%rax
	movq	(%r14), %rsi
	testq	%rsi, %rsi
	je	.L100
.L101:
	movq	(%rsi), %rax
	testq	%rax, %rax
	movq	%rax, (%r14)
	jne	.L102
	movq	$0, 8(%r14)
	jmp	.L102
	.p2align 4,,10
	.p2align 3
.L100:
	subq	$16, %r14
	cmpq	%r14, %r13
	jne	.L104
	leaq	40(%r12), %rdi
	call	pthread_mutex_destroy@PLT
	movq	%r12, %rdi
	movl	$152, %esi
	movq	%r15, %r12
	call	_ZdlPvm@PLT
	testq	%r15, %r15
	jne	.L105
.L99:
	movq	8(%rsp), %rbx
	leaq	120(%rbx), %rdi
	call	pthread_mutex_destroy@PLT
	movl	92(%rbx), %eax
	cmpl	$-1, %eax
	je	.L106
	movl	88(%rbx), %edi
	cmpl	%edi, %eax
	jne	.L147
.L107:
	call	close@PLT
.L108:
	movq	8(%rsp), %rdi
	addq	$48, %rdi
	call	pthread_mutex_destroy@PLT
	movq	40(%rsp), %rax
	xorq	%fs:40, %rax
	jne	.L148
	addq	$56, %rsp
	.cfi_remember_state
	.cfi_def_cfa_offset 56
	popq	%rbx
	.cfi_def_cfa_offset 48
	popq	%rbp
	.cfi_def_cfa_offset 40
	popq	%r12
	.cfi_def_cfa_offset 32
	popq	%r13
	.cfi_def_cfa_offset 24
	popq	%r14
	.cfi_def_cfa_offset 16
	popq	%r15
	.cfi_def_cfa_offset 8
	ret
.L147:
	.cfi_restore_state
	movl	%eax, %edi
	call	close@PLT
.L106:
	movq	8(%rsp), %rax
	movl	88(%rax), %edi
	cmpl	$-1, %edi
	je	.L108
	jmp	.L107
.L148:
	call	__stack_chk_fail@PLT
	.cfi_endproc
.LFE3065:
	.globl	__gxx_personality_v0
	.section	.gcc_except_table._ZN4asio6detail13epoll_reactorD2Ev,"aG",@progbits,_ZN4asio6detail13epoll_reactorD5Ev,comdat
.LLSDA3065:
	.byte	0xff
	.byte	0xff
	.byte	0x1
	.uleb128 .LLSDACSE3065-.LLSDACSB3065
.LLSDACSB3065:
.LLSDACSE3065:
	.section	.text._ZN4asio6detail13epoll_reactorD2Ev,"axG",@progbits,_ZN4asio6detail13epoll_reactorD5Ev,comdat
	.size	_ZN4asio6detail13epoll_reactorD2Ev, .-_ZN4asio6detail13epoll_reactorD2Ev
	.weak	_ZN4asio6detail13epoll_reactorD1Ev
	.set	_ZN4asio6detail13epoll_reactorD1Ev,_ZN4asio6detail13epoll_reactorD2Ev
	.section	.text._ZN4asio6detail13epoll_reactor16shutdown_serviceEv,"axG",@progbits,_ZN4asio6detail13epoll_reactor16shutdown_serviceEv,comdat
	.align 2
	.p2align 4,,15
	.weak	_ZN4asio6detail13epoll_reactor16shutdown_serviceEv
	.type	_ZN4asio6detail13epoll_reactor16shutdown_serviceEv, @function
_ZN4asio6detail13epoll_reactor16shutdown_serviceEv:
.LFB3068:
	.cfi_startproc
	.cfi_personality 0x9b,DW.ref.__gxx_personality_v0
	.cfi_lsda 0x1b,.LLSDA3068
	pushq	%r13
	.cfi_def_cfa_offset 16
	.cfi_offset 13, -16
	pushq	%r12
	.cfi_def_cfa_offset 24
	.cfi_offset 12, -24
	pushq	%rbp
	.cfi_def_cfa_offset 32
	.cfi_offset 6, -32
	leaq	48(%rdi), %rbp
	pushq	%rbx
	.cfi_def_cfa_offset 40
	.cfi_offset 3, -40
	movq	%rdi, %rbx
	subq	$72, %rsp
	.cfi_def_cfa_offset 112
	movq	%rbp, %rdi
	movq	%fs:40, %rax
	movq	%rax, 56(%rsp)
	xorl	%eax, %eax
	call	pthread_mutex_lock@PLT
	movb	$1, 112(%rbx)
	movq	%rbp, %rdi
	call	pthread_mutex_unlock@PLT
	movq	160(%rbx), %rax
	pxor	%xmm0, %xmm0
	testq	%rax, %rax
	movaps	%xmm0, 16(%rsp)
	je	.L151
	xorl	%edi, %edi
	xorl	%edx, %edx
	xorl	%r8d, %r8d
	xorl	%r9d, %r9d
	jmp	.L150
	.p2align 4,,10
	.p2align 3
.L161:
	movq	32(%rax), %rsi
	testq	%rsi, %rsi
	je	.L162
	movq	%rcx, 24(%rsi)
	movq	24(%rax), %rcx
.L162:
	testq	%rcx, %rcx
	je	.L163
	movq	32(%rax), %rsi
	movq	%rsi, 32(%rcx)
.L163:
	movq	168(%rbx), %rcx
	movq	$0, 32(%rax)
	movq	%rcx, 24(%rax)
	movq	%rax, 168(%rbx)
	movq	160(%rbx), %rax
	testq	%rax, %rax
	je	.L242
.L150:
	movq	96(%rax), %rcx
	testq	%rcx, %rcx
	je	.L152
	testq	%rdx, %rdx
	je	.L243
	movq	%rcx, (%rdx)
.L154:
	movq	104(%rax), %rdx
	movq	$0, 96(%rax)
	movl	$1, %edi
	movq	$0, 104(%rax)
.L152:
	movq	112(%rax), %rcx
	testq	%rcx, %rcx
	je	.L155
	testq	%rdx, %rdx
	je	.L244
	movq	%rcx, (%rdx)
.L157:
	movq	120(%rax), %rdx
	movq	$0, 112(%rax)
	movl	$1, %edi
	movq	$0, 120(%rax)
.L155:
	movq	128(%rax), %rcx
	testq	%rcx, %rcx
	je	.L158
	testq	%rdx, %rdx
	je	.L245
	movq	%rcx, (%rdx)
.L160:
	movq	136(%rax), %rdx
	movq	$0, 128(%rax)
	movl	$1, %edi
	movq	$0, 136(%rax)
.L158:
	movb	$1, 144(%rax)
	cmpq	%rax, 160(%rbx)
	movq	24(%rax), %rcx
	jne	.L161
	movq	%rcx, 160(%rbx)
	movq	24(%rax), %rcx
	jmp	.L161
	.p2align 4,,10
	.p2align 3
.L243:
	movq	%rcx, %r9
	movl	$1, %r8d
	jmp	.L154
	.p2align 4,,10
	.p2align 3
.L244:
	movq	%rcx, %r9
	movl	$1, %r8d
	jmp	.L157
	.p2align 4,,10
	.p2align 3
.L245:
	movq	%rcx, %r9
	movl	$1, %r8d
	jmp	.L160
	.p2align 4,,10
	.p2align 3
.L242:
	testb	%r8b, %r8b
	jne	.L246
.L166:
	testb	%dil, %dil
	jne	.L247
.L151:
	movq	104(%rbx), %rbx
	testq	%rbx, %rbx
	je	.L168
	movq	_ZN4asio6detail11timer_queueINS0_18chrono_time_traitsINSt6chrono3_V212steady_clockENS_11wait_traitsIS5_EEEEE14get_all_timersERNS0_8op_queueINS0_25task_io_service_operationEEE@GOTPCREL(%rip), %rbp
	leaq	16(%rsp), %r12
	.p2align 4,,10
	.p2align 3
.L177:
	movq	(%rbx), %rax
	movq	48(%rax), %rax
	cmpq	%rbp, %rax
	jne	.L169
	movq	16(%rbx), %rax
	testq	%rax, %rax
	je	.L170
	movq	24(%rsp), %rcx
	movq	16(%rsp), %r9
	xorl	%edi, %edi
	xorl	%r8d, %r8d
	jmp	.L173
	.p2align 4,,10
	.p2align 3
.L249:
	movq	%rdx, (%rcx)
.L172:
	movq	8(%rax), %rcx
	movq	$0, (%rax)
	movl	$1, %edi
	movq	$0, 8(%rax)
.L171:
	testq	%rsi, %rsi
	movq	$0, 24(%rax)
	movq	$0, 32(%rax)
	movq	%rsi, %rax
	je	.L248
.L173:
	movq	(%rax), %rdx
	movq	24(%rax), %rsi
	testq	%rdx, %rdx
	je	.L171
	testq	%rcx, %rcx
	jne	.L249
	movq	%rdx, %r9
	movl	$1, %r8d
	jmp	.L172
	.p2align 4,,10
	.p2align 3
.L248:
	testb	%r8b, %r8b
	jne	.L250
.L174:
	testb	%dil, %dil
	je	.L175
	movq	%rcx, 24(%rsp)
.L175:
	movq	$0, 16(%rbx)
	.p2align 4,,10
	.p2align 3
.L170:
	movq	24(%rbx), %rax
	movq	%rax, 32(%rbx)
.L176:
	movq	8(%rbx), %rbx
	testq	%rbx, %rbx
	jne	.L177
.L168:
	movq	16(%rsp), %rsi
	testq	%rsi, %rsi
	movq	%rsi, 8(%rsp)
	je	.L149
	pxor	%xmm0, %xmm0
	leaq	32(%rsp), %rbx
	movaps	%xmm0, 16(%rsp)
	call	_ZNSt3_V215system_categoryEv@PLT
	movq	%rax, %r12
	movq	8(%rsp), %rsi
	.p2align 4,,10
	.p2align 3
.L179:
	movq	(%rsi), %rbp
	movq	8(%rsi), %rax
	xorl	%ecx, %ecx
	movq	$0, (%rsi)
	xorl	%edi, %edi
	movl	$0, 32(%rsp)
	movq	%r12, 40(%rsp)
	movq	%rbx, %rdx
	call	*%rax
	testq	%rbp, %rbp
	movq	%rbp, %rsi
	jne	.L179
	movq	16(%rsp), %rsi
	testq	%rsi, %rsi
	movq	%rsi, 8(%rsp)
	je	.L149
	call	_ZNSt3_V215system_categoryEv@PLT
	movq	8(%rsp), %rsi
	movq	%rax, %rbp
	jmp	.L181
	.p2align 4,,10
	.p2align 3
.L182:
	movq	$0, (%rsi)
	movq	8(%rsi), %rax
	xorl	%ecx, %ecx
	xorl	%edi, %edi
	movl	$0, 32(%rsp)
	movq	%rbp, 40(%rsp)
	movq	%rbx, %rdx
	call	*%rax
	movq	16(%rsp), %rsi
	testq	%rsi, %rsi
	je	.L149
.L181:
	movq	(%rsi), %rax
	testq	%rax, %rax
	movq	%rax, 16(%rsp)
	jne	.L182
	movq	$0, 24(%rsp)
	jmp	.L182
	.p2align 4,,10
	.p2align 3
.L169:
	movq	%r12, %rsi
	movq	%rbx, %rdi
.LEHB0:
	call	*%rax
.LEHE0:
	jmp	.L176
	.p2align 4,,10
	.p2align 3
.L149:
	movq	56(%rsp), %rax
	xorq	%fs:40, %rax
	jne	.L251
	addq	$72, %rsp
	.cfi_remember_state
	.cfi_def_cfa_offset 40
	popq	%rbx
	.cfi_def_cfa_offset 32
	popq	%rbp
	.cfi_def_cfa_offset 24
	popq	%r12
	.cfi_def_cfa_offset 16
	popq	%r13
	.cfi_def_cfa_offset 8
	ret
.L250:
	.cfi_restore_state
	movq	%r9, 16(%rsp)
	jmp	.L174
.L247:
	movq	%rdx, 24(%rsp)
	jmp	.L151
.L246:
	movq	%r9, 16(%rsp)
	jmp	.L166
.L251:
	call	__stack_chk_fail@PLT
.L190:
	leaq	32(%rsp), %r12
	movq	%rax, %rbp
.L184:
	movq	16(%rsp), %rbx
	testq	%rbx, %rbx
	je	.L185
	movq	(%rbx), %rax
	testq	%rax, %rax
	movq	%rax, 16(%rsp)
	jne	.L186
	movq	$0, 24(%rsp)
.L186:
	movq	$0, (%rbx)
	movq	8(%rbx), %r13
	movl	$0, 32(%rsp)
	call	_ZNSt3_V215system_categoryEv@PLT
	xorl	%ecx, %ecx
	movq	%rax, 40(%rsp)
	movq	%r12, %rdx
	movq	%rbx, %rsi
	xorl	%edi, %edi
	call	*%r13
	jmp	.L184
.L185:
	movq	%rbp, %rdi
.LEHB1:
	call	_Unwind_Resume@PLT
.LEHE1:
	.cfi_endproc
.LFE3068:
	.section	.gcc_except_table._ZN4asio6detail13epoll_reactor16shutdown_serviceEv,"aG",@progbits,_ZN4asio6detail13epoll_reactor16shutdown_serviceEv,comdat
.LLSDA3068:
	.byte	0xff
	.byte	0xff
	.byte	0x1
	.uleb128 .LLSDACSE3068-.LLSDACSB3068
.LLSDACSB3068:
	.uleb128 .LEHB0-.LFB3068
	.uleb128 .LEHE0-.LEHB0
	.uleb128 .L190-.LFB3068
	.uleb128 0
	.uleb128 .LEHB1-.LFB3068
	.uleb128 .LEHE1-.LEHB1
	.uleb128 0
	.uleb128 0
.LLSDACSE3068:
	.section	.text._ZN4asio6detail13epoll_reactor16shutdown_serviceEv,"axG",@progbits,_ZN4asio6detail13epoll_reactor16shutdown_serviceEv,comdat
	.size	_ZN4asio6detail13epoll_reactor16shutdown_serviceEv, .-_ZN4asio6detail13epoll_reactor16shutdown_serviceEv
	.section	.text._ZNK4asio6detail11timer_queueINS0_18chrono_time_traitsINSt6chrono3_V212steady_clockENS_11wait_traitsIS5_EEEEE18wait_duration_usecEl,"axG",@progbits,_ZNK4asio6detail11timer_queueINS0_18chrono_time_traitsINSt6chrono3_V212steady_clockENS_11wait_traitsIS5_EEEEE18wait_duration_usecEl,comdat
	.align 2
	.p2align 4,,15
	.weak	_ZNK4asio6detail11timer_queueINS0_18chrono_time_traitsINSt6chrono3_V212steady_clockENS_11wait_traitsIS5_EEEEE18wait_duration_usecEl
	.type	_ZNK4asio6detail11timer_queueINS0_18chrono_time_traitsINSt6chrono3_V212steady_clockENS_11wait_traitsIS5_EEEEE18wait_duration_usecEl, @function
_ZNK4asio6detail11timer_queueINS0_18chrono_time_traitsINSt6chrono3_V212steady_clockENS_11wait_traitsIS5_EEEEE18wait_duration_usecEl:
.LFB7608:
	.cfi_startproc
	pushq	%rbp
	.cfi_def_cfa_offset 16
	.cfi_offset 6, -16
	pushq	%rbx
	.cfi_def_cfa_offset 24
	.cfi_offset 3, -24
	movq	%rsi, %rax
	subq	$8, %rsp
	.cfi_def_cfa_offset 32
	movq	32(%rdi), %rbx
	cmpq	%rbx, 24(%rdi)
	je	.L252
	movq	%rdi, %rbx
	movq	%rsi, %rbp
	call	_ZNSt6chrono3_V212steady_clock3nowEv@PLT
	movq	%rax, %rcx
	movq	24(%rbx), %rax
	movq	(%rax), %rdx
	testq	%rdx, %rdx
	js	.L254
	testq	%rcx, %rcx
	js	.L255
.L268:
	subq	%rcx, %rdx
	xorl	%eax, %eax
	testq	%rdx, %rdx
	movq	%rdx, %rcx
	jle	.L252
.L258:
	movq	%rcx, %rax
	movabsq	$2361183241434822607, %rdx
	sarq	$63, %rcx
	imulq	%rdx
	movl	$1, %eax
	sarq	$7, %rdx
	subq	%rcx, %rdx
	jne	.L257
.L252:
	addq	$8, %rsp
	.cfi_remember_state
	.cfi_def_cfa_offset 24
	popq	%rbx
	.cfi_def_cfa_offset 16
	popq	%rbp
	.cfi_def_cfa_offset 8
	ret
	.p2align 4,,10
	.p2align 3
.L254:
	.cfi_restore_state
	xorl	%eax, %eax
	testq	%rcx, %rcx
	js	.L268
	addq	$8, %rsp
	.cfi_remember_state
	.cfi_def_cfa_offset 24
	popq	%rbx
	.cfi_def_cfa_offset 16
	popq	%rbp
	.cfi_def_cfa_offset 8
	ret
	.p2align 4,,10
	.p2align 3
.L262:
	.cfi_restore_state
	movabsq	$9223372036854775, %rdx
.L257:
	cmpq	%rdx, %rbp
	movq	%rdx, %rax
	cmovle	%rbp, %rax
	addq	$8, %rsp
	.cfi_remember_state
	.cfi_def_cfa_offset 24
	popq	%rbx
	.cfi_def_cfa_offset 16
	popq	%rbp
	.cfi_def_cfa_offset 8
	ret
	.p2align 4,,10
	.p2align 3
.L255:
	.cfi_restore_state
	movabsq	$-9223372036854775808, %rax
	cmpq	%rax, %rcx
	je	.L262
	subq	$1, %rax
	movq	%rcx, %rsi
	negq	%rsi
	subq	%rdx, %rax
	cmpq	%rax, %rsi
	jg	.L262
	subq	%rcx, %rdx
	movq	%rdx, %rcx
	jmp	.L258
	.cfi_endproc
.LFE7608:
	.size	_ZNK4asio6detail11timer_queueINS0_18chrono_time_traitsINSt6chrono3_V212steady_clockENS_11wait_traitsIS5_EEEEE18wait_duration_usecEl, .-_ZNK4asio6detail11timer_queueINS0_18chrono_time_traitsINSt6chrono3_V212steady_clockENS_11wait_traitsIS5_EEEEE18wait_duration_usecEl
	.section	.text._ZNK4asio6detail11timer_queueINS0_18chrono_time_traitsINSt6chrono3_V212steady_clockENS_11wait_traitsIS5_EEEEE18wait_duration_msecEl,"axG",@progbits,_ZNK4asio6detail11timer_queueINS0_18chrono_time_traitsINSt6chrono3_V212steady_clockENS_11wait_traitsIS5_EEEEE18wait_duration_msecEl,comdat
	.align 2
	.p2align 4,,15
	.weak	_ZNK4asio6detail11timer_queueINS0_18chrono_time_traitsINSt6chrono3_V212steady_clockENS_11wait_traitsIS5_EEEEE18wait_duration_msecEl
	.type	_ZNK4asio6detail11timer_queueINS0_18chrono_time_traitsINSt6chrono3_V212steady_clockENS_11wait_traitsIS5_EEEEE18wait_duration_msecEl, @function
_ZNK4asio6detail11timer_queueINS0_18chrono_time_traitsINSt6chrono3_V212steady_clockENS_11wait_traitsIS5_EEEEE18wait_duration_msecEl:
.LFB7607:
	.cfi_startproc
	pushq	%rbp
	.cfi_def_cfa_offset 16
	.cfi_offset 6, -16
	pushq	%rbx
	.cfi_def_cfa_offset 24
	.cfi_offset 3, -24
	movq	%rsi, %rax
	subq	$8, %rsp
	.cfi_def_cfa_offset 32
	movq	32(%rdi), %rbx
	cmpq	%rbx, 24(%rdi)
	je	.L270
	movq	%rdi, %rbx
	movq	%rsi, %rbp
	call	_ZNSt6chrono3_V212steady_clock3nowEv@PLT
	movq	%rax, %rcx
	movq	24(%rbx), %rax
	movq	(%rax), %rdx
	testq	%rdx, %rdx
	js	.L272
	testq	%rcx, %rcx
	js	.L273
.L286:
	subq	%rcx, %rdx
	xorl	%eax, %eax
	testq	%rdx, %rdx
	movq	%rdx, %rcx
	jle	.L270
.L276:
	movq	%rcx, %rax
	movabsq	$4835703278458516699, %rdx
	sarq	$63, %rcx
	imulq	%rdx
	movl	$1, %eax
	sarq	$18, %rdx
	subq	%rcx, %rdx
	jne	.L275
.L270:
	addq	$8, %rsp
	.cfi_remember_state
	.cfi_def_cfa_offset 24
	popq	%rbx
	.cfi_def_cfa_offset 16
	popq	%rbp
	.cfi_def_cfa_offset 8
	ret
	.p2align 4,,10
	.p2align 3
.L272:
	.cfi_restore_state
	xorl	%eax, %eax
	testq	%rcx, %rcx
	js	.L286
	addq	$8, %rsp
	.cfi_remember_state
	.cfi_def_cfa_offset 24
	popq	%rbx
	.cfi_def_cfa_offset 16
	popq	%rbp
	.cfi_def_cfa_offset 8
	ret
	.p2align 4,,10
	.p2align 3
.L280:
	.cfi_restore_state
	movabsq	$9223372036854, %rdx
.L275:
	cmpq	%rdx, %rbp
	movq	%rdx, %rax
	cmovle	%rbp, %rax
	addq	$8, %rsp
	.cfi_remember_state
	.cfi_def_cfa_offset 24
	popq	%rbx
	.cfi_def_cfa_offset 16
	popq	%rbp
	.cfi_def_cfa_offset 8
	ret
	.p2align 4,,10
	.p2align 3
.L273:
	.cfi_restore_state
	movabsq	$-9223372036854775808, %rax
	cmpq	%rax, %rcx
	je	.L280
	subq	$1, %rax
	movq	%rcx, %rsi
	negq	%rsi
	subq	%rdx, %rax
	cmpq	%rax, %rsi
	jg	.L280
	subq	%rcx, %rdx
	movq	%rdx, %rcx
	jmp	.L276
	.cfi_endproc
.LFE7607:
	.size	_ZNK4asio6detail11timer_queueINS0_18chrono_time_traitsINSt6chrono3_V212steady_clockENS_11wait_traitsIS5_EEEEE18wait_duration_msecEl, .-_ZNK4asio6detail11timer_queueINS0_18chrono_time_traitsINSt6chrono3_V212steady_clockENS_11wait_traitsIS5_EEEEE18wait_duration_msecEl
	.text
	.align 2
	.p2align 4,,15
	.type	_ZN4asio6detail13epoll_reactor12cancel_timerINS0_18chrono_time_traitsINSt6chrono3_V212steady_clockENS_11wait_traitsIS6_EEEEEEmRNS0_11timer_queueIT_EERNSC_14per_timer_dataEm.constprop.94, @function
_ZN4asio6detail13epoll_reactor12cancel_timerINS0_18chrono_time_traitsINSt6chrono3_V212steady_clockENS_11wait_traitsIS6_EEEEEEmRNS0_11timer_queueIT_EERNSC_14per_timer_dataEm.constprop.94:
.LFB7745:
	.cfi_startproc
	pushq	%r15
	.cfi_def_cfa_offset 16
	.cfi_offset 15, -16
	pushq	%r14
	.cfi_def_cfa_offset 24
	.cfi_offset 14, -24
	movq	%rdi, %rax
	pushq	%r13
	.cfi_def_cfa_offset 32
	.cfi_offset 13, -32
	pushq	%r12
	.cfi_def_cfa_offset 40
	.cfi_offset 12, -40
	addq	$48, %rax
	pushq	%rbp
	.cfi_def_cfa_offset 48
	.cfi_offset 6, -48
	pushq	%rbx
	.cfi_def_cfa_offset 56
	.cfi_offset 3, -56
	movq	%rdx, %r14
	subq	$72, %rsp
	.cfi_def_cfa_offset 128
	movq	%rdi, 16(%rsp)
	movq	%rax, %rdi
	movq	%rsi, 24(%rsp)
	movq	%fs:40, %rcx
	movq	%rcx, 56(%rsp)
	xorl	%ecx, %ecx
	movq	%rax, 8(%rsp)
	call	pthread_mutex_lock@PLT
	cmpq	$0, 32(%r14)
	je	.L376
.L289:
	movq	(%r14), %r15
	xorl	%r13d, %r13d
	xorl	%r12d, %r12d
	xorl	%ebx, %ebx
	jmp	.L298
	.p2align 4,,10
	.p2align 3
.L374:
	movq	_ZZN4asio15system_categoryEvE8instance@GOTPCREL(%rip), %rbp
.L293:
	movq	(%r14), %rdx
	xorl	%eax, %eax
	movl	$125, 24(%r15)
	movq	%rbp, 32(%r15)
	testq	%rdx, %rdx
	je	.L295
	movq	(%rdx), %rax
	testq	%rax, %rax
	movq	%rax, (%r14)
	je	.L377
.L296:
	movq	$0, (%rdx)
.L295:
	testq	%r13, %r13
	movq	$0, (%r15)
	je	.L327
	addq	$1, %rbx
	movq	%r15, 0(%r13)
	movq	%r15, %r13
	cmpq	$-1, %rbx
	je	.L378
.L328:
	movq	%rax, %r15
.L298:
	testq	%r15, %r15
	je	.L291
	movq	_ZGVZN4asio15system_categoryEvE8instance@GOTPCREL(%rip), %rbp
	movzbl	0(%rbp), %eax
	testb	%al, %al
	jne	.L374
	movq	%rbp, %rdi
	call	__cxa_guard_acquire@PLT
	testl	%eax, %eax
	je	.L374
	movq	%rbp, %rdi
	call	__cxa_guard_release@PLT
	movq	_ZZN4asio15system_categoryEvE8instance@GOTPCREL(%rip), %rbp
	movq	_ZN4asio6detail15system_categoryD1Ev@GOTPCREL(%rip), %rdi
	leaq	__dso_handle(%rip), %rdx
	movq	%rbp, %rsi
	call	__cxa_atexit@PLT
	jmp	.L293
	.p2align 4,,10
	.p2align 3
.L327:
	addq	$1, %rbx
	movq	%r15, %r12
	movq	%r15, %r13
	cmpq	$-1, %rbx
	jne	.L328
.L378:
	testq	%rax, %rax
	je	.L291
.L299:
	movq	8(%rsp), %rdi
	call	pthread_mutex_unlock@PLT
	movq	16(%rsp), %rax
	testq	%r12, %r12
	movq	40(%rax), %rbp
	je	.L288
	cmpb	$0, 40(%rbp)
	je	.L313
	.byte	0x66
	leaq	_ZN4asio6detail15keyword_tss_ptrINS0_10call_stackINS0_15task_io_serviceENS0_27task_io_service_thread_infoEE7contextEE6value_E@tlsgd(%rip), %rdi
	.value	0x6666
	rex64
	call	__tls_get_addr@PLT
	movq	(%rax), %rax
	testq	%rax, %rax
	jne	.L367
	jmp	.L313
	.p2align 4,,10
	.p2align 3
.L315:
	movq	16(%rax), %rax
	testq	%rax, %rax
	je	.L313
.L367:
	cmpq	(%rax), %rbp
	jne	.L315
	movq	8(%rax), %rax
	testq	%rax, %rax
	je	.L313
	movq	16(%rax), %rdx
	testq	%rdx, %rdx
	je	.L318
	movq	%r12, (%rdx)
.L319:
	movq	%r15, 16(%rax)
.L288:
	movq	56(%rsp), %rcx
	xorq	%fs:40, %rcx
	movq	%rbx, %rax
	jne	.L379
	addq	$72, %rsp
	.cfi_remember_state
	.cfi_def_cfa_offset 56
	popq	%rbx
	.cfi_def_cfa_offset 48
	popq	%rbp
	.cfi_def_cfa_offset 40
	popq	%r12
	.cfi_def_cfa_offset 32
	popq	%r13
	.cfi_def_cfa_offset 24
	popq	%r14
	.cfi_def_cfa_offset 16
	popq	%r15
	.cfi_def_cfa_offset 8
	ret
	.p2align 4,,10
	.p2align 3
.L377:
	.cfi_restore_state
	movq	$0, 8(%r14)
	jmp	.L296
	.p2align 4,,10
	.p2align 3
.L313:
	leaq	48(%rbp), %r13
	movq	%r13, %rdi
	call	pthread_mutex_lock@PLT
	movq	200(%rbp), %rax
	testq	%rax, %rax
	je	.L320
	movq	%r12, (%rax)
.L321:
	movq	136(%rbp), %rax
	movq	%r15, 200(%rbp)
	orq	$1, %rax
	cmpq	$1, %rax
	movq	%rax, 136(%rbp)
	jne	.L380
	cmpb	$0, 176(%rbp)
	jne	.L324
	movq	144(%rbp), %rax
	testq	%rax, %rax
	je	.L324
	leaq	88(%rax), %rdx
	movb	$1, 176(%rbp)
	movl	96(%rax), %edi
	leaq	44(%rsp), %rcx
	movl	$3, %esi
	movl	$-2147483639, 44(%rsp)
	movq	%rdx, 48(%rsp)
	movl	88(%rax), %edx
	call	epoll_ctl@PLT
.L324:
	movq	%r13, %rdi
	call	pthread_mutex_unlock@PLT
	jmp	.L288
	.p2align 4,,10
	.p2align 3
.L376:
	movq	24(%rsp), %rax
	cmpq	16(%rax), %r14
	je	.L289
	movq	8(%rsp), %rdi
	xorl	%ebx, %ebx
	call	pthread_mutex_unlock@PLT
	jmp	.L288
	.p2align 4,,10
	.p2align 3
.L380:
	movq	%r13, %rdi
	call	pthread_mutex_unlock@PLT
	leaq	88(%rbp), %rdi
	call	pthread_cond_signal@PLT
	jmp	.L288
	.p2align 4,,10
	.p2align 3
.L291:
	movq	24(%rsp), %rax
	movq	32(%rax), %rdi
	movq	24(%rax), %rax
	cmpq	%rax, %rdi
	je	.L301
	movq	16(%r14), %rdx
	movq	%rdi, %rsi
	subq	%rax, %rsi
	sarq	$4, %rsi
	cmpq	%rsi, %rdx
	jnb	.L301
	subq	$1, %rsi
	subq	$16, %rdi
	cmpq	%rsi, %rdx
	je	.L381
	movq	%rdx, %r10
	movq	%rsi, %r9
	movq	24(%rsp), %rcx
	salq	$4, %r10
	salq	$4, %r9
	addq	%rax, %r10
	addq	%rax, %r9
	testq	%rdx, %rdx
	movq	(%r10), %r11
	movq	8(%r10), %rbp
	movdqu	(%r9), %xmm0
	movups	%xmm0, (%r10)
	movq	%r11, (%r9)
	movq	%rbp, 8(%r9)
	movq	8(%r10), %r11
	movq	%rdx, 16(%r11)
	movq	%rsi, 16(%rbp)
	movq	%rdi, 32(%rcx)
	je	.L304
	leaq	-1(%rdx), %r9
	movq	(%r10), %rbp
	shrq	%r9
	movq	%r9, %rsi
	salq	$4, %rsi
	addq	%rax, %rsi
	cmpq	%rbp, (%rsi)
	jg	.L305
.L304:
	subq	%rax, %rdi
	leaq	1(%rdx,%rdx), %r9
	sarq	$4, %rdi
	cmpq	%rdi, %r9
	movq	%rdi, %r8
	jnb	.L301
	movq	(%r10), %rcx
	jmp	.L307
	.p2align 4,,10
	.p2align 3
.L382:
	leaq	16(%rax,%rsi), %rsi
	movq	(%rsi), %rbp
	cmpq	%r11, %rbp
	jg	.L330
	movq	%rbp, %r11
	movq	%rsi, %r10
.L306:
	movq	%rdx, %rsi
	salq	$4, %rsi
	addq	%rax, %rsi
	cmpq	%rcx, %r11
	jg	.L301
	movq	8(%rsi), %r9
	movdqu	(%r10), %xmm0
	movups	%xmm0, (%rsi)
	movq	%r9, 8(%r10)
	movq	%rcx, (%r10)
	movq	8(%rsi), %rsi
	movq	%rdx, 16(%rsi)
	movq	%rdi, 16(%r9)
	leaq	1(%rdi,%rdi), %r9
	movq	%rdi, %rdx
	cmpq	%r8, %r9
	jnb	.L301
.L307:
	movq	%r9, %rsi
	leaq	1(%r9), %rdi
	salq	$4, %rsi
	leaq	(%rax,%rsi), %r10
	cmpq	%r8, %rdi
	movq	(%r10), %r11
	jne	.L382
.L330:
	movq	%r9, %rdi
	jmp	.L306
.L381:
	movq	24(%rsp), %rax
	movq	%rdi, 32(%rax)
	.p2align 4,,10
	.p2align 3
.L301:
	movq	24(%rsp), %rcx
	movq	24(%r14), %rax
	cmpq	16(%rcx), %r14
	je	.L383
.L309:
	movq	32(%r14), %rdx
	testq	%rdx, %rdx
	je	.L310
	movq	%rax, 24(%rdx)
	movq	24(%r14), %rax
.L310:
	testq	%rax, %rax
	je	.L311
	movq	%rdx, 32(%rax)
.L311:
	movq	$0, 24(%r14)
	movq	$0, 32(%r14)
	movq	%r13, %r15
	jmp	.L299
	.p2align 4,,10
	.p2align 3
.L318:
	movq	%r12, 8(%rax)
	jmp	.L319
	.p2align 4,,10
	.p2align 3
.L320:
	movq	%r12, 192(%rbp)
	jmp	.L321
.L366:
	leaq	-1(%r9), %rcx
	movq	%r9, %r10
	salq	$4, %r10
	shrq	%rcx
	addq	%rax, %r10
	movq	%rcx, %rsi
	movq	(%r10), %rbp
	salq	$4, %rsi
	addq	%rax, %rsi
	cmpq	%rbp, (%rsi)
	jle	.L301
	movq	8(%r10), %r11
	movq	%r9, %rdx
	movq	%rcx, %r9
.L305:
	movdqu	(%rsi), %xmm0
	testq	%r9, %r9
	movups	%xmm0, (%r10)
	movq	%rbp, (%rsi)
	movq	%r11, 8(%rsi)
	movq	8(%r10), %rcx
	movq	%rdx, 16(%rcx)
	movq	%r9, 16(%r11)
	jne	.L366
	jmp	.L301
	.p2align 4,,10
	.p2align 3
.L383:
	movq	%rax, 16(%rcx)
	jmp	.L309
.L379:
	call	__stack_chk_fail@PLT
	.cfi_endproc
.LFE7745:
	.size	_ZN4asio6detail13epoll_reactor12cancel_timerINS0_18chrono_time_traitsINSt6chrono3_V212steady_clockENS_11wait_traitsIS6_EEEEEEmRNS0_11timer_queueIT_EERNSC_14per_timer_dataEm.constprop.94, .-_ZN4asio6detail13epoll_reactor12cancel_timerINS0_18chrono_time_traitsINSt6chrono3_V212steady_clockENS_11wait_traitsIS6_EEEEEEmRNS0_11timer_queueIT_EERNSC_14per_timer_dataEm.constprop.94
	.section	.text._ZN7asiopal5TimerD0Ev,"axG",@progbits,_ZN7asiopal5TimerD5Ev,comdat
	.align 2
	.p2align 4,,15
	.weak	_ZN7asiopal5TimerD0Ev
	.type	_ZN7asiopal5TimerD0Ev, @function
_ZN7asiopal5TimerD0Ev:
.LFB7513:
	.cfi_startproc
	.cfi_personality 0x9b,DW.ref.__gxx_personality_v0
	.cfi_lsda 0x1b,.LLSDA7513
	pushq	%r12
	.cfi_def_cfa_offset 16
	.cfi_offset 12, -16
	pushq	%rbp
	.cfi_def_cfa_offset 24
	.cfi_offset 6, -24
	pushq	%rbx
	.cfi_def_cfa_offset 32
	.cfi_offset 3, -32
	movq	%rdi, %rbx
	subq	$32, %rsp
	.cfi_def_cfa_offset 64
	movq	8(%rdi), %r12
	movq	%fs:40, %rax
	movq	%rax, 24(%rsp)
	xorl	%eax, %eax
	movq	_ZTVN7asiopal5TimerE@GOTPCREL(%rip), %rax
	addq	$16, %rax
	movq	%rax, (%rdi)
	call	_ZNSt3_V215system_categoryEv@PLT
	cmpb	$0, 24(%rbx)
	movq	%rax, %rbp
	je	.L385
	movq	88(%r12), %rdi
	leaq	32(%rbx), %rdx
	leaq	40(%r12), %rsi
	call	_ZN4asio6detail13epoll_reactor12cancel_timerINS0_18chrono_time_traitsINSt6chrono3_V212steady_clockENS_11wait_traitsIS6_EEEEEEmRNS0_11timer_queueIT_EERNSC_14per_timer_dataEm.constprop.94
	movb	$0, 24(%rbx)
.L385:
	movq	32(%rbx), %rsi
	testq	%rsi, %rsi
	je	.L386
	movq	%rsp, %r12
	jmp	.L387
	.p2align 4,,10
	.p2align 3
.L388:
	movq	$0, (%rsi)
	movq	8(%rsi), %rax
	xorl	%ecx, %ecx
	xorl	%edi, %edi
	movl	$0, (%rsp)
	movq	%rbp, 8(%rsp)
	movq	%r12, %rdx
	call	*%rax
	movq	32(%rbx), %rsi
	testq	%rsi, %rsi
	je	.L386
.L387:
	movq	(%rsi), %rax
	testq	%rax, %rax
	movq	%rax, 32(%rbx)
	jne	.L388
	movq	$0, 40(%rbx)
	jmp	.L388
	.p2align 4,,10
	.p2align 3
.L386:
	movl	$72, %esi
	movq	%rbx, %rdi
	call	_ZdlPvm@PLT
	movq	24(%rsp), %rax
	xorq	%fs:40, %rax
	jne	.L399
	addq	$32, %rsp
	.cfi_remember_state
	.cfi_def_cfa_offset 32
	popq	%rbx
	.cfi_def_cfa_offset 24
	popq	%rbp
	.cfi_def_cfa_offset 16
	popq	%r12
	.cfi_def_cfa_offset 8
	ret
.L399:
	.cfi_restore_state
	call	__stack_chk_fail@PLT
	.cfi_endproc
.LFE7513:
	.section	.gcc_except_table._ZN7asiopal5TimerD0Ev,"aG",@progbits,_ZN7asiopal5TimerD5Ev,comdat
.LLSDA7513:
	.byte	0xff
	.byte	0xff
	.byte	0x1
	.uleb128 .LLSDACSE7513-.LLSDACSB7513
.LLSDACSB7513:
.LLSDACSE7513:
	.section	.text._ZN7asiopal5TimerD0Ev,"axG",@progbits,_ZN7asiopal5TimerD5Ev,comdat
	.size	_ZN7asiopal5TimerD0Ev, .-_ZN7asiopal5TimerD0Ev
	.section	.text._ZN7asiopal5TimerD2Ev,"axG",@progbits,_ZN7asiopal5TimerD5Ev,comdat
	.align 2
	.p2align 4,,15
	.weak	_ZN7asiopal5TimerD2Ev
	.type	_ZN7asiopal5TimerD2Ev, @function
_ZN7asiopal5TimerD2Ev:
.LFB7511:
	.cfi_startproc
	.cfi_personality 0x9b,DW.ref.__gxx_personality_v0
	.cfi_lsda 0x1b,.LLSDA7511
	pushq	%r12
	.cfi_def_cfa_offset 16
	.cfi_offset 12, -16
	pushq	%rbp
	.cfi_def_cfa_offset 24
	.cfi_offset 6, -24
	pushq	%rbx
	.cfi_def_cfa_offset 32
	.cfi_offset 3, -32
	movq	%rdi, %rbx
	subq	$32, %rsp
	.cfi_def_cfa_offset 64
	movq	8(%rdi), %r12
	movq	%fs:40, %rax
	movq	%rax, 24(%rsp)
	xorl	%eax, %eax
	movq	_ZTVN7asiopal5TimerE@GOTPCREL(%rip), %rax
	addq	$16, %rax
	movq	%rax, (%rdi)
	call	_ZNSt3_V215system_categoryEv@PLT
	cmpb	$0, 24(%rbx)
	movq	%rax, %rbp
	je	.L401
	movq	88(%r12), %rdi
	leaq	32(%rbx), %rdx
	leaq	40(%r12), %rsi
	call	_ZN4asio6detail13epoll_reactor12cancel_timerINS0_18chrono_time_traitsINSt6chrono3_V212steady_clockENS_11wait_traitsIS6_EEEEEEmRNS0_11timer_queueIT_EERNSC_14per_timer_dataEm.constprop.94
	movb	$0, 24(%rbx)
.L401:
	movq	32(%rbx), %rsi
	testq	%rsi, %rsi
	je	.L400
	movq	%rsp, %r12
	jmp	.L403
	.p2align 4,,10
	.p2align 3
.L404:
	movq	$0, (%rsi)
	movq	8(%rsi), %rax
	xorl	%ecx, %ecx
	xorl	%edi, %edi
	movl	$0, (%rsp)
	movq	%rbp, 8(%rsp)
	movq	%r12, %rdx
	call	*%rax
	movq	32(%rbx), %rsi
	testq	%rsi, %rsi
	je	.L400
.L403:
	movq	(%rsi), %rax
	testq	%rax, %rax
	movq	%rax, 32(%rbx)
	jne	.L404
	movq	$0, 40(%rbx)
	jmp	.L404
	.p2align 4,,10
	.p2align 3
.L400:
	movq	24(%rsp), %rax
	xorq	%fs:40, %rax
	jne	.L415
	addq	$32, %rsp
	.cfi_remember_state
	.cfi_def_cfa_offset 32
	popq	%rbx
	.cfi_def_cfa_offset 24
	popq	%rbp
	.cfi_def_cfa_offset 16
	popq	%r12
	.cfi_def_cfa_offset 8
	ret
.L415:
	.cfi_restore_state
	call	__stack_chk_fail@PLT
	.cfi_endproc
.LFE7511:
	.section	.gcc_except_table._ZN7asiopal5TimerD2Ev,"aG",@progbits,_ZN7asiopal5TimerD5Ev,comdat
.LLSDA7511:
	.byte	0xff
	.byte	0xff
	.byte	0x1
	.uleb128 .LLSDACSE7511-.LLSDACSB7511
.LLSDACSB7511:
.LLSDACSE7511:
	.section	.text._ZN7asiopal5TimerD2Ev,"axG",@progbits,_ZN7asiopal5TimerD5Ev,comdat
	.size	_ZN7asiopal5TimerD2Ev, .-_ZN7asiopal5TimerD2Ev
	.weak	_ZN7asiopal5TimerD1Ev
	.set	_ZN7asiopal5TimerD1Ev,_ZN7asiopal5TimerD2Ev
	.section	.text._ZN4asio6detail13epoll_reactorD0Ev,"axG",@progbits,_ZN4asio6detail13epoll_reactorD5Ev,comdat
	.align 2
	.p2align 4,,15
	.weak	_ZN4asio6detail13epoll_reactorD0Ev
	.type	_ZN4asio6detail13epoll_reactorD0Ev, @function
_ZN4asio6detail13epoll_reactorD0Ev:
.LFB3067:
	.cfi_startproc
	.cfi_personality 0x9b,DW.ref.__gxx_personality_v0
	.cfi_lsda 0x1b,.LLSDA3067
	pushq	%r15
	.cfi_def_cfa_offset 16
	.cfi_offset 15, -16
	pushq	%r14
	.cfi_def_cfa_offset 24
	.cfi_offset 14, -24
	movq	%rdi, %r15
	pushq	%r13
	.cfi_def_cfa_offset 32
	.cfi_offset 13, -32
	pushq	%r12
	.cfi_def_cfa_offset 40
	.cfi_offset 12, -40
	pushq	%rbp
	.cfi_def_cfa_offset 48
	.cfi_offset 6, -48
	pushq	%rbx
	.cfi_def_cfa_offset 56
	.cfi_offset 3, -56
	subq	$56, %rsp
	.cfi_def_cfa_offset 112
	movq	%fs:40, %rax
	movq	%rax, 40(%rsp)
	xorl	%eax, %eax
	movq	_ZTVN4asio6detail13epoll_reactorE@GOTPCREL(%rip), %rax
	addq	$16, %rax
	movq	%rax, (%rdi)
	movl	96(%rdi), %edi
	cmpl	$-1, %edi
	je	.L417
	call	close@PLT
.L417:
	movl	100(%r15), %edi
	cmpl	$-1, %edi
	je	.L418
	call	close@PLT
.L418:
	movq	160(%r15), %r12
	testq	%r12, %r12
	je	.L419
	leaq	16(%rsp), %rbp
	.p2align 4,,10
	.p2align 3
.L425:
	movq	24(%r12), %rax
	leaq	128(%r12), %r14
	leaq	80(%r12), %r13
	movq	%rax, 8(%rsp)
.L424:
	movq	(%r14), %rsi
	testq	%rsi, %rsi
	movq	%rsi, (%rsp)
	je	.L420
	call	_ZNSt3_V215system_categoryEv@PLT
	movq	(%rsp), %rsi
	movq	%rax, %rbx
	jmp	.L421
	.p2align 4,,10
	.p2align 3
.L422:
	movq	$0, (%rsi)
	movq	8(%rsi), %rax
	xorl	%ecx, %ecx
	xorl	%edi, %edi
	movl	$0, 16(%rsp)
	movq	%rbx, 24(%rsp)
	movq	%rbp, %rdx
	call	*%rax
	movq	(%r14), %rsi
	testq	%rsi, %rsi
	je	.L420
.L421:
	movq	(%rsi), %rax
	testq	%rax, %rax
	movq	%rax, (%r14)
	jne	.L422
	movq	$0, 8(%r14)
	jmp	.L422
	.p2align 4,,10
	.p2align 3
.L420:
	subq	$16, %r14
	cmpq	%r13, %r14
	jne	.L424
	leaq	40(%r12), %rdi
	call	pthread_mutex_destroy@PLT
	movq	%r12, %rdi
	movl	$152, %esi
	call	_ZdlPvm@PLT
	movq	8(%rsp), %r12
	testq	%r12, %r12
	jne	.L425
.L419:
	movq	168(%r15), %r12
	testq	%r12, %r12
	je	.L426
	leaq	16(%rsp), %rbp
	.p2align 4,,10
	.p2align 3
.L432:
	movq	24(%r12), %rax
	leaq	144(%r12), %r14
	leaq	96(%r12), %r13
	movq	%rax, 8(%rsp)
.L431:
	subq	$16, %r14
	movq	(%r14), %rsi
	testq	%rsi, %rsi
	movq	%rsi, (%rsp)
	je	.L427
	call	_ZNSt3_V215system_categoryEv@PLT
	movq	(%rsp), %rsi
	movq	%rax, %rbx
	jmp	.L428
	.p2align 4,,10
	.p2align 3
.L429:
	movq	$0, (%rsi)
	movq	8(%rsi), %rax
	xorl	%ecx, %ecx
	xorl	%edi, %edi
	movl	$0, 16(%rsp)
	movq	%rbx, 24(%rsp)
	movq	%rbp, %rdx
	call	*%rax
	movq	(%r14), %rsi
	testq	%rsi, %rsi
	je	.L427
.L428:
	movq	(%rsi), %rax
	testq	%rax, %rax
	movq	%rax, (%r14)
	jne	.L429
	movq	$0, 8(%r14)
	jmp	.L429
	.p2align 4,,10
	.p2align 3
.L427:
	cmpq	%r13, %r14
	jne	.L431
	leaq	40(%r12), %rdi
	call	pthread_mutex_destroy@PLT
	movq	%r12, %rdi
	movl	$152, %esi
	call	_ZdlPvm@PLT
	movq	8(%rsp), %r12
	testq	%r12, %r12
	jne	.L432
.L426:
	leaq	120(%r15), %rdi
	call	pthread_mutex_destroy@PLT
	movl	92(%r15), %eax
	cmpl	$-1, %eax
	je	.L433
	movl	88(%r15), %edi
	cmpl	%edi, %eax
	jne	.L474
.L434:
	call	close@PLT
.L435:
	leaq	48(%r15), %rdi
	call	pthread_mutex_destroy@PLT
	movl	$176, %esi
	movq	%r15, %rdi
	call	_ZdlPvm@PLT
	movq	40(%rsp), %rax
	xorq	%fs:40, %rax
	jne	.L475
	addq	$56, %rsp
	.cfi_remember_state
	.cfi_def_cfa_offset 56
	popq	%rbx
	.cfi_def_cfa_offset 48
	popq	%rbp
	.cfi_def_cfa_offset 40
	popq	%r12
	.cfi_def_cfa_offset 32
	popq	%r13
	.cfi_def_cfa_offset 24
	popq	%r14
	.cfi_def_cfa_offset 16
	popq	%r15
	.cfi_def_cfa_offset 8
	ret
.L474:
	.cfi_restore_state
	movl	%eax, %edi
	call	close@PLT
.L433:
	movl	88(%r15), %edi
	cmpl	$-1, %edi
	je	.L435
	jmp	.L434
.L475:
	call	__stack_chk_fail@PLT
	.cfi_endproc
.LFE3067:
	.section	.gcc_except_table._ZN4asio6detail13epoll_reactorD0Ev,"aG",@progbits,_ZN4asio6detail13epoll_reactorD5Ev,comdat
.LLSDA3067:
	.byte	0xff
	.byte	0xff
	.byte	0x1
	.uleb128 .LLSDACSE3067-.LLSDACSB3067
.LLSDACSB3067:
.LLSDACSE3067:
	.section	.text._ZN4asio6detail13epoll_reactorD0Ev,"axG",@progbits,_ZN4asio6detail13epoll_reactorD5Ev,comdat
	.size	_ZN4asio6detail13epoll_reactorD0Ev, .-_ZN4asio6detail13epoll_reactorD0Ev
	.section	.text._ZN4asio6detail11timer_queueINS0_18chrono_time_traitsINSt6chrono3_V212steady_clockENS_11wait_traitsIS5_EEEEE16get_ready_timersERNS0_8op_queueINS0_25task_io_service_operationEEE,"axG",@progbits,_ZN4asio6detail11timer_queueINS0_18chrono_time_traitsINSt6chrono3_V212steady_clockENS_11wait_traitsIS5_EEEEE16get_ready_timersERNS0_8op_queueINS0_25task_io_service_operationEEE,comdat
	.align 2
	.p2align 4,,15
	.weak	_ZN4asio6detail11timer_queueINS0_18chrono_time_traitsINSt6chrono3_V212steady_clockENS_11wait_traitsIS5_EEEEE16get_ready_timersERNS0_8op_queueINS0_25task_io_service_operationEEE
	.type	_ZN4asio6detail11timer_queueINS0_18chrono_time_traitsINSt6chrono3_V212steady_clockENS_11wait_traitsIS5_EEEEE16get_ready_timersERNS0_8op_queueINS0_25task_io_service_operationEEE, @function
_ZN4asio6detail11timer_queueINS0_18chrono_time_traitsINSt6chrono3_V212steady_clockENS_11wait_traitsIS5_EEEEE16get_ready_timersERNS0_8op_queueINS0_25task_io_service_operationEEE:
.LFB7609:
	.cfi_startproc
	movq	32(%rdi), %rax
	cmpq	%rax, 24(%rdi)
	je	.L512
	pushq	%r15
	.cfi_def_cfa_offset 16
	.cfi_offset 15, -16
	pushq	%r14
	.cfi_def_cfa_offset 24
	.cfi_offset 14, -24
	pushq	%r13
	.cfi_def_cfa_offset 32
	.cfi_offset 13, -32
	pushq	%r12
	.cfi_def_cfa_offset 40
	.cfi_offset 12, -40
	movq	%rsi, %r12
	pushq	%rbp
	.cfi_def_cfa_offset 48
	.cfi_offset 6, -48
	pushq	%rbx
	.cfi_def_cfa_offset 56
	.cfi_offset 3, -56
	movq	%rdi, %rbp
	subq	$8, %rsp
	.cfi_def_cfa_offset 64
	call	_ZNSt6chrono3_V212steady_clock3nowEv@PLT
	movq	32(%rbp), %rbx
	movq	24(%rbp), %rcx
	cmpq	%rcx, %rbx
	je	.L476
	.p2align 4,,10
	.p2align 3
.L494:
	cmpq	(%rcx), %rax
	jl	.L476
	movq	8(%rcx), %rdx
	movq	(%rdx), %rsi
	testq	%rsi, %rsi
	je	.L480
	movq	8(%r12), %rdi
	testq	%rdi, %rdi
	je	.L481
	movq	%rsi, (%rdi)
.L482:
	movq	8(%rdx), %rsi
	movq	%rsi, 8(%r12)
	movq	$0, (%rdx)
	movq	$0, 8(%rdx)
.L480:
	movq	16(%rdx), %r8
	movq	%rbx, %r9
	subq	%rcx, %r9
	sarq	$4, %r9
	cmpq	%r9, %r8
	jnb	.L515
	subq	$1, %r9
	subq	$16, %rbx
	cmpq	%r9, %r8
	je	.L516
	movq	%r8, %rsi
	movq	%r9, %rdi
	salq	$4, %rsi
	salq	$4, %rdi
	addq	%rcx, %rsi
	addq	%rcx, %rdi
	testq	%r8, %r8
	movq	(%rsi), %r11
	movq	8(%rsi), %r10
	movdqu	(%rdi), %xmm0
	movups	%xmm0, (%rsi)
	movq	%r11, (%rdi)
	movq	%r10, 8(%rdi)
	movq	8(%rsi), %r11
	movq	%r8, 16(%r11)
	movq	%r9, 16(%r10)
	movq	%rbx, 32(%rbp)
	je	.L486
	leaq	-1(%r8), %r9
	movq	(%rsi), %r13
	shrq	%r9
	movq	%r9, %rdi
	salq	$4, %rdi
	addq	%rcx, %rdi
	cmpq	%r13, (%rdi)
	jg	.L487
.L486:
	movq	%rbx, %rdi
	leaq	1(%r8,%r8), %r9
	subq	%rcx, %rdi
	sarq	$4, %rdi
	cmpq	%rdi, %r9
	jnb	.L484
	movq	(%rsi), %r13
	jmp	.L489
	.p2align 4,,10
	.p2align 3
.L517:
	leaq	16(%rcx,%r14), %r14
	movq	(%r14), %r15
	cmpq	%r15, %rsi
	jl	.L495
	movq	%r8, %r9
	movq	%r15, %rsi
	movq	%r14, %r11
	salq	$4, %r9
	addq	%rcx, %r9
	cmpq	%rsi, %r13
	jl	.L484
.L518:
	movq	8(%r9), %rsi
	movdqu	(%r11), %xmm0
	movups	%xmm0, (%r9)
	movq	%r13, (%r11)
	movq	%rsi, 8(%r11)
	movq	8(%r9), %r9
	movq	%r8, 16(%r9)
	leaq	1(%r10,%r10), %r9
	movq	%r10, 16(%rsi)
	movq	%r10, %r8
	cmpq	%rdi, %r9
	jnb	.L484
.L489:
	movq	%r9, %r14
	leaq	1(%r9), %r10
	salq	$4, %r14
	leaq	(%rcx,%r14), %r11
	cmpq	%rdi, %r10
	movq	(%r11), %rsi
	jne	.L517
.L495:
	movq	%r9, %r10
	movq	%r8, %r9
	salq	$4, %r9
	addq	%rcx, %r9
	cmpq	%rsi, %r13
	jge	.L518
	.p2align 4,,10
	.p2align 3
.L484:
	cmpq	16(%rbp), %rdx
	movq	24(%rdx), %rsi
	je	.L519
.L491:
	movq	32(%rdx), %rdi
	testq	%rdi, %rdi
	je	.L492
	movq	%rsi, 24(%rdi)
	movq	24(%rdx), %rsi
.L492:
	testq	%rsi, %rsi
	je	.L493
	movq	%rdi, 32(%rsi)
.L493:
	cmpq	%rcx, %rbx
	movq	$0, 24(%rdx)
	movq	$0, 32(%rdx)
	jne	.L494
.L476:
	addq	$8, %rsp
	.cfi_remember_state
	.cfi_def_cfa_offset 56
	popq	%rbx
	.cfi_def_cfa_offset 48
	popq	%rbp
	.cfi_def_cfa_offset 40
	popq	%r12
	.cfi_def_cfa_offset 32
	popq	%r13
	.cfi_def_cfa_offset 24
	popq	%r14
	.cfi_def_cfa_offset 16
	popq	%r15
	.cfi_def_cfa_offset 8
	ret
	.p2align 4,,10
	.p2align 3
.L490:
	.cfi_restore_state
	leaq	-1(%r9), %r10
	movq	%r9, %rsi
	salq	$4, %rsi
	shrq	%r10
	addq	%rcx, %rsi
	movq	%r10, %rdi
	movq	(%rsi), %r13
	salq	$4, %rdi
	addq	%rcx, %rdi
	cmpq	%r13, (%rdi)
	jle	.L484
	movq	8(%rsi), %r11
	movq	%r9, %r8
	movq	%r10, %r9
.L487:
	movdqu	(%rdi), %xmm0
	testq	%r9, %r9
	movups	%xmm0, (%rsi)
	movq	%r13, (%rdi)
	movq	%r11, 8(%rdi)
	movq	8(%rsi), %rsi
	movq	%r8, 16(%rsi)
	movq	%r9, 16(%r11)
	jne	.L490
	jmp	.L484
	.p2align 4,,10
	.p2align 3
.L515:
	cmpq	16(%rbp), %rdx
	movq	32(%rbp), %rbx
	movq	24(%rdx), %rsi
	jne	.L491
.L519:
	movq	%rsi, 16(%rbp)
	jmp	.L491
	.p2align 4,,10
	.p2align 3
.L481:
	movq	%rsi, (%r12)
	jmp	.L482
	.p2align 4,,10
	.p2align 3
.L512:
	.cfi_def_cfa_offset 8
	.cfi_restore 3
	.cfi_restore 6
	.cfi_restore 12
	.cfi_restore 13
	.cfi_restore 14
	.cfi_restore 15
	rep ret
	.p2align 4,,10
	.p2align 3
.L516:
	.cfi_def_cfa_offset 64
	.cfi_offset 3, -56
	.cfi_offset 6, -48
	.cfi_offset 12, -40
	.cfi_offset 13, -32
	.cfi_offset 14, -24
	.cfi_offset 15, -16
	movq	%rbx, 32(%rbp)
	jmp	.L484
	.cfi_endproc
.LFE7609:
	.size	_ZN4asio6detail11timer_queueINS0_18chrono_time_traitsINSt6chrono3_V212steady_clockENS_11wait_traitsIS5_EEEEE16get_ready_timersERNS0_8op_queueINS0_25task_io_service_operationEEE, .-_ZN4asio6detail11timer_queueINS0_18chrono_time_traitsINSt6chrono3_V212steady_clockENS_11wait_traitsIS5_EEEEE16get_ready_timersERNS0_8op_queueINS0_25task_io_service_operationEEE
	.section	.rodata._ZNK4asio6detail15system_category7messageB5cxx11Ei.str1.8,"aMS",@progbits,1
	.align 8
.LC4:
	.string	"basic_string::_M_construct null not valid"
	.section	.text._ZNK4asio6detail15system_category7messageB5cxx11Ei,"axG",@progbits,_ZNK4asio6detail15system_category7messageB5cxx11Ei,comdat
	.align 2
	.p2align 4,,15
	.weak	_ZNK4asio6detail15system_category7messageB5cxx11Ei
	.type	_ZNK4asio6detail15system_category7messageB5cxx11Ei, @function
_ZNK4asio6detail15system_category7messageB5cxx11Ei:
.LFB2186:
	.cfi_startproc
	pushq	%r13
	.cfi_def_cfa_offset 16
	.cfi_offset 13, -16
	pushq	%r12
	.cfi_def_cfa_offset 24
	.cfi_offset 12, -24
	pushq	%rbp
	.cfi_def_cfa_offset 32
	.cfi_offset 6, -32
	pushq	%rbx
	.cfi_def_cfa_offset 40
	.cfi_offset 3, -40
	leaq	16(%rdi), %rbp
	movq	%rdi, %rbx
	subq	$296, %rsp
	.cfi_def_cfa_offset 336
	movq	%fs:40, %rax
	movq	%rax, 280(%rsp)
	xorl	%eax, %eax
	cmpl	$125, %edx
	je	.L535
	pxor	%xmm0, %xmm0
	leaq	32(%rsp), %rdi
	movl	%edx, %r8d
	xorl	%eax, %eax
	movl	$30, %ecx
	leaq	16(%rsp), %rsi
	rep stosq
	movl	$256, %edx
	movl	%r8d, %edi
	movaps	%xmm0, 16(%rsp)
	call	strerror_r@PLT
	testq	%rax, %rax
	movq	%rax, %r12
	movq	%rbp, (%rbx)
	je	.L523
	movq	%rax, %rdi
	call	strlen@PLT
	cmpq	$15, %rax
	movq	%rax, %r13
	movq	%rax, 8(%rsp)
	ja	.L536
	cmpq	$1, %rax
	jne	.L527
	movzbl	(%r12), %edx
	movb	%dl, 16(%rbx)
.L528:
	movq	%rax, 8(%rbx)
	movb	$0, 0(%rbp,%rax)
.L520:
	movq	280(%rsp), %rcx
	xorq	%fs:40, %rcx
	movq	%rbx, %rax
	jne	.L537
	addq	$296, %rsp
	.cfi_remember_state
	.cfi_def_cfa_offset 40
	popq	%rbx
	.cfi_def_cfa_offset 32
	popq	%rbp
	.cfi_def_cfa_offset 24
	popq	%r12
	.cfi_def_cfa_offset 16
	popq	%r13
	.cfi_def_cfa_offset 8
	ret
	.p2align 4,,10
	.p2align 3
.L536:
	.cfi_restore_state
	leaq	8(%rsp), %rsi
	xorl	%edx, %edx
	movq	%rbx, %rdi
	call	_ZNSt7__cxx1112basic_stringIcSt11char_traitsIcESaIcEE9_M_createERmm@PLT
	movq	%rax, %rbp
	movq	%rax, (%rbx)
	movq	8(%rsp), %rax
	movq	%rax, 16(%rbx)
.L526:
	movq	%rbp, %rdi
	movq	%r13, %rdx
	movq	%r12, %rsi
	call	memcpy@PLT
	movq	8(%rsp), %rax
	movq	(%rbx), %rbp
	jmp	.L528
	.p2align 4,,10
	.p2align 3
.L535:
	leaq	8(%rsp), %rsi
	xorl	%edx, %edx
	movq	%rbp, (%rdi)
	movq	$18, 8(%rsp)
	call	_ZNSt7__cxx1112basic_stringIcSt11char_traitsIcESaIcEE9_M_createERmm@PLT
	movq	8(%rsp), %rdx
	movq	%rax, (%rbx)
	movdqa	.LC5(%rip), %xmm0
	movq	%rdx, 16(%rbx)
	movl	$11876, %edx
	movups	%xmm0, (%rax)
	movw	%dx, 16(%rax)
	movq	8(%rsp), %rax
	movq	(%rbx), %rdx
	movq	%rax, 8(%rbx)
	movb	$0, (%rdx,%rax)
	jmp	.L520
	.p2align 4,,10
	.p2align 3
.L527:
	testq	%rax, %rax
	je	.L528
	jmp	.L526
.L537:
	call	__stack_chk_fail@PLT
.L523:
	leaq	.LC4(%rip), %rdi
	call	_ZSt19__throw_logic_errorPKc@PLT
	.cfi_endproc
.LFE2186:
	.size	_ZNK4asio6detail15system_category7messageB5cxx11Ei, .-_ZNK4asio6detail15system_category7messageB5cxx11Ei
	.section	.text._ZNK4asio5error6detail17addrinfo_category7messageB5cxx11Ei,"axG",@progbits,_ZNK4asio5error6detail17addrinfo_category7messageB5cxx11Ei,comdat
	.align 2
	.p2align 4,,15
	.weak	_ZNK4asio5error6detail17addrinfo_category7messageB5cxx11Ei
	.type	_ZNK4asio5error6detail17addrinfo_category7messageB5cxx11Ei, @function
_ZNK4asio5error6detail17addrinfo_category7messageB5cxx11Ei:
.LFB2232:
	.cfi_startproc
	pushq	%rbx
	.cfi_def_cfa_offset 16
	.cfi_offset 3, -16
	movq	%rdi, %rbx
	subq	$16, %rsp
	.cfi_def_cfa_offset 32
	movq	%fs:40, %rax
	movq	%rax, 8(%rsp)
	xorl	%eax, %eax
	leaq	16(%rdi), %rax
	cmpl	$-8, %edx
	movq	%rax, (%rdi)
	je	.L544
	cmpl	$-7, %edx
	je	.L545
	xorl	%edx, %edx
	movq	%rsp, %rsi
	movq	$19, (%rsp)
	call	_ZNSt7__cxx1112basic_stringIcSt11char_traitsIcESaIcEE9_M_createERmm@PLT
	movq	(%rsp), %rdx
	movq	%rax, (%rbx)
	movdqa	.LC8(%rip), %xmm0
	movq	%rdx, 16(%rbx)
	movl	$28530, %edx
	movb	$114, 18(%rax)
	movups	%xmm0, (%rax)
	movw	%dx, 16(%rax)
	movq	(%rsp), %rax
	movq	(%rbx), %rdx
	movq	%rax, 8(%rbx)
	movb	$0, (%rdx,%rax)
.L538:
	movq	8(%rsp), %rcx
	xorq	%fs:40, %rcx
	movq	%rbx, %rax
	jne	.L546
	addq	$16, %rsp
	.cfi_remember_state
	.cfi_def_cfa_offset 16
	popq	%rbx
	.cfi_def_cfa_offset 8
	ret
	.p2align 4,,10
	.p2align 3
.L545:
	.cfi_restore_state
	xorl	%edx, %edx
	movq	%rsp, %rsi
	movq	$25, (%rsp)
	call	_ZNSt7__cxx1112basic_stringIcSt11char_traitsIcESaIcEE9_M_createERmm@PLT
	movq	(%rsp), %rdx
	movabsq	$7310593918082512243, %rcx
	movq	%rax, (%rbx)
	movdqa	.LC7(%rip), %xmm0
	movq	%rdx, 16(%rbx)
	movq	%rcx, 16(%rax)
	movups	%xmm0, (%rax)
	movb	$100, 24(%rax)
	movq	(%rsp), %rax
	movq	(%rbx), %rdx
	movq	%rax, 8(%rbx)
	movb	$0, (%rdx,%rax)
	jmp	.L538
	.p2align 4,,10
	.p2align 3
.L544:
	xorl	%edx, %edx
	movq	%rsp, %rsi
	movq	$17, (%rsp)
	call	_ZNSt7__cxx1112basic_stringIcSt11char_traitsIcESaIcEE9_M_createERmm@PLT
	movq	(%rsp), %rdx
	movq	%rax, (%rbx)
	movdqa	.LC6(%rip), %xmm0
	movq	%rdx, 16(%rbx)
	movb	$100, 16(%rax)
	movups	%xmm0, (%rax)
	movq	(%rsp), %rax
	movq	(%rbx), %rdx
	movq	%rax, 8(%rbx)
	movb	$0, (%rdx,%rax)
	jmp	.L538
.L546:
	call	__stack_chk_fail@PLT
	.cfi_endproc
.LFE2232:
	.size	_ZNK4asio5error6detail17addrinfo_category7messageB5cxx11Ei, .-_ZNK4asio5error6detail17addrinfo_category7messageB5cxx11Ei
	.section	.text._ZNK4asio5error6detail13misc_category7messageB5cxx11Ei,"axG",@progbits,_ZNK4asio5error6detail13misc_category7messageB5cxx11Ei,comdat
	.align 2
	.p2align 4,,15
	.weak	_ZNK4asio5error6detail13misc_category7messageB5cxx11Ei
	.type	_ZNK4asio5error6detail13misc_category7messageB5cxx11Ei, @function
_ZNK4asio5error6detail13misc_category7messageB5cxx11Ei:
.LFB2238:
	.cfi_startproc
	pushq	%rbx
	.cfi_def_cfa_offset 16
	.cfi_offset 3, -16
	movq	%rdi, %rbx
	subq	$16, %rsp
	.cfi_def_cfa_offset 32
	movq	%fs:40, %rax
	movq	%rax, 8(%rsp)
	xorl	%eax, %eax
	leaq	16(%rdi), %rax
	cmpl	$1, %edx
	movq	%rax, (%rdi)
	je	.L555
	cmpl	$2, %edx
	je	.L556
	cmpl	$3, %edx
	je	.L557
	cmpl	$4, %edx
	je	.L558
	movabsq	$8316298233121436513, %rsi
	movl	$28530, %edx
	movq	%rsi, 16(%rdi)
	movl	$1919230051, 8(%rax)
	movw	%dx, 12(%rax)
	movb	$114, 14(%rax)
	movq	$15, 8(%rdi)
	movb	$0, 31(%rdi)
.L547:
	movq	8(%rsp), %rcx
	xorq	%fs:40, %rcx
	movq	%rbx, %rax
	jne	.L559
	addq	$16, %rsp
	.cfi_remember_state
	.cfi_def_cfa_offset 16
	popq	%rbx
	.cfi_def_cfa_offset 8
	ret
	.p2align 4,,10
	.p2align 3
.L558:
	.cfi_restore_state
	xorl	%edx, %edx
	movq	%rsp, %rsi
	movq	$57, (%rsp)
	call	_ZNSt7__cxx1112basic_stringIcSt11char_traitsIcESaIcEE9_M_createERmm@PLT
	movq	(%rsp), %rdx
	movq	%rax, (%rbx)
	movabsq	$7310291504967217959, %rdi
	movdqa	.LC10(%rip), %xmm0
	movq	%rdx, 16(%rbx)
	movq	%rdi, 48(%rax)
	movups	%xmm0, (%rax)
	movb	$116, 56(%rax)
	movdqa	.LC11(%rip), %xmm0
	movups	%xmm0, 16(%rax)
	movdqa	.LC12(%rip), %xmm0
	movups	%xmm0, 32(%rax)
	movq	(%rsp), %rax
	movq	(%rbx), %rdx
	movq	%rax, 8(%rbx)
	movb	$0, (%rdx,%rax)
	jmp	.L547
	.p2align 4,,10
	.p2align 3
.L555:
	movabsq	$2340011850872286273, %rcx
	movq	%rcx, 16(%rdi)
	movl	$1852141679, 8(%rax)
	movq	$12, 8(%rdi)
	movb	$0, 28(%rdi)
	jmp	.L547
	.p2align 4,,10
	.p2align 3
.L556:
	movabsq	$7358994418594246213, %rcx
	movq	%rcx, 16(%rdi)
	movl	$27753, %ecx
	movb	$101, 10(%rax)
	movw	%cx, 8(%rax)
	movq	$11, 8(%rdi)
	movb	$0, 27(%rdi)
	jmp	.L547
	.p2align 4,,10
	.p2align 3
.L557:
	xorl	%edx, %edx
	movq	%rsp, %rsi
	movq	$17, (%rsp)
	call	_ZNSt7__cxx1112basic_stringIcSt11char_traitsIcESaIcEE9_M_createERmm@PLT
	movq	(%rsp), %rdx
	movq	%rax, (%rbx)
	movdqa	.LC9(%rip), %xmm0
	movq	%rdx, 16(%rbx)
	movb	$100, 16(%rax)
	movups	%xmm0, (%rax)
	movq	(%rsp), %rax
	movq	(%rbx), %rdx
	movq	%rax, 8(%rbx)
	movb	$0, (%rdx,%rax)
	jmp	.L547
.L559:
	call	__stack_chk_fail@PLT
	.cfi_endproc
.LFE2238:
	.size	_ZNK4asio5error6detail13misc_category7messageB5cxx11Ei, .-_ZNK4asio5error6detail13misc_category7messageB5cxx11Ei
	.section	.text._ZNK4asio5error6detail14netdb_category7messageB5cxx11Ei,"axG",@progbits,_ZNK4asio5error6detail14netdb_category7messageB5cxx11Ei,comdat
	.align 2
	.p2align 4,,15
	.weak	_ZNK4asio5error6detail14netdb_category7messageB5cxx11Ei
	.type	_ZNK4asio5error6detail14netdb_category7messageB5cxx11Ei, @function
_ZNK4asio5error6detail14netdb_category7messageB5cxx11Ei:
.LFB2226:
	.cfi_startproc
	pushq	%rbx
	.cfi_def_cfa_offset 16
	.cfi_offset 3, -16
	movq	%rdi, %rbx
	subq	$16, %rsp
	.cfi_def_cfa_offset 32
	movq	%fs:40, %rax
	movq	%rax, 8(%rsp)
	xorl	%eax, %eax
	leaq	16(%rdi), %rax
	cmpl	$1, %edx
	movq	%rax, (%rdi)
	je	.L568
	cmpl	$2, %edx
	je	.L569
	cmpl	$4, %edx
	je	.L570
	cmpl	$3, %edx
	je	.L571
	xorl	%edx, %edx
	movq	%rsp, %rsi
	movq	$16, (%rsp)
	call	_ZNSt7__cxx1112basic_stringIcSt11char_traitsIcESaIcEE9_M_createERmm@PLT
	movq	(%rsp), %rdx
	movq	%rax, (%rbx)
	movdqa	.LC22(%rip), %xmm0
	movq	%rdx, 16(%rbx)
	movups	%xmm0, (%rax)
	movq	(%rsp), %rax
	movq	(%rbx), %rdx
	movq	%rax, 8(%rbx)
	movb	$0, (%rdx,%rax)
.L560:
	movq	8(%rsp), %rcx
	xorq	%fs:40, %rcx
	movq	%rbx, %rax
	jne	.L572
	addq	$16, %rsp
	.cfi_remember_state
	.cfi_def_cfa_offset 16
	popq	%rbx
	.cfi_def_cfa_offset 8
	ret
	.p2align 4,,10
	.p2align 3
.L571:
	.cfi_restore_state
	xorl	%edx, %edx
	movq	%rsp, %rsi
	movq	$55, (%rsp)
	call	_ZNSt7__cxx1112basic_stringIcSt11char_traitsIcESaIcEE9_M_createERmm@PLT
	movq	(%rsp), %rdx
	movq	%rax, (%rbx)
	movdqa	.LC19(%rip), %xmm0
	movq	%rdx, 16(%rbx)
	movl	$30059, %edx
	movl	$1869573152, 48(%rax)
	movups	%xmm0, (%rax)
	movw	%dx, 52(%rax)
	movb	$112, 54(%rax)
	movdqa	.LC20(%rip), %xmm0
	movups	%xmm0, 16(%rax)
	movdqa	.LC21(%rip), %xmm0
	movups	%xmm0, 32(%rax)
	movq	(%rsp), %rax
	movq	(%rbx), %rdx
	movq	%rax, 8(%rbx)
	movb	$0, (%rdx,%rax)
	jmp	.L560
	.p2align 4,,10
	.p2align 3
.L568:
	movq	%rsp, %rsi
	xorl	%edx, %edx
	movq	$30, (%rsp)
	call	_ZNSt7__cxx1112basic_stringIcSt11char_traitsIcESaIcEE9_M_createERmm@PLT
	movq	(%rsp), %rdx
	movabsq	$8388361603773658465, %rcx
	movl	$10597, %esi
	movdqa	.LC13(%rip), %xmm0
	movq	%rax, (%rbx)
	movq	%rdx, 16(%rbx)
	movq	%rcx, 16(%rax)
	movups	%xmm0, (%rax)
	movl	$1986622561, 24(%rax)
	movw	%si, 28(%rax)
	movq	(%rsp), %rax
	movq	(%rbx), %rdx
	movq	%rax, 8(%rbx)
	movb	$0, (%rdx,%rax)
	jmp	.L560
	.p2align 4,,10
	.p2align 3
.L569:
	xorl	%edx, %edx
	movq	%rsp, %rsi
	movq	$51, (%rsp)
	call	_ZNSt7__cxx1112basic_stringIcSt11char_traitsIcESaIcEE9_M_createERmm@PLT
	movq	(%rsp), %rdx
	movq	%rax, (%rbx)
	movl	$25972, %ecx
	movdqa	.LC13(%rip), %xmm0
	movq	%rdx, 16(%rbx)
	movw	%cx, 48(%rax)
	movups	%xmm0, (%rax)
	movb	$114, 50(%rax)
	movdqa	.LC14(%rip), %xmm0
	movups	%xmm0, 16(%rax)
	movdqa	.LC15(%rip), %xmm0
	movups	%xmm0, 32(%rax)
	movq	(%rsp), %rax
	movq	(%rbx), %rdx
	movq	%rax, 8(%rbx)
	movb	$0, (%rdx,%rax)
	jmp	.L560
	.p2align 4,,10
	.p2align 3
.L570:
	xorl	%edx, %edx
	movq	%rsp, %rsi
	movq	$56, (%rsp)
	call	_ZNSt7__cxx1112basic_stringIcSt11char_traitsIcESaIcEE9_M_createERmm@PLT
	movq	(%rsp), %rdx
	movq	%rax, (%rbx)
	movabsq	$7022344801645520244, %rcx
	movdqa	.LC16(%rip), %xmm0
	movq	%rdx, 16(%rbx)
	movq	%rcx, 48(%rax)
	movups	%xmm0, (%rax)
	movdqa	.LC17(%rip), %xmm0
	movups	%xmm0, 16(%rax)
	movdqa	.LC18(%rip), %xmm0
	movups	%xmm0, 32(%rax)
	movq	(%rsp), %rax
	movq	(%rbx), %rdx
	movq	%rax, 8(%rbx)
	movb	$0, (%rdx,%rax)
	jmp	.L560
.L572:
	call	__stack_chk_fail@PLT
	.cfi_endproc
.LFE2226:
	.size	_ZNK4asio5error6detail14netdb_category7messageB5cxx11Ei, .-_ZNK4asio5error6detail14netdb_category7messageB5cxx11Ei
	.section	.rodata._ZNSt12system_errorC2ESt10error_codePKc.str1.1,"aMS",@progbits,1
.LC23:
	.string	": "
	.section	.text._ZNSt12system_errorC2ESt10error_codePKc,"axG",@progbits,_ZNSt12system_errorC5ESt10error_codePKc,comdat
	.align 2
	.p2align 4,,15
	.weak	_ZNSt12system_errorC2ESt10error_codePKc
	.type	_ZNSt12system_errorC2ESt10error_codePKc, @function
_ZNSt12system_errorC2ESt10error_codePKc:
.LFB2126:
	.cfi_startproc
	.cfi_personality 0x9b,DW.ref.__gxx_personality_v0
	.cfi_lsda 0x1b,.LLSDA2126
	pushq	%r15
	.cfi_def_cfa_offset 16
	.cfi_offset 15, -16
	pushq	%r14
	.cfi_def_cfa_offset 24
	.cfi_offset 14, -24
	movq	%rdx, %r14
	pushq	%r13
	.cfi_def_cfa_offset 32
	.cfi_offset 13, -32
	pushq	%r12
	.cfi_def_cfa_offset 40
	.cfi_offset 12, -40
	movq	%rdi, %r13
	pushq	%rbp
	.cfi_def_cfa_offset 48
	.cfi_offset 6, -48
	pushq	%rbx
	.cfi_def_cfa_offset 56
	.cfi_offset 3, -56
	movq	%rcx, %r12
	movq	%rsi, %r15
	subq	$120, %rsp
	.cfi_def_cfa_offset 176
	movq	%fs:40, %rax
	movq	%rax, 104(%rsp)
	xorl	%eax, %eax
	movq	(%rdx), %rax
	leaq	64(%rsp), %rbx
	movl	%esi, %edx
	movq	%r14, %rsi
	movq	%rbx, %rdi
.LEHB2:
	call	*32(%rax)
.LEHE2:
	leaq	.LC23(%rip), %rcx
	movl	$2, %r8d
	xorl	%edx, %edx
	xorl	%esi, %esi
	movq	%rbx, %rdi
.LEHB3:
	call	_ZNSt7__cxx1112basic_stringIcSt11char_traitsIcESaIcEE10_M_replaceEmmPKcm@PLT
.LEHE3:
	leaq	32(%rsp), %rbp
	leaq	16(%rbp), %rdx
	movq	%rdx, 32(%rsp)
	movq	(%rax), %rcx
	leaq	16(%rax), %rdx
	cmpq	%rdx, %rcx
	je	.L593
	movq	%rcx, 32(%rsp)
	movq	16(%rax), %rcx
	movq	%rcx, 48(%rsp)
.L575:
	movq	8(%rax), %rcx
	movq	%r12, %rdi
	movb	$0, 16(%rax)
	movq	%rcx, 40(%rsp)
	movq	%rdx, (%rax)
	movq	$0, 8(%rax)
	call	strlen@PLT
	movq	%r12, %rcx
	movq	%rax, %r8
	xorl	%edx, %edx
	xorl	%esi, %esi
	movq	%rbp, %rdi
.LEHB4:
	call	_ZNSt7__cxx1112basic_stringIcSt11char_traitsIcESaIcEE10_M_replaceEmmPKcm@PLT
.LEHE4:
	movq	%rsp, %r12
	leaq	16(%r12), %rdx
	movq	%rdx, (%rsp)
	movq	(%rax), %rcx
	leaq	16(%rax), %rdx
	cmpq	%rdx, %rcx
	je	.L594
	movq	%rcx, (%rsp)
	movq	16(%rax), %rcx
	movq	%rcx, 16(%rsp)
.L577:
	movq	8(%rax), %rcx
	movb	$0, 16(%rax)
	movq	%r12, %rsi
	movq	%r13, %rdi
	movq	%rcx, 8(%rsp)
	movq	%rdx, (%rax)
	movq	$0, 8(%rax)
.LEHB5:
	call	_ZNSt13runtime_errorC2ERKNSt7__cxx1112basic_stringIcSt11char_traitsIcESaIcEEE@PLT
.LEHE5:
	movq	(%rsp), %rdi
	addq	$16, %r12
	cmpq	%r12, %rdi
	je	.L578
	call	_ZdlPv@PLT
.L578:
	movq	32(%rsp), %rdi
	addq	$16, %rbp
	cmpq	%rbp, %rdi
	je	.L579
	call	_ZdlPv@PLT
.L579:
	movq	64(%rsp), %rdi
	addq	$16, %rbx
	cmpq	%rbx, %rdi
	je	.L580
	call	_ZdlPv@PLT
.L580:
	movq	_ZTVSt12system_error@GOTPCREL(%rip), %rax
	movq	%r15, 16(%r13)
	movq	%r14, 24(%r13)
	addq	$16, %rax
	movq	%rax, 0(%r13)
	movq	104(%rsp), %rax
	xorq	%fs:40, %rax
	jne	.L595
	addq	$120, %rsp
	.cfi_remember_state
	.cfi_def_cfa_offset 56
	popq	%rbx
	.cfi_def_cfa_offset 48
	popq	%rbp
	.cfi_def_cfa_offset 40
	popq	%r12
	.cfi_def_cfa_offset 32
	popq	%r13
	.cfi_def_cfa_offset 24
	popq	%r14
	.cfi_def_cfa_offset 16
	popq	%r15
	.cfi_def_cfa_offset 8
	ret
	.p2align 4,,10
	.p2align 3
.L593:
	.cfi_restore_state
	movdqu	16(%rax), %xmm0
	movaps	%xmm0, 48(%rsp)
	jmp	.L575
	.p2align 4,,10
	.p2align 3
.L594:
	movdqu	16(%rax), %xmm0
	movaps	%xmm0, 16(%rsp)
	jmp	.L577
.L595:
	call	__stack_chk_fail@PLT
.L590:
	movq	(%rsp), %rdi
	addq	$16, %r12
	movq	%rax, %r13
	cmpq	%r12, %rdi
	je	.L582
	call	_ZdlPv@PLT
.L582:
	movq	%r13, %r12
.L583:
	movq	32(%rsp), %rdi
	addq	$16, %rbp
	cmpq	%rbp, %rdi
	je	.L585
	call	_ZdlPv@PLT
.L585:
	movq	64(%rsp), %rdi
	addq	$16, %rbx
	cmpq	%rbx, %rdi
	je	.L586
	call	_ZdlPv@PLT
.L586:
	movq	%r12, %rdi
.LEHB6:
	call	_Unwind_Resume@PLT
.LEHE6:
.L588:
	movq	%rax, %r12
	jmp	.L585
.L589:
	movq	%rax, %r12
	jmp	.L583
	.cfi_endproc
.LFE2126:
	.section	.gcc_except_table._ZNSt12system_errorC2ESt10error_codePKc,"aG",@progbits,_ZNSt12system_errorC5ESt10error_codePKc,comdat
.LLSDA2126:
	.byte	0xff
	.byte	0xff
	.byte	0x1
	.uleb128 .LLSDACSE2126-.LLSDACSB2126
.LLSDACSB2126:
	.uleb128 .LEHB2-.LFB2126
	.uleb128 .LEHE2-.LEHB2
	.uleb128 0
	.uleb128 0
	.uleb128 .LEHB3-.LFB2126
	.uleb128 .LEHE3-.LEHB3
	.uleb128 .L588-.LFB2126
	.uleb128 0
	.uleb128 .LEHB4-.LFB2126
	.uleb128 .LEHE4-.LEHB4
	.uleb128 .L589-.LFB2126
	.uleb128 0
	.uleb128 .LEHB5-.LFB2126
	.uleb128 .LEHE5-.LEHB5
	.uleb128 .L590-.LFB2126
	.uleb128 0
	.uleb128 .LEHB6-.LFB2126
	.uleb128 .LEHE6-.LEHB6
	.uleb128 0
	.uleb128 0
.LLSDACSE2126:
	.section	.text._ZNSt12system_errorC2ESt10error_codePKc,"axG",@progbits,_ZNSt12system_errorC5ESt10error_codePKc,comdat
	.size	_ZNSt12system_errorC2ESt10error_codePKc, .-_ZNSt12system_errorC2ESt10error_codePKc
	.weak	_ZNSt12system_errorC1ESt10error_codePKc
	.set	_ZNSt12system_errorC1ESt10error_codePKc,_ZNSt12system_errorC2ESt10error_codePKc
	.section	.text._ZN4asio6detail14do_throw_errorERKSt10error_codePKc,"axG",@progbits,_ZN4asio6detail14do_throw_errorERKSt10error_codePKc,comdat
	.p2align 4,,15
	.weak	_ZN4asio6detail14do_throw_errorERKSt10error_codePKc
	.type	_ZN4asio6detail14do_throw_errorERKSt10error_codePKc, @function
_ZN4asio6detail14do_throw_errorERKSt10error_codePKc:
.LFB2219:
	.cfi_startproc
	.cfi_personality 0x9b,DW.ref.__gxx_personality_v0
	.cfi_lsda 0x1b,.LLSDA2219
	pushq	%rbp
	.cfi_def_cfa_offset 16
	.cfi_offset 6, -16
	pushq	%rbx
	.cfi_def_cfa_offset 24
	.cfi_offset 3, -24
	movq	%rsi, %rcx
	subq	$56, %rsp
	.cfi_def_cfa_offset 80
	movq	8(%rdi), %rdx
	movl	(%rdi), %esi
	movq	%rsp, %rbp
	movq	%rbp, %rdi
	movq	%fs:40, %rax
	movq	%rax, 40(%rsp)
	xorl	%eax, %eax
.LEHB7:
	call	_ZNSt12system_errorC1ESt10error_codePKc@PLT
.LEHE7:
	movl	$32, %edi
	call	__cxa_allocate_exception@PLT
	movq	%rbp, %rsi
	movq	%rax, %rdi
	movq	%rax, %rbx
	call	_ZNSt13runtime_errorC2ERKS_@PLT
	movq	_ZTVSt12system_error@GOTPCREL(%rip), %rax
	movq	_ZNSt12system_errorD1Ev@GOTPCREL(%rip), %rdx
	movq	%rbx, %rdi
	movdqa	16(%rsp), %xmm0
	movq	_ZTISt12system_error@GOTPCREL(%rip), %rsi
	movups	%xmm0, 16(%rbx)
	addq	$16, %rax
	movq	%rax, (%rbx)
.LEHB8:
	call	__cxa_throw@PLT
.LEHE8:
.L599:
	movq	%rax, %rbx
	movq	%rbp, %rdi
	call	_ZNSt12system_errorD1Ev@PLT
	movq	%rbx, %rdi
.LEHB9:
	call	_Unwind_Resume@PLT
.LEHE9:
	.cfi_endproc
.LFE2219:
	.section	.gcc_except_table._ZN4asio6detail14do_throw_errorERKSt10error_codePKc,"aG",@progbits,_ZN4asio6detail14do_throw_errorERKSt10error_codePKc,comdat
.LLSDA2219:
	.byte	0xff
	.byte	0xff
	.byte	0x1
	.uleb128 .LLSDACSE2219-.LLSDACSB2219
.LLSDACSB2219:
	.uleb128 .LEHB7-.LFB2219
	.uleb128 .LEHE7-.LEHB7
	.uleb128 0
	.uleb128 0
	.uleb128 .LEHB8-.LFB2219
	.uleb128 .LEHE8-.LEHB8
	.uleb128 .L599-.LFB2219
	.uleb128 0
	.uleb128 .LEHB9-.LFB2219
	.uleb128 .LEHE9-.LEHB9
	.uleb128 0
	.uleb128 0
.LLSDACSE2219:
	.section	.text._ZN4asio6detail14do_throw_errorERKSt10error_codePKc,"axG",@progbits,_ZN4asio6detail14do_throw_errorERKSt10error_codePKc,comdat
	.size	_ZN4asio6detail14do_throw_errorERKSt10error_codePKc, .-_ZN4asio6detail14do_throw_errorERKSt10error_codePKc
	.section	.rodata._ZN4asio6detail13epoll_reactor12fork_serviceENS_10io_service10fork_eventE.str1.1,"aMS",@progbits,1
.LC24:
	.string	"epoll"
.LC25:
	.string	"eventfd_select_interrupter"
.LC26:
	.string	"epoll re-registration"
	.section	.text._ZN4asio6detail13epoll_reactor12fork_serviceENS_10io_service10fork_eventE,"axG",@progbits,_ZN4asio6detail13epoll_reactor12fork_serviceENS_10io_service10fork_eventE,comdat
	.align 2
	.p2align 4,,15
	.weak	_ZN4asio6detail13epoll_reactor12fork_serviceENS_10io_service10fork_eventE
	.type	_ZN4asio6detail13epoll_reactor12fork_serviceENS_10io_service10fork_eventE, @function
_ZN4asio6detail13epoll_reactor12fork_serviceENS_10io_service10fork_eventE:
.LFB3069:
	.cfi_startproc
	.cfi_personality 0x9b,DW.ref.__gxx_personality_v0
	.cfi_lsda 0x1b,.LLSDA3069
	pushq	%r15
	.cfi_def_cfa_offset 16
	.cfi_offset 15, -16
	pushq	%r14
	.cfi_def_cfa_offset 24
	.cfi_offset 14, -24
	pushq	%r13
	.cfi_def_cfa_offset 32
	.cfi_offset 13, -32
	pushq	%r12
	.cfi_def_cfa_offset 40
	.cfi_offset 12, -40
	pushq	%rbp
	.cfi_def_cfa_offset 48
	.cfi_offset 6, -48
	pushq	%rbx
	.cfi_def_cfa_offset 56
	.cfi_offset 3, -56
	subq	$104, %rsp
	.cfi_def_cfa_offset 160
	movq	%fs:40, %rax
	movq	%rax, 88(%rsp)
	xorl	%eax, %eax
	cmpl	$2, %esi
	je	.L718
.L601:
	movq	88(%rsp), %rax
	xorq	%fs:40, %rax
	jne	.L719
	addq	$104, %rsp
	.cfi_remember_state
	.cfi_def_cfa_offset 56
	popq	%rbx
	.cfi_def_cfa_offset 48
	popq	%rbp
	.cfi_def_cfa_offset 40
	popq	%r12
	.cfi_def_cfa_offset 32
	popq	%r13
	.cfi_def_cfa_offset 24
	popq	%r14
	.cfi_def_cfa_offset 16
	popq	%r15
	.cfi_def_cfa_offset 8
	ret
	.p2align 4,,10
	.p2align 3
.L718:
	.cfi_restore_state
	movq	%rdi, %rbx
	movl	96(%rdi), %edi
	cmpl	$-1, %edi
	jne	.L720
.L603:
	movl	$-1, 96(%rbx)
	movl	$524288, %edi
	call	epoll_create1@PLT
	cmpl	$-1, %eax
	movl	%eax, %ebp
	je	.L721
.L604:
	movl	100(%rbx), %edi
	movl	%ebp, 96(%rbx)
	cmpl	$-1, %edi
	jne	.L722
.L610:
	movl	$-1, 100(%rbx)
	movl	$524288, %esi
	movl	$1, %edi
	call	timerfd_create@PLT
	cmpl	$-1, %eax
	movl	%eax, %ebp
	je	.L723
.L611:
	movl	92(%rbx), %edi
	movl	%ebp, 100(%rbx)
	leaq	88(%rbx), %r14
	movl	88(%rbx), %eax
	cmpl	$-1, %edi
	je	.L612
	cmpl	%eax, %edi
	jne	.L724
.L613:
	movl	%eax, %edi
.LEHB10:
	call	close@PLT
.L614:
	xorl	%edi, %edi
	movq	$-1, 88(%rbx)
	movl	$526336, %esi
	call	eventfd@PLT
	cmpl	$-1, %eax
	movl	%eax, 88(%rbx)
	movl	%eax, 92(%rbx)
	je	.L725
.L615:
	movl	96(%rbx), %edi
	leaq	4(%rsp), %rbp
	movl	%eax, %edx
	movl	$1, %esi
	movl	$-2147483639, 4(%rsp)
	movq	%r14, 8(%rsp)
	movq	%rbp, %rcx
	leaq	48(%rsp), %r13
	call	epoll_ctl@PLT
	movl	92(%rbx), %edi
	movl	$8, %edx
	movq	%r13, %rsi
	movq	$1, 48(%rsp)
	call	write@PLT
.LEHE10:
	movl	100(%rbx), %edx
	cmpl	$-1, %edx
	jne	.L726
.L623:
	movl	88(%rbx), %edx
	movl	96(%rbx), %edi
	movq	%r13, %rcx
	movl	$3, %esi
	movl	$-2147483639, 48(%rsp)
	movq	%r14, 52(%rsp)
	call	epoll_ctl@PLT
.L637:
	leaq	120(%rbx), %r14
	movq	%r14, %rdi
	call	pthread_mutex_lock@PLT
	movq	160(%rbx), %r15
	testq	%r15, %r15
	jne	.L644
	jmp	.L638
	.p2align 4,,10
	.p2align 3
.L639:
	movq	24(%r15), %r15
	testq	%r15, %r15
	je	.L638
.L644:
	movl	92(%r15), %eax
	movl	88(%r15), %edx
	movq	%rbp, %rcx
	movl	96(%rbx), %edi
	movl	$1, %esi
	movq	%r15, 8(%rsp)
	movl	%eax, 4(%rsp)
	call	epoll_ctl@PLT
	testl	%eax, %eax
	je	.L639
	movq	_ZGVZN4asio15system_categoryEvE8instance@GOTPCREL(%rip), %r12
	movzbl	(%r12), %eax
	testb	%al, %al
	je	.L640
.L717:
	movq	_ZZN4asio15system_categoryEvE8instance@GOTPCREL(%rip), %r12
.L641:
	call	__errno_location@PLT
	movl	(%rax), %eax
	movq	%r12, 56(%rsp)
	testl	%eax, %eax
	movl	%eax, 48(%rsp)
	je	.L639
	leaq	.LC26(%rip), %rsi
	movq	%r13, %rdi
.LEHB11:
	call	_ZN4asio6detail14do_throw_errorERKSt10error_codePKc@PLT
.LEHE11:
	.p2align 4,,10
	.p2align 3
.L724:
.LEHB12:
	call	close@PLT
	movl	88(%rbx), %eax
.L612:
	cmpl	$-1, %eax
	je	.L614
	jmp	.L613
	.p2align 4,,10
	.p2align 3
.L726:
	movl	96(%rbx), %edi
	leaq	100(%rbx), %rax
	movq	%rbp, %rcx
	movl	$1, %esi
	movl	$9, 4(%rsp)
	movq	%rax, 8(%rsp)
	call	epoll_ctl@PLT
	movl	100(%rbx), %edi
	cmpl	$-1, %edi
	je	.L623
	movq	104(%rbx), %r14
	pxor	%xmm0, %xmm0
	testq	%r14, %r14
	movaps	%xmm0, 16(%rsp)
	je	.L624
	movl	$300000000, %r15d
	movq	_ZNK4asio6detail11timer_queueINS0_18chrono_time_traitsINSt6chrono3_V212steady_clockENS_11wait_traitsIS5_EEEEE18wait_duration_usecEl@GOTPCREL(%rip), %r12
	jmp	.L634
	.p2align 4,,10
	.p2align 3
.L728:
	movq	24(%r14), %rax
	cmpq	%rax, 32(%r14)
	je	.L626
	call	_ZNSt6chrono3_V212steady_clock3nowEv@PLT
	movq	24(%r14), %rdx
	movq	(%rdx), %rdx
	testq	%rdx, %rdx
	js	.L627
	testq	%rax, %rax
	js	.L628
.L716:
	subq	%rax, %rdx
	testq	%rdx, %rdx
	movq	%rdx, %rdi
	jle	.L652
.L631:
	movabsq	$2361183241434822607, %rax
	imulq	%rdi
	sarq	$63, %rdi
	sarq	$7, %rdx
	subq	%rdi, %rdx
	jne	.L630
	movl	$1, %r15d
	.p2align 4,,10
	.p2align 3
.L626:
	movq	8(%r14), %r14
	testq	%r14, %r14
	je	.L727
.L634:
	movq	(%r14), %rax
	movq	32(%rax), %rax
	cmpq	%r12, %rax
	je	.L728
	movq	%r15, %rsi
	movq	%r14, %rdi
	call	*%rax
	movq	8(%r14), %r14
	movq	%rax, %r15
	testq	%r14, %r14
	jne	.L634
.L727:
	movq	%r15, %rax
	movabsq	$4835703278458516699, %rdx
	xorl	%esi, %esi
	imulq	%rdx
	movq	%r15, %rax
	movl	100(%rbx), %edi
	sarq	$63, %rax
	sarq	$18, %rdx
	subq	%rax, %rdx
	testq	%r15, %r15
	movl	$1, %eax
	movq	%rdx, 32(%rsp)
	sete	%sil
	je	.L636
	imulq	$1000000, %rdx, %rdx
	movq	%r15, %r8
	subq	%rdx, %r8
	imulq	$1000, %r8, %rax
.L636:
	leaq	16(%rsp), %rdx
	movq	%r13, %rcx
	movq	%rax, 40(%rsp)
	call	timerfd_settime@PLT
	jmp	.L637
	.p2align 4,,10
	.p2align 3
.L722:
	call	close@PLT
	jmp	.L610
	.p2align 4,,10
	.p2align 3
.L720:
	call	close@PLT
	jmp	.L603
	.p2align 4,,10
	.p2align 3
.L640:
	movq	%r12, %rdi
	call	__cxa_guard_acquire@PLT
	testl	%eax, %eax
	je	.L717
	movq	%r12, %rdi
	call	__cxa_guard_release@PLT
	movq	_ZZN4asio15system_categoryEvE8instance@GOTPCREL(%rip), %r12
	movq	_ZN4asio6detail15system_categoryD1Ev@GOTPCREL(%rip), %rdi
	leaq	__dso_handle(%rip), %rdx
	movq	%r12, %rsi
	call	__cxa_atexit@PLT
	jmp	.L641
	.p2align 4,,10
	.p2align 3
.L638:
	movq	%r14, %rdi
	call	pthread_mutex_unlock@PLT
	jmp	.L601
	.p2align 4,,10
	.p2align 3
.L627:
	testq	%rax, %rax
	js	.L716
.L652:
	xorl	%r15d, %r15d
	jmp	.L626
	.p2align 4,,10
	.p2align 3
.L650:
	movabsq	$9223372036854775, %rdx
.L630:
	cmpq	%rdx, %r15
	cmovg	%rdx, %r15
	jmp	.L626
	.p2align 4,,10
	.p2align 3
.L628:
	movabsq	$-9223372036854775808, %rcx
	cmpq	%rcx, %rax
	je	.L650
	movq	%rax, %rdi
	movabsq	$9223372036854775807, %rsi
	negq	%rdi
	subq	%rdx, %rsi
	cmpq	%rsi, %rdi
	jg	.L650
	subq	%rax, %rdx
	movq	%rdx, %rdi
	jmp	.L631
	.p2align 4,,10
	.p2align 3
.L723:
	call	__errno_location@PLT
	cmpl	$22, (%rax)
	jne	.L611
	xorl	%esi, %esi
	movl	$1, %edi
	call	timerfd_create@PLT
	cmpl	$-1, %eax
	movl	%eax, %ebp
	je	.L611
	movl	%eax, %edi
	movl	$1, %edx
	movl	$2, %esi
	xorl	%eax, %eax
	call	fcntl@PLT
	jmp	.L611
	.p2align 4,,10
	.p2align 3
.L725:
	call	__errno_location@PLT
	cmpl	$22, (%rax)
	movq	%rax, %rbp
	je	.L729
.L617:
	leaq	80(%rsp), %rdi
	call	pipe@PLT
	testl	%eax, %eax
	jne	.L730
	movl	80(%rsp), %edi
	movl	$2048, %edx
	movl	$4, %esi
	xorl	%eax, %eax
	movl	%edi, 88(%rbx)
	call	fcntl@PLT
	movl	88(%rbx), %edi
	movl	$1, %edx
	movl	$2, %esi
	xorl	%eax, %eax
	call	fcntl@PLT
	movl	84(%rsp), %edi
	movl	$2048, %edx
	movl	$4, %esi
	xorl	%eax, %eax
	movl	%edi, 92(%rbx)
	call	fcntl@PLT
	movl	92(%rbx), %edi
	movl	$1, %edx
	movl	$2, %esi
	xorl	%eax, %eax
	call	fcntl@PLT
.L618:
	movl	88(%rbx), %eax
	jmp	.L615
	.p2align 4,,10
	.p2align 3
.L721:
	call	__errno_location@PLT
	movq	%rax, %r13
	movl	(%rax), %eax
	subl	$22, %eax
	andl	$-17, %eax
	jne	.L605
	movl	$20000, %edi
	call	epoll_create@PLT
	cmpl	$-1, %eax
	movl	%eax, %r12d
	je	.L605
	movl	%eax, %edi
	movl	$1, %edx
	movl	$2, %esi
	xorl	%eax, %eax
	movl	%r12d, %ebp
	call	fcntl@PLT
	jmp	.L604
	.p2align 4,,10
	.p2align 3
.L605:
	movq	_ZGVZN4asio15system_categoryEvE8instance@GOTPCREL(%rip), %r12
	movzbl	(%r12), %eax
	testb	%al, %al
	je	.L606
.L714:
	movq	_ZZN4asio15system_categoryEvE8instance@GOTPCREL(%rip), %r12
.L607:
	movl	0(%r13), %eax
	movq	%r12, 56(%rsp)
	testl	%eax, %eax
	movl	%eax, 48(%rsp)
	je	.L604
	leaq	48(%rsp), %rdi
	leaq	.LC24(%rip), %rsi
	call	_ZN4asio6detail14do_throw_errorERKSt10error_codePKc@PLT
.L655:
	movq	%rax, %rbx
	movq	%r14, %rdi
	call	pthread_mutex_unlock@PLT
	movq	%rbx, %rdi
	call	_Unwind_Resume@PLT
	.p2align 4,,10
	.p2align 3
.L730:
	movq	_ZGVZN4asio15system_categoryEvE8instance@GOTPCREL(%rip), %r12
	movzbl	(%r12), %eax
	testb	%al, %al
	je	.L619
.L715:
	movq	_ZZN4asio15system_categoryEvE8instance@GOTPCREL(%rip), %r12
.L620:
	movl	0(%rbp), %eax
	movq	%r12, 56(%rsp)
	testl	%eax, %eax
	movl	%eax, 48(%rsp)
	je	.L618
	leaq	48(%rsp), %rdi
	leaq	.LC25(%rip), %rsi
	call	_ZN4asio6detail14do_throw_errorERKSt10error_codePKc@PLT
	.p2align 4,,10
	.p2align 3
.L624:
	movq	$300, 32(%rsp)
	xorl	%esi, %esi
	xorl	%eax, %eax
	jmp	.L636
.L606:
	movq	%r12, %rdi
	call	__cxa_guard_acquire@PLT
	testl	%eax, %eax
	je	.L714
	movq	%r12, %rdi
	call	__cxa_guard_release@PLT
	movq	_ZZN4asio15system_categoryEvE8instance@GOTPCREL(%rip), %r12
	movq	_ZN4asio6detail15system_categoryD1Ev@GOTPCREL(%rip), %rdi
	leaq	__dso_handle(%rip), %rdx
	movq	%r12, %rsi
	call	__cxa_atexit@PLT
	jmp	.L607
.L729:
	xorl	%esi, %esi
	xorl	%edi, %edi
	call	eventfd@PLT
	cmpl	$-1, %eax
	movl	%eax, 88(%rbx)
	movl	%eax, 92(%rbx)
	je	.L617
	movl	%eax, %edi
	movl	$2048, %edx
	movl	$4, %esi
	xorl	%eax, %eax
	call	fcntl@PLT
	movl	88(%rbx), %edi
	xorl	%eax, %eax
	movl	$1, %edx
	movl	$2, %esi
	call	fcntl@PLT
.LEHE12:
	movl	88(%rbx), %eax
	cmpl	$-1, %eax
	jne	.L615
	jmp	.L617
	.p2align 4,,10
	.p2align 3
.L619:
	movq	%r12, %rdi
	call	__cxa_guard_acquire@PLT
	testl	%eax, %eax
	je	.L715
	movq	%r12, %rdi
	call	__cxa_guard_release@PLT
	movq	_ZZN4asio15system_categoryEvE8instance@GOTPCREL(%rip), %r12
	movq	_ZN4asio6detail15system_categoryD1Ev@GOTPCREL(%rip), %rdi
	leaq	__dso_handle(%rip), %rdx
	movq	%r12, %rsi
	call	__cxa_atexit@PLT
	jmp	.L620
.L719:
	call	__stack_chk_fail@PLT
	.cfi_endproc
.LFE3069:
	.section	.gcc_except_table._ZN4asio6detail13epoll_reactor12fork_serviceENS_10io_service10fork_eventE,"aG",@progbits,_ZN4asio6detail13epoll_reactor12fork_serviceENS_10io_service10fork_eventE,comdat
.LLSDA3069:
	.byte	0xff
	.byte	0xff
	.byte	0x1
	.uleb128 .LLSDACSE3069-.LLSDACSB3069
.LLSDACSB3069:
	.uleb128 .LEHB10-.LFB3069
	.uleb128 .LEHE10-.LEHB10
	.uleb128 0
	.uleb128 0
	.uleb128 .LEHB11-.LFB3069
	.uleb128 .LEHE11-.LEHB11
	.uleb128 .L655-.LFB3069
	.uleb128 0
	.uleb128 .LEHB12-.LFB3069
	.uleb128 .LEHE12-.LEHB12
	.uleb128 0
	.uleb128 0
.LLSDACSE3069:
	.section	.text._ZN4asio6detail13epoll_reactor12fork_serviceENS_10io_service10fork_eventE,"axG",@progbits,_ZN4asio6detail13epoll_reactor12fork_serviceENS_10io_service10fork_eventE,comdat
	.size	_ZN4asio6detail13epoll_reactor12fork_serviceENS_10io_service10fork_eventE, .-_ZN4asio6detail13epoll_reactor12fork_serviceENS_10io_service10fork_eventE
	.text
	.align 2
	.p2align 4,,15
	.globl	_ZN7asiopal5Timer6CancelEv
	.type	_ZN7asiopal5Timer6CancelEv, @function
_ZN7asiopal5Timer6CancelEv:
.LFB6273:
	.cfi_startproc
	cmpb	$0, 24(%rdi)
	jne	.L737
	rep ret
	.p2align 4,,10
	.p2align 3
.L737:
	pushq	%rbx
	.cfi_def_cfa_offset 16
	.cfi_offset 3, -16
	movq	8(%rdi), %rax
	movq	%rdi, %rbx
	leaq	32(%rdi), %rdx
	movq	88(%rax), %rdi
	leaq	40(%rax), %rsi
	call	_ZN4asio6detail13epoll_reactor12cancel_timerINS0_18chrono_time_traitsINSt6chrono3_V212steady_clockENS_11wait_traitsIS6_EEEEEEmRNS0_11timer_queueIT_EERNSC_14per_timer_dataEm.constprop.94
	movb	$0, 24(%rbx)
	popq	%rbx
	.cfi_def_cfa_offset 8
	ret
	.cfi_endproc
.LFE6273:
	.size	_ZN7asiopal5Timer6CancelEv, .-_ZN7asiopal5Timer6CancelEv
	.section	.text._ZN4asio6detail11object_poolINS0_13epoll_reactor16descriptor_stateEED2Ev,"axG",@progbits,_ZN4asio6detail11object_poolINS0_13epoll_reactor16descriptor_stateEED5Ev,comdat
	.align 2
	.p2align 4,,15
	.weak	_ZN4asio6detail11object_poolINS0_13epoll_reactor16descriptor_stateEED2Ev
	.type	_ZN4asio6detail11object_poolINS0_13epoll_reactor16descriptor_stateEED2Ev, @function
_ZN4asio6detail11object_poolINS0_13epoll_reactor16descriptor_stateEED2Ev:
.LFB6587:
	.cfi_startproc
	.cfi_personality 0x9b,DW.ref.__gxx_personality_v0
	.cfi_lsda 0x1b,.LLSDA6587
	pushq	%r15
	.cfi_def_cfa_offset 16
	.cfi_offset 15, -16
	pushq	%r14
	.cfi_def_cfa_offset 24
	.cfi_offset 14, -24
	pushq	%r13
	.cfi_def_cfa_offset 32
	.cfi_offset 13, -32
	pushq	%r12
	.cfi_def_cfa_offset 40
	.cfi_offset 12, -40
	pushq	%rbp
	.cfi_def_cfa_offset 48
	.cfi_offset 6, -48
	pushq	%rbx
	.cfi_def_cfa_offset 56
	.cfi_offset 3, -56
	subq	$56, %rsp
	.cfi_def_cfa_offset 112
	movq	(%rdi), %r12
	movq	%fs:40, %rdx
	movq	%rdx, 40(%rsp)
	xorl	%edx, %edx
	movq	%rdi, 8(%rsp)
	testq	%r12, %r12
	je	.L739
	leaq	16(%rsp), %rbp
	.p2align 4,,10
	.p2align 3
.L745:
	movq	24(%r12), %r14
	leaq	128(%r12), %r15
	leaq	80(%r12), %r13
.L744:
	movq	(%r15), %rsi
	testq	%rsi, %rsi
	movq	%rsi, (%rsp)
	je	.L740
	call	_ZNSt3_V215system_categoryEv@PLT
	movq	(%rsp), %rsi
	movq	%rax, %rbx
	jmp	.L741
	.p2align 4,,10
	.p2align 3
.L742:
	movq	$0, (%rsi)
	movq	8(%rsi), %rax
	xorl	%ecx, %ecx
	xorl	%edi, %edi
	movl	$0, 16(%rsp)
	movq	%rbx, 24(%rsp)
	movq	%rbp, %rdx
	call	*%rax
	movq	(%r15), %rsi
	testq	%rsi, %rsi
	je	.L740
.L741:
	movq	(%rsi), %rax
	testq	%rax, %rax
	movq	%rax, (%r15)
	jne	.L742
	movq	$0, 8(%r15)
	jmp	.L742
	.p2align 4,,10
	.p2align 3
.L740:
	subq	$16, %r15
	cmpq	%r13, %r15
	jne	.L744
	leaq	40(%r12), %rdi
	call	pthread_mutex_destroy@PLT
	movq	%r12, %rdi
	movl	$152, %esi
	movq	%r14, %r12
	call	_ZdlPvm@PLT
	testq	%r14, %r14
	jne	.L745
.L739:
	movq	8(%rsp), %rax
	movq	8(%rax), %r12
	testq	%r12, %r12
	je	.L738
	leaq	16(%rsp), %rbp
	.p2align 4,,10
	.p2align 3
.L752:
	movq	24(%r12), %r14
	leaq	128(%r12), %r15
	leaq	80(%r12), %r13
.L751:
	movq	(%r15), %rsi
	testq	%rsi, %rsi
	movq	%rsi, (%rsp)
	je	.L747
	call	_ZNSt3_V215system_categoryEv@PLT
	movq	(%rsp), %rsi
	movq	%rax, %rbx
	jmp	.L748
	.p2align 4,,10
	.p2align 3
.L749:
	movq	$0, (%rsi)
	movq	8(%rsi), %rax
	xorl	%ecx, %ecx
	xorl	%edi, %edi
	movl	$0, 16(%rsp)
	movq	%rbx, 24(%rsp)
	movq	%rbp, %rdx
	call	*%rax
	movq	(%r15), %rsi
	testq	%rsi, %rsi
	je	.L747
.L748:
	movq	(%rsi), %rax
	testq	%rax, %rax
	movq	%rax, (%r15)
	jne	.L749
	movq	$0, 8(%r15)
	jmp	.L749
	.p2align 4,,10
	.p2align 3
.L747:
	subq	$16, %r15
	cmpq	%r15, %r13
	jne	.L751
	leaq	40(%r12), %rdi
	call	pthread_mutex_destroy@PLT
	movq	%r12, %rdi
	movl	$152, %esi
	movq	%r14, %r12
	call	_ZdlPvm@PLT
	testq	%r14, %r14
	jne	.L752
.L738:
	movq	40(%rsp), %rax
	xorq	%fs:40, %rax
	jne	.L779
	addq	$56, %rsp
	.cfi_remember_state
	.cfi_def_cfa_offset 56
	popq	%rbx
	.cfi_def_cfa_offset 48
	popq	%rbp
	.cfi_def_cfa_offset 40
	popq	%r12
	.cfi_def_cfa_offset 32
	popq	%r13
	.cfi_def_cfa_offset 24
	popq	%r14
	.cfi_def_cfa_offset 16
	popq	%r15
	.cfi_def_cfa_offset 8
	ret
.L779:
	.cfi_restore_state
	call	__stack_chk_fail@PLT
	.cfi_endproc
.LFE6587:
	.section	.gcc_except_table._ZN4asio6detail11object_poolINS0_13epoll_reactor16descriptor_stateEED2Ev,"aG",@progbits,_ZN4asio6detail11object_poolINS0_13epoll_reactor16descriptor_stateEED5Ev,comdat
.LLSDA6587:
	.byte	0xff
	.byte	0xff
	.byte	0x1
	.uleb128 .LLSDACSE6587-.LLSDACSB6587
.LLSDACSB6587:
.LLSDACSE6587:
	.section	.text._ZN4asio6detail11object_poolINS0_13epoll_reactor16descriptor_stateEED2Ev,"axG",@progbits,_ZN4asio6detail11object_poolINS0_13epoll_reactor16descriptor_stateEED5Ev,comdat
	.size	_ZN4asio6detail11object_poolINS0_13epoll_reactor16descriptor_stateEED2Ev, .-_ZN4asio6detail11object_poolINS0_13epoll_reactor16descriptor_stateEED2Ev
	.weak	_ZN4asio6detail11object_poolINS0_13epoll_reactor16descriptor_stateEED1Ev
	.set	_ZN4asio6detail11object_poolINS0_13epoll_reactor16descriptor_stateEED1Ev,_ZN4asio6detail11object_poolINS0_13epoll_reactor16descriptor_stateEED2Ev
	.section	.rodata._ZN4asio6detail16service_registry6createINS0_13epoll_reactorEEEPNS_10io_service7serviceERS4_.str1.1,"aMS",@progbits,1
.LC27:
	.string	"mutex"
	.section	.text._ZN4asio6detail16service_registry6createINS0_13epoll_reactorEEEPNS_10io_service7serviceERS4_,"axG",@progbits,_ZN4asio6detail16service_registry6createINS0_13epoll_reactorEEEPNS_10io_service7serviceERS4_,comdat
	.align 2
	.p2align 4,,15
	.weak	_ZN4asio6detail16service_registry6createINS0_13epoll_reactorEEEPNS_10io_service7serviceERS4_
	.type	_ZN4asio6detail16service_registry6createINS0_13epoll_reactorEEEPNS_10io_service7serviceERS4_, @function
_ZN4asio6detail16service_registry6createINS0_13epoll_reactorEEEPNS_10io_service7serviceERS4_:
.LFB7142:
	.cfi_startproc
	.cfi_personality 0x9b,DW.ref.__gxx_personality_v0
	.cfi_lsda 0x1b,.LLSDA7142
	pushq	%r15
	.cfi_def_cfa_offset 16
	.cfi_offset 15, -16
	pushq	%r14
	.cfi_def_cfa_offset 24
	.cfi_offset 14, -24
	pushq	%r13
	.cfi_def_cfa_offset 32
	.cfi_offset 13, -32
	pushq	%r12
	.cfi_def_cfa_offset 40
	.cfi_offset 12, -40
	pushq	%rbp
	.cfi_def_cfa_offset 48
	.cfi_offset 6, -48
	pushq	%rbx
	.cfi_def_cfa_offset 56
	.cfi_offset 3, -56
	movq	%rdi, %rbp
	movl	$176, %edi
	subq	$120, %rsp
	.cfi_def_cfa_offset 176
	movq	%fs:40, %rax
	movq	%rax, 104(%rsp)
	xorl	%eax, %eax
.LEHB13:
	call	_Znwm@PLT
.LEHE13:
	movq	%rbp, 24(%rax)
	movq	%rax, %rbx
	movq	$0, 8(%rax)
	movq	$0, 16(%rax)
	movq	$0, 32(%rax)
	leaq	48(%rbx), %r13
	movq	_ZTVN4asio6detail13epoll_reactorE@GOTPCREL(%rip), %rax
	xorl	%esi, %esi
	movq	%r13, %rdi
	addq	$16, %rax
	movq	%rax, (%rbx)
	movq	8(%rbp), %rax
	movq	%rax, 40(%rbx)
	call	pthread_mutex_init@PLT
	movq	_ZGVZN4asio15system_categoryEvE8instance@GOTPCREL(%rip), %rbp
	movl	%eax, %r14d
	movzbl	0(%rbp), %eax
	testb	%al, %al
	je	.L781
.L863:
	movq	_ZZN4asio15system_categoryEvE8instance@GOTPCREL(%rip), %r12
.L782:
	testl	%r14d, %r14d
	movl	%r14d, 32(%rsp)
	movq	%r12, 40(%rsp)
	jne	.L864
	xorl	%edi, %edi
	movl	$526336, %esi
	leaq	88(%rbx), %r14
	call	eventfd@PLT
	cmpl	$-1, %eax
	movl	%eax, 88(%rbx)
	movl	%eax, 92(%rbx)
	je	.L865
.L786:
	movl	$524288, %edi
	call	epoll_create1@PLT
	cmpl	$-1, %eax
	movl	%eax, %r15d
	je	.L866
.L795:
	movl	$524288, %esi
	movl	$1, %edi
	movl	%r15d, 96(%rbx)
	call	timerfd_create@PLT
	cmpl	$-1, %eax
	movl	%eax, %r15d
	je	.L867
.L801:
	movl	%r15d, 100(%rbx)
	leaq	120(%rbx), %r15
	xorl	%esi, %esi
	movq	$0, 104(%rbx)
	movb	$0, 112(%rbx)
	movq	%r15, %rdi
	call	pthread_mutex_init@PLT
	movl	%eax, %ecx
	movzbl	0(%rbp), %eax
	testb	%al, %al
	je	.L868
.L805:
	testl	%ecx, %ecx
	movl	%ecx, 80(%rsp)
	movq	%r12, 88(%rsp)
	jne	.L869
	movl	88(%rbx), %edx
	movl	96(%rbx), %edi
	leaq	80(%rsp), %rbp
	movl	$1, %esi
	movq	$0, 160(%rbx)
	movq	$0, 168(%rbx)
	movq	%rbp, %rcx
	movl	$-2147483639, 80(%rsp)
	movq	%r14, 84(%rsp)
	call	epoll_ctl@PLT
	movl	92(%rbx), %edi
	leaq	24(%rsp), %rsi
	movl	$8, %edx
	movq	$1, 24(%rsp)
.LEHB14:
	call	write@PLT
.LEHE14:
	movl	100(%rbx), %edx
	cmpl	$-1, %edx
	je	.L780
	movl	96(%rbx), %edi
	leaq	100(%rbx), %rax
	movq	%rbp, %rcx
	movl	$1, %esi
	movl	$9, 80(%rsp)
	movq	%rax, 84(%rsp)
	call	epoll_ctl@PLT
.L780:
	movq	104(%rsp), %rcx
	xorq	%fs:40, %rcx
	movq	%rbx, %rax
	jne	.L870
	addq	$120, %rsp
	.cfi_remember_state
	.cfi_def_cfa_offset 56
	popq	%rbx
	.cfi_def_cfa_offset 48
	popq	%rbp
	.cfi_def_cfa_offset 40
	popq	%r12
	.cfi_def_cfa_offset 32
	popq	%r13
	.cfi_def_cfa_offset 24
	popq	%r14
	.cfi_def_cfa_offset 16
	popq	%r15
	.cfi_def_cfa_offset 8
	ret
	.p2align 4,,10
	.p2align 3
.L867:
	.cfi_restore_state
	call	__errno_location@PLT
	cmpl	$22, (%rax)
	jne	.L801
	xorl	%esi, %esi
	movl	$1, %edi
	call	timerfd_create@PLT
	cmpl	$-1, %eax
	je	.L801
	movl	%eax, %r15d
	movl	%eax, %edi
	movl	$1, %edx
	movl	$2, %esi
	xorl	%eax, %eax
.LEHB15:
	call	fcntl@PLT
.LEHE15:
	jmp	.L801
	.p2align 4,,10
	.p2align 3
.L781:
	movq	%rbp, %rdi
	call	__cxa_guard_acquire@PLT
	testl	%eax, %eax
	je	.L863
	movq	%rbp, %rdi
	call	__cxa_guard_release@PLT
	movq	_ZZN4asio15system_categoryEvE8instance@GOTPCREL(%rip), %r12
	movq	_ZN4asio6detail15system_categoryD1Ev@GOTPCREL(%rip), %rdi
	leaq	__dso_handle(%rip), %rdx
	movq	%r12, %rsi
	call	__cxa_atexit@PLT
	jmp	.L782
	.p2align 4,,10
	.p2align 3
.L868:
	movq	%rbp, %rdi
	movl	%ecx, (%rsp)
	call	__cxa_guard_acquire@PLT
	testl	%eax, %eax
	movl	(%rsp), %ecx
	je	.L805
	movq	%rbp, %rdi
	call	__cxa_guard_release@PLT
	movq	_ZN4asio6detail15system_categoryD1Ev@GOTPCREL(%rip), %rdi
	leaq	__dso_handle(%rip), %rdx
	movq	%r12, %rsi
	call	__cxa_atexit@PLT
	movl	(%rsp), %ecx
	jmp	.L805
	.p2align 4,,10
	.p2align 3
.L865:
	call	__errno_location@PLT
	cmpl	$22, (%rax)
	movq	%rax, %r15
	je	.L871
.L788:
	leaq	96(%rsp), %rdi
	call	pipe@PLT
	testl	%eax, %eax
	jne	.L872
	movl	96(%rsp), %edi
	movl	$2048, %edx
	movl	$4, %esi
	xorl	%eax, %eax
	movl	%edi, 88(%rbx)
.LEHB16:
	call	fcntl@PLT
	movl	88(%rbx), %edi
	movl	$1, %edx
	movl	$2, %esi
	xorl	%eax, %eax
	call	fcntl@PLT
	movl	100(%rsp), %edi
	movl	$2048, %edx
	movl	$4, %esi
	xorl	%eax, %eax
	movl	%edi, 92(%rbx)
	call	fcntl@PLT
	movl	92(%rbx), %edi
	movl	$1, %edx
	movl	$2, %esi
	xorl	%eax, %eax
	call	fcntl@PLT
.LEHE16:
	jmp	.L786
	.p2align 4,,10
	.p2align 3
.L866:
	call	__errno_location@PLT
	movq	%rax, %r8
	movl	(%rax), %eax
	subl	$22, %eax
	andl	$-17, %eax
	jne	.L796
	movl	$20000, %edi
	movq	%r8, (%rsp)
	call	epoll_create@PLT
	cmpl	$-1, %eax
	movl	%eax, 12(%rsp)
	movl	%eax, %edi
	movq	(%rsp), %r8
	jne	.L873
.L796:
	movzbl	0(%rbp), %eax
	testb	%al, %al
	je	.L874
.L798:
	movl	(%r8), %eax
	movq	%r12, 72(%rsp)
	testl	%eax, %eax
	movl	%eax, 64(%rsp)
	je	.L795
	leaq	64(%rsp), %rdi
	leaq	.LC24(%rip), %rsi
.LEHB17:
	call	_ZN4asio6detail14do_throw_errorERKSt10error_codePKc@PLT
	.p2align 4,,10
	.p2align 3
.L873:
	movl	$1, %edx
	movl	$2, %esi
	xorl	%eax, %eax
	call	fcntl@PLT
.LEHE17:
	movl	12(%rsp), %r15d
	jmp	.L795
	.p2align 4,,10
	.p2align 3
.L872:
	movzbl	0(%rbp), %eax
	testb	%al, %al
	je	.L875
.L792:
	movl	(%r15), %eax
	movq	%r12, 56(%rsp)
	testl	%eax, %eax
	movl	%eax, 48(%rsp)
	je	.L786
	leaq	48(%rsp), %rdi
	leaq	.LC25(%rip), %rsi
.LEHB18:
	call	_ZN4asio6detail14do_throw_errorERKSt10error_codePKc@PLT
	.p2align 4,,10
	.p2align 3
.L874:
	movq	%rbp, %rdi
	movq	%r8, (%rsp)
	call	__cxa_guard_acquire@PLT
	testl	%eax, %eax
	movq	(%rsp), %r8
	je	.L798
	movq	%rbp, %rdi
	call	__cxa_guard_release@PLT
	movq	_ZN4asio6detail15system_categoryD1Ev@GOTPCREL(%rip), %rdi
	leaq	__dso_handle(%rip), %rdx
	movq	%r12, %rsi
	call	__cxa_atexit@PLT
	movq	(%rsp), %r8
	jmp	.L798
	.p2align 4,,10
	.p2align 3
.L871:
	xorl	%esi, %esi
	xorl	%edi, %edi
	call	eventfd@PLT
	cmpl	$-1, %eax
	movl	%eax, 88(%rbx)
	movl	%eax, 92(%rbx)
	je	.L788
	movl	%eax, %edi
	movl	$2048, %edx
	movl	$4, %esi
	xorl	%eax, %eax
	call	fcntl@PLT
	movl	88(%rbx), %edi
	movl	$1, %edx
	movl	$2, %esi
	xorl	%eax, %eax
	call	fcntl@PLT
.LEHE18:
	cmpl	$-1, 88(%rbx)
	jne	.L786
	jmp	.L788
.L822:
	movq	%rax, %rbp
.L810:
	movl	92(%rbx), %edi
	movl	88(%rbx), %eax
	cmpl	$-1, %edi
	je	.L811
	cmpl	%edi, %eax
	je	.L812
	call	close@PLT
	movl	88(%rbx), %eax
.L811:
	cmpl	$-1, %eax
	movl	%eax, %edi
	je	.L814
.L812:
	call	close@PLT
.L814:
	movq	%r13, %rdi
	call	pthread_mutex_destroy@PLT
.L815:
	movq	%rbx, %rdi
	movl	$176, %esi
	call	_ZdlPvm@PLT
	movq	%rbp, %rdi
.LEHB19:
	call	_Unwind_Resume@PLT
.LEHE19:
	.p2align 4,,10
	.p2align 3
.L875:
	movq	%rbp, %rdi
	call	__cxa_guard_acquire@PLT
	testl	%eax, %eax
	je	.L792
	movq	%rbp, %rdi
	call	__cxa_guard_release@PLT
	movq	_ZN4asio6detail15system_categoryD1Ev@GOTPCREL(%rip), %rdi
	leaq	__dso_handle(%rip), %rdx
	movq	%r12, %rsi
	call	__cxa_atexit@PLT
	jmp	.L792
.L864:
	leaq	32(%rsp), %rdi
	leaq	.LC27(%rip), %rsi
.LEHB20:
	call	_ZN4asio6detail14do_throw_errorERKSt10error_codePKc@PLT
.LEHE20:
.L820:
	movq	%rax, %rbp
	jmp	.L815
.L869:
	leaq	80(%rsp), %rdi
	leaq	.LC27(%rip), %rsi
.LEHB21:
	call	_ZN4asio6detail14do_throw_errorERKSt10error_codePKc@PLT
.LEHE21:
.L870:
	call	__stack_chk_fail@PLT
.L823:
	leaq	160(%rbx), %rdi
	movq	%rax, %rbp
	call	_ZN4asio6detail11object_poolINS0_13epoll_reactor16descriptor_stateEED1Ev@PLT
	movq	%r15, %rdi
	call	pthread_mutex_destroy@PLT
	jmp	.L810
.L821:
	movq	%rax, %rbp
	jmp	.L814
	.cfi_endproc
.LFE7142:
	.section	.gcc_except_table._ZN4asio6detail16service_registry6createINS0_13epoll_reactorEEEPNS_10io_service7serviceERS4_,"aG",@progbits,_ZN4asio6detail16service_registry6createINS0_13epoll_reactorEEEPNS_10io_service7serviceERS4_,comdat
.LLSDA7142:
	.byte	0xff
	.byte	0xff
	.byte	0x1
	.uleb128 .LLSDACSE7142-.LLSDACSB7142
.LLSDACSB7142:
	.uleb128 .LEHB13-.LFB7142
	.uleb128 .LEHE13-.LEHB13
	.uleb128 0
	.uleb128 0
	.uleb128 .LEHB14-.LFB7142
	.uleb128 .LEHE14-.LEHB14
	.uleb128 .L823-.LFB7142
	.uleb128 0
	.uleb128 .LEHB15-.LFB7142
	.uleb128 .LEHE15-.LEHB15
	.uleb128 .L822-.LFB7142
	.uleb128 0
	.uleb128 .LEHB16-.LFB7142
	.uleb128 .LEHE16-.LEHB16
	.uleb128 .L821-.LFB7142
	.uleb128 0
	.uleb128 .LEHB17-.LFB7142
	.uleb128 .LEHE17-.LEHB17
	.uleb128 .L822-.LFB7142
	.uleb128 0
	.uleb128 .LEHB18-.LFB7142
	.uleb128 .LEHE18-.LEHB18
	.uleb128 .L821-.LFB7142
	.uleb128 0
	.uleb128 .LEHB19-.LFB7142
	.uleb128 .LEHE19-.LEHB19
	.uleb128 0
	.uleb128 0
	.uleb128 .LEHB20-.LFB7142
	.uleb128 .LEHE20-.LEHB20
	.uleb128 .L820-.LFB7142
	.uleb128 0
	.uleb128 .LEHB21-.LFB7142
	.uleb128 .LEHE21-.LEHB21
	.uleb128 .L822-.LFB7142
	.uleb128 0
.LLSDACSE7142:
	.section	.text._ZN4asio6detail16service_registry6createINS0_13epoll_reactorEEEPNS_10io_service7serviceERS4_,"axG",@progbits,_ZN4asio6detail16service_registry6createINS0_13epoll_reactorEEEPNS_10io_service7serviceERS4_,comdat
	.size	_ZN4asio6detail16service_registry6createINS0_13epoll_reactorEEEPNS_10io_service7serviceERS4_, .-_ZN4asio6detail16service_registry6createINS0_13epoll_reactorEEEPNS_10io_service7serviceERS4_
	.section	.text._ZN4asio6detail16service_registry6createINS_22waitable_timer_serviceINSt6chrono3_V212steady_clockENS_11wait_traitsIS6_EEEEEEPNS_10io_service7serviceERSA_,"axG",@progbits,_ZN4asio6detail16service_registry6createINS_22waitable_timer_serviceINSt6chrono3_V212steady_clockENS_11wait_traitsIS6_EEEEEEPNS_10io_service7serviceERSA_,comdat
	.align 2
	.p2align 4,,15
	.weak	_ZN4asio6detail16service_registry6createINS_22waitable_timer_serviceINSt6chrono3_V212steady_clockENS_11wait_traitsIS6_EEEEEEPNS_10io_service7serviceERSA_
	.type	_ZN4asio6detail16service_registry6createINS_22waitable_timer_serviceINSt6chrono3_V212steady_clockENS_11wait_traitsIS6_EEEEEEPNS_10io_service7serviceERSA_, @function
_ZN4asio6detail16service_registry6createINS_22waitable_timer_serviceINSt6chrono3_V212steady_clockENS_11wait_traitsIS6_EEEEEEPNS_10io_service7serviceERSA_:
.LFB7352:
	.cfi_startproc
	.cfi_personality 0x9b,DW.ref.__gxx_personality_v0
	.cfi_lsda 0x1b,.LLSDA7352
	pushq	%r15
	.cfi_def_cfa_offset 16
	.cfi_offset 15, -16
	pushq	%r14
	.cfi_def_cfa_offset 24
	.cfi_offset 14, -24
	pushq	%r13
	.cfi_def_cfa_offset 32
	.cfi_offset 13, -32
	pushq	%r12
	.cfi_def_cfa_offset 40
	.cfi_offset 12, -40
	pushq	%rbp
	.cfi_def_cfa_offset 48
	.cfi_offset 6, -48
	pushq	%rbx
	.cfi_def_cfa_offset 56
	.cfi_offset 3, -56
	movq	%rdi, %rbp
	movl	$96, %edi
	subq	$72, %rsp
	.cfi_def_cfa_offset 128
	movq	%fs:40, %rax
	movq	%rax, 56(%rsp)
	xorl	%eax, %eax
.LEHB22:
	call	_Znwm@PLT
.LEHE22:
	movq	%rbp, 24(%rax)
	movq	%rax, %rbx
	movq	$0, 8(%rax)
	movq	$0, 16(%rax)
	movq	$0, 32(%rax)
	leaq	40(%rbx), %r13
	movq	_ZTVN4asio22waitable_timer_serviceINSt6chrono3_V212steady_clockENS_11wait_traitsIS3_EEEE@GOTPCREL(%rip), %rax
	movq	0(%rbp), %r12
	movq	$0, 48(%rbx)
	movq	$0, 56(%rbx)
	movq	$0, 64(%rbx)
	movq	$0, 72(%rbx)
	addq	$16, %rax
	leaq	8(%r12), %r14
	movq	$0, 80(%rbx)
	movq	%rax, (%rbx)
	movq	_ZTVN4asio6detail11timer_queueINS0_18chrono_time_traitsINSt6chrono3_V212steady_clockENS_11wait_traitsIS5_EEEEEE@GOTPCREL(%rip), %rax
	movq	%r14, %rdi
	addq	$16, %rax
	movq	%rax, 40(%rbx)
	call	pthread_mutex_lock@PLT
	movq	56(%r12), %rbp
	testq	%rbp, %rbp
	jne	.L880
	jmp	.L877
	.p2align 4,,10
	.p2align 3
.L954:
	cmpb	$42, (%rdi)
	je	.L878
	call	strcmp@PLT
	testl	%eax, %eax
	je	.L879
.L878:
	movq	32(%rbp), %rbp
	testq	%rbp, %rbp
	je	.L877
.L880:
	movq	8(%rbp), %rax
	testq	%rax, %rax
	je	.L878
	movq	8(%rax), %rdi
	movq	_ZTSN4asio6detail14typeid_wrapperINS0_13epoll_reactorEEE@GOTPCREL(%rip), %rsi
	cmpq	%rsi, %rdi
	jne	.L954
.L879:
	movq	%r14, %rdi
	call	pthread_mutex_unlock@PLT
	movq	%rbp, 88(%rbx)
	movq	40(%rbp), %rbp
	leaq	48(%rbp), %r12
	movq	%r12, %rdi
	call	pthread_mutex_lock@PLT
	cmpb	$0, 209(%rbp)
	jne	.L898
	cmpq	$0, 144(%rbp)
	je	.L955
.L898:
	movq	%r12, %rdi
	call	pthread_mutex_unlock@PLT
.L902:
	movq	88(%rbx), %rbp
	leaq	48(%rbp), %r12
	movq	%r12, %rdi
	call	pthread_mutex_lock@PLT
	movq	104(%rbp), %rax
	movq	%r12, %rdi
	movq	%rax, 48(%rbx)
	movq	%r13, 104(%rbp)
	call	pthread_mutex_unlock@PLT
	movq	56(%rsp), %rcx
	xorq	%fs:40, %rcx
	movq	%rbx, %rax
	jne	.L956
	addq	$72, %rsp
	.cfi_remember_state
	.cfi_def_cfa_offset 56
	popq	%rbx
	.cfi_def_cfa_offset 48
	popq	%rbp
	.cfi_def_cfa_offset 40
	popq	%r12
	.cfi_def_cfa_offset 32
	popq	%r13
	.cfi_def_cfa_offset 24
	popq	%r14
	.cfi_def_cfa_offset 16
	popq	%r15
	.cfi_def_cfa_offset 8
	ret
	.p2align 4,,10
	.p2align 3
.L877:
	.cfi_restore_state
	movq	%r14, %rdi
	call	pthread_mutex_unlock@PLT
	movq	48(%r12), %rdi
.LEHB23:
	call	_ZN4asio6detail16service_registry6createINS0_13epoll_reactorEEEPNS_10io_service7serviceERS4_@PLT
.LEHE23:
	movq	%rax, %r15
	movq	_ZTIN4asio6detail14typeid_wrapperINS0_13epoll_reactorEEE@GOTPCREL(%rip), %rax
	movq	%r14, %rdi
	movq	$0, 16(%r15)
	movq	%rax, 8(%r15)
	call	pthread_mutex_lock@PLT
	movq	56(%r12), %rdx
	testq	%rdx, %rdx
	je	.L881
	movq	%rdx, %rbp
	jmp	.L884
	.p2align 4,,10
	.p2align 3
.L957:
	cmpb	$42, (%rdi)
	je	.L882
	movq	%rdx, 8(%rsp)
	call	strcmp@PLT
	testl	%eax, %eax
	movq	8(%rsp), %rdx
	je	.L883
.L882:
	movq	32(%rbp), %rbp
	testq	%rbp, %rbp
	je	.L881
.L884:
	movq	8(%rbp), %rax
	testq	%rax, %rax
	je	.L882
	movq	8(%rax), %rdi
	movq	_ZTSN4asio6detail14typeid_wrapperINS0_13epoll_reactorEEE@GOTPCREL(%rip), %rsi
	cmpq	%rsi, %rdi
	jne	.L957
.L883:
	movq	(%r15), %rax
	movq	%r15, %rdi
	call	*8(%rax)
	jmp	.L879
	.p2align 4,,10
	.p2align 3
.L881:
	movq	%rdx, 32(%r15)
	movq	%r15, %rbp
	movq	%r15, 56(%r12)
	jmp	.L879
	.p2align 4,,10
	.p2align 3
.L955:
	movq	24(%rbp), %rax
	movq	(%rax), %r14
	leaq	8(%r14), %rax
	movq	%rax, %rdi
	movq	%rax, 8(%rsp)
	call	pthread_mutex_lock@PLT
	movq	56(%r14), %r15
	testq	%r15, %r15
	jne	.L889
	jmp	.L886
	.p2align 4,,10
	.p2align 3
.L958:
	cmpb	$42, (%rdi)
	je	.L887
	call	strcmp@PLT
	testl	%eax, %eax
	je	.L888
.L887:
	movq	32(%r15), %r15
	testq	%r15, %r15
	je	.L886
.L889:
	movq	8(%r15), %rax
	testq	%rax, %rax
	je	.L887
	movq	8(%rax), %rdi
	movq	_ZTSN4asio6detail14typeid_wrapperINS0_13epoll_reactorEEE@GOTPCREL(%rip), %rsi
	cmpq	%rsi, %rdi
	jne	.L958
.L888:
	movq	8(%rsp), %rdi
	call	pthread_mutex_unlock@PLT
	movq	200(%rbp), %rdx
	movq	%r15, 144(%rbp)
	leaq	152(%rbp), %rax
	movq	$0, 152(%rbp)
	testq	%rdx, %rdx
	je	.L894
	movq	%rax, (%rdx)
	movq	%rax, 200(%rbp)
.L895:
	movq	136(%rbp), %rax
	orq	$1, %rax
	cmpq	$1, %rax
	movq	%rax, 136(%rbp)
	jne	.L959
	cmpb	$0, 176(%rbp)
	jne	.L898
	movq	144(%rbp), %rax
	testq	%rax, %rax
	je	.L898
	leaq	88(%rax), %rdx
	movb	$1, 176(%rbp)
	movl	96(%rax), %edi
	leaq	44(%rsp), %rcx
	movl	$3, %esi
	movl	$-2147483639, 44(%rsp)
	movq	%rdx, 48(%rsp)
	movl	88(%rax), %edx
	call	epoll_ctl@PLT
	jmp	.L898
.L959:
	movq	%r12, %rdi
	call	pthread_mutex_unlock@PLT
	leaq	88(%rbp), %rdi
	call	pthread_cond_signal@PLT
	jmp	.L902
.L886:
	movq	8(%rsp), %r15
	movq	%r15, %rdi
	call	pthread_mutex_unlock@PLT
	movq	48(%r14), %rdi
.LEHB24:
	call	_ZN4asio6detail16service_registry6createINS0_13epoll_reactorEEEPNS_10io_service7serviceERS4_@PLT
.LEHE24:
	movq	%rax, %rcx
	movq	_ZTIN4asio6detail14typeid_wrapperINS0_13epoll_reactorEEE@GOTPCREL(%rip), %rax
	movq	%r15, %rdi
	movq	$0, 16(%rcx)
	movq	%rcx, 16(%rsp)
	movq	%rax, 8(%rcx)
	call	pthread_mutex_lock@PLT
	movq	56(%r14), %r8
	movq	16(%rsp), %rcx
	testq	%r8, %r8
	je	.L890
	movq	%r8, %r15
	jmp	.L893
	.p2align 4,,10
	.p2align 3
.L960:
	cmpb	$42, (%rdi)
	je	.L891
	movq	%r8, 24(%rsp)
	movq	%rcx, 16(%rsp)
	call	strcmp@PLT
	testl	%eax, %eax
	movq	16(%rsp), %rcx
	movq	24(%rsp), %r8
	je	.L892
.L891:
	movq	32(%r15), %r15
	testq	%r15, %r15
	je	.L890
.L893:
	movq	8(%r15), %rax
	testq	%rax, %rax
	je	.L891
	movq	8(%rax), %rdi
	movq	_ZTSN4asio6detail14typeid_wrapperINS0_13epoll_reactorEEE@GOTPCREL(%rip), %rsi
	cmpq	%rsi, %rdi
	jne	.L960
.L892:
	movq	(%rcx), %rax
	movq	%rcx, %rdi
	call	*8(%rax)
	jmp	.L888
.L894:
	movq	%rax, 200(%rbp)
	movq	%rax, 192(%rbp)
	jmp	.L895
.L890:
	movq	%r8, 32(%rcx)
	movq	%rcx, %r15
	movq	%rcx, 56(%r14)
	jmp	.L888
.L956:
	call	__stack_chk_fail@PLT
.L905:
	movq	%r12, %rdi
	movq	%rax, %rbp
	call	pthread_mutex_unlock@PLT
.L900:
	movq	_ZTVN4asio6detail11timer_queueINS0_18chrono_time_traitsINSt6chrono3_V212steady_clockENS_11wait_traitsIS5_EEEEEE@GOTPCREL(%rip), %rax
	movq	64(%rbx), %rdi
	addq	$16, %rax
	testq	%rdi, %rdi
	movq	%rax, 40(%rbx)
	je	.L901
	call	_ZdlPv@PLT
.L901:
	movq	%rbx, %rdi
	movl	$96, %esi
	call	_ZdlPvm@PLT
	movq	%rbp, %rdi
.LEHB25:
	call	_Unwind_Resume@PLT
.LEHE25:
.L904:
	movq	%rax, %rbp
	jmp	.L900
	.cfi_endproc
.LFE7352:
	.section	.gcc_except_table._ZN4asio6detail16service_registry6createINS_22waitable_timer_serviceINSt6chrono3_V212steady_clockENS_11wait_traitsIS6_EEEEEEPNS_10io_service7serviceERSA_,"aG",@progbits,_ZN4asio6detail16service_registry6createINS_22waitable_timer_serviceINSt6chrono3_V212steady_clockENS_11wait_traitsIS6_EEEEEEPNS_10io_service7serviceERSA_,comdat
.LLSDA7352:
	.byte	0xff
	.byte	0xff
	.byte	0x1
	.uleb128 .LLSDACSE7352-.LLSDACSB7352
.LLSDACSB7352:
	.uleb128 .LEHB22-.LFB7352
	.uleb128 .LEHE22-.LEHB22
	.uleb128 0
	.uleb128 0
	.uleb128 .LEHB23-.LFB7352
	.uleb128 .LEHE23-.LEHB23
	.uleb128 .L904-.LFB7352
	.uleb128 0
	.uleb128 .LEHB24-.LFB7352
	.uleb128 .LEHE24-.LEHB24
	.uleb128 .L905-.LFB7352
	.uleb128 0
	.uleb128 .LEHB25-.LFB7352
	.uleb128 .LEHE25-.LEHB25
	.uleb128 0
	.uleb128 0
.LLSDACSE7352:
	.section	.text._ZN4asio6detail16service_registry6createINS_22waitable_timer_serviceINSt6chrono3_V212steady_clockENS_11wait_traitsIS6_EEEEEEPNS_10io_service7serviceERSA_,"axG",@progbits,_ZN4asio6detail16service_registry6createINS_22waitable_timer_serviceINSt6chrono3_V212steady_clockENS_11wait_traitsIS6_EEEEEEPNS_10io_service7serviceERSA_,comdat
	.size	_ZN4asio6detail16service_registry6createINS_22waitable_timer_serviceINSt6chrono3_V212steady_clockENS_11wait_traitsIS6_EEEEEEPNS_10io_service7serviceERSA_, .-_ZN4asio6detail16service_registry6createINS_22waitable_timer_serviceINSt6chrono3_V212steady_clockENS_11wait_traitsIS6_EEEEEEPNS_10io_service7serviceERSA_
	.text
	.align 2
	.p2align 4,,15
	.globl	_ZN7asiopal5TimerC2ERN4asio10io_serviceE
	.type	_ZN7asiopal5TimerC2ERN4asio10io_serviceE, @function
_ZN7asiopal5TimerC2ERN4asio10io_serviceE:
.LFB6282:
	.cfi_startproc
	pushq	%r15
	.cfi_def_cfa_offset 16
	.cfi_offset 15, -16
	pushq	%r14
	.cfi_def_cfa_offset 24
	.cfi_offset 14, -24
	pushq	%r13
	.cfi_def_cfa_offset 32
	.cfi_offset 13, -32
	pushq	%r12
	.cfi_def_cfa_offset 40
	.cfi_offset 12, -40
	pushq	%rbp
	.cfi_def_cfa_offset 48
	.cfi_offset 6, -48
	pushq	%rbx
	.cfi_def_cfa_offset 56
	.cfi_offset 3, -56
	movq	%rdi, %rbp
	subq	$8, %rsp
	.cfi_def_cfa_offset 64
	movq	(%rsi), %r12
	movq	_ZTVN7asiopal5TimerE@GOTPCREL(%rip), %rax
	leaq	8(%r12), %r13
	addq	$16, %rax
	movq	%rax, (%rdi)
	movq	%r13, %rdi
	call	pthread_mutex_lock@PLT
	movq	56(%r12), %rbx
	testq	%rbx, %rbx
	jne	.L965
	jmp	.L962
	.p2align 4,,10
	.p2align 3
.L992:
	cmpb	$42, (%rdi)
	je	.L963
	call	strcmp@PLT
	testl	%eax, %eax
	je	.L964
.L963:
	movq	32(%rbx), %rbx
	testq	%rbx, %rbx
	je	.L962
.L965:
	movq	8(%rbx), %rax
	testq	%rax, %rax
	je	.L963
	movq	8(%rax), %rdi
	movq	_ZTSN4asio6detail14typeid_wrapperINS_22waitable_timer_serviceINSt6chrono3_V212steady_clockENS_11wait_traitsIS5_EEEEEE@GOTPCREL(%rip), %rsi
	cmpq	%rsi, %rdi
	jne	.L992
.L964:
	movq	%r13, %rdi
	call	pthread_mutex_unlock@PLT
	movq	%rbx, 8(%rbp)
	movq	$0, 32(%rbp)
	movq	$0, 40(%rbp)
	movq	$0, 56(%rbp)
	movq	$0, 64(%rbp)
	movq	$0, 16(%rbp)
	movb	$0, 24(%rbp)
	addq	$8, %rsp
	.cfi_remember_state
	.cfi_def_cfa_offset 56
	popq	%rbx
	.cfi_def_cfa_offset 48
	popq	%rbp
	.cfi_def_cfa_offset 40
	popq	%r12
	.cfi_def_cfa_offset 32
	popq	%r13
	.cfi_def_cfa_offset 24
	popq	%r14
	.cfi_def_cfa_offset 16
	popq	%r15
	.cfi_def_cfa_offset 8
	ret
	.p2align 4,,10
	.p2align 3
.L962:
	.cfi_restore_state
	movq	%r13, %rdi
	call	pthread_mutex_unlock@PLT
	movq	48(%r12), %rdi
	call	_ZN4asio6detail16service_registry6createINS_22waitable_timer_serviceINSt6chrono3_V212steady_clockENS_11wait_traitsIS6_EEEEEEPNS_10io_service7serviceERSA_@PLT
	movq	%rax, %r14
	movq	_ZTIN4asio6detail14typeid_wrapperINS_22waitable_timer_serviceINSt6chrono3_V212steady_clockENS_11wait_traitsIS5_EEEEEE@GOTPCREL(%rip), %rax
	movq	%r13, %rdi
	movq	$0, 16(%r14)
	movq	%rax, 8(%r14)
	call	pthread_mutex_lock@PLT
	movq	56(%r12), %r15
	testq	%r15, %r15
	je	.L966
	movq	%r15, %rbx
	jmp	.L969
	.p2align 4,,10
	.p2align 3
.L993:
	cmpb	$42, (%rdi)
	je	.L967
	call	strcmp@PLT
	testl	%eax, %eax
	je	.L968
.L967:
	movq	32(%rbx), %rbx
	testq	%rbx, %rbx
	je	.L966
.L969:
	movq	8(%rbx), %rax
	testq	%rax, %rax
	je	.L967
	movq	8(%rax), %rdi
	movq	_ZTSN4asio6detail14typeid_wrapperINS_22waitable_timer_serviceINSt6chrono3_V212steady_clockENS_11wait_traitsIS5_EEEEEE@GOTPCREL(%rip), %rsi
	cmpq	%rsi, %rdi
	jne	.L993
.L968:
	movq	(%r14), %rax
	movq	%r14, %rdi
	call	*8(%rax)
	jmp	.L964
	.p2align 4,,10
	.p2align 3
.L966:
	movq	%r15, 32(%r14)
	movq	%r14, %rbx
	movq	%r14, 56(%r12)
	jmp	.L964
	.cfi_endproc
.LFE6282:
	.size	_ZN7asiopal5TimerC2ERN4asio10io_serviceE, .-_ZN7asiopal5TimerC2ERN4asio10io_serviceE
	.globl	_ZN7asiopal5TimerC1ERN4asio10io_serviceE
	.set	_ZN7asiopal5TimerC1ERN4asio10io_serviceE,_ZN7asiopal5TimerC2ERN4asio10io_serviceE
	.section	.text.startup,"ax",@progbits
	.p2align 4,,15
	.type	_GLOBAL__sub_I_Timer.cpp, @function
_GLOBAL__sub_I_Timer.cpp:
.LFB7650:
	.cfi_startproc
	pushq	%rbx
	.cfi_def_cfa_offset 16
	.cfi_offset 3, -16
	movq	_ZGVZN4asio15system_categoryEvE8instance@GOTPCREL(%rip), %rbx
	movzbl	(%rbx), %eax
	testb	%al, %al
	je	.L1026
.L996:
	movq	_ZGVZN4asio5error18get_netdb_categoryEvE8instance@GOTPCREL(%rip), %rbx
	movzbl	(%rbx), %eax
	testb	%al, %al
	je	.L1027
.L999:
	movq	_ZGVZN4asio5error21get_addrinfo_categoryEvE8instance@GOTPCREL(%rip), %rbx
	movzbl	(%rbx), %eax
	testb	%al, %al
	je	.L1028
.L1002:
	movq	_ZGVZN4asio5error17get_misc_categoryEvE8instance@GOTPCREL(%rip), %rbx
	movzbl	(%rbx), %eax
	testb	%al, %al
	je	.L1029
.L1005:
	movq	_ZGVN4asio6detail10call_stackINS0_15task_io_serviceENS0_27task_io_service_thread_infoEE4top_E@GOTPCREL(%rip), %rax
	cmpb	$0, (%rax)
	je	.L1030
.L1007:
	movq	_ZGVN4asio6detail12service_baseINS0_13epoll_reactorEE2idE@GOTPCREL(%rip), %rax
	cmpb	$0, (%rax)
	je	.L1031
.L1008:
	movq	_ZGVN4asio6detail12service_baseINS0_15task_io_serviceEE2idE@GOTPCREL(%rip), %rax
	cmpb	$0, (%rax)
	je	.L1032
.L1009:
	movq	_ZGVN4asio6detail10call_stackINS0_14strand_service11strand_implEhE4top_E@GOTPCREL(%rip), %rax
	cmpb	$0, (%rax)
	je	.L1033
.L1010:
	movq	_ZGVN4asio6detail12service_baseINS0_14strand_serviceEE2idE@GOTPCREL(%rip), %rax
	cmpb	$0, (%rax)
	je	.L1034
.L1011:
	movq	_ZGVN4asio6detail12service_baseINS_22waitable_timer_serviceINSt6chrono3_V212steady_clockENS_11wait_traitsIS5_EEEEE2idE@GOTPCREL(%rip), %rax
	cmpb	$0, (%rax)
	je	.L1035
	popq	%rbx
	.cfi_remember_state
	.cfi_def_cfa_offset 8
	ret
.L1026:
	.cfi_restore_state
	movq	%rbx, %rdi
	call	__cxa_guard_acquire@PLT
	testl	%eax, %eax
	je	.L996
	movq	%rbx, %rdi
	call	__cxa_guard_release@PLT
	movq	_ZZN4asio15system_categoryEvE8instance@GOTPCREL(%rip), %rsi
	movq	_ZN4asio6detail15system_categoryD1Ev@GOTPCREL(%rip), %rdi
	leaq	__dso_handle(%rip), %rdx
	call	__cxa_atexit@PLT
	jmp	.L996
.L1035:
	movb	$1, (%rax)
	movq	_ZN4asio6detail12service_baseINS_22waitable_timer_serviceINSt6chrono3_V212steady_clockENS_11wait_traitsIS5_EEEEE2idE@GOTPCREL(%rip), %rsi
	leaq	__dso_handle(%rip), %rdx
	popq	%rbx
	.cfi_remember_state
	.cfi_def_cfa_offset 8
	movq	_ZN4asio6detail10service_idINS_22waitable_timer_serviceINSt6chrono3_V212steady_clockENS_11wait_traitsIS5_EEEEED1Ev@GOTPCREL(%rip), %rdi
	jmp	__cxa_atexit@PLT
.L1029:
	.cfi_restore_state
	movq	%rbx, %rdi
	call	__cxa_guard_acquire@PLT
	testl	%eax, %eax
	je	.L1005
	movq	%rbx, %rdi
	call	__cxa_guard_release@PLT
	movq	_ZZN4asio5error17get_misc_categoryEvE8instance@GOTPCREL(%rip), %rsi
	movq	_ZN4asio5error6detail13misc_categoryD1Ev@GOTPCREL(%rip), %rdi
	leaq	__dso_handle(%rip), %rdx
	call	__cxa_atexit@PLT
	jmp	.L1005
.L1028:
	movq	%rbx, %rdi
	call	__cxa_guard_acquire@PLT
	testl	%eax, %eax
	je	.L1002
	movq	%rbx, %rdi
	call	__cxa_guard_release@PLT
	movq	_ZZN4asio5error21get_addrinfo_categoryEvE8instance@GOTPCREL(%rip), %rsi
	movq	_ZN4asio5error6detail17addrinfo_categoryD1Ev@GOTPCREL(%rip), %rdi
	leaq	__dso_handle(%rip), %rdx
	call	__cxa_atexit@PLT
	jmp	.L1002
.L1027:
	movq	%rbx, %rdi
	call	__cxa_guard_acquire@PLT
	testl	%eax, %eax
	je	.L999
	movq	%rbx, %rdi
	call	__cxa_guard_release@PLT
	movq	_ZZN4asio5error18get_netdb_categoryEvE8instance@GOTPCREL(%rip), %rsi
	movq	_ZN4asio5error6detail14netdb_categoryD1Ev@GOTPCREL(%rip), %rdi
	leaq	__dso_handle(%rip), %rdx
	call	__cxa_atexit@PLT
	jmp	.L999
.L1030:
	movq	_ZN4asio6detail10call_stackINS0_15task_io_serviceENS0_27task_io_service_thread_infoEE4top_E@GOTPCREL(%rip), %rsi
	movq	_ZN4asio6detail7tss_ptrINS0_10call_stackINS0_15task_io_serviceENS0_27task_io_service_thread_infoEE7contextEED1Ev@GOTPCREL(%rip), %rdi
	leaq	__dso_handle(%rip), %rdx
	movb	$1, (%rax)
	call	__cxa_atexit@PLT
	jmp	.L1007
.L1034:
	movq	_ZN4asio6detail12service_baseINS0_14strand_serviceEE2idE@GOTPCREL(%rip), %rsi
	movq	_ZN4asio6detail10service_idINS0_14strand_serviceEED1Ev@GOTPCREL(%rip), %rdi
	leaq	__dso_handle(%rip), %rdx
	movb	$1, (%rax)
	call	__cxa_atexit@PLT
	jmp	.L1011
.L1033:
	movq	_ZN4asio6detail10call_stackINS0_14strand_service11strand_implEhE4top_E@GOTPCREL(%rip), %rsi
	movq	_ZN4asio6detail7tss_ptrINS0_10call_stackINS0_14strand_service11strand_implEhE7contextEED1Ev@GOTPCREL(%rip), %rdi
	leaq	__dso_handle(%rip), %rdx
	movb	$1, (%rax)
	call	__cxa_atexit@PLT
	jmp	.L1010
.L1032:
	movq	_ZN4asio6detail12service_baseINS0_15task_io_serviceEE2idE@GOTPCREL(%rip), %rsi
	movq	_ZN4asio6detail10service_idINS0_15task_io_serviceEED1Ev@GOTPCREL(%rip), %rdi
	leaq	__dso_handle(%rip), %rdx
	movb	$1, (%rax)
	call	__cxa_atexit@PLT
	jmp	.L1009
.L1031:
	movq	_ZN4asio6detail12service_baseINS0_13epoll_reactorEE2idE@GOTPCREL(%rip), %rsi
	movq	_ZN4asio6detail10service_idINS0_13epoll_reactorEED1Ev@GOTPCREL(%rip), %rdi
	leaq	__dso_handle(%rip), %rdx
	movb	$1, (%rax)
	call	__cxa_atexit@PLT
	jmp	.L1008
	.cfi_endproc
.LFE7650:
	.size	_GLOBAL__sub_I_Timer.cpp, .-_GLOBAL__sub_I_Timer.cpp
	.section	.init_array,"aw"
	.align 8
	.quad	_GLOBAL__sub_I_Timer.cpp
	.weak	_ZTSN7openpal10UncopyableE
	.section	.rodata._ZTSN7openpal10UncopyableE,"aG",@progbits,_ZTSN7openpal10UncopyableE,comdat
	.align 16
	.type	_ZTSN7openpal10UncopyableE, @object
	.size	_ZTSN7openpal10UncopyableE, 23
_ZTSN7openpal10UncopyableE:
	.string	"N7openpal10UncopyableE"
	.weak	_ZTIN7openpal10UncopyableE
	.section	.data.rel.ro._ZTIN7openpal10UncopyableE,"awG",@progbits,_ZTIN7openpal10UncopyableE,comdat
	.align 8
	.type	_ZTIN7openpal10UncopyableE, @object
	.size	_ZTIN7openpal10UncopyableE, 16
_ZTIN7openpal10UncopyableE:
	.quad	_ZTVN10__cxxabiv117__class_type_infoE+16
	.quad	_ZTSN7openpal10UncopyableE
	.weak	_ZTSN4asio6detail11noncopyableE
	.section	.rodata._ZTSN4asio6detail11noncopyableE,"aG",@progbits,_ZTSN4asio6detail11noncopyableE,comdat
	.align 16
	.type	_ZTSN4asio6detail11noncopyableE, @object
	.size	_ZTSN4asio6detail11noncopyableE, 28
_ZTSN4asio6detail11noncopyableE:
	.string	"N4asio6detail11noncopyableE"
	.weak	_ZTIN4asio6detail11noncopyableE
	.section	.data.rel.ro._ZTIN4asio6detail11noncopyableE,"awG",@progbits,_ZTIN4asio6detail11noncopyableE,comdat
	.align 8
	.type	_ZTIN4asio6detail11noncopyableE, @object
	.size	_ZTIN4asio6detail11noncopyableE, 16
_ZTIN4asio6detail11noncopyableE:
	.quad	_ZTVN10__cxxabiv117__class_type_infoE+16
	.quad	_ZTSN4asio6detail11noncopyableE
	.weak	_ZGVN4asio6detail12service_baseINS_22waitable_timer_serviceINSt6chrono3_V212steady_clockENS_11wait_traitsIS5_EEEEE2idE
	.section	.bss._ZGVN4asio6detail12service_baseINS_22waitable_timer_serviceINSt6chrono3_V212steady_clockENS_11wait_traitsIS5_EEEEE2idE,"awG",@nobits,_ZGVN4asio6detail12service_baseINS_22waitable_timer_serviceINSt6chrono3_V212steady_clockENS_11wait_traitsIS5_EEEEE2idE,comdat
	.align 8
	.type	_ZGVN4asio6detail12service_baseINS_22waitable_timer_serviceINSt6chrono3_V212steady_clockENS_11wait_traitsIS5_EEEEE2idE, @gnu_unique_object
	.size	_ZGVN4asio6detail12service_baseINS_22waitable_timer_serviceINSt6chrono3_V212steady_clockENS_11wait_traitsIS5_EEEEE2idE, 8
_ZGVN4asio6detail12service_baseINS_22waitable_timer_serviceINSt6chrono3_V212steady_clockENS_11wait_traitsIS5_EEEEE2idE:
	.zero	8
	.weak	_ZGVN4asio6detail12service_baseINS0_14strand_serviceEE2idE
	.section	.bss._ZGVN4asio6detail12service_baseINS0_14strand_serviceEE2idE,"awG",@nobits,_ZGVN4asio6detail12service_baseINS0_14strand_serviceEE2idE,comdat
	.align 8
	.type	_ZGVN4asio6detail12service_baseINS0_14strand_serviceEE2idE, @gnu_unique_object
	.size	_ZGVN4asio6detail12service_baseINS0_14strand_serviceEE2idE, 8
_ZGVN4asio6detail12service_baseINS0_14strand_serviceEE2idE:
	.zero	8
	.weak	_ZGVN4asio6detail10call_stackINS0_14strand_service11strand_implEhE4top_E
	.section	.bss._ZGVN4asio6detail10call_stackINS0_14strand_service11strand_implEhE4top_E,"awG",@nobits,_ZGVN4asio6detail10call_stackINS0_14strand_service11strand_implEhE4top_E,comdat
	.align 8
	.type	_ZGVN4asio6detail10call_stackINS0_14strand_service11strand_implEhE4top_E, @gnu_unique_object
	.size	_ZGVN4asio6detail10call_stackINS0_14strand_service11strand_implEhE4top_E, 8
_ZGVN4asio6detail10call_stackINS0_14strand_service11strand_implEhE4top_E:
	.zero	8
	.weak	_ZGVN4asio6detail12service_baseINS0_15task_io_serviceEE2idE
	.section	.bss._ZGVN4asio6detail12service_baseINS0_15task_io_serviceEE2idE,"awG",@nobits,_ZGVN4asio6detail12service_baseINS0_15task_io_serviceEE2idE,comdat
	.align 8
	.type	_ZGVN4asio6detail12service_baseINS0_15task_io_serviceEE2idE, @gnu_unique_object
	.size	_ZGVN4asio6detail12service_baseINS0_15task_io_serviceEE2idE, 8
_ZGVN4asio6detail12service_baseINS0_15task_io_serviceEE2idE:
	.zero	8
	.weak	_ZGVN4asio6detail12service_baseINS0_13epoll_reactorEE2idE
	.section	.bss._ZGVN4asio6detail12service_baseINS0_13epoll_reactorEE2idE,"awG",@nobits,_ZGVN4asio6detail12service_baseINS0_13epoll_reactorEE2idE,comdat
	.align 8
	.type	_ZGVN4asio6detail12service_baseINS0_13epoll_reactorEE2idE, @gnu_unique_object
	.size	_ZGVN4asio6detail12service_baseINS0_13epoll_reactorEE2idE, 8
_ZGVN4asio6detail12service_baseINS0_13epoll_reactorEE2idE:
	.zero	8
	.weak	_ZGVN4asio6detail10call_stackINS0_15task_io_serviceENS0_27task_io_service_thread_infoEE4top_E
	.section	.bss._ZGVN4asio6detail10call_stackINS0_15task_io_serviceENS0_27task_io_service_thread_infoEE4top_E,"awG",@nobits,_ZGVN4asio6detail10call_stackINS0_15task_io_serviceENS0_27task_io_service_thread_infoEE4top_E,comdat
	.align 8
	.type	_ZGVN4asio6detail10call_stackINS0_15task_io_serviceENS0_27task_io_service_thread_infoEE4top_E, @gnu_unique_object
	.size	_ZGVN4asio6detail10call_stackINS0_15task_io_serviceENS0_27task_io_service_thread_infoEE4top_E, 8
_ZGVN4asio6detail10call_stackINS0_15task_io_serviceENS0_27task_io_service_thread_infoEE4top_E:
	.zero	8
	.weak	_ZN4asio6detail12service_baseINS_22waitable_timer_serviceINSt6chrono3_V212steady_clockENS_11wait_traitsIS5_EEEEE2idE
	.section	.bss._ZN4asio6detail12service_baseINS_22waitable_timer_serviceINSt6chrono3_V212steady_clockENS_11wait_traitsIS5_EEEEE2idE,"awG",@nobits,_ZN4asio6detail12service_baseINS_22waitable_timer_serviceINSt6chrono3_V212steady_clockENS_11wait_traitsIS5_EEEEE2idE,comdat
	.type	_ZN4asio6detail12service_baseINS_22waitable_timer_serviceINSt6chrono3_V212steady_clockENS_11wait_traitsIS5_EEEEE2idE, @gnu_unique_object
	.size	_ZN4asio6detail12service_baseINS_22waitable_timer_serviceINSt6chrono3_V212steady_clockENS_11wait_traitsIS5_EEEEE2idE, 1
_ZN4asio6detail12service_baseINS_22waitable_timer_serviceINSt6chrono3_V212steady_clockENS_11wait_traitsIS5_EEEEE2idE:
	.zero	1
	.weak	_ZN4asio6detail12service_baseINS0_14strand_serviceEE2idE
	.section	.bss._ZN4asio6detail12service_baseINS0_14strand_serviceEE2idE,"awG",@nobits,_ZN4asio6detail12service_baseINS0_14strand_serviceEE2idE,comdat
	.type	_ZN4asio6detail12service_baseINS0_14strand_serviceEE2idE, @gnu_unique_object
	.size	_ZN4asio6detail12service_baseINS0_14strand_serviceEE2idE, 1
_ZN4asio6detail12service_baseINS0_14strand_serviceEE2idE:
	.zero	1
	.weak	_ZN4asio6detail10call_stackINS0_14strand_service11strand_implEhE4top_E
	.section	.bss._ZN4asio6detail10call_stackINS0_14strand_service11strand_implEhE4top_E,"awG",@nobits,_ZN4asio6detail10call_stackINS0_14strand_service11strand_implEhE4top_E,comdat
	.type	_ZN4asio6detail10call_stackINS0_14strand_service11strand_implEhE4top_E, @gnu_unique_object
	.size	_ZN4asio6detail10call_stackINS0_14strand_service11strand_implEhE4top_E, 1
_ZN4asio6detail10call_stackINS0_14strand_service11strand_implEhE4top_E:
	.zero	1
	.weak	_ZN4asio6detail12service_baseINS0_15task_io_serviceEE2idE
	.section	.bss._ZN4asio6detail12service_baseINS0_15task_io_serviceEE2idE,"awG",@nobits,_ZN4asio6detail12service_baseINS0_15task_io_serviceEE2idE,comdat
	.type	_ZN4asio6detail12service_baseINS0_15task_io_serviceEE2idE, @gnu_unique_object
	.size	_ZN4asio6detail12service_baseINS0_15task_io_serviceEE2idE, 1
_ZN4asio6detail12service_baseINS0_15task_io_serviceEE2idE:
	.zero	1
	.weak	_ZN4asio6detail12service_baseINS0_13epoll_reactorEE2idE
	.section	.bss._ZN4asio6detail12service_baseINS0_13epoll_reactorEE2idE,"awG",@nobits,_ZN4asio6detail12service_baseINS0_13epoll_reactorEE2idE,comdat
	.type	_ZN4asio6detail12service_baseINS0_13epoll_reactorEE2idE, @gnu_unique_object
	.size	_ZN4asio6detail12service_baseINS0_13epoll_reactorEE2idE, 1
_ZN4asio6detail12service_baseINS0_13epoll_reactorEE2idE:
	.zero	1
	.weak	_ZN4asio6detail10call_stackINS0_15task_io_serviceENS0_27task_io_service_thread_infoEE4top_E
	.section	.bss._ZN4asio6detail10call_stackINS0_15task_io_serviceENS0_27task_io_service_thread_infoEE4top_E,"awG",@nobits,_ZN4asio6detail10call_stackINS0_15task_io_serviceENS0_27task_io_service_thread_infoEE4top_E,comdat
	.type	_ZN4asio6detail10call_stackINS0_15task_io_serviceENS0_27task_io_service_thread_infoEE4top_E, @gnu_unique_object
	.size	_ZN4asio6detail10call_stackINS0_15task_io_serviceENS0_27task_io_service_thread_infoEE4top_E, 1
_ZN4asio6detail10call_stackINS0_15task_io_serviceENS0_27task_io_service_thread_infoEE4top_E:
	.zero	1
	.weak	_ZTSN4asio6detail15system_categoryE
	.section	.rodata._ZTSN4asio6detail15system_categoryE,"aG",@progbits,_ZTSN4asio6detail15system_categoryE,comdat
	.align 32
	.type	_ZTSN4asio6detail15system_categoryE, @object
	.size	_ZTSN4asio6detail15system_categoryE, 32
_ZTSN4asio6detail15system_categoryE:
	.string	"N4asio6detail15system_categoryE"
	.weak	_ZTIN4asio6detail15system_categoryE
	.section	.data.rel.ro._ZTIN4asio6detail15system_categoryE,"awG",@progbits,_ZTIN4asio6detail15system_categoryE,comdat
	.align 8
	.type	_ZTIN4asio6detail15system_categoryE, @object
	.size	_ZTIN4asio6detail15system_categoryE, 24
_ZTIN4asio6detail15system_categoryE:
	.quad	_ZTVN10__cxxabiv120__si_class_type_infoE+16
	.quad	_ZTSN4asio6detail15system_categoryE
	.quad	_ZTINSt3_V214error_categoryE
	.weak	_ZTSN4asio10io_service7serviceE
	.section	.rodata._ZTSN4asio10io_service7serviceE,"aG",@progbits,_ZTSN4asio10io_service7serviceE,comdat
	.align 16
	.type	_ZTSN4asio10io_service7serviceE, @object
	.size	_ZTSN4asio10io_service7serviceE, 28
_ZTSN4asio10io_service7serviceE:
	.string	"N4asio10io_service7serviceE"
	.weak	_ZTIN4asio10io_service7serviceE
	.section	.data.rel.ro._ZTIN4asio10io_service7serviceE,"awG",@progbits,_ZTIN4asio10io_service7serviceE,comdat
	.align 8
	.type	_ZTIN4asio10io_service7serviceE, @object
	.size	_ZTIN4asio10io_service7serviceE, 40
_ZTIN4asio10io_service7serviceE:
	.quad	_ZTVN10__cxxabiv121__vmi_class_type_infoE+16
	.quad	_ZTSN4asio10io_service7serviceE
	.long	0
	.long	1
	.quad	_ZTIN4asio6detail11noncopyableE
	.quad	0
	.weak	_ZTSN4asio5error6detail14netdb_categoryE
	.section	.rodata._ZTSN4asio5error6detail14netdb_categoryE,"aG",@progbits,_ZTSN4asio5error6detail14netdb_categoryE,comdat
	.align 32
	.type	_ZTSN4asio5error6detail14netdb_categoryE, @object
	.size	_ZTSN4asio5error6detail14netdb_categoryE, 37
_ZTSN4asio5error6detail14netdb_categoryE:
	.string	"N4asio5error6detail14netdb_categoryE"
	.weak	_ZTIN4asio5error6detail14netdb_categoryE
	.section	.data.rel.ro._ZTIN4asio5error6detail14netdb_categoryE,"awG",@progbits,_ZTIN4asio5error6detail14netdb_categoryE,comdat
	.align 8
	.type	_ZTIN4asio5error6detail14netdb_categoryE, @object
	.size	_ZTIN4asio5error6detail14netdb_categoryE, 24
_ZTIN4asio5error6detail14netdb_categoryE:
	.quad	_ZTVN10__cxxabiv120__si_class_type_infoE+16
	.quad	_ZTSN4asio5error6detail14netdb_categoryE
	.quad	_ZTINSt3_V214error_categoryE
	.weak	_ZTSN4asio5error6detail17addrinfo_categoryE
	.section	.rodata._ZTSN4asio5error6detail17addrinfo_categoryE,"aG",@progbits,_ZTSN4asio5error6detail17addrinfo_categoryE,comdat
	.align 32
	.type	_ZTSN4asio5error6detail17addrinfo_categoryE, @object
	.size	_ZTSN4asio5error6detail17addrinfo_categoryE, 40
_ZTSN4asio5error6detail17addrinfo_categoryE:
	.string	"N4asio5error6detail17addrinfo_categoryE"
	.weak	_ZTIN4asio5error6detail17addrinfo_categoryE
	.section	.data.rel.ro._ZTIN4asio5error6detail17addrinfo_categoryE,"awG",@progbits,_ZTIN4asio5error6detail17addrinfo_categoryE,comdat
	.align 8
	.type	_ZTIN4asio5error6detail17addrinfo_categoryE, @object
	.size	_ZTIN4asio5error6detail17addrinfo_categoryE, 24
_ZTIN4asio5error6detail17addrinfo_categoryE:
	.quad	_ZTVN10__cxxabiv120__si_class_type_infoE+16
	.quad	_ZTSN4asio5error6detail17addrinfo_categoryE
	.quad	_ZTINSt3_V214error_categoryE
	.weak	_ZTSN4asio5error6detail13misc_categoryE
	.section	.rodata._ZTSN4asio5error6detail13misc_categoryE,"aG",@progbits,_ZTSN4asio5error6detail13misc_categoryE,comdat
	.align 32
	.type	_ZTSN4asio5error6detail13misc_categoryE, @object
	.size	_ZTSN4asio5error6detail13misc_categoryE, 36
_ZTSN4asio5error6detail13misc_categoryE:
	.string	"N4asio5error6detail13misc_categoryE"
	.weak	_ZTIN4asio5error6detail13misc_categoryE
	.section	.data.rel.ro._ZTIN4asio5error6detail13misc_categoryE,"awG",@progbits,_ZTIN4asio5error6detail13misc_categoryE,comdat
	.align 8
	.type	_ZTIN4asio5error6detail13misc_categoryE, @object
	.size	_ZTIN4asio5error6detail13misc_categoryE, 24
_ZTIN4asio5error6detail13misc_categoryE:
	.quad	_ZTVN10__cxxabiv120__si_class_type_infoE+16
	.quad	_ZTSN4asio5error6detail13misc_categoryE
	.quad	_ZTINSt3_V214error_categoryE
	.weak	_ZTSN4asio6detail16timer_queue_baseE
	.section	.rodata._ZTSN4asio6detail16timer_queue_baseE,"aG",@progbits,_ZTSN4asio6detail16timer_queue_baseE,comdat
	.align 32
	.type	_ZTSN4asio6detail16timer_queue_baseE, @object
	.size	_ZTSN4asio6detail16timer_queue_baseE, 33
_ZTSN4asio6detail16timer_queue_baseE:
	.string	"N4asio6detail16timer_queue_baseE"
	.weak	_ZTIN4asio6detail16timer_queue_baseE
	.section	.data.rel.ro._ZTIN4asio6detail16timer_queue_baseE,"awG",@progbits,_ZTIN4asio6detail16timer_queue_baseE,comdat
	.align 8
	.type	_ZTIN4asio6detail16timer_queue_baseE, @object
	.size	_ZTIN4asio6detail16timer_queue_baseE, 40
_ZTIN4asio6detail16timer_queue_baseE:
	.quad	_ZTVN10__cxxabiv121__vmi_class_type_infoE+16
	.quad	_ZTSN4asio6detail16timer_queue_baseE
	.long	0
	.long	1
	.quad	_ZTIN4asio6detail11noncopyableE
	.quad	0
	.weak	_ZTSN4asio6detail12service_baseINS0_13epoll_reactorEEE
	.section	.rodata._ZTSN4asio6detail12service_baseINS0_13epoll_reactorEEE,"aG",@progbits,_ZTSN4asio6detail12service_baseINS0_13epoll_reactorEEE,comdat
	.align 32
	.type	_ZTSN4asio6detail12service_baseINS0_13epoll_reactorEEE, @object
	.size	_ZTSN4asio6detail12service_baseINS0_13epoll_reactorEEE, 51
_ZTSN4asio6detail12service_baseINS0_13epoll_reactorEEE:
	.string	"N4asio6detail12service_baseINS0_13epoll_reactorEEE"
	.weak	_ZTIN4asio6detail12service_baseINS0_13epoll_reactorEEE
	.section	.data.rel.ro._ZTIN4asio6detail12service_baseINS0_13epoll_reactorEEE,"awG",@progbits,_ZTIN4asio6detail12service_baseINS0_13epoll_reactorEEE,comdat
	.align 8
	.type	_ZTIN4asio6detail12service_baseINS0_13epoll_reactorEEE, @object
	.size	_ZTIN4asio6detail12service_baseINS0_13epoll_reactorEEE, 24
_ZTIN4asio6detail12service_baseINS0_13epoll_reactorEEE:
	.quad	_ZTVN10__cxxabiv120__si_class_type_infoE+16
	.quad	_ZTSN4asio6detail12service_baseINS0_13epoll_reactorEEE
	.quad	_ZTIN4asio10io_service7serviceE
	.weak	_ZTSN4asio6detail13epoll_reactorE
	.section	.rodata._ZTSN4asio6detail13epoll_reactorE,"aG",@progbits,_ZTSN4asio6detail13epoll_reactorE,comdat
	.align 16
	.type	_ZTSN4asio6detail13epoll_reactorE, @object
	.size	_ZTSN4asio6detail13epoll_reactorE, 30
_ZTSN4asio6detail13epoll_reactorE:
	.string	"N4asio6detail13epoll_reactorE"
	.weak	_ZTIN4asio6detail13epoll_reactorE
	.section	.data.rel.ro._ZTIN4asio6detail13epoll_reactorE,"awG",@progbits,_ZTIN4asio6detail13epoll_reactorE,comdat
	.align 8
	.type	_ZTIN4asio6detail13epoll_reactorE, @object
	.size	_ZTIN4asio6detail13epoll_reactorE, 24
_ZTIN4asio6detail13epoll_reactorE:
	.quad	_ZTVN10__cxxabiv120__si_class_type_infoE+16
	.quad	_ZTSN4asio6detail13epoll_reactorE
	.quad	_ZTIN4asio6detail12service_baseINS0_13epoll_reactorEEE
	.weak	_ZTSN4asio6detail12service_baseINS_22waitable_timer_serviceINSt6chrono3_V212steady_clockENS_11wait_traitsIS5_EEEEEE
	.section	.rodata._ZTSN4asio6detail12service_baseINS_22waitable_timer_serviceINSt6chrono3_V212steady_clockENS_11wait_traitsIS5_EEEEEE,"aG",@progbits,_ZTSN4asio6detail12service_baseINS_22waitable_timer_serviceINSt6chrono3_V212steady_clockENS_11wait_traitsIS5_EEEEEE,comdat
	.align 32
	.type	_ZTSN4asio6detail12service_baseINS_22waitable_timer_serviceINSt6chrono3_V212steady_clockENS_11wait_traitsIS5_EEEEEE, @object
	.size	_ZTSN4asio6detail12service_baseINS_22waitable_timer_serviceINSt6chrono3_V212steady_clockENS_11wait_traitsIS5_EEEEEE, 112
_ZTSN4asio6detail12service_baseINS_22waitable_timer_serviceINSt6chrono3_V212steady_clockENS_11wait_traitsIS5_EEEEEE:
	.string	"N4asio6detail12service_baseINS_22waitable_timer_serviceINSt6chrono3_V212steady_clockENS_11wait_traitsIS5_EEEEEE"
	.weak	_ZTIN4asio6detail12service_baseINS_22waitable_timer_serviceINSt6chrono3_V212steady_clockENS_11wait_traitsIS5_EEEEEE
	.section	.data.rel.ro._ZTIN4asio6detail12service_baseINS_22waitable_timer_serviceINSt6chrono3_V212steady_clockENS_11wait_traitsIS5_EEEEEE,"awG",@progbits,_ZTIN4asio6detail12service_baseINS_22waitable_timer_serviceINSt6chrono3_V212steady_clockENS_11wait_traitsIS5_EEEEEE,comdat
	.align 8
	.type	_ZTIN4asio6detail12service_baseINS_22waitable_timer_serviceINSt6chrono3_V212steady_clockENS_11wait_traitsIS5_EEEEEE, @object
	.size	_ZTIN4asio6detail12service_baseINS_22waitable_timer_serviceINSt6chrono3_V212steady_clockENS_11wait_traitsIS5_EEEEEE, 24
_ZTIN4asio6detail12service_baseINS_22waitable_timer_serviceINSt6chrono3_V212steady_clockENS_11wait_traitsIS5_EEEEEE:
	.quad	_ZTVN10__cxxabiv120__si_class_type_infoE+16
	.quad	_ZTSN4asio6detail12service_baseINS_22waitable_timer_serviceINSt6chrono3_V212steady_clockENS_11wait_traitsIS5_EEEEEE
	.quad	_ZTIN4asio10io_service7serviceE
	.weak	_ZTSN4asio6detail11timer_queueINS0_18chrono_time_traitsINSt6chrono3_V212steady_clockENS_11wait_traitsIS5_EEEEEE
	.section	.rodata._ZTSN4asio6detail11timer_queueINS0_18chrono_time_traitsINSt6chrono3_V212steady_clockENS_11wait_traitsIS5_EEEEEE,"aG",@progbits,_ZTSN4asio6detail11timer_queueINS0_18chrono_time_traitsINSt6chrono3_V212steady_clockENS_11wait_traitsIS5_EEEEEE,comdat
	.align 32
	.type	_ZTSN4asio6detail11timer_queueINS0_18chrono_time_traitsINSt6chrono3_V212steady_clockENS_11wait_traitsIS5_EEEEEE, @object
	.size	_ZTSN4asio6detail11timer_queueINS0_18chrono_time_traitsINSt6chrono3_V212steady_clockENS_11wait_traitsIS5_EEEEEE, 108
_ZTSN4asio6detail11timer_queueINS0_18chrono_time_traitsINSt6chrono3_V212steady_clockENS_11wait_traitsIS5_EEEEEE:
	.string	"N4asio6detail11timer_queueINS0_18chrono_time_traitsINSt6chrono3_V212steady_clockENS_11wait_traitsIS5_EEEEEE"
	.weak	_ZTIN4asio6detail11timer_queueINS0_18chrono_time_traitsINSt6chrono3_V212steady_clockENS_11wait_traitsIS5_EEEEEE
	.section	.data.rel.ro._ZTIN4asio6detail11timer_queueINS0_18chrono_time_traitsINSt6chrono3_V212steady_clockENS_11wait_traitsIS5_EEEEEE,"awG",@progbits,_ZTIN4asio6detail11timer_queueINS0_18chrono_time_traitsINSt6chrono3_V212steady_clockENS_11wait_traitsIS5_EEEEEE,comdat
	.align 8
	.type	_ZTIN4asio6detail11timer_queueINS0_18chrono_time_traitsINSt6chrono3_V212steady_clockENS_11wait_traitsIS5_EEEEEE, @object
	.size	_ZTIN4asio6detail11timer_queueINS0_18chrono_time_traitsINSt6chrono3_V212steady_clockENS_11wait_traitsIS5_EEEEEE, 24
_ZTIN4asio6detail11timer_queueINS0_18chrono_time_traitsINSt6chrono3_V212steady_clockENS_11wait_traitsIS5_EEEEEE:
	.quad	_ZTVN10__cxxabiv120__si_class_type_infoE+16
	.quad	_ZTSN4asio6detail11timer_queueINS0_18chrono_time_traitsINSt6chrono3_V212steady_clockENS_11wait_traitsIS5_EEEEEE
	.quad	_ZTIN4asio6detail16timer_queue_baseE
	.weak	_ZTSN4asio22waitable_timer_serviceINSt6chrono3_V212steady_clockENS_11wait_traitsIS3_EEEE
	.section	.rodata._ZTSN4asio22waitable_timer_serviceINSt6chrono3_V212steady_clockENS_11wait_traitsIS3_EEEE,"aG",@progbits,_ZTSN4asio22waitable_timer_serviceINSt6chrono3_V212steady_clockENS_11wait_traitsIS3_EEEE,comdat
	.align 32
	.type	_ZTSN4asio22waitable_timer_serviceINSt6chrono3_V212steady_clockENS_11wait_traitsIS3_EEEE, @object
	.size	_ZTSN4asio22waitable_timer_serviceINSt6chrono3_V212steady_clockENS_11wait_traitsIS3_EEEE, 85
_ZTSN4asio22waitable_timer_serviceINSt6chrono3_V212steady_clockENS_11wait_traitsIS3_EEEE:
	.string	"N4asio22waitable_timer_serviceINSt6chrono3_V212steady_clockENS_11wait_traitsIS3_EEEE"
	.weak	_ZTIN4asio22waitable_timer_serviceINSt6chrono3_V212steady_clockENS_11wait_traitsIS3_EEEE
	.section	.data.rel.ro._ZTIN4asio22waitable_timer_serviceINSt6chrono3_V212steady_clockENS_11wait_traitsIS3_EEEE,"awG",@progbits,_ZTIN4asio22waitable_timer_serviceINSt6chrono3_V212steady_clockENS_11wait_traitsIS3_EEEE,comdat
	.align 8
	.type	_ZTIN4asio22waitable_timer_serviceINSt6chrono3_V212steady_clockENS_11wait_traitsIS3_EEEE, @object
	.size	_ZTIN4asio22waitable_timer_serviceINSt6chrono3_V212steady_clockENS_11wait_traitsIS3_EEEE, 24
_ZTIN4asio22waitable_timer_serviceINSt6chrono3_V212steady_clockENS_11wait_traitsIS3_EEEE:
	.quad	_ZTVN10__cxxabiv120__si_class_type_infoE+16
	.quad	_ZTSN4asio22waitable_timer_serviceINSt6chrono3_V212steady_clockENS_11wait_traitsIS3_EEEE
	.quad	_ZTIN4asio6detail12service_baseINS_22waitable_timer_serviceINSt6chrono3_V212steady_clockENS_11wait_traitsIS5_EEEEEE
	.weak	_ZTSN7openpal6ITimerE
	.section	.rodata._ZTSN7openpal6ITimerE,"aG",@progbits,_ZTSN7openpal6ITimerE,comdat
	.align 16
	.type	_ZTSN7openpal6ITimerE, @object
	.size	_ZTSN7openpal6ITimerE, 18
_ZTSN7openpal6ITimerE:
	.string	"N7openpal6ITimerE"
	.weak	_ZTIN7openpal6ITimerE
	.section	.data.rel.ro._ZTIN7openpal6ITimerE,"awG",@progbits,_ZTIN7openpal6ITimerE,comdat
	.align 8
	.type	_ZTIN7openpal6ITimerE, @object
	.size	_ZTIN7openpal6ITimerE, 16
_ZTIN7openpal6ITimerE:
	.quad	_ZTVN10__cxxabiv117__class_type_infoE+16
	.quad	_ZTSN7openpal6ITimerE
	.weak	_ZTSN7asiopal5TimerE
	.section	.rodata._ZTSN7asiopal5TimerE,"aG",@progbits,_ZTSN7asiopal5TimerE,comdat
	.align 16
	.type	_ZTSN7asiopal5TimerE, @object
	.size	_ZTSN7asiopal5TimerE, 17
_ZTSN7asiopal5TimerE:
	.string	"N7asiopal5TimerE"
	.weak	_ZTIN7asiopal5TimerE
	.section	.data.rel.ro._ZTIN7asiopal5TimerE,"awG",@progbits,_ZTIN7asiopal5TimerE,comdat
	.align 8
	.type	_ZTIN7asiopal5TimerE, @object
	.size	_ZTIN7asiopal5TimerE, 56
_ZTIN7asiopal5TimerE:
	.quad	_ZTVN10__cxxabiv121__vmi_class_type_infoE+16
	.quad	_ZTSN7asiopal5TimerE
	.long	0
	.long	2
	.quad	_ZTIN7openpal6ITimerE
	.quad	2
	.quad	_ZTIN7openpal10UncopyableE
	.quad	0
	.weak	_ZTSN4asio6detail14typeid_wrapperINS0_13epoll_reactorEEE
	.section	.rodata._ZTSN4asio6detail14typeid_wrapperINS0_13epoll_reactorEEE,"aG",@progbits,_ZTSN4asio6detail14typeid_wrapperINS0_13epoll_reactorEEE,comdat
	.align 32
	.type	_ZTSN4asio6detail14typeid_wrapperINS0_13epoll_reactorEEE, @object
	.size	_ZTSN4asio6detail14typeid_wrapperINS0_13epoll_reactorEEE, 53
_ZTSN4asio6detail14typeid_wrapperINS0_13epoll_reactorEEE:
	.string	"N4asio6detail14typeid_wrapperINS0_13epoll_reactorEEE"
	.weak	_ZTIN4asio6detail14typeid_wrapperINS0_13epoll_reactorEEE
	.section	.data.rel.ro._ZTIN4asio6detail14typeid_wrapperINS0_13epoll_reactorEEE,"awG",@progbits,_ZTIN4asio6detail14typeid_wrapperINS0_13epoll_reactorEEE,comdat
	.align 8
	.type	_ZTIN4asio6detail14typeid_wrapperINS0_13epoll_reactorEEE, @object
	.size	_ZTIN4asio6detail14typeid_wrapperINS0_13epoll_reactorEEE, 16
_ZTIN4asio6detail14typeid_wrapperINS0_13epoll_reactorEEE:
	.quad	_ZTVN10__cxxabiv117__class_type_infoE+16
	.quad	_ZTSN4asio6detail14typeid_wrapperINS0_13epoll_reactorEEE
	.weak	_ZTSN4asio6detail14typeid_wrapperINS_22waitable_timer_serviceINSt6chrono3_V212steady_clockENS_11wait_traitsIS5_EEEEEE
	.section	.rodata._ZTSN4asio6detail14typeid_wrapperINS_22waitable_timer_serviceINSt6chrono3_V212steady_clockENS_11wait_traitsIS5_EEEEEE,"aG",@progbits,_ZTSN4asio6detail14typeid_wrapperINS_22waitable_timer_serviceINSt6chrono3_V212steady_clockENS_11wait_traitsIS5_EEEEEE,comdat
	.align 32
	.type	_ZTSN4asio6detail14typeid_wrapperINS_22waitable_timer_serviceINSt6chrono3_V212steady_clockENS_11wait_traitsIS5_EEEEEE, @object
	.size	_ZTSN4asio6detail14typeid_wrapperINS_22waitable_timer_serviceINSt6chrono3_V212steady_clockENS_11wait_traitsIS5_EEEEEE, 114
_ZTSN4asio6detail14typeid_wrapperINS_22waitable_timer_serviceINSt6chrono3_V212steady_clockENS_11wait_traitsIS5_EEEEEE:
	.string	"N4asio6detail14typeid_wrapperINS_22waitable_timer_serviceINSt6chrono3_V212steady_clockENS_11wait_traitsIS5_EEEEEE"
	.weak	_ZTIN4asio6detail14typeid_wrapperINS_22waitable_timer_serviceINSt6chrono3_V212steady_clockENS_11wait_traitsIS5_EEEEEE
	.section	.data.rel.ro._ZTIN4asio6detail14typeid_wrapperINS_22waitable_timer_serviceINSt6chrono3_V212steady_clockENS_11wait_traitsIS5_EEEEEE,"awG",@progbits,_ZTIN4asio6detail14typeid_wrapperINS_22waitable_timer_serviceINSt6chrono3_V212steady_clockENS_11wait_traitsIS5_EEEEEE,comdat
	.align 8
	.type	_ZTIN4asio6detail14typeid_wrapperINS_22waitable_timer_serviceINSt6chrono3_V212steady_clockENS_11wait_traitsIS5_EEEEEE, @object
	.size	_ZTIN4asio6detail14typeid_wrapperINS_22waitable_timer_serviceINSt6chrono3_V212steady_clockENS_11wait_traitsIS5_EEEEEE, 16
_ZTIN4asio6detail14typeid_wrapperINS_22waitable_timer_serviceINSt6chrono3_V212steady_clockENS_11wait_traitsIS5_EEEEEE:
	.quad	_ZTVN10__cxxabiv117__class_type_infoE+16
	.quad	_ZTSN4asio6detail14typeid_wrapperINS_22waitable_timer_serviceINSt6chrono3_V212steady_clockENS_11wait_traitsIS5_EEEEEE
	.weak	_ZTVN4asio6detail15system_categoryE
	.section	.data.rel.ro._ZTVN4asio6detail15system_categoryE,"awG",@progbits,_ZTVN4asio6detail15system_categoryE,comdat
	.align 8
	.type	_ZTVN4asio6detail15system_categoryE, @object
	.size	_ZTVN4asio6detail15system_categoryE, 80
_ZTVN4asio6detail15system_categoryE:
	.quad	0
	.quad	_ZTIN4asio6detail15system_categoryE
	.quad	_ZN4asio6detail15system_categoryD1Ev
	.quad	_ZN4asio6detail15system_categoryD0Ev
	.quad	_ZNK4asio6detail15system_category4nameEv
	.quad	_ZNKSt3_V214error_category10_M_messageB5cxx11Ei
	.quad	_ZNK4asio6detail15system_category7messageB5cxx11Ei
	.quad	_ZNKSt3_V214error_category23default_error_conditionEi
	.quad	_ZNKSt3_V214error_category10equivalentEiRKSt15error_condition
	.quad	_ZNKSt3_V214error_category10equivalentERKSt10error_codei
	.weak	_ZTVN4asio5error6detail14netdb_categoryE
	.section	.data.rel.ro._ZTVN4asio5error6detail14netdb_categoryE,"awG",@progbits,_ZTVN4asio5error6detail14netdb_categoryE,comdat
	.align 8
	.type	_ZTVN4asio5error6detail14netdb_categoryE, @object
	.size	_ZTVN4asio5error6detail14netdb_categoryE, 80
_ZTVN4asio5error6detail14netdb_categoryE:
	.quad	0
	.quad	_ZTIN4asio5error6detail14netdb_categoryE
	.quad	_ZN4asio5error6detail14netdb_categoryD1Ev
	.quad	_ZN4asio5error6detail14netdb_categoryD0Ev
	.quad	_ZNK4asio5error6detail14netdb_category4nameEv
	.quad	_ZNKSt3_V214error_category10_M_messageB5cxx11Ei
	.quad	_ZNK4asio5error6detail14netdb_category7messageB5cxx11Ei
	.quad	_ZNKSt3_V214error_category23default_error_conditionEi
	.quad	_ZNKSt3_V214error_category10equivalentEiRKSt15error_condition
	.quad	_ZNKSt3_V214error_category10equivalentERKSt10error_codei
	.weak	_ZTVN4asio5error6detail17addrinfo_categoryE
	.section	.data.rel.ro._ZTVN4asio5error6detail17addrinfo_categoryE,"awG",@progbits,_ZTVN4asio5error6detail17addrinfo_categoryE,comdat
	.align 8
	.type	_ZTVN4asio5error6detail17addrinfo_categoryE, @object
	.size	_ZTVN4asio5error6detail17addrinfo_categoryE, 80
_ZTVN4asio5error6detail17addrinfo_categoryE:
	.quad	0
	.quad	_ZTIN4asio5error6detail17addrinfo_categoryE
	.quad	_ZN4asio5error6detail17addrinfo_categoryD1Ev
	.quad	_ZN4asio5error6detail17addrinfo_categoryD0Ev
	.quad	_ZNK4asio5error6detail17addrinfo_category4nameEv
	.quad	_ZNKSt3_V214error_category10_M_messageB5cxx11Ei
	.quad	_ZNK4asio5error6detail17addrinfo_category7messageB5cxx11Ei
	.quad	_ZNKSt3_V214error_category23default_error_conditionEi
	.quad	_ZNKSt3_V214error_category10equivalentEiRKSt15error_condition
	.quad	_ZNKSt3_V214error_category10equivalentERKSt10error_codei
	.weak	_ZTVN4asio5error6detail13misc_categoryE
	.section	.data.rel.ro._ZTVN4asio5error6detail13misc_categoryE,"awG",@progbits,_ZTVN4asio5error6detail13misc_categoryE,comdat
	.align 8
	.type	_ZTVN4asio5error6detail13misc_categoryE, @object
	.size	_ZTVN4asio5error6detail13misc_categoryE, 80
_ZTVN4asio5error6detail13misc_categoryE:
	.quad	0
	.quad	_ZTIN4asio5error6detail13misc_categoryE
	.quad	_ZN4asio5error6detail13misc_categoryD1Ev
	.quad	_ZN4asio5error6detail13misc_categoryD0Ev
	.quad	_ZNK4asio5error6detail13misc_category4nameEv
	.quad	_ZNKSt3_V214error_category10_M_messageB5cxx11Ei
	.quad	_ZNK4asio5error6detail13misc_category7messageB5cxx11Ei
	.quad	_ZNKSt3_V214error_category23default_error_conditionEi
	.quad	_ZNKSt3_V214error_category10equivalentEiRKSt15error_condition
	.quad	_ZNKSt3_V214error_category10equivalentERKSt10error_codei
	.weak	_ZTVN4asio6detail13epoll_reactorE
	.section	.data.rel.ro._ZTVN4asio6detail13epoll_reactorE,"awG",@progbits,_ZTVN4asio6detail13epoll_reactorE,comdat
	.align 8
	.type	_ZTVN4asio6detail13epoll_reactorE, @object
	.size	_ZTVN4asio6detail13epoll_reactorE, 48
_ZTVN4asio6detail13epoll_reactorE:
	.quad	0
	.quad	_ZTIN4asio6detail13epoll_reactorE
	.quad	_ZN4asio6detail13epoll_reactorD1Ev
	.quad	_ZN4asio6detail13epoll_reactorD0Ev
	.quad	_ZN4asio6detail13epoll_reactor16shutdown_serviceEv
	.quad	_ZN4asio6detail13epoll_reactor12fork_serviceENS_10io_service10fork_eventE
	.weak	_ZTVN4asio6detail11timer_queueINS0_18chrono_time_traitsINSt6chrono3_V212steady_clockENS_11wait_traitsIS5_EEEEEE
	.section	.data.rel.ro._ZTVN4asio6detail11timer_queueINS0_18chrono_time_traitsINSt6chrono3_V212steady_clockENS_11wait_traitsIS5_EEEEEE,"awG",@progbits,_ZTVN4asio6detail11timer_queueINS0_18chrono_time_traitsINSt6chrono3_V212steady_clockENS_11wait_traitsIS5_EEEEEE,comdat
	.align 8
	.type	_ZTVN4asio6detail11timer_queueINS0_18chrono_time_traitsINSt6chrono3_V212steady_clockENS_11wait_traitsIS5_EEEEEE, @object
	.size	_ZTVN4asio6detail11timer_queueINS0_18chrono_time_traitsINSt6chrono3_V212steady_clockENS_11wait_traitsIS5_EEEEEE, 72
_ZTVN4asio6detail11timer_queueINS0_18chrono_time_traitsINSt6chrono3_V212steady_clockENS_11wait_traitsIS5_EEEEEE:
	.quad	0
	.quad	_ZTIN4asio6detail11timer_queueINS0_18chrono_time_traitsINSt6chrono3_V212steady_clockENS_11wait_traitsIS5_EEEEEE
	.quad	_ZN4asio6detail11timer_queueINS0_18chrono_time_traitsINSt6chrono3_V212steady_clockENS_11wait_traitsIS5_EEEEED1Ev
	.quad	_ZN4asio6detail11timer_queueINS0_18chrono_time_traitsINSt6chrono3_V212steady_clockENS_11wait_traitsIS5_EEEEED0Ev
	.quad	_ZNK4asio6detail11timer_queueINS0_18chrono_time_traitsINSt6chrono3_V212steady_clockENS_11wait_traitsIS5_EEEEE5emptyEv
	.quad	_ZNK4asio6detail11timer_queueINS0_18chrono_time_traitsINSt6chrono3_V212steady_clockENS_11wait_traitsIS5_EEEEE18wait_duration_msecEl
	.quad	_ZNK4asio6detail11timer_queueINS0_18chrono_time_traitsINSt6chrono3_V212steady_clockENS_11wait_traitsIS5_EEEEE18wait_duration_usecEl
	.quad	_ZN4asio6detail11timer_queueINS0_18chrono_time_traitsINSt6chrono3_V212steady_clockENS_11wait_traitsIS5_EEEEE16get_ready_timersERNS0_8op_queueINS0_25task_io_service_operationEEE
	.quad	_ZN4asio6detail11timer_queueINS0_18chrono_time_traitsINSt6chrono3_V212steady_clockENS_11wait_traitsIS5_EEEEE14get_all_timersERNS0_8op_queueINS0_25task_io_service_operationEEE
	.weak	_ZTVN4asio22waitable_timer_serviceINSt6chrono3_V212steady_clockENS_11wait_traitsIS3_EEEE
	.section	.data.rel.ro._ZTVN4asio22waitable_timer_serviceINSt6chrono3_V212steady_clockENS_11wait_traitsIS3_EEEE,"awG",@progbits,_ZTVN4asio22waitable_timer_serviceINSt6chrono3_V212steady_clockENS_11wait_traitsIS3_EEEE,comdat
	.align 8
	.type	_ZTVN4asio22waitable_timer_serviceINSt6chrono3_V212steady_clockENS_11wait_traitsIS3_EEEE, @object
	.size	_ZTVN4asio22waitable_timer_serviceINSt6chrono3_V212steady_clockENS_11wait_traitsIS3_EEEE, 48
_ZTVN4asio22waitable_timer_serviceINSt6chrono3_V212steady_clockENS_11wait_traitsIS3_EEEE:
	.quad	0
	.quad	_ZTIN4asio22waitable_timer_serviceINSt6chrono3_V212steady_clockENS_11wait_traitsIS3_EEEE
	.quad	_ZN4asio22waitable_timer_serviceINSt6chrono3_V212steady_clockENS_11wait_traitsIS3_EEED1Ev
	.quad	_ZN4asio22waitable_timer_serviceINSt6chrono3_V212steady_clockENS_11wait_traitsIS3_EEED0Ev
	.quad	_ZN4asio22waitable_timer_serviceINSt6chrono3_V212steady_clockENS_11wait_traitsIS3_EEE16shutdown_serviceEv
	.quad	_ZN4asio10io_service7service12fork_serviceENS0_10fork_eventE
	.weak	_ZTVN7asiopal5TimerE
	.section	.data.rel.ro._ZTVN7asiopal5TimerE,"awG",@progbits,_ZTVN7asiopal5TimerE,comdat
	.align 8
	.type	_ZTVN7asiopal5TimerE, @object
	.size	_ZTVN7asiopal5TimerE, 48
_ZTVN7asiopal5TimerE:
	.quad	0
	.quad	_ZTIN7asiopal5TimerE
	.quad	_ZN7asiopal5TimerD1Ev
	.quad	_ZN7asiopal5TimerD0Ev
	.quad	_ZN7asiopal5Timer6CancelEv
	.quad	_ZN7asiopal5Timer9ExpiresAtEv
	.weak	_ZGVZN4asio5error17get_misc_categoryEvE8instance
	.section	.bss._ZGVZN4asio5error17get_misc_categoryEvE8instance,"awG",@nobits,_ZGVZN4asio5error17get_misc_categoryEvE8instance,comdat
	.align 8
	.type	_ZGVZN4asio5error17get_misc_categoryEvE8instance, @gnu_unique_object
	.size	_ZGVZN4asio5error17get_misc_categoryEvE8instance, 8
_ZGVZN4asio5error17get_misc_categoryEvE8instance:
	.zero	8
	.weak	_ZZN4asio5error17get_misc_categoryEvE8instance
	.section	.data.rel._ZZN4asio5error17get_misc_categoryEvE8instance,"awG",@progbits,_ZZN4asio5error17get_misc_categoryEvE8instance,comdat
	.align 8
	.type	_ZZN4asio5error17get_misc_categoryEvE8instance, @gnu_unique_object
	.size	_ZZN4asio5error17get_misc_categoryEvE8instance, 8
_ZZN4asio5error17get_misc_categoryEvE8instance:
	.quad	_ZTVN4asio5error6detail13misc_categoryE+16
	.weak	_ZGVZN4asio5error21get_addrinfo_categoryEvE8instance
	.section	.bss._ZGVZN4asio5error21get_addrinfo_categoryEvE8instance,"awG",@nobits,_ZGVZN4asio5error21get_addrinfo_categoryEvE8instance,comdat
	.align 8
	.type	_ZGVZN4asio5error21get_addrinfo_categoryEvE8instance, @gnu_unique_object
	.size	_ZGVZN4asio5error21get_addrinfo_categoryEvE8instance, 8
_ZGVZN4asio5error21get_addrinfo_categoryEvE8instance:
	.zero	8
	.weak	_ZZN4asio5error21get_addrinfo_categoryEvE8instance
	.section	.data.rel._ZZN4asio5error21get_addrinfo_categoryEvE8instance,"awG",@progbits,_ZZN4asio5error21get_addrinfo_categoryEvE8instance,comdat
	.align 8
	.type	_ZZN4asio5error21get_addrinfo_categoryEvE8instance, @gnu_unique_object
	.size	_ZZN4asio5error21get_addrinfo_categoryEvE8instance, 8
_ZZN4asio5error21get_addrinfo_categoryEvE8instance:
	.quad	_ZTVN4asio5error6detail17addrinfo_categoryE+16
	.weak	_ZGVZN4asio5error18get_netdb_categoryEvE8instance
	.section	.bss._ZGVZN4asio5error18get_netdb_categoryEvE8instance,"awG",@nobits,_ZGVZN4asio5error18get_netdb_categoryEvE8instance,comdat
	.align 8
	.type	_ZGVZN4asio5error18get_netdb_categoryEvE8instance, @gnu_unique_object
	.size	_ZGVZN4asio5error18get_netdb_categoryEvE8instance, 8
_ZGVZN4asio5error18get_netdb_categoryEvE8instance:
	.zero	8
	.weak	_ZZN4asio5error18get_netdb_categoryEvE8instance
	.section	.data.rel._ZZN4asio5error18get_netdb_categoryEvE8instance,"awG",@progbits,_ZZN4asio5error18get_netdb_categoryEvE8instance,comdat
	.align 8
	.type	_ZZN4asio5error18get_netdb_categoryEvE8instance, @gnu_unique_object
	.size	_ZZN4asio5error18get_netdb_categoryEvE8instance, 8
_ZZN4asio5error18get_netdb_categoryEvE8instance:
	.quad	_ZTVN4asio5error6detail14netdb_categoryE+16
	.weak	_ZGVZN4asio15system_categoryEvE8instance
	.section	.bss._ZGVZN4asio15system_categoryEvE8instance,"awG",@nobits,_ZGVZN4asio15system_categoryEvE8instance,comdat
	.align 8
	.type	_ZGVZN4asio15system_categoryEvE8instance, @gnu_unique_object
	.size	_ZGVZN4asio15system_categoryEvE8instance, 8
_ZGVZN4asio15system_categoryEvE8instance:
	.zero	8
	.weak	_ZZN4asio15system_categoryEvE8instance
	.section	.data.rel._ZZN4asio15system_categoryEvE8instance,"awG",@progbits,_ZZN4asio15system_categoryEvE8instance,comdat
	.align 8
	.type	_ZZN4asio15system_categoryEvE8instance, @gnu_unique_object
	.size	_ZZN4asio15system_categoryEvE8instance, 8
_ZZN4asio15system_categoryEvE8instance:
	.quad	_ZTVN4asio6detail15system_categoryE+16
	.weak	_ZN4asio6detail15keyword_tss_ptrINS0_10call_stackINS0_15task_io_serviceENS0_27task_io_service_thread_infoEE7contextEE6value_E
	.section	.tbss._ZN4asio6detail15keyword_tss_ptrINS0_10call_stackINS0_15task_io_serviceENS0_27task_io_service_thread_infoEE7contextEE6value_E,"awTG",@nobits,_ZN4asio6detail15keyword_tss_ptrINS0_10call_stackINS0_15task_io_serviceENS0_27task_io_service_thread_infoEE7contextEE6value_E,comdat
	.align 8
	.type	_ZN4asio6detail15keyword_tss_ptrINS0_10call_stackINS0_15task_io_serviceENS0_27task_io_service_thread_infoEE7contextEE6value_E, @gnu_unique_object
	.size	_ZN4asio6detail15keyword_tss_ptrINS0_10call_stackINS0_15task_io_serviceENS0_27task_io_service_thread_infoEE7contextEE6value_E, 8
_ZN4asio6detail15keyword_tss_ptrINS0_10call_stackINS0_15task_io_serviceENS0_27task_io_service_thread_infoEE7contextEE6value_E:
	.zero	8
	.section	.rodata.cst16,"aM",@progbits,16
	.align 16
.LC5:
	.quad	8028075772644520015
	.quad	7310593917846626414
	.align 16
.LC6:
	.quad	2334381286471394643
	.quad	7959390400869068654
	.align 16
.LC7:
	.quad	8367816086596579155
	.quad	2338616625292734585
	.align 16
.LC8:
	.quad	7234013753529430881
	.quad	8243030355803531634
	.align 16
.LC9:
	.quad	2338615488418245701
	.quad	7959390400869068654
	.align 16
.LC10:
	.quad	7166182912791242836
	.quad	7214892426067994994
	.align 16
.LC11:
	.quad	2338616625293649263
	.quad	8031165433303558502
	.align 16
.LC12:
	.quad	7810775711721485344
	.quad	7812726531955123045
	.align 16
.LC13:
	.quad	8390045716486254408
	.quad	2891421386351273504
	.align 16
.LC14:
	.quad	7526769937477431150
	.quad	8532478930943832687
	.align 16
.LC15:
	.quad	2340027324477221221
	.quad	7020021577750243169
	.align 16
.LC16:
	.quad	8243123821706831956
	.quad	7809653110584451193
	.align 16
.LC17:
	.quad	2338623170819155049
	.quad	2338324160631043177
	.align 16
.LC18:
	.quad	7311138144931573614
	.quad	7019250824563089696
	.align 16
.LC19:
	.quad	7309955097514876993
	.quad	7809911847770287971
	.align 16
.LC20:
	.quad	2338053693894893669
	.quad	7234314212361855855
	.align 16
.LC21:
	.quad	2334956330985808928
	.quad	7310293695322153316
	.align 16
.LC22:
	.quad	8387231026764149601
	.quad	8245935278387126884
	.hidden	DW.ref.__gxx_personality_v0
	.weak	DW.ref.__gxx_personality_v0
	.section	.data.rel.local.DW.ref.__gxx_personality_v0,"awG",@progbits,DW.ref.__gxx_personality_v0,comdat
	.align 8
	.type	DW.ref.__gxx_personality_v0, @object
	.size	DW.ref.__gxx_personality_v0, 8
DW.ref.__gxx_personality_v0:
	.quad	__gxx_personality_v0
	.hidden	__dso_handle
	.ident	"GCC: (Ubuntu 7.5.0-3ubuntu1~18.04) 7.5.0"
	.section	.note.GNU-stack,"",@progbits
