	.file	"TransportStack.cpp"
	.text
	.section	.text._ZNSt23_Sp_counted_ptr_inplaceIN8opendnp39LinkLayerESaIS1_ELN9__gnu_cxx12_Lock_policyE2EED2Ev,"axG",@progbits,_ZNSt23_Sp_counted_ptr_inplaceIN8opendnp39LinkLayerESaIS1_ELN9__gnu_cxx12_Lock_policyE2EED5Ev,comdat
	.align 2
	.p2align 4,,15
	.weak	_ZNSt23_Sp_counted_ptr_inplaceIN8opendnp39LinkLayerESaIS1_ELN9__gnu_cxx12_Lock_policyE2EED2Ev
	.type	_ZNSt23_Sp_counted_ptr_inplaceIN8opendnp39LinkLayerESaIS1_ELN9__gnu_cxx12_Lock_policyE2EED2Ev, @function
_ZNSt23_Sp_counted_ptr_inplaceIN8opendnp39LinkLayerESaIS1_ELN9__gnu_cxx12_Lock_policyE2EED2Ev:
.LFB3111:
	.cfi_startproc
	rep ret
	.cfi_endproc
.LFE3111:
	.size	_ZNSt23_Sp_counted_ptr_inplaceIN8opendnp39LinkLayerESaIS1_ELN9__gnu_cxx12_Lock_policyE2EED2Ev, .-_ZNSt23_Sp_counted_ptr_inplaceIN8opendnp39LinkLayerESaIS1_ELN9__gnu_cxx12_Lock_policyE2EED2Ev
	.weak	_ZNSt23_Sp_counted_ptr_inplaceIN8opendnp39LinkLayerESaIS1_ELN9__gnu_cxx12_Lock_policyE2EED1Ev
	.set	_ZNSt23_Sp_counted_ptr_inplaceIN8opendnp39LinkLayerESaIS1_ELN9__gnu_cxx12_Lock_policyE2EED1Ev,_ZNSt23_Sp_counted_ptr_inplaceIN8opendnp39LinkLayerESaIS1_ELN9__gnu_cxx12_Lock_policyE2EED2Ev
	.section	.text._ZNSt23_Sp_counted_ptr_inplaceIN8opendnp314TransportLayerESaIS1_ELN9__gnu_cxx12_Lock_policyE2EED2Ev,"axG",@progbits,_ZNSt23_Sp_counted_ptr_inplaceIN8opendnp314TransportLayerESaIS1_ELN9__gnu_cxx12_Lock_policyE2EED5Ev,comdat
	.align 2
	.p2align 4,,15
	.weak	_ZNSt23_Sp_counted_ptr_inplaceIN8opendnp314TransportLayerESaIS1_ELN9__gnu_cxx12_Lock_policyE2EED2Ev
	.type	_ZNSt23_Sp_counted_ptr_inplaceIN8opendnp314TransportLayerESaIS1_ELN9__gnu_cxx12_Lock_policyE2EED2Ev, @function
_ZNSt23_Sp_counted_ptr_inplaceIN8opendnp314TransportLayerESaIS1_ELN9__gnu_cxx12_Lock_policyE2EED2Ev:
.LFB3118:
	.cfi_startproc
	rep ret
	.cfi_endproc
.LFE3118:
	.size	_ZNSt23_Sp_counted_ptr_inplaceIN8opendnp314TransportLayerESaIS1_ELN9__gnu_cxx12_Lock_policyE2EED2Ev, .-_ZNSt23_Sp_counted_ptr_inplaceIN8opendnp314TransportLayerESaIS1_ELN9__gnu_cxx12_Lock_policyE2EED2Ev
	.weak	_ZNSt23_Sp_counted_ptr_inplaceIN8opendnp314TransportLayerESaIS1_ELN9__gnu_cxx12_Lock_policyE2EED1Ev
	.set	_ZNSt23_Sp_counted_ptr_inplaceIN8opendnp314TransportLayerESaIS1_ELN9__gnu_cxx12_Lock_policyE2EED1Ev,_ZNSt23_Sp_counted_ptr_inplaceIN8opendnp314TransportLayerESaIS1_ELN9__gnu_cxx12_Lock_policyE2EED2Ev
	.section	.text._ZNSt23_Sp_counted_ptr_inplaceIN8opendnp314TransportLayerESaIS1_ELN9__gnu_cxx12_Lock_policyE2EE10_M_disposeEv,"axG",@progbits,_ZNSt23_Sp_counted_ptr_inplaceIN8opendnp314TransportLayerESaIS1_ELN9__gnu_cxx12_Lock_policyE2EE10_M_disposeEv,comdat
	.align 2
	.p2align 4,,15
	.weak	_ZNSt23_Sp_counted_ptr_inplaceIN8opendnp314TransportLayerESaIS1_ELN9__gnu_cxx12_Lock_policyE2EE10_M_disposeEv
	.type	_ZNSt23_Sp_counted_ptr_inplaceIN8opendnp314TransportLayerESaIS1_ELN9__gnu_cxx12_Lock_policyE2EE10_M_disposeEv, @function
_ZNSt23_Sp_counted_ptr_inplaceIN8opendnp314TransportLayerESaIS1_ELN9__gnu_cxx12_Lock_policyE2EE10_M_disposeEv:
.LFB3121:
	.cfi_startproc
	movq	%rdi, %rax
	leaq	16(%rdi), %rdi
	movq	16(%rax), %rax
	jmp	*(%rax)
	.cfi_endproc
.LFE3121:
	.size	_ZNSt23_Sp_counted_ptr_inplaceIN8opendnp314TransportLayerESaIS1_ELN9__gnu_cxx12_Lock_policyE2EE10_M_disposeEv, .-_ZNSt23_Sp_counted_ptr_inplaceIN8opendnp314TransportLayerESaIS1_ELN9__gnu_cxx12_Lock_policyE2EE10_M_disposeEv
	.section	.text._ZNSt23_Sp_counted_ptr_inplaceIN8opendnp314TransportLayerESaIS1_ELN9__gnu_cxx12_Lock_policyE2EE14_M_get_deleterERKSt9type_info,"axG",@progbits,_ZNSt23_Sp_counted_ptr_inplaceIN8opendnp314TransportLayerESaIS1_ELN9__gnu_cxx12_Lock_policyE2EE14_M_get_deleterERKSt9type_info,comdat
	.align 2
	.p2align 4,,15
	.weak	_ZNSt23_Sp_counted_ptr_inplaceIN8opendnp314TransportLayerESaIS1_ELN9__gnu_cxx12_Lock_policyE2EE14_M_get_deleterERKSt9type_info
	.type	_ZNSt23_Sp_counted_ptr_inplaceIN8opendnp314TransportLayerESaIS1_ELN9__gnu_cxx12_Lock_policyE2EE14_M_get_deleterERKSt9type_info, @function
_ZNSt23_Sp_counted_ptr_inplaceIN8opendnp314TransportLayerESaIS1_ELN9__gnu_cxx12_Lock_policyE2EE14_M_get_deleterERKSt9type_info:
.LFB3123:
	.cfi_startproc
	pushq	%rbx
	.cfi_def_cfa_offset 16
	.cfi_offset 3, -16
	movq	%rdi, %rbx
	movq	8(%rsi), %rdi
	movq	_ZTSSt19_Sp_make_shared_tag@GOTPCREL(%rip), %rsi
	cmpq	%rsi, %rdi
	je	.L6
	cmpb	$42, (%rdi)
	je	.L9
	call	strcmp@PLT
	testl	%eax, %eax
	jne	.L9
.L6:
	leaq	16(%rbx), %rax
	popq	%rbx
	.cfi_remember_state
	.cfi_def_cfa_offset 8
	ret
	.p2align 4,,10
	.p2align 3
.L9:
	.cfi_restore_state
	xorl	%eax, %eax
	popq	%rbx
	.cfi_def_cfa_offset 8
	ret
	.cfi_endproc
.LFE3123:
	.size	_ZNSt23_Sp_counted_ptr_inplaceIN8opendnp314TransportLayerESaIS1_ELN9__gnu_cxx12_Lock_policyE2EE14_M_get_deleterERKSt9type_info, .-_ZNSt23_Sp_counted_ptr_inplaceIN8opendnp314TransportLayerESaIS1_ELN9__gnu_cxx12_Lock_policyE2EE14_M_get_deleterERKSt9type_info
	.section	.text._ZNSt23_Sp_counted_ptr_inplaceIN8opendnp39LinkLayerESaIS1_ELN9__gnu_cxx12_Lock_policyE2EE14_M_get_deleterERKSt9type_info,"axG",@progbits,_ZNSt23_Sp_counted_ptr_inplaceIN8opendnp39LinkLayerESaIS1_ELN9__gnu_cxx12_Lock_policyE2EE14_M_get_deleterERKSt9type_info,comdat
	.align 2
	.p2align 4,,15
	.weak	_ZNSt23_Sp_counted_ptr_inplaceIN8opendnp39LinkLayerESaIS1_ELN9__gnu_cxx12_Lock_policyE2EE14_M_get_deleterERKSt9type_info
	.type	_ZNSt23_Sp_counted_ptr_inplaceIN8opendnp39LinkLayerESaIS1_ELN9__gnu_cxx12_Lock_policyE2EE14_M_get_deleterERKSt9type_info, @function
_ZNSt23_Sp_counted_ptr_inplaceIN8opendnp39LinkLayerESaIS1_ELN9__gnu_cxx12_Lock_policyE2EE14_M_get_deleterERKSt9type_info:
.LFB3116:
	.cfi_startproc
	pushq	%rbx
	.cfi_def_cfa_offset 16
	.cfi_offset 3, -16
	movq	%rdi, %rbx
	movq	8(%rsi), %rdi
	movq	_ZTSSt19_Sp_make_shared_tag@GOTPCREL(%rip), %rsi
	cmpq	%rsi, %rdi
	je	.L12
	cmpb	$42, (%rdi)
	je	.L15
	call	strcmp@PLT
	testl	%eax, %eax
	jne	.L15
.L12:
	leaq	16(%rbx), %rax
	popq	%rbx
	.cfi_remember_state
	.cfi_def_cfa_offset 8
	ret
	.p2align 4,,10
	.p2align 3
.L15:
	.cfi_restore_state
	xorl	%eax, %eax
	popq	%rbx
	.cfi_def_cfa_offset 8
	ret
	.cfi_endproc
.LFE3116:
	.size	_ZNSt23_Sp_counted_ptr_inplaceIN8opendnp39LinkLayerESaIS1_ELN9__gnu_cxx12_Lock_policyE2EE14_M_get_deleterERKSt9type_info, .-_ZNSt23_Sp_counted_ptr_inplaceIN8opendnp39LinkLayerESaIS1_ELN9__gnu_cxx12_Lock_policyE2EE14_M_get_deleterERKSt9type_info
	.section	.text._ZNSt23_Sp_counted_ptr_inplaceIN8opendnp314TransportLayerESaIS1_ELN9__gnu_cxx12_Lock_policyE2EED0Ev,"axG",@progbits,_ZNSt23_Sp_counted_ptr_inplaceIN8opendnp314TransportLayerESaIS1_ELN9__gnu_cxx12_Lock_policyE2EED5Ev,comdat
	.align 2
	.p2align 4,,15
	.weak	_ZNSt23_Sp_counted_ptr_inplaceIN8opendnp314TransportLayerESaIS1_ELN9__gnu_cxx12_Lock_policyE2EED0Ev
	.type	_ZNSt23_Sp_counted_ptr_inplaceIN8opendnp314TransportLayerESaIS1_ELN9__gnu_cxx12_Lock_policyE2EED0Ev, @function
_ZNSt23_Sp_counted_ptr_inplaceIN8opendnp314TransportLayerESaIS1_ELN9__gnu_cxx12_Lock_policyE2EED0Ev:
.LFB3120:
	.cfi_startproc
	movl	$536, %esi
	jmp	_ZdlPvm@PLT
	.cfi_endproc
.LFE3120:
	.size	_ZNSt23_Sp_counted_ptr_inplaceIN8opendnp314TransportLayerESaIS1_ELN9__gnu_cxx12_Lock_policyE2EED0Ev, .-_ZNSt23_Sp_counted_ptr_inplaceIN8opendnp314TransportLayerESaIS1_ELN9__gnu_cxx12_Lock_policyE2EED0Ev
	.section	.text._ZNSt23_Sp_counted_ptr_inplaceIN8opendnp39LinkLayerESaIS1_ELN9__gnu_cxx12_Lock_policyE2EED0Ev,"axG",@progbits,_ZNSt23_Sp_counted_ptr_inplaceIN8opendnp39LinkLayerESaIS1_ELN9__gnu_cxx12_Lock_policyE2EED5Ev,comdat
	.align 2
	.p2align 4,,15
	.weak	_ZNSt23_Sp_counted_ptr_inplaceIN8opendnp39LinkLayerESaIS1_ELN9__gnu_cxx12_Lock_policyE2EED0Ev
	.type	_ZNSt23_Sp_counted_ptr_inplaceIN8opendnp39LinkLayerESaIS1_ELN9__gnu_cxx12_Lock_policyE2EED0Ev, @function
_ZNSt23_Sp_counted_ptr_inplaceIN8opendnp39LinkLayerESaIS1_ELN9__gnu_cxx12_Lock_policyE2EED0Ev:
.LFB3113:
	.cfi_startproc
	movl	$632, %esi
	jmp	_ZdlPvm@PLT
	.cfi_endproc
.LFE3113:
	.size	_ZNSt23_Sp_counted_ptr_inplaceIN8opendnp39LinkLayerESaIS1_ELN9__gnu_cxx12_Lock_policyE2EED0Ev, .-_ZNSt23_Sp_counted_ptr_inplaceIN8opendnp39LinkLayerESaIS1_ELN9__gnu_cxx12_Lock_policyE2EED0Ev
	.section	.text._ZNSt23_Sp_counted_ptr_inplaceIN8opendnp39LinkLayerESaIS1_ELN9__gnu_cxx12_Lock_policyE2EE10_M_destroyEv,"axG",@progbits,_ZNSt23_Sp_counted_ptr_inplaceIN8opendnp39LinkLayerESaIS1_ELN9__gnu_cxx12_Lock_policyE2EE10_M_destroyEv,comdat
	.align 2
	.p2align 4,,15
	.weak	_ZNSt23_Sp_counted_ptr_inplaceIN8opendnp39LinkLayerESaIS1_ELN9__gnu_cxx12_Lock_policyE2EE10_M_destroyEv
	.type	_ZNSt23_Sp_counted_ptr_inplaceIN8opendnp39LinkLayerESaIS1_ELN9__gnu_cxx12_Lock_policyE2EE10_M_destroyEv, @function
_ZNSt23_Sp_counted_ptr_inplaceIN8opendnp39LinkLayerESaIS1_ELN9__gnu_cxx12_Lock_policyE2EE10_M_destroyEv:
.LFB3115:
	.cfi_startproc
	jmp	_ZdlPv@PLT
	.cfi_endproc
.LFE3115:
	.size	_ZNSt23_Sp_counted_ptr_inplaceIN8opendnp39LinkLayerESaIS1_ELN9__gnu_cxx12_Lock_policyE2EE10_M_destroyEv, .-_ZNSt23_Sp_counted_ptr_inplaceIN8opendnp39LinkLayerESaIS1_ELN9__gnu_cxx12_Lock_policyE2EE10_M_destroyEv
	.section	.text._ZNSt23_Sp_counted_ptr_inplaceIN8opendnp314TransportLayerESaIS1_ELN9__gnu_cxx12_Lock_policyE2EE10_M_destroyEv,"axG",@progbits,_ZNSt23_Sp_counted_ptr_inplaceIN8opendnp314TransportLayerESaIS1_ELN9__gnu_cxx12_Lock_policyE2EE10_M_destroyEv,comdat
	.align 2
	.p2align 4,,15
	.weak	_ZNSt23_Sp_counted_ptr_inplaceIN8opendnp314TransportLayerESaIS1_ELN9__gnu_cxx12_Lock_policyE2EE10_M_destroyEv
	.type	_ZNSt23_Sp_counted_ptr_inplaceIN8opendnp314TransportLayerESaIS1_ELN9__gnu_cxx12_Lock_policyE2EE10_M_destroyEv, @function
_ZNSt23_Sp_counted_ptr_inplaceIN8opendnp314TransportLayerESaIS1_ELN9__gnu_cxx12_Lock_policyE2EE10_M_destroyEv:
.LFB3122:
	.cfi_startproc
	jmp	_ZdlPv@PLT
	.cfi_endproc
.LFE3122:
	.size	_ZNSt23_Sp_counted_ptr_inplaceIN8opendnp314TransportLayerESaIS1_ELN9__gnu_cxx12_Lock_policyE2EE10_M_destroyEv, .-_ZNSt23_Sp_counted_ptr_inplaceIN8opendnp314TransportLayerESaIS1_ELN9__gnu_cxx12_Lock_policyE2EE10_M_destroyEv
	.section	.text._ZNSt23_Sp_counted_ptr_inplaceIN8opendnp39LinkLayerESaIS1_ELN9__gnu_cxx12_Lock_policyE2EE10_M_disposeEv,"axG",@progbits,_ZNSt23_Sp_counted_ptr_inplaceIN8opendnp39LinkLayerESaIS1_ELN9__gnu_cxx12_Lock_policyE2EE10_M_disposeEv,comdat
	.align 2
	.p2align 4,,15
	.weak	_ZNSt23_Sp_counted_ptr_inplaceIN8opendnp39LinkLayerESaIS1_ELN9__gnu_cxx12_Lock_policyE2EE10_M_disposeEv
	.type	_ZNSt23_Sp_counted_ptr_inplaceIN8opendnp39LinkLayerESaIS1_ELN9__gnu_cxx12_Lock_policyE2EE10_M_disposeEv, @function
_ZNSt23_Sp_counted_ptr_inplaceIN8opendnp39LinkLayerESaIS1_ELN9__gnu_cxx12_Lock_policyE2EE10_M_disposeEv:
.LFB3114:
	.cfi_startproc
	pushq	%rbp
	.cfi_def_cfa_offset 16
	.cfi_offset 6, -16
	pushq	%rbx
	.cfi_def_cfa_offset 24
	.cfi_offset 3, -24
	movq	%rdi, %rbx
	subq	$8, %rsp
	.cfi_def_cfa_offset 32
	movq	_ZTVN8opendnp39LinkLayerE@GOTPCREL(%rip), %rax
	movq	616(%rdi), %rbp
	leaq	16(%rax), %rdx
	addq	$88, %rax
	testq	%rbp, %rbp
	movq	%rax, 24(%rdi)
	movq	%rdx, 16(%rdi)
	je	.L23
	cmpq	$0, _ZL28__gthrw___pthread_key_createPjPFvPvE@GOTPCREL(%rip)
	je	.L24
	lock subl	$1, 8(%rbp)
	je	.L58
.L23:
	movq	600(%rbx), %rbp
	testq	%rbp, %rbp
	je	.L29
	cmpq	$0, _ZL28__gthrw___pthread_key_createPjPFvPvE@GOTPCREL(%rip)
	je	.L30
	lock subl	$1, 8(%rbp)
	je	.L59
.L29:
	leaq	520(%rbx), %rdi
	call	_ZN7openpal8TimerRefD1Ev@PLT
	leaq	504(%rbx), %rdi
	call	_ZN7openpal8TimerRefD1Ev@PLT
	movq	496(%rbx), %rbp
	testq	%rbp, %rbp
	je	.L35
	cmpq	$0, _ZL28__gthrw___pthread_key_createPjPFvPvE@GOTPCREL(%rip)
	je	.L36
	lock subl	$1, 8(%rbp)
	je	.L60
.L35:
	movq	432(%rbx), %rbp
	testq	%rbp, %rbp
	je	.L41
	cmpq	$0, _ZL28__gthrw___pthread_key_createPjPFvPvE@GOTPCREL(%rip)
	je	.L42
	lock subl	$1, 8(%rbp)
	je	.L61
.L41:
	movq	416(%rbx), %rbx
	testq	%rbx, %rbx
	je	.L21
	cmpq	$0, _ZL28__gthrw___pthread_key_createPjPFvPvE@GOTPCREL(%rip)
	je	.L48
	lock subl	$1, 8(%rbx)
	je	.L62
.L21:
	addq	$8, %rsp
	.cfi_remember_state
	.cfi_def_cfa_offset 24
	popq	%rbx
	.cfi_def_cfa_offset 16
	popq	%rbp
	.cfi_def_cfa_offset 8
	ret
	.p2align 4,,10
	.p2align 3
.L48:
	.cfi_restore_state
	movl	8(%rbx), %eax
	leal	-1(%rax), %edx
	cmpl	$1, %eax
	movl	%edx, 8(%rbx)
	jne	.L21
	movq	(%rbx), %rax
	movq	%rbx, %rdi
	call	*16(%rax)
	movl	12(%rbx), %eax
	leal	-1(%rax), %edx
	movl	%edx, 12(%rbx)
	jmp	.L56
	.p2align 4,,10
	.p2align 3
.L36:
	movl	8(%rbp), %eax
	leal	-1(%rax), %edx
	cmpl	$1, %eax
	movl	%edx, 8(%rbp)
	jne	.L35
	movq	0(%rbp), %rax
	movq	%rbp, %rdi
	call	*16(%rax)
	movl	12(%rbp), %eax
	leal	-1(%rax), %edx
	movl	%edx, 12(%rbp)
	jmp	.L54
	.p2align 4,,10
	.p2align 3
.L24:
	movl	8(%rbp), %eax
	leal	-1(%rax), %edx
	cmpl	$1, %eax
	movl	%edx, 8(%rbp)
	jne	.L23
	movq	0(%rbp), %rax
	movq	%rbp, %rdi
	call	*16(%rax)
	movl	12(%rbp), %eax
	leal	-1(%rax), %edx
	movl	%edx, 12(%rbp)
	jmp	.L52
	.p2align 4,,10
	.p2align 3
.L42:
	movl	8(%rbp), %eax
	leal	-1(%rax), %edx
	cmpl	$1, %eax
	movl	%edx, 8(%rbp)
	jne	.L41
	movq	0(%rbp), %rax
	movq	%rbp, %rdi
	call	*16(%rax)
	movl	12(%rbp), %eax
	leal	-1(%rax), %edx
	movl	%edx, 12(%rbp)
	jmp	.L55
	.p2align 4,,10
	.p2align 3
.L30:
	movl	8(%rbp), %eax
	leal	-1(%rax), %edx
	cmpl	$1, %eax
	movl	%edx, 8(%rbp)
	jne	.L29
	movq	0(%rbp), %rax
	movq	%rbp, %rdi
	call	*16(%rax)
	movl	12(%rbp), %eax
	leal	-1(%rax), %edx
	movl	%edx, 12(%rbp)
	jmp	.L53
	.p2align 4,,10
	.p2align 3
.L60:
	movq	0(%rbp), %rax
	movq	%rbp, %rdi
	call	*16(%rax)
	movl	$-1, %eax
	lock xaddl	%eax, 12(%rbp)
.L54:
	cmpl	$1, %eax
	jne	.L35
	movq	0(%rbp), %rax
	movq	%rbp, %rdi
	call	*24(%rax)
	jmp	.L35
	.p2align 4,,10
	.p2align 3
.L62:
	movq	(%rbx), %rax
	movq	%rbx, %rdi
	call	*16(%rax)
	movl	$-1, %eax
	lock xaddl	%eax, 12(%rbx)
.L56:
	cmpl	$1, %eax
	jne	.L21
	movq	(%rbx), %rax
	movq	%rbx, %rdi
	movq	24(%rax), %rax
	addq	$8, %rsp
	.cfi_remember_state
	.cfi_def_cfa_offset 24
	popq	%rbx
	.cfi_def_cfa_offset 16
	popq	%rbp
	.cfi_def_cfa_offset 8
	jmp	*%rax
	.p2align 4,,10
	.p2align 3
.L58:
	.cfi_restore_state
	movq	0(%rbp), %rax
	movq	%rbp, %rdi
	call	*16(%rax)
	movl	$-1, %eax
	lock xaddl	%eax, 12(%rbp)
.L52:
	cmpl	$1, %eax
	jne	.L23
	movq	0(%rbp), %rax
	movq	%rbp, %rdi
	call	*24(%rax)
	jmp	.L23
	.p2align 4,,10
	.p2align 3
.L59:
	movq	0(%rbp), %rax
	movq	%rbp, %rdi
	call	*16(%rax)
	movl	$-1, %eax
	lock xaddl	%eax, 12(%rbp)
.L53:
	cmpl	$1, %eax
	jne	.L29
	movq	0(%rbp), %rax
	movq	%rbp, %rdi
	call	*24(%rax)
	jmp	.L29
	.p2align 4,,10
	.p2align 3
.L61:
	movq	0(%rbp), %rax
	movq	%rbp, %rdi
	call	*16(%rax)
	movl	$-1, %eax
	lock xaddl	%eax, 12(%rbp)
.L55:
	cmpl	$1, %eax
	jne	.L41
	movq	0(%rbp), %rax
	movq	%rbp, %rdi
	call	*24(%rax)
	jmp	.L41
	.cfi_endproc
.LFE3114:
	.size	_ZNSt23_Sp_counted_ptr_inplaceIN8opendnp39LinkLayerESaIS1_ELN9__gnu_cxx12_Lock_policyE2EE10_M_disposeEv, .-_ZNSt23_Sp_counted_ptr_inplaceIN8opendnp39LinkLayerESaIS1_ELN9__gnu_cxx12_Lock_policyE2EE10_M_disposeEv
	.section	.text._ZNSt16_Sp_counted_baseILN9__gnu_cxx12_Lock_policyE2EE10_M_releaseEv,"axG",@progbits,_ZNSt16_Sp_counted_baseILN9__gnu_cxx12_Lock_policyE2EE10_M_releaseEv,comdat
	.align 2
	.p2align 4,,15
	.weak	_ZNSt16_Sp_counted_baseILN9__gnu_cxx12_Lock_policyE2EE10_M_releaseEv
	.type	_ZNSt16_Sp_counted_baseILN9__gnu_cxx12_Lock_policyE2EE10_M_releaseEv, @function
_ZNSt16_Sp_counted_baseILN9__gnu_cxx12_Lock_policyE2EE10_M_releaseEv:
.LFB2659:
	.cfi_startproc
	cmpq	$0, _ZL28__gthrw___pthread_key_createPjPFvPvE@GOTPCREL(%rip)
	pushq	%rbx
	.cfi_def_cfa_offset 16
	.cfi_offset 3, -16
	movq	%rdi, %rbx
	je	.L64
	lock subl	$1, 8(%rdi)
	je	.L71
.L63:
	popq	%rbx
	.cfi_remember_state
	.cfi_def_cfa_offset 8
	ret
	.p2align 4,,10
	.p2align 3
.L64:
	.cfi_restore_state
	movl	8(%rdi), %eax
	leal	-1(%rax), %edx
	cmpl	$1, %eax
	movl	%edx, 8(%rdi)
	jne	.L63
	movq	(%rdi), %rax
	call	*16(%rax)
	movl	12(%rbx), %eax
	leal	-1(%rax), %edx
	movl	%edx, 12(%rbx)
	jmp	.L69
	.p2align 4,,10
	.p2align 3
.L71:
	movq	(%rdi), %rax
	call	*16(%rax)
	movl	$-1, %eax
	lock xaddl	%eax, 12(%rbx)
.L69:
	cmpl	$1, %eax
	jne	.L63
	movq	(%rbx), %rax
	movq	%rbx, %rdi
	popq	%rbx
	.cfi_def_cfa_offset 8
	movq	24(%rax), %rax
	jmp	*%rax
	.cfi_endproc
.LFE2659:
	.size	_ZNSt16_Sp_counted_baseILN9__gnu_cxx12_Lock_policyE2EE10_M_releaseEv, .-_ZNSt16_Sp_counted_baseILN9__gnu_cxx12_Lock_policyE2EE10_M_releaseEv
	.text
	.align 2
	.p2align 4,,15
	.globl	_ZN8opendnp314TransportStackC2ERKN7openpal6LoggerERKSt10shared_ptrINS1_9IExecutorEERKS5_INS_13ILinkListenerEEjRKNS_10LinkConfigE
	.type	_ZN8opendnp314TransportStackC2ERKN7openpal6LoggerERKSt10shared_ptrINS1_9IExecutorEERKS5_INS_13ILinkListenerEEjRKNS_10LinkConfigE, @function
_ZN8opendnp314TransportStackC2ERKN7openpal6LoggerERKSt10shared_ptrINS1_9IExecutorEERKS5_INS_13ILinkListenerEEjRKNS_10LinkConfigE:
.LFB2265:
	.cfi_startproc
	.cfi_personality 0x9b,DW.ref.__gxx_personality_v0
	.cfi_lsda 0x1b,.LLSDA2265
	pushq	%r15
	.cfi_def_cfa_offset 16
	.cfi_offset 15, -16
	pushq	%r14
	.cfi_def_cfa_offset 24
	.cfi_offset 14, -24
	movq	%r9, %r15
	pushq	%r13
	.cfi_def_cfa_offset 32
	.cfi_offset 13, -32
	pushq	%r12
	.cfi_def_cfa_offset 40
	.cfi_offset 12, -40
	movq	%rdx, %r13
	pushq	%rbp
	.cfi_def_cfa_offset 48
	.cfi_offset 6, -48
	pushq	%rbx
	.cfi_def_cfa_offset 56
	.cfi_offset 3, -56
	movq	%rdi, %rbx
	movq	%rsi, %r12
	movq	%rcx, %r14
	subq	$56, %rsp
	.cfi_def_cfa_offset 112
	movq	$0, (%rdi)
	movq	$0, 8(%rdi)
	movl	$536, %edi
	movl	%r8d, 12(%rsp)
	movq	%fs:40, %rax
	movq	%rax, 40(%rsp)
	xorl	%eax, %eax
.LEHB0:
	call	_Znwm@PLT
.LEHE0:
	movq	%rax, %rbp
	movabsq	$4294967297, %rax
	movl	12(%rsp), %r8d
	movq	%rax, 8(%rbp)
	movq	_ZTVSt23_Sp_counted_ptr_inplaceIN8opendnp314TransportLayerESaIS1_ELN9__gnu_cxx12_Lock_policyE2EE@GOTPCREL(%rip), %rax
	leaq	16(%rbp), %rdi
	movq	%r12, %rsi
	movl	%r8d, %edx
	addq	$16, %rax
	movq	%rax, 0(%rbp)
.LEHB1:
	call	_ZN8opendnp314TransportLayerC1ERKN7openpal6LoggerEj@PLT
.LEHE1:
	movq	0(%rbp), %rax
	movq	%rbp, %rdi
	movq	%rbp, 8(%rbx)
	movq	_ZTISt19_Sp_make_shared_tag@GOTPCREL(%rip), %rsi
	call	*32(%rax)
	movq	$0, 16(%rbx)
	movq	%rax, (%rbx)
	movl	$632, %edi
	movq	$0, 24(%rbx)
.LEHB2:
	call	_Znwm@PLT
.LEHE2:
	movq	%rax, %rbp
	movabsq	$4294967297, %rax
	movq	%rax, 8(%rbp)
	movq	_ZTVSt23_Sp_counted_ptr_inplaceIN8opendnp39LinkLayerESaIS1_ELN9__gnu_cxx12_Lock_policyE2EE@GOTPCREL(%rip), %rax
	leaq	16(%rbp), %rdi
	addq	$16, %rax
	movq	%rax, 0(%rbp)
	movq	(%rbx), %rax
	movq	%rax, 16(%rsp)
	movq	8(%rbx), %rax
	testq	%rax, %rax
	movq	%rax, 24(%rsp)
	je	.L75
	cmpq	$0, _ZL28__gthrw___pthread_key_createPjPFvPvE@GOTPCREL(%rip)
	jne	.L115
	addl	$1, 8(%rax)
.L75:
	leaq	16(%rsp), %rcx
	movq	%r15, %r9
	movq	%r14, %r8
	movq	%r13, %rdx
	movq	%r12, %rsi
.LEHB3:
	call	_ZN8opendnp39LinkLayerC1ERKN7openpal6LoggerERKSt10shared_ptrINS1_9IExecutorEERKS5_INS_11IUpperLayerEERKS5_INS_13ILinkListenerEERKNS_10LinkConfigE@PLT
.LEHE3:
	movq	24(%rsp), %r12
	testq	%r12, %r12
	je	.L81
	cmpq	$0, _ZL28__gthrw___pthread_key_createPjPFvPvE@GOTPCREL(%rip)
	je	.L78
	lock subl	$1, 8(%r12)
	je	.L116
.L81:
	movq	0(%rbp), %rax
	movq	_ZTISt19_Sp_make_shared_tag@GOTPCREL(%rip), %rsi
	movq	%rbp, %rdi
	movq	%rbp, 24(%rbx)
	call	*32(%rax)
	movq	(%rbx), %rdi
	movq	%rax, 16(%rbx)
	movq	%rax, %rsi
.LEHB4:
	call	_ZN8opendnp314TransportLayer12SetLinkLayerERNS_10ILinkLayerE@PLT
.LEHE4:
	movq	40(%rsp), %rax
	xorq	%fs:40, %rax
	jne	.L117
	addq	$56, %rsp
	.cfi_remember_state
	.cfi_def_cfa_offset 56
	popq	%rbx
	.cfi_def_cfa_offset 48
	popq	%rbp
	.cfi_def_cfa_offset 40
	popq	%r12
	.cfi_def_cfa_offset 32
	popq	%r13
	.cfi_def_cfa_offset 24
	popq	%r14
	.cfi_def_cfa_offset 16
	popq	%r15
	.cfi_def_cfa_offset 8
	ret
	.p2align 4,,10
	.p2align 3
.L115:
	.cfi_restore_state
	lock addl	$1, 8(%rax)
	jmp	.L75
	.p2align 4,,10
	.p2align 3
.L78:
	movl	8(%r12), %eax
	leal	-1(%rax), %edx
	cmpl	$1, %eax
	movl	%edx, 8(%r12)
	jne	.L81
	movq	(%r12), %rax
	movq	%r12, %rdi
	call	*16(%rax)
	movl	12(%r12), %eax
	leal	-1(%rax), %edx
	movl	%edx, 12(%r12)
	jmp	.L90
	.p2align 4,,10
	.p2align 3
.L116:
	movq	(%r12), %rax
	movq	%r12, %rdi
	call	*16(%rax)
	movl	$-1, %eax
	lock xaddl	%eax, 12(%r12)
.L90:
	cmpl	$1, %eax
	jne	.L81
	movq	(%r12), %rax
	movq	%r12, %rdi
	call	*24(%rax)
	jmp	.L81
.L117:
	call	__stack_chk_fail@PLT
.L93:
	movq	24(%rbx), %rdi
	movq	%rax, %rbp
	testq	%rdi, %rdi
	je	.L84
	call	_ZNSt16_Sp_counted_baseILN9__gnu_cxx12_Lock_policyE2EE10_M_releaseEv@PLT
.L84:
	movq	8(%rbx), %rdi
	testq	%rdi, %rdi
	je	.L87
	call	_ZNSt16_Sp_counted_baseILN9__gnu_cxx12_Lock_policyE2EE10_M_releaseEv@PLT
.L87:
	movq	%rbp, %rdi
.LEHB5:
	call	_Unwind_Resume@PLT
.L94:
	movq	%rax, %rbx
	movq	%rbp, %rdi
	call	_ZdlPv@PLT
	movq	%rbx, %rdi
	call	_Unwind_Resume@PLT
.LEHE5:
.L92:
	movq	%rax, %rbp
	jmp	.L84
.L95:
	movq	24(%rsp), %rdi
	movq	%rax, %r12
	testq	%rdi, %rdi
	je	.L83
	call	_ZNSt16_Sp_counted_baseILN9__gnu_cxx12_Lock_policyE2EE10_M_releaseEv@PLT
.L83:
	movq	%rbp, %rdi
	movq	%r12, %rbp
	call	_ZdlPv@PLT
	jmp	.L84
	.cfi_endproc
.LFE2265:
	.globl	__gxx_personality_v0
	.section	.gcc_except_table,"a",@progbits
.LLSDA2265:
	.byte	0xff
	.byte	0xff
	.byte	0x1
	.uleb128 .LLSDACSE2265-.LLSDACSB2265
.LLSDACSB2265:
	.uleb128 .LEHB0-.LFB2265
	.uleb128 .LEHE0-.LEHB0
	.uleb128 0
	.uleb128 0
	.uleb128 .LEHB1-.LFB2265
	.uleb128 .LEHE1-.LEHB1
	.uleb128 .L94-.LFB2265
	.uleb128 0
	.uleb128 .LEHB2-.LFB2265
	.uleb128 .LEHE2-.LEHB2
	.uleb128 .L92-.LFB2265
	.uleb128 0
	.uleb128 .LEHB3-.LFB2265
	.uleb128 .LEHE3-.LEHB3
	.uleb128 .L95-.LFB2265
	.uleb128 0
	.uleb128 .LEHB4-.LFB2265
	.uleb128 .LEHE4-.LEHB4
	.uleb128 .L93-.LFB2265
	.uleb128 0
	.uleb128 .LEHB5-.LFB2265
	.uleb128 .LEHE5-.LEHB5
	.uleb128 0
	.uleb128 0
.LLSDACSE2265:
	.text
	.size	_ZN8opendnp314TransportStackC2ERKN7openpal6LoggerERKSt10shared_ptrINS1_9IExecutorEERKS5_INS_13ILinkListenerEEjRKNS_10LinkConfigE, .-_ZN8opendnp314TransportStackC2ERKN7openpal6LoggerERKSt10shared_ptrINS1_9IExecutorEERKS5_INS_13ILinkListenerEEjRKNS_10LinkConfigE
	.globl	_ZN8opendnp314TransportStackC1ERKN7openpal6LoggerERKSt10shared_ptrINS1_9IExecutorEERKS5_INS_13ILinkListenerEEjRKNS_10LinkConfigE
	.set	_ZN8opendnp314TransportStackC1ERKN7openpal6LoggerERKSt10shared_ptrINS1_9IExecutorEERKS5_INS_13ILinkListenerEEjRKNS_10LinkConfigE,_ZN8opendnp314TransportStackC2ERKN7openpal6LoggerERKSt10shared_ptrINS1_9IExecutorEERKS5_INS_13ILinkListenerEEjRKNS_10LinkConfigE
	.weak	_ZTSSt11_Mutex_baseILN9__gnu_cxx12_Lock_policyE2EE
	.section	.rodata._ZTSSt11_Mutex_baseILN9__gnu_cxx12_Lock_policyE2EE,"aG",@progbits,_ZTSSt11_Mutex_baseILN9__gnu_cxx12_Lock_policyE2EE,comdat
	.align 32
	.type	_ZTSSt11_Mutex_baseILN9__gnu_cxx12_Lock_policyE2EE, @object
	.size	_ZTSSt11_Mutex_baseILN9__gnu_cxx12_Lock_policyE2EE, 47
_ZTSSt11_Mutex_baseILN9__gnu_cxx12_Lock_policyE2EE:
	.string	"St11_Mutex_baseILN9__gnu_cxx12_Lock_policyE2EE"
	.weak	_ZTISt11_Mutex_baseILN9__gnu_cxx12_Lock_policyE2EE
	.section	.data.rel.ro._ZTISt11_Mutex_baseILN9__gnu_cxx12_Lock_policyE2EE,"awG",@progbits,_ZTISt11_Mutex_baseILN9__gnu_cxx12_Lock_policyE2EE,comdat
	.align 8
	.type	_ZTISt11_Mutex_baseILN9__gnu_cxx12_Lock_policyE2EE, @object
	.size	_ZTISt11_Mutex_baseILN9__gnu_cxx12_Lock_policyE2EE, 16
_ZTISt11_Mutex_baseILN9__gnu_cxx12_Lock_policyE2EE:
	.quad	_ZTVN10__cxxabiv117__class_type_infoE+16
	.quad	_ZTSSt11_Mutex_baseILN9__gnu_cxx12_Lock_policyE2EE
	.weak	_ZTSSt16_Sp_counted_baseILN9__gnu_cxx12_Lock_policyE2EE
	.section	.rodata._ZTSSt16_Sp_counted_baseILN9__gnu_cxx12_Lock_policyE2EE,"aG",@progbits,_ZTSSt16_Sp_counted_baseILN9__gnu_cxx12_Lock_policyE2EE,comdat
	.align 32
	.type	_ZTSSt16_Sp_counted_baseILN9__gnu_cxx12_Lock_policyE2EE, @object
	.size	_ZTSSt16_Sp_counted_baseILN9__gnu_cxx12_Lock_policyE2EE, 52
_ZTSSt16_Sp_counted_baseILN9__gnu_cxx12_Lock_policyE2EE:
	.string	"St16_Sp_counted_baseILN9__gnu_cxx12_Lock_policyE2EE"
	.weak	_ZTISt16_Sp_counted_baseILN9__gnu_cxx12_Lock_policyE2EE
	.section	.data.rel.ro._ZTISt16_Sp_counted_baseILN9__gnu_cxx12_Lock_policyE2EE,"awG",@progbits,_ZTISt16_Sp_counted_baseILN9__gnu_cxx12_Lock_policyE2EE,comdat
	.align 8
	.type	_ZTISt16_Sp_counted_baseILN9__gnu_cxx12_Lock_policyE2EE, @object
	.size	_ZTISt16_Sp_counted_baseILN9__gnu_cxx12_Lock_policyE2EE, 24
_ZTISt16_Sp_counted_baseILN9__gnu_cxx12_Lock_policyE2EE:
	.quad	_ZTVN10__cxxabiv120__si_class_type_infoE+16
	.quad	_ZTSSt16_Sp_counted_baseILN9__gnu_cxx12_Lock_policyE2EE
	.quad	_ZTISt11_Mutex_baseILN9__gnu_cxx12_Lock_policyE2EE
	.weak	_ZTSSt19_Sp_make_shared_tag
	.section	.rodata._ZTSSt19_Sp_make_shared_tag,"aG",@progbits,_ZTSSt19_Sp_make_shared_tag,comdat
	.align 16
	.type	_ZTSSt19_Sp_make_shared_tag, @object
	.size	_ZTSSt19_Sp_make_shared_tag, 24
_ZTSSt19_Sp_make_shared_tag:
	.string	"St19_Sp_make_shared_tag"
	.weak	_ZTISt19_Sp_make_shared_tag
	.section	.data.rel.ro._ZTISt19_Sp_make_shared_tag,"awG",@progbits,_ZTISt19_Sp_make_shared_tag,comdat
	.align 8
	.type	_ZTISt19_Sp_make_shared_tag, @object
	.size	_ZTISt19_Sp_make_shared_tag, 16
_ZTISt19_Sp_make_shared_tag:
	.quad	_ZTVN10__cxxabiv117__class_type_infoE+16
	.quad	_ZTSSt19_Sp_make_shared_tag
	.weak	_ZTSSt23_Sp_counted_ptr_inplaceIN8opendnp314TransportLayerESaIS1_ELN9__gnu_cxx12_Lock_policyE2EE
	.section	.rodata._ZTSSt23_Sp_counted_ptr_inplaceIN8opendnp314TransportLayerESaIS1_ELN9__gnu_cxx12_Lock_policyE2EE,"aG",@progbits,_ZTSSt23_Sp_counted_ptr_inplaceIN8opendnp314TransportLayerESaIS1_ELN9__gnu_cxx12_Lock_policyE2EE,comdat
	.align 32
	.type	_ZTSSt23_Sp_counted_ptr_inplaceIN8opendnp314TransportLayerESaIS1_ELN9__gnu_cxx12_Lock_policyE2EE, @object
	.size	_ZTSSt23_Sp_counted_ptr_inplaceIN8opendnp314TransportLayerESaIS1_ELN9__gnu_cxx12_Lock_policyE2EE, 93
_ZTSSt23_Sp_counted_ptr_inplaceIN8opendnp314TransportLayerESaIS1_ELN9__gnu_cxx12_Lock_policyE2EE:
	.string	"St23_Sp_counted_ptr_inplaceIN8opendnp314TransportLayerESaIS1_ELN9__gnu_cxx12_Lock_policyE2EE"
	.weak	_ZTISt23_Sp_counted_ptr_inplaceIN8opendnp314TransportLayerESaIS1_ELN9__gnu_cxx12_Lock_policyE2EE
	.section	.data.rel.ro._ZTISt23_Sp_counted_ptr_inplaceIN8opendnp314TransportLayerESaIS1_ELN9__gnu_cxx12_Lock_policyE2EE,"awG",@progbits,_ZTISt23_Sp_counted_ptr_inplaceIN8opendnp314TransportLayerESaIS1_ELN9__gnu_cxx12_Lock_policyE2EE,comdat
	.align 8
	.type	_ZTISt23_Sp_counted_ptr_inplaceIN8opendnp314TransportLayerESaIS1_ELN9__gnu_cxx12_Lock_policyE2EE, @object
	.size	_ZTISt23_Sp_counted_ptr_inplaceIN8opendnp314TransportLayerESaIS1_ELN9__gnu_cxx12_Lock_policyE2EE, 24
_ZTISt23_Sp_counted_ptr_inplaceIN8opendnp314TransportLayerESaIS1_ELN9__gnu_cxx12_Lock_policyE2EE:
	.quad	_ZTVN10__cxxabiv120__si_class_type_infoE+16
	.quad	_ZTSSt23_Sp_counted_ptr_inplaceIN8opendnp314TransportLayerESaIS1_ELN9__gnu_cxx12_Lock_policyE2EE
	.quad	_ZTISt16_Sp_counted_baseILN9__gnu_cxx12_Lock_policyE2EE
	.weak	_ZTSSt23_Sp_counted_ptr_inplaceIN8opendnp39LinkLayerESaIS1_ELN9__gnu_cxx12_Lock_policyE2EE
	.section	.rodata._ZTSSt23_Sp_counted_ptr_inplaceIN8opendnp39LinkLayerESaIS1_ELN9__gnu_cxx12_Lock_policyE2EE,"aG",@progbits,_ZTSSt23_Sp_counted_ptr_inplaceIN8opendnp39LinkLayerESaIS1_ELN9__gnu_cxx12_Lock_policyE2EE,comdat
	.align 32
	.type	_ZTSSt23_Sp_counted_ptr_inplaceIN8opendnp39LinkLayerESaIS1_ELN9__gnu_cxx12_Lock_policyE2EE, @object
	.size	_ZTSSt23_Sp_counted_ptr_inplaceIN8opendnp39LinkLayerESaIS1_ELN9__gnu_cxx12_Lock_policyE2EE, 87
_ZTSSt23_Sp_counted_ptr_inplaceIN8opendnp39LinkLayerESaIS1_ELN9__gnu_cxx12_Lock_policyE2EE:
	.string	"St23_Sp_counted_ptr_inplaceIN8opendnp39LinkLayerESaIS1_ELN9__gnu_cxx12_Lock_policyE2EE"
	.weak	_ZTISt23_Sp_counted_ptr_inplaceIN8opendnp39LinkLayerESaIS1_ELN9__gnu_cxx12_Lock_policyE2EE
	.section	.data.rel.ro._ZTISt23_Sp_counted_ptr_inplaceIN8opendnp39LinkLayerESaIS1_ELN9__gnu_cxx12_Lock_policyE2EE,"awG",@progbits,_ZTISt23_Sp_counted_ptr_inplaceIN8opendnp39LinkLayerESaIS1_ELN9__gnu_cxx12_Lock_policyE2EE,comdat
	.align 8
	.type	_ZTISt23_Sp_counted_ptr_inplaceIN8opendnp39LinkLayerESaIS1_ELN9__gnu_cxx12_Lock_policyE2EE, @object
	.size	_ZTISt23_Sp_counted_ptr_inplaceIN8opendnp39LinkLayerESaIS1_ELN9__gnu_cxx12_Lock_policyE2EE, 24
_ZTISt23_Sp_counted_ptr_inplaceIN8opendnp39LinkLayerESaIS1_ELN9__gnu_cxx12_Lock_policyE2EE:
	.quad	_ZTVN10__cxxabiv120__si_class_type_infoE+16
	.quad	_ZTSSt23_Sp_counted_ptr_inplaceIN8opendnp39LinkLayerESaIS1_ELN9__gnu_cxx12_Lock_policyE2EE
	.quad	_ZTISt16_Sp_counted_baseILN9__gnu_cxx12_Lock_policyE2EE
	.weak	_ZTVSt23_Sp_counted_ptr_inplaceIN8opendnp314TransportLayerESaIS1_ELN9__gnu_cxx12_Lock_policyE2EE
	.section	.data.rel.ro._ZTVSt23_Sp_counted_ptr_inplaceIN8opendnp314TransportLayerESaIS1_ELN9__gnu_cxx12_Lock_policyE2EE,"awG",@progbits,_ZTVSt23_Sp_counted_ptr_inplaceIN8opendnp314TransportLayerESaIS1_ELN9__gnu_cxx12_Lock_policyE2EE,comdat
	.align 8
	.type	_ZTVSt23_Sp_counted_ptr_inplaceIN8opendnp314TransportLayerESaIS1_ELN9__gnu_cxx12_Lock_policyE2EE, @object
	.size	_ZTVSt23_Sp_counted_ptr_inplaceIN8opendnp314TransportLayerESaIS1_ELN9__gnu_cxx12_Lock_policyE2EE, 56
_ZTVSt23_Sp_counted_ptr_inplaceIN8opendnp314TransportLayerESaIS1_ELN9__gnu_cxx12_Lock_policyE2EE:
	.quad	0
	.quad	_ZTISt23_Sp_counted_ptr_inplaceIN8opendnp314TransportLayerESaIS1_ELN9__gnu_cxx12_Lock_policyE2EE
	.quad	_ZNSt23_Sp_counted_ptr_inplaceIN8opendnp314TransportLayerESaIS1_ELN9__gnu_cxx12_Lock_policyE2EED1Ev
	.quad	_ZNSt23_Sp_counted_ptr_inplaceIN8opendnp314TransportLayerESaIS1_ELN9__gnu_cxx12_Lock_policyE2EED0Ev
	.quad	_ZNSt23_Sp_counted_ptr_inplaceIN8opendnp314TransportLayerESaIS1_ELN9__gnu_cxx12_Lock_policyE2EE10_M_disposeEv
	.quad	_ZNSt23_Sp_counted_ptr_inplaceIN8opendnp314TransportLayerESaIS1_ELN9__gnu_cxx12_Lock_policyE2EE10_M_destroyEv
	.quad	_ZNSt23_Sp_counted_ptr_inplaceIN8opendnp314TransportLayerESaIS1_ELN9__gnu_cxx12_Lock_policyE2EE14_M_get_deleterERKSt9type_info
	.weak	_ZTVSt23_Sp_counted_ptr_inplaceIN8opendnp39LinkLayerESaIS1_ELN9__gnu_cxx12_Lock_policyE2EE
	.section	.data.rel.ro._ZTVSt23_Sp_counted_ptr_inplaceIN8opendnp39LinkLayerESaIS1_ELN9__gnu_cxx12_Lock_policyE2EE,"awG",@progbits,_ZTVSt23_Sp_counted_ptr_inplaceIN8opendnp39LinkLayerESaIS1_ELN9__gnu_cxx12_Lock_policyE2EE,comdat
	.align 8
	.type	_ZTVSt23_Sp_counted_ptr_inplaceIN8opendnp39LinkLayerESaIS1_ELN9__gnu_cxx12_Lock_policyE2EE, @object
	.size	_ZTVSt23_Sp_counted_ptr_inplaceIN8opendnp39LinkLayerESaIS1_ELN9__gnu_cxx12_Lock_policyE2EE, 56
_ZTVSt23_Sp_counted_ptr_inplaceIN8opendnp39LinkLayerESaIS1_ELN9__gnu_cxx12_Lock_policyE2EE:
	.quad	0
	.quad	_ZTISt23_Sp_counted_ptr_inplaceIN8opendnp39LinkLayerESaIS1_ELN9__gnu_cxx12_Lock_policyE2EE
	.quad	_ZNSt23_Sp_counted_ptr_inplaceIN8opendnp39LinkLayerESaIS1_ELN9__gnu_cxx12_Lock_policyE2EED1Ev
	.quad	_ZNSt23_Sp_counted_ptr_inplaceIN8opendnp39LinkLayerESaIS1_ELN9__gnu_cxx12_Lock_policyE2EED0Ev
	.quad	_ZNSt23_Sp_counted_ptr_inplaceIN8opendnp39LinkLayerESaIS1_ELN9__gnu_cxx12_Lock_policyE2EE10_M_disposeEv
	.quad	_ZNSt23_Sp_counted_ptr_inplaceIN8opendnp39LinkLayerESaIS1_ELN9__gnu_cxx12_Lock_policyE2EE10_M_destroyEv
	.quad	_ZNSt23_Sp_counted_ptr_inplaceIN8opendnp39LinkLayerESaIS1_ELN9__gnu_cxx12_Lock_policyE2EE14_M_get_deleterERKSt9type_info
	.weakref	_ZL28__gthrw___pthread_key_createPjPFvPvE,__pthread_key_create
	.hidden	DW.ref.__gxx_personality_v0
	.weak	DW.ref.__gxx_personality_v0
	.section	.data.rel.local.DW.ref.__gxx_personality_v0,"awG",@progbits,DW.ref.__gxx_personality_v0,comdat
	.align 8
	.type	DW.ref.__gxx_personality_v0, @object
	.size	DW.ref.__gxx_personality_v0, 8
DW.ref.__gxx_personality_v0:
	.quad	__gxx_personality_v0
	.ident	"GCC: (Ubuntu 7.5.0-3ubuntu1~18.04) 7.5.0"
	.section	.note.GNU-stack,"",@progbits
