	.file	"WriteHandler.cpp"
	.text
	.section	.text._ZN8opendnp312IAPDUHandler14OnHeaderResultERKNS_12HeaderRecordERKNS_8IINFieldE,"axG",@progbits,_ZN8opendnp312IAPDUHandler14OnHeaderResultERKNS_12HeaderRecordERKNS_8IINFieldE,comdat
	.align 2
	.p2align 4,,15
	.weak	_ZN8opendnp312IAPDUHandler14OnHeaderResultERKNS_12HeaderRecordERKNS_8IINFieldE
	.type	_ZN8opendnp312IAPDUHandler14OnHeaderResultERKNS_12HeaderRecordERKNS_8IINFieldE, @function
_ZN8opendnp312IAPDUHandler14OnHeaderResultERKNS_12HeaderRecordERKNS_8IINFieldE:
.LFB333:
	.cfi_startproc
	rep ret
	.cfi_endproc
.LFE333:
	.size	_ZN8opendnp312IAPDUHandler14OnHeaderResultERKNS_12HeaderRecordERKNS_8IINFieldE, .-_ZN8opendnp312IAPDUHandler14OnHeaderResultERKNS_12HeaderRecordERKNS_8IINFieldE
	.section	.text._ZN8opendnp322IOutstationApplication25SupportsWriteAbsoluteTimeEv,"axG",@progbits,_ZN8opendnp322IOutstationApplication25SupportsWriteAbsoluteTimeEv,comdat
	.align 2
	.p2align 4,,15
	.weak	_ZN8opendnp322IOutstationApplication25SupportsWriteAbsoluteTimeEv
	.type	_ZN8opendnp322IOutstationApplication25SupportsWriteAbsoluteTimeEv, @function
_ZN8opendnp322IOutstationApplication25SupportsWriteAbsoluteTimeEv:
.LFB2199:
	.cfi_startproc
	xorl	%eax, %eax
	ret
	.cfi_endproc
.LFE2199:
	.size	_ZN8opendnp322IOutstationApplication25SupportsWriteAbsoluteTimeEv, .-_ZN8opendnp322IOutstationApplication25SupportsWriteAbsoluteTimeEv
	.section	.text._ZN8opendnp322IOutstationApplication17WriteAbsoluteTimeERKN7openpal12UTCTimestampE,"axG",@progbits,_ZN8opendnp322IOutstationApplication17WriteAbsoluteTimeERKN7openpal12UTCTimestampE,comdat
	.align 2
	.p2align 4,,15
	.weak	_ZN8opendnp322IOutstationApplication17WriteAbsoluteTimeERKN7openpal12UTCTimestampE
	.type	_ZN8opendnp322IOutstationApplication17WriteAbsoluteTimeERKN7openpal12UTCTimestampE, @function
_ZN8opendnp322IOutstationApplication17WriteAbsoluteTimeERKN7openpal12UTCTimestampE:
.LFB2200:
	.cfi_startproc
	xorl	%eax, %eax
	ret
	.cfi_endproc
.LFE2200:
	.size	_ZN8opendnp322IOutstationApplication17WriteAbsoluteTimeERKN7openpal12UTCTimestampE, .-_ZN8opendnp322IOutstationApplication17WriteAbsoluteTimeERKN7openpal12UTCTimestampE
	.section	.text._ZN8opendnp322IOutstationApplication28SupportsWriteTimeAndIntervalEv,"axG",@progbits,_ZN8opendnp322IOutstationApplication28SupportsWriteTimeAndIntervalEv,comdat
	.align 2
	.p2align 4,,15
	.weak	_ZN8opendnp322IOutstationApplication28SupportsWriteTimeAndIntervalEv
	.type	_ZN8opendnp322IOutstationApplication28SupportsWriteTimeAndIntervalEv, @function
_ZN8opendnp322IOutstationApplication28SupportsWriteTimeAndIntervalEv:
.LFB2201:
	.cfi_startproc
	xorl	%eax, %eax
	ret
	.cfi_endproc
.LFE2201:
	.size	_ZN8opendnp322IOutstationApplication28SupportsWriteTimeAndIntervalEv, .-_ZN8opendnp322IOutstationApplication28SupportsWriteTimeAndIntervalEv
	.section	.text._ZN8opendnp322IOutstationApplication20WriteTimeAndIntervalERKNS_11ICollectionINS_7IndexedINS_15TimeAndIntervalEEEEE,"axG",@progbits,_ZN8opendnp322IOutstationApplication20WriteTimeAndIntervalERKNS_11ICollectionINS_7IndexedINS_15TimeAndIntervalEEEEE,comdat
	.align 2
	.p2align 4,,15
	.weak	_ZN8opendnp322IOutstationApplication20WriteTimeAndIntervalERKNS_11ICollectionINS_7IndexedINS_15TimeAndIntervalEEEEE
	.type	_ZN8opendnp322IOutstationApplication20WriteTimeAndIntervalERKNS_11ICollectionINS_7IndexedINS_15TimeAndIntervalEEEEE, @function
_ZN8opendnp322IOutstationApplication20WriteTimeAndIntervalERKNS_11ICollectionINS_7IndexedINS_15TimeAndIntervalEEEEE:
.LFB2202:
	.cfi_startproc
	xorl	%eax, %eax
	ret
	.cfi_endproc
.LFE2202:
	.size	_ZN8opendnp322IOutstationApplication20WriteTimeAndIntervalERKNS_11ICollectionINS_7IndexedINS_15TimeAndIntervalEEEEE, .-_ZN8opendnp322IOutstationApplication20WriteTimeAndIntervalERKNS_11ICollectionINS_7IndexedINS_15TimeAndIntervalEEEEE
	.section	.text._ZN8opendnp312WriteHandler9IsAllowedEjNS_14GroupVariationENS_13QualifierCodeE,"axG",@progbits,_ZN8opendnp312WriteHandler9IsAllowedEjNS_14GroupVariationENS_13QualifierCodeE,comdat
	.align 2
	.p2align 4,,15
	.weak	_ZN8opendnp312WriteHandler9IsAllowedEjNS_14GroupVariationENS_13QualifierCodeE
	.type	_ZN8opendnp312WriteHandler9IsAllowedEjNS_14GroupVariationENS_13QualifierCodeE, @function
_ZN8opendnp312WriteHandler9IsAllowedEjNS_14GroupVariationENS_13QualifierCodeE:
.LFB2286:
	.cfi_startproc
	movl	$1, %eax
	ret
	.cfi_endproc
.LFE2286:
	.size	_ZN8opendnp312WriteHandler9IsAllowedEjNS_14GroupVariationENS_13QualifierCodeE, .-_ZN8opendnp312WriteHandler9IsAllowedEjNS_14GroupVariationENS_13QualifierCodeE
	.section	.text._ZN8opendnp314FunctorVisitorINS_11Group50Var1EZNKS_11ICollectionIS1_E13ReadOnlyValueERS1_EUlRKS1_E_E7OnValueES6_,"axG",@progbits,_ZN8opendnp314FunctorVisitorINS_11Group50Var1EZNKS_11ICollectionIS1_E13ReadOnlyValueERS1_EUlRKS1_E_E7OnValueES6_,comdat
	.align 2
	.p2align 4,,15
	.weak	_ZN8opendnp314FunctorVisitorINS_11Group50Var1EZNKS_11ICollectionIS1_E13ReadOnlyValueERS1_EUlRKS1_E_E7OnValueES6_
	.type	_ZN8opendnp314FunctorVisitorINS_11Group50Var1EZNKS_11ICollectionIS1_E13ReadOnlyValueERS1_EUlRKS1_E_E7OnValueES6_, @function
_ZN8opendnp314FunctorVisitorINS_11Group50Var1EZNKS_11ICollectionIS1_E13ReadOnlyValueERS1_EUlRKS1_E_E7OnValueES6_:
.LFB3111:
	.cfi_startproc
	movq	8(%rdi), %rax
	movq	(%rsi), %rdx
	movq	%rdx, (%rax)
	ret
	.cfi_endproc
.LFE3111:
	.size	_ZN8opendnp314FunctorVisitorINS_11Group50Var1EZNKS_11ICollectionIS1_E13ReadOnlyValueERS1_EUlRKS1_E_E7OnValueES6_, .-_ZN8opendnp314FunctorVisitorINS_11Group50Var1EZNKS_11ICollectionIS1_E13ReadOnlyValueERS1_EUlRKS1_E_E7OnValueES6_
	.section	.text._ZN8opendnp314FunctorVisitorINS_7IndexedINS_8IINValueEEEZNKS_11ICollectionIS3_E13ReadOnlyValueERS3_EUlRKS3_E_E7OnValueES8_,"axG",@progbits,_ZN8opendnp314FunctorVisitorINS_7IndexedINS_8IINValueEEEZNKS_11ICollectionIS3_E13ReadOnlyValueERS3_EUlRKS3_E_E7OnValueES8_,comdat
	.align 2
	.p2align 4,,15
	.weak	_ZN8opendnp314FunctorVisitorINS_7IndexedINS_8IINValueEEEZNKS_11ICollectionIS3_E13ReadOnlyValueERS3_EUlRKS3_E_E7OnValueES8_
	.type	_ZN8opendnp314FunctorVisitorINS_7IndexedINS_8IINValueEEEZNKS_11ICollectionIS3_E13ReadOnlyValueERS3_EUlRKS3_E_E7OnValueES8_, @function
_ZN8opendnp314FunctorVisitorINS_7IndexedINS_8IINValueEEEZNKS_11ICollectionIS3_E13ReadOnlyValueERS3_EUlRKS3_E_E7OnValueES8_:
.LFB3112:
	.cfi_startproc
	movq	8(%rdi), %rax
	movl	(%rsi), %edx
	movl	%edx, (%rax)
	ret
	.cfi_endproc
.LFE3112:
	.size	_ZN8opendnp314FunctorVisitorINS_7IndexedINS_8IINValueEEEZNKS_11ICollectionIS3_E13ReadOnlyValueERS3_EUlRKS3_E_E7OnValueES8_, .-_ZN8opendnp314FunctorVisitorINS_7IndexedINS_8IINValueEEEZNKS_11ICollectionIS3_E13ReadOnlyValueERS3_EUlRKS3_E_E7OnValueES8_
	.text
	.align 2
	.p2align 4,,15
	.globl	_ZN8opendnp312WriteHandler13ProcessHeaderERKNS_11RangeHeaderERKNS_11ICollectionINS_7IndexedINS_8IINValueEEEEE
	.type	_ZN8opendnp312WriteHandler13ProcessHeaderERKNS_11RangeHeaderERKNS_11ICollectionINS_7IndexedINS_8IINValueEEEEE, @function
_ZN8opendnp312WriteHandler13ProcessHeaderERKNS_11RangeHeaderERKNS_11ICollectionINS_7IndexedINS_8IINValueEEEEE:
.LFB2290:
	.cfi_startproc
	pushq	%r12
	.cfi_def_cfa_offset 16
	.cfi_offset 12, -16
	pushq	%rbp
	.cfi_def_cfa_offset 24
	.cfi_offset 6, -24
	xorl	%ecx, %ecx
	pushq	%rbx
	.cfi_def_cfa_offset 32
	.cfi_offset 3, -32
	movq	%rdi, %rbp
	movq	%rdx, %rbx
	movq	%rdx, %rdi
	subq	$64, %rsp
	.cfi_def_cfa_offset 96
	movq	%fs:40, %rax
	movq	%rax, 56(%rsp)
	xorl	%eax, %eax
	movq	(%rdx), %rax
	movb	$0, 28(%rsp)
	movw	%cx, 30(%rsp)
	call	*(%rax)
	cmpq	$1, %rax
	je	.L11
	leaq	32(%rsp), %rdi
	xorl	%edx, %edx
	movl	$10, %esi
	movw	%dx, 32(%rsp)
	call	_ZN8opendnp38IINField6SetBitENS_6IINBitE@PLT
	movzwl	32(%rsp), %eax
.L12:
	movq	56(%rsp), %rcx
	xorq	%fs:40, %rcx
	jne	.L20
	addq	$64, %rsp
	.cfi_remember_state
	.cfi_def_cfa_offset 32
	popq	%rbx
	.cfi_def_cfa_offset 24
	popq	%rbp
	.cfi_def_cfa_offset 16
	popq	%r12
	.cfi_def_cfa_offset 8
	ret
	.p2align 4,,10
	.p2align 3
.L11:
	.cfi_restore_state
	movq	_ZTVN8opendnp314FunctorVisitorINS_7IndexedINS_8IINValueEEEZNKS_11ICollectionIS3_E13ReadOnlyValueERS3_EUlRKS3_E_EE@GOTPCREL(%rip), %rdx
	leaq	28(%rsp), %rax
	leaq	32(%rsp), %r12
	movq	%rbx, %rdi
	movq	%r12, %rsi
	leaq	16(%rdx), %rcx
	movq	%rcx, 8(%rsp)
	movq	8(%rsp), %xmm0
	movq	%rax, 8(%rsp)
	movq	(%rbx), %rax
	movhps	8(%rsp), %xmm0
	movaps	%xmm0, 32(%rsp)
	call	*8(%rax)
	cmpb	$0, 41(%rbp)
	jne	.L19
	cmpw	$7, 30(%rsp)
	jne	.L19
	cmpb	$0, 28(%rsp)
	jne	.L19
	movq	32(%rbp), %rdi
	movb	$1, 41(%rbp)
	movl	$7, %esi
	call	_ZN8opendnp38IINField8ClearBitENS_6IINBitE@PLT
	xorl	%eax, %eax
	jmp	.L12
	.p2align 4,,10
	.p2align 3
.L19:
	xorl	%eax, %eax
	movl	$10, %esi
	movq	%r12, %rdi
	movw	%ax, 32(%rsp)
	call	_ZN8opendnp38IINField6SetBitENS_6IINBitE@PLT
	movzwl	32(%rsp), %eax
	jmp	.L12
.L20:
	call	__stack_chk_fail@PLT
	.cfi_endproc
.LFE2290:
	.size	_ZN8opendnp312WriteHandler13ProcessHeaderERKNS_11RangeHeaderERKNS_11ICollectionINS_7IndexedINS_8IINValueEEEEE, .-_ZN8opendnp312WriteHandler13ProcessHeaderERKNS_11RangeHeaderERKNS_11ICollectionINS_7IndexedINS_8IINValueEEEEE
	.align 2
	.p2align 4,,15
	.globl	_ZN8opendnp312WriteHandler13ProcessHeaderERKNS_12PrefixHeaderERKNS_11ICollectionINS_7IndexedINS_15TimeAndIntervalEEEEE
	.type	_ZN8opendnp312WriteHandler13ProcessHeaderERKNS_12PrefixHeaderERKNS_11ICollectionINS_7IndexedINS_15TimeAndIntervalEEEEE, @function
_ZN8opendnp312WriteHandler13ProcessHeaderERKNS_12PrefixHeaderERKNS_11ICollectionINS_7IndexedINS_15TimeAndIntervalEEEEE:
.LFB2292:
	.cfi_startproc
	pushq	%rbx
	.cfi_def_cfa_offset 16
	.cfi_offset 3, -16
	movq	%rdi, %rbx
	subq	$32, %rsp
	.cfi_def_cfa_offset 48
	movq	24(%rdi), %rdi
	movq	%fs:40, %rax
	movq	%rax, 24(%rsp)
	xorl	%eax, %eax
	movq	(%rdi), %rax
	movq	48(%rax), %rax
	cmpq	_ZN8opendnp322IOutstationApplication28SupportsWriteTimeAndIntervalEv@GOTPCREL(%rip), %rax
	jne	.L22
.L24:
	leaq	22(%rsp), %rdi
	xorl	%edx, %edx
	movl	$8, %esi
	movw	%dx, 22(%rsp)
	call	_ZN8opendnp38IINField6SetBitENS_6IINBitE@PLT
	movzwl	22(%rsp), %eax
.L23:
	movq	24(%rsp), %rcx
	xorq	%fs:40, %rcx
	jne	.L34
	addq	$32, %rsp
	.cfi_remember_state
	.cfi_def_cfa_offset 16
	popq	%rbx
	.cfi_def_cfa_offset 8
	ret
	.p2align 4,,10
	.p2align 3
.L22:
	.cfi_restore_state
	movq	%rdx, 8(%rsp)
	call	*%rax
	testb	%al, %al
	je	.L24
	movq	24(%rbx), %rdi
	movq	8(%rsp), %rdx
	movq	(%rdi), %rax
	movq	56(%rax), %rax
	cmpq	_ZN8opendnp322IOutstationApplication20WriteTimeAndIntervalERKNS_11ICollectionINS_7IndexedINS_15TimeAndIntervalEEEEE@GOTPCREL(%rip), %rax
	jne	.L35
.L25:
	leaq	22(%rsp), %rdi
	xorl	%eax, %eax
	movl	$10, %esi
	movw	%ax, 22(%rsp)
	call	_ZN8opendnp38IINField6SetBitENS_6IINBitE@PLT
	movzbl	23(%rsp), %edx
	xorl	%eax, %eax
	movb	22(%rsp), %al
	movb	%dl, %ah
	jmp	.L23
	.p2align 4,,10
	.p2align 3
.L35:
	movq	%rdx, %rsi
	call	*%rax
	testb	%al, %al
	je	.L25
	xorl	%eax, %eax
	jmp	.L23
.L34:
	call	__stack_chk_fail@PLT
	.cfi_endproc
.LFE2292:
	.size	_ZN8opendnp312WriteHandler13ProcessHeaderERKNS_12PrefixHeaderERKNS_11ICollectionINS_7IndexedINS_15TimeAndIntervalEEEEE, .-_ZN8opendnp312WriteHandler13ProcessHeaderERKNS_12PrefixHeaderERKNS_11ICollectionINS_7IndexedINS_15TimeAndIntervalEEEEE
	.align 2
	.p2align 4,,15
	.globl	_ZN8opendnp312WriteHandler13ProcessHeaderERKNS_11CountHeaderERKNS_11ICollectionINS_11Group50Var1EEE
	.type	_ZN8opendnp312WriteHandler13ProcessHeaderERKNS_11CountHeaderERKNS_11ICollectionINS_11Group50Var1EEE, @function
_ZN8opendnp312WriteHandler13ProcessHeaderERKNS_11CountHeaderERKNS_11ICollectionINS_11Group50Var1EEE:
.LFB2291:
	.cfi_startproc
	pushq	%r12
	.cfi_def_cfa_offset 16
	.cfi_offset 12, -16
	pushq	%rbp
	.cfi_def_cfa_offset 24
	.cfi_offset 6, -24
	pushq	%rbx
	.cfi_def_cfa_offset 32
	.cfi_offset 3, -32
	subq	$64, %rsp
	.cfi_def_cfa_offset 96
	movq	%fs:40, %rax
	movq	%rax, 56(%rsp)
	xorl	%eax, %eax
	cmpb	$0, 40(%rdi)
	jne	.L51
	leaq	24(%rsp), %r12
	movq	%rdx, %rbx
	movq	%rdi, %rbp
	movq	%r12, %rdi
	call	_ZN8opendnp311Group50Var1C1Ev@PLT
	movq	(%rbx), %rax
	movq	%rbx, %rdi
	call	*(%rax)
	cmpq	$1, %rax
	je	.L39
	xorl	%ecx, %ecx
	leaq	32(%rsp), %rdi
	movl	$10, %esi
	movw	%cx, 32(%rsp)
.L50:
	call	_ZN8opendnp38IINField6SetBitENS_6IINBitE@PLT
	movzwl	32(%rsp), %edx
	movw	%dx, 22(%rsp)
	movl	%edx, %ecx
	movzbl	%dh, %edx
.L40:
	xorl	%eax, %eax
	movb	%cl, %al
	movb	%dl, %ah
.L38:
	movq	56(%rsp), %rcx
	xorq	%fs:40, %rcx
	jne	.L52
	addq	$64, %rsp
	.cfi_remember_state
	.cfi_def_cfa_offset 32
	popq	%rbx
	.cfi_def_cfa_offset 24
	popq	%rbp
	.cfi_def_cfa_offset 16
	popq	%r12
	.cfi_def_cfa_offset 8
	ret
	.p2align 4,,10
	.p2align 3
.L39:
	.cfi_restore_state
	movq	_ZTVN8opendnp314FunctorVisitorINS_11Group50Var1EZNKS_11ICollectionIS1_E13ReadOnlyValueERS1_EUlRKS1_E_EE@GOTPCREL(%rip), %rax
	movq	%rbx, %rdi
	addq	$16, %rax
	movq	%rax, 8(%rsp)
	movq	(%rbx), %rax
	movq	8(%rsp), %xmm0
	movq	%r12, 8(%rsp)
	leaq	32(%rsp), %r12
	movhps	8(%rsp), %xmm0
	movq	%r12, %rsi
	movaps	%xmm0, 32(%rsp)
	call	*8(%rax)
	movq	24(%rbp), %rdi
	movq	(%rdi), %rax
	movq	32(%rax), %rax
	cmpq	_ZN8opendnp322IOutstationApplication25SupportsWriteAbsoluteTimeEv@GOTPCREL(%rip), %rax
	jne	.L53
.L41:
	xorl	%eax, %eax
	movl	$8, %esi
	movq	%r12, %rdi
	movw	%ax, 32(%rsp)
	jmp	.L50
	.p2align 4,,10
	.p2align 3
.L51:
	xorl	%esi, %esi
	leaq	32(%rsp), %rdi
	movw	%si, 32(%rsp)
	movl	$10, %esi
	call	_ZN8opendnp38IINField6SetBitENS_6IINBitE@PLT
	movzwl	32(%rsp), %eax
	jmp	.L38
	.p2align 4,,10
	.p2align 3
.L53:
	call	*%rax
	testb	%al, %al
	je	.L41
	movq	24(%rbp), %rdi
	movq	24(%rsp), %rdx
	movb	$1, 40(%rbp)
	movq	(%rdi), %rax
	movq	40(%rax), %rax
	cmpq	_ZN8opendnp322IOutstationApplication17WriteAbsoluteTimeERKN7openpal12UTCTimestampE@GOTPCREL(%rip), %rax
	movq	%rdx, 32(%rsp)
	jne	.L54
.L42:
	leaq	22(%rsp), %rdi
	xorl	%edx, %edx
	movl	$10, %esi
	movw	%dx, 22(%rsp)
	call	_ZN8opendnp38IINField6SetBitENS_6IINBitE@PLT
	movzbl	22(%rsp), %ecx
	movzbl	23(%rsp), %edx
	jmp	.L40
	.p2align 4,,10
	.p2align 3
.L54:
	movq	%r12, %rsi
	call	*%rax
	xorl	%edx, %edx
	xorl	%ecx, %ecx
	testb	%al, %al
	jne	.L40
	jmp	.L42
.L52:
	call	__stack_chk_fail@PLT
	.cfi_endproc
.LFE2291:
	.size	_ZN8opendnp312WriteHandler13ProcessHeaderERKNS_11CountHeaderERKNS_11ICollectionINS_11Group50Var1EEE, .-_ZN8opendnp312WriteHandler13ProcessHeaderERKNS_11CountHeaderERKNS_11ICollectionINS_11Group50Var1EEE
	.align 2
	.p2align 4,,15
	.globl	_ZN8opendnp312WriteHandlerC2ERNS_22IOutstationApplicationEPNS_8IINFieldE
	.type	_ZN8opendnp312WriteHandlerC2ERNS_22IOutstationApplicationEPNS_8IINFieldE, @function
_ZN8opendnp312WriteHandlerC2ERNS_22IOutstationApplicationEPNS_8IINFieldE:
.LFB2288:
	.cfi_startproc
	pushq	%r12
	.cfi_def_cfa_offset 16
	.cfi_offset 12, -16
	pushq	%rbp
	.cfi_def_cfa_offset 24
	.cfi_offset 6, -24
	movq	%rsi, %r12
	pushq	%rbx
	.cfi_def_cfa_offset 32
	.cfi_offset 3, -32
	movq	%rdx, %rbp
	movq	%rdi, %rbx
	call	_ZN8opendnp312IAPDUHandlerC2Ev@PLT
	movq	_ZTVN8opendnp312WriteHandlerE@GOTPCREL(%rip), %rax
	movq	%r12, 24(%rbx)
	movq	%rbp, 32(%rbx)
	movb	$0, 40(%rbx)
	movb	$0, 41(%rbx)
	addq	$16, %rax
	movq	%rax, (%rbx)
	popq	%rbx
	.cfi_def_cfa_offset 24
	popq	%rbp
	.cfi_def_cfa_offset 16
	popq	%r12
	.cfi_def_cfa_offset 8
	ret
	.cfi_endproc
.LFE2288:
	.size	_ZN8opendnp312WriteHandlerC2ERNS_22IOutstationApplicationEPNS_8IINFieldE, .-_ZN8opendnp312WriteHandlerC2ERNS_22IOutstationApplicationEPNS_8IINFieldE
	.globl	_ZN8opendnp312WriteHandlerC1ERNS_22IOutstationApplicationEPNS_8IINFieldE
	.set	_ZN8opendnp312WriteHandlerC1ERNS_22IOutstationApplicationEPNS_8IINFieldE,_ZN8opendnp312WriteHandlerC2ERNS_22IOutstationApplicationEPNS_8IINFieldE
	.weak	_ZTSN8opendnp312WriteHandlerE
	.section	.rodata._ZTSN8opendnp312WriteHandlerE,"aG",@progbits,_ZTSN8opendnp312WriteHandlerE,comdat
	.align 16
	.type	_ZTSN8opendnp312WriteHandlerE, @object
	.size	_ZTSN8opendnp312WriteHandlerE, 26
_ZTSN8opendnp312WriteHandlerE:
	.string	"N8opendnp312WriteHandlerE"
	.weak	_ZTIN8opendnp312WriteHandlerE
	.section	.data.rel.ro._ZTIN8opendnp312WriteHandlerE,"awG",@progbits,_ZTIN8opendnp312WriteHandlerE,comdat
	.align 8
	.type	_ZTIN8opendnp312WriteHandlerE, @object
	.size	_ZTIN8opendnp312WriteHandlerE, 24
_ZTIN8opendnp312WriteHandlerE:
	.quad	_ZTVN10__cxxabiv120__si_class_type_infoE+16
	.quad	_ZTSN8opendnp312WriteHandlerE
	.quad	_ZTIN8opendnp312IAPDUHandlerE
	.weak	_ZTSN8opendnp38IVisitorINS_7IndexedINS_8IINValueEEEEE
	.section	.rodata._ZTSN8opendnp38IVisitorINS_7IndexedINS_8IINValueEEEEE,"aG",@progbits,_ZTSN8opendnp38IVisitorINS_7IndexedINS_8IINValueEEEEE,comdat
	.align 32
	.type	_ZTSN8opendnp38IVisitorINS_7IndexedINS_8IINValueEEEEE, @object
	.size	_ZTSN8opendnp38IVisitorINS_7IndexedINS_8IINValueEEEEE, 50
_ZTSN8opendnp38IVisitorINS_7IndexedINS_8IINValueEEEEE:
	.string	"N8opendnp38IVisitorINS_7IndexedINS_8IINValueEEEEE"
	.weak	_ZTIN8opendnp38IVisitorINS_7IndexedINS_8IINValueEEEEE
	.section	.data.rel.ro._ZTIN8opendnp38IVisitorINS_7IndexedINS_8IINValueEEEEE,"awG",@progbits,_ZTIN8opendnp38IVisitorINS_7IndexedINS_8IINValueEEEEE,comdat
	.align 8
	.type	_ZTIN8opendnp38IVisitorINS_7IndexedINS_8IINValueEEEEE, @object
	.size	_ZTIN8opendnp38IVisitorINS_7IndexedINS_8IINValueEEEEE, 16
_ZTIN8opendnp38IVisitorINS_7IndexedINS_8IINValueEEEEE:
	.quad	_ZTVN10__cxxabiv117__class_type_infoE+16
	.quad	_ZTSN8opendnp38IVisitorINS_7IndexedINS_8IINValueEEEEE
	.weak	_ZTSN8opendnp314FunctorVisitorINS_7IndexedINS_8IINValueEEEZNKS_11ICollectionIS3_E13ReadOnlyValueERS3_EUlRKS3_E_EE
	.section	.rodata._ZTSN8opendnp314FunctorVisitorINS_7IndexedINS_8IINValueEEEZNKS_11ICollectionIS3_E13ReadOnlyValueERS3_EUlRKS3_E_EE,"aG",@progbits,_ZTSN8opendnp314FunctorVisitorINS_7IndexedINS_8IINValueEEEZNKS_11ICollectionIS3_E13ReadOnlyValueERS3_EUlRKS3_E_EE,comdat
	.align 32
	.type	_ZTSN8opendnp314FunctorVisitorINS_7IndexedINS_8IINValueEEEZNKS_11ICollectionIS3_E13ReadOnlyValueERS3_EUlRKS3_E_EE, @object
	.size	_ZTSN8opendnp314FunctorVisitorINS_7IndexedINS_8IINValueEEEZNKS_11ICollectionIS3_E13ReadOnlyValueERS3_EUlRKS3_E_EE, 110
_ZTSN8opendnp314FunctorVisitorINS_7IndexedINS_8IINValueEEEZNKS_11ICollectionIS3_E13ReadOnlyValueERS3_EUlRKS3_E_EE:
	.string	"N8opendnp314FunctorVisitorINS_7IndexedINS_8IINValueEEEZNKS_11ICollectionIS3_E13ReadOnlyValueERS3_EUlRKS3_E_EE"
	.weak	_ZTIN8opendnp314FunctorVisitorINS_7IndexedINS_8IINValueEEEZNKS_11ICollectionIS3_E13ReadOnlyValueERS3_EUlRKS3_E_EE
	.section	.data.rel.ro._ZTIN8opendnp314FunctorVisitorINS_7IndexedINS_8IINValueEEEZNKS_11ICollectionIS3_E13ReadOnlyValueERS3_EUlRKS3_E_EE,"awG",@progbits,_ZTIN8opendnp314FunctorVisitorINS_7IndexedINS_8IINValueEEEZNKS_11ICollectionIS3_E13ReadOnlyValueERS3_EUlRKS3_E_EE,comdat
	.align 8
	.type	_ZTIN8opendnp314FunctorVisitorINS_7IndexedINS_8IINValueEEEZNKS_11ICollectionIS3_E13ReadOnlyValueERS3_EUlRKS3_E_EE, @object
	.size	_ZTIN8opendnp314FunctorVisitorINS_7IndexedINS_8IINValueEEEZNKS_11ICollectionIS3_E13ReadOnlyValueERS3_EUlRKS3_E_EE, 24
_ZTIN8opendnp314FunctorVisitorINS_7IndexedINS_8IINValueEEEZNKS_11ICollectionIS3_E13ReadOnlyValueERS3_EUlRKS3_E_EE:
	.quad	_ZTVN10__cxxabiv120__si_class_type_infoE+16
	.quad	_ZTSN8opendnp314FunctorVisitorINS_7IndexedINS_8IINValueEEEZNKS_11ICollectionIS3_E13ReadOnlyValueERS3_EUlRKS3_E_EE
	.quad	_ZTIN8opendnp38IVisitorINS_7IndexedINS_8IINValueEEEEE
	.weak	_ZTSN8opendnp38IVisitorINS_11Group50Var1EEE
	.section	.rodata._ZTSN8opendnp38IVisitorINS_11Group50Var1EEE,"aG",@progbits,_ZTSN8opendnp38IVisitorINS_11Group50Var1EEE,comdat
	.align 32
	.type	_ZTSN8opendnp38IVisitorINS_11Group50Var1EEE, @object
	.size	_ZTSN8opendnp38IVisitorINS_11Group50Var1EEE, 40
_ZTSN8opendnp38IVisitorINS_11Group50Var1EEE:
	.string	"N8opendnp38IVisitorINS_11Group50Var1EEE"
	.weak	_ZTIN8opendnp38IVisitorINS_11Group50Var1EEE
	.section	.data.rel.ro._ZTIN8opendnp38IVisitorINS_11Group50Var1EEE,"awG",@progbits,_ZTIN8opendnp38IVisitorINS_11Group50Var1EEE,comdat
	.align 8
	.type	_ZTIN8opendnp38IVisitorINS_11Group50Var1EEE, @object
	.size	_ZTIN8opendnp38IVisitorINS_11Group50Var1EEE, 16
_ZTIN8opendnp38IVisitorINS_11Group50Var1EEE:
	.quad	_ZTVN10__cxxabiv117__class_type_infoE+16
	.quad	_ZTSN8opendnp38IVisitorINS_11Group50Var1EEE
	.weak	_ZTSN8opendnp314FunctorVisitorINS_11Group50Var1EZNKS_11ICollectionIS1_E13ReadOnlyValueERS1_EUlRKS1_E_EE
	.section	.rodata._ZTSN8opendnp314FunctorVisitorINS_11Group50Var1EZNKS_11ICollectionIS1_E13ReadOnlyValueERS1_EUlRKS1_E_EE,"aG",@progbits,_ZTSN8opendnp314FunctorVisitorINS_11Group50Var1EZNKS_11ICollectionIS1_E13ReadOnlyValueERS1_EUlRKS1_E_EE,comdat
	.align 32
	.type	_ZTSN8opendnp314FunctorVisitorINS_11Group50Var1EZNKS_11ICollectionIS1_E13ReadOnlyValueERS1_EUlRKS1_E_EE, @object
	.size	_ZTSN8opendnp314FunctorVisitorINS_11Group50Var1EZNKS_11ICollectionIS1_E13ReadOnlyValueERS1_EUlRKS1_E_EE, 100
_ZTSN8opendnp314FunctorVisitorINS_11Group50Var1EZNKS_11ICollectionIS1_E13ReadOnlyValueERS1_EUlRKS1_E_EE:
	.string	"N8opendnp314FunctorVisitorINS_11Group50Var1EZNKS_11ICollectionIS1_E13ReadOnlyValueERS1_EUlRKS1_E_EE"
	.weak	_ZTIN8opendnp314FunctorVisitorINS_11Group50Var1EZNKS_11ICollectionIS1_E13ReadOnlyValueERS1_EUlRKS1_E_EE
	.section	.data.rel.ro._ZTIN8opendnp314FunctorVisitorINS_11Group50Var1EZNKS_11ICollectionIS1_E13ReadOnlyValueERS1_EUlRKS1_E_EE,"awG",@progbits,_ZTIN8opendnp314FunctorVisitorINS_11Group50Var1EZNKS_11ICollectionIS1_E13ReadOnlyValueERS1_EUlRKS1_E_EE,comdat
	.align 8
	.type	_ZTIN8opendnp314FunctorVisitorINS_11Group50Var1EZNKS_11ICollectionIS1_E13ReadOnlyValueERS1_EUlRKS1_E_EE, @object
	.size	_ZTIN8opendnp314FunctorVisitorINS_11Group50Var1EZNKS_11ICollectionIS1_E13ReadOnlyValueERS1_EUlRKS1_E_EE, 24
_ZTIN8opendnp314FunctorVisitorINS_11Group50Var1EZNKS_11ICollectionIS1_E13ReadOnlyValueERS1_EUlRKS1_E_EE:
	.quad	_ZTVN10__cxxabiv120__si_class_type_infoE+16
	.quad	_ZTSN8opendnp314FunctorVisitorINS_11Group50Var1EZNKS_11ICollectionIS1_E13ReadOnlyValueERS1_EUlRKS1_E_EE
	.quad	_ZTIN8opendnp38IVisitorINS_11Group50Var1EEE
	.weak	_ZTVN8opendnp312WriteHandlerE
	.section	.data.rel.ro._ZTVN8opendnp312WriteHandlerE,"awG",@progbits,_ZTVN8opendnp312WriteHandlerE,comdat
	.align 8
	.type	_ZTVN8opendnp312WriteHandlerE, @object
	.size	_ZTVN8opendnp312WriteHandlerE, 448
_ZTVN8opendnp312WriteHandlerE:
	.quad	0
	.quad	_ZTIN8opendnp312WriteHandlerE
	.quad	_ZN8opendnp312WriteHandler9IsAllowedEjNS_14GroupVariationENS_13QualifierCodeE
	.quad	_ZN8opendnp312IAPDUHandler13ProcessHeaderERKNS_16AllObjectsHeaderE
	.quad	_ZN8opendnp312IAPDUHandler13ProcessHeaderERKNS_11RangeHeaderE
	.quad	_ZN8opendnp312IAPDUHandler13ProcessHeaderERKNS_11CountHeaderE
	.quad	_ZN8opendnp312IAPDUHandler13ProcessHeaderERKNS_16FreeFormatHeaderERKNS_12Group120Var1ERKN7openpal6RSliceE
	.quad	_ZN8opendnp312IAPDUHandler13ProcessHeaderERKNS_16FreeFormatHeaderERKNS_12Group120Var2ERKN7openpal6RSliceE
	.quad	_ZN8opendnp312IAPDUHandler13ProcessHeaderERKNS_16FreeFormatHeaderERKNS_12Group120Var5ERKN7openpal6RSliceE
	.quad	_ZN8opendnp312IAPDUHandler13ProcessHeaderERKNS_16FreeFormatHeaderERKNS_12Group120Var6ERKN7openpal6RSliceE
	.quad	_ZN8opendnp312IAPDUHandler13ProcessHeaderERKNS_16FreeFormatHeaderERKNS_12Group120Var8ERKN7openpal6RSliceE
	.quad	_ZN8opendnp312IAPDUHandler13ProcessHeaderERKNS_16FreeFormatHeaderERKNS_12Group120Var7ERKN7openpal6RSliceE
	.quad	_ZN8opendnp312IAPDUHandler13ProcessHeaderERKNS_16FreeFormatHeaderERKNS_12Group120Var9ERKN7openpal6RSliceE
	.quad	_ZN8opendnp312IAPDUHandler13ProcessHeaderERKNS_16FreeFormatHeaderERKNS_13Group120Var10ERKN7openpal6RSliceE
	.quad	_ZN8opendnp312IAPDUHandler13ProcessHeaderERKNS_16FreeFormatHeaderERKNS_13Group120Var11ERKN7openpal6RSliceE
	.quad	_ZN8opendnp312IAPDUHandler13ProcessHeaderERKNS_16FreeFormatHeaderERKNS_13Group120Var12ERKN7openpal6RSliceE
	.quad	_ZN8opendnp312IAPDUHandler13ProcessHeaderERKNS_16FreeFormatHeaderERKNS_13Group120Var13ERKN7openpal6RSliceE
	.quad	_ZN8opendnp312IAPDUHandler13ProcessHeaderERKNS_16FreeFormatHeaderERKNS_13Group120Var14ERKN7openpal6RSliceE
	.quad	_ZN8opendnp312IAPDUHandler13ProcessHeaderERKNS_16FreeFormatHeaderERKNS_13Group120Var15ERKN7openpal6RSliceE
	.quad	_ZN8opendnp312WriteHandler13ProcessHeaderERKNS_11CountHeaderERKNS_11ICollectionINS_11Group50Var1EEE
	.quad	_ZN8opendnp312IAPDUHandler13ProcessHeaderERKNS_11CountHeaderERKNS_11ICollectionINS_11Group51Var1EEE
	.quad	_ZN8opendnp312IAPDUHandler13ProcessHeaderERKNS_11CountHeaderERKNS_11ICollectionINS_11Group51Var2EEE
	.quad	_ZN8opendnp312IAPDUHandler13ProcessHeaderERKNS_11CountHeaderERKNS_11ICollectionINS_11Group52Var1EEE
	.quad	_ZN8opendnp312IAPDUHandler13ProcessHeaderERKNS_11CountHeaderERKNS_11ICollectionINS_11Group52Var2EEE
	.quad	_ZN8opendnp312IAPDUHandler13ProcessHeaderERKNS_11CountHeaderERKNS_11ICollectionINS_12Group120Var3EEE
	.quad	_ZN8opendnp312IAPDUHandler13ProcessHeaderERKNS_11CountHeaderERKNS_11ICollectionINS_12Group120Var4EEE
	.quad	_ZN8opendnp312WriteHandler13ProcessHeaderERKNS_11RangeHeaderERKNS_11ICollectionINS_7IndexedINS_8IINValueEEEEE
	.quad	_ZN8opendnp312IAPDUHandler13ProcessHeaderERKNS_11RangeHeaderERKNS_11ICollectionINS_7IndexedINS_6BinaryEEEEE
	.quad	_ZN8opendnp312IAPDUHandler13ProcessHeaderERKNS_11RangeHeaderERKNS_11ICollectionINS_7IndexedINS_15DoubleBitBinaryEEEEE
	.quad	_ZN8opendnp312IAPDUHandler13ProcessHeaderERKNS_11RangeHeaderERKNS_11ICollectionINS_7IndexedINS_18BinaryOutputStatusEEEEE
	.quad	_ZN8opendnp312IAPDUHandler13ProcessHeaderERKNS_11RangeHeaderERKNS_11ICollectionINS_7IndexedINS_7CounterEEEEE
	.quad	_ZN8opendnp312IAPDUHandler13ProcessHeaderERKNS_11RangeHeaderERKNS_11ICollectionINS_7IndexedINS_13FrozenCounterEEEEE
	.quad	_ZN8opendnp312IAPDUHandler13ProcessHeaderERKNS_11RangeHeaderERKNS_11ICollectionINS_7IndexedINS_6AnalogEEEEE
	.quad	_ZN8opendnp312IAPDUHandler13ProcessHeaderERKNS_11RangeHeaderERKNS_11ICollectionINS_7IndexedINS_18AnalogOutputStatusEEEEE
	.quad	_ZN8opendnp312IAPDUHandler13ProcessHeaderERKNS_11RangeHeaderERKNS_11ICollectionINS_7IndexedINS_11OctetStringEEEEE
	.quad	_ZN8opendnp312IAPDUHandler13ProcessHeaderERKNS_11RangeHeaderERKNS_11ICollectionINS_7IndexedINS_15TimeAndIntervalEEEEE
	.quad	_ZN8opendnp312IAPDUHandler13ProcessHeaderERKNS_11RangeHeaderERKNS_11ICollectionINS_7IndexedINS_12Group121Var1EEEEE
	.quad	_ZN8opendnp312IAPDUHandler13ProcessHeaderERKNS_12PrefixHeaderERKNS_11ICollectionINS_7IndexedINS_6BinaryEEEEE
	.quad	_ZN8opendnp312IAPDUHandler13ProcessHeaderERKNS_12PrefixHeaderERKNS_11ICollectionINS_7IndexedINS_18BinaryOutputStatusEEEEE
	.quad	_ZN8opendnp312IAPDUHandler13ProcessHeaderERKNS_12PrefixHeaderERKNS_11ICollectionINS_7IndexedINS_15DoubleBitBinaryEEEEE
	.quad	_ZN8opendnp312IAPDUHandler13ProcessHeaderERKNS_12PrefixHeaderERKNS_11ICollectionINS_7IndexedINS_7CounterEEEEE
	.quad	_ZN8opendnp312IAPDUHandler13ProcessHeaderERKNS_12PrefixHeaderERKNS_11ICollectionINS_7IndexedINS_13FrozenCounterEEEEE
	.quad	_ZN8opendnp312IAPDUHandler13ProcessHeaderERKNS_12PrefixHeaderERKNS_11ICollectionINS_7IndexedINS_6AnalogEEEEE
	.quad	_ZN8opendnp312IAPDUHandler13ProcessHeaderERKNS_12PrefixHeaderERKNS_11ICollectionINS_7IndexedINS_18AnalogOutputStatusEEEEE
	.quad	_ZN8opendnp312IAPDUHandler13ProcessHeaderERKNS_12PrefixHeaderERKNS_11ICollectionINS_7IndexedINS_11OctetStringEEEEE
	.quad	_ZN8opendnp312WriteHandler13ProcessHeaderERKNS_12PrefixHeaderERKNS_11ICollectionINS_7IndexedINS_15TimeAndIntervalEEEEE
	.quad	_ZN8opendnp312IAPDUHandler13ProcessHeaderERKNS_12PrefixHeaderERKNS_11ICollectionINS_7IndexedINS_18BinaryCommandEventEEEEE
	.quad	_ZN8opendnp312IAPDUHandler13ProcessHeaderERKNS_12PrefixHeaderERKNS_11ICollectionINS_7IndexedINS_18AnalogCommandEventEEEEE
	.quad	_ZN8opendnp312IAPDUHandler13ProcessHeaderERKNS_12PrefixHeaderERKNS_11ICollectionINS_7IndexedINS_12Group122Var1EEEEE
	.quad	_ZN8opendnp312IAPDUHandler13ProcessHeaderERKNS_12PrefixHeaderERKNS_11ICollectionINS_7IndexedINS_12Group122Var2EEEEE
	.quad	_ZN8opendnp312IAPDUHandler13ProcessHeaderERKNS_12PrefixHeaderERKNS_11ICollectionINS_7IndexedINS_23ControlRelayOutputBlockEEEEE
	.quad	_ZN8opendnp312IAPDUHandler13ProcessHeaderERKNS_12PrefixHeaderERKNS_11ICollectionINS_7IndexedINS_17AnalogOutputInt16EEEEE
	.quad	_ZN8opendnp312IAPDUHandler13ProcessHeaderERKNS_12PrefixHeaderERKNS_11ICollectionINS_7IndexedINS_17AnalogOutputInt32EEEEE
	.quad	_ZN8opendnp312IAPDUHandler13ProcessHeaderERKNS_12PrefixHeaderERKNS_11ICollectionINS_7IndexedINS_19AnalogOutputFloat32EEEEE
	.quad	_ZN8opendnp312IAPDUHandler13ProcessHeaderERKNS_12PrefixHeaderERKNS_11ICollectionINS_7IndexedINS_20AnalogOutputDouble64EEEEE
	.quad	_ZN8opendnp312IAPDUHandler14OnHeaderResultERKNS_12HeaderRecordERKNS_8IINFieldE
	.weak	_ZTVN8opendnp314FunctorVisitorINS_7IndexedINS_8IINValueEEEZNKS_11ICollectionIS3_E13ReadOnlyValueERS3_EUlRKS3_E_EE
	.section	.data.rel.ro._ZTVN8opendnp314FunctorVisitorINS_7IndexedINS_8IINValueEEEZNKS_11ICollectionIS3_E13ReadOnlyValueERS3_EUlRKS3_E_EE,"awG",@progbits,_ZTVN8opendnp314FunctorVisitorINS_7IndexedINS_8IINValueEEEZNKS_11ICollectionIS3_E13ReadOnlyValueERS3_EUlRKS3_E_EE,comdat
	.align 8
	.type	_ZTVN8opendnp314FunctorVisitorINS_7IndexedINS_8IINValueEEEZNKS_11ICollectionIS3_E13ReadOnlyValueERS3_EUlRKS3_E_EE, @object
	.size	_ZTVN8opendnp314FunctorVisitorINS_7IndexedINS_8IINValueEEEZNKS_11ICollectionIS3_E13ReadOnlyValueERS3_EUlRKS3_E_EE, 24
_ZTVN8opendnp314FunctorVisitorINS_7IndexedINS_8IINValueEEEZNKS_11ICollectionIS3_E13ReadOnlyValueERS3_EUlRKS3_E_EE:
	.quad	0
	.quad	_ZTIN8opendnp314FunctorVisitorINS_7IndexedINS_8IINValueEEEZNKS_11ICollectionIS3_E13ReadOnlyValueERS3_EUlRKS3_E_EE
	.quad	_ZN8opendnp314FunctorVisitorINS_7IndexedINS_8IINValueEEEZNKS_11ICollectionIS3_E13ReadOnlyValueERS3_EUlRKS3_E_E7OnValueES8_
	.weak	_ZTVN8opendnp314FunctorVisitorINS_11Group50Var1EZNKS_11ICollectionIS1_E13ReadOnlyValueERS1_EUlRKS1_E_EE
	.section	.data.rel.ro._ZTVN8opendnp314FunctorVisitorINS_11Group50Var1EZNKS_11ICollectionIS1_E13ReadOnlyValueERS1_EUlRKS1_E_EE,"awG",@progbits,_ZTVN8opendnp314FunctorVisitorINS_11Group50Var1EZNKS_11ICollectionIS1_E13ReadOnlyValueERS1_EUlRKS1_E_EE,comdat
	.align 8
	.type	_ZTVN8opendnp314FunctorVisitorINS_11Group50Var1EZNKS_11ICollectionIS1_E13ReadOnlyValueERS1_EUlRKS1_E_EE, @object
	.size	_ZTVN8opendnp314FunctorVisitorINS_11Group50Var1EZNKS_11ICollectionIS1_E13ReadOnlyValueERS1_EUlRKS1_E_EE, 24
_ZTVN8opendnp314FunctorVisitorINS_11Group50Var1EZNKS_11ICollectionIS1_E13ReadOnlyValueERS1_EUlRKS1_E_EE:
	.quad	0
	.quad	_ZTIN8opendnp314FunctorVisitorINS_11Group50Var1EZNKS_11ICollectionIS1_E13ReadOnlyValueERS1_EUlRKS1_E_EE
	.quad	_ZN8opendnp314FunctorVisitorINS_11Group50Var1EZNKS_11ICollectionIS1_E13ReadOnlyValueERS1_EUlRKS1_E_E7OnValueES6_
	.ident	"GCC: (Ubuntu 7.5.0-3ubuntu1~18.04) 7.5.0"
	.section	.note.GNU-stack,"",@progbits
